
mainop_O2U4_NY.riscv:     file format elf64-littleriscv


Disassembly of section .text.init:

0000000080000000 <_start>:
    80000000:	4081                	li	ra,0
    80000002:	4101                	li	sp,0
    80000004:	4181                	li	gp,0
    80000006:	4201                	li	tp,0
    80000008:	4281                	li	t0,0
    8000000a:	4301                	li	t1,0
    8000000c:	4381                	li	t2,0
    8000000e:	4401                	li	s0,0
    80000010:	4481                	li	s1,0
    80000012:	4501                	li	a0,0
    80000014:	4581                	li	a1,0
    80000016:	4601                	li	a2,0
    80000018:	4681                	li	a3,0
    8000001a:	4701                	li	a4,0
    8000001c:	4781                	li	a5,0
    8000001e:	4801                	li	a6,0
    80000020:	4881                	li	a7,0
    80000022:	4901                	li	s2,0
    80000024:	4981                	li	s3,0
    80000026:	4a01                	li	s4,0
    80000028:	4a81                	li	s5,0
    8000002a:	4b01                	li	s6,0
    8000002c:	4b81                	li	s7,0
    8000002e:	4c01                	li	s8,0
    80000030:	4c81                	li	s9,0
    80000032:	4d01                	li	s10,0
    80000034:	4d81                	li	s11,0
    80000036:	4e01                	li	t3,0
    80000038:	4e81                	li	t4,0
    8000003a:	4f01                	li	t5,0
    8000003c:	4f81                	li	t6,0
    8000003e:	62f9                	lui	t0,0x1e
    80000040:	3002a073          	csrs	mstatus,t0
    80000044:	4285                	li	t0,1
    80000046:	02fe                	slli	t0,t0,0x1f
    80000048:	0002d863          	bgez	t0,80000058 <_start+0x58>
    8000004c:	4505                	li	a0,1
    8000004e:	00001297          	auipc	t0,0x1
    80000052:	faa2a923          	sw	a0,-78(t0) # 80001000 <tohost>
    80000056:	bfdd                	j	8000004c <_start+0x4c>
    80000058:	00000297          	auipc	t0,0x0
    8000005c:	09028293          	addi	t0,t0,144 # 800000e8 <_start+0xe8>
    80000060:	30529073          	csrw	mtvec,t0
    80000064:	00301073          	fscsr	zero
    80000068:	f0000053          	fmv.w.x	ft0,zero
    8000006c:	f00000d3          	fmv.w.x	ft1,zero
    80000070:	f0000153          	fmv.w.x	ft2,zero
    80000074:	f00001d3          	fmv.w.x	ft3,zero
    80000078:	f0000253          	fmv.w.x	ft4,zero
    8000007c:	f00002d3          	fmv.w.x	ft5,zero
    80000080:	f0000353          	fmv.w.x	ft6,zero
    80000084:	f00003d3          	fmv.w.x	ft7,zero
    80000088:	f0000453          	fmv.w.x	fs0,zero
    8000008c:	f00004d3          	fmv.w.x	fs1,zero
    80000090:	f0000553          	fmv.w.x	fa0,zero
    80000094:	f00005d3          	fmv.w.x	fa1,zero
    80000098:	f0000653          	fmv.w.x	fa2,zero
    8000009c:	f00006d3          	fmv.w.x	fa3,zero
    800000a0:	f0000753          	fmv.w.x	fa4,zero
    800000a4:	f00007d3          	fmv.w.x	fa5,zero
    800000a8:	f0000853          	fmv.w.x	fa6,zero
    800000ac:	f00008d3          	fmv.w.x	fa7,zero
    800000b0:	f0000953          	fmv.w.x	fs2,zero
    800000b4:	f00009d3          	fmv.w.x	fs3,zero
    800000b8:	f0000a53          	fmv.w.x	fs4,zero
    800000bc:	f0000ad3          	fmv.w.x	fs5,zero
    800000c0:	f0000b53          	fmv.w.x	fs6,zero
    800000c4:	f0000bd3          	fmv.w.x	fs7,zero
    800000c8:	f0000c53          	fmv.w.x	fs8,zero
    800000cc:	f0000cd3          	fmv.w.x	fs9,zero
    800000d0:	f0000d53          	fmv.w.x	fs10,zero
    800000d4:	f0000dd3          	fmv.w.x	fs11,zero
    800000d8:	f0000e53          	fmv.w.x	ft8,zero
    800000dc:	f0000ed3          	fmv.w.x	ft9,zero
    800000e0:	f0000f53          	fmv.w.x	ft10,zero
    800000e4:	f0000fd3          	fmv.w.x	ft11,zero
    800000e8:	00000297          	auipc	t0,0x0
    800000ec:	03828293          	addi	t0,t0,56 # 80000120 <trap_entry>
    800000f0:	30529073          	csrw	mtvec,t0
    800000f4:	00012197          	auipc	gp,0x12
    800000f8:	cc418193          	addi	gp,gp,-828 # 80011db8 <__global_pointer$>
    800000fc:	98718213          	addi	tp,gp,-1657 # 8001173f <_end+0x3f>
    80000100:	fc027213          	andi	tp,tp,-64
    80000104:	f1402573          	csrr	a0,mhartid
    80000108:	4585                	li	a1,1
    8000010a:	00b57063          	bgeu	a0,a1,8000010a <_start+0x10a>
    8000010e:	00150113          	addi	sp,a0,1
    80000112:	0146                	slli	sp,sp,0x11
    80000114:	9112                	add	sp,sp,tp
    80000116:	01151613          	slli	a2,a0,0x11
    8000011a:	9232                	add	tp,tp,a2
    8000011c:	1bf1006f          	j	80010ada <_init>

0000000080000120 <trap_entry>:
    80000120:	716d                	addi	sp,sp,-272
    80000122:	e406                	sd	ra,8(sp)
    80000124:	e80a                	sd	sp,16(sp)
    80000126:	ec0e                	sd	gp,24(sp)
    80000128:	f012                	sd	tp,32(sp)
    8000012a:	f416                	sd	t0,40(sp)
    8000012c:	f81a                	sd	t1,48(sp)
    8000012e:	fc1e                	sd	t2,56(sp)
    80000130:	e0a2                	sd	s0,64(sp)
    80000132:	e4a6                	sd	s1,72(sp)
    80000134:	e8aa                	sd	a0,80(sp)
    80000136:	ecae                	sd	a1,88(sp)
    80000138:	f0b2                	sd	a2,96(sp)
    8000013a:	f4b6                	sd	a3,104(sp)
    8000013c:	f8ba                	sd	a4,112(sp)
    8000013e:	fcbe                	sd	a5,120(sp)
    80000140:	e142                	sd	a6,128(sp)
    80000142:	e546                	sd	a7,136(sp)
    80000144:	e94a                	sd	s2,144(sp)
    80000146:	ed4e                	sd	s3,152(sp)
    80000148:	f152                	sd	s4,160(sp)
    8000014a:	f556                	sd	s5,168(sp)
    8000014c:	f95a                	sd	s6,176(sp)
    8000014e:	fd5e                	sd	s7,184(sp)
    80000150:	e1e2                	sd	s8,192(sp)
    80000152:	e5e6                	sd	s9,200(sp)
    80000154:	e9ea                	sd	s10,208(sp)
    80000156:	edee                	sd	s11,216(sp)
    80000158:	f1f2                	sd	t3,224(sp)
    8000015a:	f5f6                	sd	t4,232(sp)
    8000015c:	f9fa                	sd	t5,240(sp)
    8000015e:	fdfe                	sd	t6,248(sp)
    80000160:	34202573          	csrr	a0,mcause
    80000164:	341025f3          	csrr	a1,mepc
    80000168:	860a                	mv	a2,sp
    8000016a:	7a8100ef          	jal	80010912 <handle_trap>
    8000016e:	34151073          	csrw	mepc,a0
    80000172:	6289                	lui	t0,0x2
    80000174:	8002829b          	addiw	t0,t0,-2048 # 1800 <buflen.1+0x17c0>
    80000178:	3002a073          	csrs	mstatus,t0
    8000017c:	60a2                	ld	ra,8(sp)
    8000017e:	6142                	ld	sp,16(sp)
    80000180:	61e2                	ld	gp,24(sp)
    80000182:	7202                	ld	tp,32(sp)
    80000184:	72a2                	ld	t0,40(sp)
    80000186:	7342                	ld	t1,48(sp)
    80000188:	73e2                	ld	t2,56(sp)
    8000018a:	6406                	ld	s0,64(sp)
    8000018c:	64a6                	ld	s1,72(sp)
    8000018e:	6546                	ld	a0,80(sp)
    80000190:	65e6                	ld	a1,88(sp)
    80000192:	7606                	ld	a2,96(sp)
    80000194:	76a6                	ld	a3,104(sp)
    80000196:	7746                	ld	a4,112(sp)
    80000198:	77e6                	ld	a5,120(sp)
    8000019a:	680a                	ld	a6,128(sp)
    8000019c:	68aa                	ld	a7,136(sp)
    8000019e:	694a                	ld	s2,144(sp)
    800001a0:	69ea                	ld	s3,152(sp)
    800001a2:	7a0a                	ld	s4,160(sp)
    800001a4:	7aaa                	ld	s5,168(sp)
    800001a6:	7b4a                	ld	s6,176(sp)
    800001a8:	7bea                	ld	s7,184(sp)
    800001aa:	6c0e                	ld	s8,192(sp)
    800001ac:	6cae                	ld	s9,200(sp)
    800001ae:	6d4e                	ld	s10,208(sp)
    800001b0:	6dee                	ld	s11,216(sp)
    800001b2:	7e0e                	ld	t3,224(sp)
    800001b4:	7eae                	ld	t4,232(sp)
    800001b6:	7f4e                	ld	t5,240(sp)
    800001b8:	7fee                	ld	t6,248(sp)
    800001ba:	6151                	addi	sp,sp,272
    800001bc:	30200073          	mret
    800001c0:	0000                	unimp

Disassembly of section .text:

0000000080002000 <d2ull>:
    80002000:	e2050553          	fmv.x.d	a0,fa0
    80002004:	8082                	ret

0000000080002006 <ull2d>:
    80002006:	f2050553          	fmv.d.x	fa0,a0
    8000200a:	8082                	ret

000000008000200c <init_space_weights>:
    8000200c:	7139                	addi	sp,sp,-64
    8000200e:	fc06                	sd	ra,56(sp)
    80002010:	f822                	sd	s0,48(sp)
    80002012:	b422                	fsd	fs0,40(sp)
    80002014:	b026                	fsd	fs1,32(sp)
    80002016:	ac4a                	fsd	fs2,24(sp)
    80002018:	a84e                	fsd	fs3,16(sp)
    8000201a:	a452                	fsd	fs4,8(sp)
    8000201c:	a056                	fsd	fs5,0(sp)
    8000201e:	10a57053          	fmul.s	ft0,fa0,fa0
    80002022:	42000053          	fcvt.d.s	ft0,ft0
    80002026:	02007ad3          	fadd.d	fs5,ft0,ft0
    8000202a:	0000f597          	auipc	a1,0xf
    8000202e:	63e58593          	addi	a1,a1,1598 # 80011668 <halF+0xc0>
    80002032:	0005b007          	fld	ft0,0(a1)
    80002036:	1b507453          	fdiv.d	fs0,ft0,fs5
    8000203a:	842a                	mv	s0,a0
    8000203c:	22840553          	fmv.d	fa0,fs0
    80002040:	0000f097          	auipc	ra,0xf
    80002044:	fba080e7          	jalr	-70(ra) # 80010ffa <exp>
    80002048:	0000f517          	auipc	a0,0xf
    8000204c:	62850513          	addi	a0,a0,1576 # 80011670 <halF+0xc8>
    80002050:	00053007          	fld	ft0,0(a0)
    80002054:	1b5074d3          	fdiv.d	fs1,ft0,fs5
    80002058:	a008                	fsd	fa0,0(s0)
    8000205a:	22948553          	fmv.d	fa0,fs1
    8000205e:	0000f097          	auipc	ra,0xf
    80002062:	f9c080e7          	jalr	-100(ra) # 80010ffa <exp>
    80002066:	0000f517          	auipc	a0,0xf
    8000206a:	61250513          	addi	a0,a0,1554 # 80011678 <halF+0xd0>
    8000206e:	00053007          	fld	ft0,0(a0)
    80002072:	1b507953          	fdiv.d	fs2,ft0,fs5
    80002076:	a408                	fsd	fa0,8(s0)
    80002078:	23290553          	fmv.d	fa0,fs2
    8000207c:	0000f097          	auipc	ra,0xf
    80002080:	f7e080e7          	jalr	-130(ra) # 80010ffa <exp>
    80002084:	a808                	fsd	fa0,16(s0)
    80002086:	22948553          	fmv.d	fa0,fs1
    8000208a:	0000f097          	auipc	ra,0xf
    8000208e:	f70080e7          	jalr	-144(ra) # 80010ffa <exp>
    80002092:	ac08                	fsd	fa0,24(s0)
    80002094:	22840553          	fmv.d	fa0,fs0
    80002098:	0000f097          	auipc	ra,0xf
    8000209c:	f62080e7          	jalr	-158(ra) # 80010ffa <exp>
    800020a0:	b008                	fsd	fa0,32(s0)
    800020a2:	22948553          	fmv.d	fa0,fs1
    800020a6:	0000f097          	auipc	ra,0xf
    800020aa:	f54080e7          	jalr	-172(ra) # 80010ffa <exp>
    800020ae:	0000f517          	auipc	a0,0xf
    800020b2:	5d250513          	addi	a0,a0,1490 # 80011680 <halF+0xd8>
    800020b6:	00053007          	fld	ft0,0(a0)
    800020ba:	1b5079d3          	fdiv.d	fs3,ft0,fs5
    800020be:	b408                	fsd	fa0,40(s0)
    800020c0:	23398553          	fmv.d	fa0,fs3
    800020c4:	0000f097          	auipc	ra,0xf
    800020c8:	f36080e7          	jalr	-202(ra) # 80010ffa <exp>
    800020cc:	0000f517          	auipc	a0,0xf
    800020d0:	5bc50513          	addi	a0,a0,1468 # 80011688 <halF+0xe0>
    800020d4:	00053007          	fld	ft0,0(a0)
    800020d8:	1b507a53          	fdiv.d	fs4,ft0,fs5
    800020dc:	b808                	fsd	fa0,48(s0)
    800020de:	234a0553          	fmv.d	fa0,fs4
    800020e2:	0000f097          	auipc	ra,0xf
    800020e6:	f18080e7          	jalr	-232(ra) # 80010ffa <exp>
    800020ea:	bc08                	fsd	fa0,56(s0)
    800020ec:	23398553          	fmv.d	fa0,fs3
    800020f0:	0000f097          	auipc	ra,0xf
    800020f4:	f0a080e7          	jalr	-246(ra) # 80010ffa <exp>
    800020f8:	a028                	fsd	fa0,64(s0)
    800020fa:	22948553          	fmv.d	fa0,fs1
    800020fe:	0000f097          	auipc	ra,0xf
    80002102:	efc080e7          	jalr	-260(ra) # 80010ffa <exp>
    80002106:	a428                	fsd	fa0,72(s0)
    80002108:	23290553          	fmv.d	fa0,fs2
    8000210c:	0000f097          	auipc	ra,0xf
    80002110:	eee080e7          	jalr	-274(ra) # 80010ffa <exp>
    80002114:	a828                	fsd	fa0,80(s0)
    80002116:	234a0553          	fmv.d	fa0,fs4
    8000211a:	0000f097          	auipc	ra,0xf
    8000211e:	ee0080e7          	jalr	-288(ra) # 80010ffa <exp>
    80002122:	f2000053          	fmv.d.x	ft0,zero
    80002126:	22001053          	fneg.d	ft0,ft0
    8000212a:	1b507053          	fdiv.d	ft0,ft0,fs5
    8000212e:	ac28                	fsd	fa0,88(s0)
    80002130:	22000553          	fmv.d	fa0,ft0
    80002134:	0000f097          	auipc	ra,0xf
    80002138:	ec6080e7          	jalr	-314(ra) # 80010ffa <exp>
    8000213c:	b028                	fsd	fa0,96(s0)
    8000213e:	234a0553          	fmv.d	fa0,fs4
    80002142:	0000f097          	auipc	ra,0xf
    80002146:	eb8080e7          	jalr	-328(ra) # 80010ffa <exp>
    8000214a:	b428                	fsd	fa0,104(s0)
    8000214c:	23290553          	fmv.d	fa0,fs2
    80002150:	0000f097          	auipc	ra,0xf
    80002154:	eaa080e7          	jalr	-342(ra) # 80010ffa <exp>
    80002158:	b828                	fsd	fa0,112(s0)
    8000215a:	22948553          	fmv.d	fa0,fs1
    8000215e:	0000f097          	auipc	ra,0xf
    80002162:	e9c080e7          	jalr	-356(ra) # 80010ffa <exp>
    80002166:	bc28                	fsd	fa0,120(s0)
    80002168:	23398553          	fmv.d	fa0,fs3
    8000216c:	0000f097          	auipc	ra,0xf
    80002170:	e8e080e7          	jalr	-370(ra) # 80010ffa <exp>
    80002174:	a048                	fsd	fa0,128(s0)
    80002176:	234a0553          	fmv.d	fa0,fs4
    8000217a:	0000f097          	auipc	ra,0xf
    8000217e:	e80080e7          	jalr	-384(ra) # 80010ffa <exp>
    80002182:	a448                	fsd	fa0,136(s0)
    80002184:	23398553          	fmv.d	fa0,fs3
    80002188:	0000f097          	auipc	ra,0xf
    8000218c:	e72080e7          	jalr	-398(ra) # 80010ffa <exp>
    80002190:	a848                	fsd	fa0,144(s0)
    80002192:	22948553          	fmv.d	fa0,fs1
    80002196:	0000f097          	auipc	ra,0xf
    8000219a:	e64080e7          	jalr	-412(ra) # 80010ffa <exp>
    8000219e:	ac48                	fsd	fa0,152(s0)
    800021a0:	22840553          	fmv.d	fa0,fs0
    800021a4:	0000f097          	auipc	ra,0xf
    800021a8:	e56080e7          	jalr	-426(ra) # 80010ffa <exp>
    800021ac:	b048                	fsd	fa0,160(s0)
    800021ae:	22948553          	fmv.d	fa0,fs1
    800021b2:	0000f097          	auipc	ra,0xf
    800021b6:	e48080e7          	jalr	-440(ra) # 80010ffa <exp>
    800021ba:	b448                	fsd	fa0,168(s0)
    800021bc:	23290553          	fmv.d	fa0,fs2
    800021c0:	0000f097          	auipc	ra,0xf
    800021c4:	e3a080e7          	jalr	-454(ra) # 80010ffa <exp>
    800021c8:	b848                	fsd	fa0,176(s0)
    800021ca:	22948553          	fmv.d	fa0,fs1
    800021ce:	0000f097          	auipc	ra,0xf
    800021d2:	e2c080e7          	jalr	-468(ra) # 80010ffa <exp>
    800021d6:	bc48                	fsd	fa0,184(s0)
    800021d8:	22840553          	fmv.d	fa0,fs0
    800021dc:	0000f097          	auipc	ra,0xf
    800021e0:	e1e080e7          	jalr	-482(ra) # 80010ffa <exp>
    800021e4:	a068                	fsd	fa0,192(s0)
    800021e6:	70e2                	ld	ra,56(sp)
    800021e8:	7442                	ld	s0,48(sp)
    800021ea:	3422                	fld	fs0,40(sp)
    800021ec:	3482                	fld	fs1,32(sp)
    800021ee:	2962                	fld	fs2,24(sp)
    800021f0:	29c2                	fld	fs3,16(sp)
    800021f2:	2a22                	fld	fs4,8(sp)
    800021f4:	2a82                	fld	fs5,0(sp)
    800021f6:	6121                	addi	sp,sp,64
    800021f8:	8082                	ret

00000000800021fa <bilateral_core>:
    800021fa:	d1010113          	addi	sp,sp,-752
    800021fe:	2e113423          	sd	ra,744(sp)
    80002202:	2e813023          	sd	s0,736(sp)
    80002206:	2c913c23          	sd	s1,728(sp)
    8000220a:	2d213823          	sd	s2,720(sp)
    8000220e:	2d313423          	sd	s3,712(sp)
    80002212:	2d413023          	sd	s4,704(sp)
    80002216:	2b513c23          	sd	s5,696(sp)
    8000221a:	2b613823          	sd	s6,688(sp)
    8000221e:	2b713423          	sd	s7,680(sp)
    80002222:	2b813023          	sd	s8,672(sp)
    80002226:	29913c23          	sd	s9,664(sp)
    8000222a:	29a13823          	sd	s10,656(sp)
    8000222e:	29b13423          	sd	s11,648(sp)
    80002232:	28d13023          	sd	a3,640(sp)
    80002236:	26b13c23          	sd	a1,632(sp)
    8000223a:	4681                	li	a3,0
    8000223c:	4585                	li	a1,1
    8000223e:	1582                	slli	a1,a1,0x20
    80002240:	f0058893          	addi	a7,a1,-256
    80002244:	f0088593          	addi	a1,a7,-256
    80002248:	e02e                	sd	a1,0(sp)
    8000224a:	f2000053          	fmv.d.x	ft0,zero
    8000224e:	25113423          	sd	a7,584(sp)
    80002252:	a811                	j	80002266 <bilateral_core+0x6c>
    80002254:	26813683          	ld	a3,616(sp)
    80002258:	0691                	addi	a3,a3,4
    8000225a:	10000593          	li	a1,256
    8000225e:	00b69463          	bne	a3,a1,80002266 <bilateral_core+0x6c>
    80002262:	12c0e06f          	j	8001038e <bilateral_core+0xe194>
    80002266:	26d13423          	sd	a3,616(sp)
    8000226a:	4781                	li	a5,0
    8000226c:	00869313          	slli	t1,a3,0x8
    80002270:	ffe68593          	addi	a1,a3,-2
    80002274:	0115f433          	and	s0,a1,a7
    80002278:	00859393          	slli	t2,a1,0x8
    8000227c:	6582                	ld	a1,0(sp)
    8000227e:	00b3f5b3          	and	a1,t2,a1
    80002282:	20b13423          	sd	a1,520(sp)
    80002286:	fff68593          	addi	a1,a3,-1
    8000228a:	0115f6b3          	and	a3,a1,a7
    8000228e:	24d13023          	sd	a3,576(sp)
    80002292:	00859813          	slli	a6,a1,0x8
    80002296:	011875b3          	and	a1,a6,a7
    8000229a:	ef2e                	sd	a1,408(sp)
    8000229c:	10036913          	ori	s2,t1,256
    800022a0:	20036d93          	ori	s11,t1,512
    800022a4:	24613823          	sd	t1,592(sp)
    800022a8:	23013423          	sd	a6,552(sp)
    800022ac:	24813c23          	sd	s0,600(sp)
    800022b0:	22713023          	sd	t2,544(sp)
    800022b4:	23b13c23          	sd	s11,568(sp)
    800022b8:	23213823          	sd	s2,560(sp)
    800022bc:	a081                	j	800022fc <bilateral_core+0x102>
    800022be:	27813583          	ld	a1,632(sp)
    800022c2:	6692                	ld	a3,256(sp)
    800022c4:	95b6                	add	a1,a1,a3
    800022c6:	27013783          	ld	a5,624(sp)
    800022ca:	07c1                	addi	a5,a5,16
    800022cc:	0185b023          	sd	s8,0(a1)
    800022d0:	26813683          	ld	a3,616(sp)
    800022d4:	24813883          	ld	a7,584(sp)
    800022d8:	10000593          	li	a1,256
    800022dc:	25013303          	ld	t1,592(sp)
    800022e0:	22813803          	ld	a6,552(sp)
    800022e4:	23813d83          	ld	s11,568(sp)
    800022e8:	25813403          	ld	s0,600(sp)
    800022ec:	22013383          	ld	t2,544(sp)
    800022f0:	23013903          	ld	s2,560(sp)
    800022f4:	00b79463          	bne	a5,a1,800022fc <bilateral_core+0x102>
    800022f8:	33e0306f          	j	80005636 <bilateral_core+0x343c>
    800022fc:	4a01                	li	s4,0
    800022fe:	4081                	li	ra,0
    80002300:	00143693          	seqz	a3,s0
    80002304:	00f035b3          	snez	a1,a5
    80002308:	eeb6                	sd	a3,344(sp)
    8000230a:	8eed                	and	a3,a3,a1
    8000230c:	ffe78e13          	addi	t3,a5,-2
    80002310:	24013283          	ld	t0,576(sp)
    80002314:	ce81                	beqz	a3,8000232c <bilateral_core+0x132>
    80002316:	01c38733          	add	a4,t2,t3
    8000231a:	0fe88493          	addi	s1,a7,254
    8000231e:	8f65                	and	a4,a4,s1
    80002320:	070e                	slli	a4,a4,0x3
    80002322:	972a                	add	a4,a4,a0
    80002324:	00073a03          	ld	s4,0(a4)
    80002328:	00063083          	ld	ra,0(a2)
    8000232c:	4e81                	li	t4,0
    8000232e:	4f01                	li	t5,0
    80002330:	ce89                	beqz	a3,8000234a <bilateral_core+0x150>
    80002332:	0ff88693          	addi	a3,a7,255
    80002336:	00d78733          	add	a4,a5,a3
    8000233a:	971e                	add	a4,a4,t2
    8000233c:	8ef9                	and	a3,a3,a4
    8000233e:	068e                	slli	a3,a3,0x3
    80002340:	96aa                	add	a3,a3,a0
    80002342:	0006be83          	ld	t4,0(a3)
    80002346:	00863f03          	ld	t5,8(a2)
    8000234a:	4f81                	li	t6,0
    8000234c:	4981                	li	s3,0
    8000234e:	4a81                	li	s5,0
    80002350:	4b01                	li	s6,0
    80002352:	e415                	bnez	s0,8000237e <bilateral_core+0x184>
    80002354:	20813683          	ld	a3,520(sp)
    80002358:	96be                	add	a3,a3,a5
    8000235a:	068e                	slli	a3,a3,0x3
    8000235c:	96aa                	add	a3,a3,a0
    8000235e:	0006b983          	ld	s3,0(a3)
    80002362:	01063f83          	ld	t6,16(a2)
    80002366:	0017e693          	ori	a3,a5,1
    8000236a:	969e                	add	a3,a3,t2
    8000236c:	0f188713          	addi	a4,a7,241
    80002370:	8ef9                	and	a3,a3,a4
    80002372:	068e                	slli	a3,a3,0x3
    80002374:	96aa                	add	a3,a3,a0
    80002376:	0006ba83          	ld	s5,0(a3)
    8000237a:	01863b03          	ld	s6,24(a2)
    8000237e:	4b81                	li	s7,0
    80002380:	4c01                	li	s8,0
    80002382:	ec09                	bnez	s0,8000239c <bilateral_core+0x1a2>
    80002384:	0027e693          	ori	a3,a5,2
    80002388:	969e                	add	a3,a3,t2
    8000238a:	0f288713          	addi	a4,a7,242
    8000238e:	8ef9                	and	a3,a3,a4
    80002390:	068e                	slli	a3,a3,0x3
    80002392:	96aa                	add	a3,a3,a0
    80002394:	0006bb83          	ld	s7,0(a3)
    80002398:	02063c03          	ld	s8,32(a2)
    8000239c:	4401                	li	s0,0
    8000239e:	0012b713          	seqz	a4,t0
    800023a2:	00b773b3          	and	t2,a4,a1
    800023a6:	4d01                	li	s10,0
    800023a8:	00038c63          	beqz	t2,800023c0 <bilateral_core+0x1c6>
    800023ac:	01c805b3          	add	a1,a6,t3
    800023b0:	0fe88693          	addi	a3,a7,254
    800023b4:	8df5                	and	a1,a1,a3
    800023b6:	058e                	slli	a1,a1,0x3
    800023b8:	95aa                	add	a1,a1,a0
    800023ba:	6180                	ld	s0,0(a1)
    800023bc:	02863d03          	ld	s10,40(a2)
    800023c0:	4d81                	li	s11,0
    800023c2:	4481                	li	s1,0
    800023c4:	00038d63          	beqz	t2,800023de <bilateral_core+0x1e4>
    800023c8:	0ff88593          	addi	a1,a7,255
    800023cc:	00b786b3          	add	a3,a5,a1
    800023d0:	96c2                	add	a3,a3,a6
    800023d2:	8df5                	and	a1,a1,a3
    800023d4:	058e                	slli	a1,a1,0x3
    800023d6:	95aa                	add	a1,a1,a0
    800023d8:	0005bd83          	ld	s11,0(a1)
    800023dc:	7a04                	ld	s1,48(a2)
    800023de:	f782                	sd	zero,488(sp)
    800023e0:	ef82                	sd	zero,472(sp)
    800023e2:	00029a63          	bnez	t0,800023f6 <bilateral_core+0x1fc>
    800023e6:	65fa                	ld	a1,408(sp)
    800023e8:	95be                	add	a1,a1,a5
    800023ea:	058e                	slli	a1,a1,0x3
    800023ec:	95aa                	add	a1,a1,a0
    800023ee:	618c                	ld	a1,0(a1)
    800023f0:	f7ae                	sd	a1,488(sp)
    800023f2:	7e0c                	ld	a1,56(a2)
    800023f4:	efae                	sd	a1,472(sp)
    800023f6:	20013023          	sd	zero,512(sp)
    800023fa:	26013823          	sd	zero,624(sp)
    800023fe:	4581                	li	a1,0
    80002400:	4681                	li	a3,0
    80002402:	02029a63          	bnez	t0,80002436 <bilateral_core+0x23c>
    80002406:	0017e593          	ori	a1,a5,1
    8000240a:	95c2                	add	a1,a1,a6
    8000240c:	0f188693          	addi	a3,a7,241
    80002410:	8df5                	and	a1,a1,a3
    80002412:	058e                	slli	a1,a1,0x3
    80002414:	95aa                	add	a1,a1,a0
    80002416:	618c                	ld	a1,0(a1)
    80002418:	26b13823          	sd	a1,624(sp)
    8000241c:	622c                	ld	a1,64(a2)
    8000241e:	20b13023          	sd	a1,512(sp)
    80002422:	0027e593          	ori	a1,a5,2
    80002426:	95c2                	add	a1,a1,a6
    80002428:	0f288693          	addi	a3,a7,242
    8000242c:	8df5                	and	a1,a1,a3
    8000242e:	058e                	slli	a1,a1,0x3
    80002430:	95aa                	add	a1,a1,a0
    80002432:	618c                	ld	a1,0(a1)
    80002434:	6634                	ld	a3,72(a2)
    80002436:	faae                	sd	a1,368(sp)
    80002438:	f6b6                	sd	a3,360(sp)
    8000243a:	cb8d                	beqz	a5,8000246c <bilateral_core+0x272>
    8000243c:	01c305b3          	add	a1,t1,t3
    80002440:	0fe88693          	addi	a3,a7,254
    80002444:	8df5                	and	a1,a1,a3
    80002446:	058e                	slli	a1,a1,0x3
    80002448:	95aa                	add	a1,a1,a0
    8000244a:	618c                	ld	a1,0(a1)
    8000244c:	f22e                	sd	a1,288(sp)
    8000244e:	6a2c                	ld	a1,80(a2)
    80002450:	ee2e                	sd	a1,280(sp)
    80002452:	0ff88593          	addi	a1,a7,255
    80002456:	00b786b3          	add	a3,a5,a1
    8000245a:	969a                	add	a3,a3,t1
    8000245c:	8df5                	and	a1,a1,a3
    8000245e:	058e                	slli	a1,a1,0x3
    80002460:	95aa                	add	a1,a1,a0
    80002462:	618c                	ld	a1,0(a1)
    80002464:	ea2e                	sd	a1,272(sp)
    80002466:	6e2c                	ld	a1,88(a2)
    80002468:	e62e                	sd	a1,264(sp)
    8000246a:	a029                	j	80002474 <bilateral_core+0x27a>
    8000246c:	ee02                	sd	zero,280(sp)
    8000246e:	f202                	sd	zero,288(sp)
    80002470:	ea02                	sd	zero,272(sp)
    80002472:	e602                	sd	zero,264(sp)
    80002474:	feba                	sd	a4,376(sp)
    80002476:	e7d2                	sd	s4,456(sp)
    80002478:	e386                	sd	ra,448(sp)
    8000247a:	f622                	sd	s0,296(sp)
    8000247c:	e326                	sd	s1,384(sp)
    8000247e:	cb99                	beqz	a5,80002494 <bilateral_core+0x29a>
    80002480:	8cf2                	mv	s9,t3
    80002482:	01c906b3          	add	a3,s2,t3
    80002486:	068e                	slli	a3,a3,0x3
    80002488:	96aa                	add	a3,a3,a0
    8000248a:	628c                	ld	a1,0(a3)
    8000248c:	e22e                	sd	a1,256(sp)
    8000248e:	7e2c                	ld	a1,120(a2)
    80002490:	fdae                	sd	a1,248(sp)
    80002492:	a021                	j	8000249a <bilateral_core+0x2a0>
    80002494:	8cf2                	mv	s9,t3
    80002496:	e202                	sd	zero,256(sp)
    80002498:	fd82                	sd	zero,248(sp)
    8000249a:	006785b3          	add	a1,a5,t1
    8000249e:	26b13023          	sd	a1,608(sp)
    800024a2:	00359813          	slli	a6,a1,0x3
    800024a6:	010505b3          	add	a1,a0,a6
    800024aa:	e8ae                	sd	a1,80(sp)
    800024ac:	0005b083          	ld	ra,0(a1)
    800024b0:	06063283          	ld	t0,96(a2)
    800024b4:	0017e593          	ori	a1,a5,1
    800024b8:	ffae                	sd	a1,504(sp)
    800024ba:	00b30733          	add	a4,t1,a1
    800024be:	00371893          	slli	a7,a4,0x3
    800024c2:	01150a33          	add	s4,a0,a7
    800024c6:	000a3e03          	ld	t3,0(s4)
    800024ca:	762c                	ld	a1,104(a2)
    800024cc:	e2ae                	sd	a1,320(sp)
    800024ce:	0027e593          	ori	a1,a5,2
    800024d2:	20b13c23          	sd	a1,536(sp)
    800024d6:	959a                	add	a1,a1,t1
    800024d8:	00359693          	slli	a3,a1,0x3
    800024dc:	00d504b3          	add	s1,a0,a3
    800024e0:	20913823          	sd	s1,528(sp)
    800024e4:	6084                	ld	s1,0(s1)
    800024e6:	7a20                	ld	s0,112(a2)
    800024e8:	fb2e                	sd	a1,432(sp)
    800024ea:	e736                	sd	a3,392(sp)
    800024ec:	ff3a                	sd	a4,440(sp)
    800024ee:	eb9e                	sd	t2,464(sp)
    800024f0:	eaf2                	sd	t3,336(sp)
    800024f2:	e696                	sd	t0,328(sp)
    800024f4:	fe26                	sd	s1,312(sp)
    800024f6:	fa22                	sd	s0,304(sp)
    800024f8:	8e6e                	mv	t3,s11
    800024fa:	cb99                	beqz	a5,80002510 <bilateral_core+0x316>
    800024fc:	012786b3          	add	a3,a5,s2
    80002500:	068e                	slli	a3,a3,0x3
    80002502:	96aa                	add	a3,a3,a0
    80002504:	ff86b583          	ld	a1,-8(a3)
    80002508:	f1ae                	sd	a1,224(sp)
    8000250a:	624c                	ld	a1,128(a2)
    8000250c:	f5ae                	sd	a1,232(sp)
    8000250e:	a019                	j	80002514 <bilateral_core+0x31a>
    80002510:	f182                	sd	zero,224(sp)
    80002512:	f582                	sd	zero,232(sp)
    80002514:	23813703          	ld	a4,568(sp)
    80002518:	00f906b3          	add	a3,s2,a5
    8000251c:	068e                	slli	a3,a3,0x3
    8000251e:	00d505b3          	add	a1,a0,a3
    80002522:	f2ae                	sd	a1,352(sp)
    80002524:	0005bd83          	ld	s11,0(a1)
    80002528:	08863383          	ld	t2,136(a2)
    8000252c:	75fe                	ld	a1,504(sp)
    8000252e:	00b906b3          	add	a3,s2,a1
    80002532:	068e                	slli	a3,a3,0x3
    80002534:	00d505b3          	add	a1,a0,a3
    80002538:	fbae                	sd	a1,496(sp)
    8000253a:	0005b283          	ld	t0,0(a1)
    8000253e:	6a44                	ld	s1,144(a2)
    80002540:	21813583          	ld	a1,536(sp)
    80002544:	00b906b3          	add	a3,s2,a1
    80002548:	068e                	slli	a3,a3,0x3
    8000254a:	00d505b3          	add	a1,a0,a3
    8000254e:	f3ae                	sd	a1,480(sp)
    80002550:	0005b303          	ld	t1,0(a1)
    80002554:	09863903          	ld	s2,152(a2)
    80002558:	cb91                	beqz	a5,8000256c <bilateral_core+0x372>
    8000255a:	019706b3          	add	a3,a4,s9
    8000255e:	068e                	slli	a3,a3,0x3
    80002560:	96aa                	add	a3,a3,a0
    80002562:	628c                	ld	a1,0(a3)
    80002564:	edae                	sd	a1,216(sp)
    80002566:	724c                	ld	a1,160(a2)
    80002568:	f9ae                	sd	a1,240(sp)
    8000256a:	a019                	j	80002570 <bilateral_core+0x376>
    8000256c:	ed82                	sd	zero,216(sp)
    8000256e:	f982                	sd	zero,240(sp)
    80002570:	eb46                	sd	a7,400(sp)
    80002572:	f742                	sd	a6,424(sp)
    80002574:	f352                	sd	s4,416(sp)
    80002576:	85fe                	mv	a1,t6
    80002578:	cb99                	beqz	a5,8000258e <bilateral_core+0x394>
    8000257a:	00e786b3          	add	a3,a5,a4
    8000257e:	068e                	slli	a3,a3,0x3
    80002580:	96aa                	add	a3,a3,a0
    80002582:	8a3e                	mv	s4,a5
    80002584:	ff86b803          	ld	a6,-8(a3)
    80002588:	0a863f83          	ld	t6,168(a2)
    8000258c:	a021                	j	80002594 <bilateral_core+0x39a>
    8000258e:	8a3e                	mv	s4,a5
    80002590:	4801                	li	a6,0
    80002592:	4f81                	li	t6,0
    80002594:	88ba                	mv	a7,a4
    80002596:	77b2                	ld	a5,296(sp)
    80002598:	743e                	ld	s0,488(sp)
    8000259a:	677e                	ld	a4,472(sp)
    8000259c:	8165868b          	.insn	4, 0x8165868b
    800025a0:	659e                	ld	a1,448(sp)
    800025a2:	61e5868b          	.insn	4, 0x61e5868b
    800025a6:	4159868b          	.insn	4, 0x4159868b
    800025aa:	65be                	ld	a1,456(sp)
    800025ac:	21d5868b          	.insn	4, 0x21d5868b
    800025b0:	659a                	ld	a1,384(sp)
    800025b2:	84e5868b          	.insn	4, 0x84e5868b
    800025b6:	28013c83          	ld	s9,640(sp)
    800025ba:	01909efb          	.insn	4, 0x01909efb
    800025be:	65ac058b          	.insn	4, 0x65ac058b
    800025c2:	448e058b          	.insn	4, 0x448e058b
    800025c6:	24fb858b          	.insn	4, 0x24fb858b
    800025ca:	f20e80d3          	fmv.d.x	ft1,t4
    800025ce:	65f2                	ld	a1,280(sp)
    800025d0:	6732                	ld	a4,264(sp)
    800025d2:	88e5858b          	.insn	4, 0x88e5858b
    800025d6:	0200f0d3          	fadd.d	ft1,ft1,ft0
    800025da:	419095fb          	.insn	4, 0x419095fb
    800025de:	20013703          	ld	a4,512(sp)
    800025e2:	77b6                	ld	a5,360(sp)
    800025e4:	68f7040b          	.insn	4, 0x68f7040b
    800025e8:	7712                	ld	a4,288(sp)
    800025ea:	67d2                	ld	a5,272(sp)
    800025ec:	48f7040b          	.insn	4, 0x48f7040b
    800025f0:	27013703          	ld	a4,624(sp)
    800025f4:	77d6                	ld	a5,368(sp)
    800025f6:	28f7040b          	.insn	4, 0x28f7040b
    800025fa:	f2058153          	fmv.d.x	ft2,a1
    800025fe:	776e                	ld	a4,248(sp)
    80002600:	77d2                	ld	a5,304(sp)
    80002602:	8ce7840b          	.insn	4, 0x8ce7840b
    80002606:	0220f0d3          	fadd.d	ft1,ft1,ft2
    8000260a:	819097fb          	.insn	4, 0x819097fb
    8000260e:	6736                	ld	a4,328(sp)
    80002610:	6416                	ld	s0,320(sp)
    80002612:	6c87040b          	.insn	4, 0x6c87040b
    80002616:	6712                	ld	a4,256(sp)
    80002618:	7472                	ld	s0,312(sp)
    8000261a:	4ce4040b          	.insn	4, 0x4ce4040b
    8000261e:	9d24848b          	.insn	4, 0x9d24848b
    80002622:	f2078153          	fmv.d.x	ft2,a5
    80002626:	76ae                	ld	a3,232(sp)
    80002628:	7c76870b          	.insn	4, 0x7c76870b
    8000262c:	0220f0d3          	fadd.d	ft1,ft1,ft2
    80002630:	6756                	ld	a4,336(sp)
    80002632:	2ce0870b          	.insn	4, 0x2ce0870b
    80002636:	c19094fb          	.insn	4, 0xc19094fb
    8000263a:	5c62870b          	.insn	4, 0x5c62870b
    8000263e:	768e                	ld	a3,224(sp)
    80002640:	3db6870b          	.insn	4, 0x3db6870b
    80002644:	c190977b          	.insn	4, 0xc190977b
    80002648:	f2048153          	fmv.d.x	ft2,s1
    8000264c:	0220f0d3          	fadd.d	ft1,ft1,ft2
    80002650:	f2070153          	fmv.d.x	ft2,a4
    80002654:	01488733          	add	a4,a7,s4
    80002658:	070e                	slli	a4,a4,0x3
    8000265a:	972a                	add	a4,a4,a0
    8000265c:	fe3a                	sd	a4,312(sp)
    8000265e:	6318                	ld	a4,0(a4)
    80002660:	66ee                	ld	a3,216(sp)
    80002662:	3d06840b          	.insn	4, 0x3d06840b
    80002666:	747e                	ld	s0,504(sp)
    80002668:	9446                	add	s0,s0,a7
    8000266a:	040e                	slli	s0,s0,0x3
    8000266c:	942a                	add	s0,s0,a0
    8000266e:	e3a2                	sd	s0,448(sp)
    80002670:	6000                	ld	s0,0(s0)
    80002672:	0220f0d3          	fadd.d	ft1,ft1,ft2
    80002676:	5c87070b          	.insn	4, 0x5c87070b
    8000267a:	7a58                	ld	a4,176(a2)
    8000267c:	7e40                	ld	s0,184(a2)
    8000267e:	76ce                	ld	a3,240(sp)
    80002680:	7df6885b          	.insn	4, 0x7df6885b
    80002684:	d087177b          	.insn	4, 0xd087177b
    80002688:	f2070153          	fmv.d.x	ft2,a4
    8000268c:	0220f0d3          	fadd.d	ft1,ft1,ft2
    80002690:	26013703          	ld	a4,608(sp)
    80002694:	20270713          	addi	a4,a4,514
    80002698:	070e                	slli	a4,a4,0x3
    8000269a:	972a                	add	a4,a4,a0
    8000269c:	6318                	ld	a4,0(a4)
    8000269e:	6260                	ld	s0,192(a2)
    800026a0:	3c0702db          	.insn	4, 0x3c0702db
    800026a4:	cc04177b          	.insn	4, 0xcc04177b
    800026a8:	f2070153          	fmv.d.x	ft2,a4
    800026ac:	0220f153          	fadd.d	ft2,ft1,ft2
    800026b0:	01de86ab          	.insn	4, 0x01de86ab
    800026b4:	04b5842b          	.insn	4, 0x04b5842b
    800026b8:	0000f597          	auipc	a1,0xf
    800026bc:	fd858593          	addi	a1,a1,-40 # 80011690 <halF+0xe8>
    800026c0:	0005b087          	fld	ft1,0(a1)
    800026c4:	08f785ab          	.insn	4, 0x08f785ab
    800026c8:	a22097d3          	flt.d	a5,ft1,ft2
    800026cc:	0c9484ab          	.insn	4, 0x0c9484ab
    800026d0:	1ce7072b          	.insn	4, 0x1ce7072b
    800026d4:	c3a9                	beqz	a5,80002716 <bilateral_core+0x51c>
    800026d6:	f20681d3          	fmv.d.x	ft3,a3
    800026da:	0201f1d3          	fadd.d	ft3,ft3,ft0
    800026de:	f2040253          	fmv.d.x	ft4,s0
    800026e2:	0241f1d3          	fadd.d	ft3,ft3,ft4
    800026e6:	f2058253          	fmv.d.x	ft4,a1
    800026ea:	0241f1d3          	fadd.d	ft3,ft3,ft4
    800026ee:	f2048253          	fmv.d.x	ft4,s1
    800026f2:	0241f1d3          	fadd.d	ft3,ft3,ft4
    800026f6:	f2080253          	fmv.d.x	ft4,a6
    800026fa:	0241f1d3          	fadd.d	ft3,ft3,ft4
    800026fe:	f2028253          	fmv.d.x	ft4,t0
    80002702:	0241f1d3          	fadd.d	ft3,ft3,ft4
    80002706:	f2070253          	fmv.d.x	ft4,a4
    8000270a:	0241f1d3          	fadd.d	ft3,ft3,ft4
    8000270e:	1a21f153          	fdiv.d	ft2,ft3,ft2
    80002712:	e20100d3          	fmv.x.d	ra,ft2
    80002716:	4381                	li	t2,0
    80002718:	27813583          	ld	a1,632(sp)
    8000271c:	76ba                	ld	a3,424(sp)
    8000271e:	95b6                	add	a1,a1,a3
    80002720:	0015b023          	sd	ra,0(a1)
    80002724:	759a                	ld	a1,416(sp)
    80002726:	0005bc83          	ld	s9,0(a1)
    8000272a:	fffa0f13          	addi	t5,s4,-1
    8000272e:	014f35b3          	sltu	a1,t5,s4
    80002732:	66f6                	ld	a3,344(sp)
    80002734:	8df5                	and	a1,a1,a3
    80002736:	4d01                	li	s10,0
    80002738:	24813703          	ld	a4,584(sp)
    8000273c:	25013f83          	ld	t6,592(sp)
    80002740:	22813883          	ld	a7,552(sp)
    80002744:	22013403          	ld	s0,544(sp)
    80002748:	23013e03          	ld	t3,560(sp)
    8000274c:	635e                	ld	t1,464(sp)
    8000274e:	cd81                	beqz	a1,80002766 <bilateral_core+0x56c>
    80002750:	01e405b3          	add	a1,s0,t5
    80002754:	0ff70693          	addi	a3,a4,255
    80002758:	8df5                	and	a1,a1,a3
    8000275a:	058e                	slli	a1,a1,0x3
    8000275c:	95aa                	add	a1,a1,a0
    8000275e:	0005b383          	ld	t2,0(a1)
    80002762:	00063d03          	ld	s10,0(a2)
    80002766:	4781                	li	a5,0
    80002768:	4981                	li	s3,0
    8000276a:	4e81                	li	t4,0
    8000276c:	4901                	li	s2,0
    8000276e:	4a81                	li	s5,0
    80002770:	4b01                	li	s6,0
    80002772:	24013283          	ld	t0,576(sp)
    80002776:	25813483          	ld	s1,600(sp)
    8000277a:	e0a9                	bnez	s1,800027bc <bilateral_core+0x5c2>
    8000277c:	014405b3          	add	a1,s0,s4
    80002780:	0f070693          	addi	a3,a4,240
    80002784:	8df5                	and	a1,a1,a3
    80002786:	058e                	slli	a1,a1,0x3
    80002788:	95aa                	add	a1,a1,a0
    8000278a:	0005be83          	ld	t4,0(a1)
    8000278e:	00863903          	ld	s2,8(a2)
    80002792:	20813583          	ld	a1,520(sp)
    80002796:	76fe                	ld	a3,504(sp)
    80002798:	95b6                	add	a1,a1,a3
    8000279a:	058e                	slli	a1,a1,0x3
    8000279c:	95aa                	add	a1,a1,a0
    8000279e:	0005b983          	ld	s3,0(a1)
    800027a2:	6a1c                	ld	a5,16(a2)
    800027a4:	21813583          	ld	a1,536(sp)
    800027a8:	95a2                	add	a1,a1,s0
    800027aa:	0f270693          	addi	a3,a4,242
    800027ae:	8df5                	and	a1,a1,a3
    800027b0:	058e                	slli	a1,a1,0x3
    800027b2:	95aa                	add	a1,a1,a0
    800027b4:	0005ba83          	ld	s5,0(a1)
    800027b8:	01863b03          	ld	s6,24(a2)
    800027bc:	4b81                	li	s7,0
    800027be:	4c01                	li	s8,0
    800027c0:	ec89                	bnez	s1,800027da <bilateral_core+0x5e0>
    800027c2:	003a6593          	ori	a1,s4,3
    800027c6:	95a2                	add	a1,a1,s0
    800027c8:	0f370693          	addi	a3,a4,243
    800027cc:	8df5                	and	a1,a1,a3
    800027ce:	058e                	slli	a1,a1,0x3
    800027d0:	95aa                	add	a1,a1,a0
    800027d2:	0005bb83          	ld	s7,0(a1)
    800027d6:	02063c03          	ld	s8,32(a2)
    800027da:	4801                	li	a6,0
    800027dc:	4481                	li	s1,0
    800027de:	00030c63          	beqz	t1,800027f6 <bilateral_core+0x5fc>
    800027e2:	01e885b3          	add	a1,a7,t5
    800027e6:	0ff70693          	addi	a3,a4,255
    800027ea:	8df5                	and	a1,a1,a3
    800027ec:	058e                	slli	a1,a1,0x3
    800027ee:	95aa                	add	a1,a1,a0
    800027f0:	0005b803          	ld	a6,0(a1)
    800027f4:	7604                	ld	s1,40(a2)
    800027f6:	4401                	li	s0,0
    800027f8:	4301                	li	t1,0
    800027fa:	4d81                	li	s11,0
    800027fc:	4081                	li	ra,0
    800027fe:	02029563          	bnez	t0,80002828 <bilateral_core+0x62e>
    80002802:	014885b3          	add	a1,a7,s4
    80002806:	0f070693          	addi	a3,a4,240
    8000280a:	8df5                	and	a1,a1,a3
    8000280c:	058e                	slli	a1,a1,0x3
    8000280e:	95aa                	add	a1,a1,a0
    80002810:	0005b303          	ld	t1,0(a1)
    80002814:	7a00                	ld	s0,48(a2)
    80002816:	65fa                	ld	a1,408(sp)
    80002818:	76fe                	ld	a3,504(sp)
    8000281a:	95b6                	add	a1,a1,a3
    8000281c:	058e                	slli	a1,a1,0x3
    8000281e:	95aa                	add	a1,a1,a0
    80002820:	0005bd83          	ld	s11,0(a1)
    80002824:	03863083          	ld	ra,56(a2)
    80002828:	e782                	sd	zero,456(sp)
    8000282a:	eb82                	sd	zero,464(sp)
    8000282c:	4581                	li	a1,0
    8000282e:	4681                	li	a3,0
    80002830:	02029863          	bnez	t0,80002860 <bilateral_core+0x666>
    80002834:	21813583          	ld	a1,536(sp)
    80002838:	95c6                	add	a1,a1,a7
    8000283a:	0f270693          	addi	a3,a4,242
    8000283e:	8df5                	and	a1,a1,a3
    80002840:	058e                	slli	a1,a1,0x3
    80002842:	95aa                	add	a1,a1,a0
    80002844:	618c                	ld	a1,0(a1)
    80002846:	ebae                	sd	a1,464(sp)
    80002848:	622c                	ld	a1,64(a2)
    8000284a:	e7ae                	sd	a1,456(sp)
    8000284c:	003a6593          	ori	a1,s4,3
    80002850:	95c6                	add	a1,a1,a7
    80002852:	0f370693          	addi	a3,a4,243
    80002856:	8df5                	and	a1,a1,a3
    80002858:	058e                	slli	a1,a1,0x3
    8000285a:	95aa                	add	a1,a1,a0
    8000285c:	618c                	ld	a1,0(a1)
    8000285e:	6634                	ld	a3,72(a2)
    80002860:	f376                	sd	t4,416(sp)
    80002862:	f69e                	sd	t2,360(sp)
    80002864:	e6d6                	sd	s5,328(sp)
    80002866:	e2ce                	sd	s3,320(sp)
    80002868:	fa26                	sd	s1,304(sp)
    8000286a:	f66a                	sd	s10,296(sp)
    8000286c:	f222                	sd	s0,288(sp)
    8000286e:	ee2e                	sd	a1,280(sp)
    80002870:	ea36                	sd	a3,272(sp)
    80002872:	82c2                	mv	t0,a6
    80002874:	883e                	mv	a6,a5
    80002876:	000a0e63          	beqz	s4,80002892 <bilateral_core+0x698>
    8000287a:	01ef85b3          	add	a1,t6,t5
    8000287e:	0ff70693          	addi	a3,a4,255
    80002882:	8df5                	and	a1,a1,a3
    80002884:	058e                	slli	a1,a1,0x3
    80002886:	95aa                	add	a1,a1,a0
    80002888:	618c                	ld	a1,0(a1)
    8000288a:	edae                	sd	a1,216(sp)
    8000288c:	05063383          	ld	t2,80(a2)
    80002890:	a019                	j	80002896 <bilateral_core+0x69c>
    80002892:	ed82                	sd	zero,216(sp)
    80002894:	4381                	li	t2,0
    80002896:	0f070593          	addi	a1,a4,240
    8000289a:	20b13023          	sd	a1,512(sp)
    8000289e:	26013683          	ld	a3,608(sp)
    800028a2:	8df5                	and	a1,a1,a3
    800028a4:	058e                	slli	a1,a1,0x3
    800028a6:	00b50433          	add	s0,a0,a1
    800028aa:	00043983          	ld	s3,0(s0)
    800028ae:	05863a83          	ld	s5,88(a2)
    800028b2:	06063883          	ld	a7,96(a2)
    800028b6:	21013683          	ld	a3,528(sp)
    800028ba:	0006be83          	ld	t4,0(a3)
    800028be:	763c                	ld	a5,104(a2)
    800028c0:	003a6693          	ori	a3,s4,3
    800028c4:	f7b6                	sd	a3,488(sp)
    800028c6:	96fe                	add	a3,a3,t6
    800028c8:	00369713          	slli	a4,a3,0x3
    800028cc:	00e504b3          	add	s1,a0,a4
    800028d0:	608c                	ld	a1,0(s1)
    800028d2:	07063f83          	ld	t6,112(a2)
    800028d6:	27413823          	sd	s4,624(sp)
    800028da:	f736                	sd	a3,424(sp)
    800028dc:	faba                	sd	a4,368(sp)
    800028de:	eaa6                	sd	s1,336(sp)
    800028e0:	e322                	sd	s0,384(sp)
    800028e2:	e676                	sd	t4,264(sp)
    800028e4:	e246                	sd	a7,256(sp)
    800028e6:	fdbe                	sd	a5,248(sp)
    800028e8:	f9ae                	sd	a1,240(sp)
    800028ea:	f5ce                	sd	s3,232(sp)
    800028ec:	f1d6                	sd	s5,224(sp)
    800028ee:	87da                	mv	a5,s6
    800028f0:	000a0b63          	beqz	s4,80002906 <bilateral_core+0x70c>
    800028f4:	01ee06b3          	add	a3,t3,t5
    800028f8:	068e                	slli	a3,a3,0x3
    800028fa:	96aa                	add	a3,a3,a0
    800028fc:	628c                	ld	a1,0(a3)
    800028fe:	e5ae                	sd	a1,200(sp)
    80002900:	07863883          	ld	a7,120(a2)
    80002904:	a019                	j	8000290a <bilateral_core+0x710>
    80002906:	e582                	sd	zero,200(sp)
    80002908:	4881                	li	a7,0
    8000290a:	8416                	mv	s0,t0
    8000290c:	859e                	mv	a1,t2
    8000290e:	7716                	ld	a4,352(sp)
    80002910:	00073b03          	ld	s6,0(a4)
    80002914:	6254                	ld	a3,128(a2)
    80002916:	775e                	ld	a4,496(sp)
    80002918:	00073983          	ld	s3,0(a4)
    8000291c:	08863d03          	ld	s10,136(a2)
    80002920:	771e                	ld	a4,480(sp)
    80002922:	00073e83          	ld	t4,0(a4)
    80002926:	09063a83          	ld	s5,144(a2)
    8000292a:	773e                	ld	a4,488(sp)
    8000292c:	9772                	add	a4,a4,t3
    8000292e:	070e                	slli	a4,a4,0x3
    80002930:	972a                	add	a4,a4,a0
    80002932:	efba                	sd	a4,472(sp)
    80002934:	00073e03          	ld	t3,0(a4)
    80002938:	09863283          	ld	t0,152(a2)
    8000293c:	27013703          	ld	a4,624(sp)
    80002940:	cf09                	beqz	a4,8000295a <bilateral_core+0x760>
    80002942:	874a                	mv	a4,s2
    80002944:	23813903          	ld	s2,568(sp)
    80002948:	01e904b3          	add	s1,s2,t5
    8000294c:	048e                	slli	s1,s1,0x3
    8000294e:	94aa                	add	s1,s1,a0
    80002950:	6084                	ld	s1,0(s1)
    80002952:	e9a6                	sd	s1,208(sp)
    80002954:	0a063a03          	ld	s4,160(a2)
    80002958:	a031                	j	80002964 <bilateral_core+0x76a>
    8000295a:	874a                	mv	a4,s2
    8000295c:	e982                	sd	zero,208(sp)
    8000295e:	4a01                	li	s4,0
    80002960:	23813903          	ld	s2,568(sp)
    80002964:	80f8048b          	.insn	4, 0x80f8048b
    80002968:	77b2                	ld	a5,296(sp)
    8000296a:	60e7848b          	.insn	4, 0x60e7848b
    8000296e:	6736                	ld	a4,328(sp)
    80002970:	6796                	ld	a5,320(sp)
    80002972:	40e7848b          	.insn	4, 0x40e7848b
    80002976:	771a                	ld	a4,416(sp)
    80002978:	77b6                	ld	a5,360(sp)
    8000297a:	20e7848b          	.insn	4, 0x20e7848b
    8000297e:	28013803          	ld	a6,640(sp)
    80002982:	010c93fb          	.insn	4, 0x010c93fb
    80002986:	7712                	ld	a4,288(sp)
    80002988:	8417078b          	.insn	4, 0x8417078b
    8000298c:	7752                	ld	a4,304(sp)
    8000298e:	64ec078b          	.insn	4, 0x64ec078b
    80002992:	45b3078b          	.insn	4, 0x45b3078b
    80002996:	f2038153          	fmv.d.x	ft2,t2
    8000299a:	248b878b          	.insn	4, 0x248b878b
    8000299e:	02017153          	fadd.d	ft2,ft2,ft0
    800029a2:	410c9f7b          	.insn	4, 0x410c9f7b
    800029a6:	770e                	ld	a4,224(sp)
    800029a8:	88e5878b          	.insn	4, 0x88e5878b
    800029ac:	65be                	ld	a1,456(sp)
    800029ae:	6752                	ld	a4,272(sp)
    800029b0:	68e5878b          	.insn	4, 0x68e5878b
    800029b4:	65ee                	ld	a1,216(sp)
    800029b6:	772e                	ld	a4,232(sp)
    800029b8:	48e5858b          	.insn	4, 0x48e5858b
    800029bc:	f20f01d3          	fmv.d.x	ft3,t5
    800029c0:	65de                	ld	a1,464(sp)
    800029c2:	6772                	ld	a4,280(sp)
    800029c4:	28e5858b          	.insn	4, 0x28e5858b
    800029c8:	02317153          	fadd.d	ft2,ft2,ft3
    800029cc:	810c947b          	.insn	4, 0x810c947b
    800029d0:	8d1f858b          	.insn	4, 0x8d1f858b
    800029d4:	6592                	ld	a1,256(sp)
    800029d6:	776e                	ld	a4,248(sp)
    800029d8:	6ce5858b          	.insn	4, 0x6ce5858b
    800029dc:	f20401d3          	fmv.d.x	ft3,s0
    800029e0:	75ce                	ld	a1,240(sp)
    800029e2:	672e                	ld	a4,200(sp)
    800029e4:	4ce5858b          	.insn	4, 0x4ce5858b
    800029e8:	02317153          	fadd.d	ft2,ft2,ft3
    800029ec:	65b2                	ld	a1,264(sp)
    800029ee:	2cbc858b          	.insn	4, 0x2cbc858b
    800029f2:	c10c977b          	.insn	4, 0xc10c977b
    800029f6:	9c5a858b          	.insn	4, 0x9c5a858b
    800029fa:	7da6858b          	.insn	4, 0x7da6858b
    800029fe:	f20701d3          	fmv.d.x	ft3,a4
    80002a02:	5dce858b          	.insn	4, 0x5dce858b
    80002a06:	02317153          	fadd.d	ft2,ft2,ft3
    80002a0a:	3d3b058b          	.insn	4, 0x3d3b058b
    80002a0e:	c10c95fb          	.insn	4, 0xc10c95fb
    80002a12:	f20581d3          	fmv.d.x	ft3,a1
    80002a16:	02317153          	fadd.d	ft2,ft2,ft3
    80002a1a:	764c                	ld	a1,168(a2)
    80002a1c:	669e                	ld	a3,448(sp)
    80002a1e:	6294                	ld	a3,0(a3)
    80002a20:	21813783          	ld	a5,536(sp)
    80002a24:	97ca                	add	a5,a5,s2
    80002a26:	078e                	slli	a5,a5,0x3
    80002a28:	97aa                	add	a5,a5,a0
    80002a2a:	7cba058b          	.insn	4, 0x7cba058b
    80002a2e:	f33e                	sd	a5,416(sp)
    80002a30:	638c                	ld	a1,0(a5)
    80002a32:	77f2                	ld	a5,312(sp)
    80002a34:	639c                	ld	a5,0(a5)
    80002a36:	5cb6858b          	.insn	4, 0x5cb6858b
    80002a3a:	7a4c                	ld	a1,176(a2)
    80002a3c:	7e54                	ld	a3,184(a2)
    80002a3e:	64ce                	ld	s1,208(sp)
    80002a40:	3cf4885b          	.insn	4, 0x3cf4885b
    80002a44:	d0d595fb          	.insn	4, 0xd0d595fb
    80002a48:	f20581d3          	fmv.d.x	ft3,a1
    80002a4c:	02317153          	fadd.d	ft2,ft2,ft3
    80002a50:	26013583          	ld	a1,608(sp)
    80002a54:	20358593          	addi	a1,a1,515
    80002a58:	058e                	slli	a1,a1,0x3
    80002a5a:	95aa                	add	a1,a1,a0
    80002a5c:	618c                	ld	a1,0(a1)
    80002a5e:	627c                	ld	a5,192(a2)
    80002a60:	3c0588db          	.insn	4, 0x3c0588db
    80002a64:	cc0796fb          	.insn	4, 0xcc0796fb
    80002a68:	f20681d3          	fmv.d.x	ft3,a3
    80002a6c:	02317153          	fadd.d	ft2,ft2,ft3
    80002a70:	007387ab          	.insn	4, 0x007387ab
    80002a74:	05ef05ab          	.insn	4, 0x05ef05ab
    80002a78:	0884042b          	.insn	4, 0x0884042b
    80002a7c:	a22094d3          	flt.d	s1,ft1,ft2
    80002a80:	0ce7072b          	.insn	4, 0x0ce7072b
    80002a84:	1cd686ab          	.insn	4, 0x1cd686ab
    80002a88:	c0a9                	beqz	s1,80002aca <bilateral_core+0x8d0>
    80002a8a:	f20781d3          	fmv.d.x	ft3,a5
    80002a8e:	0201f1d3          	fadd.d	ft3,ft3,ft0
    80002a92:	f2058253          	fmv.d.x	ft4,a1
    80002a96:	0241f1d3          	fadd.d	ft3,ft3,ft4
    80002a9a:	f2040253          	fmv.d.x	ft4,s0
    80002a9e:	0241f1d3          	fadd.d	ft3,ft3,ft4
    80002aa2:	f2070253          	fmv.d.x	ft4,a4
    80002aa6:	0241f1d3          	fadd.d	ft3,ft3,ft4
    80002aaa:	f2080253          	fmv.d.x	ft4,a6
    80002aae:	0241f1d3          	fadd.d	ft3,ft3,ft4
    80002ab2:	f2088253          	fmv.d.x	ft4,a7
    80002ab6:	0241f1d3          	fadd.d	ft3,ft3,ft4
    80002aba:	f2068253          	fmv.d.x	ft4,a3
    80002abe:	0241f1d3          	fadd.d	ft3,ft3,ft4
    80002ac2:	1a21f153          	fdiv.d	ft2,ft3,ft2
    80002ac6:	e2010cd3          	fmv.x.d	s9,ft2
    80002aca:	4e81                	li	t4,0
    80002acc:	4381                	li	t2,0
    80002ace:	4281                	li	t0,0
    80002ad0:	4801                	li	a6,0
    80002ad2:	4301                	li	t1,0
    80002ad4:	4e01                	li	t3,0
    80002ad6:	4f01                	li	t5,0
    80002ad8:	27813583          	ld	a1,632(sp)
    80002adc:	66da                	ld	a3,400(sp)
    80002ade:	95b6                	add	a1,a1,a3
    80002ae0:	0195b023          	sd	s9,0(a1)
    80002ae4:	21013583          	ld	a1,528(sp)
    80002ae8:	0005bd83          	ld	s11,0(a1)
    80002aec:	4f81                	li	t6,0
    80002aee:	24813703          	ld	a4,584(sp)
    80002af2:	27013483          	ld	s1,624(sp)
    80002af6:	25813083          	ld	ra,600(sp)
    80002afa:	06009063          	bnez	ra,80002b5a <bilateral_core+0x960>
    80002afe:	22013783          	ld	a5,544(sp)
    80002b02:	009785b3          	add	a1,a5,s1
    80002b06:	20013683          	ld	a3,512(sp)
    80002b0a:	8df5                	and	a1,a1,a3
    80002b0c:	058e                	slli	a1,a1,0x3
    80002b0e:	95aa                	add	a1,a1,a0
    80002b10:	0005b803          	ld	a6,0(a1)
    80002b14:	00063283          	ld	t0,0(a2)
    80002b18:	75fe                	ld	a1,504(sp)
    80002b1a:	95be                	add	a1,a1,a5
    80002b1c:	0f170693          	addi	a3,a4,241
    80002b20:	8df5                	and	a1,a1,a3
    80002b22:	058e                	slli	a1,a1,0x3
    80002b24:	95aa                	add	a1,a1,a0
    80002b26:	0005b303          	ld	t1,0(a1)
    80002b2a:	00863e03          	ld	t3,8(a2)
    80002b2e:	20813583          	ld	a1,520(sp)
    80002b32:	21813683          	ld	a3,536(sp)
    80002b36:	95b6                	add	a1,a1,a3
    80002b38:	058e                	slli	a1,a1,0x3
    80002b3a:	95aa                	add	a1,a1,a0
    80002b3c:	0005b383          	ld	t2,0(a1)
    80002b40:	01063e83          	ld	t4,16(a2)
    80002b44:	75be                	ld	a1,488(sp)
    80002b46:	95be                	add	a1,a1,a5
    80002b48:	0f370693          	addi	a3,a4,243
    80002b4c:	8df5                	and	a1,a1,a3
    80002b4e:	058e                	slli	a1,a1,0x3
    80002b50:	95aa                	add	a1,a1,a0
    80002b52:	0005bf03          	ld	t5,0(a1)
    80002b56:	01863f83          	ld	t6,24(a2)
    80002b5a:	4881                	li	a7,0
    80002b5c:	4981                	li	s3,0
    80002b5e:	24013403          	ld	s0,576(sp)
    80002b62:	02009063          	bnez	ra,80002b82 <bilateral_core+0x988>
    80002b66:	0044e593          	ori	a1,s1,4
    80002b6a:	22013683          	ld	a3,544(sp)
    80002b6e:	95b6                	add	a1,a1,a3
    80002b70:	0f470693          	addi	a3,a4,244
    80002b74:	8df5                	and	a1,a1,a3
    80002b76:	058e                	slli	a1,a1,0x3
    80002b78:	95aa                	add	a1,a1,a0
    80002b7a:	0005b883          	ld	a7,0(a1)
    80002b7e:	02063983          	ld	s3,32(a2)
    80002b82:	4b81                	li	s7,0
    80002b84:	4b01                	li	s6,0
    80002b86:	4a01                	li	s4,0
    80002b88:	4a81                	li	s5,0
    80002b8a:	4c81                	li	s9,0
    80002b8c:	4781                	li	a5,0
    80002b8e:	e031                	bnez	s0,80002bd2 <bilateral_core+0x9d8>
    80002b90:	22813783          	ld	a5,552(sp)
    80002b94:	009785b3          	add	a1,a5,s1
    80002b98:	20013683          	ld	a3,512(sp)
    80002b9c:	8df5                	and	a1,a1,a3
    80002b9e:	058e                	slli	a1,a1,0x3
    80002ba0:	95aa                	add	a1,a1,a0
    80002ba2:	0005ba03          	ld	s4,0(a1)
    80002ba6:	02863a83          	ld	s5,40(a2)
    80002baa:	75fe                	ld	a1,504(sp)
    80002bac:	95be                	add	a1,a1,a5
    80002bae:	0f170693          	addi	a3,a4,241
    80002bb2:	8df5                	and	a1,a1,a3
    80002bb4:	058e                	slli	a1,a1,0x3
    80002bb6:	95aa                	add	a1,a1,a0
    80002bb8:	0005bb03          	ld	s6,0(a1)
    80002bbc:	03063b83          	ld	s7,48(a2)
    80002bc0:	65fa                	ld	a1,408(sp)
    80002bc2:	21813683          	ld	a3,536(sp)
    80002bc6:	95b6                	add	a1,a1,a3
    80002bc8:	058e                	slli	a1,a1,0x3
    80002bca:	95aa                	add	a1,a1,a0
    80002bcc:	0005bc83          	ld	s9,0(a1)
    80002bd0:	7e1c                	ld	a5,56(a2)
    80002bd2:	4d01                	li	s10,0
    80002bd4:	4c01                	li	s8,0
    80002bd6:	4581                	li	a1,0
    80002bd8:	4481                	li	s1,0
    80002bda:	ec05                	bnez	s0,80002c12 <bilateral_core+0xa18>
    80002bdc:	22813403          	ld	s0,552(sp)
    80002be0:	75be                	ld	a1,488(sp)
    80002be2:	95a2                	add	a1,a1,s0
    80002be4:	24813683          	ld	a3,584(sp)
    80002be8:	0f368713          	addi	a4,a3,243
    80002bec:	8df9                	and	a1,a1,a4
    80002bee:	058e                	slli	a1,a1,0x3
    80002bf0:	95aa                	add	a1,a1,a0
    80002bf2:	0005bc03          	ld	s8,0(a1)
    80002bf6:	04063d03          	ld	s10,64(a2)
    80002bfa:	27013583          	ld	a1,624(sp)
    80002bfe:	0045e593          	ori	a1,a1,4
    80002c02:	95a2                	add	a1,a1,s0
    80002c04:	0f468493          	addi	s1,a3,244
    80002c08:	8de5                	and	a1,a1,s1
    80002c0a:	058e                	slli	a1,a1,0x3
    80002c0c:	95aa                	add	a1,a1,a0
    80002c0e:	618c                	ld	a1,0(a1)
    80002c10:	6624                	ld	s1,72(a2)
    80002c12:	81fe868b          	.insn	4, 0x81fe868b
    80002c16:	61c2868b          	.insn	4, 0x61c2868b
    80002c1a:	41e3868b          	.insn	4, 0x41e3868b
    80002c1e:	2068068b          	.insn	4, 0x2068068b
    80002c22:	28013403          	ld	s0,640(sp)
    80002c26:	008d937b          	.insn	4, 0x008d937b
    80002c2a:	f2030153          	fmv.d.x	ft2,t1
    80002c2e:	02017153          	fadd.d	ft2,ft2,ft0
    80002c32:	84fb868b          	.insn	4, 0x84fb868b
    80002c36:	6559868b          	.insn	4, 0x6559868b
    80002c3a:	459b068b          	.insn	4, 0x459b068b
    80002c3e:	2548868b          	.insn	4, 0x2548868b
    80002c42:	408d9e7b          	.insn	4, 0x408d9e7b
    80002c46:	f20e01d3          	fmv.d.x	ft3,t3
    80002c4a:	02317153          	fadd.d	ft2,ft2,ft3
    80002c4e:	669a                	ld	a3,384(sp)
    80002c50:	0006b803          	ld	a6,0(a3)
    80002c54:	6a34                	ld	a3,80(a2)
    80002c56:	24813703          	ld	a4,584(sp)
    80002c5a:	0f170713          	addi	a4,a4,241
    80002c5e:	20e13823          	sd	a4,528(sp)
    80002c62:	77fa                	ld	a5,440(sp)
    80002c64:	8f7d                	and	a4,a4,a5
    80002c66:	070e                	slli	a4,a4,0x3
    80002c68:	00e502b3          	add	t0,a0,a4
    80002c6c:	0002b703          	ld	a4,0(t0)
    80002c70:	6e3c                	ld	a5,88(a2)
    80002c72:	689d048b          	.insn	4, 0x689d048b
    80002c76:	28bc058b          	.insn	4, 0x28bc058b
    80002c7a:	088d858b          	.insn	4, 0x088d858b
    80002c7e:	48e8058b          	.insn	4, 0x48e8058b
    80002c82:	90f69f7b          	.insn	4, 0x90f69f7b
    80002c86:	f20f01d3          	fmv.d.x	ft3,t5
    80002c8a:	02317153          	fadd.d	ft2,ft2,ft3
    80002c8e:	06063883          	ld	a7,96(a2)
    80002c92:	6ad6                	ld	s5,336(sp)
    80002c94:	000ab383          	ld	t2,0(s5)
    80002c98:	06863e83          	ld	t4,104(a2)
    80002c9c:	27013903          	ld	s2,624(sp)
    80002ca0:	00496713          	ori	a4,s2,4
    80002ca4:	25013583          	ld	a1,592(sp)
    80002ca8:	95ba                	add	a1,a1,a4
    80002caa:	e32e                	sd	a1,384(sp)
    80002cac:	058e                	slli	a1,a1,0x3
    80002cae:	f6ae                	sd	a1,360(sp)
    80002cb0:	00b50833          	add	a6,a0,a1
    80002cb4:	00083783          	ld	a5,0(a6)
    80002cb8:	07063f83          	ld	t6,112(a2)
    80002cbc:	7596                	ld	a1,352(sp)
    80002cbe:	6184                	ld	s1,0(a1)
    80002cc0:	7e2c                	ld	a1,120(a2)
    80002cc2:	0c8d868b          	.insn	4, 0x0c8d868b
    80002cc6:	2c7d868b          	.insn	4, 0x2c7d868b
    80002cca:	6dd8868b          	.insn	4, 0x6dd8868b
    80002cce:	4c97868b          	.insn	4, 0x4c97868b
    80002cd2:	d0bf9ffb          	.insn	4, 0xd0bf9ffb
    80002cd6:	f20f81d3          	fmv.d.x	ft3,t6
    80002cda:	02317153          	fadd.d	ft2,ft2,ft3
    80002cde:	75de                	ld	a1,496(sp)
    80002ce0:	618c                	ld	a1,0(a1)
    80002ce2:	08063383          	ld	t2,128(a2)
    80002ce6:	769e                	ld	a3,480(sp)
    80002ce8:	629c                	ld	a5,0(a3)
    80002cea:	6644                	ld	s1,136(a2)
    80002cec:	66fe                	ld	a3,472(sp)
    80002cee:	0006b883          	ld	a7,0(a3)
    80002cf2:	6a54                	ld	a3,144(a2)
    80002cf4:	3cf5858b          	.insn	4, 0x3cf5858b
    80002cf8:	23013583          	ld	a1,560(sp)
    80002cfc:	ff3a                	sd	a4,440(sp)
    80002cfe:	95ba                	add	a1,a1,a4
    80002d00:	058e                	slli	a1,a1,0x3
    80002d02:	95aa                	add	a1,a1,a0
    80002d04:	ebae                	sd	a1,464(sp)
    80002d06:	618c                	ld	a1,0(a1)
    80002d08:	7c93870b          	.insn	4, 0x7c93870b
    80002d0c:	6e58                	ld	a4,152(a2)
    80002d0e:	1c8d878b          	.insn	4, 0x1c8d878b
    80002d12:	5cb8858b          	.insn	4, 0x5cb8858b
    80002d16:	d0e695fb          	.insn	4, 0xd0e695fb
    80002d1a:	f20581d3          	fmv.d.x	ft3,a1
    80002d1e:	02317153          	fadd.d	ft2,ft2,ft3
    80002d22:	75f2                	ld	a1,312(sp)
    80002d24:	618c                	ld	a1,0(a1)
    80002d26:	7254                	ld	a3,160(a2)
    80002d28:	7658                	ld	a4,168(a2)
    80002d2a:	779a                	ld	a5,416(sp)
    80002d2c:	639c                	ld	a5,0(a5)
    80002d2e:	23813483          	ld	s1,568(sp)
    80002d32:	743e                	ld	s0,488(sp)
    80002d34:	94a2                	add	s1,s1,s0
    80002d36:	048e                	slli	s1,s1,0x3
    80002d38:	94aa                	add	s1,s1,a0
    80002d3a:	7ce6868b          	.insn	4, 0x7ce6868b
    80002d3e:	eb26                	sd	s1,400(sp)
    80002d40:	6094                	ld	a3,0(s1)
    80002d42:	671e                	ld	a4,448(sp)
    80002d44:	6318                	ld	a4,0(a4)
    80002d46:	5cd7868b          	.insn	4, 0x5cd7868b
    80002d4a:	7a54                	ld	a3,176(a2)
    80002d4c:	7e5c                	ld	a5,184(a2)
    80002d4e:	3ce588db          	.insn	4, 0x3ce588db
    80002d52:	d0f695fb          	.insn	4, 0xd0f695fb
    80002d56:	f20581d3          	fmv.d.x	ft3,a1
    80002d5a:	02317153          	fadd.d	ft2,ft2,ft3
    80002d5e:	26013583          	ld	a1,608(sp)
    80002d62:	20458593          	addi	a1,a1,516
    80002d66:	058e                	slli	a1,a1,0x3
    80002d68:	95aa                	add	a1,a1,a0
    80002d6a:	618c                	ld	a1,0(a1)
    80002d6c:	6274                	ld	a3,192(a2)
    80002d6e:	3c0583db          	.insn	4, 0x3c0583db
    80002d72:	cc0696fb          	.insn	4, 0xcc0696fb
    80002d76:	f20681d3          	fmv.d.x	ft3,a3
    80002d7a:	02317153          	fadd.d	ft2,ft2,ft3
    80002d7e:	0063072b          	.insn	4, 0x0063072b
    80002d82:	05ce05ab          	.insn	4, 0x05ce05ab
    80002d86:	09ef042b          	.insn	4, 0x09ef042b
    80002d8a:	a22097d3          	flt.d	a5,ft1,ft2
    80002d8e:	0dff84ab          	.insn	4, 0x0dff84ab
    80002d92:	1cd686ab          	.insn	4, 0x1cd686ab
    80002d96:	c3a9                	beqz	a5,80002dd8 <bilateral_core+0xbde>
    80002d98:	f20701d3          	fmv.d.x	ft3,a4
    80002d9c:	0201f1d3          	fadd.d	ft3,ft3,ft0
    80002da0:	f2058253          	fmv.d.x	ft4,a1
    80002da4:	0241f1d3          	fadd.d	ft3,ft3,ft4
    80002da8:	f2040253          	fmv.d.x	ft4,s0
    80002dac:	0241f1d3          	fadd.d	ft3,ft3,ft4
    80002db0:	f2048253          	fmv.d.x	ft4,s1
    80002db4:	0241f1d3          	fadd.d	ft3,ft3,ft4
    80002db8:	f2088253          	fmv.d.x	ft4,a7
    80002dbc:	0241f1d3          	fadd.d	ft3,ft3,ft4
    80002dc0:	f2038253          	fmv.d.x	ft4,t2
    80002dc4:	0241f1d3          	fadd.d	ft3,ft3,ft4
    80002dc8:	f2068253          	fmv.d.x	ft4,a3
    80002dcc:	0241f1d3          	fadd.d	ft3,ft3,ft4
    80002dd0:	1a21f153          	fdiv.d	ft2,ft3,ft2
    80002dd4:	e2010dd3          	fmv.x.d	s11,ft2
    80002dd8:	4a01                	li	s4,0
    80002dda:	4f81                	li	t6,0
    80002ddc:	4381                	li	t2,0
    80002dde:	4301                	li	t1,0
    80002de0:	4f01                	li	t5,0
    80002de2:	4981                	li	s3,0
    80002de4:	4881                	li	a7,0
    80002de6:	27813583          	ld	a1,632(sp)
    80002dea:	66ba                	ld	a3,392(sp)
    80002dec:	95b6                	add	a1,a1,a3
    80002dee:	01b5b023          	sd	s11,0(a1)
    80002df2:	000abe83          	ld	t4,0(s5)
    80002df6:	4b01                	li	s6,0
    80002df8:	24813703          	ld	a4,584(sp)
    80002dfc:	06009063          	bnez	ra,80002e5c <bilateral_core+0xc62>
    80002e00:	22013783          	ld	a5,544(sp)
    80002e04:	75fe                	ld	a1,504(sp)
    80002e06:	95be                	add	a1,a1,a5
    80002e08:	21013683          	ld	a3,528(sp)
    80002e0c:	8df5                	and	a1,a1,a3
    80002e0e:	058e                	slli	a1,a1,0x3
    80002e10:	95aa                	add	a1,a1,a0
    80002e12:	0005b303          	ld	t1,0(a1)
    80002e16:	00063383          	ld	t2,0(a2)
    80002e1a:	21813583          	ld	a1,536(sp)
    80002e1e:	95be                	add	a1,a1,a5
    80002e20:	0f270693          	addi	a3,a4,242
    80002e24:	8df5                	and	a1,a1,a3
    80002e26:	058e                	slli	a1,a1,0x3
    80002e28:	95aa                	add	a1,a1,a0
    80002e2a:	0005bf03          	ld	t5,0(a1)
    80002e2e:	00863983          	ld	s3,8(a2)
    80002e32:	20813583          	ld	a1,520(sp)
    80002e36:	76be                	ld	a3,488(sp)
    80002e38:	95b6                	add	a1,a1,a3
    80002e3a:	058e                	slli	a1,a1,0x3
    80002e3c:	95aa                	add	a1,a1,a0
    80002e3e:	0005bf83          	ld	t6,0(a1)
    80002e42:	01063a03          	ld	s4,16(a2)
    80002e46:	75fa                	ld	a1,440(sp)
    80002e48:	95be                	add	a1,a1,a5
    80002e4a:	0f470693          	addi	a3,a4,244
    80002e4e:	8df5                	and	a1,a1,a3
    80002e50:	058e                	slli	a1,a1,0x3
    80002e52:	95aa                	add	a1,a1,a0
    80002e54:	0005b883          	ld	a7,0(a1)
    80002e58:	01863b03          	ld	s6,24(a2)
    80002e5c:	4a81                	li	s5,0
    80002e5e:	4b81                	li	s7,0
    80002e60:	24013783          	ld	a5,576(sp)
    80002e64:	02009063          	bnez	ra,80002e84 <bilateral_core+0xc8a>
    80002e68:	00596593          	ori	a1,s2,5
    80002e6c:	22013683          	ld	a3,544(sp)
    80002e70:	95b6                	add	a1,a1,a3
    80002e72:	0f570693          	addi	a3,a4,245
    80002e76:	8df5                	and	a1,a1,a3
    80002e78:	058e                	slli	a1,a1,0x3
    80002e7a:	95aa                	add	a1,a1,a0
    80002e7c:	0005ba83          	ld	s5,0(a1)
    80002e80:	02063b83          	ld	s7,32(a2)
    80002e84:	4d81                	li	s11,0
    80002e86:	4d01                	li	s10,0
    80002e88:	4c01                	li	s8,0
    80002e8a:	4c81                	li	s9,0
    80002e8c:	4e01                	li	t3,0
    80002e8e:	4481                	li	s1,0
    80002e90:	873e                	mv	a4,a5
    80002e92:	e7a1                	bnez	a5,80002eda <bilateral_core+0xce0>
    80002e94:	22813783          	ld	a5,552(sp)
    80002e98:	75fe                	ld	a1,504(sp)
    80002e9a:	95be                	add	a1,a1,a5
    80002e9c:	21013683          	ld	a3,528(sp)
    80002ea0:	8df5                	and	a1,a1,a3
    80002ea2:	058e                	slli	a1,a1,0x3
    80002ea4:	95aa                	add	a1,a1,a0
    80002ea6:	0005bc03          	ld	s8,0(a1)
    80002eaa:	02863c83          	ld	s9,40(a2)
    80002eae:	21813583          	ld	a1,536(sp)
    80002eb2:	95be                	add	a1,a1,a5
    80002eb4:	24813683          	ld	a3,584(sp)
    80002eb8:	0f268693          	addi	a3,a3,242
    80002ebc:	8df5                	and	a1,a1,a3
    80002ebe:	058e                	slli	a1,a1,0x3
    80002ec0:	95aa                	add	a1,a1,a0
    80002ec2:	0005bd03          	ld	s10,0(a1)
    80002ec6:	03063d83          	ld	s11,48(a2)
    80002eca:	65fa                	ld	a1,408(sp)
    80002ecc:	76be                	ld	a3,488(sp)
    80002ece:	95b6                	add	a1,a1,a3
    80002ed0:	058e                	slli	a1,a1,0x3
    80002ed2:	95aa                	add	a1,a1,a0
    80002ed4:	0005be03          	ld	t3,0(a1)
    80002ed8:	7e04                	ld	s1,56(a2)
    80002eda:	4901                	li	s2,0
    80002edc:	4081                	li	ra,0
    80002ede:	4581                	li	a1,0
    80002ee0:	4401                	li	s0,0
    80002ee2:	ef05                	bnez	a4,80002f1a <bilateral_core+0xd20>
    80002ee4:	22813783          	ld	a5,552(sp)
    80002ee8:	75fa                	ld	a1,440(sp)
    80002eea:	95be                	add	a1,a1,a5
    80002eec:	24813683          	ld	a3,584(sp)
    80002ef0:	0f468713          	addi	a4,a3,244
    80002ef4:	8df9                	and	a1,a1,a4
    80002ef6:	058e                	slli	a1,a1,0x3
    80002ef8:	95aa                	add	a1,a1,a0
    80002efa:	0005b083          	ld	ra,0(a1)
    80002efe:	04063903          	ld	s2,64(a2)
    80002f02:	27013583          	ld	a1,624(sp)
    80002f06:	0055e593          	ori	a1,a1,5
    80002f0a:	95be                	add	a1,a1,a5
    80002f0c:	0f568413          	addi	s0,a3,245
    80002f10:	8de1                	and	a1,a1,s0
    80002f12:	058e                	slli	a1,a1,0x3
    80002f14:	95aa                	add	a1,a1,a0
    80002f16:	618c                	ld	a1,0(a1)
    80002f18:	6620                	ld	s0,72(a2)
    80002f1a:	816a068b          	.insn	4, 0x816a068b
    80002f1e:	6133868b          	.insn	4, 0x6133868b
    80002f22:	411f868b          	.insn	4, 0x411f868b
    80002f26:	21e3068b          	.insn	4, 0x21e3068b
    80002f2a:	28013783          	ld	a5,640(sp)
    80002f2e:	00fe98fb          	.insn	4, 0x00fe98fb
    80002f32:	f2088153          	fmv.d.x	ft2,a7
    80002f36:	02017153          	fadd.d	ft2,ft2,ft0
    80002f3a:	849d868b          	.insn	4, 0x849d868b
    80002f3e:	659b868b          	.insn	4, 0x659b868b
    80002f42:	45cd068b          	.insn	4, 0x45cd068b
    80002f46:	258a868b          	.insn	4, 0x258a868b
    80002f4a:	40fe9e7b          	.insn	4, 0x40fe9e7b
    80002f4e:	f20e01d3          	fmv.d.x	ft3,t3
    80002f52:	02317153          	fadd.d	ft2,ft2,ft3
    80002f56:	0002b483          	ld	s1,0(t0)
    80002f5a:	05063303          	ld	t1,80(a2)
    80002f5e:	24813d03          	ld	s10,584(sp)
    80002f62:	0f2d0693          	addi	a3,s10,242
    80002f66:	ffb6                	sd	a3,504(sp)
    80002f68:	775a                	ld	a4,432(sp)
    80002f6a:	8f75                	and	a4,a4,a3
    80002f6c:	070e                	slli	a4,a4,0x3
    80002f6e:	00e502b3          	add	t0,a0,a4
    80002f72:	0002b703          	ld	a4,0(t0)
    80002f76:	6e34                	ld	a3,88(a2)
    80002f78:	6889040b          	.insn	4, 0x6889040b
    80002f7c:	28b0858b          	.insn	4, 0x28b0858b
    80002f80:	08fe858b          	.insn	4, 0x08fe858b
    80002f84:	48e4858b          	.insn	4, 0x48e4858b
    80002f88:	90d31ffb          	.insn	4, 0x90d31ffb
    80002f8c:	f20f81d3          	fmv.d.x	ft3,t6
    80002f90:	02317153          	fadd.d	ft2,ft2,ft3
    80002f94:	06063303          	ld	t1,96(a2)
    80002f98:	00083383          	ld	t2,0(a6)
    80002f9c:	06863903          	ld	s2,104(a2)
    80002fa0:	27013583          	ld	a1,624(sp)
    80002fa4:	0055e713          	ori	a4,a1,5
    80002fa8:	25013583          	ld	a1,592(sp)
    80002fac:	95ba                	add	a1,a1,a4
    80002fae:	eaae                	sd	a1,336(sp)
    80002fb0:	058e                	slli	a1,a1,0x3
    80002fb2:	fa2e                	sd	a1,304(sp)
    80002fb4:	00b50f33          	add	t5,a0,a1
    80002fb8:	000f3983          	ld	s3,0(t5)
    80002fbc:	7a20                	ld	s0,112(a2)
    80002fbe:	75de                	ld	a1,496(sp)
    80002fc0:	6184                	ld	s1,0(a1)
    80002fc2:	7e2c                	ld	a1,120(a2)
    80002fc4:	0cfe868b          	.insn	4, 0x0cfe868b
    80002fc8:	2c7e868b          	.insn	4, 0x2c7e868b
    80002fcc:	6d23068b          	.insn	4, 0x6d23068b
    80002fd0:	4c99868b          	.insn	4, 0x4c99868b
    80002fd4:	d0b4197b          	.insn	4, 0xd0b4197b
    80002fd8:	f20901d3          	fmv.d.x	ft3,s2
    80002fdc:	02317153          	fadd.d	ft2,ft2,ft3
    80002fe0:	759e                	ld	a1,480(sp)
    80002fe2:	0005b383          	ld	t2,0(a1)
    80002fe6:	08063303          	ld	t1,128(a2)
    80002fea:	66fe                	ld	a3,472(sp)
    80002fec:	628c                	ld	a1,0(a3)
    80002fee:	6644                	ld	s1,136(a2)
    80002ff0:	66de                	ld	a3,464(sp)
    80002ff2:	6280                	ld	s0,0(a3)
    80002ff4:	6a54                	ld	a3,144(a2)
    80002ff6:	3cb3858b          	.insn	4, 0x3cb3858b
    80002ffa:	23013583          	ld	a1,560(sp)
    80002ffe:	fb3a                	sd	a4,432(sp)
    80003000:	95ba                	add	a1,a1,a4
    80003002:	058e                	slli	a1,a1,0x3
    80003004:	95aa                	add	a1,a1,a0
    80003006:	e7ae                	sd	a1,456(sp)
    80003008:	618c                	ld	a1,0(a1)
    8000300a:	7c93070b          	.insn	4, 0x7c93070b
    8000300e:	6e58                	ld	a4,152(a2)
    80003010:	1cfe878b          	.insn	4, 0x1cfe878b
    80003014:	5cb4058b          	.insn	4, 0x5cb4058b
    80003018:	d0e695fb          	.insn	4, 0xd0e695fb
    8000301c:	f20581d3          	fmv.d.x	ft3,a1
    80003020:	02317153          	fadd.d	ft2,ft2,ft3
    80003024:	659e                	ld	a1,448(sp)
    80003026:	618c                	ld	a1,0(a1)
    80003028:	7254                	ld	a3,160(a2)
    8000302a:	7658                	ld	a4,168(a2)
    8000302c:	67da                	ld	a5,400(sp)
    8000302e:	639c                	ld	a5,0(a5)
    80003030:	23813483          	ld	s1,568(sp)
    80003034:	747a                	ld	s0,440(sp)
    80003036:	94a2                	add	s1,s1,s0
    80003038:	048e                	slli	s1,s1,0x3
    8000303a:	94aa                	add	s1,s1,a0
    8000303c:	7ce6868b          	.insn	4, 0x7ce6868b
    80003040:	e726                	sd	s1,392(sp)
    80003042:	6094                	ld	a3,0(s1)
    80003044:	771a                	ld	a4,416(sp)
    80003046:	6318                	ld	a4,0(a4)
    80003048:	5cd7868b          	.insn	4, 0x5cd7868b
    8000304c:	7a54                	ld	a3,176(a2)
    8000304e:	7e5c                	ld	a5,184(a2)
    80003050:	3ce5835b          	.insn	4, 0x3ce5835b
    80003054:	d0f695fb          	.insn	4, 0xd0f695fb
    80003058:	f20581d3          	fmv.d.x	ft3,a1
    8000305c:	02317153          	fadd.d	ft2,ft2,ft3
    80003060:	26013583          	ld	a1,608(sp)
    80003064:	20558593          	addi	a1,a1,517
    80003068:	058e                	slli	a1,a1,0x3
    8000306a:	95aa                	add	a1,a1,a0
    8000306c:	618c                	ld	a1,0(a1)
    8000306e:	6274                	ld	a3,192(a2)
    80003070:	3c0583db          	.insn	4, 0x3c0583db
    80003074:	cc0696fb          	.insn	4, 0xcc0696fb
    80003078:	f20681d3          	fmv.d.x	ft3,a3
    8000307c:	02317153          	fadd.d	ft2,ft2,ft3
    80003080:	0118872b          	.insn	4, 0x0118872b
    80003084:	05ce05ab          	.insn	4, 0x05ce05ab
    80003088:	09ff842b          	.insn	4, 0x09ff842b
    8000308c:	a22097d3          	flt.d	a5,ft1,ft2
    80003090:	0d2904ab          	.insn	4, 0x0d2904ab
    80003094:	1cd686ab          	.insn	4, 0x1cd686ab
    80003098:	c3a9                	beqz	a5,800030da <bilateral_core+0xee0>
    8000309a:	f20701d3          	fmv.d.x	ft3,a4
    8000309e:	0201f1d3          	fadd.d	ft3,ft3,ft0
    800030a2:	f2058253          	fmv.d.x	ft4,a1
    800030a6:	0241f1d3          	fadd.d	ft3,ft3,ft4
    800030aa:	f2040253          	fmv.d.x	ft4,s0
    800030ae:	0241f1d3          	fadd.d	ft3,ft3,ft4
    800030b2:	f2048253          	fmv.d.x	ft4,s1
    800030b6:	0241f1d3          	fadd.d	ft3,ft3,ft4
    800030ba:	f2030253          	fmv.d.x	ft4,t1
    800030be:	0241f1d3          	fadd.d	ft3,ft3,ft4
    800030c2:	f2038253          	fmv.d.x	ft4,t2
    800030c6:	0241f1d3          	fadd.d	ft3,ft3,ft4
    800030ca:	f2068253          	fmv.d.x	ft4,a3
    800030ce:	0241f1d3          	fadd.d	ft3,ft3,ft4
    800030d2:	1a21f153          	fdiv.d	ft2,ft3,ft2
    800030d6:	e2010ed3          	fmv.x.d	t4,ft2
    800030da:	4c01                	li	s8,0
    800030dc:	4a81                	li	s5,0
    800030de:	4f81                	li	t6,0
    800030e0:	4301                	li	t1,0
    800030e2:	4a01                	li	s4,0
    800030e4:	4b01                	li	s6,0
    800030e6:	4881                	li	a7,0
    800030e8:	27813583          	ld	a1,632(sp)
    800030ec:	76d6                	ld	a3,368(sp)
    800030ee:	95b6                	add	a1,a1,a3
    800030f0:	01d5b023          	sd	t4,0(a1)
    800030f4:	00083b83          	ld	s7,0(a6)
    800030f8:	4981                	li	s3,0
    800030fa:	25813783          	ld	a5,600(sp)
    800030fe:	efb1                	bnez	a5,8000315a <bilateral_core+0xf60>
    80003100:	22013703          	ld	a4,544(sp)
    80003104:	21813583          	ld	a1,536(sp)
    80003108:	95ba                	add	a1,a1,a4
    8000310a:	76fe                	ld	a3,504(sp)
    8000310c:	8df5                	and	a1,a1,a3
    8000310e:	058e                	slli	a1,a1,0x3
    80003110:	95aa                	add	a1,a1,a0
    80003112:	0005b303          	ld	t1,0(a1)
    80003116:	00063f83          	ld	t6,0(a2)
    8000311a:	75be                	ld	a1,488(sp)
    8000311c:	95ba                	add	a1,a1,a4
    8000311e:	0f3d0693          	addi	a3,s10,243
    80003122:	8df5                	and	a1,a1,a3
    80003124:	058e                	slli	a1,a1,0x3
    80003126:	95aa                	add	a1,a1,a0
    80003128:	0005ba03          	ld	s4,0(a1)
    8000312c:	00863b03          	ld	s6,8(a2)
    80003130:	20813583          	ld	a1,520(sp)
    80003134:	76fa                	ld	a3,440(sp)
    80003136:	95b6                	add	a1,a1,a3
    80003138:	058e                	slli	a1,a1,0x3
    8000313a:	95aa                	add	a1,a1,a0
    8000313c:	0005ba83          	ld	s5,0(a1)
    80003140:	01063c03          	ld	s8,16(a2)
    80003144:	75da                	ld	a1,432(sp)
    80003146:	95ba                	add	a1,a1,a4
    80003148:	0f5d0693          	addi	a3,s10,245
    8000314c:	8df5                	and	a1,a1,a3
    8000314e:	058e                	slli	a1,a1,0x3
    80003150:	95aa                	add	a1,a1,a0
    80003152:	0005b883          	ld	a7,0(a1)
    80003156:	01863983          	ld	s3,24(a2)
    8000315a:	4801                	li	a6,0
    8000315c:	4c81                	li	s9,0
    8000315e:	24013703          	ld	a4,576(sp)
    80003162:	e38d                	bnez	a5,80003184 <bilateral_core+0xf8a>
    80003164:	27013583          	ld	a1,624(sp)
    80003168:	0065e593          	ori	a1,a1,6
    8000316c:	22013683          	ld	a3,544(sp)
    80003170:	95b6                	add	a1,a1,a3
    80003172:	0f6d0693          	addi	a3,s10,246
    80003176:	8df5                	and	a1,a1,a3
    80003178:	058e                	slli	a1,a1,0x3
    8000317a:	95aa                	add	a1,a1,a0
    8000317c:	0005b803          	ld	a6,0(a1)
    80003180:	02063c83          	ld	s9,32(a2)
    80003184:	4381                	li	t2,0
    80003186:	4081                	li	ra,0
    80003188:	4d01                	li	s10,0
    8000318a:	4d81                	li	s11,0
    8000318c:	4681                	li	a3,0
    8000318e:	4781                	li	a5,0
    80003190:	e331                	bnez	a4,800031d4 <bilateral_core+0xfda>
    80003192:	22813783          	ld	a5,552(sp)
    80003196:	21813583          	ld	a1,536(sp)
    8000319a:	95be                	add	a1,a1,a5
    8000319c:	76fe                	ld	a3,504(sp)
    8000319e:	8df5                	and	a1,a1,a3
    800031a0:	058e                	slli	a1,a1,0x3
    800031a2:	95aa                	add	a1,a1,a0
    800031a4:	0005bd03          	ld	s10,0(a1)
    800031a8:	02863d83          	ld	s11,40(a2)
    800031ac:	75be                	ld	a1,488(sp)
    800031ae:	95be                	add	a1,a1,a5
    800031b0:	24813683          	ld	a3,584(sp)
    800031b4:	0f368693          	addi	a3,a3,243
    800031b8:	8df5                	and	a1,a1,a3
    800031ba:	058e                	slli	a1,a1,0x3
    800031bc:	95aa                	add	a1,a1,a0
    800031be:	0005b083          	ld	ra,0(a1)
    800031c2:	03063383          	ld	t2,48(a2)
    800031c6:	65fa                	ld	a1,408(sp)
    800031c8:	76fa                	ld	a3,440(sp)
    800031ca:	95b6                	add	a1,a1,a3
    800031cc:	058e                	slli	a1,a1,0x3
    800031ce:	95aa                	add	a1,a1,a0
    800031d0:	6194                	ld	a3,0(a1)
    800031d2:	7e1c                	ld	a5,56(a2)
    800031d4:	4901                	li	s2,0
    800031d6:	4e81                	li	t4,0
    800031d8:	4581                	li	a1,0
    800031da:	4e01                	li	t3,0
    800031dc:	ef1d                	bnez	a4,8000321a <bilateral_core+0x1020>
    800031de:	22813483          	ld	s1,552(sp)
    800031e2:	75da                	ld	a1,432(sp)
    800031e4:	95a6                	add	a1,a1,s1
    800031e6:	24813403          	ld	s0,584(sp)
    800031ea:	0f540713          	addi	a4,s0,245
    800031ee:	8df9                	and	a1,a1,a4
    800031f0:	058e                	slli	a1,a1,0x3
    800031f2:	95aa                	add	a1,a1,a0
    800031f4:	0005be83          	ld	t4,0(a1)
    800031f8:	04063903          	ld	s2,64(a2)
    800031fc:	27013583          	ld	a1,624(sp)
    80003200:	0065e593          	ori	a1,a1,6
    80003204:	00b48e33          	add	t3,s1,a1
    80003208:	0f640593          	addi	a1,s0,246
    8000320c:	00be75b3          	and	a1,t3,a1
    80003210:	058e                	slli	a1,a1,0x3
    80003212:	95aa                	add	a1,a1,a0
    80003214:	618c                	ld	a1,0(a1)
    80003216:	04863e03          	ld	t3,72(a2)
    8000321a:	813c048b          	.insn	4, 0x813c048b
    8000321e:	616f848b          	.insn	4, 0x616f848b
    80003222:	411a848b          	.insn	4, 0x411a848b
    80003226:	2143048b          	.insn	4, 0x2143048b
    8000322a:	28013403          	ld	s0,640(sp)
    8000322e:	008b98fb          	.insn	4, 0x008b98fb
    80003232:	f2088153          	fmv.d.x	ft2,a7
    80003236:	02017153          	fadd.d	ft2,ft2,ft0
    8000323a:	84f3848b          	.insn	4, 0x84f3848b
    8000323e:	65bc848b          	.insn	4, 0x65bc848b
    80003242:	44d0868b          	.insn	4, 0x44d0868b
    80003246:	25a8068b          	.insn	4, 0x25a8068b
    8000324a:	408b93fb          	.insn	4, 0x408b93fb
    8000324e:	f20381d3          	fmv.d.x	ft3,t2
    80003252:	02317153          	fadd.d	ft2,ft2,ft3
    80003256:	0002b483          	ld	s1,0(t0)
    8000325a:	05063803          	ld	a6,80(a2)
    8000325e:	24813d03          	ld	s10,584(sp)
    80003262:	0f3d0693          	addi	a3,s10,243
    80003266:	fbb6                	sd	a3,496(sp)
    80003268:	773a                	ld	a4,424(sp)
    8000326a:	8ef9                	and	a3,a3,a4
    8000326c:	068e                	slli	a3,a3,0x3
    8000326e:	00d50a33          	add	s4,a0,a3
    80003272:	000a3683          	ld	a3,0(s4)
    80003276:	6e38                	ld	a4,88(a2)
    80003278:	69c9078b          	.insn	4, 0x69c9078b
    8000327c:	28be858b          	.insn	4, 0x28be858b
    80003280:	088b858b          	.insn	4, 0x088b858b
    80003284:	48d4858b          	.insn	4, 0x48d4858b
    80003288:	90e81e7b          	.insn	4, 0x90e81e7b
    8000328c:	f20e01d3          	fmv.d.x	ft3,t3
    80003290:	02317153          	fadd.d	ft2,ft2,ft3
    80003294:	06063283          	ld	t0,96(a2)
    80003298:	000f3303          	ld	t1,0(t5)
    8000329c:	06863e83          	ld	t4,104(a2)
    800032a0:	27013583          	ld	a1,624(sp)
    800032a4:	0065e713          	ori	a4,a1,6
    800032a8:	25013583          	ld	a1,592(sp)
    800032ac:	95ba                	add	a1,a1,a4
    800032ae:	e6ae                	sd	a1,328(sp)
    800032b0:	058e                	slli	a1,a1,0x3
    800032b2:	f62e                	sd	a1,296(sp)
    800032b4:	95aa                	add	a1,a1,a0
    800032b6:	ee2e                	sd	a1,280(sp)
    800032b8:	619c                	ld	a5,0(a1)
    800032ba:	07063803          	ld	a6,112(a2)
    800032be:	759e                	ld	a1,480(sp)
    800032c0:	6184                	ld	s1,0(a1)
    800032c2:	7e2c                	ld	a1,120(a2)
    800032c4:	0c8b868b          	.insn	4, 0x0c8b868b
    800032c8:	2c6b868b          	.insn	4, 0x2c6b868b
    800032cc:	6dd2868b          	.insn	4, 0x6dd2868b
    800032d0:	4c97868b          	.insn	4, 0x4c97868b
    800032d4:	d0b81efb          	.insn	4, 0xd0b81efb
    800032d8:	f20e81d3          	fmv.d.x	ft3,t4
    800032dc:	02317153          	fadd.d	ft2,ft2,ft3
    800032e0:	65fe                	ld	a1,472(sp)
    800032e2:	618c                	ld	a1,0(a1)
    800032e4:	08063803          	ld	a6,128(a2)
    800032e8:	66de                	ld	a3,464(sp)
    800032ea:	629c                	ld	a5,0(a3)
    800032ec:	6644                	ld	s1,136(a2)
    800032ee:	66be                	ld	a3,456(sp)
    800032f0:	0006b283          	ld	t0,0(a3)
    800032f4:	6a54                	ld	a3,144(a2)
    800032f6:	3cf5858b          	.insn	4, 0x3cf5858b
    800032fa:	23013583          	ld	a1,560(sp)
    800032fe:	f73a                	sd	a4,424(sp)
    80003300:	95ba                	add	a1,a1,a4
    80003302:	058e                	slli	a1,a1,0x3
    80003304:	95aa                	add	a1,a1,a0
    80003306:	20b13c23          	sd	a1,536(sp)
    8000330a:	618c                	ld	a1,0(a1)
    8000330c:	7c98070b          	.insn	4, 0x7c98070b
    80003310:	6e58                	ld	a4,152(a2)
    80003312:	1c8b878b          	.insn	4, 0x1c8b878b
    80003316:	5cb2858b          	.insn	4, 0x5cb2858b
    8000331a:	d0e695fb          	.insn	4, 0xd0e695fb
    8000331e:	f20581d3          	fmv.d.x	ft3,a1
    80003322:	02317153          	fadd.d	ft2,ft2,ft3
    80003326:	759a                	ld	a1,416(sp)
    80003328:	618c                	ld	a1,0(a1)
    8000332a:	7254                	ld	a3,160(a2)
    8000332c:	7658                	ld	a4,168(a2)
    8000332e:	67ba                	ld	a5,392(sp)
    80003330:	639c                	ld	a5,0(a5)
    80003332:	23813483          	ld	s1,568(sp)
    80003336:	745a                	ld	s0,432(sp)
    80003338:	94a2                	add	s1,s1,s0
    8000333a:	048e                	slli	s1,s1,0x3
    8000333c:	94aa                	add	s1,s1,a0
    8000333e:	7ce6868b          	.insn	4, 0x7ce6868b
    80003342:	faa6                	sd	s1,368(sp)
    80003344:	6094                	ld	a3,0(s1)
    80003346:	675a                	ld	a4,400(sp)
    80003348:	6318                	ld	a4,0(a4)
    8000334a:	5cd7868b          	.insn	4, 0x5cd7868b
    8000334e:	7a54                	ld	a3,176(a2)
    80003350:	7e5c                	ld	a5,184(a2)
    80003352:	3ce582db          	.insn	4, 0x3ce582db
    80003356:	d0f695fb          	.insn	4, 0xd0f695fb
    8000335a:	f20581d3          	fmv.d.x	ft3,a1
    8000335e:	02317153          	fadd.d	ft2,ft2,ft3
    80003362:	26013583          	ld	a1,608(sp)
    80003366:	20658593          	addi	a1,a1,518
    8000336a:	058e                	slli	a1,a1,0x3
    8000336c:	95aa                	add	a1,a1,a0
    8000336e:	618c                	ld	a1,0(a1)
    80003370:	6274                	ld	a3,192(a2)
    80003372:	3c05835b          	.insn	4, 0x3c05835b
    80003376:	cc0696fb          	.insn	4, 0xcc0696fb
    8000337a:	f20681d3          	fmv.d.x	ft3,a3
    8000337e:	02317153          	fadd.d	ft2,ft2,ft3
    80003382:	0118872b          	.insn	4, 0x0118872b
    80003386:	047385ab          	.insn	4, 0x047385ab
    8000338a:	09ce042b          	.insn	4, 0x09ce042b
    8000338e:	a22097d3          	flt.d	a5,ft1,ft2
    80003392:	0dde84ab          	.insn	4, 0x0dde84ab
    80003396:	1cd686ab          	.insn	4, 0x1cd686ab
    8000339a:	c3a9                	beqz	a5,800033dc <bilateral_core+0x11e2>
    8000339c:	f20701d3          	fmv.d.x	ft3,a4
    800033a0:	0201f1d3          	fadd.d	ft3,ft3,ft0
    800033a4:	f2058253          	fmv.d.x	ft4,a1
    800033a8:	0241f1d3          	fadd.d	ft3,ft3,ft4
    800033ac:	f2040253          	fmv.d.x	ft4,s0
    800033b0:	0241f1d3          	fadd.d	ft3,ft3,ft4
    800033b4:	f2048253          	fmv.d.x	ft4,s1
    800033b8:	0241f1d3          	fadd.d	ft3,ft3,ft4
    800033bc:	f2028253          	fmv.d.x	ft4,t0
    800033c0:	0241f1d3          	fadd.d	ft3,ft3,ft4
    800033c4:	f2030253          	fmv.d.x	ft4,t1
    800033c8:	0241f1d3          	fadd.d	ft3,ft3,ft4
    800033cc:	f2068253          	fmv.d.x	ft4,a3
    800033d0:	0241f1d3          	fadd.d	ft3,ft3,ft4
    800033d4:	1a21f153          	fdiv.d	ft2,ft3,ft2
    800033d8:	e2010bd3          	fmv.x.d	s7,ft2
    800033dc:	4881                	li	a7,0
    800033de:	4c01                	li	s8,0
    800033e0:	4a81                	li	s5,0
    800033e2:	4901                	li	s2,0
    800033e4:	4b01                	li	s6,0
    800033e6:	4c81                	li	s9,0
    800033e8:	4981                	li	s3,0
    800033ea:	27813583          	ld	a1,632(sp)
    800033ee:	76b6                	ld	a3,360(sp)
    800033f0:	95b6                	add	a1,a1,a3
    800033f2:	0175b023          	sd	s7,0(a1)
    800033f6:	000f3f83          	ld	t6,0(t5)
    800033fa:	4d81                	li	s11,0
    800033fc:	25813703          	ld	a4,600(sp)
    80003400:	ef29                	bnez	a4,8000345a <bilateral_core+0x1260>
    80003402:	22013783          	ld	a5,544(sp)
    80003406:	75be                	ld	a1,488(sp)
    80003408:	95be                	add	a1,a1,a5
    8000340a:	76de                	ld	a3,496(sp)
    8000340c:	8df5                	and	a1,a1,a3
    8000340e:	058e                	slli	a1,a1,0x3
    80003410:	95aa                	add	a1,a1,a0
    80003412:	0005b903          	ld	s2,0(a1)
    80003416:	00063a83          	ld	s5,0(a2)
    8000341a:	75fa                	ld	a1,440(sp)
    8000341c:	95be                	add	a1,a1,a5
    8000341e:	0f4d0693          	addi	a3,s10,244
    80003422:	8df5                	and	a1,a1,a3
    80003424:	058e                	slli	a1,a1,0x3
    80003426:	95aa                	add	a1,a1,a0
    80003428:	0005bb03          	ld	s6,0(a1)
    8000342c:	00863c83          	ld	s9,8(a2)
    80003430:	20813583          	ld	a1,520(sp)
    80003434:	76da                	ld	a3,432(sp)
    80003436:	95b6                	add	a1,a1,a3
    80003438:	058e                	slli	a1,a1,0x3
    8000343a:	95aa                	add	a1,a1,a0
    8000343c:	0005bc03          	ld	s8,0(a1)
    80003440:	01063883          	ld	a7,16(a2)
    80003444:	75ba                	ld	a1,424(sp)
    80003446:	95be                	add	a1,a1,a5
    80003448:	0f6d0693          	addi	a3,s10,246
    8000344c:	8df5                	and	a1,a1,a3
    8000344e:	058e                	slli	a1,a1,0x3
    80003450:	95aa                	add	a1,a1,a0
    80003452:	0005b983          	ld	s3,0(a1)
    80003456:	01863d83          	ld	s11,24(a2)
    8000345a:	4f01                	li	t5,0
    8000345c:	4d01                	li	s10,0
    8000345e:	24013783          	ld	a5,576(sp)
    80003462:	e31d                	bnez	a4,80003488 <bilateral_core+0x128e>
    80003464:	27013583          	ld	a1,624(sp)
    80003468:	0075e593          	ori	a1,a1,7
    8000346c:	22013683          	ld	a3,544(sp)
    80003470:	95b6                	add	a1,a1,a3
    80003472:	24813683          	ld	a3,584(sp)
    80003476:	0f768693          	addi	a3,a3,247
    8000347a:	8df5                	and	a1,a1,a3
    8000347c:	058e                	slli	a1,a1,0x3
    8000347e:	95aa                	add	a1,a1,a0
    80003480:	0005bf03          	ld	t5,0(a1)
    80003484:	02063d03          	ld	s10,32(a2)
    80003488:	4281                	li	t0,0
    8000348a:	4e01                	li	t3,0
    8000348c:	4301                	li	t1,0
    8000348e:	4381                	li	t2,0
    80003490:	4b81                	li	s7,0
    80003492:	4681                	li	a3,0
    80003494:	e3b1                	bnez	a5,800034d8 <bilateral_core+0x12de>
    80003496:	22813703          	ld	a4,552(sp)
    8000349a:	75be                	ld	a1,488(sp)
    8000349c:	95ba                	add	a1,a1,a4
    8000349e:	76de                	ld	a3,496(sp)
    800034a0:	8df5                	and	a1,a1,a3
    800034a2:	058e                	slli	a1,a1,0x3
    800034a4:	95aa                	add	a1,a1,a0
    800034a6:	0005b303          	ld	t1,0(a1)
    800034aa:	02863383          	ld	t2,40(a2)
    800034ae:	75fa                	ld	a1,440(sp)
    800034b0:	95ba                	add	a1,a1,a4
    800034b2:	24813683          	ld	a3,584(sp)
    800034b6:	0f468693          	addi	a3,a3,244
    800034ba:	8df5                	and	a1,a1,a3
    800034bc:	058e                	slli	a1,a1,0x3
    800034be:	95aa                	add	a1,a1,a0
    800034c0:	0005be03          	ld	t3,0(a1)
    800034c4:	03063283          	ld	t0,48(a2)
    800034c8:	65fa                	ld	a1,408(sp)
    800034ca:	76da                	ld	a3,432(sp)
    800034cc:	95b6                	add	a1,a1,a3
    800034ce:	058e                	slli	a1,a1,0x3
    800034d0:	95aa                	add	a1,a1,a0
    800034d2:	0005bb83          	ld	s7,0(a1)
    800034d6:	7e14                	ld	a3,56(a2)
    800034d8:	4081                	li	ra,0
    800034da:	4e81                	li	t4,0
    800034dc:	4801                	li	a6,0
    800034de:	4701                	li	a4,0
    800034e0:	ef8d                	bnez	a5,8000351a <bilateral_core+0x1320>
    800034e2:	22813483          	ld	s1,552(sp)
    800034e6:	75ba                	ld	a1,424(sp)
    800034e8:	95a6                	add	a1,a1,s1
    800034ea:	24813783          	ld	a5,584(sp)
    800034ee:	0f678713          	addi	a4,a5,246
    800034f2:	8df9                	and	a1,a1,a4
    800034f4:	058e                	slli	a1,a1,0x3
    800034f6:	95aa                	add	a1,a1,a0
    800034f8:	0005be83          	ld	t4,0(a1)
    800034fc:	04063083          	ld	ra,64(a2)
    80003500:	27013583          	ld	a1,624(sp)
    80003504:	0075e713          	ori	a4,a1,7
    80003508:	9726                	add	a4,a4,s1
    8000350a:	0f778493          	addi	s1,a5,247
    8000350e:	8f65                	and	a4,a4,s1
    80003510:	070e                	slli	a4,a4,0x3
    80003512:	972a                	add	a4,a4,a0
    80003514:	00073803          	ld	a6,0(a4)
    80003518:	6638                	ld	a4,72(a2)
    8000351a:	81b8878b          	.insn	4, 0x81b8878b
    8000351e:	619a878b          	.insn	4, 0x619a878b
    80003522:	413c078b          	.insn	4, 0x413c078b
    80003526:	2169078b          	.insn	4, 0x2169078b
    8000352a:	28013403          	ld	s0,640(sp)
    8000352e:	008f98fb          	.insn	4, 0x008f98fb
    80003532:	f2088153          	fmv.d.x	ft2,a7
    80003536:	02017153          	fadd.d	ft2,ft2,ft0
    8000353a:	84d2868b          	.insn	4, 0x84d2868b
    8000353e:	647d068b          	.insn	4, 0x647d068b
    80003542:	457e068b          	.insn	4, 0x457e068b
    80003546:	246f068b          	.insn	4, 0x246f068b
    8000354a:	408f937b          	.insn	4, 0x408f937b
    8000354e:	f20301d3          	fmv.d.x	ft3,t1
    80003552:	02317153          	fadd.d	ft2,ft2,ft3
    80003556:	000a3783          	ld	a5,0(s4)
    8000355a:	6a24                	ld	s1,80(a2)
    8000355c:	24813a03          	ld	s4,584(sp)
    80003560:	0f4a0593          	addi	a1,s4,244
    80003564:	f7ae                	sd	a1,488(sp)
    80003566:	669a                	ld	a3,384(sp)
    80003568:	8eed                	and	a3,a3,a1
    8000356a:	068e                	slli	a3,a3,0x3
    8000356c:	00d50ab3          	add	s5,a0,a3
    80003570:	000ab683          	ld	a3,0(s5)
    80003574:	6e2c                	ld	a1,88(a2)
    80003576:	68e0870b          	.insn	4, 0x68e0870b
    8000357a:	290e870b          	.insn	4, 0x290e870b
    8000357e:	088f870b          	.insn	4, 0x088f870b
    80003582:	48d7868b          	.insn	4, 0x48d7868b
    80003586:	90b493fb          	.insn	4, 0x90b493fb
    8000358a:	f20381d3          	fmv.d.x	ft3,t2
    8000358e:	02317153          	fadd.d	ft2,ft2,ft3
    80003592:	06063283          	ld	t0,96(a2)
    80003596:	6972                	ld	s2,280(sp)
    80003598:	00093e03          	ld	t3,0(s2)
    8000359c:	06863803          	ld	a6,104(a2)
    800035a0:	27013583          	ld	a1,624(sp)
    800035a4:	0075e713          	ori	a4,a1,7
    800035a8:	25013583          	ld	a1,592(sp)
    800035ac:	95ba                	add	a1,a1,a4
    800035ae:	e2ae                	sd	a1,320(sp)
    800035b0:	058e                	slli	a1,a1,0x3
    800035b2:	f22e                	sd	a1,288(sp)
    800035b4:	95aa                	add	a1,a1,a0
    800035b6:	e32e                	sd	a1,384(sp)
    800035b8:	6184                	ld	s1,0(a1)
    800035ba:	07063e83          	ld	t4,112(a2)
    800035be:	65fe                	ld	a1,472(sp)
    800035c0:	619c                	ld	a5,0(a1)
    800035c2:	7e2c                	ld	a1,120(a2)
    800035c4:	0c8f868b          	.insn	4, 0x0c8f868b
    800035c8:	2dcf868b          	.insn	4, 0x2dcf868b
    800035cc:	6d02868b          	.insn	4, 0x6d02868b
    800035d0:	4cf4868b          	.insn	4, 0x4cf4868b
    800035d4:	d0be9e7b          	.insn	4, 0xd0be9e7b
    800035d8:	f20e01d3          	fmv.d.x	ft3,t3
    800035dc:	02317153          	fadd.d	ft2,ft2,ft3
    800035e0:	65de                	ld	a1,464(sp)
    800035e2:	618c                	ld	a1,0(a1)
    800035e4:	08063283          	ld	t0,128(a2)
    800035e8:	66be                	ld	a3,456(sp)
    800035ea:	629c                	ld	a5,0(a3)
    800035ec:	6644                	ld	s1,136(a2)
    800035ee:	21813683          	ld	a3,536(sp)
    800035f2:	0006b803          	ld	a6,0(a3)
    800035f6:	6a54                	ld	a3,144(a2)
    800035f8:	3cf5858b          	.insn	4, 0x3cf5858b
    800035fc:	23013583          	ld	a1,560(sp)
    80003600:	f33a                	sd	a4,416(sp)
    80003602:	95ba                	add	a1,a1,a4
    80003604:	058e                	slli	a1,a1,0x3
    80003606:	95aa                	add	a1,a1,a0
    80003608:	e3ae                	sd	a1,448(sp)
    8000360a:	618c                	ld	a1,0(a1)
    8000360c:	7c92870b          	.insn	4, 0x7c92870b
    80003610:	6e58                	ld	a4,152(a2)
    80003612:	1c8f878b          	.insn	4, 0x1c8f878b
    80003616:	5cb8058b          	.insn	4, 0x5cb8058b
    8000361a:	d0e695fb          	.insn	4, 0xd0e695fb
    8000361e:	f20581d3          	fmv.d.x	ft3,a1
    80003622:	02317153          	fadd.d	ft2,ft2,ft3
    80003626:	65da                	ld	a1,400(sp)
    80003628:	618c                	ld	a1,0(a1)
    8000362a:	7254                	ld	a3,160(a2)
    8000362c:	7658                	ld	a4,168(a2)
    8000362e:	77d6                	ld	a5,368(sp)
    80003630:	639c                	ld	a5,0(a5)
    80003632:	23813483          	ld	s1,568(sp)
    80003636:	743a                	ld	s0,424(sp)
    80003638:	94a2                	add	s1,s1,s0
    8000363a:	048e                	slli	s1,s1,0x3
    8000363c:	94aa                	add	s1,s1,a0
    8000363e:	7ce6868b          	.insn	4, 0x7ce6868b
    80003642:	f6a6                	sd	s1,360(sp)
    80003644:	6094                	ld	a3,0(s1)
    80003646:	673a                	ld	a4,392(sp)
    80003648:	6318                	ld	a4,0(a4)
    8000364a:	5cd7868b          	.insn	4, 0x5cd7868b
    8000364e:	7a54                	ld	a3,176(a2)
    80003650:	7e5c                	ld	a5,184(a2)
    80003652:	3ce582db          	.insn	4, 0x3ce582db
    80003656:	d0f695fb          	.insn	4, 0xd0f695fb
    8000365a:	f20581d3          	fmv.d.x	ft3,a1
    8000365e:	02317153          	fadd.d	ft2,ft2,ft3
    80003662:	26013583          	ld	a1,608(sp)
    80003666:	20758593          	addi	a1,a1,519
    8000366a:	058e                	slli	a1,a1,0x3
    8000366c:	95aa                	add	a1,a1,a0
    8000366e:	618c                	ld	a1,0(a1)
    80003670:	6274                	ld	a3,192(a2)
    80003672:	3c058edb          	.insn	4, 0x3c058edb
    80003676:	cc0696fb          	.insn	4, 0xcc0696fb
    8000367a:	f20681d3          	fmv.d.x	ft3,a3
    8000367e:	02317153          	fadd.d	ft2,ft2,ft3
    80003682:	011885ab          	.insn	4, 0x011885ab
    80003686:	0463042b          	.insn	4, 0x0463042b
    8000368a:	087384ab          	.insn	4, 0x087384ab
    8000368e:	a2209753          	flt.d	a4,ft1,ft2
    80003692:	0dce07ab          	.insn	4, 0x0dce07ab
    80003696:	1cd686ab          	.insn	4, 0x1cd686ab
    8000369a:	c329                	beqz	a4,800036dc <bilateral_core+0x14e2>
    8000369c:	f20581d3          	fmv.d.x	ft3,a1
    800036a0:	0201f1d3          	fadd.d	ft3,ft3,ft0
    800036a4:	f2040253          	fmv.d.x	ft4,s0
    800036a8:	0241f1d3          	fadd.d	ft3,ft3,ft4
    800036ac:	f2048253          	fmv.d.x	ft4,s1
    800036b0:	0241f1d3          	fadd.d	ft3,ft3,ft4
    800036b4:	f2078253          	fmv.d.x	ft4,a5
    800036b8:	0241f1d3          	fadd.d	ft3,ft3,ft4
    800036bc:	f2028253          	fmv.d.x	ft4,t0
    800036c0:	0241f1d3          	fadd.d	ft3,ft3,ft4
    800036c4:	f20e8253          	fmv.d.x	ft4,t4
    800036c8:	0241f1d3          	fadd.d	ft3,ft3,ft4
    800036cc:	f2068253          	fmv.d.x	ft4,a3
    800036d0:	0241f1d3          	fadd.d	ft3,ft3,ft4
    800036d4:	1a21f153          	fdiv.d	ft2,ft3,ft2
    800036d8:	e2010fd3          	fmv.x.d	t6,ft2
    800036dc:	4881                	li	a7,0
    800036de:	4d81                	li	s11,0
    800036e0:	4c01                	li	s8,0
    800036e2:	4b01                	li	s6,0
    800036e4:	4c81                	li	s9,0
    800036e6:	4f01                	li	t5,0
    800036e8:	4981                	li	s3,0
    800036ea:	27813583          	ld	a1,632(sp)
    800036ee:	76d2                	ld	a3,304(sp)
    800036f0:	95b6                	add	a1,a1,a3
    800036f2:	01f5b023          	sd	t6,0(a1)
    800036f6:	00093903          	ld	s2,0(s2)
    800036fa:	4f81                	li	t6,0
    800036fc:	25813783          	ld	a5,600(sp)
    80003700:	efa9                	bnez	a5,8000375a <bilateral_core+0x1560>
    80003702:	22013703          	ld	a4,544(sp)
    80003706:	75fa                	ld	a1,440(sp)
    80003708:	95ba                	add	a1,a1,a4
    8000370a:	76be                	ld	a3,488(sp)
    8000370c:	8df5                	and	a1,a1,a3
    8000370e:	058e                	slli	a1,a1,0x3
    80003710:	95aa                	add	a1,a1,a0
    80003712:	0005bb03          	ld	s6,0(a1)
    80003716:	00063c03          	ld	s8,0(a2)
    8000371a:	75da                	ld	a1,432(sp)
    8000371c:	95ba                	add	a1,a1,a4
    8000371e:	0f5a0693          	addi	a3,s4,245
    80003722:	8df5                	and	a1,a1,a3
    80003724:	058e                	slli	a1,a1,0x3
    80003726:	95aa                	add	a1,a1,a0
    80003728:	0005bc83          	ld	s9,0(a1)
    8000372c:	00863f03          	ld	t5,8(a2)
    80003730:	20813583          	ld	a1,520(sp)
    80003734:	76ba                	ld	a3,424(sp)
    80003736:	95b6                	add	a1,a1,a3
    80003738:	058e                	slli	a1,a1,0x3
    8000373a:	95aa                	add	a1,a1,a0
    8000373c:	0005bd83          	ld	s11,0(a1)
    80003740:	01063883          	ld	a7,16(a2)
    80003744:	759a                	ld	a1,416(sp)
    80003746:	95ba                	add	a1,a1,a4
    80003748:	0f7a0693          	addi	a3,s4,247
    8000374c:	8df5                	and	a1,a1,a3
    8000374e:	058e                	slli	a1,a1,0x3
    80003750:	95aa                	add	a1,a1,a0
    80003752:	0005b983          	ld	s3,0(a1)
    80003756:	01863f83          	ld	t6,24(a2)
    8000375a:	4801                	li	a6,0
    8000375c:	4d01                	li	s10,0
    8000375e:	24013703          	ld	a4,576(sp)
    80003762:	e39d                	bnez	a5,80003788 <bilateral_core+0x158e>
    80003764:	27013583          	ld	a1,624(sp)
    80003768:	0085e593          	ori	a1,a1,8
    8000376c:	22013683          	ld	a3,544(sp)
    80003770:	95b6                	add	a1,a1,a3
    80003772:	24813683          	ld	a3,584(sp)
    80003776:	0f868693          	addi	a3,a3,248
    8000377a:	8df5                	and	a1,a1,a3
    8000377c:	058e                	slli	a1,a1,0x3
    8000377e:	95aa                	add	a1,a1,a0
    80003780:	0005b803          	ld	a6,0(a1)
    80003784:	02063d03          	ld	s10,32(a2)
    80003788:	4281                	li	t0,0
    8000378a:	4e01                	li	t3,0
    8000378c:	4081                	li	ra,0
    8000378e:	4301                	li	t1,0
    80003790:	4681                	li	a3,0
    80003792:	4381                	li	t2,0
    80003794:	e331                	bnez	a4,800037d8 <bilateral_core+0x15de>
    80003796:	22813783          	ld	a5,552(sp)
    8000379a:	75fa                	ld	a1,440(sp)
    8000379c:	95be                	add	a1,a1,a5
    8000379e:	76be                	ld	a3,488(sp)
    800037a0:	8df5                	and	a1,a1,a3
    800037a2:	058e                	slli	a1,a1,0x3
    800037a4:	95aa                	add	a1,a1,a0
    800037a6:	0005b083          	ld	ra,0(a1)
    800037aa:	02863303          	ld	t1,40(a2)
    800037ae:	75da                	ld	a1,432(sp)
    800037b0:	95be                	add	a1,a1,a5
    800037b2:	24813683          	ld	a3,584(sp)
    800037b6:	0f568693          	addi	a3,a3,245
    800037ba:	8df5                	and	a1,a1,a3
    800037bc:	058e                	slli	a1,a1,0x3
    800037be:	95aa                	add	a1,a1,a0
    800037c0:	0005be03          	ld	t3,0(a1)
    800037c4:	03063283          	ld	t0,48(a2)
    800037c8:	65fa                	ld	a1,408(sp)
    800037ca:	76ba                	ld	a3,424(sp)
    800037cc:	95b6                	add	a1,a1,a3
    800037ce:	058e                	slli	a1,a1,0x3
    800037d0:	95aa                	add	a1,a1,a0
    800037d2:	6194                	ld	a3,0(a1)
    800037d4:	03863383          	ld	t2,56(a2)
    800037d8:	4b81                	li	s7,0
    800037da:	4e81                	li	t4,0
    800037dc:	4a01                	li	s4,0
    800037de:	4581                	li	a1,0
    800037e0:	ef0d                	bnez	a4,8000381a <bilateral_core+0x1620>
    800037e2:	22813403          	ld	s0,552(sp)
    800037e6:	759a                	ld	a1,416(sp)
    800037e8:	95a2                	add	a1,a1,s0
    800037ea:	24813783          	ld	a5,584(sp)
    800037ee:	0f778713          	addi	a4,a5,247
    800037f2:	8df9                	and	a1,a1,a4
    800037f4:	058e                	slli	a1,a1,0x3
    800037f6:	95aa                	add	a1,a1,a0
    800037f8:	0005be83          	ld	t4,0(a1)
    800037fc:	04063b83          	ld	s7,64(a2)
    80003800:	27013583          	ld	a1,624(sp)
    80003804:	0085e593          	ori	a1,a1,8
    80003808:	95a2                	add	a1,a1,s0
    8000380a:	0f878413          	addi	s0,a5,248
    8000380e:	8de1                	and	a1,a1,s0
    80003810:	058e                	slli	a1,a1,0x3
    80003812:	95aa                	add	a1,a1,a0
    80003814:	0005ba03          	ld	s4,0(a1)
    80003818:	662c                	ld	a1,72(a2)
    8000381a:	81f8870b          	.insn	4, 0x81f8870b
    8000381e:	61ec070b          	.insn	4, 0x61ec070b
    80003822:	413d870b          	.insn	4, 0x413d870b
    80003826:	219b070b          	.insn	4, 0x219b070b
    8000382a:	28013403          	ld	s0,640(sp)
    8000382e:	008918fb          	.insn	4, 0x008918fb
    80003832:	f2088153          	fmv.d.x	ft2,a7
    80003836:	02017153          	fadd.d	ft2,ft2,ft0
    8000383a:	8472870b          	.insn	4, 0x8472870b
    8000383e:	646d070b          	.insn	4, 0x646d070b
    80003842:	44de068b          	.insn	4, 0x44de068b
    80003846:	2418068b          	.insn	4, 0x2418068b
    8000384a:	408913fb          	.insn	4, 0x408913fb
    8000384e:	f20381d3          	fmv.d.x	ft3,t2
    80003852:	02317153          	fadd.d	ft2,ft2,ft3
    80003856:	000ab703          	ld	a4,0(s5)
    8000385a:	6a34                	ld	a3,80(a2)
    8000385c:	24813f83          	ld	t6,584(sp)
    80003860:	0f5f8793          	addi	a5,t6,245
    80003864:	f3be                	sd	a5,480(sp)
    80003866:	64d6                	ld	s1,336(sp)
    80003868:	8fe5                	and	a5,a5,s1
    8000386a:	078e                	slli	a5,a5,0x3
    8000386c:	00f50833          	add	a6,a0,a5
    80003870:	00083783          	ld	a5,0(a6)
    80003874:	6e24                	ld	s1,88(a2)
    80003876:	68bb858b          	.insn	4, 0x68bb858b
    8000387a:	294e858b          	.insn	4, 0x294e858b
    8000387e:	0889058b          	.insn	4, 0x0889058b
    80003882:	48f7058b          	.insn	4, 0x48f7058b
    80003886:	90969e7b          	.insn	4, 0x90969e7b
    8000388a:	f20e01d3          	fmv.d.x	ft3,t3
    8000388e:	02317153          	fadd.d	ft2,ft2,ft3
    80003892:	06063283          	ld	t0,96(a2)
    80003896:	6a1a                	ld	s4,384(sp)
    80003898:	000a3303          	ld	t1,0(s4)
    8000389c:	06863e83          	ld	t4,104(a2)
    800038a0:	27013583          	ld	a1,624(sp)
    800038a4:	0085e713          	ori	a4,a1,8
    800038a8:	25013583          	ld	a1,592(sp)
    800038ac:	95ba                	add	a1,a1,a4
    800038ae:	fa2e                	sd	a1,304(sp)
    800038b0:	058e                	slli	a1,a1,0x3
    800038b2:	ee2e                	sd	a1,280(sp)
    800038b4:	95aa                	add	a1,a1,a0
    800038b6:	e62e                	sd	a1,264(sp)
    800038b8:	6184                	ld	s1,0(a1)
    800038ba:	07063f03          	ld	t5,112(a2)
    800038be:	65de                	ld	a1,464(sp)
    800038c0:	619c                	ld	a5,0(a1)
    800038c2:	7e2c                	ld	a1,120(a2)
    800038c4:	0c89068b          	.insn	4, 0x0c89068b
    800038c8:	2c69068b          	.insn	4, 0x2c69068b
    800038cc:	6dd2868b          	.insn	4, 0x6dd2868b
    800038d0:	4cf4868b          	.insn	4, 0x4cf4868b
    800038d4:	d0bf1f7b          	.insn	4, 0xd0bf1f7b
    800038d8:	f20f01d3          	fmv.d.x	ft3,t5
    800038dc:	02317153          	fadd.d	ft2,ft2,ft3
    800038e0:	65be                	ld	a1,456(sp)
    800038e2:	618c                	ld	a1,0(a1)
    800038e4:	08063303          	ld	t1,128(a2)
    800038e8:	21813683          	ld	a3,536(sp)
    800038ec:	629c                	ld	a5,0(a3)
    800038ee:	6644                	ld	s1,136(a2)
    800038f0:	669e                	ld	a3,448(sp)
    800038f2:	0006b283          	ld	t0,0(a3)
    800038f6:	6a54                	ld	a3,144(a2)
    800038f8:	3cf5858b          	.insn	4, 0x3cf5858b
    800038fc:	23013583          	ld	a1,560(sp)
    80003900:	eb3a                	sd	a4,400(sp)
    80003902:	95ba                	add	a1,a1,a4
    80003904:	058e                	slli	a1,a1,0x3
    80003906:	95aa                	add	a1,a1,a0
    80003908:	ff2e                	sd	a1,440(sp)
    8000390a:	618c                	ld	a1,0(a1)
    8000390c:	7c93070b          	.insn	4, 0x7c93070b
    80003910:	6e58                	ld	a4,152(a2)
    80003912:	1c89078b          	.insn	4, 0x1c89078b
    80003916:	5cb2858b          	.insn	4, 0x5cb2858b
    8000391a:	d0e695fb          	.insn	4, 0xd0e695fb
    8000391e:	f20581d3          	fmv.d.x	ft3,a1
    80003922:	02317153          	fadd.d	ft2,ft2,ft3
    80003926:	65ba                	ld	a1,392(sp)
    80003928:	618c                	ld	a1,0(a1)
    8000392a:	7254                	ld	a3,160(a2)
    8000392c:	7658                	ld	a4,168(a2)
    8000392e:	77b6                	ld	a5,360(sp)
    80003930:	639c                	ld	a5,0(a5)
    80003932:	23813483          	ld	s1,568(sp)
    80003936:	741a                	ld	s0,416(sp)
    80003938:	94a2                	add	s1,s1,s0
    8000393a:	048e                	slli	s1,s1,0x3
    8000393c:	94aa                	add	s1,s1,a0
    8000393e:	7ce6868b          	.insn	4, 0x7ce6868b
    80003942:	e726                	sd	s1,392(sp)
    80003944:	6094                	ld	a3,0(s1)
    80003946:	7756                	ld	a4,368(sp)
    80003948:	6318                	ld	a4,0(a4)
    8000394a:	5cd7868b          	.insn	4, 0x5cd7868b
    8000394e:	7a54                	ld	a3,176(a2)
    80003950:	7e5c                	ld	a5,184(a2)
    80003952:	3ce582db          	.insn	4, 0x3ce582db
    80003956:	d0f695fb          	.insn	4, 0xd0f695fb
    8000395a:	f20581d3          	fmv.d.x	ft3,a1
    8000395e:	02317153          	fadd.d	ft2,ft2,ft3
    80003962:	26013583          	ld	a1,608(sp)
    80003966:	20858593          	addi	a1,a1,520
    8000396a:	058e                	slli	a1,a1,0x3
    8000396c:	95aa                	add	a1,a1,a0
    8000396e:	618c                	ld	a1,0(a1)
    80003970:	6274                	ld	a3,192(a2)
    80003972:	3c05835b          	.insn	4, 0x3c05835b
    80003976:	cc0696fb          	.insn	4, 0xcc0696fb
    8000397a:	f20681d3          	fmv.d.x	ft3,a3
    8000397e:	02317153          	fadd.d	ft2,ft2,ft3
    80003982:	0118872b          	.insn	4, 0x0118872b
    80003986:	047385ab          	.insn	4, 0x047385ab
    8000398a:	09ce042b          	.insn	4, 0x09ce042b
    8000398e:	a22094d3          	flt.d	s1,ft1,ft2
    80003992:	0def07ab          	.insn	4, 0x0def07ab
    80003996:	1cd686ab          	.insn	4, 0x1cd686ab
    8000399a:	c0a9                	beqz	s1,800039dc <bilateral_core+0x17e2>
    8000399c:	f20701d3          	fmv.d.x	ft3,a4
    800039a0:	0201f1d3          	fadd.d	ft3,ft3,ft0
    800039a4:	f2058253          	fmv.d.x	ft4,a1
    800039a8:	0241f1d3          	fadd.d	ft3,ft3,ft4
    800039ac:	f2040253          	fmv.d.x	ft4,s0
    800039b0:	0241f1d3          	fadd.d	ft3,ft3,ft4
    800039b4:	f2078253          	fmv.d.x	ft4,a5
    800039b8:	0241f1d3          	fadd.d	ft3,ft3,ft4
    800039bc:	f2028253          	fmv.d.x	ft4,t0
    800039c0:	0241f1d3          	fadd.d	ft3,ft3,ft4
    800039c4:	f2030253          	fmv.d.x	ft4,t1
    800039c8:	0241f1d3          	fadd.d	ft3,ft3,ft4
    800039cc:	f2068253          	fmv.d.x	ft4,a3
    800039d0:	0241f1d3          	fadd.d	ft3,ft3,ft4
    800039d4:	1a21f153          	fdiv.d	ft2,ft3,ft2
    800039d8:	e2010953          	fmv.x.d	s2,ft2
    800039dc:	4981                	li	s3,0
    800039de:	4f01                	li	t5,0
    800039e0:	4b01                	li	s6,0
    800039e2:	4a81                	li	s5,0
    800039e4:	4c01                	li	s8,0
    800039e6:	4c81                	li	s9,0
    800039e8:	4881                	li	a7,0
    800039ea:	27813583          	ld	a1,632(sp)
    800039ee:	76b2                	ld	a3,296(sp)
    800039f0:	95b6                	add	a1,a1,a3
    800039f2:	0125b023          	sd	s2,0(a1)
    800039f6:	000a3e83          	ld	t4,0(s4)
    800039fa:	4d81                	li	s11,0
    800039fc:	25813783          	ld	a5,600(sp)
    80003a00:	efa9                	bnez	a5,80003a5a <bilateral_core+0x1860>
    80003a02:	22013703          	ld	a4,544(sp)
    80003a06:	75da                	ld	a1,432(sp)
    80003a08:	95ba                	add	a1,a1,a4
    80003a0a:	769e                	ld	a3,480(sp)
    80003a0c:	8df5                	and	a1,a1,a3
    80003a0e:	058e                	slli	a1,a1,0x3
    80003a10:	95aa                	add	a1,a1,a0
    80003a12:	0005ba83          	ld	s5,0(a1)
    80003a16:	00063b03          	ld	s6,0(a2)
    80003a1a:	75ba                	ld	a1,424(sp)
    80003a1c:	95ba                	add	a1,a1,a4
    80003a1e:	0f6f8693          	addi	a3,t6,246
    80003a22:	8df5                	and	a1,a1,a3
    80003a24:	058e                	slli	a1,a1,0x3
    80003a26:	95aa                	add	a1,a1,a0
    80003a28:	0005bc03          	ld	s8,0(a1)
    80003a2c:	00863c83          	ld	s9,8(a2)
    80003a30:	20813583          	ld	a1,520(sp)
    80003a34:	769a                	ld	a3,416(sp)
    80003a36:	95b6                	add	a1,a1,a3
    80003a38:	058e                	slli	a1,a1,0x3
    80003a3a:	95aa                	add	a1,a1,a0
    80003a3c:	0005bf03          	ld	t5,0(a1)
    80003a40:	01063983          	ld	s3,16(a2)
    80003a44:	65da                	ld	a1,400(sp)
    80003a46:	95ba                	add	a1,a1,a4
    80003a48:	0f8f8693          	addi	a3,t6,248
    80003a4c:	8df5                	and	a1,a1,a3
    80003a4e:	058e                	slli	a1,a1,0x3
    80003a50:	95aa                	add	a1,a1,a0
    80003a52:	0005b883          	ld	a7,0(a1)
    80003a56:	01863d83          	ld	s11,24(a2)
    80003a5a:	4a01                	li	s4,0
    80003a5c:	4d01                	li	s10,0
    80003a5e:	24013703          	ld	a4,576(sp)
    80003a62:	e39d                	bnez	a5,80003a88 <bilateral_core+0x188e>
    80003a64:	27013583          	ld	a1,624(sp)
    80003a68:	0095e593          	ori	a1,a1,9
    80003a6c:	22013683          	ld	a3,544(sp)
    80003a70:	95b6                	add	a1,a1,a3
    80003a72:	24813683          	ld	a3,584(sp)
    80003a76:	0f968693          	addi	a3,a3,249
    80003a7a:	8df5                	and	a1,a1,a3
    80003a7c:	058e                	slli	a1,a1,0x3
    80003a7e:	95aa                	add	a1,a1,a0
    80003a80:	0005ba03          	ld	s4,0(a1)
    80003a84:	02063d03          	ld	s10,32(a2)
    80003a88:	4281                	li	t0,0
    80003a8a:	4e01                	li	t3,0
    80003a8c:	4301                	li	t1,0
    80003a8e:	4081                	li	ra,0
    80003a90:	4681                	li	a3,0
    80003a92:	4381                	li	t2,0
    80003a94:	e331                	bnez	a4,80003ad8 <bilateral_core+0x18de>
    80003a96:	22813783          	ld	a5,552(sp)
    80003a9a:	75da                	ld	a1,432(sp)
    80003a9c:	95be                	add	a1,a1,a5
    80003a9e:	769e                	ld	a3,480(sp)
    80003aa0:	8df5                	and	a1,a1,a3
    80003aa2:	058e                	slli	a1,a1,0x3
    80003aa4:	95aa                	add	a1,a1,a0
    80003aa6:	0005b303          	ld	t1,0(a1)
    80003aaa:	02863083          	ld	ra,40(a2)
    80003aae:	75ba                	ld	a1,424(sp)
    80003ab0:	95be                	add	a1,a1,a5
    80003ab2:	24813683          	ld	a3,584(sp)
    80003ab6:	0f668693          	addi	a3,a3,246
    80003aba:	8df5                	and	a1,a1,a3
    80003abc:	058e                	slli	a1,a1,0x3
    80003abe:	95aa                	add	a1,a1,a0
    80003ac0:	0005be03          	ld	t3,0(a1)
    80003ac4:	03063283          	ld	t0,48(a2)
    80003ac8:	65fa                	ld	a1,408(sp)
    80003aca:	769a                	ld	a3,416(sp)
    80003acc:	95b6                	add	a1,a1,a3
    80003ace:	058e                	slli	a1,a1,0x3
    80003ad0:	95aa                	add	a1,a1,a0
    80003ad2:	6194                	ld	a3,0(a1)
    80003ad4:	03863383          	ld	t2,56(a2)
    80003ad8:	4b81                	li	s7,0
    80003ada:	4901                	li	s2,0
    80003adc:	4f81                	li	t6,0
    80003ade:	4581                	li	a1,0
    80003ae0:	ef0d                	bnez	a4,80003b1a <bilateral_core+0x1920>
    80003ae2:	22813483          	ld	s1,552(sp)
    80003ae6:	65da                	ld	a1,400(sp)
    80003ae8:	95a6                	add	a1,a1,s1
    80003aea:	24813783          	ld	a5,584(sp)
    80003aee:	0f878713          	addi	a4,a5,248
    80003af2:	8df9                	and	a1,a1,a4
    80003af4:	058e                	slli	a1,a1,0x3
    80003af6:	95aa                	add	a1,a1,a0
    80003af8:	0005b903          	ld	s2,0(a1)
    80003afc:	04063b83          	ld	s7,64(a2)
    80003b00:	27013583          	ld	a1,624(sp)
    80003b04:	0095e593          	ori	a1,a1,9
    80003b08:	95a6                	add	a1,a1,s1
    80003b0a:	0f978413          	addi	s0,a5,249
    80003b0e:	8de1                	and	a1,a1,s0
    80003b10:	058e                	slli	a1,a1,0x3
    80003b12:	95aa                	add	a1,a1,a0
    80003b14:	0005bf83          	ld	t6,0(a1)
    80003b18:	662c                	ld	a1,72(a2)
    80003b1a:	81b9870b          	.insn	4, 0x81b9870b
    80003b1e:	619b070b          	.insn	4, 0x619b070b
    80003b22:	411f070b          	.insn	4, 0x411f070b
    80003b26:	218a870b          	.insn	4, 0x218a870b
    80003b2a:	28013403          	ld	s0,640(sp)
    80003b2e:	008e98fb          	.insn	4, 0x008e98fb
    80003b32:	f2088153          	fmv.d.x	ft2,a7
    80003b36:	02017153          	fadd.d	ft2,ft2,ft0
    80003b3a:	8472870b          	.insn	4, 0x8472870b
    80003b3e:	641d070b          	.insn	4, 0x641d070b
    80003b42:	44de068b          	.insn	4, 0x44de068b
    80003b46:	246a068b          	.insn	4, 0x246a068b
    80003b4a:	408e937b          	.insn	4, 0x408e937b
    80003b4e:	f20301d3          	fmv.d.x	ft3,t1
    80003b52:	02317153          	fadd.d	ft2,ft2,ft3
    80003b56:	00083703          	ld	a4,0(a6)
    80003b5a:	6a34                	ld	a3,80(a2)
    80003b5c:	24813d03          	ld	s10,584(sp)
    80003b60:	0f6d0793          	addi	a5,s10,246
    80003b64:	efbe                	sd	a5,472(sp)
    80003b66:	64b6                	ld	s1,328(sp)
    80003b68:	8fe5                	and	a5,a5,s1
    80003b6a:	078e                	slli	a5,a5,0x3
    80003b6c:	00f50b33          	add	s6,a0,a5
    80003b70:	000b3783          	ld	a5,0(s6)
    80003b74:	6e24                	ld	s1,88(a2)
    80003b76:	68bb858b          	.insn	4, 0x68bb858b
    80003b7a:	29f9058b          	.insn	4, 0x29f9058b
    80003b7e:	088e858b          	.insn	4, 0x088e858b
    80003b82:	48f7058b          	.insn	4, 0x48f7058b
    80003b86:	909693fb          	.insn	4, 0x909693fb
    80003b8a:	f20381d3          	fmv.d.x	ft3,t2
    80003b8e:	02317153          	fadd.d	ft2,ft2,ft3
    80003b92:	06063803          	ld	a6,96(a2)
    80003b96:	6fb2                	ld	t6,264(sp)
    80003b98:	000fb283          	ld	t0,0(t6)
    80003b9c:	06863e03          	ld	t3,104(a2)
    80003ba0:	27013583          	ld	a1,624(sp)
    80003ba4:	0095e713          	ori	a4,a1,9
    80003ba8:	25013583          	ld	a1,592(sp)
    80003bac:	95ba                	add	a1,a1,a4
    80003bae:	f62e                	sd	a1,296(sp)
    80003bb0:	058e                	slli	a1,a1,0x3
    80003bb2:	ea2e                	sd	a1,272(sp)
    80003bb4:	00b50a33          	add	s4,a0,a1
    80003bb8:	000a3483          	ld	s1,0(s4)
    80003bbc:	07063f03          	ld	t5,112(a2)
    80003bc0:	65be                	ld	a1,456(sp)
    80003bc2:	619c                	ld	a5,0(a1)
    80003bc4:	7e2c                	ld	a1,120(a2)
    80003bc6:	0c8e868b          	.insn	4, 0x0c8e868b
    80003bca:	2c5e868b          	.insn	4, 0x2c5e868b
    80003bce:	6dc8068b          	.insn	4, 0x6dc8068b
    80003bd2:	4cf4868b          	.insn	4, 0x4cf4868b
    80003bd6:	d0bf1e7b          	.insn	4, 0xd0bf1e7b
    80003bda:	f20e01d3          	fmv.d.x	ft3,t3
    80003bde:	02317153          	fadd.d	ft2,ft2,ft3
    80003be2:	21813583          	ld	a1,536(sp)
    80003be6:	618c                	ld	a1,0(a1)
    80003be8:	08063283          	ld	t0,128(a2)
    80003bec:	669e                	ld	a3,448(sp)
    80003bee:	629c                	ld	a5,0(a3)
    80003bf0:	6644                	ld	s1,136(a2)
    80003bf2:	76fa                	ld	a3,440(sp)
    80003bf4:	0006b803          	ld	a6,0(a3)
    80003bf8:	6a54                	ld	a3,144(a2)
    80003bfa:	3cf5858b          	.insn	4, 0x3cf5858b
    80003bfe:	23013583          	ld	a1,560(sp)
    80003c02:	e33a                	sd	a4,384(sp)
    80003c04:	95ba                	add	a1,a1,a4
    80003c06:	058e                	slli	a1,a1,0x3
    80003c08:	95aa                	add	a1,a1,a0
    80003c0a:	fb2e                	sd	a1,432(sp)
    80003c0c:	618c                	ld	a1,0(a1)
    80003c0e:	7c92870b          	.insn	4, 0x7c92870b
    80003c12:	6e58                	ld	a4,152(a2)
    80003c14:	1c8e878b          	.insn	4, 0x1c8e878b
    80003c18:	5cb8058b          	.insn	4, 0x5cb8058b
    80003c1c:	d0e695fb          	.insn	4, 0xd0e695fb
    80003c20:	f20581d3          	fmv.d.x	ft3,a1
    80003c24:	02317153          	fadd.d	ft2,ft2,ft3
    80003c28:	75d6                	ld	a1,368(sp)
    80003c2a:	618c                	ld	a1,0(a1)
    80003c2c:	7254                	ld	a3,160(a2)
    80003c2e:	7658                	ld	a4,168(a2)
    80003c30:	67ba                	ld	a5,392(sp)
    80003c32:	639c                	ld	a5,0(a5)
    80003c34:	23813483          	ld	s1,568(sp)
    80003c38:	645a                	ld	s0,400(sp)
    80003c3a:	94a2                	add	s1,s1,s0
    80003c3c:	048e                	slli	s1,s1,0x3
    80003c3e:	94aa                	add	s1,s1,a0
    80003c40:	7ce6868b          	.insn	4, 0x7ce6868b
    80003c44:	eaa6                	sd	s1,336(sp)
    80003c46:	6094                	ld	a3,0(s1)
    80003c48:	7736                	ld	a4,360(sp)
    80003c4a:	6318                	ld	a4,0(a4)
    80003c4c:	5cd7868b          	.insn	4, 0x5cd7868b
    80003c50:	7a54                	ld	a3,176(a2)
    80003c52:	7e5c                	ld	a5,184(a2)
    80003c54:	3ce5885b          	.insn	4, 0x3ce5885b
    80003c58:	d0f695fb          	.insn	4, 0xd0f695fb
    80003c5c:	f20581d3          	fmv.d.x	ft3,a1
    80003c60:	02317153          	fadd.d	ft2,ft2,ft3
    80003c64:	26013583          	ld	a1,608(sp)
    80003c68:	20958593          	addi	a1,a1,521
    80003c6c:	058e                	slli	a1,a1,0x3
    80003c6e:	95aa                	add	a1,a1,a0
    80003c70:	618c                	ld	a1,0(a1)
    80003c72:	6274                	ld	a3,192(a2)
    80003c74:	3c0582db          	.insn	4, 0x3c0582db
    80003c78:	cc0696fb          	.insn	4, 0xcc0696fb
    80003c7c:	f20681d3          	fmv.d.x	ft3,a3
    80003c80:	02317153          	fadd.d	ft2,ft2,ft3
    80003c84:	0118872b          	.insn	4, 0x0118872b
    80003c88:	046305ab          	.insn	4, 0x046305ab
    80003c8c:	0873842b          	.insn	4, 0x0873842b
    80003c90:	a22094d3          	flt.d	s1,ft1,ft2
    80003c94:	0dce07ab          	.insn	4, 0x0dce07ab
    80003c98:	1cd686ab          	.insn	4, 0x1cd686ab
    80003c9c:	c0a9                	beqz	s1,80003cde <bilateral_core+0x1ae4>
    80003c9e:	f20701d3          	fmv.d.x	ft3,a4
    80003ca2:	0201f1d3          	fadd.d	ft3,ft3,ft0
    80003ca6:	f2058253          	fmv.d.x	ft4,a1
    80003caa:	0241f1d3          	fadd.d	ft3,ft3,ft4
    80003cae:	f2040253          	fmv.d.x	ft4,s0
    80003cb2:	0241f1d3          	fadd.d	ft3,ft3,ft4
    80003cb6:	f2078253          	fmv.d.x	ft4,a5
    80003cba:	0241f1d3          	fadd.d	ft3,ft3,ft4
    80003cbe:	f2080253          	fmv.d.x	ft4,a6
    80003cc2:	0241f1d3          	fadd.d	ft3,ft3,ft4
    80003cc6:	f2028253          	fmv.d.x	ft4,t0
    80003cca:	0241f1d3          	fadd.d	ft3,ft3,ft4
    80003cce:	f2068253          	fmv.d.x	ft4,a3
    80003cd2:	0241f1d3          	fadd.d	ft3,ft3,ft4
    80003cd6:	1a21f153          	fdiv.d	ft2,ft3,ft2
    80003cda:	e2010ed3          	fmv.x.d	t4,ft2
    80003cde:	4d81                	li	s11,0
    80003ce0:	4c81                	li	s9,0
    80003ce2:	4b81                	li	s7,0
    80003ce4:	4301                	li	t1,0
    80003ce6:	4c01                	li	s8,0
    80003ce8:	4f01                	li	t5,0
    80003cea:	4981                	li	s3,0
    80003cec:	27813583          	ld	a1,632(sp)
    80003cf0:	7692                	ld	a3,288(sp)
    80003cf2:	95b6                	add	a1,a1,a3
    80003cf4:	01d5b023          	sd	t4,0(a1)
    80003cf8:	000fba83          	ld	s5,0(t6)
    80003cfc:	4f81                	li	t6,0
    80003cfe:	25813483          	ld	s1,600(sp)
    80003d02:	e0a5                	bnez	s1,80003d62 <bilateral_core+0x1b68>
    80003d04:	22013783          	ld	a5,544(sp)
    80003d08:	75ba                	ld	a1,424(sp)
    80003d0a:	00b786b3          	add	a3,a5,a1
    80003d0e:	65fe                	ld	a1,472(sp)
    80003d10:	8eed                	and	a3,a3,a1
    80003d12:	068e                	slli	a3,a3,0x3
    80003d14:	96aa                	add	a3,a3,a0
    80003d16:	0006b303          	ld	t1,0(a3)
    80003d1a:	00063b83          	ld	s7,0(a2)
    80003d1e:	759a                	ld	a1,416(sp)
    80003d20:	00b786b3          	add	a3,a5,a1
    80003d24:	0f7d0713          	addi	a4,s10,247
    80003d28:	8ef9                	and	a3,a3,a4
    80003d2a:	068e                	slli	a3,a3,0x3
    80003d2c:	96aa                	add	a3,a3,a0
    80003d2e:	0006bc03          	ld	s8,0(a3)
    80003d32:	00863f03          	ld	t5,8(a2)
    80003d36:	20813583          	ld	a1,520(sp)
    80003d3a:	66da                	ld	a3,400(sp)
    80003d3c:	96ae                	add	a3,a3,a1
    80003d3e:	068e                	slli	a3,a3,0x3
    80003d40:	96aa                	add	a3,a3,a0
    80003d42:	0006bc83          	ld	s9,0(a3)
    80003d46:	01063d83          	ld	s11,16(a2)
    80003d4a:	659a                	ld	a1,384(sp)
    80003d4c:	00b786b3          	add	a3,a5,a1
    80003d50:	0f9d0713          	addi	a4,s10,249
    80003d54:	8ef9                	and	a3,a3,a4
    80003d56:	068e                	slli	a3,a3,0x3
    80003d58:	96aa                	add	a3,a3,a0
    80003d5a:	0006b983          	ld	s3,0(a3)
    80003d5e:	01863f83          	ld	t6,24(a2)
    80003d62:	4881                	li	a7,0
    80003d64:	4d01                	li	s10,0
    80003d66:	24013783          	ld	a5,576(sp)
    80003d6a:	e09d                	bnez	s1,80003d90 <bilateral_core+0x1b96>
    80003d6c:	27013583          	ld	a1,624(sp)
    80003d70:	00a5e693          	ori	a3,a1,10
    80003d74:	22013583          	ld	a1,544(sp)
    80003d78:	96ae                	add	a3,a3,a1
    80003d7a:	24813583          	ld	a1,584(sp)
    80003d7e:	0fa58713          	addi	a4,a1,250
    80003d82:	8ef9                	and	a3,a3,a4
    80003d84:	068e                	slli	a3,a3,0x3
    80003d86:	96aa                	add	a3,a3,a0
    80003d88:	0006b883          	ld	a7,0(a3)
    80003d8c:	02063d03          	ld	s10,32(a2)
    80003d90:	4e01                	li	t3,0
    80003d92:	4381                	li	t2,0
    80003d94:	4081                	li	ra,0
    80003d96:	4801                	li	a6,0
    80003d98:	4e81                	li	t4,0
    80003d9a:	4481                	li	s1,0
    80003d9c:	e7a1                	bnez	a5,80003de4 <bilateral_core+0x1bea>
    80003d9e:	22813703          	ld	a4,552(sp)
    80003da2:	75ba                	ld	a1,424(sp)
    80003da4:	00b706b3          	add	a3,a4,a1
    80003da8:	65fe                	ld	a1,472(sp)
    80003daa:	8eed                	and	a3,a3,a1
    80003dac:	068e                	slli	a3,a3,0x3
    80003dae:	96aa                	add	a3,a3,a0
    80003db0:	0006b083          	ld	ra,0(a3)
    80003db4:	02863803          	ld	a6,40(a2)
    80003db8:	759a                	ld	a1,416(sp)
    80003dba:	00b706b3          	add	a3,a4,a1
    80003dbe:	24813583          	ld	a1,584(sp)
    80003dc2:	0f758713          	addi	a4,a1,247
    80003dc6:	8ef9                	and	a3,a3,a4
    80003dc8:	068e                	slli	a3,a3,0x3
    80003dca:	96aa                	add	a3,a3,a0
    80003dcc:	0006b383          	ld	t2,0(a3)
    80003dd0:	03063e03          	ld	t3,48(a2)
    80003dd4:	65fa                	ld	a1,408(sp)
    80003dd6:	66da                	ld	a3,400(sp)
    80003dd8:	96ae                	add	a3,a3,a1
    80003dda:	068e                	slli	a3,a3,0x3
    80003ddc:	96aa                	add	a3,a3,a0
    80003dde:	0006be83          	ld	t4,0(a3)
    80003de2:	7e04                	ld	s1,56(a2)
    80003de4:	4901                	li	s2,0
    80003de6:	4281                	li	t0,0
    80003de8:	4701                	li	a4,0
    80003dea:	4401                	li	s0,0
    80003dec:	ef8d                	bnez	a5,80003e26 <bilateral_core+0x1c2c>
    80003dee:	22813683          	ld	a3,552(sp)
    80003df2:	659a                	ld	a1,384(sp)
    80003df4:	00b68733          	add	a4,a3,a1
    80003df8:	24813583          	ld	a1,584(sp)
    80003dfc:	0f958793          	addi	a5,a1,249
    80003e00:	8f7d                	and	a4,a4,a5
    80003e02:	070e                	slli	a4,a4,0x3
    80003e04:	972a                	add	a4,a4,a0
    80003e06:	00073283          	ld	t0,0(a4)
    80003e0a:	04063903          	ld	s2,64(a2)
    80003e0e:	27013703          	ld	a4,624(sp)
    80003e12:	00a76713          	ori	a4,a4,10
    80003e16:	9736                	add	a4,a4,a3
    80003e18:	0fa58413          	addi	s0,a1,250
    80003e1c:	8f61                	and	a4,a4,s0
    80003e1e:	070e                	slli	a4,a4,0x3
    80003e20:	972a                	add	a4,a4,a0
    80003e22:	6318                	ld	a4,0(a4)
    80003e24:	6620                	ld	s0,72(a2)
    80003e26:	81fd868b          	.insn	4, 0x81fd868b
    80003e2a:	61eb868b          	.insn	4, 0x61eb868b
    80003e2e:	413c868b          	.insn	4, 0x413c868b
    80003e32:	2183068b          	.insn	4, 0x2183068b
    80003e36:	28013583          	ld	a1,640(sp)
    80003e3a:	00ba9f7b          	.insn	4, 0x00ba9f7b
    80003e3e:	f20f0153          	fmv.d.x	ft2,t5
    80003e42:	02017153          	fadd.d	ft2,ft2,ft0
    80003e46:	849e068b          	.insn	4, 0x849e068b
    80003e4a:	650d068b          	.insn	4, 0x650d068b
    80003e4e:	45d3868b          	.insn	4, 0x45d3868b
    80003e52:	2418868b          	.insn	4, 0x2418868b
    80003e56:	40ba93fb          	.insn	4, 0x40ba93fb
    80003e5a:	f20381d3          	fmv.d.x	ft3,t2
    80003e5e:	02317153          	fadd.d	ft2,ft2,ft3
    80003e62:	000b3483          	ld	s1,0(s6)
    80003e66:	05063803          	ld	a6,80(a2)
    80003e6a:	24813e83          	ld	t4,584(sp)
    80003e6e:	0f7e8693          	addi	a3,t4,247
    80003e72:	ebb6                	sd	a3,464(sp)
    80003e74:	6796                	ld	a5,320(sp)
    80003e76:	8ff5                	and	a5,a5,a3
    80003e78:	078e                	slli	a5,a5,0x3
    80003e7a:	00f50333          	add	t1,a0,a5
    80003e7e:	00033783          	ld	a5,0(t1)
    80003e82:	6e34                	ld	a3,88(a2)
    80003e84:	6889040b          	.insn	4, 0x6889040b
    80003e88:	28e2870b          	.insn	4, 0x28e2870b
    80003e8c:	08ba870b          	.insn	4, 0x08ba870b
    80003e90:	48f4870b          	.insn	4, 0x48f4870b
    80003e94:	90d812fb          	.insn	4, 0x90d812fb
    80003e98:	f20281d3          	fmv.d.x	ft3,t0
    80003e9c:	02317153          	fadd.d	ft2,ft2,ft3
    80003ea0:	06063803          	ld	a6,96(a2)
    80003ea4:	000a3883          	ld	a7,0(s4)
    80003ea8:	06863e03          	ld	t3,104(a2)
    80003eac:	27013683          	ld	a3,624(sp)
    80003eb0:	00a6e713          	ori	a4,a3,10
    80003eb4:	25013683          	ld	a3,592(sp)
    80003eb8:	96ba                	add	a3,a3,a4
    80003eba:	f236                	sd	a3,288(sp)
    80003ebc:	068e                	slli	a3,a3,0x3
    80003ebe:	e636                	sd	a3,264(sp)
    80003ec0:	00d50bb3          	add	s7,a0,a3
    80003ec4:	000bbf83          	ld	t6,0(s7)
    80003ec8:	7a20                	ld	s0,112(a2)
    80003eca:	21813683          	ld	a3,536(sp)
    80003ece:	6284                	ld	s1,0(a3)
    80003ed0:	7e3c                	ld	a5,120(a2)
    80003ed2:	0cba868b          	.insn	4, 0x0cba868b
    80003ed6:	2d1a868b          	.insn	4, 0x2d1a868b
    80003eda:	6dc8068b          	.insn	4, 0x6dc8068b
    80003ede:	4c9f868b          	.insn	4, 0x4c9f868b
    80003ee2:	d0f41e7b          	.insn	4, 0xd0f41e7b
    80003ee6:	f20e01d3          	fmv.d.x	ft3,t3
    80003eea:	02317153          	fadd.d	ft2,ft2,ft3
    80003eee:	669e                	ld	a3,448(sp)
    80003ef0:	6294                	ld	a3,0(a3)
    80003ef2:	08063883          	ld	a7,128(a2)
    80003ef6:	77fa                	ld	a5,440(sp)
    80003ef8:	639c                	ld	a5,0(a5)
    80003efa:	6644                	ld	s1,136(a2)
    80003efc:	745a                	ld	s0,432(sp)
    80003efe:	00043803          	ld	a6,0(s0)
    80003f02:	6a40                	ld	s0,144(a2)
    80003f04:	3cf6868b          	.insn	4, 0x3cf6868b
    80003f08:	23013683          	ld	a3,560(sp)
    80003f0c:	f73a                	sd	a4,424(sp)
    80003f0e:	96ba                	add	a3,a3,a4
    80003f10:	068e                	slli	a3,a3,0x3
    80003f12:	96aa                	add	a3,a3,a0
    80003f14:	20d13c23          	sd	a3,536(sp)
    80003f18:	6294                	ld	a3,0(a3)
    80003f1a:	7c98870b          	.insn	4, 0x7c98870b
    80003f1e:	6e58                	ld	a4,152(a2)
    80003f20:	1cba878b          	.insn	4, 0x1cba878b
    80003f24:	5cd8068b          	.insn	4, 0x5cd8068b
    80003f28:	d0e415fb          	.insn	4, 0xd0e415fb
    80003f2c:	f20581d3          	fmv.d.x	ft3,a1
    80003f30:	02317153          	fadd.d	ft2,ft2,ft3
    80003f34:	75b6                	ld	a1,360(sp)
    80003f36:	618c                	ld	a1,0(a1)
    80003f38:	7254                	ld	a3,160(a2)
    80003f3a:	7658                	ld	a4,168(a2)
    80003f3c:	67d6                	ld	a5,336(sp)
    80003f3e:	639c                	ld	a5,0(a5)
    80003f40:	23813483          	ld	s1,568(sp)
    80003f44:	641a                	ld	s0,384(sp)
    80003f46:	94a2                	add	s1,s1,s0
    80003f48:	048e                	slli	s1,s1,0x3
    80003f4a:	94aa                	add	s1,s1,a0
    80003f4c:	7ce6868b          	.insn	4, 0x7ce6868b
    80003f50:	e6a6                	sd	s1,328(sp)
    80003f52:	6094                	ld	a3,0(s1)
    80003f54:	673a                	ld	a4,392(sp)
    80003f56:	6318                	ld	a4,0(a4)
    80003f58:	5cd7868b          	.insn	4, 0x5cd7868b
    80003f5c:	7a54                	ld	a3,176(a2)
    80003f5e:	7e5c                	ld	a5,184(a2)
    80003f60:	3ce5885b          	.insn	4, 0x3ce5885b
    80003f64:	d0f695fb          	.insn	4, 0xd0f695fb
    80003f68:	f20581d3          	fmv.d.x	ft3,a1
    80003f6c:	02317153          	fadd.d	ft2,ft2,ft3
    80003f70:	26013583          	ld	a1,608(sp)
    80003f74:	20a58593          	addi	a1,a1,522
    80003f78:	058e                	slli	a1,a1,0x3
    80003f7a:	95aa                	add	a1,a1,a0
    80003f7c:	618c                	ld	a1,0(a1)
    80003f7e:	6274                	ld	a3,192(a2)
    80003f80:	3c0588db          	.insn	4, 0x3c0588db
    80003f84:	cc0695fb          	.insn	4, 0xcc0695fb
    80003f88:	f20581d3          	fmv.d.x	ft3,a1
    80003f8c:	02317153          	fadd.d	ft2,ft2,ft3
    80003f90:	01ef07ab          	.insn	4, 0x01ef07ab
    80003f94:	0473872b          	.insn	4, 0x0473872b
    80003f98:	0852842b          	.insn	4, 0x0852842b
    80003f9c:	a22096d3          	flt.d	a3,ft1,ft2
    80003fa0:	0dce04ab          	.insn	4, 0x0dce04ab
    80003fa4:	1cb585ab          	.insn	4, 0x1cb585ab
    80003fa8:	c2a9                	beqz	a3,80003fea <bilateral_core+0x1df0>
    80003faa:	f20781d3          	fmv.d.x	ft3,a5
    80003fae:	0201f1d3          	fadd.d	ft3,ft3,ft0
    80003fb2:	f2070253          	fmv.d.x	ft4,a4
    80003fb6:	0241f1d3          	fadd.d	ft3,ft3,ft4
    80003fba:	f2040253          	fmv.d.x	ft4,s0
    80003fbe:	0241f1d3          	fadd.d	ft3,ft3,ft4
    80003fc2:	f2048253          	fmv.d.x	ft4,s1
    80003fc6:	0241f1d3          	fadd.d	ft3,ft3,ft4
    80003fca:	f2080253          	fmv.d.x	ft4,a6
    80003fce:	0241f1d3          	fadd.d	ft3,ft3,ft4
    80003fd2:	f2088253          	fmv.d.x	ft4,a7
    80003fd6:	0241f1d3          	fadd.d	ft3,ft3,ft4
    80003fda:	f2058253          	fmv.d.x	ft4,a1
    80003fde:	0241f1d3          	fadd.d	ft3,ft3,ft4
    80003fe2:	1a21f153          	fdiv.d	ft2,ft3,ft2
    80003fe6:	e2010ad3          	fmv.x.d	s5,ft2
    80003fea:	4081                	li	ra,0
    80003fec:	4f01                	li	t5,0
    80003fee:	4b01                	li	s6,0
    80003ff0:	4e01                	li	t3,0
    80003ff2:	4c01                	li	s8,0
    80003ff4:	4d81                	li	s11,0
    80003ff6:	4881                	li	a7,0
    80003ff8:	27813583          	ld	a1,632(sp)
    80003ffc:	66f2                	ld	a3,280(sp)
    80003ffe:	95b6                	add	a1,a1,a3
    80004000:	0155b023          	sd	s5,0(a1)
    80004004:	000a3a83          	ld	s5,0(s4)
    80004008:	4a01                	li	s4,0
    8000400a:	25813483          	ld	s1,600(sp)
    8000400e:	e0a5                	bnez	s1,8000406e <bilateral_core+0x1e74>
    80004010:	22013783          	ld	a5,544(sp)
    80004014:	759a                	ld	a1,416(sp)
    80004016:	00b786b3          	add	a3,a5,a1
    8000401a:	65de                	ld	a1,464(sp)
    8000401c:	8eed                	and	a3,a3,a1
    8000401e:	068e                	slli	a3,a3,0x3
    80004020:	96aa                	add	a3,a3,a0
    80004022:	0006be03          	ld	t3,0(a3)
    80004026:	00063b03          	ld	s6,0(a2)
    8000402a:	65da                	ld	a1,400(sp)
    8000402c:	00b786b3          	add	a3,a5,a1
    80004030:	0f8e8713          	addi	a4,t4,248
    80004034:	8ef9                	and	a3,a3,a4
    80004036:	068e                	slli	a3,a3,0x3
    80004038:	96aa                	add	a3,a3,a0
    8000403a:	0006bc03          	ld	s8,0(a3)
    8000403e:	00863d83          	ld	s11,8(a2)
    80004042:	20813583          	ld	a1,520(sp)
    80004046:	669a                	ld	a3,384(sp)
    80004048:	96ae                	add	a3,a3,a1
    8000404a:	068e                	slli	a3,a3,0x3
    8000404c:	96aa                	add	a3,a3,a0
    8000404e:	0006bf03          	ld	t5,0(a3)
    80004052:	01063083          	ld	ra,16(a2)
    80004056:	75ba                	ld	a1,424(sp)
    80004058:	00b786b3          	add	a3,a5,a1
    8000405c:	0fae8713          	addi	a4,t4,250
    80004060:	8ef9                	and	a3,a3,a4
    80004062:	068e                	slli	a3,a3,0x3
    80004064:	96aa                	add	a3,a3,a0
    80004066:	0006b883          	ld	a7,0(a3)
    8000406a:	01863a03          	ld	s4,24(a2)
    8000406e:	4981                	li	s3,0
    80004070:	4d01                	li	s10,0
    80004072:	24013783          	ld	a5,576(sp)
    80004076:	e09d                	bnez	s1,8000409c <bilateral_core+0x1ea2>
    80004078:	27013583          	ld	a1,624(sp)
    8000407c:	00b5e693          	ori	a3,a1,11
    80004080:	22013583          	ld	a1,544(sp)
    80004084:	96ae                	add	a3,a3,a1
    80004086:	24813583          	ld	a1,584(sp)
    8000408a:	0fb58713          	addi	a4,a1,251
    8000408e:	8ef9                	and	a3,a3,a4
    80004090:	068e                	slli	a3,a3,0x3
    80004092:	96aa                	add	a3,a3,a0
    80004094:	0006b983          	ld	s3,0(a3)
    80004098:	02063d03          	ld	s10,32(a2)
    8000409c:	4f81                	li	t6,0
    8000409e:	4381                	li	t2,0
    800040a0:	4801                	li	a6,0
    800040a2:	4c81                	li	s9,0
    800040a4:	4281                	li	t0,0
    800040a6:	4481                	li	s1,0
    800040a8:	e7a1                	bnez	a5,800040f0 <bilateral_core+0x1ef6>
    800040aa:	22813703          	ld	a4,552(sp)
    800040ae:	759a                	ld	a1,416(sp)
    800040b0:	00b706b3          	add	a3,a4,a1
    800040b4:	65de                	ld	a1,464(sp)
    800040b6:	8eed                	and	a3,a3,a1
    800040b8:	068e                	slli	a3,a3,0x3
    800040ba:	96aa                	add	a3,a3,a0
    800040bc:	0006b803          	ld	a6,0(a3)
    800040c0:	02863c83          	ld	s9,40(a2)
    800040c4:	65da                	ld	a1,400(sp)
    800040c6:	00b706b3          	add	a3,a4,a1
    800040ca:	24813583          	ld	a1,584(sp)
    800040ce:	0f858713          	addi	a4,a1,248
    800040d2:	8ef9                	and	a3,a3,a4
    800040d4:	068e                	slli	a3,a3,0x3
    800040d6:	96aa                	add	a3,a3,a0
    800040d8:	0006b383          	ld	t2,0(a3)
    800040dc:	03063f83          	ld	t6,48(a2)
    800040e0:	65fa                	ld	a1,408(sp)
    800040e2:	669a                	ld	a3,384(sp)
    800040e4:	96ae                	add	a3,a3,a1
    800040e6:	068e                	slli	a3,a3,0x3
    800040e8:	96aa                	add	a3,a3,a0
    800040ea:	0006b283          	ld	t0,0(a3)
    800040ee:	7e04                	ld	s1,56(a2)
    800040f0:	4e81                	li	t4,0
    800040f2:	4901                	li	s2,0
    800040f4:	4701                	li	a4,0
    800040f6:	4401                	li	s0,0
    800040f8:	ef8d                	bnez	a5,80004132 <bilateral_core+0x1f38>
    800040fa:	22813683          	ld	a3,552(sp)
    800040fe:	75ba                	ld	a1,424(sp)
    80004100:	00b68733          	add	a4,a3,a1
    80004104:	24813583          	ld	a1,584(sp)
    80004108:	0fa58793          	addi	a5,a1,250
    8000410c:	8f7d                	and	a4,a4,a5
    8000410e:	070e                	slli	a4,a4,0x3
    80004110:	972a                	add	a4,a4,a0
    80004112:	00073903          	ld	s2,0(a4)
    80004116:	04063e83          	ld	t4,64(a2)
    8000411a:	27013703          	ld	a4,624(sp)
    8000411e:	00b76713          	ori	a4,a4,11
    80004122:	9736                	add	a4,a4,a3
    80004124:	0fb58413          	addi	s0,a1,251
    80004128:	8f61                	and	a4,a4,s0
    8000412a:	070e                	slli	a4,a4,0x3
    8000412c:	972a                	add	a4,a4,a0
    8000412e:	6318                	ld	a4,0(a4)
    80004130:	6620                	ld	s0,72(a2)
    80004132:	8140868b          	.insn	4, 0x8140868b
    80004136:	61bb068b          	.insn	4, 0x61bb068b
    8000413a:	411f068b          	.insn	4, 0x411f068b
    8000413e:	218e068b          	.insn	4, 0x218e068b
    80004142:	28013583          	ld	a1,640(sp)
    80004146:	00ba98fb          	.insn	4, 0x00ba98fb
    8000414a:	f2088153          	fmv.d.x	ft2,a7
    8000414e:	02017153          	fadd.d	ft2,ft2,ft0
    80004152:	849f868b          	.insn	4, 0x849f868b
    80004156:	659d068b          	.insn	4, 0x659d068b
    8000415a:	4453868b          	.insn	4, 0x4453868b
    8000415e:	2509868b          	.insn	4, 0x2509868b
    80004162:	40ba93fb          	.insn	4, 0x40ba93fb
    80004166:	f20381d3          	fmv.d.x	ft3,t2
    8000416a:	02317153          	fadd.d	ft2,ft2,ft3
    8000416e:	00033483          	ld	s1,0(t1)
    80004172:	05063803          	ld	a6,80(a2)
    80004176:	24813f83          	ld	t6,584(sp)
    8000417a:	0f8f8693          	addi	a3,t6,248
    8000417e:	e7b6                	sd	a3,456(sp)
    80004180:	77d2                	ld	a5,304(sp)
    80004182:	8ff5                	and	a5,a5,a3
    80004184:	078e                	slli	a5,a5,0x3
    80004186:	00f50333          	add	t1,a0,a5
    8000418a:	00033783          	ld	a5,0(t1)
    8000418e:	6e34                	ld	a3,88(a2)
    80004190:	688e840b          	.insn	4, 0x688e840b
    80004194:	28e9070b          	.insn	4, 0x28e9070b
    80004198:	08ba870b          	.insn	4, 0x08ba870b
    8000419c:	48f4870b          	.insn	4, 0x48f4870b
    800041a0:	90d81e7b          	.insn	4, 0x90d81e7b
    800041a4:	f20e01d3          	fmv.d.x	ft3,t3
    800041a8:	02317153          	fadd.d	ft2,ft2,ft3
    800041ac:	06063803          	ld	a6,96(a2)
    800041b0:	000bb283          	ld	t0,0(s7)
    800041b4:	06863e83          	ld	t4,104(a2)
    800041b8:	27013683          	ld	a3,624(sp)
    800041bc:	00b6e713          	ori	a4,a3,11
    800041c0:	25013683          	ld	a3,592(sp)
    800041c4:	96ba                	add	a3,a3,a4
    800041c6:	fa36                	sd	a3,304(sp)
    800041c8:	068e                	slli	a3,a3,0x3
    800041ca:	ee36                	sd	a3,280(sp)
    800041cc:	00d50933          	add	s2,a0,a3
    800041d0:	00093f03          	ld	t5,0(s2)
    800041d4:	7a20                	ld	s0,112(a2)
    800041d6:	669e                	ld	a3,448(sp)
    800041d8:	6284                	ld	s1,0(a3)
    800041da:	7e3c                	ld	a5,120(a2)
    800041dc:	0cba868b          	.insn	4, 0x0cba868b
    800041e0:	2c5a868b          	.insn	4, 0x2c5a868b
    800041e4:	6dd8068b          	.insn	4, 0x6dd8068b
    800041e8:	4c9f068b          	.insn	4, 0x4c9f068b
    800041ec:	d0f41efb          	.insn	4, 0xd0f41efb
    800041f0:	f20e81d3          	fmv.d.x	ft3,t4
    800041f4:	02317153          	fadd.d	ft2,ft2,ft3
    800041f8:	76fa                	ld	a3,440(sp)
    800041fa:	6294                	ld	a3,0(a3)
    800041fc:	08063283          	ld	t0,128(a2)
    80004200:	77da                	ld	a5,432(sp)
    80004202:	639c                	ld	a5,0(a5)
    80004204:	6644                	ld	s1,136(a2)
    80004206:	21813403          	ld	s0,536(sp)
    8000420a:	00043803          	ld	a6,0(s0)
    8000420e:	6a40                	ld	s0,144(a2)
    80004210:	3cf6868b          	.insn	4, 0x3cf6868b
    80004214:	23013683          	ld	a3,560(sp)
    80004218:	f6ba                	sd	a4,360(sp)
    8000421a:	96ba                	add	a3,a3,a4
    8000421c:	068e                	slli	a3,a3,0x3
    8000421e:	96aa                	add	a3,a3,a0
    80004220:	f336                	sd	a3,416(sp)
    80004222:	6294                	ld	a3,0(a3)
    80004224:	7c92870b          	.insn	4, 0x7c92870b
    80004228:	6e58                	ld	a4,152(a2)
    8000422a:	1cba878b          	.insn	4, 0x1cba878b
    8000422e:	5cd8068b          	.insn	4, 0x5cd8068b
    80004232:	d0e415fb          	.insn	4, 0xd0e415fb
    80004236:	f20581d3          	fmv.d.x	ft3,a1
    8000423a:	02317153          	fadd.d	ft2,ft2,ft3
    8000423e:	65ba                	ld	a1,392(sp)
    80004240:	618c                	ld	a1,0(a1)
    80004242:	7254                	ld	a3,160(a2)
    80004244:	7658                	ld	a4,168(a2)
    80004246:	67b6                	ld	a5,328(sp)
    80004248:	639c                	ld	a5,0(a5)
    8000424a:	23813483          	ld	s1,568(sp)
    8000424e:	743a                	ld	s0,424(sp)
    80004250:	94a2                	add	s1,s1,s0
    80004252:	048e                	slli	s1,s1,0x3
    80004254:	94aa                	add	s1,s1,a0
    80004256:	7ce6868b          	.insn	4, 0x7ce6868b
    8000425a:	e2a6                	sd	s1,320(sp)
    8000425c:	6094                	ld	a3,0(s1)
    8000425e:	6756                	ld	a4,336(sp)
    80004260:	6318                	ld	a4,0(a4)
    80004262:	5cd7868b          	.insn	4, 0x5cd7868b
    80004266:	7a54                	ld	a3,176(a2)
    80004268:	7e5c                	ld	a5,184(a2)
    8000426a:	3ce5885b          	.insn	4, 0x3ce5885b
    8000426e:	d0f695fb          	.insn	4, 0xd0f695fb
    80004272:	f20581d3          	fmv.d.x	ft3,a1
    80004276:	02317153          	fadd.d	ft2,ft2,ft3
    8000427a:	26013583          	ld	a1,608(sp)
    8000427e:	20b58593          	addi	a1,a1,523
    80004282:	058e                	slli	a1,a1,0x3
    80004284:	95aa                	add	a1,a1,a0
    80004286:	618c                	ld	a1,0(a1)
    80004288:	6274                	ld	a3,192(a2)
    8000428a:	3c0582db          	.insn	4, 0x3c0582db
    8000428e:	cc0695fb          	.insn	4, 0xcc0695fb
    80004292:	f20581d3          	fmv.d.x	ft3,a1
    80004296:	02317153          	fadd.d	ft2,ft2,ft3
    8000429a:	011887ab          	.insn	4, 0x011887ab
    8000429e:	0473872b          	.insn	4, 0x0473872b
    800042a2:	09ce042b          	.insn	4, 0x09ce042b
    800042a6:	a22096d3          	flt.d	a3,ft1,ft2
    800042aa:	0dde84ab          	.insn	4, 0x0dde84ab
    800042ae:	1cb585ab          	.insn	4, 0x1cb585ab
    800042b2:	c2a9                	beqz	a3,800042f4 <bilateral_core+0x20fa>
    800042b4:	f20781d3          	fmv.d.x	ft3,a5
    800042b8:	0201f1d3          	fadd.d	ft3,ft3,ft0
    800042bc:	f2070253          	fmv.d.x	ft4,a4
    800042c0:	0241f1d3          	fadd.d	ft3,ft3,ft4
    800042c4:	f2040253          	fmv.d.x	ft4,s0
    800042c8:	0241f1d3          	fadd.d	ft3,ft3,ft4
    800042cc:	f2048253          	fmv.d.x	ft4,s1
    800042d0:	0241f1d3          	fadd.d	ft3,ft3,ft4
    800042d4:	f2080253          	fmv.d.x	ft4,a6
    800042d8:	0241f1d3          	fadd.d	ft3,ft3,ft4
    800042dc:	f2028253          	fmv.d.x	ft4,t0
    800042e0:	0241f1d3          	fadd.d	ft3,ft3,ft4
    800042e4:	f2058253          	fmv.d.x	ft4,a1
    800042e8:	0241f1d3          	fadd.d	ft3,ft3,ft4
    800042ec:	1a21f153          	fdiv.d	ft2,ft3,ft2
    800042f0:	e2010ad3          	fmv.x.d	s5,ft2
    800042f4:	4881                	li	a7,0
    800042f6:	4c01                	li	s8,0
    800042f8:	4a01                	li	s4,0
    800042fa:	4e01                	li	t3,0
    800042fc:	4b01                	li	s6,0
    800042fe:	4d81                	li	s11,0
    80004300:	4f01                	li	t5,0
    80004302:	27813583          	ld	a1,632(sp)
    80004306:	66d2                	ld	a3,272(sp)
    80004308:	95b6                	add	a1,a1,a3
    8000430a:	0155b023          	sd	s5,0(a1)
    8000430e:	000bb083          	ld	ra,0(s7)
    80004312:	4b81                	li	s7,0
    80004314:	25813703          	ld	a4,600(sp)
    80004318:	ef29                	bnez	a4,80004372 <bilateral_core+0x2178>
    8000431a:	22013783          	ld	a5,544(sp)
    8000431e:	65da                	ld	a1,400(sp)
    80004320:	95be                	add	a1,a1,a5
    80004322:	66be                	ld	a3,456(sp)
    80004324:	8df5                	and	a1,a1,a3
    80004326:	058e                	slli	a1,a1,0x3
    80004328:	95aa                	add	a1,a1,a0
    8000432a:	0005be03          	ld	t3,0(a1)
    8000432e:	00063a03          	ld	s4,0(a2)
    80004332:	659a                	ld	a1,384(sp)
    80004334:	95be                	add	a1,a1,a5
    80004336:	0f9f8693          	addi	a3,t6,249
    8000433a:	8df5                	and	a1,a1,a3
    8000433c:	058e                	slli	a1,a1,0x3
    8000433e:	95aa                	add	a1,a1,a0
    80004340:	0005bb03          	ld	s6,0(a1)
    80004344:	00863d83          	ld	s11,8(a2)
    80004348:	20813583          	ld	a1,520(sp)
    8000434c:	76ba                	ld	a3,424(sp)
    8000434e:	95b6                	add	a1,a1,a3
    80004350:	058e                	slli	a1,a1,0x3
    80004352:	95aa                	add	a1,a1,a0
    80004354:	0005bc03          	ld	s8,0(a1)
    80004358:	01063883          	ld	a7,16(a2)
    8000435c:	75b6                	ld	a1,360(sp)
    8000435e:	95be                	add	a1,a1,a5
    80004360:	0fbf8693          	addi	a3,t6,251
    80004364:	8df5                	and	a1,a1,a3
    80004366:	058e                	slli	a1,a1,0x3
    80004368:	95aa                	add	a1,a1,a0
    8000436a:	0005bf03          	ld	t5,0(a1)
    8000436e:	01863b83          	ld	s7,24(a2)
    80004372:	4981                	li	s3,0
    80004374:	4d01                	li	s10,0
    80004376:	24013783          	ld	a5,576(sp)
    8000437a:	e31d                	bnez	a4,800043a0 <bilateral_core+0x21a6>
    8000437c:	27013583          	ld	a1,624(sp)
    80004380:	00c5e593          	ori	a1,a1,12
    80004384:	22013683          	ld	a3,544(sp)
    80004388:	95b6                	add	a1,a1,a3
    8000438a:	24813683          	ld	a3,584(sp)
    8000438e:	0fc68693          	addi	a3,a3,252
    80004392:	8df5                	and	a1,a1,a3
    80004394:	058e                	slli	a1,a1,0x3
    80004396:	95aa                	add	a1,a1,a0
    80004398:	0005b983          	ld	s3,0(a1)
    8000439c:	02063d03          	ld	s10,32(a2)
    800043a0:	ea4a                	sd	s2,272(sp)
    800043a2:	4281                	li	t0,0
    800043a4:	4f81                	li	t6,0
    800043a6:	4801                	li	a6,0
    800043a8:	4c81                	li	s9,0
    800043aa:	4681                	li	a3,0
    800043ac:	4381                	li	t2,0
    800043ae:	e3b1                	bnez	a5,800043f2 <bilateral_core+0x21f8>
    800043b0:	22813703          	ld	a4,552(sp)
    800043b4:	65da                	ld	a1,400(sp)
    800043b6:	95ba                	add	a1,a1,a4
    800043b8:	66be                	ld	a3,456(sp)
    800043ba:	8df5                	and	a1,a1,a3
    800043bc:	058e                	slli	a1,a1,0x3
    800043be:	95aa                	add	a1,a1,a0
    800043c0:	0005b803          	ld	a6,0(a1)
    800043c4:	02863c83          	ld	s9,40(a2)
    800043c8:	659a                	ld	a1,384(sp)
    800043ca:	95ba                	add	a1,a1,a4
    800043cc:	24813683          	ld	a3,584(sp)
    800043d0:	0f968693          	addi	a3,a3,249
    800043d4:	8df5                	and	a1,a1,a3
    800043d6:	058e                	slli	a1,a1,0x3
    800043d8:	95aa                	add	a1,a1,a0
    800043da:	0005bf83          	ld	t6,0(a1)
    800043de:	03063283          	ld	t0,48(a2)
    800043e2:	65fa                	ld	a1,408(sp)
    800043e4:	76ba                	ld	a3,424(sp)
    800043e6:	95b6                	add	a1,a1,a3
    800043e8:	058e                	slli	a1,a1,0x3
    800043ea:	95aa                	add	a1,a1,a0
    800043ec:	6194                	ld	a3,0(a1)
    800043ee:	03863383          	ld	t2,56(a2)
    800043f2:	4a81                	li	s5,0
    800043f4:	4e81                	li	t4,0
    800043f6:	4901                	li	s2,0
    800043f8:	4701                	li	a4,0
    800043fa:	ef8d                	bnez	a5,80004434 <bilateral_core+0x223a>
    800043fc:	22813403          	ld	s0,552(sp)
    80004400:	75b6                	ld	a1,360(sp)
    80004402:	95a2                	add	a1,a1,s0
    80004404:	24813783          	ld	a5,584(sp)
    80004408:	0fb78713          	addi	a4,a5,251
    8000440c:	8df9                	and	a1,a1,a4
    8000440e:	058e                	slli	a1,a1,0x3
    80004410:	95aa                	add	a1,a1,a0
    80004412:	0005be83          	ld	t4,0(a1)
    80004416:	04063a83          	ld	s5,64(a2)
    8000441a:	27013583          	ld	a1,624(sp)
    8000441e:	00c5e713          	ori	a4,a1,12
    80004422:	9722                	add	a4,a4,s0
    80004424:	0fc78793          	addi	a5,a5,252
    80004428:	8f7d                	and	a4,a4,a5
    8000442a:	070e                	slli	a4,a4,0x3
    8000442c:	972a                	add	a4,a4,a0
    8000442e:	00073903          	ld	s2,0(a4)
    80004432:	6638                	ld	a4,72(a2)
    80004434:	8178840b          	.insn	4, 0x8178840b
    80004438:	61ba040b          	.insn	4, 0x61ba040b
    8000443c:	41ec040b          	.insn	4, 0x41ec040b
    80004440:	216e040b          	.insn	4, 0x216e040b
    80004444:	28013783          	ld	a5,640(sp)
    80004448:	00f098fb          	.insn	4, 0x00f098fb
    8000444c:	f2088153          	fmv.d.x	ft2,a7
    80004450:	02017153          	fadd.d	ft2,ft2,ft0
    80004454:	8472840b          	.insn	4, 0x8472840b
    80004458:	659d040b          	.insn	4, 0x659d040b
    8000445c:	44df868b          	.insn	4, 0x44df868b
    80004460:	2509868b          	.insn	4, 0x2509868b
    80004464:	40f093fb          	.insn	4, 0x40f093fb
    80004468:	f20381d3          	fmv.d.x	ft3,t2
    8000446c:	02317153          	fadd.d	ft2,ft2,ft3
    80004470:	00033403          	ld	s0,0(t1)
    80004474:	6a34                	ld	a3,80(a2)
    80004476:	24813f83          	ld	t6,584(sp)
    8000447a:	0f9f8593          	addi	a1,t6,249
    8000447e:	e3ae                	sd	a1,448(sp)
    80004480:	74b2                	ld	s1,296(sp)
    80004482:	8de5                	and	a1,a1,s1
    80004484:	058e                	slli	a1,a1,0x3
    80004486:	00b50a33          	add	s4,a0,a1
    8000448a:	000a3583          	ld	a1,0(s4)
    8000448e:	6e24                	ld	s1,88(a2)
    80004490:	68ea870b          	.insn	4, 0x68ea870b
    80004494:	292e870b          	.insn	4, 0x292e870b
    80004498:	08f0870b          	.insn	4, 0x08f0870b
    8000449c:	48b4058b          	.insn	4, 0x48b4058b
    800044a0:	9096937b          	.insn	4, 0x9096937b
    800044a4:	f20301d3          	fmv.d.x	ft3,t1
    800044a8:	02317153          	fadd.d	ft2,ft2,ft3
    800044ac:	06063803          	ld	a6,96(a2)
    800044b0:	6952                	ld	s2,272(sp)
    800044b2:	00093283          	ld	t0,0(s2)
    800044b6:	06863e03          	ld	t3,104(a2)
    800044ba:	27013583          	ld	a1,624(sp)
    800044be:	00c5e413          	ori	s0,a1,12
    800044c2:	25013583          	ld	a1,592(sp)
    800044c6:	95a2                	add	a1,a1,s0
    800044c8:	f62e                	sd	a1,296(sp)
    800044ca:	058e                	slli	a1,a1,0x3
    800044cc:	e22e                	sd	a1,256(sp)
    800044ce:	00b50eb3          	add	t4,a0,a1
    800044d2:	000eb483          	ld	s1,0(t4)
    800044d6:	07063f03          	ld	t5,112(a2)
    800044da:	75fa                	ld	a1,440(sp)
    800044dc:	6198                	ld	a4,0(a1)
    800044de:	7e2c                	ld	a1,120(a2)
    800044e0:	0cf0868b          	.insn	4, 0x0cf0868b
    800044e4:	2c50868b          	.insn	4, 0x2c50868b
    800044e8:	6dc8068b          	.insn	4, 0x6dc8068b
    800044ec:	4ce4868b          	.insn	4, 0x4ce4868b
    800044f0:	d0bf1f7b          	.insn	4, 0xd0bf1f7b
    800044f4:	f20f01d3          	fmv.d.x	ft3,t5
    800044f8:	02317153          	fadd.d	ft2,ft2,ft3
    800044fc:	75da                	ld	a1,432(sp)
    800044fe:	618c                	ld	a1,0(a1)
    80004500:	08063803          	ld	a6,128(a2)
    80004504:	21813683          	ld	a3,536(sp)
    80004508:	6298                	ld	a4,0(a3)
    8000450a:	6644                	ld	s1,136(a2)
    8000450c:	769a                	ld	a3,416(sp)
    8000450e:	0006b283          	ld	t0,0(a3)
    80004512:	6a54                	ld	a3,144(a2)
    80004514:	3ce5858b          	.insn	4, 0x3ce5858b
    80004518:	23013583          	ld	a1,560(sp)
    8000451c:	faa2                	sd	s0,368(sp)
    8000451e:	95a2                	add	a1,a1,s0
    80004520:	058e                	slli	a1,a1,0x3
    80004522:	95aa                	add	a1,a1,a0
    80004524:	e72e                	sd	a1,392(sp)
    80004526:	618c                	ld	a1,0(a1)
    80004528:	7c98070b          	.insn	4, 0x7c98070b
    8000452c:	6e58                	ld	a4,152(a2)
    8000452e:	1cf0878b          	.insn	4, 0x1cf0878b
    80004532:	5cb2858b          	.insn	4, 0x5cb2858b
    80004536:	d0e695fb          	.insn	4, 0xd0e695fb
    8000453a:	f20581d3          	fmv.d.x	ft3,a1
    8000453e:	02317153          	fadd.d	ft2,ft2,ft3
    80004542:	65d6                	ld	a1,336(sp)
    80004544:	618c                	ld	a1,0(a1)
    80004546:	7254                	ld	a3,160(a2)
    80004548:	7658                	ld	a4,168(a2)
    8000454a:	6796                	ld	a5,320(sp)
    8000454c:	639c                	ld	a5,0(a5)
    8000454e:	23813483          	ld	s1,568(sp)
    80004552:	7436                	ld	s0,360(sp)
    80004554:	94a2                	add	s1,s1,s0
    80004556:	048e                	slli	s1,s1,0x3
    80004558:	94aa                	add	s1,s1,a0
    8000455a:	7ce6868b          	.insn	4, 0x7ce6868b
    8000455e:	eaa6                	sd	s1,336(sp)
    80004560:	6094                	ld	a3,0(s1)
    80004562:	6736                	ld	a4,328(sp)
    80004564:	6318                	ld	a4,0(a4)
    80004566:	5cd7868b          	.insn	4, 0x5cd7868b
    8000456a:	7a54                	ld	a3,176(a2)
    8000456c:	7e5c                	ld	a5,184(a2)
    8000456e:	3ce5885b          	.insn	4, 0x3ce5885b
    80004572:	d0f695fb          	.insn	4, 0xd0f695fb
    80004576:	f20581d3          	fmv.d.x	ft3,a1
    8000457a:	02317153          	fadd.d	ft2,ft2,ft3
    8000457e:	26013583          	ld	a1,608(sp)
    80004582:	20c58593          	addi	a1,a1,524
    80004586:	058e                	slli	a1,a1,0x3
    80004588:	95aa                	add	a1,a1,a0
    8000458a:	618c                	ld	a1,0(a1)
    8000458c:	6274                	ld	a3,192(a2)
    8000458e:	3c0582db          	.insn	4, 0x3c0582db
    80004592:	cc0696fb          	.insn	4, 0xcc0696fb
    80004596:	f20681d3          	fmv.d.x	ft3,a3
    8000459a:	02317153          	fadd.d	ft2,ft2,ft3
    8000459e:	0118872b          	.insn	4, 0x0118872b
    800045a2:	047385ab          	.insn	4, 0x047385ab
    800045a6:	0863042b          	.insn	4, 0x0863042b
    800045aa:	a22094d3          	flt.d	s1,ft1,ft2
    800045ae:	0def07ab          	.insn	4, 0x0def07ab
    800045b2:	1cd686ab          	.insn	4, 0x1cd686ab
    800045b6:	c0a9                	beqz	s1,800045f8 <bilateral_core+0x23fe>
    800045b8:	f20701d3          	fmv.d.x	ft3,a4
    800045bc:	0201f1d3          	fadd.d	ft3,ft3,ft0
    800045c0:	f2058253          	fmv.d.x	ft4,a1
    800045c4:	0241f1d3          	fadd.d	ft3,ft3,ft4
    800045c8:	f2040253          	fmv.d.x	ft4,s0
    800045cc:	0241f1d3          	fadd.d	ft3,ft3,ft4
    800045d0:	f2078253          	fmv.d.x	ft4,a5
    800045d4:	0241f1d3          	fadd.d	ft3,ft3,ft4
    800045d8:	f2080253          	fmv.d.x	ft4,a6
    800045dc:	0241f1d3          	fadd.d	ft3,ft3,ft4
    800045e0:	f2028253          	fmv.d.x	ft4,t0
    800045e4:	0241f1d3          	fadd.d	ft3,ft3,ft4
    800045e8:	f2068253          	fmv.d.x	ft4,a3
    800045ec:	0241f1d3          	fadd.d	ft3,ft3,ft4
    800045f0:	1a21f153          	fdiv.d	ft2,ft3,ft2
    800045f4:	e20100d3          	fmv.x.d	ra,ft2
    800045f8:	4f01                	li	t5,0
    800045fa:	4b81                	li	s7,0
    800045fc:	4301                	li	t1,0
    800045fe:	4801                	li	a6,0
    80004600:	4b01                	li	s6,0
    80004602:	4c01                	li	s8,0
    80004604:	4881                	li	a7,0
    80004606:	27813583          	ld	a1,632(sp)
    8000460a:	66b2                	ld	a3,264(sp)
    8000460c:	95b6                	add	a1,a1,a3
    8000460e:	0015b023          	sd	ra,0(a1)
    80004612:	00093083          	ld	ra,0(s2)
    80004616:	4981                	li	s3,0
    80004618:	25813703          	ld	a4,600(sp)
    8000461c:	ef29                	bnez	a4,80004676 <bilateral_core+0x247c>
    8000461e:	22013783          	ld	a5,544(sp)
    80004622:	659a                	ld	a1,384(sp)
    80004624:	95be                	add	a1,a1,a5
    80004626:	669e                	ld	a3,448(sp)
    80004628:	8df5                	and	a1,a1,a3
    8000462a:	058e                	slli	a1,a1,0x3
    8000462c:	95aa                	add	a1,a1,a0
    8000462e:	0005b803          	ld	a6,0(a1)
    80004632:	00063303          	ld	t1,0(a2)
    80004636:	75ba                	ld	a1,424(sp)
    80004638:	95be                	add	a1,a1,a5
    8000463a:	0faf8693          	addi	a3,t6,250
    8000463e:	8df5                	and	a1,a1,a3
    80004640:	058e                	slli	a1,a1,0x3
    80004642:	95aa                	add	a1,a1,a0
    80004644:	0005bb03          	ld	s6,0(a1)
    80004648:	00863c03          	ld	s8,8(a2)
    8000464c:	20813583          	ld	a1,520(sp)
    80004650:	76b6                	ld	a3,360(sp)
    80004652:	95b6                	add	a1,a1,a3
    80004654:	058e                	slli	a1,a1,0x3
    80004656:	95aa                	add	a1,a1,a0
    80004658:	0005bb83          	ld	s7,0(a1)
    8000465c:	01063f03          	ld	t5,16(a2)
    80004660:	75d6                	ld	a1,368(sp)
    80004662:	95be                	add	a1,a1,a5
    80004664:	0fcf8693          	addi	a3,t6,252
    80004668:	8df5                	and	a1,a1,a3
    8000466a:	058e                	slli	a1,a1,0x3
    8000466c:	95aa                	add	a1,a1,a0
    8000466e:	0005b883          	ld	a7,0(a1)
    80004672:	01863983          	ld	s3,24(a2)
    80004676:	4901                	li	s2,0
    80004678:	4d01                	li	s10,0
    8000467a:	24013403          	ld	s0,576(sp)
    8000467e:	e31d                	bnez	a4,800046a4 <bilateral_core+0x24aa>
    80004680:	27013583          	ld	a1,624(sp)
    80004684:	00d5e593          	ori	a1,a1,13
    80004688:	22013683          	ld	a3,544(sp)
    8000468c:	95b6                	add	a1,a1,a3
    8000468e:	24813683          	ld	a3,584(sp)
    80004692:	0fd68693          	addi	a3,a3,253
    80004696:	8df5                	and	a1,a1,a3
    80004698:	058e                	slli	a1,a1,0x3
    8000469a:	95aa                	add	a1,a1,a0
    8000469c:	0005b903          	ld	s2,0(a1)
    800046a0:	02063d03          	ld	s10,32(a2)
    800046a4:	4f81                	li	t6,0
    800046a6:	4381                	li	t2,0
    800046a8:	4c81                	li	s9,0
    800046aa:	4d81                	li	s11,0
    800046ac:	4681                	li	a3,0
    800046ae:	4481                	li	s1,0
    800046b0:	e029                	bnez	s0,800046f2 <bilateral_core+0x24f8>
    800046b2:	22813703          	ld	a4,552(sp)
    800046b6:	659a                	ld	a1,384(sp)
    800046b8:	95ba                	add	a1,a1,a4
    800046ba:	669e                	ld	a3,448(sp)
    800046bc:	8df5                	and	a1,a1,a3
    800046be:	058e                	slli	a1,a1,0x3
    800046c0:	95aa                	add	a1,a1,a0
    800046c2:	0005bc83          	ld	s9,0(a1)
    800046c6:	02863d83          	ld	s11,40(a2)
    800046ca:	75ba                	ld	a1,424(sp)
    800046cc:	95ba                	add	a1,a1,a4
    800046ce:	24813683          	ld	a3,584(sp)
    800046d2:	0fa68693          	addi	a3,a3,250
    800046d6:	8df5                	and	a1,a1,a3
    800046d8:	058e                	slli	a1,a1,0x3
    800046da:	95aa                	add	a1,a1,a0
    800046dc:	0005b383          	ld	t2,0(a1)
    800046e0:	03063f83          	ld	t6,48(a2)
    800046e4:	65fa                	ld	a1,408(sp)
    800046e6:	76b6                	ld	a3,360(sp)
    800046e8:	95b6                	add	a1,a1,a3
    800046ea:	058e                	slli	a1,a1,0x3
    800046ec:	95aa                	add	a1,a1,a0
    800046ee:	6194                	ld	a3,0(a1)
    800046f0:	7e04                	ld	s1,56(a2)
    800046f2:	4a81                	li	s5,0
    800046f4:	4281                	li	t0,0
    800046f6:	4701                	li	a4,0
    800046f8:	4781                	li	a5,0
    800046fa:	ec05                	bnez	s0,80004732 <bilateral_core+0x2538>
    800046fc:	22813403          	ld	s0,552(sp)
    80004700:	75d6                	ld	a1,368(sp)
    80004702:	95a2                	add	a1,a1,s0
    80004704:	24813783          	ld	a5,584(sp)
    80004708:	0fc78713          	addi	a4,a5,252
    8000470c:	8df9                	and	a1,a1,a4
    8000470e:	058e                	slli	a1,a1,0x3
    80004710:	95aa                	add	a1,a1,a0
    80004712:	0005b283          	ld	t0,0(a1)
    80004716:	04063a83          	ld	s5,64(a2)
    8000471a:	27013583          	ld	a1,624(sp)
    8000471e:	00d5e713          	ori	a4,a1,13
    80004722:	9722                	add	a4,a4,s0
    80004724:	0fd78793          	addi	a5,a5,253
    80004728:	8f7d                	and	a4,a4,a5
    8000472a:	070e                	slli	a4,a4,0x3
    8000472c:	972a                	add	a4,a4,a0
    8000472e:	6318                	ld	a4,0(a4)
    80004730:	663c                	ld	a5,72(a2)
    80004732:	813f058b          	.insn	4, 0x813f058b
    80004736:	6183058b          	.insn	4, 0x6183058b
    8000473a:	411b858b          	.insn	4, 0x411b858b
    8000473e:	2168058b          	.insn	4, 0x2168058b
    80004742:	28013403          	ld	s0,640(sp)
    80004746:	008098fb          	.insn	4, 0x008098fb
    8000474a:	f2088153          	fmv.d.x	ft2,a7
    8000474e:	02017153          	fadd.d	ft2,ft2,ft0
    80004752:	849f858b          	.insn	4, 0x849f858b
    80004756:	65bd058b          	.insn	4, 0x65bd058b
    8000475a:	44d3858b          	.insn	4, 0x44d3858b
    8000475e:	2599058b          	.insn	4, 0x2599058b
    80004762:	408093fb          	.insn	4, 0x408093fb
    80004766:	f20381d3          	fmv.d.x	ft3,t2
    8000476a:	02317153          	fadd.d	ft2,ft2,ft3
    8000476e:	000a3583          	ld	a1,0(s4)
    80004772:	05063803          	ld	a6,80(a2)
    80004776:	24813c03          	ld	s8,584(sp)
    8000477a:	0fac0693          	addi	a3,s8,250
    8000477e:	ff36                	sd	a3,440(sp)
    80004780:	7492                	ld	s1,288(sp)
    80004782:	8ee5                	and	a3,a3,s1
    80004784:	068e                	slli	a3,a3,0x3
    80004786:	00d50933          	add	s2,a0,a3
    8000478a:	00093683          	ld	a3,0(s2)
    8000478e:	6e24                	ld	s1,88(a2)
    80004790:	68fa878b          	.insn	4, 0x68fa878b
    80004794:	28e2870b          	.insn	4, 0x28e2870b
    80004798:	0880870b          	.insn	4, 0x0880870b
    8000479c:	48d5858b          	.insn	4, 0x48d5858b
    800047a0:	90981f7b          	.insn	4, 0x90981f7b
    800047a4:	f20f01d3          	fmv.d.x	ft3,t5
    800047a8:	02317153          	fadd.d	ft2,ft2,ft3
    800047ac:	06063283          	ld	t0,96(a2)
    800047b0:	000eb303          	ld	t1,0(t4)
    800047b4:	06863e03          	ld	t3,104(a2)
    800047b8:	27013c83          	ld	s9,624(sp)
    800047bc:	00dce713          	ori	a4,s9,13
    800047c0:	25013583          	ld	a1,592(sp)
    800047c4:	95ba                	add	a1,a1,a4
    800047c6:	e62e                	sd	a1,264(sp)
    800047c8:	058e                	slli	a1,a1,0x3
    800047ca:	f22e                	sd	a1,288(sp)
    800047cc:	00b50833          	add	a6,a0,a1
    800047d0:	00083483          	ld	s1,0(a6)
    800047d4:	07063f83          	ld	t6,112(a2)
    800047d8:	75da                	ld	a1,432(sp)
    800047da:	619c                	ld	a5,0(a1)
    800047dc:	7e2c                	ld	a1,120(a2)
    800047de:	0c80868b          	.insn	4, 0x0c80868b
    800047e2:	2c60868b          	.insn	4, 0x2c60868b
    800047e6:	6dc2868b          	.insn	4, 0x6dc2868b
    800047ea:	4cf4868b          	.insn	4, 0x4cf4868b
    800047ee:	d0bf9ffb          	.insn	4, 0xd0bf9ffb
    800047f2:	f20f81d3          	fmv.d.x	ft3,t6
    800047f6:	02317153          	fadd.d	ft2,ft2,ft3
    800047fa:	21813583          	ld	a1,536(sp)
    800047fe:	618c                	ld	a1,0(a1)
    80004800:	08063303          	ld	t1,128(a2)
    80004804:	769a                	ld	a3,416(sp)
    80004806:	629c                	ld	a5,0(a3)
    80004808:	6644                	ld	s1,136(a2)
    8000480a:	66ba                	ld	a3,392(sp)
    8000480c:	0006b283          	ld	t0,0(a3)
    80004810:	6a54                	ld	a3,144(a2)
    80004812:	3cf5858b          	.insn	4, 0x3cf5858b
    80004816:	23013583          	ld	a1,560(sp)
    8000481a:	e33a                	sd	a4,384(sp)
    8000481c:	95ba                	add	a1,a1,a4
    8000481e:	058e                	slli	a1,a1,0x3
    80004820:	95aa                	add	a1,a1,a0
    80004822:	eb2e                	sd	a1,400(sp)
    80004824:	618c                	ld	a1,0(a1)
    80004826:	7c93070b          	.insn	4, 0x7c93070b
    8000482a:	6e58                	ld	a4,152(a2)
    8000482c:	1c80878b          	.insn	4, 0x1c80878b
    80004830:	5cb2858b          	.insn	4, 0x5cb2858b
    80004834:	d0e695fb          	.insn	4, 0xd0e695fb
    80004838:	f20581d3          	fmv.d.x	ft3,a1
    8000483c:	02317153          	fadd.d	ft2,ft2,ft3
    80004840:	65b6                	ld	a1,328(sp)
    80004842:	618c                	ld	a1,0(a1)
    80004844:	7254                	ld	a3,160(a2)
    80004846:	7658                	ld	a4,168(a2)
    80004848:	67d6                	ld	a5,336(sp)
    8000484a:	639c                	ld	a5,0(a5)
    8000484c:	23813483          	ld	s1,568(sp)
    80004850:	7456                	ld	s0,368(sp)
    80004852:	94a2                	add	s1,s1,s0
    80004854:	048e                	slli	s1,s1,0x3
    80004856:	94aa                	add	s1,s1,a0
    80004858:	7ce6868b          	.insn	4, 0x7ce6868b
    8000485c:	e6a6                	sd	s1,328(sp)
    8000485e:	6094                	ld	a3,0(s1)
    80004860:	6716                	ld	a4,320(sp)
    80004862:	6318                	ld	a4,0(a4)
    80004864:	5cd7868b          	.insn	4, 0x5cd7868b
    80004868:	7a54                	ld	a3,176(a2)
    8000486a:	7e5c                	ld	a5,184(a2)
    8000486c:	3ce582db          	.insn	4, 0x3ce582db
    80004870:	d0f695fb          	.insn	4, 0xd0f695fb
    80004874:	f20581d3          	fmv.d.x	ft3,a1
    80004878:	02317153          	fadd.d	ft2,ft2,ft3
    8000487c:	26013583          	ld	a1,608(sp)
    80004880:	20d58593          	addi	a1,a1,525
    80004884:	058e                	slli	a1,a1,0x3
    80004886:	95aa                	add	a1,a1,a0
    80004888:	618c                	ld	a1,0(a1)
    8000488a:	6274                	ld	a3,192(a2)
    8000488c:	3c05835b          	.insn	4, 0x3c05835b
    80004890:	cc0696fb          	.insn	4, 0xcc0696fb
    80004894:	f20681d3          	fmv.d.x	ft3,a3
    80004898:	02317153          	fadd.d	ft2,ft2,ft3
    8000489c:	0118872b          	.insn	4, 0x0118872b
    800048a0:	047385ab          	.insn	4, 0x047385ab
    800048a4:	09ef042b          	.insn	4, 0x09ef042b
    800048a8:	a22094d3          	flt.d	s1,ft1,ft2
    800048ac:	0dff87ab          	.insn	4, 0x0dff87ab
    800048b0:	1cd686ab          	.insn	4, 0x1cd686ab
    800048b4:	c0a9                	beqz	s1,800048f6 <bilateral_core+0x26fc>
    800048b6:	f20701d3          	fmv.d.x	ft3,a4
    800048ba:	0201f1d3          	fadd.d	ft3,ft3,ft0
    800048be:	f2058253          	fmv.d.x	ft4,a1
    800048c2:	0241f1d3          	fadd.d	ft3,ft3,ft4
    800048c6:	f2040253          	fmv.d.x	ft4,s0
    800048ca:	0241f1d3          	fadd.d	ft3,ft3,ft4
    800048ce:	f2078253          	fmv.d.x	ft4,a5
    800048d2:	0241f1d3          	fadd.d	ft3,ft3,ft4
    800048d6:	f2028253          	fmv.d.x	ft4,t0
    800048da:	0241f1d3          	fadd.d	ft3,ft3,ft4
    800048de:	f2030253          	fmv.d.x	ft4,t1
    800048e2:	0241f1d3          	fadd.d	ft3,ft3,ft4
    800048e6:	f2068253          	fmv.d.x	ft4,a3
    800048ea:	0241f1d3          	fadd.d	ft3,ft3,ft4
    800048ee:	1a21f153          	fdiv.d	ft2,ft3,ft2
    800048f2:	e20100d3          	fmv.x.d	ra,ft2
    800048f6:	4f01                	li	t5,0
    800048f8:	4a01                	li	s4,0
    800048fa:	4981                	li	s3,0
    800048fc:	4f81                	li	t6,0
    800048fe:	4301                	li	t1,0
    80004900:	4a81                	li	s5,0
    80004902:	4b01                	li	s6,0
    80004904:	27813583          	ld	a1,632(sp)
    80004908:	66f2                	ld	a3,280(sp)
    8000490a:	95b6                	add	a1,a1,a3
    8000490c:	0015b023          	sd	ra,0(a1)
    80004910:	000ebe03          	ld	t3,0(t4)
    80004914:	4e81                	li	t4,0
    80004916:	25813703          	ld	a4,600(sp)
    8000491a:	ef29                	bnez	a4,80004974 <bilateral_core+0x277a>
    8000491c:	22013783          	ld	a5,544(sp)
    80004920:	75ba                	ld	a1,424(sp)
    80004922:	95be                	add	a1,a1,a5
    80004924:	76fa                	ld	a3,440(sp)
    80004926:	8df5                	and	a1,a1,a3
    80004928:	058e                	slli	a1,a1,0x3
    8000492a:	95aa                	add	a1,a1,a0
    8000492c:	0005bf83          	ld	t6,0(a1)
    80004930:	00063983          	ld	s3,0(a2)
    80004934:	75b6                	ld	a1,360(sp)
    80004936:	95be                	add	a1,a1,a5
    80004938:	0fbc0693          	addi	a3,s8,251
    8000493c:	8df5                	and	a1,a1,a3
    8000493e:	058e                	slli	a1,a1,0x3
    80004940:	95aa                	add	a1,a1,a0
    80004942:	0005b303          	ld	t1,0(a1)
    80004946:	00863a83          	ld	s5,8(a2)
    8000494a:	20813583          	ld	a1,520(sp)
    8000494e:	76d6                	ld	a3,368(sp)
    80004950:	95b6                	add	a1,a1,a3
    80004952:	058e                	slli	a1,a1,0x3
    80004954:	95aa                	add	a1,a1,a0
    80004956:	0005ba03          	ld	s4,0(a1)
    8000495a:	01063f03          	ld	t5,16(a2)
    8000495e:	659a                	ld	a1,384(sp)
    80004960:	95be                	add	a1,a1,a5
    80004962:	0fdc0693          	addi	a3,s8,253
    80004966:	8df5                	and	a1,a1,a3
    80004968:	058e                	slli	a1,a1,0x3
    8000496a:	95aa                	add	a1,a1,a0
    8000496c:	0005bb03          	ld	s6,0(a1)
    80004970:	01863e83          	ld	t4,24(a2)
    80004974:	4881                	li	a7,0
    80004976:	4b81                	li	s7,0
    80004978:	24013783          	ld	a5,576(sp)
    8000497c:	ef19                	bnez	a4,8000499a <bilateral_core+0x27a0>
    8000497e:	00ece593          	ori	a1,s9,14
    80004982:	22013683          	ld	a3,544(sp)
    80004986:	95b6                	add	a1,a1,a3
    80004988:	0fec0693          	addi	a3,s8,254
    8000498c:	8df5                	and	a1,a1,a3
    8000498e:	058e                	slli	a1,a1,0x3
    80004990:	95aa                	add	a1,a1,a0
    80004992:	0005b883          	ld	a7,0(a1)
    80004996:	02063b83          	ld	s7,32(a2)
    8000499a:	4d01                	li	s10,0
    8000499c:	4381                	li	t2,0
    8000499e:	4c01                	li	s8,0
    800049a0:	4c81                	li	s9,0
    800049a2:	4681                	li	a3,0
    800049a4:	4481                	li	s1,0
    800049a6:	e3a9                	bnez	a5,800049e8 <bilateral_core+0x27ee>
    800049a8:	22813703          	ld	a4,552(sp)
    800049ac:	75ba                	ld	a1,424(sp)
    800049ae:	95ba                	add	a1,a1,a4
    800049b0:	76fa                	ld	a3,440(sp)
    800049b2:	8df5                	and	a1,a1,a3
    800049b4:	058e                	slli	a1,a1,0x3
    800049b6:	95aa                	add	a1,a1,a0
    800049b8:	0005bc03          	ld	s8,0(a1)
    800049bc:	02863c83          	ld	s9,40(a2)
    800049c0:	75b6                	ld	a1,360(sp)
    800049c2:	95ba                	add	a1,a1,a4
    800049c4:	24813683          	ld	a3,584(sp)
    800049c8:	0fb68693          	addi	a3,a3,251
    800049cc:	8df5                	and	a1,a1,a3
    800049ce:	058e                	slli	a1,a1,0x3
    800049d0:	95aa                	add	a1,a1,a0
    800049d2:	0005b383          	ld	t2,0(a1)
    800049d6:	03063d03          	ld	s10,48(a2)
    800049da:	65fa                	ld	a1,408(sp)
    800049dc:	76d6                	ld	a3,368(sp)
    800049de:	95b6                	add	a1,a1,a3
    800049e0:	058e                	slli	a1,a1,0x3
    800049e2:	95aa                	add	a1,a1,a0
    800049e4:	6194                	ld	a3,0(a1)
    800049e6:	7e04                	ld	s1,56(a2)
    800049e8:	4081                	li	ra,0
    800049ea:	4d81                	li	s11,0
    800049ec:	4701                	li	a4,0
    800049ee:	4401                	li	s0,0
    800049f0:	ef85                	bnez	a5,80004a28 <bilateral_core+0x282e>
    800049f2:	22813403          	ld	s0,552(sp)
    800049f6:	659a                	ld	a1,384(sp)
    800049f8:	95a2                	add	a1,a1,s0
    800049fa:	24813783          	ld	a5,584(sp)
    800049fe:	0fd78713          	addi	a4,a5,253
    80004a02:	8df9                	and	a1,a1,a4
    80004a04:	058e                	slli	a1,a1,0x3
    80004a06:	95aa                	add	a1,a1,a0
    80004a08:	0005bd83          	ld	s11,0(a1)
    80004a0c:	04063083          	ld	ra,64(a2)
    80004a10:	27013583          	ld	a1,624(sp)
    80004a14:	00e5e713          	ori	a4,a1,14
    80004a18:	9722                	add	a4,a4,s0
    80004a1a:	0fe78413          	addi	s0,a5,254
    80004a1e:	8f61                	and	a4,a4,s0
    80004a20:	070e                	slli	a4,a4,0x3
    80004a22:	972a                	add	a4,a4,a0
    80004a24:	6318                	ld	a4,0(a4)
    80004a26:	6620                	ld	s0,72(a2)
    80004a28:	81df058b          	.insn	4, 0x81df058b
    80004a2c:	6159858b          	.insn	4, 0x6159858b
    80004a30:	416a058b          	.insn	4, 0x416a058b
    80004a34:	206f858b          	.insn	4, 0x206f858b
    80004a38:	28013783          	ld	a5,640(sp)
    80004a3c:	00fe137b          	.insn	4, 0x00fe137b
    80004a40:	f2030153          	fmv.d.x	ft2,t1
    80004a44:	02017153          	fadd.d	ft2,ft2,ft0
    80004a48:	849d058b          	.insn	4, 0x849d058b
    80004a4c:	659b858b          	.insn	4, 0x659b858b
    80004a50:	44d3858b          	.insn	4, 0x44d3858b
    80004a54:	2588858b          	.insn	4, 0x2588858b
    80004a58:	40fe1f7b          	.insn	4, 0x40fe1f7b
    80004a5c:	f20f01d3          	fmv.d.x	ft3,t5
    80004a60:	02317153          	fadd.d	ft2,ft2,ft3
    80004a64:	00093583          	ld	a1,0(s2)
    80004a68:	05063883          	ld	a7,80(a2)
    80004a6c:	24813d03          	ld	s10,584(sp)
    80004a70:	0fbd0693          	addi	a3,s10,251
    80004a74:	fb36                	sd	a3,432(sp)
    80004a76:	74d2                	ld	s1,304(sp)
    80004a78:	8ee5                	and	a3,a3,s1
    80004a7a:	068e                	slli	a3,a3,0x3
    80004a7c:	00d502b3          	add	t0,a0,a3
    80004a80:	0002b683          	ld	a3,0(t0)
    80004a84:	6e24                	ld	s1,88(a2)
    80004a86:	6880840b          	.insn	4, 0x6880840b
    80004a8a:	28ed870b          	.insn	4, 0x28ed870b
    80004a8e:	08fe070b          	.insn	4, 0x08fe070b
    80004a92:	48d5858b          	.insn	4, 0x48d5858b
    80004a96:	90989ffb          	.insn	4, 0x90989ffb
    80004a9a:	f20f81d3          	fmv.d.x	ft3,t6
    80004a9e:	02317153          	fadd.d	ft2,ft2,ft3
    80004aa2:	06063883          	ld	a7,96(a2)
    80004aa6:	00083383          	ld	t2,0(a6)
    80004aaa:	06863903          	ld	s2,104(a2)
    80004aae:	27013583          	ld	a1,624(sp)
    80004ab2:	00e5e093          	ori	ra,a1,14
    80004ab6:	25013583          	ld	a1,592(sp)
    80004aba:	9586                	add	a1,a1,ra
    80004abc:	ea2e                	sd	a1,272(sp)
    80004abe:	058e                	slli	a1,a1,0x3
    80004ac0:	fdae                	sd	a1,248(sp)
    80004ac2:	00b50eb3          	add	t4,a0,a1
    80004ac6:	000eb703          	ld	a4,0(t4)
    80004aca:	7a20                	ld	s0,112(a2)
    80004acc:	21813583          	ld	a1,536(sp)
    80004ad0:	6184                	ld	s1,0(a1)
    80004ad2:	7e2c                	ld	a1,120(a2)
    80004ad4:	0cfe068b          	.insn	4, 0x0cfe068b
    80004ad8:	2c7e068b          	.insn	4, 0x2c7e068b
    80004adc:	6d28868b          	.insn	4, 0x6d28868b
    80004ae0:	4c97068b          	.insn	4, 0x4c97068b
    80004ae4:	d0b4197b          	.insn	4, 0xd0b4197b
    80004ae8:	f20901d3          	fmv.d.x	ft3,s2
    80004aec:	02317153          	fadd.d	ft2,ft2,ft3
    80004af0:	759a                	ld	a1,416(sp)
    80004af2:	618c                	ld	a1,0(a1)
    80004af4:	08063883          	ld	a7,128(a2)
    80004af8:	66ba                	ld	a3,392(sp)
    80004afa:	6298                	ld	a4,0(a3)
    80004afc:	6644                	ld	s1,136(a2)
    80004afe:	66da                	ld	a3,400(sp)
    80004b00:	6280                	ld	s0,0(a3)
    80004b02:	6a54                	ld	a3,144(a2)
    80004b04:	3ce5858b          	.insn	4, 0x3ce5858b
    80004b08:	23013583          	ld	a1,560(sp)
    80004b0c:	9586                	add	a1,a1,ra
    80004b0e:	058e                	slli	a1,a1,0x3
    80004b10:	95aa                	add	a1,a1,a0
    80004b12:	fa2e                	sd	a1,304(sp)
    80004b14:	618c                	ld	a1,0(a1)
    80004b16:	7c98870b          	.insn	4, 0x7c98870b
    80004b1a:	6e58                	ld	a4,152(a2)
    80004b1c:	1cfe078b          	.insn	4, 0x1cfe078b
    80004b20:	5cb4058b          	.insn	4, 0x5cb4058b
    80004b24:	d0e695fb          	.insn	4, 0xd0e695fb
    80004b28:	f20581d3          	fmv.d.x	ft3,a1
    80004b2c:	02317153          	fadd.d	ft2,ft2,ft3
    80004b30:	6596                	ld	a1,320(sp)
    80004b32:	618c                	ld	a1,0(a1)
    80004b34:	7254                	ld	a3,160(a2)
    80004b36:	7658                	ld	a4,168(a2)
    80004b38:	67b6                	ld	a5,328(sp)
    80004b3a:	639c                	ld	a5,0(a5)
    80004b3c:	23813483          	ld	s1,568(sp)
    80004b40:	641a                	ld	s0,384(sp)
    80004b42:	94a2                	add	s1,s1,s0
    80004b44:	048e                	slli	s1,s1,0x3
    80004b46:	94aa                	add	s1,s1,a0
    80004b48:	7ce6868b          	.insn	4, 0x7ce6868b
    80004b4c:	e2a6                	sd	s1,320(sp)
    80004b4e:	6094                	ld	a3,0(s1)
    80004b50:	6756                	ld	a4,336(sp)
    80004b52:	6318                	ld	a4,0(a4)
    80004b54:	5cd7868b          	.insn	4, 0x5cd7868b
    80004b58:	7a54                	ld	a3,176(a2)
    80004b5a:	7e5c                	ld	a5,184(a2)
    80004b5c:	3ce588db          	.insn	4, 0x3ce588db
    80004b60:	d0f695fb          	.insn	4, 0xd0f695fb
    80004b64:	f20581d3          	fmv.d.x	ft3,a1
    80004b68:	02317153          	fadd.d	ft2,ft2,ft3
    80004b6c:	26013583          	ld	a1,608(sp)
    80004b70:	20e58593          	addi	a1,a1,526
    80004b74:	058e                	slli	a1,a1,0x3
    80004b76:	95aa                	add	a1,a1,a0
    80004b78:	618c                	ld	a1,0(a1)
    80004b7a:	6274                	ld	a3,192(a2)
    80004b7c:	3c0583db          	.insn	4, 0x3c0583db
    80004b80:	cc0696fb          	.insn	4, 0xcc0696fb
    80004b84:	f20681d3          	fmv.d.x	ft3,a3
    80004b88:	02317153          	fadd.d	ft2,ft2,ft3
    80004b8c:	0063072b          	.insn	4, 0x0063072b
    80004b90:	05ef05ab          	.insn	4, 0x05ef05ab
    80004b94:	09ff842b          	.insn	4, 0x09ff842b
    80004b98:	a22097d3          	flt.d	a5,ft1,ft2
    80004b9c:	0d2904ab          	.insn	4, 0x0d2904ab
    80004ba0:	1cd686ab          	.insn	4, 0x1cd686ab
    80004ba4:	c3a9                	beqz	a5,80004be6 <bilateral_core+0x29ec>
    80004ba6:	f20701d3          	fmv.d.x	ft3,a4
    80004baa:	0201f1d3          	fadd.d	ft3,ft3,ft0
    80004bae:	f2058253          	fmv.d.x	ft4,a1
    80004bb2:	0241f1d3          	fadd.d	ft3,ft3,ft4
    80004bb6:	f2040253          	fmv.d.x	ft4,s0
    80004bba:	0241f1d3          	fadd.d	ft3,ft3,ft4
    80004bbe:	f2048253          	fmv.d.x	ft4,s1
    80004bc2:	0241f1d3          	fadd.d	ft3,ft3,ft4
    80004bc6:	f2088253          	fmv.d.x	ft4,a7
    80004bca:	0241f1d3          	fadd.d	ft3,ft3,ft4
    80004bce:	f2038253          	fmv.d.x	ft4,t2
    80004bd2:	0241f1d3          	fadd.d	ft3,ft3,ft4
    80004bd6:	f2068253          	fmv.d.x	ft4,a3
    80004bda:	0241f1d3          	fadd.d	ft3,ft3,ft4
    80004bde:	1a21f153          	fdiv.d	ft2,ft3,ft2
    80004be2:	e2010e53          	fmv.x.d	t3,ft2
    80004be6:	4f01                	li	t5,0
    80004be8:	4901                	li	s2,0
    80004bea:	4301                	li	t1,0
    80004bec:	4381                	li	t2,0
    80004bee:	4f81                	li	t6,0
    80004bf0:	4981                	li	s3,0
    80004bf2:	4881                	li	a7,0
    80004bf4:	27813583          	ld	a1,632(sp)
    80004bf8:	6692                	ld	a3,256(sp)
    80004bfa:	95b6                	add	a1,a1,a3
    80004bfc:	01c5b023          	sd	t3,0(a1)
    80004c00:	00083d83          	ld	s11,0(a6)
    80004c04:	4a01                	li	s4,0
    80004c06:	25813703          	ld	a4,600(sp)
    80004c0a:	ef29                	bnez	a4,80004c64 <bilateral_core+0x2a6a>
    80004c0c:	22013783          	ld	a5,544(sp)
    80004c10:	75b6                	ld	a1,360(sp)
    80004c12:	95be                	add	a1,a1,a5
    80004c14:	76da                	ld	a3,432(sp)
    80004c16:	8df5                	and	a1,a1,a3
    80004c18:	058e                	slli	a1,a1,0x3
    80004c1a:	95aa                	add	a1,a1,a0
    80004c1c:	0005b383          	ld	t2,0(a1)
    80004c20:	00063303          	ld	t1,0(a2)
    80004c24:	75d6                	ld	a1,368(sp)
    80004c26:	95be                	add	a1,a1,a5
    80004c28:	0fcd0693          	addi	a3,s10,252
    80004c2c:	8df5                	and	a1,a1,a3
    80004c2e:	058e                	slli	a1,a1,0x3
    80004c30:	95aa                	add	a1,a1,a0
    80004c32:	0005bf83          	ld	t6,0(a1)
    80004c36:	00863983          	ld	s3,8(a2)
    80004c3a:	20813583          	ld	a1,520(sp)
    80004c3e:	669a                	ld	a3,384(sp)
    80004c40:	95b6                	add	a1,a1,a3
    80004c42:	058e                	slli	a1,a1,0x3
    80004c44:	95aa                	add	a1,a1,a0
    80004c46:	0005b903          	ld	s2,0(a1)
    80004c4a:	01063f03          	ld	t5,16(a2)
    80004c4e:	001785b3          	add	a1,a5,ra
    80004c52:	0fed0693          	addi	a3,s10,254
    80004c56:	8df5                	and	a1,a1,a3
    80004c58:	058e                	slli	a1,a1,0x3
    80004c5a:	95aa                	add	a1,a1,a0
    80004c5c:	0005b883          	ld	a7,0(a1)
    80004c60:	01863a03          	ld	s4,24(a2)
    80004c64:	4801                	li	a6,0
    80004c66:	4a81                	li	s5,0
    80004c68:	24013483          	ld	s1,576(sp)
    80004c6c:	e30d                	bnez	a4,80004c8e <bilateral_core+0x2a94>
    80004c6e:	27013583          	ld	a1,624(sp)
    80004c72:	00f5e593          	ori	a1,a1,15
    80004c76:	22013683          	ld	a3,544(sp)
    80004c7a:	95b6                	add	a1,a1,a3
    80004c7c:	0ffd0693          	addi	a3,s10,255
    80004c80:	8df5                	and	a1,a1,a3
    80004c82:	058e                	slli	a1,a1,0x3
    80004c84:	95aa                	add	a1,a1,a0
    80004c86:	0005b803          	ld	a6,0(a1)
    80004c8a:	02063a83          	ld	s5,32(a2)
    80004c8e:	4c81                	li	s9,0
    80004c90:	4c01                	li	s8,0
    80004c92:	4b01                	li	s6,0
    80004c94:	4b81                	li	s7,0
    80004c96:	4681                	li	a3,0
    80004c98:	4781                	li	a5,0
    80004c9a:	ec9d                	bnez	s1,80004cd8 <bilateral_core+0x2ade>
    80004c9c:	22813703          	ld	a4,552(sp)
    80004ca0:	75b6                	ld	a1,360(sp)
    80004ca2:	95ba                	add	a1,a1,a4
    80004ca4:	76da                	ld	a3,432(sp)
    80004ca6:	8df5                	and	a1,a1,a3
    80004ca8:	058e                	slli	a1,a1,0x3
    80004caa:	95aa                	add	a1,a1,a0
    80004cac:	0005bb03          	ld	s6,0(a1)
    80004cb0:	02863b83          	ld	s7,40(a2)
    80004cb4:	75d6                	ld	a1,368(sp)
    80004cb6:	95ba                	add	a1,a1,a4
    80004cb8:	0fcd0693          	addi	a3,s10,252
    80004cbc:	8df5                	and	a1,a1,a3
    80004cbe:	058e                	slli	a1,a1,0x3
    80004cc0:	95aa                	add	a1,a1,a0
    80004cc2:	0005bc03          	ld	s8,0(a1)
    80004cc6:	03063c83          	ld	s9,48(a2)
    80004cca:	65fa                	ld	a1,408(sp)
    80004ccc:	669a                	ld	a3,384(sp)
    80004cce:	95b6                	add	a1,a1,a3
    80004cd0:	058e                	slli	a1,a1,0x3
    80004cd2:	95aa                	add	a1,a1,a0
    80004cd4:	6194                	ld	a3,0(a1)
    80004cd6:	7e1c                	ld	a5,56(a2)
    80004cd8:	4e01                	li	t3,0
    80004cda:	4d01                	li	s10,0
    80004cdc:	4701                	li	a4,0
    80004cde:	4401                	li	s0,0
    80004ce0:	ec85                	bnez	s1,80004d18 <bilateral_core+0x2b1e>
    80004ce2:	22813483          	ld	s1,552(sp)
    80004ce6:	001485b3          	add	a1,s1,ra
    80004cea:	24813403          	ld	s0,584(sp)
    80004cee:	0fe40713          	addi	a4,s0,254
    80004cf2:	8df9                	and	a1,a1,a4
    80004cf4:	058e                	slli	a1,a1,0x3
    80004cf6:	95aa                	add	a1,a1,a0
    80004cf8:	0005bd03          	ld	s10,0(a1)
    80004cfc:	04063e03          	ld	t3,64(a2)
    80004d00:	27013583          	ld	a1,624(sp)
    80004d04:	00f5e713          	ori	a4,a1,15
    80004d08:	9726                	add	a4,a4,s1
    80004d0a:	0ff40413          	addi	s0,s0,255
    80004d0e:	8f61                	and	a4,a4,s0
    80004d10:	070e                	slli	a4,a4,0x3
    80004d12:	972a                	add	a4,a4,a0
    80004d14:	6318                	ld	a4,0(a4)
    80004d16:	6620                	ld	s0,72(a2)
    80004d18:	814f058b          	.insn	4, 0x814f058b
    80004d1c:	6133058b          	.insn	4, 0x6133058b
    80004d20:	4119058b          	.insn	4, 0x4119058b
    80004d24:	21f3858b          	.insn	4, 0x21f3858b
    80004d28:	28013483          	ld	s1,640(sp)
    80004d2c:	009d98fb          	.insn	4, 0x009d98fb
    80004d30:	f2088153          	fmv.d.x	ft2,a7
    80004d34:	02017153          	fadd.d	ft2,ft2,ft0
    80004d38:	84fc858b          	.insn	4, 0x84fc858b
    80004d3c:	657a858b          	.insn	4, 0x657a858b
    80004d40:	44dc058b          	.insn	4, 0x44dc058b
    80004d44:	2568058b          	.insn	4, 0x2568058b
    80004d48:	409d937b          	.insn	4, 0x409d937b
    80004d4c:	f20301d3          	fmv.d.x	ft3,t1
    80004d50:	02317153          	fadd.d	ft2,ft2,ft3
    80004d54:	0002b583          	ld	a1,0(t0)
    80004d58:	05063803          	ld	a6,80(a2)
    80004d5c:	24813683          	ld	a3,584(sp)
    80004d60:	0fc68693          	addi	a3,a3,252
    80004d64:	f736                	sd	a3,424(sp)
    80004d66:	77b2                	ld	a5,296(sp)
    80004d68:	8efd                	and	a3,a3,a5
    80004d6a:	068e                	slli	a3,a3,0x3
    80004d6c:	96aa                	add	a3,a3,a0
    80004d6e:	f5b6                	sd	a3,232(sp)
    80004d70:	6294                	ld	a3,0(a3)
    80004d72:	6e3c                	ld	a5,88(a2)
    80004d74:	688e040b          	.insn	4, 0x688e040b
    80004d78:	28ed070b          	.insn	4, 0x28ed070b
    80004d7c:	089d870b          	.insn	4, 0x089d870b
    80004d80:	48d5858b          	.insn	4, 0x48d5858b
    80004d84:	90f813fb          	.insn	4, 0x90f813fb
    80004d88:	f20381d3          	fmv.d.x	ft3,t2
    80004d8c:	02317153          	fadd.d	ft2,ft2,ft3
    80004d90:	06063803          	ld	a6,96(a2)
    80004d94:	000eb283          	ld	t0,0(t4)
    80004d98:	06863e03          	ld	t3,104(a2)
    80004d9c:	27013f83          	ld	t6,624(sp)
    80004da0:	00ffe413          	ori	s0,t6,15
    80004da4:	25013583          	ld	a1,592(sp)
    80004da8:	008587b3          	add	a5,a1,s0
    80004dac:	00379593          	slli	a1,a5,0x3
    80004db0:	e22e                	sd	a1,256(sp)
    80004db2:	95aa                	add	a1,a1,a0
    80004db4:	f6ae                	sd	a1,360(sp)
    80004db6:	619c                	ld	a5,0(a1)
    80004db8:	07063903          	ld	s2,112(a2)
    80004dbc:	759a                	ld	a1,416(sp)
    80004dbe:	6198                	ld	a4,0(a1)
    80004dc0:	7e2c                	ld	a1,120(a2)
    80004dc2:	0c9d868b          	.insn	4, 0x0c9d868b
    80004dc6:	2c5d868b          	.insn	4, 0x2c5d868b
    80004dca:	6dc8068b          	.insn	4, 0x6dc8068b
    80004dce:	4ce7868b          	.insn	4, 0x4ce7868b
    80004dd2:	d0b91e7b          	.insn	4, 0xd0b91e7b
    80004dd6:	f20e01d3          	fmv.d.x	ft3,t3
    80004dda:	02317153          	fadd.d	ft2,ft2,ft3
    80004dde:	65ba                	ld	a1,392(sp)
    80004de0:	618c                	ld	a1,0(a1)
    80004de2:	08063803          	ld	a6,128(a2)
    80004de6:	66da                	ld	a3,400(sp)
    80004de8:	629c                	ld	a5,0(a3)
    80004dea:	6658                	ld	a4,136(a2)
    80004dec:	76d2                	ld	a3,304(sp)
    80004dee:	8936                	mv	s2,a3
    80004df0:	0006b283          	ld	t0,0(a3)
    80004df4:	6a54                	ld	a3,144(a2)
    80004df6:	3cf5858b          	.insn	4, 0x3cf5858b
    80004dfa:	23013583          	ld	a1,560(sp)
    80004dfe:	20813c23          	sd	s0,536(sp)
    80004e02:	95a2                	add	a1,a1,s0
    80004e04:	058e                	slli	a1,a1,0x3
    80004e06:	00b50a33          	add	s4,a0,a1
    80004e0a:	000a3583          	ld	a1,0(s4)
    80004e0e:	7ce8070b          	.insn	4, 0x7ce8070b
    80004e12:	6e58                	ld	a4,152(a2)
    80004e14:	1c9d878b          	.insn	4, 0x1c9d878b
    80004e18:	5cb2858b          	.insn	4, 0x5cb2858b
    80004e1c:	d0e695fb          	.insn	4, 0xd0e695fb
    80004e20:	f20581d3          	fmv.d.x	ft3,a1
    80004e24:	02317153          	fadd.d	ft2,ft2,ft3
    80004e28:	65d6                	ld	a1,336(sp)
    80004e2a:	618c                	ld	a1,0(a1)
    80004e2c:	7254                	ld	a3,160(a2)
    80004e2e:	7658                	ld	a4,168(a2)
    80004e30:	6796                	ld	a5,320(sp)
    80004e32:	639c                	ld	a5,0(a5)
    80004e34:	23813483          	ld	s1,568(sp)
    80004e38:	f606                	sd	ra,296(sp)
    80004e3a:	9486                	add	s1,s1,ra
    80004e3c:	048e                	slli	s1,s1,0x3
    80004e3e:	94aa                	add	s1,s1,a0
    80004e40:	7ce6868b          	.insn	4, 0x7ce6868b
    80004e44:	eaa6                	sd	s1,336(sp)
    80004e46:	6094                	ld	a3,0(s1)
    80004e48:	6736                	ld	a4,328(sp)
    80004e4a:	6318                	ld	a4,0(a4)
    80004e4c:	5cd7868b          	.insn	4, 0x5cd7868b
    80004e50:	7a54                	ld	a3,176(a2)
    80004e52:	7e5c                	ld	a5,184(a2)
    80004e54:	3ce5885b          	.insn	4, 0x3ce5885b
    80004e58:	d0f695fb          	.insn	4, 0xd0f695fb
    80004e5c:	f20581d3          	fmv.d.x	ft3,a1
    80004e60:	02317153          	fadd.d	ft2,ft2,ft3
    80004e64:	26013583          	ld	a1,608(sp)
    80004e68:	20f58593          	addi	a1,a1,527
    80004e6c:	058e                	slli	a1,a1,0x3
    80004e6e:	95aa                	add	a1,a1,a0
    80004e70:	618c                	ld	a1,0(a1)
    80004e72:	6274                	ld	a3,192(a2)
    80004e74:	3c0582db          	.insn	4, 0x3c0582db
    80004e78:	cc0696fb          	.insn	4, 0xcc0696fb
    80004e7c:	f20681d3          	fmv.d.x	ft3,a3
    80004e80:	02317153          	fadd.d	ft2,ft2,ft3
    80004e84:	0118872b          	.insn	4, 0x0118872b
    80004e88:	046305ab          	.insn	4, 0x046305ab
    80004e8c:	0873842b          	.insn	4, 0x0873842b
    80004e90:	a22097d3          	flt.d	a5,ft1,ft2
    80004e94:	0dce04ab          	.insn	4, 0x0dce04ab
    80004e98:	1cd686ab          	.insn	4, 0x1cd686ab
    80004e9c:	c3a9                	beqz	a5,80004ede <bilateral_core+0x2ce4>
    80004e9e:	f20701d3          	fmv.d.x	ft3,a4
    80004ea2:	0201f1d3          	fadd.d	ft3,ft3,ft0
    80004ea6:	f2058253          	fmv.d.x	ft4,a1
    80004eaa:	0241f1d3          	fadd.d	ft3,ft3,ft4
    80004eae:	f2040253          	fmv.d.x	ft4,s0
    80004eb2:	0241f1d3          	fadd.d	ft3,ft3,ft4
    80004eb6:	f2048253          	fmv.d.x	ft4,s1
    80004eba:	0241f1d3          	fadd.d	ft3,ft3,ft4
    80004ebe:	f2080253          	fmv.d.x	ft4,a6
    80004ec2:	0241f1d3          	fadd.d	ft3,ft3,ft4
    80004ec6:	f2028253          	fmv.d.x	ft4,t0
    80004eca:	0241f1d3          	fadd.d	ft3,ft3,ft4
    80004ece:	f2068253          	fmv.d.x	ft4,a3
    80004ed2:	0241f1d3          	fadd.d	ft3,ft3,ft4
    80004ed6:	1a21f153          	fdiv.d	ft2,ft3,ft2
    80004eda:	e2010dd3          	fmv.x.d	s11,ft2
    80004ede:	4d01                	li	s10,0
    80004ee0:	4381                	li	t2,0
    80004ee2:	4281                	li	t0,0
    80004ee4:	4c01                	li	s8,0
    80004ee6:	4301                	li	t1,0
    80004ee8:	4e01                	li	t3,0
    80004eea:	4b81                	li	s7,0
    80004eec:	27813583          	ld	a1,632(sp)
    80004ef0:	7692                	ld	a3,288(sp)
    80004ef2:	95b6                	add	a1,a1,a3
    80004ef4:	01b5b023          	sd	s11,0(a1)
    80004ef8:	000eb083          	ld	ra,0(t4)
    80004efc:	4e81                	li	t4,0
    80004efe:	24813783          	ld	a5,584(sp)
    80004f02:	22813803          	ld	a6,552(sp)
    80004f06:	25813583          	ld	a1,600(sp)
    80004f0a:	22013703          	ld	a4,544(sp)
    80004f0e:	eda1                	bnez	a1,80004f66 <bilateral_core+0x2d6c>
    80004f10:	75d6                	ld	a1,368(sp)
    80004f12:	95ba                	add	a1,a1,a4
    80004f14:	76ba                	ld	a3,424(sp)
    80004f16:	8df5                	and	a1,a1,a3
    80004f18:	058e                	slli	a1,a1,0x3
    80004f1a:	95aa                	add	a1,a1,a0
    80004f1c:	0005bc03          	ld	s8,0(a1)
    80004f20:	00063283          	ld	t0,0(a2)
    80004f24:	659a                	ld	a1,384(sp)
    80004f26:	95ba                	add	a1,a1,a4
    80004f28:	0fd78693          	addi	a3,a5,253
    80004f2c:	8df5                	and	a1,a1,a3
    80004f2e:	058e                	slli	a1,a1,0x3
    80004f30:	95aa                	add	a1,a1,a0
    80004f32:	0005b303          	ld	t1,0(a1)
    80004f36:	00863e03          	ld	t3,8(a2)
    80004f3a:	20813583          	ld	a1,520(sp)
    80004f3e:	76b2                	ld	a3,296(sp)
    80004f40:	95b6                	add	a1,a1,a3
    80004f42:	058e                	slli	a1,a1,0x3
    80004f44:	95aa                	add	a1,a1,a0
    80004f46:	0005b383          	ld	t2,0(a1)
    80004f4a:	01063d03          	ld	s10,16(a2)
    80004f4e:	21813583          	ld	a1,536(sp)
    80004f52:	95ba                	add	a1,a1,a4
    80004f54:	0ff78693          	addi	a3,a5,255
    80004f58:	8df5                	and	a1,a1,a3
    80004f5a:	058e                	slli	a1,a1,0x3
    80004f5c:	95aa                	add	a1,a1,a0
    80004f5e:	0005bb83          	ld	s7,0(a1)
    80004f62:	01863e83          	ld	t4,24(a2)
    80004f66:	4c81                	li	s9,0
    80004f68:	0f0fbf13          	sltiu	t5,t6,240
    80004f6c:	65f6                	ld	a1,344(sp)
    80004f6e:	01e5f5b3          	and	a1,a1,t5
    80004f72:	4d81                	li	s11,0
    80004f74:	24013483          	ld	s1,576(sp)
    80004f78:	cd89                	beqz	a1,80004f92 <bilateral_core+0x2d98>
    80004f7a:	00ef85b3          	add	a1,t6,a4
    80004f7e:	05c1                	addi	a1,a1,16
    80004f80:	20013683          	ld	a3,512(sp)
    80004f84:	8df5                	and	a1,a1,a3
    80004f86:	058e                	slli	a1,a1,0x3
    80004f88:	95aa                	add	a1,a1,a0
    80004f8a:	0005bc83          	ld	s9,0(a1)
    80004f8e:	02063d83          	ld	s11,32(a2)
    80004f92:	ee02                	sd	zero,280(sp)
    80004f94:	4881                	li	a7,0
    80004f96:	4701                	li	a4,0
    80004f98:	4a81                	li	s5,0
    80004f9a:	4581                	li	a1,0
    80004f9c:	4681                	li	a3,0
    80004f9e:	ec85                	bnez	s1,80004fd6 <bilateral_core+0x2ddc>
    80004fa0:	75d6                	ld	a1,368(sp)
    80004fa2:	95c2                	add	a1,a1,a6
    80004fa4:	76ba                	ld	a3,424(sp)
    80004fa6:	8df5                	and	a1,a1,a3
    80004fa8:	058e                	slli	a1,a1,0x3
    80004faa:	95aa                	add	a1,a1,a0
    80004fac:	6198                	ld	a4,0(a1)
    80004fae:	02863a83          	ld	s5,40(a2)
    80004fb2:	659a                	ld	a1,384(sp)
    80004fb4:	95c2                	add	a1,a1,a6
    80004fb6:	0fd78693          	addi	a3,a5,253
    80004fba:	8df5                	and	a1,a1,a3
    80004fbc:	058e                	slli	a1,a1,0x3
    80004fbe:	95aa                	add	a1,a1,a0
    80004fc0:	0005b883          	ld	a7,0(a1)
    80004fc4:	7a0c                	ld	a1,48(a2)
    80004fc6:	ee2e                	sd	a1,280(sp)
    80004fc8:	65fa                	ld	a1,408(sp)
    80004fca:	76b2                	ld	a3,296(sp)
    80004fcc:	95b6                	add	a1,a1,a3
    80004fce:	058e                	slli	a1,a1,0x3
    80004fd0:	95aa                	add	a1,a1,a0
    80004fd2:	618c                	ld	a1,0(a1)
    80004fd4:	7e14                	ld	a3,56(a2)
    80004fd6:	edb6                	sd	a3,216(sp)
    80004fd8:	f1ae                	sd	a1,224(sp)
    80004fda:	f202                	sd	zero,288(sp)
    80004fdc:	fa82                	sd	zero,368(sp)
    80004fde:	4581                	li	a1,0
    80004fe0:	4681                	li	a3,0
    80004fe2:	ec95                	bnez	s1,8000501e <bilateral_core+0x2e24>
    80004fe4:	21813583          	ld	a1,536(sp)
    80004fe8:	95c2                	add	a1,a1,a6
    80004fea:	0ff78693          	addi	a3,a5,255
    80004fee:	8df5                	and	a1,a1,a3
    80004ff0:	058e                	slli	a1,a1,0x3
    80004ff2:	95aa                	add	a1,a1,a0
    80004ff4:	6194                	ld	a3,0(a1)
    80004ff6:	6224                	ld	s1,64(a2)
    80004ff8:	0ef00593          	li	a1,239
    80004ffc:	fab6                	sd	a3,368(sp)
    80004ffe:	f226                	sd	s1,288(sp)
    80005000:	01f5ed63          	bltu	a1,t6,8000501a <bilateral_core+0x2e20>
    80005004:	010f85b3          	add	a1,t6,a6
    80005008:	05c1                	addi	a1,a1,16
    8000500a:	20013683          	ld	a3,512(sp)
    8000500e:	8df5                	and	a1,a1,a3
    80005010:	058e                	slli	a1,a1,0x3
    80005012:	95aa                	add	a1,a1,a0
    80005014:	618c                	ld	a1,0(a1)
    80005016:	6634                	ld	a3,72(a2)
    80005018:	a019                	j	8000501e <bilateral_core+0x2e24>
    8000501a:	4581                	li	a1,0
    8000501c:	4681                	li	a3,0
    8000501e:	e5b6                	sd	a3,200(sp)
    80005020:	e9ae                	sd	a1,208(sp)
    80005022:	75ae                	ld	a1,232(sp)
    80005024:	0005b803          	ld	a6,0(a1)
    80005028:	6a2c                	ld	a1,80(a2)
    8000502a:	f92e                	sd	a1,176(sp)
    8000502c:	0fd78593          	addi	a1,a5,253
    80005030:	f32e                	sd	a1,416(sp)
    80005032:	66b2                	ld	a3,264(sp)
    80005034:	8df5                	and	a1,a1,a3
    80005036:	058e                	slli	a1,a1,0x3
    80005038:	00b509b3          	add	s3,a0,a1
    8000503c:	0009b403          	ld	s0,0(s3)
    80005040:	6e24                	ld	s1,88(a2)
    80005042:	06063b03          	ld	s6,96(a2)
    80005046:	75b6                	ld	a1,360(sp)
    80005048:	619c                	ld	a5,0(a1)
    8000504a:	762c                	ld	a1,104(a2)
    8000504c:	fd2e                	sd	a1,184(sp)
    8000504e:	0ef00593          	li	a1,239
    80005052:	f5be                	sd	a5,232(sp)
    80005054:	e1c6                	sd	a7,192(sp)
    80005056:	f522                	sd	s0,168(sp)
    80005058:	e926                	sd	s1,144(sp)
    8000505a:	f0d6                	sd	s5,96(sp)
    8000505c:	01f5e863          	bltu	a1,t6,8000506c <bilateral_core+0x2e72>
    80005060:	65c6                	ld	a1,80(sp)
    80005062:	61cc                	ld	a1,128(a1)
    80005064:	e0ae                	sd	a1,64(sp)
    80005066:	7a2c                	ld	a1,112(a2)
    80005068:	fc2e                	sd	a1,56(sp)
    8000506a:	a019                	j	80005070 <bilateral_core+0x2e76>
    8000506c:	e082                	sd	zero,64(sp)
    8000506e:	fc02                	sd	zero,56(sp)
    80005070:	87ca                	mv	a5,s2
    80005072:	65ba                	ld	a1,392(sp)
    80005074:	618c                	ld	a1,0(a1)
    80005076:	f8ae                	sd	a1,112(sp)
    80005078:	7e2c                	ld	a1,120(a2)
    8000507a:	f4ae                	sd	a1,104(sp)
    8000507c:	65da                	ld	a1,400(sp)
    8000507e:	0005b883          	ld	a7,0(a1)
    80005082:	08063903          	ld	s2,128(a2)
    80005086:	639c                	ld	a5,0(a5)
    80005088:	6654                	ld	a3,136(a2)
    8000508a:	000a3403          	ld	s0,0(s4)
    8000508e:	6a44                	ld	s1,144(a2)
    80005090:	0ef00593          	li	a1,239
    80005094:	e4d2                	sd	s4,72(sp)
    80005096:	f9fa                	sd	t5,240(sp)
    80005098:	e64e                	sd	s3,264(sp)
    8000509a:	e746                	sd	a7,392(sp)
    8000509c:	f14a                	sd	s2,160(sp)
    8000509e:	ed3e                	sd	a5,152(sp)
    800050a0:	e536                	sd	a3,136(sp)
    800050a2:	e122                	sd	s0,128(sp)
    800050a4:	fca6                	sd	s1,120(sp)
    800050a6:	ecda                	sd	s6,88(sp)
    800050a8:	8942                	mv	s2,a6
    800050aa:	87e2                	mv	a5,s8
    800050ac:	01f5e863          	bltu	a1,t6,800050bc <bilateral_core+0x2ec2>
    800050b0:	7596                	ld	a1,352(sp)
    800050b2:	61cc                	ld	a1,128(a1)
    800050b4:	f42e                	sd	a1,40(sp)
    800050b6:	6e4c                	ld	a1,152(a2)
    800050b8:	f82e                	sd	a1,48(sp)
    800050ba:	a019                	j	800050c0 <bilateral_core+0x2ec6>
    800050bc:	f402                	sd	zero,40(sp)
    800050be:	f802                	sd	zero,48(sp)
    800050c0:	846a                	mv	s0,s10
    800050c2:	6696                	ld	a3,320(sp)
    800050c4:	64d6                	ld	s1,336(sp)
    800050c6:	65b6                	ld	a1,328(sp)
    800050c8:	0005b883          	ld	a7,0(a1)
    800050cc:	0a063a83          	ld	s5,160(a2)
    800050d0:	0006bf83          	ld	t6,0(a3)
    800050d4:	0a863a03          	ld	s4,168(a2)
    800050d8:	0004bd03          	ld	s10,0(s1)
    800050dc:	0b063f03          	ld	t5,176(a2)
    800050e0:	23813583          	ld	a1,568(sp)
    800050e4:	21813683          	ld	a3,536(sp)
    800050e8:	96ae                	add	a3,a3,a1
    800050ea:	068e                	slli	a3,a3,0x3
    800050ec:	00d505b3          	add	a1,a0,a3
    800050f0:	e6ae                	sd	a1,328(sp)
    800050f2:	0005bb03          	ld	s6,0(a1)
    800050f6:	0b863803          	ld	a6,184(a2)
    800050fa:	0ef00593          	li	a1,239
    800050fe:	27013683          	ld	a3,624(sp)
    80005102:	00d5ee63          	bltu	a1,a3,8000511e <bilateral_core+0x2f24>
    80005106:	869e                	mv	a3,t2
    80005108:	26013583          	ld	a1,608(sp)
    8000510c:	21058593          	addi	a1,a1,528
    80005110:	058e                	slli	a1,a1,0x3
    80005112:	95aa                	add	a1,a1,a0
    80005114:	0005b383          	ld	t2,0(a1)
    80005118:	0c063c03          	ld	s8,192(a2)
    8000511c:	a021                	j	80005124 <bilateral_core+0x2f2a>
    8000511e:	869e                	mv	a3,t2
    80005120:	4381                	li	t2,0
    80005122:	4c01                	li	s8,0
    80005124:	69f2                	ld	s3,280(sp)
    80005126:	81d4058b          	.insn	4, 0x81d4058b
    8000512a:	61c2858b          	.insn	4, 0x61c2858b
    8000512e:	4176858b          	.insn	4, 0x4176858b
    80005132:	2067858b          	.insn	4, 0x2067858b
    80005136:	28013683          	ld	a3,640(sp)
    8000513a:	00d092fb          	.insn	4, 0x00d092fb
    8000513e:	67ee                	ld	a5,216(sp)
    80005140:	84f9898b          	.insn	4, 0x84f9898b
    80005144:	7586                	ld	a1,96(sp)
    80005146:	64bd878b          	.insn	4, 0x64bd878b
    8000514a:	778e                	ld	a5,224(sp)
    8000514c:	648e                	ld	s1,192(sp)
    8000514e:	44f4878b          	.insn	4, 0x44f4878b
    80005152:	f2028153          	fmv.d.x	ft2,t0
    80005156:	24ec878b          	.insn	4, 0x24ec878b
    8000515a:	02017153          	fadd.d	ft2,ft2,ft0
    8000515e:	40d097fb          	.insn	4, 0x40d097fb
    80005162:	774a                	ld	a4,176(sp)
    80005164:	65ca                	ld	a1,144(sp)
    80005166:	88b7048b          	.insn	4, 0x88b7048b
    8000516a:	7712                	ld	a4,288(sp)
    8000516c:	64ae                	ld	s1,200(sp)
    8000516e:	6897048b          	.insn	4, 0x6897048b
    80005172:	772a                	ld	a4,168(sp)
    80005174:	48e9048b          	.insn	4, 0x48e9048b
    80005178:	f20781d3          	fmv.d.x	ft3,a5
    8000517c:	7756                	ld	a4,368(sp)
    8000517e:	64ce                	ld	s1,208(sp)
    80005180:	2897048b          	.insn	4, 0x2897048b
    80005184:	02317153          	fadd.d	ft2,ft2,ft3
    80005188:	80d094fb          	.insn	4, 0x80d094fb
    8000518c:	75e2                	ld	a1,56(sp)
    8000518e:	7726                	ld	a4,104(sp)
    80005190:	8ce5870b          	.insn	4, 0x8ce5870b
    80005194:	776a                	ld	a4,184(sp)
    80005196:	65e6                	ld	a1,88(sp)
    80005198:	6ce5870b          	.insn	4, 0x6ce5870b
    8000519c:	6706                	ld	a4,64(sp)
    8000519e:	75c6                	ld	a1,112(sp)
    800051a0:	4cb7070b          	.insn	4, 0x4cb7070b
    800051a4:	f20481d3          	fmv.d.x	ft3,s1
    800051a8:	75e6                	ld	a1,120(sp)
    800051aa:	7742                	ld	a4,48(sp)
    800051ac:	9ce5870b          	.insn	4, 0x9ce5870b
    800051b0:	02317153          	fadd.d	ft2,ft2,ft3
    800051b4:	772e                	ld	a4,232(sp)
    800051b6:	2ce0870b          	.insn	4, 0x2ce0870b
    800051ba:	c0d0977b          	.insn	4, 0xc0d0977b
    800051be:	740a                	ld	s0,160(sp)
    800051c0:	65aa                	ld	a1,136(sp)
    800051c2:	7cb4040b          	.insn	4, 0x7cb4040b
    800051c6:	658a                	ld	a1,128(sp)
    800051c8:	7422                	ld	s0,40(sp)
    800051ca:	5c85840b          	.insn	4, 0x5c85840b
    800051ce:	643a                	ld	s0,392(sp)
    800051d0:	65ea                	ld	a1,152(sp)
    800051d2:	3cb4040b          	.insn	4, 0x3cb4040b
    800051d6:	f20701d3          	fmv.d.x	ft3,a4
    800051da:	c0d0947b          	.insn	4, 0xc0d0947b
    800051de:	02317153          	fadd.d	ft2,ft2,ft3
    800051e2:	7d4a868b          	.insn	4, 0x7d4a868b
    800051e6:	5d6d068b          	.insn	4, 0x5d6d068b
    800051ea:	f20401d3          	fmv.d.x	ft3,s0
    800051ee:	9d0f085b          	.insn	4, 0x9d0f085b
    800051f2:	c5f896fb          	.insn	4, 0xc5f896fb
    800051f6:	02317153          	fadd.d	ft2,ft2,ft3
    800051fa:	f20681d3          	fmv.d.x	ft3,a3
    800051fe:	02317153          	fadd.d	ft2,ft2,ft3
    80005202:	7c0c08db          	.insn	4, 0x7c0c08db
    80005206:	c403947b          	.insn	4, 0xc403947b
    8000520a:	f20401d3          	fmv.d.x	ft3,s0
    8000520e:	02317153          	fadd.d	ft2,ft2,ft3
    80005212:	005285ab          	.insn	4, 0x005285ab
    80005216:	04f786ab          	.insn	4, 0x04f786ab
    8000521a:	089487ab          	.insn	4, 0x089487ab
    8000521e:	a22094d3          	flt.d	s1,ft1,ft2
    80005222:	0ce7072b          	.insn	4, 0x0ce7072b
    80005226:	1c84042b          	.insn	4, 0x1c84042b
    8000522a:	c0a9                	beqz	s1,8000526c <bilateral_core+0x3072>
    8000522c:	f20581d3          	fmv.d.x	ft3,a1
    80005230:	0201f1d3          	fadd.d	ft3,ft3,ft0
    80005234:	f2068253          	fmv.d.x	ft4,a3
    80005238:	0241f1d3          	fadd.d	ft3,ft3,ft4
    8000523c:	f2078253          	fmv.d.x	ft4,a5
    80005240:	0241f1d3          	fadd.d	ft3,ft3,ft4
    80005244:	f2070253          	fmv.d.x	ft4,a4
    80005248:	0241f1d3          	fadd.d	ft3,ft3,ft4
    8000524c:	f2080253          	fmv.d.x	ft4,a6
    80005250:	0241f1d3          	fadd.d	ft3,ft3,ft4
    80005254:	f2088253          	fmv.d.x	ft4,a7
    80005258:	0241f1d3          	fadd.d	ft3,ft3,ft4
    8000525c:	f2040253          	fmv.d.x	ft4,s0
    80005260:	0241f1d3          	fadd.d	ft3,ft3,ft4
    80005264:	1a21f153          	fdiv.d	ft2,ft3,ft2
    80005268:	e20100d3          	fmv.x.d	ra,ft2
    8000526c:	4e01                	li	t3,0
    8000526e:	4b01                	li	s6,0
    80005270:	4f01                	li	t5,0
    80005272:	4a81                	li	s5,0
    80005274:	4f81                	li	t6,0
    80005276:	4a01                	li	s4,0
    80005278:	4781                	li	a5,0
    8000527a:	27813583          	ld	a1,632(sp)
    8000527e:	76ee                	ld	a3,248(sp)
    80005280:	95b6                	add	a1,a1,a3
    80005282:	0015b023          	sd	ra,0(a1)
    80005286:	75b6                	ld	a1,360(sp)
    80005288:	0005bc03          	ld	s8,0(a1)
    8000528c:	4681                	li	a3,0
    8000528e:	24813803          	ld	a6,584(sp)
    80005292:	24013883          	ld	a7,576(sp)
    80005296:	22813403          	ld	s0,552(sp)
    8000529a:	7976                	ld	s2,376(sp)
    8000529c:	27013983          	ld	s3,624(sp)
    800052a0:	25813583          	ld	a1,600(sp)
    800052a4:	22013703          	ld	a4,544(sp)
    800052a8:	72b2                	ld	t0,296(sp)
    800052aa:	e1b5                	bnez	a1,8000530e <bilateral_core+0x3114>
    800052ac:	659a                	ld	a1,384(sp)
    800052ae:	95ba                	add	a1,a1,a4
    800052b0:	769a                	ld	a3,416(sp)
    800052b2:	8df5                	and	a1,a1,a3
    800052b4:	058e                	slli	a1,a1,0x3
    800052b6:	95aa                	add	a1,a1,a0
    800052b8:	0005ba83          	ld	s5,0(a1)
    800052bc:	00063f03          	ld	t5,0(a2)
    800052c0:	005705b3          	add	a1,a4,t0
    800052c4:	0fe80693          	addi	a3,a6,254
    800052c8:	8df5                	and	a1,a1,a3
    800052ca:	058e                	slli	a1,a1,0x3
    800052cc:	95aa                	add	a1,a1,a0
    800052ce:	0005bf83          	ld	t6,0(a1)
    800052d2:	00863a03          	ld	s4,8(a2)
    800052d6:	20813583          	ld	a1,520(sp)
    800052da:	21813683          	ld	a3,536(sp)
    800052de:	95b6                	add	a1,a1,a3
    800052e0:	058e                	slli	a1,a1,0x3
    800052e2:	95aa                	add	a1,a1,a0
    800052e4:	0005bb03          	ld	s6,0(a1)
    800052e8:	01063e03          	ld	t3,16(a2)
    800052ec:	0ef00593          	li	a1,239
    800052f0:	0135ed63          	bltu	a1,s3,8000530a <bilateral_core+0x3110>
    800052f4:	00e985b3          	add	a1,s3,a4
    800052f8:	05c1                	addi	a1,a1,16
    800052fa:	20013683          	ld	a3,512(sp)
    800052fe:	8df5                	and	a1,a1,a3
    80005300:	058e                	slli	a1,a1,0x3
    80005302:	95aa                	add	a1,a1,a0
    80005304:	619c                	ld	a5,0(a1)
    80005306:	6e14                	ld	a3,24(a2)
    80005308:	a019                	j	8000530e <bilateral_core+0x3114>
    8000530a:	4781                	li	a5,0
    8000530c:	4681                	li	a3,0
    8000530e:	f5b6                	sd	a3,232(sp)
    80005310:	4481                	li	s1,0
    80005312:	0ef9b393          	sltiu	t2,s3,239
    80005316:	66f6                	ld	a3,344(sp)
    80005318:	0076f6b3          	and	a3,a3,t2
    8000531c:	4581                	li	a1,0
    8000531e:	ca99                	beqz	a3,80005334 <bilateral_core+0x313a>
    80005320:	00e986b3          	add	a3,s3,a4
    80005324:	06c5                	addi	a3,a3,17
    80005326:	21013703          	ld	a4,528(sp)
    8000532a:	8ef9                	and	a3,a3,a4
    8000532c:	068e                	slli	a3,a3,0x3
    8000532e:	96aa                	add	a3,a3,a0
    80005330:	6284                	ld	s1,0(a3)
    80005332:	720c                	ld	a1,32(a2)
    80005334:	e1ae                	sd	a1,192(sp)
    80005336:	e5a6                	sd	s1,200(sp)
    80005338:	edbe                	sd	a5,216(sp)
    8000533a:	4d81                	li	s11,0
    8000533c:	4d01                	li	s10,0
    8000533e:	4b81                	li	s7,0
    80005340:	4c81                	li	s9,0
    80005342:	4681                	li	a3,0
    80005344:	4081                	li	ra,0
    80005346:	04089063          	bnez	a7,80005386 <bilateral_core+0x318c>
    8000534a:	669a                	ld	a3,384(sp)
    8000534c:	96a2                	add	a3,a3,s0
    8000534e:	771a                	ld	a4,416(sp)
    80005350:	8ef9                	and	a3,a3,a4
    80005352:	068e                	slli	a3,a3,0x3
    80005354:	96aa                	add	a3,a3,a0
    80005356:	0006bb83          	ld	s7,0(a3)
    8000535a:	02863c83          	ld	s9,40(a2)
    8000535e:	005406b3          	add	a3,s0,t0
    80005362:	0fe80713          	addi	a4,a6,254
    80005366:	8ef9                	and	a3,a3,a4
    80005368:	068e                	slli	a3,a3,0x3
    8000536a:	96aa                	add	a3,a3,a0
    8000536c:	0006bd03          	ld	s10,0(a3)
    80005370:	03063d83          	ld	s11,48(a2)
    80005374:	66fa                	ld	a3,408(sp)
    80005376:	21813703          	ld	a4,536(sp)
    8000537a:	96ba                	add	a3,a3,a4
    8000537c:	068e                	slli	a3,a3,0x3
    8000537e:	96aa                	add	a3,a3,a0
    80005380:	6294                	ld	a3,0(a3)
    80005382:	03863083          	ld	ra,56(a2)
    80005386:	fd72                	sd	t3,184(sp)
    80005388:	f1b6                	sd	a3,224(sp)
    8000538a:	4881                	li	a7,0
    8000538c:	76ce                	ld	a3,240(sp)
    8000538e:	00d976b3          	and	a3,s2,a3
    80005392:	4301                	li	t1,0
    80005394:	ce89                	beqz	a3,800053ae <bilateral_core+0x31b4>
    80005396:	008986b3          	add	a3,s3,s0
    8000539a:	06c1                	addi	a3,a3,16
    8000539c:	20013703          	ld	a4,512(sp)
    800053a0:	8ef9                	and	a3,a3,a4
    800053a2:	068e                	slli	a3,a3,0x3
    800053a4:	96aa                	add	a3,a3,a0
    800053a6:	0006b883          	ld	a7,0(a3)
    800053aa:	04063303          	ld	t1,64(a2)
    800053ae:	4e81                	li	t4,0
    800053b0:	007975b3          	and	a1,s2,t2
    800053b4:	4281                	li	t0,0
    800053b6:	cd89                	beqz	a1,800053d0 <bilateral_core+0x31d6>
    800053b8:	008985b3          	add	a1,s3,s0
    800053bc:	05c5                	addi	a1,a1,17
    800053be:	21013683          	ld	a3,528(sp)
    800053c2:	8df5                	and	a1,a1,a3
    800053c4:	058e                	slli	a1,a1,0x3
    800053c6:	95aa                	add	a1,a1,a0
    800053c8:	0005be83          	ld	t4,0(a1)
    800053cc:	04863283          	ld	t0,72(a2)
    800053d0:	65b2                	ld	a1,264(sp)
    800053d2:	0005b903          	ld	s2,0(a1)
    800053d6:	05063383          	ld	t2,80(a2)
    800053da:	0fe80593          	addi	a1,a6,254
    800053de:	20b13c23          	sd	a1,536(sp)
    800053e2:	66d2                	ld	a3,272(sp)
    800053e4:	8df5                	and	a1,a1,a3
    800053e6:	058e                	slli	a1,a1,0x3
    800053e8:	95aa                	add	a1,a1,a0
    800053ea:	0005b803          	ld	a6,0(a1)
    800053ee:	6e38                	ld	a4,88(a2)
    800053f0:	7234                	ld	a3,96(a2)
    800053f2:	0ef00593          	li	a1,239
    800053f6:	e756                	sd	s5,392(sp)
    800053f8:	fada                	sd	s6,368(sp)
    800053fa:	e336                	sd	a3,384(sp)
    800053fc:	eeba                	sd	a4,344(sp)
    800053fe:	0135ec63          	bltu	a1,s3,80005416 <bilateral_core+0x321c>
    80005402:	762c                	ld	a1,104(a2)
    80005404:	e62e                	sd	a1,264(sp)
    80005406:	65c6                	ld	a1,80(sp)
    80005408:	61d4                	ld	a3,128(a1)
    8000540a:	ea36                	sd	a3,272(sp)
    8000540c:	65cc                	ld	a1,136(a1)
    8000540e:	e9ae                	sd	a1,208(sp)
    80005410:	7a2c                	ld	a1,112(a2)
    80005412:	f92e                	sd	a1,176(sp)
    80005414:	a029                	j	8000541e <bilateral_core+0x3224>
    80005416:	e602                	sd	zero,264(sp)
    80005418:	ea02                	sd	zero,272(sp)
    8000541a:	e982                	sd	zero,208(sp)
    8000541c:	f902                	sd	zero,176(sp)
    8000541e:	6b36                	ld	s6,328(sp)
    80005420:	64a6                	ld	s1,72(sp)
    80005422:	65da                	ld	a1,400(sp)
    80005424:	6194                	ld	a3,0(a1)
    80005426:	7e20                	ld	s0,120(a2)
    80005428:	75d2                	ld	a1,304(sp)
    8000542a:	6198                	ld	a4,0(a1)
    8000542c:	625c                	ld	a5,128(a2)
    8000542e:	0004be03          	ld	t3,0(s1)
    80005432:	6644                	ld	s1,136(a2)
    80005434:	0ef00593          	li	a1,239
    80005438:	0135e863          	bltu	a1,s3,80005448 <bilateral_core+0x324e>
    8000543c:	7596                	ld	a1,352(sp)
    8000543e:	61cc                	ld	a1,128(a1)
    80005440:	fa2e                	sd	a1,304(sp)
    80005442:	6a4c                	ld	a1,144(a2)
    80005444:	f52e                	sd	a1,168(sp)
    80005446:	a019                	j	8000544c <bilateral_core+0x3252>
    80005448:	fa02                	sd	zero,304(sp)
    8000544a:	f502                	sd	zero,168(sp)
    8000544c:	0ee00593          	li	a1,238
    80005450:	eb3a                	sd	a4,400(sp)
    80005452:	f6be                	sd	a5,360(sp)
    80005454:	e6a6                	sd	s1,328(sp)
    80005456:	f636                	sd	a3,296(sp)
    80005458:	f222                	sd	s0,288(sp)
    8000545a:	ee4a                	sd	s2,280(sp)
    8000545c:	fdf6                	sd	t4,248(sp)
    8000545e:	f9c6                	sd	a7,240(sp)
    80005460:	0135ea63          	bltu	a1,s3,80005474 <bilateral_core+0x327a>
    80005464:	6aee                	ld	s5,216(sp)
    80005466:	77ea                	ld	a5,184(sp)
    80005468:	7596                	ld	a1,352(sp)
    8000546a:	65cc                	ld	a1,136(a1)
    8000546c:	f12e                	sd	a1,160(sp)
    8000546e:	6e4c                	ld	a1,152(a2)
    80005470:	ed2e                	sd	a1,152(sp)
    80005472:	a029                	j	8000547c <bilateral_core+0x3282>
    80005474:	6aee                	ld	s5,216(sp)
    80005476:	77ea                	ld	a5,184(sp)
    80005478:	f102                	sd	zero,160(sp)
    8000547a:	ed02                	sd	zero,152(sp)
    8000547c:	6596                	ld	a1,320(sp)
    8000547e:	871e                	mv	a4,t2
    80005480:	638e                	ld	t2,192(sp)
    80005482:	6194                	ld	a3,0(a1)
    80005484:	0a063903          	ld	s2,160(a2)
    80005488:	65d6                	ld	a1,336(sp)
    8000548a:	6180                	ld	s0,0(a1)
    8000548c:	0a863883          	ld	a7,168(a2)
    80005490:	000b3e83          	ld	t4,0(s6)
    80005494:	7a44                	ld	s1,176(a2)
    80005496:	0ef00593          	li	a1,239
    8000549a:	f2b6                	sd	a3,352(sp)
    8000549c:	0135e963          	bltu	a1,s3,800054ae <bilateral_core+0x32b4>
    800054a0:	6b2e                	ld	s6,200(sp)
    800054a2:	75f2                	ld	a1,312(sp)
    800054a4:	61cc                	ld	a1,128(a1)
    800054a6:	e2ae                	sd	a1,320(sp)
    800054a8:	7e4c                	ld	a1,184(a2)
    800054aa:	fe2e                	sd	a1,312(sp)
    800054ac:	a021                	j	800054b4 <bilateral_core+0x32ba>
    800054ae:	6b2e                	ld	s6,200(sp)
    800054b0:	e282                	sd	zero,320(sp)
    800054b2:	fe02                	sd	zero,312(sp)
    800054b4:	0ee00593          	li	a1,238
    800054b8:	27013683          	ld	a3,624(sp)
    800054bc:	eaa6                	sd	s1,336(sp)
    800054be:	89a2                	mv	s3,s0
    800054c0:	8452                	mv	s0,s4
    800054c2:	00d5ee63          	bltu	a1,a3,800054de <bilateral_core+0x32e4>
    800054c6:	26013583          	ld	a1,608(sp)
    800054ca:	21158693          	addi	a3,a1,529
    800054ce:	068e                	slli	a3,a3,0x3
    800054d0:	96aa                	add	a3,a3,a0
    800054d2:	628c                	ld	a1,0(a3)
    800054d4:	26b13023          	sd	a1,608(sp)
    800054d8:	0c063a03          	ld	s4,192(a2)
    800054dc:	a021                	j	800054e4 <bilateral_core+0x32ea>
    800054de:	26013023          	sd	zero,608(sp)
    800054e2:	4a01                	li	s4,0
    800054e4:	75ae                	ld	a1,232(sp)
    800054e6:	768e                	ld	a3,224(sp)
    800054e8:	80b7878b          	.insn	4, 0x80b7878b
    800054ec:	608f078b          	.insn	4, 0x608f078b
    800054f0:	75d6                	ld	a1,368(sp)
    800054f2:	4155878b          	.insn	4, 0x4155878b
    800054f6:	65ba                	ld	a1,392(sp)
    800054f8:	21f5878b          	.insn	4, 0x21f5878b
    800054fc:	28013583          	ld	a1,640(sp)
    80005500:	00bc1f7b          	.insn	4, 0x00bc1f7b
    80005504:	841d848b          	.insn	4, 0x841d848b
    80005508:	6593848b          	.insn	4, 0x6593848b
    8000550c:	44dd048b          	.insn	4, 0x44dd048b
    80005510:	f20f0153          	fmv.d.x	ft2,t5
    80005514:	257b048b          	.insn	4, 0x257b048b
    80005518:	02017153          	fadd.d	ft2,ft2,ft0
    8000551c:	40bc14fb          	.insn	4, 0x40bc14fb
    80005520:	66f6                	ld	a3,344(sp)
    80005522:	88d7040b          	.insn	4, 0x88d7040b
    80005526:	6853070b          	.insn	4, 0x6853070b
    8000552a:	66f2                	ld	a3,280(sp)
    8000552c:	4906870b          	.insn	4, 0x4906870b
    80005530:	f20481d3          	fmv.d.x	ft3,s1
    80005534:	76ee                	ld	a3,248(sp)
    80005536:	774e                	ld	a4,240(sp)
    80005538:	28d7070b          	.insn	4, 0x28d7070b
    8000553c:	02317153          	fadd.d	ft2,ft2,ft3
    80005540:	80bc147b          	.insn	4, 0x80bc147b
    80005544:	76ca                	ld	a3,176(sp)
    80005546:	7712                	ld	a4,288(sp)
    80005548:	8ce6870b          	.insn	4, 0x8ce6870b
    8000554c:	669a                	ld	a3,384(sp)
    8000554e:	6732                	ld	a4,264(sp)
    80005550:	6ce6870b          	.insn	4, 0x6ce6870b
    80005554:	66ce                	ld	a3,208(sp)
    80005556:	7732                	ld	a4,296(sp)
    80005558:	4ce6870b          	.insn	4, 0x4ce6870b
    8000555c:	f20401d3          	fmv.d.x	ft3,s0
    80005560:	76aa                	ld	a3,168(sp)
    80005562:	676a                	ld	a4,152(sp)
    80005564:	9ce6870b          	.insn	4, 0x9ce6870b
    80005568:	02317153          	fadd.d	ft2,ft2,ft3
    8000556c:	66d2                	ld	a3,272(sp)
    8000556e:	2cdc070b          	.insn	4, 0x2cdc070b
    80005572:	c0bc16fb          	.insn	4, 0xc0bc16fb
    80005576:	7736                	ld	a4,360(sp)
    80005578:	67b6                	ld	a5,328(sp)
    8000557a:	7cf7070b          	.insn	4, 0x7cf7070b
    8000557e:	7752                	ld	a4,304(sp)
    80005580:	778a                	ld	a5,160(sp)
    80005582:	5cf7070b          	.insn	4, 0x5cf7070b
    80005586:	675a                	ld	a4,400(sp)
    80005588:	3dc7070b          	.insn	4, 0x3dc7070b
    8000558c:	f20681d3          	fmv.d.x	ft3,a3
    80005590:	c0bc177b          	.insn	4, 0xc0bc177b
    80005594:	02317153          	fadd.d	ft2,ft2,ft3
    80005598:	7d19058b          	.insn	4, 0x7d19058b
    8000559c:	6596                	ld	a1,320(sp)
    8000559e:	5cbe858b          	.insn	4, 0x5cbe858b
    800055a2:	f20701d3          	fmv.d.x	ft3,a4
    800055a6:	65d6                	ld	a1,336(sp)
    800055a8:	7772                	ld	a4,312(sp)
    800055aa:	9ce588db          	.insn	4, 0x9ce588db
    800055ae:	7596                	ld	a1,352(sp)
    800055b0:	c53595fb          	.insn	4, 0xc53595fb
    800055b4:	02317153          	fadd.d	ft2,ft2,ft3
    800055b8:	f20581d3          	fmv.d.x	ft3,a1
    800055bc:	02317153          	fadd.d	ft2,ft2,ft3
    800055c0:	7c0a085b          	.insn	4, 0x7c0a085b
    800055c4:	26013583          	ld	a1,608(sp)
    800055c8:	c405977b          	.insn	4, 0xc405977b
    800055cc:	f20701d3          	fmv.d.x	ft3,a4
    800055d0:	02317153          	fadd.d	ft2,ft2,ft3
    800055d4:	01ef05ab          	.insn	4, 0x01ef05ab
    800055d8:	049487ab          	.insn	4, 0x049487ab
    800055dc:	0884042b          	.insn	4, 0x0884042b
    800055e0:	a22094d3          	flt.d	s1,ft1,ft2
    800055e4:	0cd686ab          	.insn	4, 0x0cd686ab
    800055e8:	1ce7072b          	.insn	4, 0x1ce7072b
    800055ec:	e099                	bnez	s1,800055f2 <bilateral_core+0x33f8>
    800055ee:	cd1fc06f          	j	800022be <bilateral_core+0xc4>
    800055f2:	f20581d3          	fmv.d.x	ft3,a1
    800055f6:	0201f1d3          	fadd.d	ft3,ft3,ft0
    800055fa:	f2078253          	fmv.d.x	ft4,a5
    800055fe:	0241f1d3          	fadd.d	ft3,ft3,ft4
    80005602:	f2040253          	fmv.d.x	ft4,s0
    80005606:	0241f1d3          	fadd.d	ft3,ft3,ft4
    8000560a:	f2068253          	fmv.d.x	ft4,a3
    8000560e:	0241f1d3          	fadd.d	ft3,ft3,ft4
    80005612:	f2088253          	fmv.d.x	ft4,a7
    80005616:	0241f1d3          	fadd.d	ft3,ft3,ft4
    8000561a:	f2080253          	fmv.d.x	ft4,a6
    8000561e:	0241f1d3          	fadd.d	ft3,ft3,ft4
    80005622:	f2070253          	fmv.d.x	ft4,a4
    80005626:	0241f1d3          	fadd.d	ft3,ft3,ft4
    8000562a:	1a21f153          	fdiv.d	ft2,ft3,ft2
    8000562e:	e2010c53          	fmv.x.d	s8,ft2
    80005632:	c8dfc06f          	j	800022be <bilateral_core+0xc4>
    80005636:	4401                	li	s0,0
    80005638:	0016e593          	ori	a1,a3,1
    8000563c:	00859293          	slli	t0,a1,0x8
    80005640:	0116f3b3          	and	t2,a3,a7
    80005644:	10028593          	addi	a1,t0,256
    80005648:	20b13423          	sd	a1,520(sp)
    8000564c:	30036e13          	ori	t3,t1,768
    80005650:	24513c23          	sd	t0,600(sp)
    80005654:	26713823          	sd	t2,624(sp)
    80005658:	27c13023          	sd	t3,608(sp)
    8000565c:	a081                	j	8000569c <bilateral_core+0x34a2>
    8000565e:	27813583          	ld	a1,632(sp)
    80005662:	66d2                	ld	a3,272(sp)
    80005664:	95b6                	add	a1,a1,a3
    80005666:	23013403          	ld	s0,560(sp)
    8000566a:	0441                	addi	s0,s0,16
    8000566c:	01a5b023          	sd	s10,0(a1)
    80005670:	26813583          	ld	a1,616(sp)
    80005674:	24813883          	ld	a7,584(sp)
    80005678:	10000693          	li	a3,256
    8000567c:	25813283          	ld	t0,600(sp)
    80005680:	27013383          	ld	t2,624(sp)
    80005684:	26013e03          	ld	t3,608(sp)
    80005688:	25013303          	ld	t1,592(sp)
    8000568c:	22813803          	ld	a6,552(sp)
    80005690:	23813d83          	ld	s11,568(sp)
    80005694:	00d41463          	bne	s0,a3,8000569c <bilateral_core+0x34a2>
    80005698:	1c40306f          	j	8000885c <bilateral_core+0x6662>
    8000569c:	4781                	li	a5,0
    8000569e:	4481                	li	s1,0
    800056a0:	005405b3          	add	a1,s0,t0
    800056a4:	22b13023          	sd	a1,544(sp)
    800056a8:	00359c93          	slli	s9,a1,0x3
    800056ac:	019505b3          	add	a1,a0,s9
    800056b0:	e8ae                	sd	a1,80(sp)
    800056b2:	0005be83          	ld	t4,0(a1)
    800056b6:	00803733          	snez	a4,s0
    800056ba:	75f6                	ld	a1,376(sp)
    800056bc:	00e5f6b3          	and	a3,a1,a4
    800056c0:	ffe40f13          	addi	t5,s0,-2
    800056c4:	ca91                	beqz	a3,800056d8 <bilateral_core+0x34de>
    800056c6:	01e807b3          	add	a5,a6,t5
    800056ca:	21813483          	ld	s1,536(sp)
    800056ce:	8fe5                	and	a5,a5,s1
    800056d0:	078e                	slli	a5,a5,0x3
    800056d2:	97aa                	add	a5,a5,a0
    800056d4:	639c                	ld	a5,0(a5)
    800056d6:	6204                	ld	s1,0(a2)
    800056d8:	f526                	sd	s1,168(sp)
    800056da:	f93e                	sd	a5,176(sp)
    800056dc:	4581                	li	a1,0
    800056de:	4781                	li	a5,0
    800056e0:	ca99                	beqz	a3,800056f6 <bilateral_core+0x34fc>
    800056e2:	0ff88693          	addi	a3,a7,255
    800056e6:	00d407b3          	add	a5,s0,a3
    800056ea:	97c2                	add	a5,a5,a6
    800056ec:	8efd                	and	a3,a3,a5
    800056ee:	068e                	slli	a3,a3,0x3
    800056f0:	96aa                	add	a3,a3,a0
    800056f2:	628c                	ld	a1,0(a3)
    800056f4:	661c                	ld	a5,8(a2)
    800056f6:	ed3e                	sd	a5,152(sp)
    800056f8:	f12e                	sd	a1,160(sp)
    800056fa:	4981                	li	s3,0
    800056fc:	4901                	li	s2,0
    800056fe:	4a01                	li	s4,0
    80005700:	4a81                	li	s5,0
    80005702:	24013483          	ld	s1,576(sp)
    80005706:	e48d                	bnez	s1,80005730 <bilateral_core+0x3536>
    80005708:	66fa                	ld	a3,408(sp)
    8000570a:	96a2                	add	a3,a3,s0
    8000570c:	068e                	slli	a3,a3,0x3
    8000570e:	96aa                	add	a3,a3,a0
    80005710:	0006b903          	ld	s2,0(a3)
    80005714:	01063983          	ld	s3,16(a2)
    80005718:	00146693          	ori	a3,s0,1
    8000571c:	96c2                	add	a3,a3,a6
    8000571e:	21013783          	ld	a5,528(sp)
    80005722:	8efd                	and	a3,a3,a5
    80005724:	068e                	slli	a3,a3,0x3
    80005726:	96aa                	add	a3,a3,a0
    80005728:	0006ba03          	ld	s4,0(a3)
    8000572c:	01863a83          	ld	s5,24(a2)
    80005730:	4b81                	li	s7,0
    80005732:	4b01                	li	s6,0
    80005734:	ec81                	bnez	s1,8000574c <bilateral_core+0x3552>
    80005736:	00246693          	ori	a3,s0,2
    8000573a:	96c2                	add	a3,a3,a6
    8000573c:	77fe                	ld	a5,504(sp)
    8000573e:	8efd                	and	a3,a3,a5
    80005740:	068e                	slli	a3,a3,0x3
    80005742:	96aa                	add	a3,a3,a0
    80005744:	0006bb83          	ld	s7,0(a3)
    80005748:	02063b03          	ld	s6,32(a2)
    8000574c:	4801                	li	a6,0
    8000574e:	0013b693          	seqz	a3,t2
    80005752:	eb36                	sd	a3,400(sp)
    80005754:	00e6f5b3          	and	a1,a3,a4
    80005758:	4781                	li	a5,0
    8000575a:	c999                	beqz	a1,80005770 <bilateral_core+0x3576>
    8000575c:	01e306b3          	add	a3,t1,t5
    80005760:	21813703          	ld	a4,536(sp)
    80005764:	8ef9                	and	a3,a3,a4
    80005766:	068e                	slli	a3,a3,0x3
    80005768:	96aa                	add	a3,a3,a0
    8000576a:	0006b803          	ld	a6,0(a3)
    8000576e:	761c                	ld	a5,40(a2)
    80005770:	4481                	li	s1,0
    80005772:	4c01                	li	s8,0
    80005774:	cd81                	beqz	a1,8000578c <bilateral_core+0x3592>
    80005776:	0ff88693          	addi	a3,a7,255
    8000577a:	00d40733          	add	a4,s0,a3
    8000577e:	971a                	add	a4,a4,t1
    80005780:	8ef9                	and	a3,a3,a4
    80005782:	068e                	slli	a3,a3,0x3
    80005784:	96aa                	add	a3,a3,a0
    80005786:	6284                	ld	s1,0(a3)
    80005788:	03063c03          	ld	s8,48(a2)
    8000578c:	4f81                	li	t6,0
    8000578e:	4d01                	li	s10,0
    80005790:	00039a63          	bnez	t2,800057a4 <bilateral_core+0x35aa>
    80005794:	008306b3          	add	a3,t1,s0
    80005798:	068e                	slli	a3,a3,0x3
    8000579a:	96aa                	add	a3,a3,a0
    8000579c:	0006bf83          	ld	t6,0(a3)
    800057a0:	03863d03          	ld	s10,56(a2)
    800057a4:	e702                	sd	zero,392(sp)
    800057a6:	4081                	li	ra,0
    800057a8:	4681                	li	a3,0
    800057aa:	4701                	li	a4,0
    800057ac:	02039763          	bnez	t2,800057da <bilateral_core+0x35e0>
    800057b0:	00146693          	ori	a3,s0,1
    800057b4:	969a                	add	a3,a3,t1
    800057b6:	21013703          	ld	a4,528(sp)
    800057ba:	8ef9                	and	a3,a3,a4
    800057bc:	068e                	slli	a3,a3,0x3
    800057be:	96aa                	add	a3,a3,a0
    800057c0:	0006b083          	ld	ra,0(a3)
    800057c4:	6234                	ld	a3,64(a2)
    800057c6:	e736                	sd	a3,392(sp)
    800057c8:	00246693          	ori	a3,s0,2
    800057cc:	969a                	add	a3,a3,t1
    800057ce:	777e                	ld	a4,504(sp)
    800057d0:	8ef9                	and	a3,a3,a4
    800057d2:	068e                	slli	a3,a3,0x3
    800057d4:	96aa                	add	a3,a3,a0
    800057d6:	6294                	ld	a3,0(a3)
    800057d8:	6638                	ld	a4,72(a2)
    800057da:	eaae                	sd	a1,336(sp)
    800057dc:	fa4e                	sd	s3,304(sp)
    800057de:	f65e                	sd	s7,296(sp)
    800057e0:	f242                	sd	a6,288(sp)
    800057e2:	fdbe                	sd	a5,248(sp)
    800057e4:	f9a6                	sd	s1,240(sp)
    800057e6:	f5b6                	sd	a3,232(sp)
    800057e8:	f1ba                	sd	a4,224(sp)
    800057ea:	c80d                	beqz	s0,8000581c <bilateral_core+0x3622>
    800057ec:	01e286b3          	add	a3,t0,t5
    800057f0:	21813703          	ld	a4,536(sp)
    800057f4:	8ef9                	and	a3,a3,a4
    800057f6:	068e                	slli	a3,a3,0x3
    800057f8:	96aa                	add	a3,a3,a0
    800057fa:	628c                	ld	a1,0(a3)
    800057fc:	e92e                	sd	a1,144(sp)
    800057fe:	6a2c                	ld	a1,80(a2)
    80005800:	e52e                	sd	a1,136(sp)
    80005802:	0ff88693          	addi	a3,a7,255
    80005806:	00d40733          	add	a4,s0,a3
    8000580a:	9716                	add	a4,a4,t0
    8000580c:	8ef9                	and	a3,a3,a4
    8000580e:	068e                	slli	a3,a3,0x3
    80005810:	96aa                	add	a3,a3,a0
    80005812:	628c                	ld	a1,0(a3)
    80005814:	e12e                	sd	a1,128(sp)
    80005816:	6e2c                	ld	a1,88(a2)
    80005818:	fcae                	sd	a1,120(sp)
    8000581a:	a029                	j	80005824 <bilateral_core+0x362a>
    8000581c:	e502                	sd	zero,136(sp)
    8000581e:	e902                	sd	zero,144(sp)
    80005820:	e102                	sd	zero,128(sp)
    80005822:	fc82                	sd	zero,120(sp)
    80005824:	06063383          	ld	t2,96(a2)
    80005828:	00146693          	ori	a3,s0,1
    8000582c:	e336                	sd	a3,384(sp)
    8000582e:	00d28833          	add	a6,t0,a3
    80005832:	00381893          	slli	a7,a6,0x3
    80005836:	011505b3          	add	a1,a0,a7
    8000583a:	0005b303          	ld	t1,0(a1)
    8000583e:	06863983          	ld	s3,104(a2)
    80005842:	00246493          	ori	s1,s0,2
    80005846:	009286b3          	add	a3,t0,s1
    8000584a:	00369793          	slli	a5,a3,0x3
    8000584e:	00f50733          	add	a4,a0,a5
    80005852:	e6ba                	sd	a4,328(sp)
    80005854:	6318                	ld	a4,0(a4)
    80005856:	07063283          	ld	t0,112(a2)
    8000585a:	fe36                	sd	a3,312(sp)
    8000585c:	ea3e                	sd	a5,272(sp)
    8000585e:	e1fe                	sd	t6,192(sp)
    80005860:	fd5a                	sd	s6,184(sp)
    80005862:	cc01                	beqz	s0,8000587a <bilateral_core+0x3680>
    80005864:	20813683          	ld	a3,520(sp)
    80005868:	01e687b3          	add	a5,a3,t5
    8000586c:	078e                	slli	a5,a5,0x3
    8000586e:	97aa                	add	a5,a5,a0
    80005870:	6394                	ld	a3,0(a5)
    80005872:	f8b6                	sd	a3,112(sp)
    80005874:	07863b83          	ld	s7,120(a2)
    80005878:	a019                	j	8000587e <bilateral_core+0x3684>
    8000587a:	f882                	sd	zero,112(sp)
    8000587c:	4b81                	li	s7,0
    8000587e:	e2c2                	sd	a6,320(sp)
    80005880:	e646                	sd	a7,264(sp)
    80005882:	eee6                	sd	s9,344(sp)
    80005884:	e22e                	sd	a1,256(sp)
    80005886:	ed9a                	sd	t1,216(sp)
    80005888:	e9ce                	sd	s3,208(sp)
    8000588a:	e5ba                	sd	a4,200(sp)
    8000588c:	cc01                	beqz	s0,800058a4 <bilateral_core+0x36aa>
    8000588e:	01b407b3          	add	a5,s0,s11
    80005892:	078e                	slli	a5,a5,0x3
    80005894:	97aa                	add	a5,a5,a0
    80005896:	ff87b583          	ld	a1,-8(a5)
    8000589a:	f4ae                	sd	a1,104(sp)
    8000589c:	86a2                	mv	a3,s0
    8000589e:	624c                	ld	a1,128(a2)
    800058a0:	f0ae                	sd	a1,96(sp)
    800058a2:	a021                	j	800058aa <bilateral_core+0x36b0>
    800058a4:	f482                	sd	zero,104(sp)
    800058a6:	86a2                	mv	a3,s0
    800058a8:	f082                	sd	zero,96(sp)
    800058aa:	00dd87b3          	add	a5,s11,a3
    800058ae:	078e                	slli	a5,a5,0x3
    800058b0:	97aa                	add	a5,a5,a0
    800058b2:	ee3e                	sd	a5,280(sp)
    800058b4:	0007bf83          	ld	t6,0(a5)
    800058b8:	08863b03          	ld	s6,136(a2)
    800058bc:	679a                	ld	a5,384(sp)
    800058be:	97ee                	add	a5,a5,s11
    800058c0:	078e                	slli	a5,a5,0x3
    800058c2:	00f50733          	add	a4,a0,a5
    800058c6:	faba                	sd	a4,368(sp)
    800058c8:	00073303          	ld	t1,0(a4)
    800058cc:	09063983          	ld	s3,144(a2)
    800058d0:	f6a6                	sd	s1,360(sp)
    800058d2:	009d8433          	add	s0,s11,s1
    800058d6:	040e                	slli	s0,s0,0x3
    800058d8:	008504b3          	add	s1,a0,s0
    800058dc:	f2a6                	sd	s1,352(sp)
    800058de:	0004bc83          	ld	s9,0(s1)
    800058e2:	09863883          	ld	a7,152(a2)
    800058e6:	22d13823          	sd	a3,560(sp)
    800058ea:	881e                	mv	a6,t2
    800058ec:	ca91                	beqz	a3,80005900 <bilateral_core+0x3706>
    800058ee:	01ee05b3          	add	a1,t3,t5
    800058f2:	058e                	slli	a1,a1,0x3
    800058f4:	95aa                	add	a1,a1,a0
    800058f6:	0005bd83          	ld	s11,0(a1)
    800058fa:	724c                	ld	a1,160(a2)
    800058fc:	ecae                	sd	a1,88(sp)
    800058fe:	a019                	j	80005904 <bilateral_core+0x370a>
    80005900:	4d81                	li	s11,0
    80005902:	ec82                	sd	zero,88(sp)
    80005904:	75ca                	ld	a1,176(sp)
    80005906:	76aa                	ld	a3,168(sp)
    80005908:	770a                	ld	a4,160(sp)
    8000590a:	64ea                	ld	s1,152(sp)
    8000590c:	87de                	mv	a5,s7
    8000590e:	23013383          	ld	t2,560(sp)
    80005912:	00038d63          	beqz	t2,8000592c <bilateral_core+0x3732>
    80005916:	26013f03          	ld	t5,608(sp)
    8000591a:	01e38433          	add	s0,t2,t5
    8000591e:	040e                	slli	s0,s0,0x3
    80005920:	942a                	add	s0,s0,a0
    80005922:	ff843b83          	ld	s7,-8(s0)
    80005926:	0a863e03          	ld	t3,168(a2)
    8000592a:	a029                	j	80005934 <bilateral_core+0x373a>
    8000592c:	4b81                	li	s7,0
    8000592e:	4e01                	li	t3,0
    80005930:	26013f03          	ld	t5,608(sp)
    80005934:	7452                	ld	s0,304(sp)
    80005936:	8154040b          	.insn	4, 0x8154040b
    8000593a:	6096840b          	.insn	4, 0x6096840b
    8000593e:	4149040b          	.insn	4, 0x4149040b
    80005942:	20e5840b          	.insn	4, 0x20e5840b
