
mainop_O2U4_YY.riscv:     file format elf64-littleriscv


Disassembly of section .text.init:

0000000080000000 <_start>:
    80000000:	4081                	li	ra,0
    80000002:	4101                	li	sp,0
    80000004:	4181                	li	gp,0
    80000006:	4201                	li	tp,0
    80000008:	4281                	li	t0,0
    8000000a:	4301                	li	t1,0
    8000000c:	4381                	li	t2,0
    8000000e:	4401                	li	s0,0
    80000010:	4481                	li	s1,0
    80000012:	4501                	li	a0,0
    80000014:	4581                	li	a1,0
    80000016:	4601                	li	a2,0
    80000018:	4681                	li	a3,0
    8000001a:	4701                	li	a4,0
    8000001c:	4781                	li	a5,0
    8000001e:	4801                	li	a6,0
    80000020:	4881                	li	a7,0
    80000022:	4901                	li	s2,0
    80000024:	4981                	li	s3,0
    80000026:	4a01                	li	s4,0
    80000028:	4a81                	li	s5,0
    8000002a:	4b01                	li	s6,0
    8000002c:	4b81                	li	s7,0
    8000002e:	4c01                	li	s8,0
    80000030:	4c81                	li	s9,0
    80000032:	4d01                	li	s10,0
    80000034:	4d81                	li	s11,0
    80000036:	4e01                	li	t3,0
    80000038:	4e81                	li	t4,0
    8000003a:	4f01                	li	t5,0
    8000003c:	4f81                	li	t6,0
    8000003e:	62f9                	lui	t0,0x1e
    80000040:	3002a073          	csrs	mstatus,t0
    80000044:	4285                	li	t0,1
    80000046:	02fe                	slli	t0,t0,0x1f
    80000048:	0002d863          	bgez	t0,80000058 <_start+0x58>
    8000004c:	4505                	li	a0,1
    8000004e:	00001297          	auipc	t0,0x1
    80000052:	faa2a923          	sw	a0,-78(t0) # 80001000 <tohost>
    80000056:	bfdd                	j	8000004c <_start+0x4c>
    80000058:	00000297          	auipc	t0,0x0
    8000005c:	09028293          	addi	t0,t0,144 # 800000e8 <_start+0xe8>
    80000060:	30529073          	csrw	mtvec,t0
    80000064:	00301073          	fscsr	zero
    80000068:	f0000053          	fmv.w.x	ft0,zero
    8000006c:	f00000d3          	fmv.w.x	ft1,zero
    80000070:	f0000153          	fmv.w.x	ft2,zero
    80000074:	f00001d3          	fmv.w.x	ft3,zero
    80000078:	f0000253          	fmv.w.x	ft4,zero
    8000007c:	f00002d3          	fmv.w.x	ft5,zero
    80000080:	f0000353          	fmv.w.x	ft6,zero
    80000084:	f00003d3          	fmv.w.x	ft7,zero
    80000088:	f0000453          	fmv.w.x	fs0,zero
    8000008c:	f00004d3          	fmv.w.x	fs1,zero
    80000090:	f0000553          	fmv.w.x	fa0,zero
    80000094:	f00005d3          	fmv.w.x	fa1,zero
    80000098:	f0000653          	fmv.w.x	fa2,zero
    8000009c:	f00006d3          	fmv.w.x	fa3,zero
    800000a0:	f0000753          	fmv.w.x	fa4,zero
    800000a4:	f00007d3          	fmv.w.x	fa5,zero
    800000a8:	f0000853          	fmv.w.x	fa6,zero
    800000ac:	f00008d3          	fmv.w.x	fa7,zero
    800000b0:	f0000953          	fmv.w.x	fs2,zero
    800000b4:	f00009d3          	fmv.w.x	fs3,zero
    800000b8:	f0000a53          	fmv.w.x	fs4,zero
    800000bc:	f0000ad3          	fmv.w.x	fs5,zero
    800000c0:	f0000b53          	fmv.w.x	fs6,zero
    800000c4:	f0000bd3          	fmv.w.x	fs7,zero
    800000c8:	f0000c53          	fmv.w.x	fs8,zero
    800000cc:	f0000cd3          	fmv.w.x	fs9,zero
    800000d0:	f0000d53          	fmv.w.x	fs10,zero
    800000d4:	f0000dd3          	fmv.w.x	fs11,zero
    800000d8:	f0000e53          	fmv.w.x	ft8,zero
    800000dc:	f0000ed3          	fmv.w.x	ft9,zero
    800000e0:	f0000f53          	fmv.w.x	ft10,zero
    800000e4:	f0000fd3          	fmv.w.x	ft11,zero
    800000e8:	00000297          	auipc	t0,0x0
    800000ec:	03828293          	addi	t0,t0,56 # 80000120 <trap_entry>
    800000f0:	30529073          	csrw	mtvec,t0
    800000f4:	00012197          	auipc	gp,0x12
    800000f8:	cbc18193          	addi	gp,gp,-836 # 80011db0 <__global_pointer$>
    800000fc:	94f18213          	addi	tp,gp,-1713 # 800116ff <_end+0x3f>
    80000100:	fc027213          	andi	tp,tp,-64
    80000104:	f1402573          	csrr	a0,mhartid
    80000108:	4585                	li	a1,1
    8000010a:	00b57063          	bgeu	a0,a1,8000010a <_start+0x10a>
    8000010e:	00150113          	addi	sp,a0,1
    80000112:	0146                	slli	sp,sp,0x11
    80000114:	9112                	add	sp,sp,tp
    80000116:	01151613          	slli	a2,a0,0x11
    8000011a:	9232                	add	tp,tp,a2
    8000011c:	1b71006f          	j	80010ad2 <_init>

0000000080000120 <trap_entry>:
    80000120:	716d                	addi	sp,sp,-272
    80000122:	e406                	sd	ra,8(sp)
    80000124:	e80a                	sd	sp,16(sp)
    80000126:	ec0e                	sd	gp,24(sp)
    80000128:	f012                	sd	tp,32(sp)
    8000012a:	f416                	sd	t0,40(sp)
    8000012c:	f81a                	sd	t1,48(sp)
    8000012e:	fc1e                	sd	t2,56(sp)
    80000130:	e0a2                	sd	s0,64(sp)
    80000132:	e4a6                	sd	s1,72(sp)
    80000134:	e8aa                	sd	a0,80(sp)
    80000136:	ecae                	sd	a1,88(sp)
    80000138:	f0b2                	sd	a2,96(sp)
    8000013a:	f4b6                	sd	a3,104(sp)
    8000013c:	f8ba                	sd	a4,112(sp)
    8000013e:	fcbe                	sd	a5,120(sp)
    80000140:	e142                	sd	a6,128(sp)
    80000142:	e546                	sd	a7,136(sp)
    80000144:	e94a                	sd	s2,144(sp)
    80000146:	ed4e                	sd	s3,152(sp)
    80000148:	f152                	sd	s4,160(sp)
    8000014a:	f556                	sd	s5,168(sp)
    8000014c:	f95a                	sd	s6,176(sp)
    8000014e:	fd5e                	sd	s7,184(sp)
    80000150:	e1e2                	sd	s8,192(sp)
    80000152:	e5e6                	sd	s9,200(sp)
    80000154:	e9ea                	sd	s10,208(sp)
    80000156:	edee                	sd	s11,216(sp)
    80000158:	f1f2                	sd	t3,224(sp)
    8000015a:	f5f6                	sd	t4,232(sp)
    8000015c:	f9fa                	sd	t5,240(sp)
    8000015e:	fdfe                	sd	t6,248(sp)
    80000160:	34202573          	csrr	a0,mcause
    80000164:	341025f3          	csrr	a1,mepc
    80000168:	860a                	mv	a2,sp
    8000016a:	7a0100ef          	jal	8001090a <handle_trap>
    8000016e:	34151073          	csrw	mepc,a0
    80000172:	6289                	lui	t0,0x2
    80000174:	8002829b          	addiw	t0,t0,-2048 # 1800 <buflen.1+0x17c0>
    80000178:	3002a073          	csrs	mstatus,t0
    8000017c:	60a2                	ld	ra,8(sp)
    8000017e:	6142                	ld	sp,16(sp)
    80000180:	61e2                	ld	gp,24(sp)
    80000182:	7202                	ld	tp,32(sp)
    80000184:	72a2                	ld	t0,40(sp)
    80000186:	7342                	ld	t1,48(sp)
    80000188:	73e2                	ld	t2,56(sp)
    8000018a:	6406                	ld	s0,64(sp)
    8000018c:	64a6                	ld	s1,72(sp)
    8000018e:	6546                	ld	a0,80(sp)
    80000190:	65e6                	ld	a1,88(sp)
    80000192:	7606                	ld	a2,96(sp)
    80000194:	76a6                	ld	a3,104(sp)
    80000196:	7746                	ld	a4,112(sp)
    80000198:	77e6                	ld	a5,120(sp)
    8000019a:	680a                	ld	a6,128(sp)
    8000019c:	68aa                	ld	a7,136(sp)
    8000019e:	694a                	ld	s2,144(sp)
    800001a0:	69ea                	ld	s3,152(sp)
    800001a2:	7a0a                	ld	s4,160(sp)
    800001a4:	7aaa                	ld	s5,168(sp)
    800001a6:	7b4a                	ld	s6,176(sp)
    800001a8:	7bea                	ld	s7,184(sp)
    800001aa:	6c0e                	ld	s8,192(sp)
    800001ac:	6cae                	ld	s9,200(sp)
    800001ae:	6d4e                	ld	s10,208(sp)
    800001b0:	6dee                	ld	s11,216(sp)
    800001b2:	7e0e                	ld	t3,224(sp)
    800001b4:	7eae                	ld	t4,232(sp)
    800001b6:	7f4e                	ld	t5,240(sp)
    800001b8:	7fee                	ld	t6,248(sp)
    800001ba:	6151                	addi	sp,sp,272
    800001bc:	30200073          	mret
    800001c0:	0000                	unimp

Disassembly of section .text:

0000000080002000 <d2ull>:
    80002000:	e2050553          	fmv.x.d	a0,fa0
    80002004:	8082                	ret

0000000080002006 <ull2d>:
    80002006:	f2050553          	fmv.d.x	fa0,a0
    8000200a:	8082                	ret

000000008000200c <init_space_weights>:
    8000200c:	7139                	addi	sp,sp,-64
    8000200e:	fc06                	sd	ra,56(sp)
    80002010:	f822                	sd	s0,48(sp)
    80002012:	b422                	fsd	fs0,40(sp)
    80002014:	b026                	fsd	fs1,32(sp)
    80002016:	ac4a                	fsd	fs2,24(sp)
    80002018:	a84e                	fsd	fs3,16(sp)
    8000201a:	a452                	fsd	fs4,8(sp)
    8000201c:	a056                	fsd	fs5,0(sp)
    8000201e:	10a57053          	fmul.s	ft0,fa0,fa0
    80002022:	42000053          	fcvt.d.s	ft0,ft0
    80002026:	02007ad3          	fadd.d	fs5,ft0,ft0
    8000202a:	0000f597          	auipc	a1,0xf
    8000202e:	63658593          	addi	a1,a1,1590 # 80011660 <halF+0xc0>
    80002032:	0005b007          	fld	ft0,0(a1)
    80002036:	1b507453          	fdiv.d	fs0,ft0,fs5
    8000203a:	842a                	mv	s0,a0
    8000203c:	22840553          	fmv.d	fa0,fs0
    80002040:	0000f097          	auipc	ra,0xf
    80002044:	fb2080e7          	jalr	-78(ra) # 80010ff2 <exp>
    80002048:	0000f517          	auipc	a0,0xf
    8000204c:	62050513          	addi	a0,a0,1568 # 80011668 <halF+0xc8>
    80002050:	00053007          	fld	ft0,0(a0)
    80002054:	1b5074d3          	fdiv.d	fs1,ft0,fs5
    80002058:	a008                	fsd	fa0,0(s0)
    8000205a:	22948553          	fmv.d	fa0,fs1
    8000205e:	0000f097          	auipc	ra,0xf
    80002062:	f94080e7          	jalr	-108(ra) # 80010ff2 <exp>
    80002066:	0000f517          	auipc	a0,0xf
    8000206a:	60a50513          	addi	a0,a0,1546 # 80011670 <halF+0xd0>
    8000206e:	00053007          	fld	ft0,0(a0)
    80002072:	1b507953          	fdiv.d	fs2,ft0,fs5
    80002076:	a408                	fsd	fa0,8(s0)
    80002078:	23290553          	fmv.d	fa0,fs2
    8000207c:	0000f097          	auipc	ra,0xf
    80002080:	f76080e7          	jalr	-138(ra) # 80010ff2 <exp>
    80002084:	a808                	fsd	fa0,16(s0)
    80002086:	22948553          	fmv.d	fa0,fs1
    8000208a:	0000f097          	auipc	ra,0xf
    8000208e:	f68080e7          	jalr	-152(ra) # 80010ff2 <exp>
    80002092:	ac08                	fsd	fa0,24(s0)
    80002094:	22840553          	fmv.d	fa0,fs0
    80002098:	0000f097          	auipc	ra,0xf
    8000209c:	f5a080e7          	jalr	-166(ra) # 80010ff2 <exp>
    800020a0:	b008                	fsd	fa0,32(s0)
    800020a2:	22948553          	fmv.d	fa0,fs1
    800020a6:	0000f097          	auipc	ra,0xf
    800020aa:	f4c080e7          	jalr	-180(ra) # 80010ff2 <exp>
    800020ae:	0000f517          	auipc	a0,0xf
    800020b2:	5ca50513          	addi	a0,a0,1482 # 80011678 <halF+0xd8>
    800020b6:	00053007          	fld	ft0,0(a0)
    800020ba:	1b5079d3          	fdiv.d	fs3,ft0,fs5
    800020be:	b408                	fsd	fa0,40(s0)
    800020c0:	23398553          	fmv.d	fa0,fs3
    800020c4:	0000f097          	auipc	ra,0xf
    800020c8:	f2e080e7          	jalr	-210(ra) # 80010ff2 <exp>
    800020cc:	0000f517          	auipc	a0,0xf
    800020d0:	5b450513          	addi	a0,a0,1460 # 80011680 <halF+0xe0>
    800020d4:	00053007          	fld	ft0,0(a0)
    800020d8:	1b507a53          	fdiv.d	fs4,ft0,fs5
    800020dc:	b808                	fsd	fa0,48(s0)
    800020de:	234a0553          	fmv.d	fa0,fs4
    800020e2:	0000f097          	auipc	ra,0xf
    800020e6:	f10080e7          	jalr	-240(ra) # 80010ff2 <exp>
    800020ea:	bc08                	fsd	fa0,56(s0)
    800020ec:	23398553          	fmv.d	fa0,fs3
    800020f0:	0000f097          	auipc	ra,0xf
    800020f4:	f02080e7          	jalr	-254(ra) # 80010ff2 <exp>
    800020f8:	a028                	fsd	fa0,64(s0)
    800020fa:	22948553          	fmv.d	fa0,fs1
    800020fe:	0000f097          	auipc	ra,0xf
    80002102:	ef4080e7          	jalr	-268(ra) # 80010ff2 <exp>
    80002106:	a428                	fsd	fa0,72(s0)
    80002108:	23290553          	fmv.d	fa0,fs2
    8000210c:	0000f097          	auipc	ra,0xf
    80002110:	ee6080e7          	jalr	-282(ra) # 80010ff2 <exp>
    80002114:	a828                	fsd	fa0,80(s0)
    80002116:	234a0553          	fmv.d	fa0,fs4
    8000211a:	0000f097          	auipc	ra,0xf
    8000211e:	ed8080e7          	jalr	-296(ra) # 80010ff2 <exp>
    80002122:	f2000053          	fmv.d.x	ft0,zero
    80002126:	22001053          	fneg.d	ft0,ft0
    8000212a:	1b507053          	fdiv.d	ft0,ft0,fs5
    8000212e:	ac28                	fsd	fa0,88(s0)
    80002130:	22000553          	fmv.d	fa0,ft0
    80002134:	0000f097          	auipc	ra,0xf
    80002138:	ebe080e7          	jalr	-322(ra) # 80010ff2 <exp>
    8000213c:	b028                	fsd	fa0,96(s0)
    8000213e:	234a0553          	fmv.d	fa0,fs4
    80002142:	0000f097          	auipc	ra,0xf
    80002146:	eb0080e7          	jalr	-336(ra) # 80010ff2 <exp>
    8000214a:	b428                	fsd	fa0,104(s0)
    8000214c:	23290553          	fmv.d	fa0,fs2
    80002150:	0000f097          	auipc	ra,0xf
    80002154:	ea2080e7          	jalr	-350(ra) # 80010ff2 <exp>
    80002158:	b828                	fsd	fa0,112(s0)
    8000215a:	22948553          	fmv.d	fa0,fs1
    8000215e:	0000f097          	auipc	ra,0xf
    80002162:	e94080e7          	jalr	-364(ra) # 80010ff2 <exp>
    80002166:	bc28                	fsd	fa0,120(s0)
    80002168:	23398553          	fmv.d	fa0,fs3
    8000216c:	0000f097          	auipc	ra,0xf
    80002170:	e86080e7          	jalr	-378(ra) # 80010ff2 <exp>
    80002174:	a048                	fsd	fa0,128(s0)
    80002176:	234a0553          	fmv.d	fa0,fs4
    8000217a:	0000f097          	auipc	ra,0xf
    8000217e:	e78080e7          	jalr	-392(ra) # 80010ff2 <exp>
    80002182:	a448                	fsd	fa0,136(s0)
    80002184:	23398553          	fmv.d	fa0,fs3
    80002188:	0000f097          	auipc	ra,0xf
    8000218c:	e6a080e7          	jalr	-406(ra) # 80010ff2 <exp>
    80002190:	a848                	fsd	fa0,144(s0)
    80002192:	22948553          	fmv.d	fa0,fs1
    80002196:	0000f097          	auipc	ra,0xf
    8000219a:	e5c080e7          	jalr	-420(ra) # 80010ff2 <exp>
    8000219e:	ac48                	fsd	fa0,152(s0)
    800021a0:	22840553          	fmv.d	fa0,fs0
    800021a4:	0000f097          	auipc	ra,0xf
    800021a8:	e4e080e7          	jalr	-434(ra) # 80010ff2 <exp>
    800021ac:	b048                	fsd	fa0,160(s0)
    800021ae:	22948553          	fmv.d	fa0,fs1
    800021b2:	0000f097          	auipc	ra,0xf
    800021b6:	e40080e7          	jalr	-448(ra) # 80010ff2 <exp>
    800021ba:	b448                	fsd	fa0,168(s0)
    800021bc:	23290553          	fmv.d	fa0,fs2
    800021c0:	0000f097          	auipc	ra,0xf
    800021c4:	e32080e7          	jalr	-462(ra) # 80010ff2 <exp>
    800021c8:	b848                	fsd	fa0,176(s0)
    800021ca:	22948553          	fmv.d	fa0,fs1
    800021ce:	0000f097          	auipc	ra,0xf
    800021d2:	e24080e7          	jalr	-476(ra) # 80010ff2 <exp>
    800021d6:	bc48                	fsd	fa0,184(s0)
    800021d8:	22840553          	fmv.d	fa0,fs0
    800021dc:	0000f097          	auipc	ra,0xf
    800021e0:	e16080e7          	jalr	-490(ra) # 80010ff2 <exp>
    800021e4:	a068                	fsd	fa0,192(s0)
    800021e6:	70e2                	ld	ra,56(sp)
    800021e8:	7442                	ld	s0,48(sp)
    800021ea:	3422                	fld	fs0,40(sp)
    800021ec:	3482                	fld	fs1,32(sp)
    800021ee:	2962                	fld	fs2,24(sp)
    800021f0:	29c2                	fld	fs3,16(sp)
    800021f2:	2a22                	fld	fs4,8(sp)
    800021f4:	2a82                	fld	fs5,0(sp)
    800021f6:	6121                	addi	sp,sp,64
    800021f8:	8082                	ret

00000000800021fa <bilateral_core>:
    800021fa:	d0010113          	addi	sp,sp,-768
    800021fe:	2e113c23          	sd	ra,760(sp)
    80002202:	2e813823          	sd	s0,752(sp)
    80002206:	2e913423          	sd	s1,744(sp)
    8000220a:	2f213023          	sd	s2,736(sp)
    8000220e:	2d313c23          	sd	s3,728(sp)
    80002212:	2d413823          	sd	s4,720(sp)
    80002216:	2d513423          	sd	s5,712(sp)
    8000221a:	2d613023          	sd	s6,704(sp)
    8000221e:	2b713c23          	sd	s7,696(sp)
    80002222:	2b813823          	sd	s8,688(sp)
    80002226:	2b913423          	sd	s9,680(sp)
    8000222a:	2ba13023          	sd	s10,672(sp)
    8000222e:	29b13c23          	sd	s11,664(sp)
    80002232:	28d13823          	sd	a3,656(sp)
    80002236:	28b13423          	sd	a1,648(sp)
    8000223a:	4981                	li	s3,0
    8000223c:	4585                	li	a1,1
    8000223e:	1582                	slli	a1,a1,0x20
    80002240:	f0058893          	addi	a7,a1,-256
    80002244:	f0088593          	addi	a1,a7,-256
    80002248:	e42e                	sd	a1,8(sp)
    8000224a:	f2000053          	fmv.d.x	ft0,zero
    8000224e:	25113c23          	sd	a7,600(sp)
    80002252:	a801                	j	80002262 <bilateral_core+0x68>
    80002254:	0991                	addi	s3,s3,4
    80002256:	10000593          	li	a1,256
    8000225a:	00b99463          	bne	s3,a1,80002262 <bilateral_core+0x68>
    8000225e:	1280e06f          	j	80010386 <bilateral_core+0xe18c>
    80002262:	4481                	li	s1,0
    80002264:	00899313          	slli	t1,s3,0x8
    80002268:	ffe98593          	addi	a1,s3,-2
    8000226c:	0115f433          	and	s0,a1,a7
    80002270:	00859813          	slli	a6,a1,0x8
    80002274:	65a2                	ld	a1,8(sp)
    80002276:	00b875b3          	and	a1,a6,a1
    8000227a:	20b13c23          	sd	a1,536(sp)
    8000227e:	29313023          	sd	s3,640(sp)
    80002282:	fff98593          	addi	a1,s3,-1
    80002286:	0115f6b3          	and	a3,a1,a7
    8000228a:	24d13823          	sd	a3,592(sp)
    8000228e:	00859293          	slli	t0,a1,0x8
    80002292:	0112f5b3          	and	a1,t0,a7
    80002296:	f72e                	sd	a1,424(sp)
    80002298:	10036e13          	ori	t3,t1,256
    8000229c:	20036a13          	ori	s4,t1,512
    800022a0:	26613023          	sd	t1,608(sp)
    800022a4:	24513023          	sd	t0,576(sp)
    800022a8:	26813423          	sd	s0,616(sp)
    800022ac:	23013823          	sd	a6,560(sp)
    800022b0:	25413423          	sd	s4,584(sp)
    800022b4:	23c13c23          	sd	t3,568(sp)
    800022b8:	a835                	j	800022f4 <bilateral_core+0xfa>
    800022ba:	28813583          	ld	a1,648(sp)
    800022be:	76b2                	ld	a3,296(sp)
    800022c0:	95b6                	add	a1,a1,a3
    800022c2:	27813483          	ld	s1,632(sp)
    800022c6:	04c1                	addi	s1,s1,16
    800022c8:	0185b023          	sd	s8,0(a1)
    800022cc:	25813883          	ld	a7,600(sp)
    800022d0:	10000593          	li	a1,256
    800022d4:	26013303          	ld	t1,608(sp)
    800022d8:	24013283          	ld	t0,576(sp)
    800022dc:	24813a03          	ld	s4,584(sp)
    800022e0:	26813403          	ld	s0,616(sp)
    800022e4:	23013803          	ld	a6,560(sp)
    800022e8:	23813e03          	ld	t3,568(sp)
    800022ec:	00b49463          	bne	s1,a1,800022f4 <bilateral_core+0xfa>
    800022f0:	31e0306f          	j	8000560e <bilateral_core+0x3414>
    800022f4:	4f01                	li	t5,0
    800022f6:	4381                	li	t2,0
    800022f8:	00143693          	seqz	a3,s0
    800022fc:	009035b3          	snez	a1,s1
    80002300:	f6b6                	sd	a3,360(sp)
    80002302:	8eed                	and	a3,a3,a1
    80002304:	ffe48f93          	addi	t6,s1,-2
    80002308:	ce81                	beqz	a3,80002320 <bilateral_core+0x126>
    8000230a:	01f80733          	add	a4,a6,t6
    8000230e:	0fe88793          	addi	a5,a7,254
    80002312:	8f7d                	and	a4,a4,a5
    80002314:	070e                	slli	a4,a4,0x3
    80002316:	972a                	add	a4,a4,a0
    80002318:	00073f03          	ld	t5,0(a4)
    8000231c:	00063383          	ld	t2,0(a2)
    80002320:	4e81                	li	t4,0
    80002322:	4a81                	li	s5,0
    80002324:	ce89                	beqz	a3,8000233e <bilateral_core+0x144>
    80002326:	0ff88693          	addi	a3,a7,255
    8000232a:	00d48733          	add	a4,s1,a3
    8000232e:	9742                	add	a4,a4,a6
    80002330:	8ef9                	and	a3,a3,a4
    80002332:	068e                	slli	a3,a3,0x3
    80002334:	96aa                	add	a3,a3,a0
    80002336:	0006be83          	ld	t4,0(a3)
    8000233a:	00863a83          	ld	s5,8(a2)
    8000233e:	4b81                	li	s7,0
    80002340:	4901                	li	s2,0
    80002342:	4681                	li	a3,0
    80002344:	4981                	li	s3,0
    80002346:	e40d                	bnez	s0,80002370 <bilateral_core+0x176>
    80002348:	21813683          	ld	a3,536(sp)
    8000234c:	96a6                	add	a3,a3,s1
    8000234e:	068e                	slli	a3,a3,0x3
    80002350:	96aa                	add	a3,a3,a0
    80002352:	0006b903          	ld	s2,0(a3)
    80002356:	01063b83          	ld	s7,16(a2)
    8000235a:	0014e693          	ori	a3,s1,1
    8000235e:	96c2                	add	a3,a3,a6
    80002360:	0f188713          	addi	a4,a7,241
    80002364:	8ef9                	and	a3,a3,a4
    80002366:	068e                	slli	a3,a3,0x3
    80002368:	96aa                	add	a3,a3,a0
    8000236a:	6294                	ld	a3,0(a3)
    8000236c:	01863983          	ld	s3,24(a2)
    80002370:	eab6                	sd	a3,336(sp)
    80002372:	4681                	li	a3,0
    80002374:	4b01                	li	s6,0
    80002376:	ec01                	bnez	s0,8000238e <bilateral_core+0x194>
    80002378:	0024e693          	ori	a3,s1,2
    8000237c:	96c2                	add	a3,a3,a6
    8000237e:	0f288713          	addi	a4,a7,242
    80002382:	8ef9                	and	a3,a3,a4
    80002384:	068e                	slli	a3,a3,0x3
    80002386:	96aa                	add	a3,a3,a0
    80002388:	6294                	ld	a3,0(a3)
    8000238a:	02063b03          	ld	s6,32(a2)
    8000238e:	e6b6                	sd	a3,328(sp)
    80002390:	4801                	li	a6,0
    80002392:	25013683          	ld	a3,592(sp)
    80002396:	0016bc13          	seqz	s8,a3
    8000239a:	00bc7733          	and	a4,s8,a1
    8000239e:	4c81                	li	s9,0
    800023a0:	cf01                	beqz	a4,800023b8 <bilateral_core+0x1be>
    800023a2:	01f285b3          	add	a1,t0,t6
    800023a6:	0fe88693          	addi	a3,a7,254
    800023aa:	8df5                	and	a1,a1,a3
    800023ac:	058e                	slli	a1,a1,0x3
    800023ae:	95aa                	add	a1,a1,a0
    800023b0:	0005b803          	ld	a6,0(a1)
    800023b4:	02863c83          	ld	s9,40(a2)
    800023b8:	4401                	li	s0,0
    800023ba:	4781                	li	a5,0
    800023bc:	cb19                	beqz	a4,800023d2 <bilateral_core+0x1d8>
    800023be:	0ff88593          	addi	a1,a7,255
    800023c2:	00b486b3          	add	a3,s1,a1
    800023c6:	9696                	add	a3,a3,t0
    800023c8:	8df5                	and	a1,a1,a3
    800023ca:	058e                	slli	a1,a1,0x3
    800023cc:	95aa                	add	a1,a1,a0
    800023ce:	6180                	ld	s0,0(a1)
    800023d0:	7a1c                	ld	a5,48(a2)
    800023d2:	4d01                	li	s10,0
    800023d4:	4d81                	li	s11,0
    800023d6:	25013683          	ld	a3,592(sp)
    800023da:	ea89                	bnez	a3,800023ec <bilateral_core+0x1f2>
    800023dc:	75ba                	ld	a1,424(sp)
    800023de:	95a6                	add	a1,a1,s1
    800023e0:	058e                	slli	a1,a1,0x3
    800023e2:	95aa                	add	a1,a1,a0
    800023e4:	0005bd03          	ld	s10,0(a1)
    800023e8:	03863d83          	ld	s11,56(a2)
    800023ec:	20013823          	sd	zero,528(sp)
    800023f0:	4081                	li	ra,0
    800023f2:	4581                	li	a1,0
    800023f4:	26013c23          	sd	zero,632(sp)
    800023f8:	ca9d                	beqz	a3,8000242e <bilateral_core+0x234>
    800023fa:	feae                	sd	a1,376(sp)
    800023fc:	c4a5                	beqz	s1,80002464 <bilateral_core+0x26a>
    800023fe:	01f305b3          	add	a1,t1,t6
    80002402:	0fe88693          	addi	a3,a7,254
    80002406:	8df5                	and	a1,a1,a3
    80002408:	058e                	slli	a1,a1,0x3
    8000240a:	95aa                	add	a1,a1,a0
    8000240c:	618c                	ld	a1,0(a1)
    8000240e:	e2ae                	sd	a1,320(sp)
    80002410:	6a2c                	ld	a1,80(a2)
    80002412:	fe2e                	sd	a1,312(sp)
    80002414:	0ff88593          	addi	a1,a7,255
    80002418:	00b486b3          	add	a3,s1,a1
    8000241c:	969a                	add	a3,a3,t1
    8000241e:	8df5                	and	a1,a1,a3
    80002420:	058e                	slli	a1,a1,0x3
    80002422:	95aa                	add	a1,a1,a0
    80002424:	618c                	ld	a1,0(a1)
    80002426:	fa2e                	sd	a1,304(sp)
    80002428:	6e2c                	ld	a1,88(a2)
    8000242a:	f22e                	sd	a1,288(sp)
    8000242c:	a081                	j	8000246c <bilateral_core+0x272>
    8000242e:	0014e593          	ori	a1,s1,1
    80002432:	9596                	add	a1,a1,t0
    80002434:	0f188693          	addi	a3,a7,241
    80002438:	8df5                	and	a1,a1,a3
    8000243a:	058e                	slli	a1,a1,0x3
    8000243c:	95aa                	add	a1,a1,a0
    8000243e:	0005b083          	ld	ra,0(a1)
    80002442:	622c                	ld	a1,64(a2)
    80002444:	20b13823          	sd	a1,528(sp)
    80002448:	0024e593          	ori	a1,s1,2
    8000244c:	9596                	add	a1,a1,t0
    8000244e:	0f288693          	addi	a3,a7,242
    80002452:	8df5                	and	a1,a1,a3
    80002454:	058e                	slli	a1,a1,0x3
    80002456:	95aa                	add	a1,a1,a0
    80002458:	618c                	ld	a1,0(a1)
    8000245a:	6634                	ld	a3,72(a2)
    8000245c:	26d13c23          	sd	a3,632(sp)
    80002460:	feae                	sd	a1,376(sp)
    80002462:	fcd1                	bnez	s1,800023fe <bilateral_core+0x204>
    80002464:	fe02                	sd	zero,312(sp)
    80002466:	e282                	sd	zero,320(sp)
    80002468:	fa02                	sd	zero,304(sp)
    8000246a:	f202                	sd	zero,288(sp)
    8000246c:	ffba                	sd	a4,504(sp)
    8000246e:	f7da                	sd	s6,488(sp)
    80002470:	f3c2                	sd	a6,480(sp)
    80002472:	efe6                	sd	s9,472(sp)
    80002474:	eba2                	sd	s0,464(sp)
    80002476:	eb3e                	sd	a5,400(sp)
    80002478:	e77a                	sd	t5,392(sp)
    8000247a:	88d6                	mv	a7,s5
    8000247c:	c891                	beqz	s1,80002490 <bilateral_core+0x296>
    8000247e:	01fe05b3          	add	a1,t3,t6
    80002482:	058e                	slli	a1,a1,0x3
    80002484:	95aa                	add	a1,a1,a0
    80002486:	618c                	ld	a1,0(a1)
    80002488:	f62e                	sd	a1,296(sp)
    8000248a:	7e2c                	ld	a1,120(a2)
    8000248c:	ee2e                	sd	a1,280(sp)
    8000248e:	a019                	j	80002494 <bilateral_core+0x29a>
    80002490:	f602                	sd	zero,296(sp)
    80002492:	ee02                	sd	zero,280(sp)
    80002494:	006485b3          	add	a1,s1,t1
    80002498:	26b13823          	sd	a1,624(sp)
    8000249c:	00359293          	slli	t0,a1,0x3
    800024a0:	005505b3          	add	a1,a0,t0
    800024a4:	f8ae                	sd	a1,112(sp)
    800024a6:	0005bb03          	ld	s6,0(a1)
    800024aa:	06063f03          	ld	t5,96(a2)
    800024ae:	0014e593          	ori	a1,s1,1
    800024b2:	20b13423          	sd	a1,520(sp)
    800024b6:	00b30cb3          	add	s9,t1,a1
    800024ba:	003c9413          	slli	s0,s9,0x3
    800024be:	00850733          	add	a4,a0,s0
    800024c2:	00073803          	ld	a6,0(a4)
    800024c6:	06863a83          	ld	s5,104(a2)
    800024ca:	0024e593          	ori	a1,s1,2
    800024ce:	22b13423          	sd	a1,552(sp)
    800024d2:	959a                	add	a1,a1,t1
    800024d4:	00359693          	slli	a3,a1,0x3
    800024d8:	00d507b3          	add	a5,a0,a3
    800024dc:	22f13023          	sd	a5,544(sp)
    800024e0:	0007b303          	ld	t1,0(a5)
    800024e4:	7a3c                	ld	a5,112(a2)
    800024e6:	e3ae                	sd	a1,448(sp)
    800024e8:	ef36                	sd	a3,408(sp)
    800024ea:	e7e6                	sd	s9,456(sp)
    800024ec:	f322                	sd	s0,416(sp)
    800024ee:	ff16                	sd	t0,440(sp)
    800024f0:	fb3a                	sd	a4,432(sp)
    800024f2:	f29a                	sd	t1,352(sp)
    800024f4:	eebe                	sd	a5,344(sp)
    800024f6:	87de                	mv	a5,s7
    800024f8:	c899                	beqz	s1,8000250e <bilateral_core+0x314>
    800024fa:	01c485b3          	add	a1,s1,t3
    800024fe:	058e                	slli	a1,a1,0x3
    80002500:	95aa                	add	a1,a1,a0
    80002502:	ff85b583          	ld	a1,-8(a1)
    80002506:	ea2e                	sd	a1,272(sp)
    80002508:	624c                	ld	a1,128(a2)
    8000250a:	e22e                	sd	a1,256(sp)
    8000250c:	a019                	j	80002512 <bilateral_core+0x318>
    8000250e:	ea02                	sd	zero,272(sp)
    80002510:	e202                	sd	zero,256(sp)
    80002512:	009e06b3          	add	a3,t3,s1
    80002516:	068e                	slli	a3,a3,0x3
    80002518:	00d505b3          	add	a1,a0,a3
    8000251c:	faae                	sd	a1,368(sp)
    8000251e:	0005bc83          	ld	s9,0(a1)
    80002522:	08863b83          	ld	s7,136(a2)
    80002526:	20813583          	ld	a1,520(sp)
    8000252a:	00be06b3          	add	a3,t3,a1
    8000252e:	068e                	slli	a3,a3,0x3
    80002530:	00d505b3          	add	a1,a0,a3
    80002534:	20b13023          	sd	a1,512(sp)
    80002538:	0005b283          	ld	t0,0(a1)
    8000253c:	6a58                	ld	a4,144(a2)
    8000253e:	22813583          	ld	a1,552(sp)
    80002542:	00be06b3          	add	a3,t3,a1
    80002546:	068e                	slli	a3,a3,0x3
    80002548:	00d505b3          	add	a1,a0,a3
    8000254c:	fbae                	sd	a1,496(sp)
    8000254e:	0005b303          	ld	t1,0(a1)
    80002552:	09863e03          	ld	t3,152(a2)
    80002556:	844e                	mv	s0,s3
    80002558:	c48d                	beqz	s1,80002582 <bilateral_core+0x388>
    8000255a:	01fa06b3          	add	a3,s4,t6
    8000255e:	068e                	slli	a3,a3,0x3
    80002560:	96aa                	add	a3,a3,a0
    80002562:	628c                	ld	a1,0(a3)
    80002564:	fdae                	sd	a1,248(sp)
    80002566:	724c                	ld	a1,160(a2)
    80002568:	e62e                	sd	a1,264(sp)
    8000256a:	e362                	sd	s8,384(sp)
    8000256c:	cc99                	beqz	s1,8000258a <bilateral_core+0x390>
    8000256e:	014486b3          	add	a3,s1,s4
    80002572:	068e                	slli	a3,a3,0x3
    80002574:	96aa                	add	a3,a3,a0
    80002576:	8c26                	mv	s8,s1
    80002578:	ff86b983          	ld	s3,-8(a3)
    8000257c:	0a863f83          	ld	t6,168(a2)
    80002580:	a801                	j	80002590 <bilateral_core+0x396>
    80002582:	fd82                	sd	zero,248(sp)
    80002584:	e602                	sd	zero,264(sp)
    80002586:	e362                	sd	s8,384(sp)
    80002588:	f0fd                	bnez	s1,8000256e <bilateral_core+0x374>
    8000258a:	8c26                	mv	s8,s1
    8000258c:	4981                	li	s3,0
    8000258e:	4f81                	li	t6,0
    80002590:	65d6                	ld	a1,336(sp)
    80002592:	66b6                	ld	a3,328(sp)
    80002594:	21013483          	ld	s1,528(sp)
    80002598:	8087878b          	.insn	4, 0x8087878b
    8000259c:	6113878b          	.insn	4, 0x6113878b
    800025a0:	40b9078b          	.insn	4, 0x40b9078b
    800025a4:	65ba                	ld	a1,392(sp)
    800025a6:	21d5878b          	.insn	4, 0x21d5878b
    800025aa:	65da                	ld	a1,400(sp)
    800025ac:	85b5878b          	.insn	4, 0x85b5878b
    800025b0:	75be                	ld	a1,488(sp)
    800025b2:	67fe                	ld	a5,472(sp)
    800025b4:	64f5878b          	.insn	4, 0x64f5878b
    800025b8:	65de                	ld	a1,464(sp)
    800025ba:	45a5878b          	.insn	4, 0x45a5878b
    800025be:	759e                	ld	a1,480(sp)
    800025c0:	24b6878b          	.insn	4, 0x24b6878b
    800025c4:	75f2                	ld	a1,312(sp)
    800025c6:	7692                	ld	a3,288(sp)
    800025c8:	88d5878b          	.insn	4, 0x88d5878b
    800025cc:	27813583          	ld	a1,632(sp)
    800025d0:	68b4878b          	.insn	4, 0x68b4878b
    800025d4:	29013683          	ld	a3,656(sp)
    800025d8:	00db18fb          	.insn	4, 0x00db18fb
    800025dc:	6596                	ld	a1,320(sp)
    800025de:	77d2                	ld	a5,304(sp)
    800025e0:	48f5840b          	.insn	4, 0x48f5840b
    800025e4:	75f6                	ld	a1,376(sp)
    800025e6:	28b0840b          	.insn	4, 0x28b0840b
    800025ea:	65f2                	ld	a1,280(sp)
    800025ec:	67f6                	ld	a5,344(sp)
    800025ee:	8cb7840b          	.insn	4, 0x8cb7840b
    800025f2:	f20880d3          	fmv.d.x	ft1,a7
    800025f6:	40db147b          	.insn	4, 0x40db147b
    800025fa:	0200f0d3          	fadd.d	ft1,ft1,ft0
    800025fe:	6d5f058b          	.insn	4, 0x6d5f058b
    80002602:	75b2                	ld	a1,296(sp)
    80002604:	7796                	ld	a5,352(sp)
    80002606:	4cb7858b          	.insn	4, 0x4cb7858b
    8000260a:	9dc7058b          	.insn	4, 0x9dc7058b
    8000260e:	f2040153          	fmv.d.x	ft2,s0
    80002612:	80db177b          	.insn	4, 0x80db177b
    80002616:	0220f0d3          	fadd.d	ft1,ft1,ft2
    8000261a:	6592                	ld	a1,256(sp)
    8000261c:	7d75858b          	.insn	4, 0x7d75858b
    80002620:	2d0b058b          	.insn	4, 0x2d0b058b
    80002624:	f2070153          	fmv.d.x	ft2,a4
    80002628:	5c62858b          	.insn	4, 0x5c62858b
    8000262c:	c0db14fb          	.insn	4, 0xc0db14fb
    80002630:	0220f0d3          	fadd.d	ft1,ft1,ft2
    80002634:	65d2                	ld	a1,272(sp)
    80002636:	3d95858b          	.insn	4, 0x3d95858b
    8000263a:	c0db15fb          	.insn	4, 0xc0db15fb
    8000263e:	018a06b3          	add	a3,s4,s8
    80002642:	068e                	slli	a3,a3,0x3
    80002644:	96aa                	add	a3,a3,a0
    80002646:	e2b6                	sd	a3,320(sp)
    80002648:	6294                	ld	a3,0(a3)
    8000264a:	77ee                	ld	a5,248(sp)
    8000264c:	3d37878b          	.insn	4, 0x3d37878b
    80002650:	20813783          	ld	a5,520(sp)
    80002654:	97d2                	add	a5,a5,s4
    80002656:	078e                	slli	a5,a5,0x3
    80002658:	97aa                	add	a5,a5,a0
    8000265a:	ebbe                	sd	a5,464(sp)
    8000265c:	639c                	ld	a5,0(a5)
    8000265e:	f2048153          	fmv.d.x	ft2,s1
    80002662:	5cf6868b          	.insn	4, 0x5cf6868b
    80002666:	0220f0d3          	fadd.d	ft1,ft1,ft2
    8000266a:	7a54                	ld	a3,176(a2)
    8000266c:	67b2                	ld	a5,264(sp)
    8000266e:	7df7885b          	.insn	4, 0x7df7885b
    80002672:	7e5c                	ld	a5,184(a2)
    80002674:	f2058153          	fmv.d.x	ft2,a1
    80002678:	d0f695fb          	.insn	4, 0xd0f695fb
    8000267c:	0220f0d3          	fadd.d	ft1,ft1,ft2
    80002680:	27013683          	ld	a3,624(sp)
    80002684:	20268693          	addi	a3,a3,514
    80002688:	068e                	slli	a3,a3,0x3
    8000268a:	96aa                	add	a3,a3,a0
    8000268c:	6294                	ld	a3,0(a3)
    8000268e:	627c                	ld	a5,192(a2)
    80002690:	f2058153          	fmv.d.x	ft2,a1
    80002694:	3c0682db          	.insn	4, 0x3c0682db
    80002698:	cc0796fb          	.insn	4, 0xcc0796fb
    8000269c:	0220f0d3          	fadd.d	ft1,ft1,ft2
    800026a0:	f2068153          	fmv.d.x	ft2,a3
    800026a4:	0220f153          	fadd.d	ft2,ft1,ft2
    800026a8:	011885ab          	.insn	4, 0x011885ab
    800026ac:	0484042b          	.insn	4, 0x0484042b
    800026b0:	0000f797          	auipc	a5,0xf
    800026b4:	fd878793          	addi	a5,a5,-40 # 80011688 <halF+0xe8>
    800026b8:	0007b087          	fld	ft1,0(a5)
    800026bc:	08e707ab          	.insn	4, 0x08e707ab
    800026c0:	a2209753          	flt.d	a4,ft1,ft2
    800026c4:	0c9484ab          	.insn	4, 0x0c9484ab
    800026c8:	1cd686ab          	.insn	4, 0x1cd686ab
    800026cc:	c329                	beqz	a4,8000270e <bilateral_core+0x514>
    800026ce:	f20581d3          	fmv.d.x	ft3,a1
    800026d2:	0201f1d3          	fadd.d	ft3,ft3,ft0
    800026d6:	f2040253          	fmv.d.x	ft4,s0
    800026da:	0241f1d3          	fadd.d	ft3,ft3,ft4
    800026de:	f2078253          	fmv.d.x	ft4,a5
    800026e2:	0241f1d3          	fadd.d	ft3,ft3,ft4
    800026e6:	f2048253          	fmv.d.x	ft4,s1
    800026ea:	0241f1d3          	fadd.d	ft3,ft3,ft4
    800026ee:	f2080253          	fmv.d.x	ft4,a6
    800026f2:	0241f1d3          	fadd.d	ft3,ft3,ft4
    800026f6:	f2028253          	fmv.d.x	ft4,t0
    800026fa:	0241f1d3          	fadd.d	ft3,ft3,ft4
    800026fe:	f2068253          	fmv.d.x	ft4,a3
    80002702:	0241f1d3          	fadd.d	ft3,ft3,ft4
    80002706:	1a21f153          	fdiv.d	ft2,ft3,ft2
    8000270a:	e2010b53          	fmv.x.d	s6,ft2
    8000270e:	4e81                	li	t4,0
    80002710:	28813583          	ld	a1,648(sp)
    80002714:	76fa                	ld	a3,440(sp)
    80002716:	95b6                	add	a1,a1,a3
    80002718:	0165b023          	sd	s6,0(a1)
    8000271c:	75da                	ld	a1,432(sp)
    8000271e:	0005b283          	ld	t0,0(a1)
    80002722:	fffc0d93          	addi	s11,s8,-1
    80002726:	018db6b3          	sltu	a3,s11,s8
    8000272a:	75b6                	ld	a1,360(sp)
    8000272c:	8eed                	and	a3,a3,a1
    8000272e:	4301                	li	t1,0
    80002730:	25813783          	ld	a5,600(sp)
    80002734:	24013803          	ld	a6,576(sp)
    80002738:	26813583          	ld	a1,616(sp)
    8000273c:	23013403          	ld	s0,560(sp)
    80002740:	23813483          	ld	s1,568(sp)
    80002744:	ce81                	beqz	a3,8000275c <bilateral_core+0x562>
    80002746:	01b406b3          	add	a3,s0,s11
    8000274a:	0ff78713          	addi	a4,a5,255
    8000274e:	8ef9                	and	a3,a3,a4
    80002750:	068e                	slli	a3,a3,0x3
    80002752:	96aa                	add	a3,a3,a0
    80002754:	0006be83          	ld	t4,0(a3)
    80002758:	00063303          	ld	t1,0(a2)
    8000275c:	4e01                	li	t3,0
    8000275e:	4a01                	li	s4,0
    80002760:	4f01                	li	t5,0
    80002762:	4981                	li	s3,0
    80002764:	4a81                	li	s5,0
    80002766:	4b01                	li	s6,0
    80002768:	26013883          	ld	a7,608(sp)
    8000276c:	25013383          	ld	t2,592(sp)
    80002770:	e1b9                	bnez	a1,800027b6 <bilateral_core+0x5bc>
    80002772:	018406b3          	add	a3,s0,s8
    80002776:	0f078713          	addi	a4,a5,240
    8000277a:	8ef9                	and	a3,a3,a4
    8000277c:	068e                	slli	a3,a3,0x3
    8000277e:	96aa                	add	a3,a3,a0
    80002780:	0006bf03          	ld	t5,0(a3)
    80002784:	00863983          	ld	s3,8(a2)
    80002788:	21813683          	ld	a3,536(sp)
    8000278c:	20813703          	ld	a4,520(sp)
    80002790:	96ba                	add	a3,a3,a4
    80002792:	068e                	slli	a3,a3,0x3
    80002794:	96aa                	add	a3,a3,a0
    80002796:	0006ba03          	ld	s4,0(a3)
    8000279a:	01063e03          	ld	t3,16(a2)
    8000279e:	22813683          	ld	a3,552(sp)
    800027a2:	96a2                	add	a3,a3,s0
    800027a4:	0f278713          	addi	a4,a5,242
    800027a8:	8ef9                	and	a3,a3,a4
    800027aa:	068e                	slli	a3,a3,0x3
    800027ac:	96aa                	add	a3,a3,a0
    800027ae:	0006ba83          	ld	s5,0(a3)
    800027b2:	01863b03          	ld	s6,24(a2)
    800027b6:	4b81                	li	s7,0
    800027b8:	4f81                	li	t6,0
    800027ba:	ed89                	bnez	a1,800027d4 <bilateral_core+0x5da>
    800027bc:	003c6693          	ori	a3,s8,3
    800027c0:	96a2                	add	a3,a3,s0
    800027c2:	0f378713          	addi	a4,a5,243
    800027c6:	8ef9                	and	a3,a3,a4
    800027c8:	068e                	slli	a3,a3,0x3
    800027ca:	96aa                	add	a3,a3,a0
    800027cc:	0006bb83          	ld	s7,0(a3)
    800027d0:	02063f83          	ld	t6,32(a2)
    800027d4:	4401                	li	s0,0
    800027d6:	4c81                	li	s9,0
    800027d8:	75fe                	ld	a1,504(sp)
    800027da:	c999                	beqz	a1,800027f0 <bilateral_core+0x5f6>
    800027dc:	01b806b3          	add	a3,a6,s11
    800027e0:	0ff78713          	addi	a4,a5,255
    800027e4:	8ef9                	and	a3,a3,a4
    800027e6:	068e                	slli	a3,a3,0x3
    800027e8:	96aa                	add	a3,a3,a0
    800027ea:	6280                	ld	s0,0(a3)
    800027ec:	02863c83          	ld	s9,40(a2)
    800027f0:	4901                	li	s2,0
    800027f2:	4d01                	li	s10,0
    800027f4:	4081                	li	ra,0
    800027f6:	f382                	sd	zero,480(sp)
    800027f8:	02039763          	bnez	t2,80002826 <bilateral_core+0x62c>
    800027fc:	018806b3          	add	a3,a6,s8
    80002800:	0f078713          	addi	a4,a5,240
    80002804:	8ef9                	and	a3,a3,a4
    80002806:	068e                	slli	a3,a3,0x3
    80002808:	96aa                	add	a3,a3,a0
    8000280a:	0006bd03          	ld	s10,0(a3)
    8000280e:	03063903          	ld	s2,48(a2)
    80002812:	76ba                	ld	a3,424(sp)
    80002814:	20813583          	ld	a1,520(sp)
    80002818:	96ae                	add	a3,a3,a1
    8000281a:	068e                	slli	a3,a3,0x3
    8000281c:	96aa                	add	a3,a3,a0
    8000281e:	0006b083          	ld	ra,0(a3)
    80002822:	7e0c                	ld	a1,56(a2)
    80002824:	f3ae                	sd	a1,480(sp)
    80002826:	ef82                	sd	zero,472(sp)
    80002828:	4581                	li	a1,0
    8000282a:	4681                	li	a3,0
    8000282c:	4701                	li	a4,0
    8000282e:	02039863          	bnez	t2,8000285e <bilateral_core+0x664>
    80002832:	22813583          	ld	a1,552(sp)
    80002836:	00b806b3          	add	a3,a6,a1
    8000283a:	0f278713          	addi	a4,a5,242
    8000283e:	8ef9                	and	a3,a3,a4
    80002840:	068e                	slli	a3,a3,0x3
    80002842:	96aa                	add	a3,a3,a0
    80002844:	628c                	ld	a1,0(a3)
    80002846:	6234                	ld	a3,64(a2)
    80002848:	efb6                	sd	a3,472(sp)
    8000284a:	003c6693          	ori	a3,s8,3
    8000284e:	96c2                	add	a3,a3,a6
    80002850:	0f378713          	addi	a4,a5,243
    80002854:	8ef9                	and	a3,a3,a4
    80002856:	068e                	slli	a3,a3,0x3
    80002858:	96aa                	add	a3,a3,a0
    8000285a:	6294                	ld	a3,0(a3)
    8000285c:	6638                	ld	a4,72(a2)
    8000285e:	fb7a                	sd	t5,432(sp)
    80002860:	fed6                	sd	s5,376(sp)
    80002862:	eeda                	sd	s6,344(sp)
    80002864:	eaa2                	sd	s0,336(sp)
    80002866:	e6ae                	sd	a1,328(sp)
    80002868:	fe36                	sd	a3,312(sp)
    8000286a:	fa3a                	sd	a4,304(sp)
    8000286c:	f272                	sd	t3,288(sp)
    8000286e:	8826                	mv	a6,s1
    80002870:	000c0e63          	beqz	s8,8000288c <bilateral_core+0x692>
    80002874:	01b886b3          	add	a3,a7,s11
    80002878:	0ff78713          	addi	a4,a5,255
    8000287c:	8ef9                	and	a3,a3,a4
    8000287e:	068e                	slli	a3,a3,0x3
    80002880:	96aa                	add	a3,a3,a0
    80002882:	628c                	ld	a1,0(a3)
    80002884:	f9ae                	sd	a1,240(sp)
    80002886:	6a2c                	ld	a1,80(a2)
    80002888:	f5ae                	sd	a1,232(sp)
    8000288a:	a019                	j	80002890 <bilateral_core+0x696>
    8000288c:	f982                	sd	zero,240(sp)
    8000288e:	f582                	sd	zero,232(sp)
    80002890:	0f078693          	addi	a3,a5,240
    80002894:	20d13823          	sd	a3,528(sp)
    80002898:	27013583          	ld	a1,624(sp)
    8000289c:	8eed                	and	a3,a3,a1
    8000289e:	068e                	slli	a3,a3,0x3
    800028a0:	00d50433          	add	s0,a0,a3
    800028a4:	00043f03          	ld	t5,0(s0)
    800028a8:	05863e03          	ld	t3,88(a2)
    800028ac:	06063383          	ld	t2,96(a2)
    800028b0:	22013583          	ld	a1,544(sp)
    800028b4:	0005ba83          	ld	s5,0(a1)
    800028b8:	06863b03          	ld	s6,104(a2)
    800028bc:	003c6593          	ori	a1,s8,3
    800028c0:	ffae                	sd	a1,504(sp)
    800028c2:	95c6                	add	a1,a1,a7
    800028c4:	00359693          	slli	a3,a1,0x3
    800028c8:	00d507b3          	add	a5,a0,a3
    800028cc:	6398                	ld	a4,0(a5)
    800028ce:	7a24                	ld	s1,112(a2)
    800028d0:	27813c23          	sd	s8,632(sp)
    800028d4:	ff2e                	sd	a1,440(sp)
    800028d6:	e736                	sd	a3,392(sp)
    800028d8:	f2be                	sd	a5,352(sp)
    800028da:	eb22                	sd	s0,400(sp)
    800028dc:	f656                	sd	s5,296(sp)
    800028de:	ee1e                	sd	t2,280(sp)
    800028e0:	ea5a                	sd	s6,272(sp)
    800028e2:	e67a                	sd	t5,264(sp)
    800028e4:	e23a                	sd	a4,256(sp)
    800028e6:	fda6                	sd	s1,248(sp)
    800028e8:	000c0c63          	beqz	s8,80002900 <bilateral_core+0x706>
    800028ec:	8c7e                	mv	s8,t6
    800028ee:	8742                	mv	a4,a6
    800028f0:	01b806b3          	add	a3,a6,s11
    800028f4:	068e                	slli	a3,a3,0x3
    800028f6:	96aa                	add	a3,a3,a0
    800028f8:	628c                	ld	a1,0(a3)
    800028fa:	f1ae                	sd	a1,224(sp)
    800028fc:	7e20                	ld	s0,120(a2)
    800028fe:	a029                	j	80002908 <bilateral_core+0x70e>
    80002900:	8c7e                	mv	s8,t6
    80002902:	f182                	sd	zero,224(sp)
    80002904:	4401                	li	s0,0
    80002906:	8742                	mv	a4,a6
    80002908:	75d6                	ld	a1,368(sp)
    8000290a:	0005bf03          	ld	t5,0(a1)
    8000290e:	08063f83          	ld	t6,128(a2)
    80002912:	20013583          	ld	a1,512(sp)
    80002916:	0005b803          	ld	a6,0(a1)
    8000291a:	08863b03          	ld	s6,136(a2)
    8000291e:	75de                	ld	a1,496(sp)
    80002920:	0005ba83          	ld	s5,0(a1)
    80002924:	09063383          	ld	t2,144(a2)
    80002928:	75fe                	ld	a1,504(sp)
    8000292a:	00b706b3          	add	a3,a4,a1
    8000292e:	068e                	slli	a3,a3,0x3
    80002930:	00d505b3          	add	a1,a0,a3
    80002934:	f7ae                	sd	a1,488(sp)
    80002936:	0005b883          	ld	a7,0(a1)
    8000293a:	6e5c                	ld	a5,152(a2)
    8000293c:	27813683          	ld	a3,632(sp)
    80002940:	ce89                	beqz	a3,8000295a <bilateral_core+0x760>
    80002942:	86ca                	mv	a3,s2
    80002944:	24813903          	ld	s2,584(sp)
    80002948:	01b905b3          	add	a1,s2,s11
    8000294c:	058e                	slli	a1,a1,0x3
    8000294e:	95aa                	add	a1,a1,a0
    80002950:	618c                	ld	a1,0(a1)
    80002952:	edae                	sd	a1,216(sp)
    80002954:	0a063d83          	ld	s11,160(a2)
    80002958:	a031                	j	80002964 <bilateral_core+0x76a>
    8000295a:	86ca                	mv	a3,s2
    8000295c:	ed82                	sd	zero,216(sp)
    8000295e:	4d81                	li	s11,0
    80002960:	24813903          	ld	s2,584(sp)
    80002964:	65f6                	ld	a1,344(sp)
    80002966:	7712                	ld	a4,288(sp)
    80002968:	80b7048b          	.insn	4, 0x80b7048b
    8000296c:	6133048b          	.insn	4, 0x6133048b
    80002970:	75f6                	ld	a1,376(sp)
    80002972:	40ba048b          	.insn	4, 0x40ba048b
    80002976:	75da                	ld	a1,432(sp)
    80002978:	20be848b          	.insn	4, 0x20be848b
    8000297c:	759e                	ld	a1,480(sp)
    8000297e:	84b6848b          	.insn	4, 0x84b6848b
    80002982:	659c048b          	.insn	4, 0x659c048b
    80002986:	441d048b          	.insn	4, 0x441d048b
    8000298a:	65d6                	ld	a1,336(sp)
    8000298c:	24bb848b          	.insn	4, 0x24bb848b
    80002990:	75ae                	ld	a1,232(sp)
    80002992:	89c5848b          	.insn	4, 0x89c5848b
    80002996:	65fe                	ld	a1,472(sp)
    80002998:	76d2                	ld	a3,304(sp)
    8000299a:	68d5848b          	.insn	4, 0x68d5848b
    8000299e:	29013583          	ld	a1,656(sp)
    800029a2:	00b29e7b          	.insn	4, 0x00b29e7b
    800029a6:	76ce                	ld	a3,240(sp)
    800029a8:	6732                	ld	a4,264(sp)
    800029aa:	48e6870b          	.insn	4, 0x48e6870b
    800029ae:	66b6                	ld	a3,328(sp)
    800029b0:	7772                	ld	a4,312(sp)
    800029b2:	28e6870b          	.insn	4, 0x28e6870b
    800029b6:	76ee                	ld	a3,248(sp)
    800029b8:	8c86870b          	.insn	4, 0x8c86870b
    800029bc:	f20e0153          	fmv.d.x	ft2,t3
    800029c0:	40b2937b          	.insn	4, 0x40b2937b
    800029c4:	02017153          	fadd.d	ft2,ft2,ft0
    800029c8:	66f2                	ld	a3,280(sp)
    800029ca:	64d2                	ld	s1,272(sp)
    800029cc:	6c96840b          	.insn	4, 0x6c96840b
    800029d0:	6692                	ld	a3,256(sp)
    800029d2:	748e                	ld	s1,224(sp)
    800029d4:	4c96840b          	.insn	4, 0x4c96840b
    800029d8:	9cf3878b          	.insn	4, 0x9cf3878b
    800029dc:	f20301d3          	fmv.d.x	ft3,t1
    800029e0:	80b297fb          	.insn	4, 0x80b297fb
    800029e4:	02317153          	fadd.d	ft2,ft2,ft3
    800029e8:	7d6f840b          	.insn	4, 0x7d6f840b
    800029ec:	76b2                	ld	a3,296(sp)
    800029ee:	2cd2840b          	.insn	4, 0x2cd2840b
    800029f2:	c0b296fb          	.insn	4, 0xc0b296fb
    800029f6:	f20781d3          	fmv.d.x	ft3,a5
    800029fa:	5d1a840b          	.insn	4, 0x5d1a840b
    800029fe:	02317153          	fadd.d	ft2,ft2,ft3
    80002a02:	f20681d3          	fmv.d.x	ft3,a3
    80002a06:	3d0f040b          	.insn	4, 0x3d0f040b
    80002a0a:	c0b2947b          	.insn	4, 0xc0b2947b
    80002a0e:	764c                	ld	a1,168(a2)
    80002a10:	64de                	ld	s1,464(sp)
    80002a12:	6084                	ld	s1,0(s1)
    80002a14:	7cbd858b          	.insn	4, 0x7cbd858b
    80002a18:	22813583          	ld	a1,552(sp)
    80002a1c:	95ca                	add	a1,a1,s2
    80002a1e:	058e                	slli	a1,a1,0x3
    80002a20:	95aa                	add	a1,a1,a0
    80002a22:	fb2e                	sd	a1,432(sp)
    80002a24:	618c                	ld	a1,0(a1)
    80002a26:	02317153          	fadd.d	ft2,ft2,ft3
    80002a2a:	5cb4858b          	.insn	4, 0x5cb4858b
    80002a2e:	6596                	ld	a1,320(sp)
    80002a30:	618c                	ld	a1,0(a1)
    80002a32:	7a44                	ld	s1,176(a2)
    80002a34:	676e                	ld	a4,216(sp)
    80002a36:	3cb7085b          	.insn	4, 0x3cb7085b
    80002a3a:	7e4c                	ld	a1,184(a2)
    80002a3c:	f20401d3          	fmv.d.x	ft3,s0
    80002a40:	d0b495fb          	.insn	4, 0xd0b495fb
    80002a44:	02317153          	fadd.d	ft2,ft2,ft3
    80002a48:	27013483          	ld	s1,624(sp)
    80002a4c:	20348493          	addi	s1,s1,515
    80002a50:	048e                	slli	s1,s1,0x3
    80002a52:	94aa                	add	s1,s1,a0
    80002a54:	6084                	ld	s1,0(s1)
    80002a56:	6260                	ld	s0,192(a2)
    80002a58:	f20581d3          	fmv.d.x	ft3,a1
    80002a5c:	3c0488db          	.insn	4, 0x3c0488db
    80002a60:	cc04147b          	.insn	4, 0xcc04147b
    80002a64:	02317153          	fadd.d	ft2,ft2,ft3
    80002a68:	f20401d3          	fmv.d.x	ft3,s0
    80002a6c:	02317153          	fadd.d	ft2,ft2,ft3
    80002a70:	01ce05ab          	.insn	4, 0x01ce05ab
    80002a74:	046304ab          	.insn	4, 0x046304ab
    80002a78:	08f7872b          	.insn	4, 0x08f7872b
    80002a7c:	a22097d3          	flt.d	a5,ft1,ft2
    80002a80:	0cd686ab          	.insn	4, 0x0cd686ab
    80002a84:	1c84042b          	.insn	4, 0x1c84042b
    80002a88:	c3a9                	beqz	a5,80002aca <bilateral_core+0x8d0>
    80002a8a:	f20581d3          	fmv.d.x	ft3,a1
    80002a8e:	0201f1d3          	fadd.d	ft3,ft3,ft0
    80002a92:	f2048253          	fmv.d.x	ft4,s1
    80002a96:	0241f1d3          	fadd.d	ft3,ft3,ft4
    80002a9a:	f2070253          	fmv.d.x	ft4,a4
    80002a9e:	0241f1d3          	fadd.d	ft3,ft3,ft4
    80002aa2:	f2068253          	fmv.d.x	ft4,a3
    80002aa6:	0241f1d3          	fadd.d	ft3,ft3,ft4
    80002aaa:	f2080253          	fmv.d.x	ft4,a6
    80002aae:	0241f1d3          	fadd.d	ft3,ft3,ft4
    80002ab2:	f2088253          	fmv.d.x	ft4,a7
    80002ab6:	0241f1d3          	fadd.d	ft3,ft3,ft4
    80002aba:	f2040253          	fmv.d.x	ft4,s0
    80002abe:	0241f1d3          	fadd.d	ft3,ft3,ft4
    80002ac2:	1a21f153          	fdiv.d	ft2,ft3,ft2
    80002ac6:	e20102d3          	fmv.x.d	t0,ft2
    80002aca:	4881                	li	a7,0
    80002acc:	4381                	li	t2,0
    80002ace:	4c81                	li	s9,0
    80002ad0:	4801                	li	a6,0
    80002ad2:	4301                	li	t1,0
    80002ad4:	4e01                	li	t3,0
    80002ad6:	4e81                	li	t4,0
    80002ad8:	28813583          	ld	a1,648(sp)
    80002adc:	769a                	ld	a3,416(sp)
    80002ade:	95b6                	add	a1,a1,a3
    80002ae0:	0055b023          	sd	t0,0(a1)
    80002ae4:	22013583          	ld	a1,544(sp)
    80002ae8:	0005bd03          	ld	s10,0(a1)
    80002aec:	4f01                	li	t5,0
    80002aee:	25813083          	ld	ra,600(sp)
    80002af2:	24013a83          	ld	s5,576(sp)
    80002af6:	26813703          	ld	a4,616(sp)
    80002afa:	23813d83          	ld	s11,568(sp)
    80002afe:	e32d                	bnez	a4,80002b60 <bilateral_core+0x966>
    80002b00:	27813583          	ld	a1,632(sp)
    80002b04:	23013783          	ld	a5,560(sp)
    80002b08:	95be                	add	a1,a1,a5
    80002b0a:	21013683          	ld	a3,528(sp)
    80002b0e:	8df5                	and	a1,a1,a3
    80002b10:	058e                	slli	a1,a1,0x3
    80002b12:	95aa                	add	a1,a1,a0
    80002b14:	0005b803          	ld	a6,0(a1)
    80002b18:	00063c83          	ld	s9,0(a2)
    80002b1c:	20813583          	ld	a1,520(sp)
    80002b20:	95be                	add	a1,a1,a5
    80002b22:	0f108693          	addi	a3,ra,241
    80002b26:	8df5                	and	a1,a1,a3
    80002b28:	058e                	slli	a1,a1,0x3
    80002b2a:	95aa                	add	a1,a1,a0
    80002b2c:	0005b303          	ld	t1,0(a1)
    80002b30:	00863e03          	ld	t3,8(a2)
    80002b34:	21813583          	ld	a1,536(sp)
    80002b38:	22813683          	ld	a3,552(sp)
    80002b3c:	95b6                	add	a1,a1,a3
    80002b3e:	058e                	slli	a1,a1,0x3
    80002b40:	95aa                	add	a1,a1,a0
    80002b42:	0005b383          	ld	t2,0(a1)
    80002b46:	01063883          	ld	a7,16(a2)
    80002b4a:	75fe                	ld	a1,504(sp)
    80002b4c:	95be                	add	a1,a1,a5
    80002b4e:	0f308693          	addi	a3,ra,243
    80002b52:	8df5                	and	a1,a1,a3
    80002b54:	058e                	slli	a1,a1,0x3
    80002b56:	95aa                	add	a1,a1,a0
    80002b58:	0005be83          	ld	t4,0(a1)
    80002b5c:	01863f03          	ld	t5,24(a2)
    80002b60:	4f81                	li	t6,0
    80002b62:	4901                	li	s2,0
    80002b64:	25013783          	ld	a5,592(sp)
    80002b68:	e30d                	bnez	a4,80002b8a <bilateral_core+0x990>
    80002b6a:	27813583          	ld	a1,632(sp)
    80002b6e:	0045e593          	ori	a1,a1,4
    80002b72:	23013683          	ld	a3,560(sp)
    80002b76:	95b6                	add	a1,a1,a3
    80002b78:	0f408693          	addi	a3,ra,244
    80002b7c:	8df5                	and	a1,a1,a3
    80002b7e:	058e                	slli	a1,a1,0x3
    80002b80:	95aa                	add	a1,a1,a0
    80002b82:	0005bf83          	ld	t6,0(a1)
    80002b86:	02063903          	ld	s2,32(a2)
    80002b8a:	4b81                	li	s7,0
    80002b8c:	4b01                	li	s6,0
    80002b8e:	4981                	li	s3,0
    80002b90:	4a01                	li	s4,0
    80002b92:	4481                	li	s1,0
    80002b94:	4581                	li	a1,0
    80002b96:	e3a9                	bnez	a5,80002bd8 <bilateral_core+0x9de>
    80002b98:	27813583          	ld	a1,632(sp)
    80002b9c:	95d6                	add	a1,a1,s5
    80002b9e:	21013683          	ld	a3,528(sp)
    80002ba2:	8df5                	and	a1,a1,a3
    80002ba4:	058e                	slli	a1,a1,0x3
    80002ba6:	95aa                	add	a1,a1,a0
    80002ba8:	0005b983          	ld	s3,0(a1)
    80002bac:	02863a03          	ld	s4,40(a2)
    80002bb0:	20813583          	ld	a1,520(sp)
    80002bb4:	95d6                	add	a1,a1,s5
    80002bb6:	0f108693          	addi	a3,ra,241
    80002bba:	8df5                	and	a1,a1,a3
    80002bbc:	058e                	slli	a1,a1,0x3
    80002bbe:	95aa                	add	a1,a1,a0
    80002bc0:	0005bb03          	ld	s6,0(a1)
    80002bc4:	03063b83          	ld	s7,48(a2)
    80002bc8:	75ba                	ld	a1,424(sp)
    80002bca:	22813683          	ld	a3,552(sp)
    80002bce:	95b6                	add	a1,a1,a3
    80002bd0:	058e                	slli	a1,a1,0x3
    80002bd2:	95aa                	add	a1,a1,a0
    80002bd4:	6184                	ld	s1,0(a1)
    80002bd6:	7e0c                	ld	a1,56(a2)
    80002bd8:	4281                	li	t0,0
    80002bda:	4c01                	li	s8,0
    80002bdc:	4701                	li	a4,0
    80002bde:	4401                	li	s0,0
    80002be0:	eb85                	bnez	a5,80002c10 <bilateral_core+0xa16>
    80002be2:	76fe                	ld	a3,504(sp)
    80002be4:	96d6                	add	a3,a3,s5
    80002be6:	0f308713          	addi	a4,ra,243
    80002bea:	8ef9                	and	a3,a3,a4
    80002bec:	068e                	slli	a3,a3,0x3
    80002bee:	96aa                	add	a3,a3,a0
    80002bf0:	0006bc03          	ld	s8,0(a3)
    80002bf4:	04063283          	ld	t0,64(a2)
    80002bf8:	27813683          	ld	a3,632(sp)
    80002bfc:	0046e713          	ori	a4,a3,4
    80002c00:	9756                	add	a4,a4,s5
    80002c02:	0f408413          	addi	s0,ra,244
    80002c06:	8f61                	and	a4,a4,s0
    80002c08:	070e                	slli	a4,a4,0x3
    80002c0a:	972a                	add	a4,a4,a0
    80002c0c:	6318                	ld	a4,0(a4)
    80002c0e:	6620                	ld	s0,72(a2)
    80002c10:	81e8868b          	.insn	4, 0x81e8868b
    80002c14:	61cc868b          	.insn	4, 0x61cc868b
    80002c18:	41d3868b          	.insn	4, 0x41d3868b
    80002c1c:	2068068b          	.insn	4, 0x2068068b
    80002c20:	29013783          	ld	a5,656(sp)
    80002c24:	00fd18fb          	.insn	4, 0x00fd18fb
    80002c28:	84bb858b          	.insn	4, 0x84bb858b
    80002c2c:	6549058b          	.insn	4, 0x6549058b
    80002c30:	449b058b          	.insn	4, 0x449b058b
    80002c34:	253f858b          	.insn	4, 0x253f858b
    80002c38:	40fd1e7b          	.insn	4, 0x40fd1e7b
    80002c3c:	f2088153          	fmv.d.x	ft2,a7
    80002c40:	02017153          	fadd.d	ft2,ft2,ft0
    80002c44:	f20e01d3          	fmv.d.x	ft3,t3
    80002c48:	65da                	ld	a1,400(sp)
    80002c4a:	0005b303          	ld	t1,0(a1)
    80002c4e:	6a24                	ld	s1,80(a2)
    80002c50:	0f108593          	addi	a1,ra,241
    80002c54:	22b13023          	sd	a1,544(sp)
    80002c58:	66be                	ld	a3,456(sp)
    80002c5a:	8df5                	and	a1,a1,a3
    80002c5c:	058e                	slli	a1,a1,0x3
    80002c5e:	00b50833          	add	a6,a0,a1
    80002c62:	00083583          	ld	a1,0(a6)
    80002c66:	6e34                	ld	a3,88(a2)
    80002c68:	02317153          	fadd.d	ft2,ft2,ft3
    80002c6c:	6882840b          	.insn	4, 0x6882840b
    80002c70:	28ec070b          	.insn	4, 0x28ec070b
    80002c74:	08fd070b          	.insn	4, 0x08fd070b
    80002c78:	48b3058b          	.insn	4, 0x48b3058b
    80002c7c:	90d49efb          	.insn	4, 0x90d49efb
    80002c80:	06063303          	ld	t1,96(a2)
    80002c84:	7916                	ld	s2,352(sp)
    80002c86:	00093383          	ld	t2,0(s2)
    80002c8a:	06863f03          	ld	t5,104(a2)
    80002c8e:	27813583          	ld	a1,632(sp)
    80002c92:	0045e713          	ori	a4,a1,4
    80002c96:	26013583          	ld	a1,608(sp)
    80002c9a:	95ba                	add	a1,a1,a4
    80002c9c:	eb2e                	sd	a1,400(sp)
    80002c9e:	058e                	slli	a1,a1,0x3
    80002ca0:	feae                	sd	a1,376(sp)
    80002ca2:	00b502b3          	add	t0,a0,a1
    80002ca6:	0002bf83          	ld	t6,0(t0)
    80002caa:	7a20                	ld	s0,112(a2)
    80002cac:	75d6                	ld	a1,368(sp)
    80002cae:	6184                	ld	s1,0(a1)
    80002cb0:	7e2c                	ld	a1,120(a2)
    80002cb2:	0cfd068b          	.insn	4, 0x0cfd068b
    80002cb6:	2c7d068b          	.insn	4, 0x2c7d068b
    80002cba:	6de3068b          	.insn	4, 0x6de3068b
    80002cbe:	4c9f868b          	.insn	4, 0x4c9f868b
    80002cc2:	d0b41f7b          	.insn	4, 0xd0b41f7b
    80002cc6:	f20e81d3          	fmv.d.x	ft3,t4
    80002cca:	02317153          	fadd.d	ft2,ft2,ft3
    80002cce:	f20f01d3          	fmv.d.x	ft3,t5
    80002cd2:	20013583          	ld	a1,512(sp)
    80002cd6:	0005b383          	ld	t2,0(a1)
    80002cda:	08063303          	ld	t1,128(a2)
    80002cde:	75de                	ld	a1,496(sp)
    80002ce0:	6194                	ld	a3,0(a1)
    80002ce2:	6644                	ld	s1,136(a2)
    80002ce4:	75be                	ld	a1,488(sp)
    80002ce6:	6180                	ld	s0,0(a1)
    80002ce8:	6a4c                	ld	a1,144(a2)
    80002cea:	3cd3868b          	.insn	4, 0x3cd3868b
    80002cee:	e7ba                	sd	a4,456(sp)
    80002cf0:	00ed86b3          	add	a3,s11,a4
    80002cf4:	068e                	slli	a3,a3,0x3
    80002cf6:	96aa                	add	a3,a3,a0
    80002cf8:	f3b6                	sd	a3,480(sp)
    80002cfa:	6294                	ld	a3,0(a3)
    80002cfc:	7c93070b          	.insn	4, 0x7c93070b
    80002d00:	6e58                	ld	a4,152(a2)
    80002d02:	02317153          	fadd.d	ft2,ft2,ft3
    80002d06:	1cfd078b          	.insn	4, 0x1cfd078b
    80002d0a:	5cd4068b          	.insn	4, 0x5cd4068b
    80002d0e:	d0e595fb          	.insn	4, 0xd0e595fb
    80002d12:	7254                	ld	a3,160(a2)
    80002d14:	7658                	ld	a4,168(a2)
    80002d16:	77da                	ld	a5,432(sp)
    80002d18:	639c                	ld	a5,0(a5)
    80002d1a:	24813483          	ld	s1,584(sp)
    80002d1e:	747e                	ld	s0,504(sp)
    80002d20:	94a2                	add	s1,s1,s0
    80002d22:	048e                	slli	s1,s1,0x3
    80002d24:	94aa                	add	s1,s1,a0
    80002d26:	7ce6868b          	.insn	4, 0x7ce6868b
    80002d2a:	f326                	sd	s1,416(sp)
    80002d2c:	6094                	ld	a3,0(s1)
    80002d2e:	6716                	ld	a4,320(sp)
    80002d30:	6318                	ld	a4,0(a4)
    80002d32:	5cd7868b          	.insn	4, 0x5cd7868b
    80002d36:	66de                	ld	a3,464(sp)
    80002d38:	6294                	ld	a3,0(a3)
    80002d3a:	7a5c                	ld	a5,176(a2)
    80002d3c:	3cd7035b          	.insn	4, 0x3cd7035b
    80002d40:	7e54                	ld	a3,184(a2)
    80002d42:	f20581d3          	fmv.d.x	ft3,a1
    80002d46:	d0d795fb          	.insn	4, 0xd0d795fb
    80002d4a:	02317153          	fadd.d	ft2,ft2,ft3
    80002d4e:	27013683          	ld	a3,624(sp)
    80002d52:	20468693          	addi	a3,a3,516
    80002d56:	068e                	slli	a3,a3,0x3
    80002d58:	96aa                	add	a3,a3,a0
    80002d5a:	6294                	ld	a3,0(a3)
    80002d5c:	6278                	ld	a4,192(a2)
    80002d5e:	f20581d3          	fmv.d.x	ft3,a1
    80002d62:	3c0683db          	.insn	4, 0x3c0683db
    80002d66:	cc0715fb          	.insn	4, 0xcc0715fb
    80002d6a:	02317153          	fadd.d	ft2,ft2,ft3
    80002d6e:	f20581d3          	fmv.d.x	ft3,a1
    80002d72:	02317153          	fadd.d	ft2,ft2,ft3
    80002d76:	0118872b          	.insn	4, 0x0118872b
    80002d7a:	05ce06ab          	.insn	4, 0x05ce06ab
    80002d7e:	09de842b          	.insn	4, 0x09de842b
    80002d82:	a22097d3          	flt.d	a5,ft1,ft2
    80002d86:	0def04ab          	.insn	4, 0x0def04ab
    80002d8a:	1cb585ab          	.insn	4, 0x1cb585ab
    80002d8e:	c3a9                	beqz	a5,80002dd0 <bilateral_core+0xbd6>
    80002d90:	f20701d3          	fmv.d.x	ft3,a4
    80002d94:	0201f1d3          	fadd.d	ft3,ft3,ft0
    80002d98:	f2068253          	fmv.d.x	ft4,a3
    80002d9c:	0241f1d3          	fadd.d	ft3,ft3,ft4
    80002da0:	f2040253          	fmv.d.x	ft4,s0
    80002da4:	0241f1d3          	fadd.d	ft3,ft3,ft4
    80002da8:	f2048253          	fmv.d.x	ft4,s1
    80002dac:	0241f1d3          	fadd.d	ft3,ft3,ft4
    80002db0:	f2030253          	fmv.d.x	ft4,t1
    80002db4:	0241f1d3          	fadd.d	ft3,ft3,ft4
    80002db8:	f2038253          	fmv.d.x	ft4,t2
    80002dbc:	0241f1d3          	fadd.d	ft3,ft3,ft4
    80002dc0:	f2058253          	fmv.d.x	ft4,a1
    80002dc4:	0241f1d3          	fadd.d	ft3,ft3,ft4
    80002dc8:	1a21f153          	fdiv.d	ft2,ft3,ft2
    80002dcc:	e2010d53          	fmv.x.d	s10,ft2
    80002dd0:	4881                	li	a7,0
    80002dd2:	4e81                	li	t4,0
    80002dd4:	4381                	li	t2,0
    80002dd6:	4301                	li	t1,0
    80002dd8:	4e01                	li	t3,0
    80002dda:	4f01                	li	t5,0
    80002ddc:	4f81                	li	t6,0
    80002dde:	28813583          	ld	a1,648(sp)
    80002de2:	66fa                	ld	a3,408(sp)
    80002de4:	95b6                	add	a1,a1,a3
    80002de6:	01a5b023          	sd	s10,0(a1)
    80002dea:	00093a83          	ld	s5,0(s2)
    80002dee:	4981                	li	s3,0
    80002df0:	26813703          	ld	a4,616(sp)
    80002df4:	e325                	bnez	a4,80002e54 <bilateral_core+0xc5a>
    80002df6:	23013783          	ld	a5,560(sp)
    80002dfa:	20813583          	ld	a1,520(sp)
    80002dfe:	95be                	add	a1,a1,a5
    80002e00:	22013683          	ld	a3,544(sp)
    80002e04:	8df5                	and	a1,a1,a3
    80002e06:	058e                	slli	a1,a1,0x3
    80002e08:	95aa                	add	a1,a1,a0
    80002e0a:	0005b303          	ld	t1,0(a1)
    80002e0e:	00063383          	ld	t2,0(a2)
    80002e12:	22813583          	ld	a1,552(sp)
    80002e16:	95be                	add	a1,a1,a5
    80002e18:	0f208693          	addi	a3,ra,242
    80002e1c:	8df5                	and	a1,a1,a3
    80002e1e:	058e                	slli	a1,a1,0x3
    80002e20:	95aa                	add	a1,a1,a0
    80002e22:	0005be03          	ld	t3,0(a1)
    80002e26:	00863f03          	ld	t5,8(a2)
    80002e2a:	21813583          	ld	a1,536(sp)
    80002e2e:	76fe                	ld	a3,504(sp)
    80002e30:	95b6                	add	a1,a1,a3
    80002e32:	058e                	slli	a1,a1,0x3
    80002e34:	95aa                	add	a1,a1,a0
    80002e36:	0005be83          	ld	t4,0(a1)
    80002e3a:	01063883          	ld	a7,16(a2)
    80002e3e:	65be                	ld	a1,456(sp)
    80002e40:	95be                	add	a1,a1,a5
    80002e42:	0f408693          	addi	a3,ra,244
    80002e46:	8df5                	and	a1,a1,a3
    80002e48:	058e                	slli	a1,a1,0x3
    80002e4a:	95aa                	add	a1,a1,a0
    80002e4c:	0005bf83          	ld	t6,0(a1)
    80002e50:	01863983          	ld	s3,24(a2)
    80002e54:	4a01                	li	s4,0
    80002e56:	4b01                	li	s6,0
    80002e58:	25013783          	ld	a5,592(sp)
    80002e5c:	e30d                	bnez	a4,80002e7e <bilateral_core+0xc84>
    80002e5e:	27813583          	ld	a1,632(sp)
    80002e62:	0055e593          	ori	a1,a1,5
    80002e66:	23013683          	ld	a3,560(sp)
    80002e6a:	95b6                	add	a1,a1,a3
    80002e6c:	0f508693          	addi	a3,ra,245
    80002e70:	8df5                	and	a1,a1,a3
    80002e72:	058e                	slli	a1,a1,0x3
    80002e74:	95aa                	add	a1,a1,a0
    80002e76:	0005ba03          	ld	s4,0(a1)
    80002e7a:	02063b03          	ld	s6,32(a2)
    80002e7e:	4d81                	li	s11,0
    80002e80:	4d01                	li	s10,0
    80002e82:	4b81                	li	s7,0
    80002e84:	4c01                	li	s8,0
    80002e86:	4701                	li	a4,0
    80002e88:	4581                	li	a1,0
    80002e8a:	e3b1                	bnez	a5,80002ece <bilateral_core+0xcd4>
    80002e8c:	24013703          	ld	a4,576(sp)
    80002e90:	20813583          	ld	a1,520(sp)
    80002e94:	95ba                	add	a1,a1,a4
    80002e96:	22013683          	ld	a3,544(sp)
    80002e9a:	8df5                	and	a1,a1,a3
    80002e9c:	058e                	slli	a1,a1,0x3
    80002e9e:	95aa                	add	a1,a1,a0
    80002ea0:	0005bb83          	ld	s7,0(a1)
    80002ea4:	02863c03          	ld	s8,40(a2)
    80002ea8:	22813583          	ld	a1,552(sp)
    80002eac:	95ba                	add	a1,a1,a4
    80002eae:	0f208693          	addi	a3,ra,242
    80002eb2:	8df5                	and	a1,a1,a3
    80002eb4:	058e                	slli	a1,a1,0x3
    80002eb6:	95aa                	add	a1,a1,a0
    80002eb8:	0005bd03          	ld	s10,0(a1)
    80002ebc:	03063d83          	ld	s11,48(a2)
    80002ec0:	75ba                	ld	a1,424(sp)
    80002ec2:	76fe                	ld	a3,504(sp)
    80002ec4:	95b6                	add	a1,a1,a3
    80002ec6:	058e                	slli	a1,a1,0x3
    80002ec8:	95aa                	add	a1,a1,a0
    80002eca:	6198                	ld	a4,0(a1)
    80002ecc:	7e0c                	ld	a1,56(a2)
    80002ece:	4901                	li	s2,0
    80002ed0:	4081                	li	ra,0
    80002ed2:	4c81                	li	s9,0
    80002ed4:	4481                	li	s1,0
    80002ed6:	ef8d                	bnez	a5,80002f10 <bilateral_core+0xd16>
    80002ed8:	24013483          	ld	s1,576(sp)
    80002edc:	66be                	ld	a3,456(sp)
    80002ede:	96a6                	add	a3,a3,s1
    80002ee0:	25813783          	ld	a5,600(sp)
    80002ee4:	0f478413          	addi	s0,a5,244
    80002ee8:	8ee1                	and	a3,a3,s0
    80002eea:	068e                	slli	a3,a3,0x3
    80002eec:	96aa                	add	a3,a3,a0
    80002eee:	0006b083          	ld	ra,0(a3)
    80002ef2:	04063903          	ld	s2,64(a2)
    80002ef6:	27813683          	ld	a3,632(sp)
    80002efa:	0056e413          	ori	s0,a3,5
    80002efe:	9426                	add	s0,s0,s1
    80002f00:	0f578493          	addi	s1,a5,245
    80002f04:	8c65                	and	s0,s0,s1
    80002f06:	040e                	slli	s0,s0,0x3
    80002f08:	942a                	add	s0,s0,a0
    80002f0a:	00043c83          	ld	s9,0(s0)
    80002f0e:	6624                	ld	s1,72(a2)
    80002f10:	8138868b          	.insn	4, 0x8138868b
    80002f14:	61e3868b          	.insn	4, 0x61e3868b
    80002f18:	41fe868b          	.insn	4, 0x41fe868b
    80002f1c:	21c3068b          	.insn	4, 0x21c3068b
    80002f20:	29013403          	ld	s0,656(sp)
    80002f24:	008a98fb          	.insn	4, 0x008a98fb
    80002f28:	84bd858b          	.insn	4, 0x84bd858b
    80002f2c:	658b058b          	.insn	4, 0x658b058b
    80002f30:	44ed058b          	.insn	4, 0x44ed058b
    80002f34:	257a058b          	.insn	4, 0x257a058b
    80002f38:	408a9efb          	.insn	4, 0x408a9efb
    80002f3c:	f2088153          	fmv.d.x	ft2,a7
    80002f40:	02017153          	fadd.d	ft2,ft2,ft0
    80002f44:	f20e81d3          	fmv.d.x	ft3,t4
    80002f48:	00083583          	ld	a1,0(a6)
    80002f4c:	6a34                	ld	a3,80(a2)
    80002f4e:	25813703          	ld	a4,600(sp)
    80002f52:	0f270713          	addi	a4,a4,242
    80002f56:	20e13423          	sd	a4,520(sp)
    80002f5a:	679e                	ld	a5,448(sp)
    80002f5c:	8f7d                	and	a4,a4,a5
    80002f5e:	070e                	slli	a4,a4,0x3
    80002f60:	00e50333          	add	t1,a0,a4
    80002f64:	00033703          	ld	a4,0(t1)
    80002f68:	6e3c                	ld	a5,88(a2)
    80002f6a:	02317153          	fadd.d	ft2,ft2,ft3
    80002f6e:	6899048b          	.insn	4, 0x6899048b
    80002f72:	2990848b          	.insn	4, 0x2990848b
    80002f76:	088a848b          	.insn	4, 0x088a848b
    80002f7a:	48e5858b          	.insn	4, 0x48e5858b
    80002f7e:	90f69f7b          	.insn	4, 0x90f69f7b
    80002f82:	06063383          	ld	t2,96(a2)
    80002f86:	0002be03          	ld	t3,0(t0)
    80002f8a:	06863803          	ld	a6,104(a2)
    80002f8e:	27813903          	ld	s2,632(sp)
    80002f92:	00596793          	ori	a5,s2,5
    80002f96:	26013583          	ld	a1,608(sp)
    80002f9a:	95be                	add	a1,a1,a5
    80002f9c:	f2ae                	sd	a1,352(sp)
    80002f9e:	058e                	slli	a1,a1,0x3
    80002fa0:	e6ae                	sd	a1,328(sp)
    80002fa2:	95aa                	add	a1,a1,a0
    80002fa4:	eaae                	sd	a1,336(sp)
    80002fa6:	0005bf83          	ld	t6,0(a1)
    80002faa:	7a38                	ld	a4,112(a2)
    80002fac:	20013583          	ld	a1,512(sp)
    80002fb0:	6184                	ld	s1,0(a1)
    80002fb2:	7e2c                	ld	a1,120(a2)
    80002fb4:	0c8a868b          	.insn	4, 0x0c8a868b
    80002fb8:	2dca868b          	.insn	4, 0x2dca868b
    80002fbc:	6d03868b          	.insn	4, 0x6d03868b
    80002fc0:	4c9f868b          	.insn	4, 0x4c9f868b
    80002fc4:	d0b71ffb          	.insn	4, 0xd0b71ffb
    80002fc8:	f20f01d3          	fmv.d.x	ft3,t5
    80002fcc:	02317153          	fadd.d	ft2,ft2,ft3
    80002fd0:	f20f81d3          	fmv.d.x	ft3,t6
    80002fd4:	75de                	ld	a1,496(sp)
    80002fd6:	618c                	ld	a1,0(a1)
    80002fd8:	08063383          	ld	t2,128(a2)
    80002fdc:	773e                	ld	a4,488(sp)
    80002fde:	6314                	ld	a3,0(a4)
    80002fe0:	6644                	ld	s1,136(a2)
    80002fe2:	771e                	ld	a4,480(sp)
    80002fe4:	00073803          	ld	a6,0(a4)
    80002fe8:	6a58                	ld	a4,144(a2)
    80002fea:	3cd5858b          	.insn	4, 0x3cd5858b
    80002fee:	23813583          	ld	a1,568(sp)
    80002ff2:	e3be                	sd	a5,448(sp)
    80002ff4:	95be                	add	a1,a1,a5
    80002ff6:	058e                	slli	a1,a1,0x3
    80002ff8:	95aa                	add	a1,a1,a0
    80002ffa:	efae                	sd	a1,472(sp)
    80002ffc:	618c                	ld	a1,0(a1)
    80002ffe:	7c93868b          	.insn	4, 0x7c93868b
    80003002:	6e54                	ld	a3,152(a2)
    80003004:	02317153          	fadd.d	ft2,ft2,ft3
    80003008:	1c8a878b          	.insn	4, 0x1c8a878b
    8000300c:	5cb8058b          	.insn	4, 0x5cb8058b
    80003010:	d0d715fb          	.insn	4, 0xd0d715fb
    80003014:	7254                	ld	a3,160(a2)
    80003016:	7658                	ld	a4,168(a2)
    80003018:	779a                	ld	a5,416(sp)
    8000301a:	639c                	ld	a5,0(a5)
    8000301c:	7ce6868b          	.insn	4, 0x7ce6868b
    80003020:	24813683          	ld	a3,584(sp)
    80003024:	673e                	ld	a4,456(sp)
    80003026:	96ba                	add	a3,a3,a4
    80003028:	068e                	slli	a3,a3,0x3
    8000302a:	96aa                	add	a3,a3,a0
    8000302c:	ef36                	sd	a3,408(sp)
    8000302e:	6294                	ld	a3,0(a3)
    80003030:	675e                	ld	a4,464(sp)
    80003032:	6318                	ld	a4,0(a4)
    80003034:	5cd7868b          	.insn	4, 0x5cd7868b
    80003038:	76da                	ld	a3,432(sp)
    8000303a:	6294                	ld	a3,0(a3)
    8000303c:	7a5c                	ld	a5,176(a2)
    8000303e:	3cd703db          	.insn	4, 0x3cd703db
    80003042:	7e54                	ld	a3,184(a2)
    80003044:	f20581d3          	fmv.d.x	ft3,a1
    80003048:	d0d795fb          	.insn	4, 0xd0d795fb
    8000304c:	02317153          	fadd.d	ft2,ft2,ft3
    80003050:	27013683          	ld	a3,624(sp)
    80003054:	20568693          	addi	a3,a3,517
    80003058:	068e                	slli	a3,a3,0x3
    8000305a:	96aa                	add	a3,a3,a0
    8000305c:	6294                	ld	a3,0(a3)
    8000305e:	6278                	ld	a4,192(a2)
    80003060:	f20581d3          	fmv.d.x	ft3,a1
    80003064:	3c068e5b          	.insn	4, 0x3c068e5b
    80003068:	cc07177b          	.insn	4, 0xcc07177b
    8000306c:	02317153          	fadd.d	ft2,ft2,ft3
    80003070:	f20701d3          	fmv.d.x	ft3,a4
    80003074:	02317153          	fadd.d	ft2,ft2,ft3
    80003078:	011886ab          	.insn	4, 0x011886ab
    8000307c:	05de85ab          	.insn	4, 0x05de85ab
    80003080:	09ef042b          	.insn	4, 0x09ef042b
    80003084:	a22097d3          	flt.d	a5,ft1,ft2
    80003088:	0dff84ab          	.insn	4, 0x0dff84ab
    8000308c:	1ce7072b          	.insn	4, 0x1ce7072b
    80003090:	c3a9                	beqz	a5,800030d2 <bilateral_core+0xed8>
    80003092:	f20681d3          	fmv.d.x	ft3,a3
    80003096:	0201f1d3          	fadd.d	ft3,ft3,ft0
    8000309a:	f2058253          	fmv.d.x	ft4,a1
    8000309e:	0241f1d3          	fadd.d	ft3,ft3,ft4
    800030a2:	f2040253          	fmv.d.x	ft4,s0
    800030a6:	0241f1d3          	fadd.d	ft3,ft3,ft4
    800030aa:	f2048253          	fmv.d.x	ft4,s1
    800030ae:	0241f1d3          	fadd.d	ft3,ft3,ft4
    800030b2:	f2038253          	fmv.d.x	ft4,t2
    800030b6:	0241f1d3          	fadd.d	ft3,ft3,ft4
    800030ba:	f20e0253          	fmv.d.x	ft4,t3
    800030be:	0241f1d3          	fadd.d	ft3,ft3,ft4
    800030c2:	f2070253          	fmv.d.x	ft4,a4
    800030c6:	0241f1d3          	fadd.d	ft3,ft3,ft4
    800030ca:	1a21f153          	fdiv.d	ft2,ft3,ft2
    800030ce:	e2010ad3          	fmv.x.d	s5,ft2
    800030d2:	4881                	li	a7,0
    800030d4:	4f81                	li	t6,0
    800030d6:	4f01                	li	t5,0
    800030d8:	4381                	li	t2,0
    800030da:	4e01                	li	t3,0
    800030dc:	4a01                	li	s4,0
    800030de:	4b01                	li	s6,0
    800030e0:	28813583          	ld	a1,648(sp)
    800030e4:	66ba                	ld	a3,392(sp)
    800030e6:	95b6                	add	a1,a1,a3
    800030e8:	0155b023          	sd	s5,0(a1)
    800030ec:	0002bc83          	ld	s9,0(t0)
    800030f0:	4281                	li	t0,0
    800030f2:	25813703          	ld	a4,600(sp)
    800030f6:	26813483          	ld	s1,616(sp)
    800030fa:	ecb9                	bnez	s1,80003158 <bilateral_core+0xf5e>
    800030fc:	23013783          	ld	a5,560(sp)
    80003100:	22813583          	ld	a1,552(sp)
    80003104:	95be                	add	a1,a1,a5
    80003106:	20813683          	ld	a3,520(sp)
    8000310a:	8df5                	and	a1,a1,a3
    8000310c:	058e                	slli	a1,a1,0x3
    8000310e:	95aa                	add	a1,a1,a0
    80003110:	0005b383          	ld	t2,0(a1)
    80003114:	00063f03          	ld	t5,0(a2)
    80003118:	75fe                	ld	a1,504(sp)
    8000311a:	95be                	add	a1,a1,a5
    8000311c:	0f370693          	addi	a3,a4,243
    80003120:	8df5                	and	a1,a1,a3
    80003122:	058e                	slli	a1,a1,0x3
    80003124:	95aa                	add	a1,a1,a0
    80003126:	0005be03          	ld	t3,0(a1)
    8000312a:	00863a03          	ld	s4,8(a2)
    8000312e:	21813583          	ld	a1,536(sp)
    80003132:	66be                	ld	a3,456(sp)
    80003134:	95b6                	add	a1,a1,a3
    80003136:	058e                	slli	a1,a1,0x3
    80003138:	95aa                	add	a1,a1,a0
    8000313a:	0005bf83          	ld	t6,0(a1)
    8000313e:	01063883          	ld	a7,16(a2)
    80003142:	659e                	ld	a1,448(sp)
    80003144:	95be                	add	a1,a1,a5
    80003146:	0f570693          	addi	a3,a4,245
    8000314a:	8df5                	and	a1,a1,a3
    8000314c:	058e                	slli	a1,a1,0x3
    8000314e:	95aa                	add	a1,a1,a0
    80003150:	0005bb03          	ld	s6,0(a1)
    80003154:	01863283          	ld	t0,24(a2)
    80003158:	4c01                	li	s8,0
    8000315a:	4981                	li	s3,0
    8000315c:	25013783          	ld	a5,592(sp)
    80003160:	ec99                	bnez	s1,8000317e <bilateral_core+0xf84>
    80003162:	00696593          	ori	a1,s2,6
    80003166:	23013683          	ld	a3,560(sp)
    8000316a:	95b6                	add	a1,a1,a3
    8000316c:	0f670693          	addi	a3,a4,246
    80003170:	8df5                	and	a1,a1,a3
    80003172:	058e                	slli	a1,a1,0x3
    80003174:	95aa                	add	a1,a1,a0
    80003176:	0005bc03          	ld	s8,0(a1)
    8000317a:	02063983          	ld	s3,32(a2)
    8000317e:	4e81                	li	t4,0
    80003180:	4081                	li	ra,0
    80003182:	4d01                	li	s10,0
    80003184:	4d81                	li	s11,0
    80003186:	4701                	li	a4,0
    80003188:	4581                	li	a1,0
    8000318a:	e3b9                	bnez	a5,800031d0 <bilateral_core+0xfd6>
    8000318c:	24013703          	ld	a4,576(sp)
    80003190:	22813583          	ld	a1,552(sp)
    80003194:	95ba                	add	a1,a1,a4
    80003196:	20813683          	ld	a3,520(sp)
    8000319a:	8df5                	and	a1,a1,a3
    8000319c:	058e                	slli	a1,a1,0x3
    8000319e:	95aa                	add	a1,a1,a0
    800031a0:	0005bd03          	ld	s10,0(a1)
    800031a4:	02863d83          	ld	s11,40(a2)
    800031a8:	75fe                	ld	a1,504(sp)
    800031aa:	95ba                	add	a1,a1,a4
    800031ac:	25813683          	ld	a3,600(sp)
    800031b0:	0f368693          	addi	a3,a3,243
    800031b4:	8df5                	and	a1,a1,a3
    800031b6:	058e                	slli	a1,a1,0x3
    800031b8:	95aa                	add	a1,a1,a0
    800031ba:	0005b083          	ld	ra,0(a1)
    800031be:	03063e83          	ld	t4,48(a2)
    800031c2:	75ba                	ld	a1,424(sp)
    800031c4:	66be                	ld	a3,456(sp)
    800031c6:	95b6                	add	a1,a1,a3
    800031c8:	058e                	slli	a1,a1,0x3
    800031ca:	95aa                	add	a1,a1,a0
    800031cc:	6198                	ld	a4,0(a1)
    800031ce:	7e0c                	ld	a1,56(a2)
    800031d0:	4b81                	li	s7,0
    800031d2:	4a81                	li	s5,0
    800031d4:	4801                	li	a6,0
    800031d6:	4901                	li	s2,0
    800031d8:	e3a1                	bnez	a5,80003218 <bilateral_core+0x101e>
    800031da:	24013483          	ld	s1,576(sp)
    800031de:	669e                	ld	a3,448(sp)
    800031e0:	96a6                	add	a3,a3,s1
    800031e2:	25813783          	ld	a5,600(sp)
    800031e6:	0f578413          	addi	s0,a5,245
    800031ea:	8ee1                	and	a3,a3,s0
    800031ec:	068e                	slli	a3,a3,0x3
    800031ee:	96aa                	add	a3,a3,a0
    800031f0:	0006ba83          	ld	s5,0(a3)
    800031f4:	04063b83          	ld	s7,64(a2)
    800031f8:	27813683          	ld	a3,632(sp)
    800031fc:	0066e413          	ori	s0,a3,6
    80003200:	00848933          	add	s2,s1,s0
    80003204:	0f678413          	addi	s0,a5,246
    80003208:	00897433          	and	s0,s2,s0
    8000320c:	040e                	slli	s0,s0,0x3
    8000320e:	942a                	add	s0,s0,a0
    80003210:	00043803          	ld	a6,0(s0)
    80003214:	04863903          	ld	s2,72(a2)
    80003218:	8058848b          	.insn	4, 0x8058848b
    8000321c:	614f048b          	.insn	4, 0x614f048b
    80003220:	416f848b          	.insn	4, 0x416f848b
    80003224:	21c3848b          	.insn	4, 0x21c3848b
    80003228:	29013403          	ld	s0,656(sp)
    8000322c:	008c98fb          	.insn	4, 0x008c98fb
    80003230:	84be858b          	.insn	4, 0x84be858b
    80003234:	65b9858b          	.insn	4, 0x65b9858b
    80003238:	44e0858b          	.insn	4, 0x44e0858b
    8000323c:	25ac058b          	.insn	4, 0x25ac058b
    80003240:	408c9e7b          	.insn	4, 0x408c9e7b
    80003244:	f2088153          	fmv.d.x	ft2,a7
    80003248:	02017153          	fadd.d	ft2,ft2,ft0
    8000324c:	f20e01d3          	fmv.d.x	ft3,t3
    80003250:	00033583          	ld	a1,0(t1)
    80003254:	6a24                	ld	s1,80(a2)
    80003256:	25813d03          	ld	s10,600(sp)
    8000325a:	0f3d0693          	addi	a3,s10,243
    8000325e:	20d13023          	sd	a3,512(sp)
    80003262:	777a                	ld	a4,440(sp)
    80003264:	8f75                	and	a4,a4,a3
    80003266:	070e                	slli	a4,a4,0x3
    80003268:	00e50f33          	add	t5,a0,a4
    8000326c:	000f3703          	ld	a4,0(t5)
    80003270:	6e34                	ld	a3,88(a2)
    80003272:	02317153          	fadd.d	ft2,ft2,ft3
    80003276:	692b878b          	.insn	4, 0x692b878b
    8000327a:	290a878b          	.insn	4, 0x290a878b
    8000327e:	088c878b          	.insn	4, 0x088c878b
    80003282:	48e5858b          	.insn	4, 0x48e5858b
    80003286:	90d49efb          	.insn	4, 0x90d49efb
    8000328a:	06063283          	ld	t0,96(a2)
    8000328e:	6956                	ld	s2,336(sp)
    80003290:	00093303          	ld	t1,0(s2)
    80003294:	06863803          	ld	a6,104(a2)
    80003298:	27813583          	ld	a1,632(sp)
    8000329c:	0065e793          	ori	a5,a1,6
    800032a0:	26013583          	ld	a1,608(sp)
    800032a4:	95be                	add	a1,a1,a5
    800032a6:	eeae                	sd	a1,344(sp)
    800032a8:	058e                	slli	a1,a1,0x3
    800032aa:	fe2e                	sd	a1,312(sp)
    800032ac:	00b503b3          	add	t2,a0,a1
    800032b0:	0003bf83          	ld	t6,0(t2)
    800032b4:	7a38                	ld	a4,112(a2)
    800032b6:	75de                	ld	a1,496(sp)
    800032b8:	6184                	ld	s1,0(a1)
    800032ba:	7e2c                	ld	a1,120(a2)
    800032bc:	0c8c868b          	.insn	4, 0x0c8c868b
    800032c0:	2c6c868b          	.insn	4, 0x2c6c868b
    800032c4:	6d02868b          	.insn	4, 0x6d02868b
    800032c8:	4c9f868b          	.insn	4, 0x4c9f868b
    800032cc:	d0b71ffb          	.insn	4, 0xd0b71ffb
    800032d0:	f20e81d3          	fmv.d.x	ft3,t4
    800032d4:	02317153          	fadd.d	ft2,ft2,ft3
    800032d8:	f20f81d3          	fmv.d.x	ft3,t6
    800032dc:	75be                	ld	a1,488(sp)
    800032de:	618c                	ld	a1,0(a1)
    800032e0:	08063283          	ld	t0,128(a2)
    800032e4:	771e                	ld	a4,480(sp)
    800032e6:	6314                	ld	a3,0(a4)
    800032e8:	6644                	ld	s1,136(a2)
    800032ea:	677e                	ld	a4,472(sp)
    800032ec:	00073803          	ld	a6,0(a4)
    800032f0:	6a58                	ld	a4,144(a2)
    800032f2:	3cd5858b          	.insn	4, 0x3cd5858b
    800032f6:	23813583          	ld	a1,568(sp)
    800032fa:	ff3e                	sd	a5,440(sp)
    800032fc:	95be                	add	a1,a1,a5
    800032fe:	058e                	slli	a1,a1,0x3
    80003300:	95aa                	add	a1,a1,a0
    80003302:	22b13423          	sd	a1,552(sp)
    80003306:	618c                	ld	a1,0(a1)
    80003308:	7c92868b          	.insn	4, 0x7c92868b
    8000330c:	6e54                	ld	a3,152(a2)
    8000330e:	02317153          	fadd.d	ft2,ft2,ft3
    80003312:	1c8c878b          	.insn	4, 0x1c8c878b
    80003316:	5cb8058b          	.insn	4, 0x5cb8058b
    8000331a:	d0d715fb          	.insn	4, 0xd0d715fb
    8000331e:	7254                	ld	a3,160(a2)
    80003320:	7658                	ld	a4,168(a2)
    80003322:	67fa                	ld	a5,408(sp)
    80003324:	639c                	ld	a5,0(a5)
    80003326:	7ce6868b          	.insn	4, 0x7ce6868b
    8000332a:	24813683          	ld	a3,584(sp)
    8000332e:	671e                	ld	a4,448(sp)
    80003330:	96ba                	add	a3,a3,a4
    80003332:	068e                	slli	a3,a3,0x3
    80003334:	96aa                	add	a3,a3,a0
    80003336:	e736                	sd	a3,392(sp)
    80003338:	6294                	ld	a3,0(a3)
    8000333a:	775a                	ld	a4,432(sp)
    8000333c:	6318                	ld	a4,0(a4)
    8000333e:	5cd7868b          	.insn	4, 0x5cd7868b
    80003342:	769a                	ld	a3,416(sp)
    80003344:	6294                	ld	a3,0(a3)
    80003346:	7a5c                	ld	a5,176(a2)
    80003348:	3cd702db          	.insn	4, 0x3cd702db
    8000334c:	7e54                	ld	a3,184(a2)
    8000334e:	f20581d3          	fmv.d.x	ft3,a1
    80003352:	d0d795fb          	.insn	4, 0xd0d795fb
    80003356:	02317153          	fadd.d	ft2,ft2,ft3
    8000335a:	27013683          	ld	a3,624(sp)
    8000335e:	20668693          	addi	a3,a3,518
    80003362:	068e                	slli	a3,a3,0x3
    80003364:	96aa                	add	a3,a3,a0
    80003366:	6294                	ld	a3,0(a3)
    80003368:	6278                	ld	a4,192(a2)
    8000336a:	f20581d3          	fmv.d.x	ft3,a1
    8000336e:	3c06835b          	.insn	4, 0x3c06835b
    80003372:	cc07177b          	.insn	4, 0xcc07177b
    80003376:	02317153          	fadd.d	ft2,ft2,ft3
    8000337a:	f20701d3          	fmv.d.x	ft3,a4
    8000337e:	02317153          	fadd.d	ft2,ft2,ft3
    80003382:	011886ab          	.insn	4, 0x011886ab
    80003386:	05ce05ab          	.insn	4, 0x05ce05ab
    8000338a:	09de842b          	.insn	4, 0x09de842b
    8000338e:	a22097d3          	flt.d	a5,ft1,ft2
    80003392:	0dff84ab          	.insn	4, 0x0dff84ab
    80003396:	1ce7072b          	.insn	4, 0x1ce7072b
    8000339a:	c3a9                	beqz	a5,800033dc <bilateral_core+0x11e2>
    8000339c:	f20681d3          	fmv.d.x	ft3,a3
    800033a0:	0201f1d3          	fadd.d	ft3,ft3,ft0
    800033a4:	f2058253          	fmv.d.x	ft4,a1
    800033a8:	0241f1d3          	fadd.d	ft3,ft3,ft4
    800033ac:	f2040253          	fmv.d.x	ft4,s0
    800033b0:	0241f1d3          	fadd.d	ft3,ft3,ft4
    800033b4:	f2048253          	fmv.d.x	ft4,s1
    800033b8:	0241f1d3          	fadd.d	ft3,ft3,ft4
    800033bc:	f2028253          	fmv.d.x	ft4,t0
    800033c0:	0241f1d3          	fadd.d	ft3,ft3,ft4
    800033c4:	f2030253          	fmv.d.x	ft4,t1
    800033c8:	0241f1d3          	fadd.d	ft3,ft3,ft4
    800033cc:	f2070253          	fmv.d.x	ft4,a4
    800033d0:	0241f1d3          	fadd.d	ft3,ft3,ft4
    800033d4:	1a21f153          	fdiv.d	ft2,ft3,ft2
    800033d8:	e2010cd3          	fmv.x.d	s9,ft2
    800033dc:	4881                	li	a7,0
    800033de:	4e01                	li	t3,0
    800033e0:	4a01                	li	s4,0
    800033e2:	4f81                	li	t6,0
    800033e4:	4a81                	li	s5,0
    800033e6:	4b01                	li	s6,0
    800033e8:	4c01                	li	s8,0
    800033ea:	28813583          	ld	a1,648(sp)
    800033ee:	76f6                	ld	a3,376(sp)
    800033f0:	95b6                	add	a1,a1,a3
    800033f2:	0195b023          	sd	s9,0(a1)
    800033f6:	00093b83          	ld	s7,0(s2)
    800033fa:	4801                	li	a6,0
    800033fc:	26813483          	ld	s1,616(sp)
    80003400:	e0ad                	bnez	s1,80003462 <bilateral_core+0x1268>
    80003402:	23013783          	ld	a5,560(sp)
    80003406:	75fe                	ld	a1,504(sp)
    80003408:	00b786b3          	add	a3,a5,a1
    8000340c:	20013583          	ld	a1,512(sp)
    80003410:	8eed                	and	a3,a3,a1
    80003412:	068e                	slli	a3,a3,0x3
    80003414:	96aa                	add	a3,a3,a0
    80003416:	0006bf83          	ld	t6,0(a3)
    8000341a:	00063a03          	ld	s4,0(a2)
    8000341e:	65be                	ld	a1,456(sp)
    80003420:	00b786b3          	add	a3,a5,a1
    80003424:	0f4d0713          	addi	a4,s10,244
    80003428:	8ef9                	and	a3,a3,a4
    8000342a:	068e                	slli	a3,a3,0x3
    8000342c:	96aa                	add	a3,a3,a0
    8000342e:	0006ba83          	ld	s5,0(a3)
    80003432:	00863b03          	ld	s6,8(a2)
    80003436:	21813583          	ld	a1,536(sp)
    8000343a:	669e                	ld	a3,448(sp)
    8000343c:	96ae                	add	a3,a3,a1
    8000343e:	068e                	slli	a3,a3,0x3
    80003440:	96aa                	add	a3,a3,a0
    80003442:	0006be03          	ld	t3,0(a3)
    80003446:	01063883          	ld	a7,16(a2)
    8000344a:	75fa                	ld	a1,440(sp)
    8000344c:	00b786b3          	add	a3,a5,a1
    80003450:	0f6d0713          	addi	a4,s10,246
    80003454:	8ef9                	and	a3,a3,a4
    80003456:	068e                	slli	a3,a3,0x3
    80003458:	96aa                	add	a3,a3,a0
    8000345a:	0006bc03          	ld	s8,0(a3)
    8000345e:	01863803          	ld	a6,24(a2)
    80003462:	4d81                	li	s11,0
    80003464:	4981                	li	s3,0
    80003466:	25013783          	ld	a5,592(sp)
    8000346a:	e08d                	bnez	s1,8000348c <bilateral_core+0x1292>
    8000346c:	27813583          	ld	a1,632(sp)
    80003470:	0075e693          	ori	a3,a1,7
    80003474:	23013583          	ld	a1,560(sp)
    80003478:	96ae                	add	a3,a3,a1
    8000347a:	0f7d0713          	addi	a4,s10,247
    8000347e:	8ef9                	and	a3,a3,a4
    80003480:	068e                	slli	a3,a3,0x3
    80003482:	96aa                	add	a3,a3,a0
    80003484:	0006bd83          	ld	s11,0(a3)
    80003488:	02063983          	ld	s3,32(a2)
    8000348c:	4e81                	li	t4,0
    8000348e:	4301                	li	t1,0
    80003490:	4d01                	li	s10,0
    80003492:	4081                	li	ra,0
    80003494:	4c81                	li	s9,0
    80003496:	4701                	li	a4,0
    80003498:	e7a9                	bnez	a5,800034e2 <bilateral_core+0x12e8>
    8000349a:	24013703          	ld	a4,576(sp)
    8000349e:	75fe                	ld	a1,504(sp)
    800034a0:	00b706b3          	add	a3,a4,a1
    800034a4:	20013583          	ld	a1,512(sp)
    800034a8:	8eed                	and	a3,a3,a1
    800034aa:	068e                	slli	a3,a3,0x3
    800034ac:	96aa                	add	a3,a3,a0
    800034ae:	0006bd03          	ld	s10,0(a3)
    800034b2:	02863083          	ld	ra,40(a2)
    800034b6:	65be                	ld	a1,456(sp)
    800034b8:	00b706b3          	add	a3,a4,a1
    800034bc:	25813583          	ld	a1,600(sp)
    800034c0:	0f458713          	addi	a4,a1,244
    800034c4:	8ef9                	and	a3,a3,a4
    800034c6:	068e                	slli	a3,a3,0x3
    800034c8:	96aa                	add	a3,a3,a0
    800034ca:	0006b303          	ld	t1,0(a3)
    800034ce:	03063e83          	ld	t4,48(a2)
    800034d2:	75ba                	ld	a1,424(sp)
    800034d4:	669e                	ld	a3,448(sp)
    800034d6:	96ae                	add	a3,a3,a1
    800034d8:	068e                	slli	a3,a3,0x3
    800034da:	96aa                	add	a3,a3,a0
    800034dc:	0006bc83          	ld	s9,0(a3)
    800034e0:	7e18                	ld	a4,56(a2)
    800034e2:	4281                	li	t0,0
    800034e4:	4901                	li	s2,0
    800034e6:	4481                	li	s1,0
    800034e8:	4401                	li	s0,0
    800034ea:	ef8d                	bnez	a5,80003524 <bilateral_core+0x132a>
    800034ec:	24013783          	ld	a5,576(sp)
    800034f0:	75fa                	ld	a1,440(sp)
    800034f2:	00b786b3          	add	a3,a5,a1
    800034f6:	25813583          	ld	a1,600(sp)
    800034fa:	0f658493          	addi	s1,a1,246
    800034fe:	8ee5                	and	a3,a3,s1
    80003500:	068e                	slli	a3,a3,0x3
    80003502:	96aa                	add	a3,a3,a0
    80003504:	0006b903          	ld	s2,0(a3)
    80003508:	04063283          	ld	t0,64(a2)
    8000350c:	27813683          	ld	a3,632(sp)
    80003510:	0076e493          	ori	s1,a3,7
    80003514:	94be                	add	s1,s1,a5
    80003516:	0f758413          	addi	s0,a1,247
    8000351a:	8ce1                	and	s1,s1,s0
    8000351c:	048e                	slli	s1,s1,0x3
    8000351e:	94aa                	add	s1,s1,a0
    80003520:	6084                	ld	s1,0(s1)
    80003522:	6620                	ld	s0,72(a2)
    80003524:	8108868b          	.insn	4, 0x8108868b
    80003528:	616a068b          	.insn	4, 0x616a068b
    8000352c:	418e068b          	.insn	4, 0x418e068b
    80003530:	215f868b          	.insn	4, 0x215f868b
    80003534:	29013583          	ld	a1,656(sp)
    80003538:	00bb98fb          	.insn	4, 0x00bb98fb
    8000353c:	84ee868b          	.insn	4, 0x84ee868b
    80003540:	6419868b          	.insn	4, 0x6419868b
    80003544:	4593068b          	.insn	4, 0x4593068b
    80003548:	25ad868b          	.insn	4, 0x25ad868b
    8000354c:	40bb9efb          	.insn	4, 0x40bb9efb
    80003550:	f2088153          	fmv.d.x	ft2,a7
    80003554:	02017153          	fadd.d	ft2,ft2,ft0
    80003558:	f20e81d3          	fmv.d.x	ft3,t4
    8000355c:	000f3683          	ld	a3,0(t5)
    80003560:	05063303          	ld	t1,80(a2)
    80003564:	25813983          	ld	s3,600(sp)
    80003568:	0f498713          	addi	a4,s3,244
    8000356c:	ffba                	sd	a4,504(sp)
    8000356e:	67da                	ld	a5,400(sp)
    80003570:	8ff9                	and	a5,a5,a4
    80003572:	078e                	slli	a5,a5,0x3
    80003574:	00f50833          	add	a6,a0,a5
    80003578:	00083783          	ld	a5,0(a6)
    8000357c:	6e38                	ld	a4,88(a2)
    8000357e:	02317153          	fadd.d	ft2,ft2,ft3
    80003582:	6882840b          	.insn	4, 0x6882840b
    80003586:	2899048b          	.insn	4, 0x2899048b
    8000358a:	08bb848b          	.insn	4, 0x08bb848b
    8000358e:	48f6868b          	.insn	4, 0x48f6868b
    80003592:	90e31f7b          	.insn	4, 0x90e31f7b
    80003596:	06063283          	ld	t0,96(a2)
    8000359a:	0003b303          	ld	t1,0(t2)
    8000359e:	06863e03          	ld	t3,104(a2)
    800035a2:	27813683          	ld	a3,632(sp)
    800035a6:	0076e493          	ori	s1,a3,7
    800035aa:	26013683          	ld	a3,608(sp)
    800035ae:	96a6                	add	a3,a3,s1
    800035b0:	eab6                	sd	a3,336(sp)
    800035b2:	068e                	slli	a3,a3,0x3
    800035b4:	fa36                	sd	a3,304(sp)
    800035b6:	96aa                	add	a3,a3,a0
    800035b8:	eb36                	sd	a3,400(sp)
    800035ba:	629c                	ld	a5,0(a3)
    800035bc:	07063f83          	ld	t6,112(a2)
    800035c0:	76be                	ld	a3,488(sp)
    800035c2:	6280                	ld	s0,0(a3)
    800035c4:	7e38                	ld	a4,120(a2)
    800035c6:	0cbb868b          	.insn	4, 0x0cbb868b
    800035ca:	2c6b868b          	.insn	4, 0x2c6b868b
    800035ce:	6dc2868b          	.insn	4, 0x6dc2868b
    800035d2:	4c87868b          	.insn	4, 0x4c87868b
    800035d6:	d0ef9ffb          	.insn	4, 0xd0ef9ffb
    800035da:	f20f01d3          	fmv.d.x	ft3,t5
    800035de:	02317153          	fadd.d	ft2,ft2,ft3
    800035e2:	f20f81d3          	fmv.d.x	ft3,t6
    800035e6:	769e                	ld	a3,480(sp)
    800035e8:	6294                	ld	a3,0(a3)
    800035ea:	08063303          	ld	t1,128(a2)
    800035ee:	67fe                	ld	a5,472(sp)
    800035f0:	639c                	ld	a5,0(a5)
    800035f2:	6658                	ld	a4,136(a2)
    800035f4:	22813403          	ld	s0,552(sp)
    800035f8:	00043283          	ld	t0,0(s0)
    800035fc:	6a40                	ld	s0,144(a2)
    800035fe:	3cf6868b          	.insn	4, 0x3cf6868b
    80003602:	23813683          	ld	a3,568(sp)
    80003606:	fb26                	sd	s1,432(sp)
    80003608:	96a6                	add	a3,a3,s1
    8000360a:	068e                	slli	a3,a3,0x3
    8000360c:	96aa                	add	a3,a3,a0
    8000360e:	ebb6                	sd	a3,464(sp)
    80003610:	6294                	ld	a3,0(a3)
    80003612:	7ce3070b          	.insn	4, 0x7ce3070b
    80003616:	6e58                	ld	a4,152(a2)
    80003618:	02317153          	fadd.d	ft2,ft2,ft3
    8000361c:	1cbb878b          	.insn	4, 0x1cbb878b
    80003620:	5cd2868b          	.insn	4, 0x5cd2868b
    80003624:	d0e415fb          	.insn	4, 0xd0e415fb
    80003628:	7254                	ld	a3,160(a2)
    8000362a:	7658                	ld	a4,168(a2)
    8000362c:	67ba                	ld	a5,392(sp)
    8000362e:	639c                	ld	a5,0(a5)
    80003630:	7ce6868b          	.insn	4, 0x7ce6868b
    80003634:	24813683          	ld	a3,584(sp)
    80003638:	777a                	ld	a4,440(sp)
    8000363a:	96ba                	add	a3,a3,a4
    8000363c:	068e                	slli	a3,a3,0x3
    8000363e:	96aa                	add	a3,a3,a0
    80003640:	feb6                	sd	a3,376(sp)
    80003642:	6294                	ld	a3,0(a3)
    80003644:	771a                	ld	a4,416(sp)
    80003646:	6318                	ld	a4,0(a4)
    80003648:	5cd7868b          	.insn	4, 0x5cd7868b
    8000364c:	66fa                	ld	a3,408(sp)
    8000364e:	6294                	ld	a3,0(a3)
    80003650:	7a5c                	ld	a5,176(a2)
    80003652:	3cd702db          	.insn	4, 0x3cd702db
    80003656:	7e54                	ld	a3,184(a2)
    80003658:	f20581d3          	fmv.d.x	ft3,a1
    8000365c:	d0d795fb          	.insn	4, 0xd0d795fb
    80003660:	02317153          	fadd.d	ft2,ft2,ft3
    80003664:	27013683          	ld	a3,624(sp)
    80003668:	20768693          	addi	a3,a3,519
    8000366c:	068e                	slli	a3,a3,0x3
    8000366e:	96aa                	add	a3,a3,a0
    80003670:	6294                	ld	a3,0(a3)
    80003672:	6278                	ld	a4,192(a2)
    80003674:	f20581d3          	fmv.d.x	ft3,a1
    80003678:	3c06835b          	.insn	4, 0x3c06835b
    8000367c:	cc0715fb          	.insn	4, 0xcc0715fb
    80003680:	02317153          	fadd.d	ft2,ft2,ft3
    80003684:	f20581d3          	fmv.d.x	ft3,a1
    80003688:	02317153          	fadd.d	ft2,ft2,ft3
    8000368c:	0118872b          	.insn	4, 0x0118872b
    80003690:	05de86ab          	.insn	4, 0x05de86ab
    80003694:	09ef042b          	.insn	4, 0x09ef042b
    80003698:	a22097d3          	flt.d	a5,ft1,ft2
    8000369c:	0dff84ab          	.insn	4, 0x0dff84ab
    800036a0:	1cb585ab          	.insn	4, 0x1cb585ab
    800036a4:	c3a9                	beqz	a5,800036e6 <bilateral_core+0x14ec>
    800036a6:	f20701d3          	fmv.d.x	ft3,a4
    800036aa:	0201f1d3          	fadd.d	ft3,ft3,ft0
    800036ae:	f2068253          	fmv.d.x	ft4,a3
    800036b2:	0241f1d3          	fadd.d	ft3,ft3,ft4
    800036b6:	f2040253          	fmv.d.x	ft4,s0
    800036ba:	0241f1d3          	fadd.d	ft3,ft3,ft4
    800036be:	f2048253          	fmv.d.x	ft4,s1
    800036c2:	0241f1d3          	fadd.d	ft3,ft3,ft4
    800036c6:	f2028253          	fmv.d.x	ft4,t0
    800036ca:	0241f1d3          	fadd.d	ft3,ft3,ft4
    800036ce:	f2030253          	fmv.d.x	ft4,t1
    800036d2:	0241f1d3          	fadd.d	ft3,ft3,ft4
    800036d6:	f2058253          	fmv.d.x	ft4,a1
    800036da:	0241f1d3          	fadd.d	ft3,ft3,ft4
    800036de:	1a21f153          	fdiv.d	ft2,ft3,ft2
    800036e2:	e2010bd3          	fmv.x.d	s7,ft2
    800036e6:	4881                	li	a7,0
    800036e8:	4c01                	li	s8,0
    800036ea:	4a01                	li	s4,0
    800036ec:	4901                	li	s2,0
    800036ee:	4b01                	li	s6,0
    800036f0:	4d81                	li	s11,0
    800036f2:	4f01                	li	t5,0
    800036f4:	28813583          	ld	a1,648(sp)
    800036f8:	66b6                	ld	a3,328(sp)
    800036fa:	95b6                	add	a1,a1,a3
    800036fc:	0175b023          	sd	s7,0(a1)
    80003700:	0003be03          	ld	t3,0(t2)
    80003704:	4381                	li	t2,0
    80003706:	26813783          	ld	a5,616(sp)
    8000370a:	e3a5                	bnez	a5,8000376a <bilateral_core+0x1570>
    8000370c:	23013483          	ld	s1,560(sp)
    80003710:	65be                	ld	a1,456(sp)
    80003712:	00b486b3          	add	a3,s1,a1
    80003716:	75fe                	ld	a1,504(sp)
    80003718:	8eed                	and	a3,a3,a1
    8000371a:	068e                	slli	a3,a3,0x3
    8000371c:	96aa                	add	a3,a3,a0
    8000371e:	0006b903          	ld	s2,0(a3)
    80003722:	00063a03          	ld	s4,0(a2)
    80003726:	659e                	ld	a1,448(sp)
    80003728:	00b486b3          	add	a3,s1,a1
    8000372c:	0f598713          	addi	a4,s3,245
    80003730:	8ef9                	and	a3,a3,a4
    80003732:	068e                	slli	a3,a3,0x3
    80003734:	96aa                	add	a3,a3,a0
    80003736:	0006bb03          	ld	s6,0(a3)
    8000373a:	00863d83          	ld	s11,8(a2)
    8000373e:	21813583          	ld	a1,536(sp)
    80003742:	76fa                	ld	a3,440(sp)
    80003744:	96ae                	add	a3,a3,a1
    80003746:	068e                	slli	a3,a3,0x3
    80003748:	96aa                	add	a3,a3,a0
    8000374a:	0006bc03          	ld	s8,0(a3)
    8000374e:	01063883          	ld	a7,16(a2)
    80003752:	75da                	ld	a1,432(sp)
    80003754:	00b486b3          	add	a3,s1,a1
    80003758:	0f798713          	addi	a4,s3,247
    8000375c:	8ef9                	and	a3,a3,a4
    8000375e:	068e                	slli	a3,a3,0x3
    80003760:	96aa                	add	a3,a3,a0
    80003762:	0006bf03          	ld	t5,0(a3)
    80003766:	01863383          	ld	t2,24(a2)
    8000376a:	4d01                	li	s10,0
    8000376c:	4081                	li	ra,0
    8000376e:	25013403          	ld	s0,592(sp)
    80003772:	e39d                	bnez	a5,80003798 <bilateral_core+0x159e>
    80003774:	27813583          	ld	a1,632(sp)
    80003778:	0085e693          	ori	a3,a1,8
    8000377c:	23013583          	ld	a1,560(sp)
    80003780:	96ae                	add	a3,a3,a1
    80003782:	25813583          	ld	a1,600(sp)
    80003786:	0f858713          	addi	a4,a1,248
    8000378a:	8ef9                	and	a3,a3,a4
    8000378c:	068e                	slli	a3,a3,0x3
    8000378e:	96aa                	add	a3,a3,a0
    80003790:	0006bd03          	ld	s10,0(a3)
    80003794:	02063083          	ld	ra,32(a2)
    80003798:	4981                	li	s3,0
    8000379a:	4b81                	li	s7,0
    8000379c:	4f81                	li	t6,0
    8000379e:	4281                	li	t0,0
    800037a0:	4301                	li	t1,0
    800037a2:	4e81                	li	t4,0
    800037a4:	e429                	bnez	s0,800037ee <bilateral_core+0x15f4>
    800037a6:	24013703          	ld	a4,576(sp)
    800037aa:	65be                	ld	a1,456(sp)
    800037ac:	00b706b3          	add	a3,a4,a1
    800037b0:	75fe                	ld	a1,504(sp)
    800037b2:	8eed                	and	a3,a3,a1
    800037b4:	068e                	slli	a3,a3,0x3
    800037b6:	96aa                	add	a3,a3,a0
    800037b8:	0006bf83          	ld	t6,0(a3)
    800037bc:	02863283          	ld	t0,40(a2)
    800037c0:	659e                	ld	a1,448(sp)
    800037c2:	00b706b3          	add	a3,a4,a1
    800037c6:	25813583          	ld	a1,600(sp)
    800037ca:	0f558713          	addi	a4,a1,245
    800037ce:	8ef9                	and	a3,a3,a4
    800037d0:	068e                	slli	a3,a3,0x3
    800037d2:	96aa                	add	a3,a3,a0
    800037d4:	0006bb83          	ld	s7,0(a3)
    800037d8:	03063983          	ld	s3,48(a2)
    800037dc:	75ba                	ld	a1,424(sp)
    800037de:	76fa                	ld	a3,440(sp)
    800037e0:	96ae                	add	a3,a3,a1
    800037e2:	068e                	slli	a3,a3,0x3
    800037e4:	96aa                	add	a3,a3,a0
    800037e6:	0006b303          	ld	t1,0(a3)
    800037ea:	03863e83          	ld	t4,56(a2)
    800037ee:	4a81                	li	s5,0
    800037f0:	4c81                	li	s9,0
    800037f2:	4681                	li	a3,0
    800037f4:	4781                	li	a5,0
    800037f6:	ec0d                	bnez	s0,80003830 <bilateral_core+0x1636>
    800037f8:	24013703          	ld	a4,576(sp)
    800037fc:	75da                	ld	a1,432(sp)
    800037fe:	00b706b3          	add	a3,a4,a1
    80003802:	25813583          	ld	a1,600(sp)
    80003806:	0f758793          	addi	a5,a1,247
    8000380a:	8efd                	and	a3,a3,a5
    8000380c:	068e                	slli	a3,a3,0x3
    8000380e:	96aa                	add	a3,a3,a0
    80003810:	0006bc83          	ld	s9,0(a3)
    80003814:	04063a83          	ld	s5,64(a2)
    80003818:	27813683          	ld	a3,632(sp)
    8000381c:	0086e693          	ori	a3,a3,8
    80003820:	96ba                	add	a3,a3,a4
    80003822:	0f858793          	addi	a5,a1,248
    80003826:	8efd                	and	a3,a3,a5
    80003828:	068e                	slli	a3,a3,0x3
    8000382a:	96aa                	add	a3,a3,a0
    8000382c:	6294                	ld	a3,0(a3)
    8000382e:	663c                	ld	a5,72(a2)
    80003830:	8078870b          	.insn	4, 0x8078870b
    80003834:	61ba070b          	.insn	4, 0x61ba070b
    80003838:	41ec070b          	.insn	4, 0x41ec070b
    8000383c:	2169070b          	.insn	4, 0x2169070b
    80003840:	29013583          	ld	a1,656(sp)
    80003844:	00be18fb          	.insn	4, 0x00be18fb
    80003848:	85d9870b          	.insn	4, 0x85d9870b
    8000384c:	6450870b          	.insn	4, 0x6450870b
    80003850:	446b870b          	.insn	4, 0x446b870b
    80003854:	25fd070b          	.insn	4, 0x25fd070b
    80003858:	40be13fb          	.insn	4, 0x40be13fb
    8000385c:	f2088153          	fmv.d.x	ft2,a7
    80003860:	02017153          	fadd.d	ft2,ft2,ft0
    80003864:	f20381d3          	fmv.d.x	ft3,t2
    80003868:	00083803          	ld	a6,0(a6)
    8000386c:	6a20                	ld	s0,80(a2)
    8000386e:	25813f83          	ld	t6,600(sp)
    80003872:	0f5f8713          	addi	a4,t6,245
    80003876:	fbba                	sd	a4,496(sp)
    80003878:	7496                	ld	s1,352(sp)
    8000387a:	8cf9                	and	s1,s1,a4
    8000387c:	048e                	slli	s1,s1,0x3
    8000387e:	00950b33          	add	s6,a0,s1
    80003882:	000b3483          	ld	s1,0(s6)
    80003886:	6e38                	ld	a4,88(a2)
    80003888:	02317153          	fadd.d	ft2,ft2,ft3
    8000388c:	68fa878b          	.insn	4, 0x68fa878b
    80003890:	28dc868b          	.insn	4, 0x28dc868b
    80003894:	08be068b          	.insn	4, 0x08be068b
    80003898:	4898068b          	.insn	4, 0x4898068b
    8000389c:	90e41efb          	.insn	4, 0x90e41efb
    800038a0:	06063283          	ld	t0,96(a2)
    800038a4:	69da                	ld	s3,400(sp)
    800038a6:	0009b303          	ld	t1,0(s3)
    800038aa:	06863f03          	ld	t5,104(a2)
    800038ae:	27813683          	ld	a3,632(sp)
    800038b2:	0086e493          	ori	s1,a3,8
    800038b6:	26013683          	ld	a3,608(sp)
    800038ba:	96a6                	add	a3,a3,s1
    800038bc:	e6b6                	sd	a3,328(sp)
    800038be:	068e                	slli	a3,a3,0x3
    800038c0:	f636                	sd	a3,296(sp)
    800038c2:	00d50833          	add	a6,a0,a3
    800038c6:	00083783          	ld	a5,0(a6)
    800038ca:	07063903          	ld	s2,112(a2)
    800038ce:	769e                	ld	a3,480(sp)
    800038d0:	6280                	ld	s0,0(a3)
    800038d2:	7e38                	ld	a4,120(a2)
    800038d4:	0cbe068b          	.insn	4, 0x0cbe068b
    800038d8:	2c6e068b          	.insn	4, 0x2c6e068b
    800038dc:	6de2868b          	.insn	4, 0x6de2868b
    800038e0:	4c87868b          	.insn	4, 0x4c87868b
    800038e4:	d0e91f7b          	.insn	4, 0xd0e91f7b
    800038e8:	f20e81d3          	fmv.d.x	ft3,t4
    800038ec:	02317153          	fadd.d	ft2,ft2,ft3
    800038f0:	f20f01d3          	fmv.d.x	ft3,t5
    800038f4:	66fe                	ld	a3,472(sp)
    800038f6:	6294                	ld	a3,0(a3)
    800038f8:	08063303          	ld	t1,128(a2)
    800038fc:	22813783          	ld	a5,552(sp)
    80003900:	639c                	ld	a5,0(a5)
    80003902:	6658                	ld	a4,136(a2)
    80003904:	645e                	ld	s0,464(sp)
    80003906:	00043283          	ld	t0,0(s0)
    8000390a:	6a40                	ld	s0,144(a2)
    8000390c:	3cf6868b          	.insn	4, 0x3cf6868b
    80003910:	23813683          	ld	a3,568(sp)
    80003914:	f326                	sd	s1,416(sp)
    80003916:	96a6                	add	a3,a3,s1
    80003918:	068e                	slli	a3,a3,0x3
    8000391a:	96aa                	add	a3,a3,a0
    8000391c:	e7b6                	sd	a3,456(sp)
    8000391e:	6294                	ld	a3,0(a3)
    80003920:	7ce3070b          	.insn	4, 0x7ce3070b
    80003924:	6e58                	ld	a4,152(a2)
    80003926:	02317153          	fadd.d	ft2,ft2,ft3
    8000392a:	1cbe078b          	.insn	4, 0x1cbe078b
    8000392e:	5cd2868b          	.insn	4, 0x5cd2868b
    80003932:	d0e415fb          	.insn	4, 0xd0e415fb
    80003936:	7254                	ld	a3,160(a2)
    80003938:	7658                	ld	a4,168(a2)
    8000393a:	77f6                	ld	a5,376(sp)
    8000393c:	639c                	ld	a5,0(a5)
    8000393e:	7ce6868b          	.insn	4, 0x7ce6868b
    80003942:	24813683          	ld	a3,584(sp)
    80003946:	775a                	ld	a4,432(sp)
    80003948:	96ba                	add	a3,a3,a4
    8000394a:	068e                	slli	a3,a3,0x3
    8000394c:	96aa                	add	a3,a3,a0
    8000394e:	f2b6                	sd	a3,352(sp)
    80003950:	6294                	ld	a3,0(a3)
    80003952:	677a                	ld	a4,408(sp)
    80003954:	6318                	ld	a4,0(a4)
    80003956:	5cd7868b          	.insn	4, 0x5cd7868b
    8000395a:	66ba                	ld	a3,392(sp)
    8000395c:	6294                	ld	a3,0(a3)
    8000395e:	7a5c                	ld	a5,176(a2)
    80003960:	3cd702db          	.insn	4, 0x3cd702db
    80003964:	7e54                	ld	a3,184(a2)
    80003966:	f20581d3          	fmv.d.x	ft3,a1
    8000396a:	d0d795fb          	.insn	4, 0xd0d795fb
    8000396e:	02317153          	fadd.d	ft2,ft2,ft3
    80003972:	27013683          	ld	a3,624(sp)
    80003976:	20868693          	addi	a3,a3,520
    8000397a:	068e                	slli	a3,a3,0x3
    8000397c:	96aa                	add	a3,a3,a0
    8000397e:	6294                	ld	a3,0(a3)
    80003980:	6278                	ld	a4,192(a2)
    80003982:	f20581d3          	fmv.d.x	ft3,a1
    80003986:	3c06835b          	.insn	4, 0x3c06835b
    8000398a:	cc0715fb          	.insn	4, 0xcc0715fb
    8000398e:	02317153          	fadd.d	ft2,ft2,ft3
    80003992:	f20581d3          	fmv.d.x	ft3,a1
    80003996:	02317153          	fadd.d	ft2,ft2,ft3
    8000399a:	011887ab          	.insn	4, 0x011887ab
    8000399e:	047386ab          	.insn	4, 0x047386ab
    800039a2:	09de842b          	.insn	4, 0x09de842b
    800039a6:	a2209753          	flt.d	a4,ft1,ft2
    800039aa:	0def04ab          	.insn	4, 0x0def04ab
    800039ae:	1cb585ab          	.insn	4, 0x1cb585ab
    800039b2:	c329                	beqz	a4,800039f4 <bilateral_core+0x17fa>
    800039b4:	f20781d3          	fmv.d.x	ft3,a5
    800039b8:	0201f1d3          	fadd.d	ft3,ft3,ft0
    800039bc:	f2068253          	fmv.d.x	ft4,a3
    800039c0:	0241f1d3          	fadd.d	ft3,ft3,ft4
    800039c4:	f2040253          	fmv.d.x	ft4,s0
    800039c8:	0241f1d3          	fadd.d	ft3,ft3,ft4
    800039cc:	f2048253          	fmv.d.x	ft4,s1
    800039d0:	0241f1d3          	fadd.d	ft3,ft3,ft4
    800039d4:	f2028253          	fmv.d.x	ft4,t0
    800039d8:	0241f1d3          	fadd.d	ft3,ft3,ft4
    800039dc:	f2030253          	fmv.d.x	ft4,t1
    800039e0:	0241f1d3          	fadd.d	ft3,ft3,ft4
    800039e4:	f2058253          	fmv.d.x	ft4,a1
    800039e8:	0241f1d3          	fadd.d	ft3,ft3,ft4
    800039ec:	1a21f153          	fdiv.d	ft2,ft3,ft2
    800039f0:	e2010e53          	fmv.x.d	t3,ft2
    800039f4:	4881                	li	a7,0
    800039f6:	4d81                	li	s11,0
    800039f8:	4c01                	li	s8,0
    800039fa:	4e81                	li	t4,0
    800039fc:	4c81                	li	s9,0
    800039fe:	4901                	li	s2,0
    80003a00:	4f01                	li	t5,0
    80003a02:	28813583          	ld	a1,648(sp)
    80003a06:	76f2                	ld	a3,312(sp)
    80003a08:	95b6                	add	a1,a1,a3
    80003a0a:	01c5b023          	sd	t3,0(a1)
    80003a0e:	0009ba03          	ld	s4,0(s3)
    80003a12:	4e01                	li	t3,0
    80003a14:	26813b83          	ld	s7,616(sp)
    80003a18:	040b9e63          	bnez	s7,80003a74 <bilateral_core+0x187a>
    80003a1c:	23013703          	ld	a4,560(sp)
    80003a20:	659e                	ld	a1,448(sp)
    80003a22:	95ba                	add	a1,a1,a4
    80003a24:	76de                	ld	a3,496(sp)
    80003a26:	8df5                	and	a1,a1,a3
    80003a28:	058e                	slli	a1,a1,0x3
    80003a2a:	95aa                	add	a1,a1,a0
    80003a2c:	0005be83          	ld	t4,0(a1)
    80003a30:	00063c03          	ld	s8,0(a2)
    80003a34:	75fa                	ld	a1,440(sp)
    80003a36:	95ba                	add	a1,a1,a4
    80003a38:	0f6f8693          	addi	a3,t6,246
    80003a3c:	8df5                	and	a1,a1,a3
    80003a3e:	058e                	slli	a1,a1,0x3
    80003a40:	95aa                	add	a1,a1,a0
    80003a42:	0005bc83          	ld	s9,0(a1)
    80003a46:	00863903          	ld	s2,8(a2)
    80003a4a:	21813583          	ld	a1,536(sp)
    80003a4e:	76da                	ld	a3,432(sp)
    80003a50:	95b6                	add	a1,a1,a3
    80003a52:	058e                	slli	a1,a1,0x3
    80003a54:	95aa                	add	a1,a1,a0
    80003a56:	0005bd83          	ld	s11,0(a1)
    80003a5a:	01063883          	ld	a7,16(a2)
    80003a5e:	759a                	ld	a1,416(sp)
    80003a60:	95ba                	add	a1,a1,a4
    80003a62:	0f8f8693          	addi	a3,t6,248
    80003a66:	8df5                	and	a1,a1,a3
    80003a68:	058e                	slli	a1,a1,0x3
    80003a6a:	95aa                	add	a1,a1,a0
    80003a6c:	0005bf03          	ld	t5,0(a1)
    80003a70:	01863e03          	ld	t3,24(a2)
    80003a74:	4981                	li	s3,0
    80003a76:	4d01                	li	s10,0
    80003a78:	25013403          	ld	s0,592(sp)
    80003a7c:	020b9263          	bnez	s7,80003aa0 <bilateral_core+0x18a6>
    80003a80:	27813583          	ld	a1,632(sp)
    80003a84:	0095e593          	ori	a1,a1,9
    80003a88:	23013683          	ld	a3,560(sp)
    80003a8c:	95b6                	add	a1,a1,a3
    80003a8e:	0f9f8693          	addi	a3,t6,249
    80003a92:	8df5                	and	a1,a1,a3
    80003a94:	058e                	slli	a1,a1,0x3
    80003a96:	95aa                	add	a1,a1,a0
    80003a98:	0005b983          	ld	s3,0(a1)
    80003a9c:	02063d03          	ld	s10,32(a2)
    80003aa0:	4f81                	li	t6,0
    80003aa2:	4381                	li	t2,0
    80003aa4:	4081                	li	ra,0
    80003aa6:	4301                	li	t1,0
    80003aa8:	4481                	li	s1,0
    80003aaa:	4581                	li	a1,0
    80003aac:	e029                	bnez	s0,80003aee <bilateral_core+0x18f4>
    80003aae:	24013703          	ld	a4,576(sp)
    80003ab2:	659e                	ld	a1,448(sp)
    80003ab4:	95ba                	add	a1,a1,a4
    80003ab6:	76de                	ld	a3,496(sp)
    80003ab8:	8df5                	and	a1,a1,a3
    80003aba:	058e                	slli	a1,a1,0x3
    80003abc:	95aa                	add	a1,a1,a0
    80003abe:	0005b083          	ld	ra,0(a1)
    80003ac2:	02863303          	ld	t1,40(a2)
    80003ac6:	75fa                	ld	a1,440(sp)
    80003ac8:	95ba                	add	a1,a1,a4
    80003aca:	25813683          	ld	a3,600(sp)
    80003ace:	0f668693          	addi	a3,a3,246
    80003ad2:	8df5                	and	a1,a1,a3
    80003ad4:	058e                	slli	a1,a1,0x3
    80003ad6:	95aa                	add	a1,a1,a0
    80003ad8:	0005b383          	ld	t2,0(a1)
    80003adc:	03063f83          	ld	t6,48(a2)
    80003ae0:	75ba                	ld	a1,424(sp)
    80003ae2:	76da                	ld	a3,432(sp)
    80003ae4:	95b6                	add	a1,a1,a3
    80003ae6:	058e                	slli	a1,a1,0x3
    80003ae8:	95aa                	add	a1,a1,a0
    80003aea:	6184                	ld	s1,0(a1)
    80003aec:	7e0c                	ld	a1,56(a2)
    80003aee:	4a81                	li	s5,0
    80003af0:	4281                	li	t0,0
    80003af2:	4701                	li	a4,0
    80003af4:	4781                	li	a5,0
    80003af6:	ec05                	bnez	s0,80003b2e <bilateral_core+0x1934>
    80003af8:	24013403          	ld	s0,576(sp)
    80003afc:	769a                	ld	a3,416(sp)
    80003afe:	96a2                	add	a3,a3,s0
    80003b00:	25813783          	ld	a5,600(sp)
    80003b04:	0f878713          	addi	a4,a5,248
    80003b08:	8ef9                	and	a3,a3,a4
    80003b0a:	068e                	slli	a3,a3,0x3
    80003b0c:	96aa                	add	a3,a3,a0
    80003b0e:	0006b283          	ld	t0,0(a3)
    80003b12:	04063a83          	ld	s5,64(a2)
    80003b16:	27813683          	ld	a3,632(sp)
    80003b1a:	0096e713          	ori	a4,a3,9
    80003b1e:	9722                	add	a4,a4,s0
    80003b20:	0f978793          	addi	a5,a5,249
    80003b24:	8f7d                	and	a4,a4,a5
    80003b26:	070e                	slli	a4,a4,0x3
    80003b28:	972a                	add	a4,a4,a0
    80003b2a:	6318                	ld	a4,0(a4)
    80003b2c:	663c                	ld	a5,72(a2)
    80003b2e:	81c8868b          	.insn	4, 0x81c8868b
    80003b32:	612c068b          	.insn	4, 0x612c068b
    80003b36:	41ed868b          	.insn	4, 0x41ed868b
    80003b3a:	219e868b          	.insn	4, 0x219e868b
    80003b3e:	29013403          	ld	s0,656(sp)
    80003b42:	008a18fb          	.insn	4, 0x008a18fb
    80003b46:	84bf858b          	.insn	4, 0x84bf858b
    80003b4a:	646d058b          	.insn	4, 0x646d058b
    80003b4e:	4493858b          	.insn	4, 0x4493858b
    80003b52:	2419858b          	.insn	4, 0x2419858b
    80003b56:	408a13fb          	.insn	4, 0x408a13fb
    80003b5a:	f2088153          	fmv.d.x	ft2,a7
    80003b5e:	02017153          	fadd.d	ft2,ft2,ft0
    80003b62:	f20381d3          	fmv.d.x	ft3,t2
    80003b66:	000b3683          	ld	a3,0(s6)
    80003b6a:	05063303          	ld	t1,80(a2)
    80003b6e:	25813f83          	ld	t6,600(sp)
    80003b72:	0f6f8593          	addi	a1,t6,246
    80003b76:	f7ae                	sd	a1,488(sp)
    80003b78:	64f6                	ld	s1,344(sp)
    80003b7a:	8de5                	and	a1,a1,s1
    80003b7c:	058e                	slli	a1,a1,0x3
    80003b7e:	95aa                	add	a1,a1,a0
    80003b80:	f3ae                	sd	a1,480(sp)
    80003b82:	618c                	ld	a1,0(a1)
    80003b84:	6e24                	ld	s1,88(a2)
    80003b86:	02317153          	fadd.d	ft2,ft2,ft3
    80003b8a:	68fa878b          	.insn	4, 0x68fa878b
    80003b8e:	28e2870b          	.insn	4, 0x28e2870b
    80003b92:	088a070b          	.insn	4, 0x088a070b
    80003b96:	48b6858b          	.insn	4, 0x48b6858b
    80003b9a:	90931e7b          	.insn	4, 0x90931e7b
    80003b9e:	06063283          	ld	t0,96(a2)
    80003ba2:	00083303          	ld	t1,0(a6)
    80003ba6:	06863e83          	ld	t4,104(a2)
    80003baa:	27813583          	ld	a1,632(sp)
    80003bae:	0095e713          	ori	a4,a1,9
    80003bb2:	26013583          	ld	a1,608(sp)
    80003bb6:	95ba                	add	a1,a1,a4
    80003bb8:	ef2e                	sd	a1,408(sp)
    80003bba:	058e                	slli	a1,a1,0x3
    80003bbc:	f22e                	sd	a1,288(sp)
    80003bbe:	00b50b33          	add	s6,a0,a1
    80003bc2:	000b3483          	ld	s1,0(s6)
    80003bc6:	07063f03          	ld	t5,112(a2)
    80003bca:	65fe                	ld	a1,472(sp)
    80003bcc:	619c                	ld	a5,0(a1)
    80003bce:	7e2c                	ld	a1,120(a2)
    80003bd0:	0c8a068b          	.insn	4, 0x0c8a068b
    80003bd4:	2c6a068b          	.insn	4, 0x2c6a068b
    80003bd8:	6dd2868b          	.insn	4, 0x6dd2868b
    80003bdc:	4cf4868b          	.insn	4, 0x4cf4868b
    80003be0:	d0bf1f7b          	.insn	4, 0xd0bf1f7b
    80003be4:	f20e01d3          	fmv.d.x	ft3,t3
    80003be8:	02317153          	fadd.d	ft2,ft2,ft3
    80003bec:	f20f01d3          	fmv.d.x	ft3,t5
    80003bf0:	22813583          	ld	a1,552(sp)
    80003bf4:	6194                	ld	a3,0(a1)
    80003bf6:	08063303          	ld	t1,128(a2)
    80003bfa:	65de                	ld	a1,464(sp)
    80003bfc:	619c                	ld	a5,0(a1)
    80003bfe:	6644                	ld	s1,136(a2)
    80003c00:	65be                	ld	a1,456(sp)
    80003c02:	0005b283          	ld	t0,0(a1)
    80003c06:	6a4c                	ld	a1,144(a2)
    80003c08:	3cf6868b          	.insn	4, 0x3cf6868b
    80003c0c:	23813683          	ld	a3,568(sp)
    80003c10:	eb3a                	sd	a4,400(sp)
    80003c12:	96ba                	add	a3,a3,a4
    80003c14:	068e                	slli	a3,a3,0x3
    80003c16:	96aa                	add	a3,a3,a0
    80003c18:	e3b6                	sd	a3,448(sp)
    80003c1a:	6294                	ld	a3,0(a3)
    80003c1c:	7c93070b          	.insn	4, 0x7c93070b
    80003c20:	6e58                	ld	a4,152(a2)
    80003c22:	02317153          	fadd.d	ft2,ft2,ft3
    80003c26:	1c8a078b          	.insn	4, 0x1c8a078b
    80003c2a:	5cd2868b          	.insn	4, 0x5cd2868b
    80003c2e:	d0e595fb          	.insn	4, 0xd0e595fb
    80003c32:	7254                	ld	a3,160(a2)
    80003c34:	7658                	ld	a4,168(a2)
    80003c36:	7796                	ld	a5,352(sp)
    80003c38:	639c                	ld	a5,0(a5)
    80003c3a:	7ce6868b          	.insn	4, 0x7ce6868b
    80003c3e:	24813683          	ld	a3,584(sp)
    80003c42:	771a                	ld	a4,416(sp)
    80003c44:	96ba                	add	a3,a3,a4
    80003c46:	068e                	slli	a3,a3,0x3
    80003c48:	96aa                	add	a3,a3,a0
    80003c4a:	eeb6                	sd	a3,344(sp)
    80003c4c:	6294                	ld	a3,0(a3)
    80003c4e:	673a                	ld	a4,392(sp)
    80003c50:	6318                	ld	a4,0(a4)
    80003c52:	5cd7868b          	.insn	4, 0x5cd7868b
    80003c56:	76f6                	ld	a3,376(sp)
    80003c58:	6294                	ld	a3,0(a3)
    80003c5a:	7a5c                	ld	a5,176(a2)
    80003c5c:	3cd702db          	.insn	4, 0x3cd702db
    80003c60:	7e54                	ld	a3,184(a2)
    80003c62:	f20581d3          	fmv.d.x	ft3,a1
    80003c66:	d0d795fb          	.insn	4, 0xd0d795fb
    80003c6a:	02317153          	fadd.d	ft2,ft2,ft3
    80003c6e:	27013683          	ld	a3,624(sp)
    80003c72:	20968693          	addi	a3,a3,521
    80003c76:	068e                	slli	a3,a3,0x3
    80003c78:	96aa                	add	a3,a3,a0
    80003c7a:	6294                	ld	a3,0(a3)
    80003c7c:	6278                	ld	a4,192(a2)
    80003c7e:	f20581d3          	fmv.d.x	ft3,a1
    80003c82:	3c06835b          	.insn	4, 0x3c06835b
    80003c86:	cc0715fb          	.insn	4, 0xcc0715fb
    80003c8a:	02317153          	fadd.d	ft2,ft2,ft3
    80003c8e:	f20581d3          	fmv.d.x	ft3,a1
    80003c92:	02317153          	fadd.d	ft2,ft2,ft3
    80003c96:	0118872b          	.insn	4, 0x0118872b
    80003c9a:	047386ab          	.insn	4, 0x047386ab
    80003c9e:	09ce042b          	.insn	4, 0x09ce042b
    80003ca2:	a22094d3          	flt.d	s1,ft1,ft2
    80003ca6:	0def07ab          	.insn	4, 0x0def07ab
    80003caa:	1cb585ab          	.insn	4, 0x1cb585ab
    80003cae:	c0a9                	beqz	s1,80003cf0 <bilateral_core+0x1af6>
    80003cb0:	f20701d3          	fmv.d.x	ft3,a4
    80003cb4:	0201f1d3          	fadd.d	ft3,ft3,ft0
    80003cb8:	f2068253          	fmv.d.x	ft4,a3
    80003cbc:	0241f1d3          	fadd.d	ft3,ft3,ft4
    80003cc0:	f2040253          	fmv.d.x	ft4,s0
    80003cc4:	0241f1d3          	fadd.d	ft3,ft3,ft4
    80003cc8:	f2078253          	fmv.d.x	ft4,a5
    80003ccc:	0241f1d3          	fadd.d	ft3,ft3,ft4
    80003cd0:	f2028253          	fmv.d.x	ft4,t0
    80003cd4:	0241f1d3          	fadd.d	ft3,ft3,ft4
    80003cd8:	f2030253          	fmv.d.x	ft4,t1
    80003cdc:	0241f1d3          	fadd.d	ft3,ft3,ft4
    80003ce0:	f2058253          	fmv.d.x	ft4,a1
    80003ce4:	0241f1d3          	fadd.d	ft3,ft3,ft4
    80003ce8:	1a21f153          	fdiv.d	ft2,ft3,ft2
    80003cec:	e2010a53          	fmv.x.d	s4,ft2
    80003cf0:	4881                	li	a7,0
    80003cf2:	4d81                	li	s11,0
    80003cf4:	4c01                	li	s8,0
    80003cf6:	4301                	li	t1,0
    80003cf8:	4c81                	li	s9,0
    80003cfa:	4901                	li	s2,0
    80003cfc:	4f01                	li	t5,0
    80003cfe:	28813583          	ld	a1,648(sp)
    80003d02:	76d2                	ld	a3,304(sp)
    80003d04:	95b6                	add	a1,a1,a3
    80003d06:	0145b023          	sd	s4,0(a1)
    80003d0a:	00083e83          	ld	t4,0(a6)
    80003d0e:	4801                	li	a6,0
    80003d10:	040b9e63          	bnez	s7,80003d6c <bilateral_core+0x1b72>
    80003d14:	23013703          	ld	a4,560(sp)
    80003d18:	75fa                	ld	a1,440(sp)
    80003d1a:	95ba                	add	a1,a1,a4
    80003d1c:	76be                	ld	a3,488(sp)
    80003d1e:	8df5                	and	a1,a1,a3
    80003d20:	058e                	slli	a1,a1,0x3
    80003d22:	95aa                	add	a1,a1,a0
    80003d24:	0005b303          	ld	t1,0(a1)
    80003d28:	00063c03          	ld	s8,0(a2)
    80003d2c:	75da                	ld	a1,432(sp)
    80003d2e:	95ba                	add	a1,a1,a4
    80003d30:	0f7f8693          	addi	a3,t6,247
    80003d34:	8df5                	and	a1,a1,a3
    80003d36:	058e                	slli	a1,a1,0x3
    80003d38:	95aa                	add	a1,a1,a0
    80003d3a:	0005bc83          	ld	s9,0(a1)
    80003d3e:	00863903          	ld	s2,8(a2)
    80003d42:	21813583          	ld	a1,536(sp)
    80003d46:	769a                	ld	a3,416(sp)
    80003d48:	95b6                	add	a1,a1,a3
    80003d4a:	058e                	slli	a1,a1,0x3
    80003d4c:	95aa                	add	a1,a1,a0
    80003d4e:	0005bd83          	ld	s11,0(a1)
    80003d52:	01063883          	ld	a7,16(a2)
    80003d56:	65da                	ld	a1,400(sp)
    80003d58:	95ba                	add	a1,a1,a4
    80003d5a:	0f9f8693          	addi	a3,t6,249
    80003d5e:	8df5                	and	a1,a1,a3
    80003d60:	058e                	slli	a1,a1,0x3
    80003d62:	95aa                	add	a1,a1,a0
    80003d64:	0005bf03          	ld	t5,0(a1)
    80003d68:	01863803          	ld	a6,24(a2)
    80003d6c:	4d01                	li	s10,0
    80003d6e:	4081                	li	ra,0
    80003d70:	25013703          	ld	a4,592(sp)
    80003d74:	020b9463          	bnez	s7,80003d9c <bilateral_core+0x1ba2>
    80003d78:	27813583          	ld	a1,632(sp)
    80003d7c:	00a5e593          	ori	a1,a1,10
    80003d80:	23013683          	ld	a3,560(sp)
    80003d84:	95b6                	add	a1,a1,a3
    80003d86:	25813683          	ld	a3,600(sp)
    80003d8a:	0fa68693          	addi	a3,a3,250
    80003d8e:	8df5                	and	a1,a1,a3
    80003d90:	058e                	slli	a1,a1,0x3
    80003d92:	95aa                	add	a1,a1,a0
    80003d94:	0005bd03          	ld	s10,0(a1)
    80003d98:	02063083          	ld	ra,32(a2)
    80003d9c:	4981                	li	s3,0
    80003d9e:	4a01                	li	s4,0
    80003da0:	4f81                	li	t6,0
    80003da2:	4281                	li	t0,0
    80003da4:	4381                	li	t2,0
    80003da6:	4e01                	li	t3,0
    80003da8:	e339                	bnez	a4,80003dee <bilateral_core+0x1bf4>
    80003daa:	24013783          	ld	a5,576(sp)
    80003dae:	75fa                	ld	a1,440(sp)
    80003db0:	95be                	add	a1,a1,a5
    80003db2:	76be                	ld	a3,488(sp)
    80003db4:	8df5                	and	a1,a1,a3
    80003db6:	058e                	slli	a1,a1,0x3
    80003db8:	95aa                	add	a1,a1,a0
    80003dba:	0005bf83          	ld	t6,0(a1)
    80003dbe:	02863283          	ld	t0,40(a2)
    80003dc2:	75da                	ld	a1,432(sp)
    80003dc4:	95be                	add	a1,a1,a5
    80003dc6:	25813683          	ld	a3,600(sp)
    80003dca:	0f768693          	addi	a3,a3,247
    80003dce:	8df5                	and	a1,a1,a3
    80003dd0:	058e                	slli	a1,a1,0x3
    80003dd2:	95aa                	add	a1,a1,a0
    80003dd4:	0005ba03          	ld	s4,0(a1)
    80003dd8:	03063983          	ld	s3,48(a2)
    80003ddc:	75ba                	ld	a1,424(sp)
    80003dde:	769a                	ld	a3,416(sp)
    80003de0:	96ae                	add	a3,a3,a1
    80003de2:	068e                	slli	a3,a3,0x3
    80003de4:	96aa                	add	a3,a3,a0
    80003de6:	0006b383          	ld	t2,0(a3)
    80003dea:	03863e03          	ld	t3,56(a2)
    80003dee:	4b81                	li	s7,0
    80003df0:	4a81                	li	s5,0
    80003df2:	4681                	li	a3,0
    80003df4:	4781                	li	a5,0
    80003df6:	ef0d                	bnez	a4,80003e30 <bilateral_core+0x1c36>
    80003df8:	24013783          	ld	a5,576(sp)
    80003dfc:	65da                	ld	a1,400(sp)
    80003dfe:	00b786b3          	add	a3,a5,a1
    80003e02:	25813583          	ld	a1,600(sp)
    80003e06:	0f958713          	addi	a4,a1,249
    80003e0a:	8ef9                	and	a3,a3,a4
    80003e0c:	068e                	slli	a3,a3,0x3
    80003e0e:	96aa                	add	a3,a3,a0
    80003e10:	0006ba83          	ld	s5,0(a3)
    80003e14:	04063b83          	ld	s7,64(a2)
    80003e18:	27813683          	ld	a3,632(sp)
    80003e1c:	00a6e693          	ori	a3,a3,10
    80003e20:	96be                	add	a3,a3,a5
    80003e22:	0fa58793          	addi	a5,a1,250
    80003e26:	8efd                	and	a3,a3,a5
    80003e28:	068e                	slli	a3,a3,0x3
    80003e2a:	96aa                	add	a3,a3,a0
    80003e2c:	6294                	ld	a3,0(a3)
    80003e2e:	663c                	ld	a5,72(a2)
    80003e30:	8108858b          	.insn	4, 0x8108858b
    80003e34:	612c058b          	.insn	4, 0x612c058b
    80003e38:	41ed858b          	.insn	4, 0x41ed858b
    80003e3c:	2193058b          	.insn	4, 0x2193058b
    80003e40:	29013403          	ld	s0,656(sp)
    80003e44:	008e98fb          	.insn	4, 0x008e98fb
    80003e48:	85c9858b          	.insn	4, 0x85c9858b
    80003e4c:	6450858b          	.insn	4, 0x6450858b
    80003e50:	447a058b          	.insn	4, 0x447a058b
    80003e54:	25fd058b          	.insn	4, 0x25fd058b
    80003e58:	408e93fb          	.insn	4, 0x408e93fb
    80003e5c:	f2088153          	fmv.d.x	ft2,a7
    80003e60:	02017153          	fadd.d	ft2,ft2,ft0
    80003e64:	f20381d3          	fmv.d.x	ft3,t2
    80003e68:	759e                	ld	a1,480(sp)
    80003e6a:	618c                	ld	a1,0(a1)
    80003e6c:	05063283          	ld	t0,80(a2)
    80003e70:	25813703          	ld	a4,600(sp)
    80003e74:	0f770713          	addi	a4,a4,247
    80003e78:	f3ba                	sd	a4,480(sp)
    80003e7a:	64d6                	ld	s1,336(sp)
    80003e7c:	8f65                	and	a4,a4,s1
    80003e7e:	070e                	slli	a4,a4,0x3
    80003e80:	00e50833          	add	a6,a0,a4
    80003e84:	00083703          	ld	a4,0(a6)
    80003e88:	6e24                	ld	s1,88(a2)
    80003e8a:	02317153          	fadd.d	ft2,ft2,ft3
    80003e8e:	68fb878b          	.insn	4, 0x68fb878b
    80003e92:	28da868b          	.insn	4, 0x28da868b
    80003e96:	088e868b          	.insn	4, 0x088e868b
    80003e9a:	48e5858b          	.insn	4, 0x48e5858b
    80003e9e:	90929e7b          	.insn	4, 0x90929e7b
    80003ea2:	06063283          	ld	t0,96(a2)
    80003ea6:	89da                	mv	s3,s6
    80003ea8:	000b3303          	ld	t1,0(s6)
    80003eac:	06863f03          	ld	t5,104(a2)
    80003eb0:	27813583          	ld	a1,632(sp)
    80003eb4:	00a5e713          	ori	a4,a1,10
    80003eb8:	26013583          	ld	a1,608(sp)
    80003ebc:	95ba                	add	a1,a1,a4
    80003ebe:	fe2e                	sd	a1,312(sp)
    80003ec0:	058e                	slli	a1,a1,0x3
    80003ec2:	ee2e                	sd	a1,280(sp)
    80003ec4:	00b50b33          	add	s6,a0,a1
    80003ec8:	000b3483          	ld	s1,0(s6)
    80003ecc:	07063f83          	ld	t6,112(a2)
    80003ed0:	22813583          	ld	a1,552(sp)
    80003ed4:	619c                	ld	a5,0(a1)
    80003ed6:	7e2c                	ld	a1,120(a2)
    80003ed8:	0c8e868b          	.insn	4, 0x0c8e868b
    80003edc:	2c6e868b          	.insn	4, 0x2c6e868b
    80003ee0:	6de2868b          	.insn	4, 0x6de2868b
    80003ee4:	4cf4868b          	.insn	4, 0x4cf4868b
    80003ee8:	d0bf9f7b          	.insn	4, 0xd0bf9f7b
    80003eec:	f20e01d3          	fmv.d.x	ft3,t3
    80003ef0:	02317153          	fadd.d	ft2,ft2,ft3
    80003ef4:	f20f01d3          	fmv.d.x	ft3,t5
    80003ef8:	65de                	ld	a1,464(sp)
    80003efa:	6194                	ld	a3,0(a1)
    80003efc:	08063303          	ld	t1,128(a2)
    80003f00:	65be                	ld	a1,456(sp)
    80003f02:	619c                	ld	a5,0(a1)
    80003f04:	6644                	ld	s1,136(a2)
    80003f06:	659e                	ld	a1,448(sp)
    80003f08:	0005b283          	ld	t0,0(a1)
    80003f0c:	6a4c                	ld	a1,144(a2)
    80003f0e:	3cf6868b          	.insn	4, 0x3cf6868b
    80003f12:	23813683          	ld	a3,568(sp)
    80003f16:	ff3a                	sd	a4,440(sp)
    80003f18:	96ba                	add	a3,a3,a4
    80003f1a:	068e                	slli	a3,a3,0x3
    80003f1c:	96aa                	add	a3,a3,a0
    80003f1e:	22d13423          	sd	a3,552(sp)
    80003f22:	6294                	ld	a3,0(a3)
    80003f24:	7c93070b          	.insn	4, 0x7c93070b
    80003f28:	6e58                	ld	a4,152(a2)
    80003f2a:	02317153          	fadd.d	ft2,ft2,ft3
    80003f2e:	1c8e878b          	.insn	4, 0x1c8e878b
    80003f32:	5cd2868b          	.insn	4, 0x5cd2868b
    80003f36:	d0e595fb          	.insn	4, 0xd0e595fb
    80003f3a:	7254                	ld	a3,160(a2)
    80003f3c:	7658                	ld	a4,168(a2)
    80003f3e:	67f6                	ld	a5,344(sp)
    80003f40:	639c                	ld	a5,0(a5)
    80003f42:	7ce6868b          	.insn	4, 0x7ce6868b
    80003f46:	24813683          	ld	a3,584(sp)
    80003f4a:	675a                	ld	a4,400(sp)
    80003f4c:	96ba                	add	a3,a3,a4
    80003f4e:	068e                	slli	a3,a3,0x3
    80003f50:	96aa                	add	a3,a3,a0
    80003f52:	eab6                	sd	a3,336(sp)
    80003f54:	6294                	ld	a3,0(a3)
    80003f56:	7776                	ld	a4,376(sp)
    80003f58:	6318                	ld	a4,0(a4)
    80003f5a:	5cd7868b          	.insn	4, 0x5cd7868b
    80003f5e:	7696                	ld	a3,352(sp)
    80003f60:	6294                	ld	a3,0(a3)
    80003f62:	7a5c                	ld	a5,176(a2)
    80003f64:	3cd702db          	.insn	4, 0x3cd702db
    80003f68:	7e54                	ld	a3,184(a2)
    80003f6a:	f20581d3          	fmv.d.x	ft3,a1
    80003f6e:	d0d795fb          	.insn	4, 0xd0d795fb
    80003f72:	02317153          	fadd.d	ft2,ft2,ft3
    80003f76:	27013683          	ld	a3,624(sp)
    80003f7a:	20a68693          	addi	a3,a3,522
    80003f7e:	068e                	slli	a3,a3,0x3
    80003f80:	96aa                	add	a3,a3,a0
    80003f82:	6294                	ld	a3,0(a3)
    80003f84:	6278                	ld	a4,192(a2)
    80003f86:	f20581d3          	fmv.d.x	ft3,a1
    80003f8a:	3c06835b          	.insn	4, 0x3c06835b
    80003f8e:	cc0715fb          	.insn	4, 0xcc0715fb
    80003f92:	02317153          	fadd.d	ft2,ft2,ft3
    80003f96:	f20581d3          	fmv.d.x	ft3,a1
    80003f9a:	02317153          	fadd.d	ft2,ft2,ft3
    80003f9e:	0118872b          	.insn	4, 0x0118872b
    80003fa2:	047386ab          	.insn	4, 0x047386ab
    80003fa6:	09ce042b          	.insn	4, 0x09ce042b
    80003faa:	a22094d3          	flt.d	s1,ft1,ft2
    80003fae:	0def07ab          	.insn	4, 0x0def07ab
    80003fb2:	1cb585ab          	.insn	4, 0x1cb585ab
    80003fb6:	c0a9                	beqz	s1,80003ff8 <bilateral_core+0x1dfe>
    80003fb8:	f20701d3          	fmv.d.x	ft3,a4
    80003fbc:	0201f1d3          	fadd.d	ft3,ft3,ft0
    80003fc0:	f2068253          	fmv.d.x	ft4,a3
    80003fc4:	0241f1d3          	fadd.d	ft3,ft3,ft4
    80003fc8:	f2040253          	fmv.d.x	ft4,s0
    80003fcc:	0241f1d3          	fadd.d	ft3,ft3,ft4
    80003fd0:	f2078253          	fmv.d.x	ft4,a5
    80003fd4:	0241f1d3          	fadd.d	ft3,ft3,ft4
    80003fd8:	f2028253          	fmv.d.x	ft4,t0
    80003fdc:	0241f1d3          	fadd.d	ft3,ft3,ft4
    80003fe0:	f2030253          	fmv.d.x	ft4,t1
    80003fe4:	0241f1d3          	fadd.d	ft3,ft3,ft4
    80003fe8:	f2058253          	fmv.d.x	ft4,a1
    80003fec:	0241f1d3          	fadd.d	ft3,ft3,ft4
    80003ff0:	1a21f153          	fdiv.d	ft2,ft3,ft2
    80003ff4:	e2010ed3          	fmv.x.d	t4,ft2
    80003ff8:	4881                	li	a7,0
    80003ffa:	4081                	li	ra,0
    80003ffc:	4c01                	li	s8,0
    80003ffe:	4f81                	li	t6,0
    80004000:	4d81                	li	s11,0
    80004002:	4901                	li	s2,0
    80004004:	4f01                	li	t5,0
    80004006:	28813583          	ld	a1,648(sp)
    8000400a:	76b2                	ld	a3,296(sp)
    8000400c:	95b6                	add	a1,a1,a3
    8000400e:	01d5b023          	sd	t4,0(a1)
    80004012:	0009ba03          	ld	s4,0(s3)
    80004016:	4e81                	li	t4,0
    80004018:	26813783          	ld	a5,616(sp)
    8000401c:	efb9                	bnez	a5,8000407a <bilateral_core+0x1e80>
    8000401e:	23013483          	ld	s1,560(sp)
    80004022:	75da                	ld	a1,432(sp)
    80004024:	95a6                	add	a1,a1,s1
    80004026:	769e                	ld	a3,480(sp)
    80004028:	8df5                	and	a1,a1,a3
    8000402a:	058e                	slli	a1,a1,0x3
    8000402c:	95aa                	add	a1,a1,a0
    8000402e:	0005bf83          	ld	t6,0(a1)
    80004032:	00063c03          	ld	s8,0(a2)
    80004036:	759a                	ld	a1,416(sp)
    80004038:	95a6                	add	a1,a1,s1
    8000403a:	25813703          	ld	a4,600(sp)
    8000403e:	0f870693          	addi	a3,a4,248
    80004042:	8df5                	and	a1,a1,a3
    80004044:	058e                	slli	a1,a1,0x3
    80004046:	95aa                	add	a1,a1,a0
    80004048:	0005bd83          	ld	s11,0(a1)
    8000404c:	00863903          	ld	s2,8(a2)
    80004050:	21813583          	ld	a1,536(sp)
    80004054:	66da                	ld	a3,400(sp)
    80004056:	95b6                	add	a1,a1,a3
    80004058:	058e                	slli	a1,a1,0x3
    8000405a:	95aa                	add	a1,a1,a0
    8000405c:	0005b083          	ld	ra,0(a1)
    80004060:	01063883          	ld	a7,16(a2)
    80004064:	75fa                	ld	a1,440(sp)
    80004066:	95a6                	add	a1,a1,s1
    80004068:	0fa70693          	addi	a3,a4,250
    8000406c:	8df5                	and	a1,a1,a3
    8000406e:	058e                	slli	a1,a1,0x3
    80004070:	95aa                	add	a1,a1,a0
    80004072:	0005bf03          	ld	t5,0(a1)
    80004076:	01863e83          	ld	t4,24(a2)
    8000407a:	4981                	li	s3,0
    8000407c:	4d01                	li	s10,0
    8000407e:	25013403          	ld	s0,592(sp)
    80004082:	e39d                	bnez	a5,800040a8 <bilateral_core+0x1eae>
    80004084:	27813583          	ld	a1,632(sp)
    80004088:	00b5e593          	ori	a1,a1,11
    8000408c:	23013683          	ld	a3,560(sp)
    80004090:	95b6                	add	a1,a1,a3
    80004092:	25813683          	ld	a3,600(sp)
    80004096:	0fb68693          	addi	a3,a3,251
    8000409a:	8df5                	and	a1,a1,a3
    8000409c:	058e                	slli	a1,a1,0x3
    8000409e:	95aa                	add	a1,a1,a0
    800040a0:	0005b983          	ld	s3,0(a1)
    800040a4:	02063d03          	ld	s10,32(a2)
    800040a8:	4e01                	li	t3,0
    800040aa:	4301                	li	t1,0
    800040ac:	4c81                	li	s9,0
    800040ae:	4381                	li	t2,0
    800040b0:	4781                	li	a5,0
    800040b2:	4581                	li	a1,0
    800040b4:	e029                	bnez	s0,800040f6 <bilateral_core+0x1efc>
    800040b6:	24013703          	ld	a4,576(sp)
    800040ba:	75da                	ld	a1,432(sp)
    800040bc:	95ba                	add	a1,a1,a4
    800040be:	769e                	ld	a3,480(sp)
    800040c0:	8df5                	and	a1,a1,a3
    800040c2:	058e                	slli	a1,a1,0x3
    800040c4:	95aa                	add	a1,a1,a0
    800040c6:	0005bc83          	ld	s9,0(a1)
    800040ca:	02863383          	ld	t2,40(a2)
    800040ce:	759a                	ld	a1,416(sp)
    800040d0:	95ba                	add	a1,a1,a4
    800040d2:	25813683          	ld	a3,600(sp)
    800040d6:	0f868693          	addi	a3,a3,248
    800040da:	8df5                	and	a1,a1,a3
    800040dc:	058e                	slli	a1,a1,0x3
    800040de:	95aa                	add	a1,a1,a0
    800040e0:	0005b303          	ld	t1,0(a1)
    800040e4:	03063e03          	ld	t3,48(a2)
    800040e8:	75ba                	ld	a1,424(sp)
    800040ea:	66da                	ld	a3,400(sp)
    800040ec:	95b6                	add	a1,a1,a3
    800040ee:	058e                	slli	a1,a1,0x3
    800040f0:	95aa                	add	a1,a1,a0
    800040f2:	619c                	ld	a5,0(a1)
    800040f4:	7e0c                	ld	a1,56(a2)
    800040f6:	4281                	li	t0,0
    800040f8:	4a81                	li	s5,0
    800040fa:	4b81                	li	s7,0
    800040fc:	4701                	li	a4,0
    800040fe:	ec0d                	bnez	s0,80004138 <bilateral_core+0x1f3e>
    80004100:	24013483          	ld	s1,576(sp)
    80004104:	76fa                	ld	a3,440(sp)
    80004106:	96a6                	add	a3,a3,s1
    80004108:	25813403          	ld	s0,600(sp)
    8000410c:	0fa40713          	addi	a4,s0,250
    80004110:	8ef9                	and	a3,a3,a4
    80004112:	068e                	slli	a3,a3,0x3
    80004114:	96aa                	add	a3,a3,a0
    80004116:	0006ba83          	ld	s5,0(a3)
    8000411a:	04063283          	ld	t0,64(a2)
    8000411e:	27813683          	ld	a3,632(sp)
    80004122:	00b6e713          	ori	a4,a3,11
    80004126:	9726                	add	a4,a4,s1
    80004128:	0fb40413          	addi	s0,s0,251
    8000412c:	8f61                	and	a4,a4,s0
    8000412e:	070e                	slli	a4,a4,0x3
    80004130:	972a                	add	a4,a4,a0
    80004132:	00073b83          	ld	s7,0(a4)
    80004136:	6638                	ld	a4,72(a2)
    80004138:	81d8868b          	.insn	4, 0x81d8868b
    8000413c:	612c068b          	.insn	4, 0x612c068b
    80004140:	41e0868b          	.insn	4, 0x41e0868b
    80004144:	21bf868b          	.insn	4, 0x21bf868b
    80004148:	29013403          	ld	s0,656(sp)
    8000414c:	008a18fb          	.insn	4, 0x008a18fb
    80004150:	84be058b          	.insn	4, 0x84be058b
    80004154:	647d058b          	.insn	4, 0x647d058b
    80004158:	44f3058b          	.insn	4, 0x44f3058b
    8000415c:	2599858b          	.insn	4, 0x2599858b
    80004160:	408a13fb          	.insn	4, 0x408a13fb
    80004164:	f2088153          	fmv.d.x	ft2,a7
    80004168:	02017153          	fadd.d	ft2,ft2,ft0
    8000416c:	f20381d3          	fmv.d.x	ft3,t2
    80004170:	00083683          	ld	a3,0(a6)
    80004174:	6a3c                	ld	a5,80(a2)
    80004176:	25813583          	ld	a1,600(sp)
    8000417a:	0f858593          	addi	a1,a1,248
    8000417e:	efae                	sd	a1,472(sp)
    80004180:	64b6                	ld	s1,328(sp)
    80004182:	8de5                	and	a1,a1,s1
    80004184:	058e                	slli	a1,a1,0x3
    80004186:	00b50fb3          	add	t6,a0,a1
    8000418a:	000fb583          	ld	a1,0(t6)
    8000418e:	6e24                	ld	s1,88(a2)
    80004190:	02317153          	fadd.d	ft2,ft2,ft3
    80004194:	68e2870b          	.insn	4, 0x68e2870b
    80004198:	297a870b          	.insn	4, 0x297a870b
    8000419c:	088a070b          	.insn	4, 0x088a070b
    800041a0:	48b6858b          	.insn	4, 0x48b6858b
    800041a4:	90979e7b          	.insn	4, 0x90979e7b
    800041a8:	06063283          	ld	t0,96(a2)
    800041ac:	000b3303          	ld	t1,0(s6)
    800041b0:	06863e83          	ld	t4,104(a2)
    800041b4:	27813583          	ld	a1,632(sp)
    800041b8:	00b5e713          	ori	a4,a1,11
    800041bc:	26013583          	ld	a1,608(sp)
    800041c0:	95ba                	add	a1,a1,a4
    800041c2:	fa2e                	sd	a1,304(sp)
    800041c4:	058e                	slli	a1,a1,0x3
    800041c6:	ea2e                	sd	a1,272(sp)
    800041c8:	00b50833          	add	a6,a0,a1
    800041cc:	00083483          	ld	s1,0(a6)
    800041d0:	07063f03          	ld	t5,112(a2)
    800041d4:	65de                	ld	a1,464(sp)
    800041d6:	619c                	ld	a5,0(a1)
    800041d8:	7e2c                	ld	a1,120(a2)
    800041da:	0c8a068b          	.insn	4, 0x0c8a068b
    800041de:	2c6a068b          	.insn	4, 0x2c6a068b
    800041e2:	6dd2868b          	.insn	4, 0x6dd2868b
    800041e6:	4cf4868b          	.insn	4, 0x4cf4868b
    800041ea:	d0bf1f7b          	.insn	4, 0xd0bf1f7b
    800041ee:	f20e01d3          	fmv.d.x	ft3,t3
    800041f2:	02317153          	fadd.d	ft2,ft2,ft3
    800041f6:	f20f01d3          	fmv.d.x	ft3,t5
    800041fa:	65be                	ld	a1,456(sp)
    800041fc:	6194                	ld	a3,0(a1)
    800041fe:	08063303          	ld	t1,128(a2)
    80004202:	659e                	ld	a1,448(sp)
    80004204:	619c                	ld	a5,0(a1)
    80004206:	6644                	ld	s1,136(a2)
    80004208:	22813583          	ld	a1,552(sp)
    8000420c:	0005b283          	ld	t0,0(a1)
    80004210:	6a4c                	ld	a1,144(a2)
    80004212:	3cf6868b          	.insn	4, 0x3cf6868b
    80004216:	23813683          	ld	a3,568(sp)
    8000421a:	feba                	sd	a4,376(sp)
    8000421c:	96ba                	add	a3,a3,a4
    8000421e:	068e                	slli	a3,a3,0x3
    80004220:	96aa                	add	a3,a3,a0
    80004222:	fb36                	sd	a3,432(sp)
    80004224:	6294                	ld	a3,0(a3)
    80004226:	7c93070b          	.insn	4, 0x7c93070b
    8000422a:	6e58                	ld	a4,152(a2)
    8000422c:	02317153          	fadd.d	ft2,ft2,ft3
    80004230:	1c8a078b          	.insn	4, 0x1c8a078b
    80004234:	5cd2868b          	.insn	4, 0x5cd2868b
    80004238:	d0e595fb          	.insn	4, 0xd0e595fb
    8000423c:	7254                	ld	a3,160(a2)
    8000423e:	7658                	ld	a4,168(a2)
    80004240:	67d6                	ld	a5,336(sp)
    80004242:	639c                	ld	a5,0(a5)
    80004244:	7ce6868b          	.insn	4, 0x7ce6868b
    80004248:	24813683          	ld	a3,584(sp)
    8000424c:	777a                	ld	a4,440(sp)
    8000424e:	96ba                	add	a3,a3,a4
    80004250:	068e                	slli	a3,a3,0x3
    80004252:	96aa                	add	a3,a3,a0
    80004254:	e6b6                	sd	a3,328(sp)
    80004256:	6294                	ld	a3,0(a3)
    80004258:	7716                	ld	a4,352(sp)
    8000425a:	6318                	ld	a4,0(a4)
    8000425c:	5cd7868b          	.insn	4, 0x5cd7868b
    80004260:	66f6                	ld	a3,344(sp)
    80004262:	6294                	ld	a3,0(a3)
    80004264:	7a5c                	ld	a5,176(a2)
    80004266:	3cd702db          	.insn	4, 0x3cd702db
    8000426a:	7e54                	ld	a3,184(a2)
    8000426c:	f20581d3          	fmv.d.x	ft3,a1
    80004270:	d0d795fb          	.insn	4, 0xd0d795fb
    80004274:	02317153          	fadd.d	ft2,ft2,ft3
    80004278:	27013683          	ld	a3,624(sp)
    8000427c:	20b68693          	addi	a3,a3,523
    80004280:	068e                	slli	a3,a3,0x3
    80004282:	96aa                	add	a3,a3,a0
    80004284:	6294                	ld	a3,0(a3)
    80004286:	6278                	ld	a4,192(a2)
    80004288:	f20581d3          	fmv.d.x	ft3,a1
    8000428c:	3c06835b          	.insn	4, 0x3c06835b
    80004290:	cc0715fb          	.insn	4, 0xcc0715fb
    80004294:	02317153          	fadd.d	ft2,ft2,ft3
    80004298:	f20581d3          	fmv.d.x	ft3,a1
    8000429c:	02317153          	fadd.d	ft2,ft2,ft3
    800042a0:	0118872b          	.insn	4, 0x0118872b
    800042a4:	047386ab          	.insn	4, 0x047386ab
    800042a8:	09ce042b          	.insn	4, 0x09ce042b
    800042ac:	a22094d3          	flt.d	s1,ft1,ft2
    800042b0:	0def07ab          	.insn	4, 0x0def07ab
    800042b4:	1cb585ab          	.insn	4, 0x1cb585ab
    800042b8:	c0a9                	beqz	s1,800042fa <bilateral_core+0x2100>
    800042ba:	f20701d3          	fmv.d.x	ft3,a4
    800042be:	0201f1d3          	fadd.d	ft3,ft3,ft0
    800042c2:	f2068253          	fmv.d.x	ft4,a3
    800042c6:	0241f1d3          	fadd.d	ft3,ft3,ft4
    800042ca:	f2040253          	fmv.d.x	ft4,s0
    800042ce:	0241f1d3          	fadd.d	ft3,ft3,ft4
    800042d2:	f2078253          	fmv.d.x	ft4,a5
    800042d6:	0241f1d3          	fadd.d	ft3,ft3,ft4
    800042da:	f2028253          	fmv.d.x	ft4,t0
    800042de:	0241f1d3          	fadd.d	ft3,ft3,ft4
    800042e2:	f2030253          	fmv.d.x	ft4,t1
    800042e6:	0241f1d3          	fadd.d	ft3,ft3,ft4
    800042ea:	f2058253          	fmv.d.x	ft4,a1
    800042ee:	0241f1d3          	fadd.d	ft3,ft3,ft4
    800042f2:	1a21f153          	fdiv.d	ft2,ft3,ft2
    800042f6:	e2010a53          	fmv.x.d	s4,ft2
    800042fa:	4881                	li	a7,0
    800042fc:	4d81                	li	s11,0
    800042fe:	4a81                	li	s5,0
    80004300:	4381                	li	t2,0
    80004302:	4c01                	li	s8,0
    80004304:	4081                	li	ra,0
    80004306:	4f01                	li	t5,0
    80004308:	28813583          	ld	a1,648(sp)
    8000430c:	7692                	ld	a3,288(sp)
    8000430e:	95b6                	add	a1,a1,a3
    80004310:	0145b023          	sd	s4,0(a1)
    80004314:	000b3e83          	ld	t4,0(s6)
    80004318:	4b01                	li	s6,0
    8000431a:	26813783          	ld	a5,616(sp)
    8000431e:	efb9                	bnez	a5,8000437c <bilateral_core+0x2182>
    80004320:	23013483          	ld	s1,560(sp)
    80004324:	759a                	ld	a1,416(sp)
    80004326:	95a6                	add	a1,a1,s1
    80004328:	66fe                	ld	a3,472(sp)
    8000432a:	8df5                	and	a1,a1,a3
    8000432c:	058e                	slli	a1,a1,0x3
    8000432e:	95aa                	add	a1,a1,a0
    80004330:	0005b383          	ld	t2,0(a1)
    80004334:	00063a83          	ld	s5,0(a2)
    80004338:	65da                	ld	a1,400(sp)
    8000433a:	95a6                	add	a1,a1,s1
    8000433c:	25813703          	ld	a4,600(sp)
    80004340:	0f970693          	addi	a3,a4,249
    80004344:	8df5                	and	a1,a1,a3
    80004346:	058e                	slli	a1,a1,0x3
    80004348:	95aa                	add	a1,a1,a0
    8000434a:	0005bc03          	ld	s8,0(a1)
    8000434e:	00863083          	ld	ra,8(a2)
    80004352:	21813583          	ld	a1,536(sp)
    80004356:	76fa                	ld	a3,440(sp)
    80004358:	95b6                	add	a1,a1,a3
    8000435a:	058e                	slli	a1,a1,0x3
    8000435c:	95aa                	add	a1,a1,a0
    8000435e:	0005bd83          	ld	s11,0(a1)
    80004362:	01063883          	ld	a7,16(a2)
    80004366:	75f6                	ld	a1,376(sp)
    80004368:	95a6                	add	a1,a1,s1
    8000436a:	0fb70693          	addi	a3,a4,251
    8000436e:	8df5                	and	a1,a1,a3
    80004370:	058e                	slli	a1,a1,0x3
    80004372:	95aa                	add	a1,a1,a0
    80004374:	0005bf03          	ld	t5,0(a1)
    80004378:	01863b03          	ld	s6,24(a2)
    8000437c:	4981                	li	s3,0
    8000437e:	4d01                	li	s10,0
    80004380:	25013703          	ld	a4,592(sp)
    80004384:	e39d                	bnez	a5,800043aa <bilateral_core+0x21b0>
    80004386:	27813583          	ld	a1,632(sp)
    8000438a:	00c5e593          	ori	a1,a1,12
    8000438e:	23013683          	ld	a3,560(sp)
    80004392:	95b6                	add	a1,a1,a3
    80004394:	25813683          	ld	a3,600(sp)
    80004398:	0fc68693          	addi	a3,a3,252
    8000439c:	8df5                	and	a1,a1,a3
    8000439e:	058e                	slli	a1,a1,0x3
    800043a0:	95aa                	add	a1,a1,a0
    800043a2:	0005b983          	ld	s3,0(a1)
    800043a6:	02063d03          	ld	s10,32(a2)
    800043aa:	4281                	li	t0,0
    800043ac:	4901                	li	s2,0
    800043ae:	4c81                	li	s9,0
    800043b0:	4e01                	li	t3,0
    800043b2:	4301                	li	t1,0
    800043b4:	4781                	li	a5,0
    800043b6:	e331                	bnez	a4,800043fa <bilateral_core+0x2200>
    800043b8:	24013783          	ld	a5,576(sp)
    800043bc:	759a                	ld	a1,416(sp)
    800043be:	95be                	add	a1,a1,a5
    800043c0:	66fe                	ld	a3,472(sp)
    800043c2:	8df5                	and	a1,a1,a3
    800043c4:	058e                	slli	a1,a1,0x3
    800043c6:	95aa                	add	a1,a1,a0
    800043c8:	0005bc83          	ld	s9,0(a1)
    800043cc:	02863e03          	ld	t3,40(a2)
    800043d0:	65da                	ld	a1,400(sp)
    800043d2:	95be                	add	a1,a1,a5
    800043d4:	25813683          	ld	a3,600(sp)
    800043d8:	0f968693          	addi	a3,a3,249
    800043dc:	8df5                	and	a1,a1,a3
    800043de:	058e                	slli	a1,a1,0x3
    800043e0:	95aa                	add	a1,a1,a0
    800043e2:	0005b903          	ld	s2,0(a1)
    800043e6:	03063283          	ld	t0,48(a2)
    800043ea:	75ba                	ld	a1,424(sp)
    800043ec:	76fa                	ld	a3,440(sp)
    800043ee:	95b6                	add	a1,a1,a3
    800043f0:	058e                	slli	a1,a1,0x3
    800043f2:	95aa                	add	a1,a1,a0
    800043f4:	0005b303          	ld	t1,0(a1)
    800043f8:	7e1c                	ld	a5,56(a2)
    800043fa:	4b81                	li	s7,0
    800043fc:	4a01                	li	s4,0
    800043fe:	4581                	li	a1,0
    80004400:	4401                	li	s0,0
    80004402:	ef05                	bnez	a4,8000443a <bilateral_core+0x2240>
    80004404:	24013403          	ld	s0,576(sp)
    80004408:	75f6                	ld	a1,376(sp)
    8000440a:	95a2                	add	a1,a1,s0
    8000440c:	25813703          	ld	a4,600(sp)
    80004410:	0fb70693          	addi	a3,a4,251
    80004414:	8df5                	and	a1,a1,a3
    80004416:	058e                	slli	a1,a1,0x3
    80004418:	95aa                	add	a1,a1,a0
    8000441a:	0005ba03          	ld	s4,0(a1)
    8000441e:	04063b83          	ld	s7,64(a2)
    80004422:	27813583          	ld	a1,632(sp)
    80004426:	00c5e593          	ori	a1,a1,12
    8000442a:	95a2                	add	a1,a1,s0
    8000442c:	0fc70413          	addi	s0,a4,252
    80004430:	8de1                	and	a1,a1,s0
    80004432:	058e                	slli	a1,a1,0x3
    80004434:	95aa                	add	a1,a1,a0
    80004436:	618c                	ld	a1,0(a1)
    80004438:	6620                	ld	s0,72(a2)
    8000443a:	8168870b          	.insn	4, 0x8168870b
    8000443e:	601a870b          	.insn	4, 0x601a870b
    80004442:	41ed870b          	.insn	4, 0x41ed870b
    80004446:	2183870b          	.insn	4, 0x2183870b
    8000444a:	29013483          	ld	s1,656(sp)
    8000444e:	009e98fb          	.insn	4, 0x009e98fb
    80004452:	84f2870b          	.insn	4, 0x84f2870b
    80004456:	65cd070b          	.insn	4, 0x65cd070b
    8000445a:	4469070b          	.insn	4, 0x4469070b
    8000445e:	2599870b          	.insn	4, 0x2599870b
    80004462:	409e937b          	.insn	4, 0x409e937b
    80004466:	f2088153          	fmv.d.x	ft2,a7
    8000446a:	02017153          	fadd.d	ft2,ft2,ft0
    8000446e:	f20301d3          	fmv.d.x	ft3,t1
    80004472:	000fb283          	ld	t0,0(t6)
    80004476:	6a3c                	ld	a5,80(a2)
    80004478:	25813903          	ld	s2,600(sp)
    8000447c:	0f990693          	addi	a3,s2,249
    80004480:	ebb6                	sd	a3,464(sp)
    80004482:	677a                	ld	a4,408(sp)
    80004484:	8ef9                	and	a3,a3,a4
    80004486:	068e                	slli	a3,a3,0x3
    80004488:	00d50ab3          	add	s5,a0,a3
    8000448c:	000ab683          	ld	a3,0(s5)
    80004490:	6e38                	ld	a4,88(a2)
    80004492:	02317153          	fadd.d	ft2,ft2,ft3
    80004496:	688b840b          	.insn	4, 0x688b840b
    8000449a:	28ba058b          	.insn	4, 0x28ba058b
    8000449e:	089e858b          	.insn	4, 0x089e858b
    800044a2:	48d2858b          	.insn	4, 0x48d2858b
    800044a6:	90e79f7b          	.insn	4, 0x90e79f7b
    800044aa:	06063283          	ld	t0,96(a2)
    800044ae:	00083e03          	ld	t3,0(a6)
    800044b2:	06863383          	ld	t2,104(a2)
    800044b6:	27813583          	ld	a1,632(sp)
    800044ba:	00c5e413          	ori	s0,a1,12
    800044be:	26013583          	ld	a1,608(sp)
    800044c2:	95a2                	add	a1,a1,s0
    800044c4:	f62e                	sd	a1,296(sp)
    800044c6:	058e                	slli	a1,a1,0x3
    800044c8:	e62e                	sd	a1,264(sp)
    800044ca:	00b50a33          	add	s4,a0,a1
    800044ce:	000a3703          	ld	a4,0(s4)
    800044d2:	07063f83          	ld	t6,112(a2)
    800044d6:	65be                	ld	a1,456(sp)
    800044d8:	619c                	ld	a5,0(a1)
    800044da:	7e2c                	ld	a1,120(a2)
    800044dc:	0c9e868b          	.insn	4, 0x0c9e868b
    800044e0:	2dce868b          	.insn	4, 0x2dce868b
    800044e4:	6c72868b          	.insn	4, 0x6c72868b
    800044e8:	4cf7068b          	.insn	4, 0x4cf7068b
    800044ec:	d0bf9ffb          	.insn	4, 0xd0bf9ffb
    800044f0:	f20f01d3          	fmv.d.x	ft3,t5
    800044f4:	02317153          	fadd.d	ft2,ft2,ft3
    800044f8:	f20f81d3          	fmv.d.x	ft3,t6
    800044fc:	659e                	ld	a1,448(sp)
    800044fe:	618c                	ld	a1,0(a1)
    80004500:	08063283          	ld	t0,128(a2)
    80004504:	22813683          	ld	a3,552(sp)
    80004508:	629c                	ld	a5,0(a3)
    8000450a:	6654                	ld	a3,136(a2)
    8000450c:	775a                	ld	a4,432(sp)
    8000450e:	00073383          	ld	t2,0(a4)
    80004512:	6a58                	ld	a4,144(a2)
    80004514:	3cf5858b          	.insn	4, 0x3cf5858b
    80004518:	23813583          	ld	a1,568(sp)
    8000451c:	e722                	sd	s0,392(sp)
    8000451e:	95a2                	add	a1,a1,s0
    80004520:	058e                	slli	a1,a1,0x3
    80004522:	95aa                	add	a1,a1,a0
    80004524:	ef2e                	sd	a1,408(sp)
    80004526:	618c                	ld	a1,0(a1)
    80004528:	7cd2868b          	.insn	4, 0x7cd2868b
    8000452c:	6e54                	ld	a3,152(a2)
    8000452e:	02317153          	fadd.d	ft2,ft2,ft3
    80004532:	1c9e878b          	.insn	4, 0x1c9e878b
    80004536:	5cb3858b          	.insn	4, 0x5cb3858b
    8000453a:	d0d715fb          	.insn	4, 0xd0d715fb
    8000453e:	7254                	ld	a3,160(a2)
    80004540:	7658                	ld	a4,168(a2)
    80004542:	67b6                	ld	a5,328(sp)
    80004544:	639c                	ld	a5,0(a5)
    80004546:	7ce6868b          	.insn	4, 0x7ce6868b
    8000454a:	24813683          	ld	a3,584(sp)
    8000454e:	7776                	ld	a4,376(sp)
    80004550:	96ba                	add	a3,a3,a4
    80004552:	068e                	slli	a3,a3,0x3
    80004554:	96aa                	add	a3,a3,a0
    80004556:	f2b6                	sd	a3,352(sp)
    80004558:	6294                	ld	a3,0(a3)
    8000455a:	6776                	ld	a4,344(sp)
    8000455c:	6318                	ld	a4,0(a4)
    8000455e:	5cd7868b          	.insn	4, 0x5cd7868b
    80004562:	66d6                	ld	a3,336(sp)
    80004564:	6294                	ld	a3,0(a3)
    80004566:	7a5c                	ld	a5,176(a2)
    80004568:	3cd702db          	.insn	4, 0x3cd702db
    8000456c:	7e54                	ld	a3,184(a2)
    8000456e:	f20581d3          	fmv.d.x	ft3,a1
    80004572:	d0d795fb          	.insn	4, 0xd0d795fb
    80004576:	02317153          	fadd.d	ft2,ft2,ft3
    8000457a:	27013683          	ld	a3,624(sp)
    8000457e:	20c68693          	addi	a3,a3,524
    80004582:	068e                	slli	a3,a3,0x3
    80004584:	96aa                	add	a3,a3,a0
    80004586:	6294                	ld	a3,0(a3)
    80004588:	6278                	ld	a4,192(a2)
    8000458a:	f20581d3          	fmv.d.x	ft3,a1
    8000458e:	3c068e5b          	.insn	4, 0x3c068e5b
    80004592:	cc07177b          	.insn	4, 0xcc07177b
    80004596:	02317153          	fadd.d	ft2,ft2,ft3
    8000459a:	f20701d3          	fmv.d.x	ft3,a4
    8000459e:	02317153          	fadd.d	ft2,ft2,ft3
    800045a2:	011886ab          	.insn	4, 0x011886ab
    800045a6:	046305ab          	.insn	4, 0x046305ab
    800045aa:	09ef042b          	.insn	4, 0x09ef042b
    800045ae:	a22094d3          	flt.d	s1,ft1,ft2
    800045b2:	0dff87ab          	.insn	4, 0x0dff87ab
    800045b6:	1ce7072b          	.insn	4, 0x1ce7072b
    800045ba:	c0a9                	beqz	s1,800045fc <bilateral_core+0x2402>
    800045bc:	f20681d3          	fmv.d.x	ft3,a3
    800045c0:	0201f1d3          	fadd.d	ft3,ft3,ft0
    800045c4:	f2058253          	fmv.d.x	ft4,a1
    800045c8:	0241f1d3          	fadd.d	ft3,ft3,ft4
    800045cc:	f2040253          	fmv.d.x	ft4,s0
    800045d0:	0241f1d3          	fadd.d	ft3,ft3,ft4
    800045d4:	f2078253          	fmv.d.x	ft4,a5
    800045d8:	0241f1d3          	fadd.d	ft3,ft3,ft4
    800045dc:	f2028253          	fmv.d.x	ft4,t0
    800045e0:	0241f1d3          	fadd.d	ft3,ft3,ft4
    800045e4:	f20e0253          	fmv.d.x	ft4,t3
    800045e8:	0241f1d3          	fadd.d	ft3,ft3,ft4
    800045ec:	f2070253          	fmv.d.x	ft4,a4
    800045f0:	0241f1d3          	fadd.d	ft3,ft3,ft4
    800045f4:	1a21f153          	fdiv.d	ft2,ft3,ft2
    800045f8:	e2010ed3          	fmv.x.d	t4,ft2
    800045fc:	4881                	li	a7,0
    800045fe:	4d01                	li	s10,0
    80004600:	4b01                	li	s6,0
    80004602:	4e01                	li	t3,0
    80004604:	4c01                	li	s8,0
    80004606:	4d81                	li	s11,0
    80004608:	4f01                	li	t5,0
    8000460a:	28813583          	ld	a1,648(sp)
    8000460e:	66f2                	ld	a3,280(sp)
    80004610:	95b6                	add	a1,a1,a3
    80004612:	01d5b023          	sd	t4,0(a1)
    80004616:	00083383          	ld	t2,0(a6)
    8000461a:	4801                	li	a6,0
    8000461c:	26813783          	ld	a5,616(sp)
    80004620:	efa9                	bnez	a5,8000467a <bilateral_core+0x2480>
    80004622:	23013703          	ld	a4,560(sp)
    80004626:	65da                	ld	a1,400(sp)
    80004628:	95ba                	add	a1,a1,a4
    8000462a:	66de                	ld	a3,464(sp)
    8000462c:	8df5                	and	a1,a1,a3
    8000462e:	058e                	slli	a1,a1,0x3
    80004630:	95aa                	add	a1,a1,a0
    80004632:	0005be03          	ld	t3,0(a1)
    80004636:	00063b03          	ld	s6,0(a2)
    8000463a:	75fa                	ld	a1,440(sp)
    8000463c:	95ba                	add	a1,a1,a4
    8000463e:	0fa90693          	addi	a3,s2,250
    80004642:	8df5                	and	a1,a1,a3
    80004644:	058e                	slli	a1,a1,0x3
    80004646:	95aa                	add	a1,a1,a0
    80004648:	0005bc03          	ld	s8,0(a1)
    8000464c:	00863d83          	ld	s11,8(a2)
    80004650:	21813583          	ld	a1,536(sp)
    80004654:	76f6                	ld	a3,376(sp)
    80004656:	95b6                	add	a1,a1,a3
    80004658:	058e                	slli	a1,a1,0x3
    8000465a:	95aa                	add	a1,a1,a0
    8000465c:	0005bd03          	ld	s10,0(a1)
    80004660:	01063883          	ld	a7,16(a2)
    80004664:	65ba                	ld	a1,392(sp)
    80004666:	95ba                	add	a1,a1,a4
    80004668:	0fc90693          	addi	a3,s2,252
    8000466c:	8df5                	and	a1,a1,a3
    8000466e:	058e                	slli	a1,a1,0x3
    80004670:	95aa                	add	a1,a1,a0
    80004672:	0005bf03          	ld	t5,0(a1)
    80004676:	01863803          	ld	a6,24(a2)
    8000467a:	4981                	li	s3,0
    8000467c:	4081                	li	ra,0
    8000467e:	25013703          	ld	a4,592(sp)
    80004682:	e39d                	bnez	a5,800046a8 <bilateral_core+0x24ae>
    80004684:	27813583          	ld	a1,632(sp)
    80004688:	00d5e593          	ori	a1,a1,13
    8000468c:	23013683          	ld	a3,560(sp)
    80004690:	95b6                	add	a1,a1,a3
    80004692:	25813683          	ld	a3,600(sp)
    80004696:	0fd68693          	addi	a3,a3,253
    8000469a:	8df5                	and	a1,a1,a3
    8000469c:	058e                	slli	a1,a1,0x3
    8000469e:	95aa                	add	a1,a1,a0
    800046a0:	0005b983          	ld	s3,0(a1)
    800046a4:	02063083          	ld	ra,32(a2)
    800046a8:	4281                	li	t0,0
    800046aa:	4901                	li	s2,0
    800046ac:	4c81                	li	s9,0
    800046ae:	4301                	li	t1,0
    800046b0:	4781                	li	a5,0
    800046b2:	4f81                	li	t6,0
    800046b4:	e331                	bnez	a4,800046f8 <bilateral_core+0x24fe>
    800046b6:	24013783          	ld	a5,576(sp)
    800046ba:	65da                	ld	a1,400(sp)
    800046bc:	95be                	add	a1,a1,a5
    800046be:	66de                	ld	a3,464(sp)
    800046c0:	8df5                	and	a1,a1,a3
    800046c2:	058e                	slli	a1,a1,0x3
    800046c4:	95aa                	add	a1,a1,a0
    800046c6:	0005bc83          	ld	s9,0(a1)
    800046ca:	02863303          	ld	t1,40(a2)
    800046ce:	75fa                	ld	a1,440(sp)
    800046d0:	95be                	add	a1,a1,a5
    800046d2:	25813683          	ld	a3,600(sp)
    800046d6:	0fa68693          	addi	a3,a3,250
    800046da:	8df5                	and	a1,a1,a3
    800046dc:	058e                	slli	a1,a1,0x3
    800046de:	95aa                	add	a1,a1,a0
    800046e0:	0005b903          	ld	s2,0(a1)
    800046e4:	03063283          	ld	t0,48(a2)
    800046e8:	75ba                	ld	a1,424(sp)
    800046ea:	76f6                	ld	a3,376(sp)
    800046ec:	95b6                	add	a1,a1,a3
    800046ee:	058e                	slli	a1,a1,0x3
    800046f0:	95aa                	add	a1,a1,a0
    800046f2:	619c                	ld	a5,0(a1)
    800046f4:	03863f83          	ld	t6,56(a2)
    800046f8:	4b81                	li	s7,0
    800046fa:	4e81                	li	t4,0
    800046fc:	4581                	li	a1,0
    800046fe:	4401                	li	s0,0
    80004700:	ef05                	bnez	a4,80004738 <bilateral_core+0x253e>
    80004702:	24013403          	ld	s0,576(sp)
    80004706:	65ba                	ld	a1,392(sp)
    80004708:	95a2                	add	a1,a1,s0
    8000470a:	25813703          	ld	a4,600(sp)
    8000470e:	0fc70693          	addi	a3,a4,252
    80004712:	8df5                	and	a1,a1,a3
    80004714:	058e                	slli	a1,a1,0x3
    80004716:	95aa                	add	a1,a1,a0
    80004718:	0005be83          	ld	t4,0(a1)
    8000471c:	04063b83          	ld	s7,64(a2)
    80004720:	27813583          	ld	a1,632(sp)
    80004724:	00d5e593          	ori	a1,a1,13
    80004728:	95a2                	add	a1,a1,s0
    8000472a:	0fd70413          	addi	s0,a4,253
    8000472e:	8de1                	and	a1,a1,s0
    80004730:	058e                	slli	a1,a1,0x3
    80004732:	95aa                	add	a1,a1,a0
    80004734:	618c                	ld	a1,0(a1)
    80004736:	6620                	ld	s0,72(a2)
    80004738:	8108870b          	.insn	4, 0x8108870b
    8000473c:	61bb070b          	.insn	4, 0x61bb070b
    80004740:	41ed070b          	.insn	4, 0x41ed070b
    80004744:	218e070b          	.insn	4, 0x218e070b
    80004748:	29013483          	ld	s1,656(sp)
    8000474c:	009398fb          	.insn	4, 0x009398fb
    80004750:	85f2870b          	.insn	4, 0x85f2870b
    80004754:	6460870b          	.insn	4, 0x6460870b
    80004758:	44f9070b          	.insn	4, 0x44f9070b
    8000475c:	2599870b          	.insn	4, 0x2599870b
    80004760:	409392fb          	.insn	4, 0x409392fb
    80004764:	f2088153          	fmv.d.x	ft2,a7
    80004768:	02017153          	fadd.d	ft2,ft2,ft0
    8000476c:	f20281d3          	fmv.d.x	ft3,t0
    80004770:	000ab803          	ld	a6,0(s5)
    80004774:	6a3c                	ld	a5,80(a2)
    80004776:	25813903          	ld	s2,600(sp)
    8000477a:	0fa90693          	addi	a3,s2,250
    8000477e:	e7b6                	sd	a3,456(sp)
    80004780:	7772                	ld	a4,312(sp)
    80004782:	8ef9                	and	a3,a3,a4
    80004784:	068e                	slli	a3,a3,0x3
    80004786:	96aa                	add	a3,a3,a0
    80004788:	fe36                	sd	a3,312(sp)
    8000478a:	6294                	ld	a3,0(a3)
    8000478c:	6e38                	ld	a4,88(a2)
    8000478e:	02317153          	fadd.d	ft2,ft2,ft3
    80004792:	688b840b          	.insn	4, 0x688b840b
    80004796:	28be858b          	.insn	4, 0x28be858b
    8000479a:	0893858b          	.insn	4, 0x0893858b
    8000479e:	48d8058b          	.insn	4, 0x48d8058b
    800047a2:	90e79efb          	.insn	4, 0x90e79efb
    800047a6:	06063303          	ld	t1,96(a2)
    800047aa:	000a3f03          	ld	t5,0(s4)
    800047ae:	06863803          	ld	a6,104(a2)
    800047b2:	27813583          	ld	a1,632(sp)
    800047b6:	00d5e413          	ori	s0,a1,13
    800047ba:	26013583          	ld	a1,608(sp)
    800047be:	95a2                	add	a1,a1,s0
    800047c0:	f22e                	sd	a1,288(sp)
    800047c2:	058e                	slli	a1,a1,0x3
    800047c4:	e22e                	sd	a1,256(sp)
    800047c6:	00b50ab3          	add	s5,a0,a1
    800047ca:	000ab703          	ld	a4,0(s5)
    800047ce:	07063e03          	ld	t3,112(a2)
    800047d2:	659e                	ld	a1,448(sp)
    800047d4:	619c                	ld	a5,0(a1)
    800047d6:	7e2c                	ld	a1,120(a2)
    800047d8:	0c93868b          	.insn	4, 0x0c93868b
    800047dc:	2de3868b          	.insn	4, 0x2de3868b
    800047e0:	6d03068b          	.insn	4, 0x6d03068b
    800047e4:	4cf7068b          	.insn	4, 0x4cf7068b
    800047e8:	d0be1ffb          	.insn	4, 0xd0be1ffb
    800047ec:	f20e81d3          	fmv.d.x	ft3,t4
    800047f0:	02317153          	fadd.d	ft2,ft2,ft3
    800047f4:	f20f81d3          	fmv.d.x	ft3,t6
    800047f8:	22813583          	ld	a1,552(sp)
    800047fc:	618c                	ld	a1,0(a1)
    800047fe:	08063803          	ld	a6,128(a2)
    80004802:	76da                	ld	a3,432(sp)
    80004804:	629c                	ld	a5,0(a3)
    80004806:	6654                	ld	a3,136(a2)
    80004808:	677a                	ld	a4,408(sp)
    8000480a:	00073303          	ld	t1,0(a4)
    8000480e:	6a58                	ld	a4,144(a2)
    80004810:	3cf5858b          	.insn	4, 0x3cf5858b
    80004814:	23813583          	ld	a1,568(sp)
    80004818:	eb22                	sd	s0,400(sp)
    8000481a:	95a2                	add	a1,a1,s0
    8000481c:	058e                	slli	a1,a1,0x3
    8000481e:	95aa                	add	a1,a1,a0
    80004820:	f32e                	sd	a1,416(sp)
    80004822:	618c                	ld	a1,0(a1)
    80004824:	7cd8068b          	.insn	4, 0x7cd8068b
    80004828:	6e54                	ld	a3,152(a2)
    8000482a:	02317153          	fadd.d	ft2,ft2,ft3
    8000482e:	1c93878b          	.insn	4, 0x1c93878b
    80004832:	5cb3058b          	.insn	4, 0x5cb3058b
    80004836:	d0d715fb          	.insn	4, 0xd0d715fb
    8000483a:	7254                	ld	a3,160(a2)
    8000483c:	7658                	ld	a4,168(a2)
    8000483e:	7796                	ld	a5,352(sp)
    80004840:	639c                	ld	a5,0(a5)
    80004842:	7ce6868b          	.insn	4, 0x7ce6868b
    80004846:	24813683          	ld	a3,584(sp)
    8000484a:	673a                	ld	a4,392(sp)
    8000484c:	96ba                	add	a3,a3,a4
    8000484e:	068e                	slli	a3,a3,0x3
    80004850:	96aa                	add	a3,a3,a0
    80004852:	eeb6                	sd	a3,344(sp)
    80004854:	6294                	ld	a3,0(a3)
    80004856:	6756                	ld	a4,336(sp)
    80004858:	6318                	ld	a4,0(a4)
    8000485a:	5cd7868b          	.insn	4, 0x5cd7868b
    8000485e:	66b6                	ld	a3,328(sp)
    80004860:	6294                	ld	a3,0(a3)
    80004862:	7a5c                	ld	a5,176(a2)
    80004864:	3cd7035b          	.insn	4, 0x3cd7035b
    80004868:	7e54                	ld	a3,184(a2)
    8000486a:	f20581d3          	fmv.d.x	ft3,a1
    8000486e:	d0d795fb          	.insn	4, 0xd0d795fb
    80004872:	02317153          	fadd.d	ft2,ft2,ft3
    80004876:	27013683          	ld	a3,624(sp)
    8000487a:	20d68693          	addi	a3,a3,525
    8000487e:	068e                	slli	a3,a3,0x3
    80004880:	96aa                	add	a3,a3,a0
    80004882:	6294                	ld	a3,0(a3)
    80004884:	6278                	ld	a4,192(a2)
    80004886:	f20581d3          	fmv.d.x	ft3,a1
    8000488a:	3c068f5b          	.insn	4, 0x3c068f5b
    8000488e:	cc07177b          	.insn	4, 0xcc07177b
    80004892:	02317153          	fadd.d	ft2,ft2,ft3
    80004896:	f20701d3          	fmv.d.x	ft3,a4
    8000489a:	02317153          	fadd.d	ft2,ft2,ft3
    8000489e:	011886ab          	.insn	4, 0x011886ab
    800048a2:	045285ab          	.insn	4, 0x045285ab
    800048a6:	09de842b          	.insn	4, 0x09de842b
    800048aa:	a22094d3          	flt.d	s1,ft1,ft2
    800048ae:	0dff87ab          	.insn	4, 0x0dff87ab
    800048b2:	1ce7072b          	.insn	4, 0x1ce7072b
    800048b6:	c0a9                	beqz	s1,800048f8 <bilateral_core+0x26fe>
    800048b8:	f20681d3          	fmv.d.x	ft3,a3
    800048bc:	0201f1d3          	fadd.d	ft3,ft3,ft0
    800048c0:	f2058253          	fmv.d.x	ft4,a1
    800048c4:	0241f1d3          	fadd.d	ft3,ft3,ft4
    800048c8:	f2040253          	fmv.d.x	ft4,s0
    800048cc:	0241f1d3          	fadd.d	ft3,ft3,ft4
    800048d0:	f2078253          	fmv.d.x	ft4,a5
    800048d4:	0241f1d3          	fadd.d	ft3,ft3,ft4
    800048d8:	f2030253          	fmv.d.x	ft4,t1
    800048dc:	0241f1d3          	fadd.d	ft3,ft3,ft4
    800048e0:	f20f0253          	fmv.d.x	ft4,t5
    800048e4:	0241f1d3          	fadd.d	ft3,ft3,ft4
    800048e8:	f2070253          	fmv.d.x	ft4,a4
    800048ec:	0241f1d3          	fadd.d	ft3,ft3,ft4
    800048f0:	1a21f153          	fdiv.d	ft2,ft3,ft2
    800048f4:	e20103d3          	fmv.x.d	t2,ft2
    800048f8:	4881                	li	a7,0
    800048fa:	4b81                	li	s7,0
    800048fc:	4981                	li	s3,0
    800048fe:	4301                	li	t1,0
    80004900:	4b01                	li	s6,0
    80004902:	4c01                	li	s8,0
    80004904:	4f01                	li	t5,0
    80004906:	28813583          	ld	a1,648(sp)
    8000490a:	66d2                	ld	a3,272(sp)
    8000490c:	95b6                	add	a1,a1,a3
    8000490e:	0075b023          	sd	t2,0(a1)
    80004912:	000a3e03          	ld	t3,0(s4)
    80004916:	4a01                	li	s4,0
    80004918:	26813783          	ld	a5,616(sp)
    8000491c:	efa9                	bnez	a5,80004976 <bilateral_core+0x277c>
    8000491e:	23013703          	ld	a4,560(sp)
    80004922:	75fa                	ld	a1,440(sp)
    80004924:	95ba                	add	a1,a1,a4
    80004926:	66be                	ld	a3,456(sp)
    80004928:	8df5                	and	a1,a1,a3
    8000492a:	058e                	slli	a1,a1,0x3
    8000492c:	95aa                	add	a1,a1,a0
    8000492e:	0005b303          	ld	t1,0(a1)
    80004932:	00063983          	ld	s3,0(a2)
    80004936:	75f6                	ld	a1,376(sp)
    80004938:	95ba                	add	a1,a1,a4
    8000493a:	0fb90693          	addi	a3,s2,251
    8000493e:	8df5                	and	a1,a1,a3
    80004940:	058e                	slli	a1,a1,0x3
    80004942:	95aa                	add	a1,a1,a0
    80004944:	0005bb03          	ld	s6,0(a1)
    80004948:	00863c03          	ld	s8,8(a2)
    8000494c:	21813583          	ld	a1,536(sp)
    80004950:	66ba                	ld	a3,392(sp)
    80004952:	95b6                	add	a1,a1,a3
    80004954:	058e                	slli	a1,a1,0x3
    80004956:	95aa                	add	a1,a1,a0
    80004958:	0005bb83          	ld	s7,0(a1)
    8000495c:	01063883          	ld	a7,16(a2)
    80004960:	65da                	ld	a1,400(sp)
    80004962:	95ba                	add	a1,a1,a4
    80004964:	0fd90693          	addi	a3,s2,253
    80004968:	8df5                	and	a1,a1,a3
    8000496a:	058e                	slli	a1,a1,0x3
    8000496c:	95aa                	add	a1,a1,a0
    8000496e:	0005bf03          	ld	t5,0(a1)
    80004972:	01863a03          	ld	s4,24(a2)
    80004976:	4d01                	li	s10,0
    80004978:	4d81                	li	s11,0
    8000497a:	25013703          	ld	a4,592(sp)
    8000497e:	e38d                	bnez	a5,800049a0 <bilateral_core+0x27a6>
    80004980:	27813583          	ld	a1,632(sp)
    80004984:	00e5e593          	ori	a1,a1,14
    80004988:	23013683          	ld	a3,560(sp)
    8000498c:	95b6                	add	a1,a1,a3
    8000498e:	0fe90693          	addi	a3,s2,254
    80004992:	8df5                	and	a1,a1,a3
    80004994:	058e                	slli	a1,a1,0x3
    80004996:	95aa                	add	a1,a1,a0
    80004998:	0005bd03          	ld	s10,0(a1)
    8000499c:	02063d83          	ld	s11,32(a2)
    800049a0:	ea56                	sd	s5,272(sp)
    800049a2:	4901                	li	s2,0
    800049a4:	4f81                	li	t6,0
    800049a6:	4c81                	li	s9,0
    800049a8:	4081                	li	ra,0
    800049aa:	4481                	li	s1,0
    800049ac:	4781                	li	a5,0
    800049ae:	e329                	bnez	a4,800049f0 <bilateral_core+0x27f6>
    800049b0:	24013783          	ld	a5,576(sp)
    800049b4:	75fa                	ld	a1,440(sp)
    800049b6:	95be                	add	a1,a1,a5
    800049b8:	66be                	ld	a3,456(sp)
    800049ba:	8df5                	and	a1,a1,a3
    800049bc:	058e                	slli	a1,a1,0x3
    800049be:	95aa                	add	a1,a1,a0
    800049c0:	0005bc83          	ld	s9,0(a1)
    800049c4:	02863083          	ld	ra,40(a2)
    800049c8:	75f6                	ld	a1,376(sp)
    800049ca:	95be                	add	a1,a1,a5
    800049cc:	25813683          	ld	a3,600(sp)
    800049d0:	0fb68693          	addi	a3,a3,251
    800049d4:	8df5                	and	a1,a1,a3
    800049d6:	058e                	slli	a1,a1,0x3
    800049d8:	95aa                	add	a1,a1,a0
    800049da:	0005bf83          	ld	t6,0(a1)
    800049de:	03063903          	ld	s2,48(a2)
    800049e2:	75ba                	ld	a1,424(sp)
    800049e4:	66ba                	ld	a3,392(sp)
    800049e6:	95b6                	add	a1,a1,a3
    800049e8:	058e                	slli	a1,a1,0x3
    800049ea:	95aa                	add	a1,a1,a0
    800049ec:	6184                	ld	s1,0(a1)
    800049ee:	7e1c                	ld	a5,56(a2)
    800049f0:	4801                	li	a6,0
    800049f2:	4381                	li	t2,0
    800049f4:	4581                	li	a1,0
    800049f6:	4a81                	li	s5,0
    800049f8:	ef1d                	bnez	a4,80004a36 <bilateral_core+0x283c>
    800049fa:	24013403          	ld	s0,576(sp)
    800049fe:	65da                	ld	a1,400(sp)
    80004a00:	95a2                	add	a1,a1,s0
    80004a02:	25813703          	ld	a4,600(sp)
    80004a06:	0fd70693          	addi	a3,a4,253
    80004a0a:	8df5                	and	a1,a1,a3
    80004a0c:	058e                	slli	a1,a1,0x3
    80004a0e:	95aa                	add	a1,a1,a0
    80004a10:	0005b383          	ld	t2,0(a1)
    80004a14:	04063803          	ld	a6,64(a2)
    80004a18:	27813583          	ld	a1,632(sp)
    80004a1c:	00e5e593          	ori	a1,a1,14
    80004a20:	00b402b3          	add	t0,s0,a1
    80004a24:	0fe70593          	addi	a1,a4,254
    80004a28:	00b2f5b3          	and	a1,t0,a1
    80004a2c:	058e                	slli	a1,a1,0x3
    80004a2e:	95aa                	add	a1,a1,a0
    80004a30:	618c                	ld	a1,0(a1)
    80004a32:	04863a83          	ld	s5,72(a2)
    80004a36:	8148840b          	.insn	4, 0x8148840b
    80004a3a:	6189840b          	.insn	4, 0x6189840b
    80004a3e:	41eb840b          	.insn	4, 0x41eb840b
    80004a42:	2163040b          	.insn	4, 0x2163040b
    80004a46:	29013403          	ld	s0,656(sp)
    80004a4a:	008e18fb          	.insn	4, 0x008e18fb
    80004a4e:	84f9078b          	.insn	4, 0x84f9078b
    80004a52:	641d878b          	.insn	4, 0x641d878b
    80004a56:	449f878b          	.insn	4, 0x449f878b
    80004a5a:	259d078b          	.insn	4, 0x259d078b
    80004a5e:	408e1efb          	.insn	4, 0x408e1efb
    80004a62:	f2088153          	fmv.d.x	ft2,a7
    80004a66:	02017153          	fadd.d	ft2,ft2,ft0
    80004a6a:	f20e81d3          	fmv.d.x	ft3,t4
    80004a6e:	76f2                	ld	a3,312(sp)
    80004a70:	6284                	ld	s1,0(a3)
    80004a72:	05063303          	ld	t1,80(a2)
    80004a76:	25813083          	ld	ra,600(sp)
    80004a7a:	0fb08693          	addi	a3,ra,251
    80004a7e:	e3b6                	sd	a3,448(sp)
    80004a80:	7752                	ld	a4,304(sp)
    80004a82:	00d777b3          	and	a5,a4,a3
    80004a86:	078e                	slli	a5,a5,0x3
    80004a88:	00f502b3          	add	t0,a0,a5
    80004a8c:	0002b783          	ld	a5,0(t0)
    80004a90:	6e34                	ld	a3,88(a2)
    80004a92:	02317153          	fadd.d	ft2,ft2,ft3
    80004a96:	6958070b          	.insn	4, 0x6958070b
    80004a9a:	28b3858b          	.insn	4, 0x28b3858b
    80004a9e:	088e058b          	.insn	4, 0x088e058b
    80004aa2:	48f4858b          	.insn	4, 0x48f4858b
    80004aa6:	90d3187b          	.insn	4, 0x90d3187b
    80004aaa:	06063303          	ld	t1,96(a2)
    80004aae:	6ad2                	ld	s5,272(sp)
    80004ab0:	000abf03          	ld	t5,0(s5)
    80004ab4:	06863f83          	ld	t6,104(a2)
    80004ab8:	27813c83          	ld	s9,632(sp)
    80004abc:	00ece793          	ori	a5,s9,14
    80004ac0:	26013583          	ld	a1,608(sp)
    80004ac4:	95be                	add	a1,a1,a5
    80004ac6:	fa2e                	sd	a1,304(sp)
    80004ac8:	058e                	slli	a1,a1,0x3
    80004aca:	ee2e                	sd	a1,280(sp)
    80004acc:	00b503b3          	add	t2,a0,a1
    80004ad0:	0003b903          	ld	s2,0(t2)
    80004ad4:	7a38                	ld	a4,112(a2)
    80004ad6:	22813583          	ld	a1,552(sp)
    80004ada:	6184                	ld	s1,0(a1)
    80004adc:	7e2c                	ld	a1,120(a2)
    80004ade:	0c8e068b          	.insn	4, 0x0c8e068b
    80004ae2:	2dee068b          	.insn	4, 0x2dee068b
    80004ae6:	6df3068b          	.insn	4, 0x6df3068b
    80004aea:	4c99068b          	.insn	4, 0x4c99068b
    80004aee:	d0b71ffb          	.insn	4, 0xd0b71ffb
    80004af2:	f20801d3          	fmv.d.x	ft3,a6
    80004af6:	02317153          	fadd.d	ft2,ft2,ft3
    80004afa:	f20f81d3          	fmv.d.x	ft3,t6
    80004afe:	75da                	ld	a1,432(sp)
    80004b00:	618c                	ld	a1,0(a1)
    80004b02:	08063f03          	ld	t5,128(a2)
    80004b06:	677a                	ld	a4,408(sp)
    80004b08:	6314                	ld	a3,0(a4)
    80004b0a:	6644                	ld	s1,136(a2)
    80004b0c:	771a                	ld	a4,416(sp)
    80004b0e:	00073303          	ld	t1,0(a4)
    80004b12:	6a58                	ld	a4,144(a2)
    80004b14:	3cd5858b          	.insn	4, 0x3cd5858b
    80004b18:	23813583          	ld	a1,568(sp)
    80004b1c:	22f13423          	sd	a5,552(sp)
    80004b20:	95be                	add	a1,a1,a5
    80004b22:	058e                	slli	a1,a1,0x3
    80004b24:	95aa                	add	a1,a1,a0
    80004b26:	eaae                	sd	a1,336(sp)
    80004b28:	618c                	ld	a1,0(a1)
    80004b2a:	7c9f068b          	.insn	4, 0x7c9f068b
    80004b2e:	6e54                	ld	a3,152(a2)
    80004b30:	02317153          	fadd.d	ft2,ft2,ft3
    80004b34:	1c8e078b          	.insn	4, 0x1c8e078b
    80004b38:	5cb3058b          	.insn	4, 0x5cb3058b
    80004b3c:	d0d715fb          	.insn	4, 0xd0d715fb
    80004b40:	7254                	ld	a3,160(a2)
    80004b42:	7658                	ld	a4,168(a2)
    80004b44:	67f6                	ld	a5,344(sp)
    80004b46:	639c                	ld	a5,0(a5)
    80004b48:	7ce6868b          	.insn	4, 0x7ce6868b
    80004b4c:	24813683          	ld	a3,584(sp)
    80004b50:	675a                	ld	a4,400(sp)
    80004b52:	96ba                	add	a3,a3,a4
    80004b54:	068e                	slli	a3,a3,0x3
    80004b56:	96aa                	add	a3,a3,a0
    80004b58:	fe36                	sd	a3,312(sp)
    80004b5a:	6294                	ld	a3,0(a3)
    80004b5c:	6736                	ld	a4,328(sp)
    80004b5e:	6318                	ld	a4,0(a4)
    80004b60:	5cd7868b          	.insn	4, 0x5cd7868b
    80004b64:	7696                	ld	a3,352(sp)
    80004b66:	6294                	ld	a3,0(a3)
    80004b68:	7a5c                	ld	a5,176(a2)
    80004b6a:	3cd7035b          	.insn	4, 0x3cd7035b
    80004b6e:	7e54                	ld	a3,184(a2)
    80004b70:	f20581d3          	fmv.d.x	ft3,a1
    80004b74:	d0d795fb          	.insn	4, 0xd0d795fb
    80004b78:	02317153          	fadd.d	ft2,ft2,ft3
    80004b7c:	27013683          	ld	a3,624(sp)
    80004b80:	20e68693          	addi	a3,a3,526
    80004b84:	068e                	slli	a3,a3,0x3
    80004b86:	96aa                	add	a3,a3,a0
    80004b88:	6294                	ld	a3,0(a3)
    80004b8a:	6278                	ld	a4,192(a2)
    80004b8c:	f20581d3          	fmv.d.x	ft3,a1
    80004b90:	3c068f5b          	.insn	4, 0x3c068f5b
    80004b94:	cc07177b          	.insn	4, 0xcc07177b
    80004b98:	02317153          	fadd.d	ft2,ft2,ft3
    80004b9c:	f20701d3          	fmv.d.x	ft3,a4
    80004ba0:	02317153          	fadd.d	ft2,ft2,ft3
    80004ba4:	011886ab          	.insn	4, 0x011886ab
    80004ba8:	05de85ab          	.insn	4, 0x05de85ab
    80004bac:	0908042b          	.insn	4, 0x0908042b
    80004bb0:	a22097d3          	flt.d	a5,ft1,ft2
    80004bb4:	0dff84ab          	.insn	4, 0x0dff84ab
    80004bb8:	1ce7072b          	.insn	4, 0x1ce7072b
    80004bbc:	c3a9                	beqz	a5,80004bfe <bilateral_core+0x2a04>
    80004bbe:	f20681d3          	fmv.d.x	ft3,a3
    80004bc2:	0201f1d3          	fadd.d	ft3,ft3,ft0
    80004bc6:	f2058253          	fmv.d.x	ft4,a1
    80004bca:	0241f1d3          	fadd.d	ft3,ft3,ft4
    80004bce:	f2040253          	fmv.d.x	ft4,s0
    80004bd2:	0241f1d3          	fadd.d	ft3,ft3,ft4
    80004bd6:	f2048253          	fmv.d.x	ft4,s1
    80004bda:	0241f1d3          	fadd.d	ft3,ft3,ft4
    80004bde:	f2030253          	fmv.d.x	ft4,t1
    80004be2:	0241f1d3          	fadd.d	ft3,ft3,ft4
    80004be6:	f20f0253          	fmv.d.x	ft4,t5
    80004bea:	0241f1d3          	fadd.d	ft3,ft3,ft4
    80004bee:	f2070253          	fmv.d.x	ft4,a4
    80004bf2:	0241f1d3          	fadd.d	ft3,ft3,ft4
    80004bf6:	1a21f153          	fdiv.d	ft2,ft3,ft2
    80004bfa:	e2010e53          	fmv.x.d	t3,ft2
    80004bfe:	4881                	li	a7,0
    80004c00:	4a01                	li	s4,0
    80004c02:	4901                	li	s2,0
    80004c04:	4301                	li	t1,0
    80004c06:	4981                	li	s3,0
    80004c08:	4b01                	li	s6,0
    80004c0a:	4f01                	li	t5,0
    80004c0c:	28813583          	ld	a1,648(sp)
    80004c10:	66b2                	ld	a3,264(sp)
    80004c12:	95b6                	add	a1,a1,a3
    80004c14:	01c5b023          	sd	t3,0(a1)
    80004c18:	000aba83          	ld	s5,0(s5)
    80004c1c:	4801                	li	a6,0
    80004c1e:	26813783          	ld	a5,616(sp)
    80004c22:	efb1                	bnez	a5,80004c7e <bilateral_core+0x2a84>
    80004c24:	23013703          	ld	a4,560(sp)
    80004c28:	75f6                	ld	a1,376(sp)
    80004c2a:	95ba                	add	a1,a1,a4
    80004c2c:	669e                	ld	a3,448(sp)
    80004c2e:	8df5                	and	a1,a1,a3
    80004c30:	058e                	slli	a1,a1,0x3
    80004c32:	95aa                	add	a1,a1,a0
    80004c34:	0005b303          	ld	t1,0(a1)
    80004c38:	00063903          	ld	s2,0(a2)
    80004c3c:	65ba                	ld	a1,392(sp)
    80004c3e:	95ba                	add	a1,a1,a4
    80004c40:	0fc08693          	addi	a3,ra,252
    80004c44:	8df5                	and	a1,a1,a3
    80004c46:	058e                	slli	a1,a1,0x3
    80004c48:	95aa                	add	a1,a1,a0
    80004c4a:	0005b983          	ld	s3,0(a1)
    80004c4e:	00863b03          	ld	s6,8(a2)
    80004c52:	21813583          	ld	a1,536(sp)
    80004c56:	66da                	ld	a3,400(sp)
    80004c58:	95b6                	add	a1,a1,a3
    80004c5a:	058e                	slli	a1,a1,0x3
    80004c5c:	95aa                	add	a1,a1,a0
    80004c5e:	0005ba03          	ld	s4,0(a1)
    80004c62:	01063883          	ld	a7,16(a2)
    80004c66:	22813583          	ld	a1,552(sp)
    80004c6a:	95ba                	add	a1,a1,a4
    80004c6c:	0fe08693          	addi	a3,ra,254
    80004c70:	8df5                	and	a1,a1,a3
    80004c72:	058e                	slli	a1,a1,0x3
    80004c74:	95aa                	add	a1,a1,a0
    80004c76:	0005bf03          	ld	t5,0(a1)
    80004c7a:	01863803          	ld	a6,24(a2)
    80004c7e:	4b81                	li	s7,0
    80004c80:	4c01                	li	s8,0
    80004c82:	25013703          	ld	a4,592(sp)
    80004c86:	ef99                	bnez	a5,80004ca4 <bilateral_core+0x2aaa>
    80004c88:	00fce593          	ori	a1,s9,15
    80004c8c:	23013683          	ld	a3,560(sp)
    80004c90:	95b6                	add	a1,a1,a3
    80004c92:	0ff08693          	addi	a3,ra,255
    80004c96:	8df5                	and	a1,a1,a3
    80004c98:	058e                	slli	a1,a1,0x3
    80004c9a:	95aa                	add	a1,a1,a0
    80004c9c:	0005bb83          	ld	s7,0(a1)
    80004ca0:	02063c03          	ld	s8,32(a2)
    80004ca4:	4d81                	li	s11,0
    80004ca6:	4f81                	li	t6,0
    80004ca8:	4c81                	li	s9,0
    80004caa:	4d01                	li	s10,0
    80004cac:	4581                	li	a1,0
    80004cae:	4781                	li	a5,0
    80004cb0:	ef1d                	bnez	a4,80004cee <bilateral_core+0x2af4>
    80004cb2:	24013783          	ld	a5,576(sp)
    80004cb6:	75f6                	ld	a1,376(sp)
    80004cb8:	95be                	add	a1,a1,a5
    80004cba:	669e                	ld	a3,448(sp)
    80004cbc:	8df5                	and	a1,a1,a3
    80004cbe:	058e                	slli	a1,a1,0x3
    80004cc0:	95aa                	add	a1,a1,a0
    80004cc2:	0005bc83          	ld	s9,0(a1)
    80004cc6:	02863d03          	ld	s10,40(a2)
    80004cca:	65ba                	ld	a1,392(sp)
    80004ccc:	95be                	add	a1,a1,a5
    80004cce:	0fc08693          	addi	a3,ra,252
    80004cd2:	8df5                	and	a1,a1,a3
    80004cd4:	058e                	slli	a1,a1,0x3
    80004cd6:	95aa                	add	a1,a1,a0
    80004cd8:	0005bf83          	ld	t6,0(a1)
    80004cdc:	03063d83          	ld	s11,48(a2)
    80004ce0:	75ba                	ld	a1,424(sp)
    80004ce2:	66da                	ld	a3,400(sp)
    80004ce4:	95b6                	add	a1,a1,a3
    80004ce6:	058e                	slli	a1,a1,0x3
    80004ce8:	95aa                	add	a1,a1,a0
    80004cea:	618c                	ld	a1,0(a1)
    80004cec:	7e1c                	ld	a5,56(a2)
    80004cee:	4e01                	li	t3,0
    80004cf0:	4e81                	li	t4,0
    80004cf2:	4481                	li	s1,0
    80004cf4:	4401                	li	s0,0
    80004cf6:	eb1d                	bnez	a4,80004d2c <bilateral_core+0x2b32>
    80004cf8:	24013703          	ld	a4,576(sp)
    80004cfc:	22813683          	ld	a3,552(sp)
    80004d00:	96ba                	add	a3,a3,a4
    80004d02:	0fe08493          	addi	s1,ra,254
    80004d06:	8ee5                	and	a3,a3,s1
    80004d08:	068e                	slli	a3,a3,0x3
    80004d0a:	96aa                	add	a3,a3,a0
    80004d0c:	0006be83          	ld	t4,0(a3)
    80004d10:	04063e03          	ld	t3,64(a2)
    80004d14:	27813683          	ld	a3,632(sp)
    80004d18:	00f6e493          	ori	s1,a3,15
    80004d1c:	94ba                	add	s1,s1,a4
    80004d1e:	0ff08413          	addi	s0,ra,255
    80004d22:	8ce1                	and	s1,s1,s0
    80004d24:	048e                	slli	s1,s1,0x3
    80004d26:	94aa                	add	s1,s1,a0
    80004d28:	6084                	ld	s1,0(s1)
    80004d2a:	6620                	ld	s0,72(a2)
    80004d2c:	8108868b          	.insn	4, 0x8108868b
    80004d30:	6169068b          	.insn	4, 0x6169068b
    80004d34:	41ea068b          	.insn	4, 0x41ea068b
    80004d38:	2133068b          	.insn	4, 0x2133068b
    80004d3c:	29013f03          	ld	t5,656(sp)
    80004d40:	01ea987b          	.insn	4, 0x01ea987b
    80004d44:	84fd868b          	.insn	4, 0x84fd868b
    80004d48:	65ac068b          	.insn	4, 0x65ac068b
    80004d4c:	44bf858b          	.insn	4, 0x44bf858b
    80004d50:	259b858b          	.insn	4, 0x259b858b
    80004d54:	41ea937b          	.insn	4, 0x41ea937b
    80004d58:	f2080153          	fmv.d.x	ft2,a6
    80004d5c:	02017153          	fadd.d	ft2,ft2,ft0
    80004d60:	f20301d3          	fmv.d.x	ft3,t1
    80004d64:	0002b683          	ld	a3,0(t0)
    80004d68:	6a3c                	ld	a5,80(a2)
    80004d6a:	0fc08593          	addi	a1,ra,252
    80004d6e:	ff2e                	sd	a1,440(sp)
    80004d70:	7732                	ld	a4,296(sp)
    80004d72:	8df9                	and	a1,a1,a4
    80004d74:	058e                	slli	a1,a1,0x3
    80004d76:	95aa                	add	a1,a1,a0
    80004d78:	e9ae                	sd	a1,208(sp)
    80004d7a:	618c                	ld	a1,0(a1)
    80004d7c:	6e38                	ld	a4,88(a2)
    80004d7e:	02317153          	fadd.d	ft2,ft2,ft3
    80004d82:	688e040b          	.insn	4, 0x688e040b
    80004d86:	289e848b          	.insn	4, 0x289e848b
    80004d8a:	09ea848b          	.insn	4, 0x09ea848b
    80004d8e:	48b6858b          	.insn	4, 0x48b6858b
    80004d92:	90e79e7b          	.insn	4, 0x90e79e7b
    80004d96:	06063883          	ld	a7,96(a2)
    80004d9a:	0003b283          	ld	t0,0(t2)
    80004d9e:	7638                	ld	a4,104(a2)
    80004da0:	27813f83          	ld	t6,632(sp)
    80004da4:	00ffed93          	ori	s11,t6,15
    80004da8:	26013583          	ld	a1,608(sp)
    80004dac:	01b587b3          	add	a5,a1,s11
    80004db0:	00379593          	slli	a1,a5,0x3
    80004db4:	f62e                	sd	a1,296(sp)
    80004db6:	00b50bb3          	add	s7,a0,a1
    80004dba:	000bb783          	ld	a5,0(s7)
    80004dbe:	7a20                	ld	s0,112(a2)
    80004dc0:	75da                	ld	a1,432(sp)
    80004dc2:	6184                	ld	s1,0(a1)
    80004dc4:	7e2c                	ld	a1,120(a2)
    80004dc6:	0dea868b          	.insn	4, 0x0dea868b
    80004dca:	2c5a868b          	.insn	4, 0x2c5a868b
    80004dce:	6ce8868b          	.insn	4, 0x6ce8868b
    80004dd2:	4c97868b          	.insn	4, 0x4c97868b
    80004dd6:	d0b41efb          	.insn	4, 0xd0b41efb
    80004dda:	f20e01d3          	fmv.d.x	ft3,t3
    80004dde:	02317153          	fadd.d	ft2,ft2,ft3
    80004de2:	f20e81d3          	fmv.d.x	ft3,t4
    80004de6:	65fa                	ld	a1,408(sp)
    80004de8:	6194                	ld	a3,0(a1)
    80004dea:	6258                	ld	a4,128(a2)
    80004dec:	759a                	ld	a1,416(sp)
    80004dee:	619c                	ld	a5,0(a1)
    80004df0:	6644                	ld	s1,136(a2)
    80004df2:	65d6                	ld	a1,336(sp)
    80004df4:	6180                	ld	s0,0(a1)
    80004df6:	6a4c                	ld	a1,144(a2)
    80004df8:	3cf6868b          	.insn	4, 0x3cf6868b
    80004dfc:	23813683          	ld	a3,568(sp)
    80004e00:	96ee                	add	a3,a3,s11
    80004e02:	068e                	slli	a3,a3,0x3
    80004e04:	00d50d33          	add	s10,a0,a3
    80004e08:	000d3683          	ld	a3,0(s10)
    80004e0c:	7c97070b          	.insn	4, 0x7c97070b
    80004e10:	6e58                	ld	a4,152(a2)
    80004e12:	02317153          	fadd.d	ft2,ft2,ft3
    80004e16:	1dea878b          	.insn	4, 0x1dea878b
    80004e1a:	5cd4068b          	.insn	4, 0x5cd4068b
    80004e1e:	d0e595fb          	.insn	4, 0xd0e595fb
    80004e22:	7254                	ld	a3,160(a2)
    80004e24:	7658                	ld	a4,168(a2)
    80004e26:	7a72                	ld	s4,312(sp)
    80004e28:	000a3783          	ld	a5,0(s4)
    80004e2c:	7ce6868b          	.insn	4, 0x7ce6868b
    80004e30:	24813683          	ld	a3,584(sp)
    80004e34:	22813703          	ld	a4,552(sp)
    80004e38:	96ba                	add	a3,a3,a4
    80004e3a:	068e                	slli	a3,a3,0x3
    80004e3c:	00d50b33          	add	s6,a0,a3
    80004e40:	000b3683          	ld	a3,0(s6)
    80004e44:	7716                	ld	a4,352(sp)
    80004e46:	6318                	ld	a4,0(a4)
    80004e48:	5cd7868b          	.insn	4, 0x5cd7868b
    80004e4c:	66f6                	ld	a3,344(sp)
    80004e4e:	6294                	ld	a3,0(a3)
    80004e50:	7a5c                	ld	a5,176(a2)
    80004e52:	3cd708db          	.insn	4, 0x3cd708db
    80004e56:	7e54                	ld	a3,184(a2)
    80004e58:	f20581d3          	fmv.d.x	ft3,a1
    80004e5c:	d0d795fb          	.insn	4, 0xd0d795fb
    80004e60:	02317153          	fadd.d	ft2,ft2,ft3
    80004e64:	27013683          	ld	a3,624(sp)
    80004e68:	20f68693          	addi	a3,a3,527
    80004e6c:	068e                	slli	a3,a3,0x3
    80004e6e:	96aa                	add	a3,a3,a0
    80004e70:	6294                	ld	a3,0(a3)
    80004e72:	6278                	ld	a4,192(a2)
    80004e74:	f20581d3          	fmv.d.x	ft3,a1
    80004e78:	3c0682db          	.insn	4, 0x3c0682db
    80004e7c:	cc0715fb          	.insn	4, 0xcc0715fb
    80004e80:	02317153          	fadd.d	ft2,ft2,ft3
    80004e84:	f20581d3          	fmv.d.x	ft3,a1
    80004e88:	02317153          	fadd.d	ft2,ft2,ft3
    80004e8c:	010807ab          	.insn	4, 0x010807ab
    80004e90:	046306ab          	.insn	4, 0x046306ab
    80004e94:	09ce042b          	.insn	4, 0x09ce042b
    80004e98:	a2209753          	flt.d	a4,ft1,ft2
    80004e9c:	0dde84ab          	.insn	4, 0x0dde84ab
    80004ea0:	1cb585ab          	.insn	4, 0x1cb585ab
    80004ea4:	c329                	beqz	a4,80004ee6 <bilateral_core+0x2cec>
    80004ea6:	f20781d3          	fmv.d.x	ft3,a5
    80004eaa:	0201f1d3          	fadd.d	ft3,ft3,ft0
    80004eae:	f2068253          	fmv.d.x	ft4,a3
    80004eb2:	0241f1d3          	fadd.d	ft3,ft3,ft4
    80004eb6:	f2040253          	fmv.d.x	ft4,s0
    80004eba:	0241f1d3          	fadd.d	ft3,ft3,ft4
    80004ebe:	f2048253          	fmv.d.x	ft4,s1
    80004ec2:	0241f1d3          	fadd.d	ft3,ft3,ft4
    80004ec6:	f2088253          	fmv.d.x	ft4,a7
    80004eca:	0241f1d3          	fadd.d	ft3,ft3,ft4
    80004ece:	f2028253          	fmv.d.x	ft4,t0
    80004ed2:	0241f1d3          	fadd.d	ft3,ft3,ft4
    80004ed6:	f2058253          	fmv.d.x	ft4,a1
    80004eda:	0241f1d3          	fadd.d	ft3,ft3,ft4
    80004ede:	1a21f153          	fdiv.d	ft2,ft3,ft2
    80004ee2:	e2010ad3          	fmv.x.d	s5,ft2
    80004ee6:	4e81                	li	t4,0
    80004ee8:	4281                	li	t0,0
    80004eea:	4801                	li	a6,0
    80004eec:	4701                	li	a4,0
    80004eee:	4881                	li	a7,0
    80004ef0:	4301                	li	t1,0
    80004ef2:	4c81                	li	s9,0
    80004ef4:	28813583          	ld	a1,648(sp)
    80004ef8:	6692                	ld	a3,256(sp)
    80004efa:	95b6                	add	a1,a1,a3
    80004efc:	0155b023          	sd	s5,0(a1)
    80004f00:	0003b903          	ld	s2,0(t2)
    80004f04:	4381                	li	t2,0
    80004f06:	24013783          	ld	a5,576(sp)
    80004f0a:	26813583          	ld	a1,616(sp)
    80004f0e:	23013483          	ld	s1,560(sp)
    80004f12:	e9b9                	bnez	a1,80004f68 <bilateral_core+0x2d6e>
    80004f14:	65ba                	ld	a1,392(sp)
    80004f16:	95a6                	add	a1,a1,s1
    80004f18:	76fa                	ld	a3,440(sp)
    80004f1a:	8df5                	and	a1,a1,a3
    80004f1c:	058e                	slli	a1,a1,0x3
    80004f1e:	95aa                	add	a1,a1,a0
    80004f20:	6198                	ld	a4,0(a1)
    80004f22:	00063803          	ld	a6,0(a2)
    80004f26:	65da                	ld	a1,400(sp)
    80004f28:	95a6                	add	a1,a1,s1
    80004f2a:	0fd08693          	addi	a3,ra,253
    80004f2e:	8df5                	and	a1,a1,a3
    80004f30:	058e                	slli	a1,a1,0x3
    80004f32:	95aa                	add	a1,a1,a0
    80004f34:	0005b883          	ld	a7,0(a1)
    80004f38:	00863303          	ld	t1,8(a2)
    80004f3c:	21813583          	ld	a1,536(sp)
    80004f40:	22813683          	ld	a3,552(sp)
    80004f44:	95b6                	add	a1,a1,a3
    80004f46:	058e                	slli	a1,a1,0x3
    80004f48:	95aa                	add	a1,a1,a0
    80004f4a:	0005b283          	ld	t0,0(a1)
    80004f4e:	01063e83          	ld	t4,16(a2)
    80004f52:	01b485b3          	add	a1,s1,s11
    80004f56:	0ff08693          	addi	a3,ra,255
    80004f5a:	8df5                	and	a1,a1,a3
    80004f5c:	058e                	slli	a1,a1,0x3
    80004f5e:	95aa                	add	a1,a1,a0
    80004f60:	0005bc83          	ld	s9,0(a1)
    80004f64:	01863383          	ld	t2,24(a2)
    80004f68:	f0ba                	sd	a4,96(sp)
    80004f6a:	4e01                	li	t3,0
    80004f6c:	0f0fbc13          	sltiu	s8,t6,240
    80004f70:	75b6                	ld	a1,360(sp)
    80004f72:	0185f5b3          	and	a1,a1,s8
    80004f76:	4a81                	li	s5,0
    80004f78:	25013703          	ld	a4,592(sp)
    80004f7c:	cd89                	beqz	a1,80004f96 <bilateral_core+0x2d9c>
    80004f7e:	009f85b3          	add	a1,t6,s1
    80004f82:	05c1                	addi	a1,a1,16
    80004f84:	21013683          	ld	a3,528(sp)
    80004f88:	8df5                	and	a1,a1,a3
    80004f8a:	058e                	slli	a1,a1,0x3
    80004f8c:	95aa                	add	a1,a1,a0
    80004f8e:	0005be03          	ld	t3,0(a1)
    80004f92:	02063a83          	ld	s5,32(a2)
    80004f96:	f282                	sd	zero,352(sp)
    80004f98:	fe82                	sd	zero,376(sp)
    80004f9a:	4f01                	li	t5,0
    80004f9c:	4481                	li	s1,0
    80004f9e:	4581                	li	a1,0
    80004fa0:	4681                	li	a3,0
    80004fa2:	ef0d                	bnez	a4,80004fdc <bilateral_core+0x2de2>
    80004fa4:	65ba                	ld	a1,392(sp)
    80004fa6:	95be                	add	a1,a1,a5
    80004fa8:	76fa                	ld	a3,440(sp)
    80004faa:	8df5                	and	a1,a1,a3
    80004fac:	058e                	slli	a1,a1,0x3
    80004fae:	95aa                	add	a1,a1,a0
    80004fb0:	0005bf03          	ld	t5,0(a1)
    80004fb4:	7604                	ld	s1,40(a2)
    80004fb6:	65da                	ld	a1,400(sp)
    80004fb8:	95be                	add	a1,a1,a5
    80004fba:	0fd08693          	addi	a3,ra,253
    80004fbe:	8df5                	and	a1,a1,a3
    80004fc0:	058e                	slli	a1,a1,0x3
    80004fc2:	95aa                	add	a1,a1,a0
    80004fc4:	618c                	ld	a1,0(a1)
    80004fc6:	feae                	sd	a1,376(sp)
    80004fc8:	7a0c                	ld	a1,48(a2)
    80004fca:	f2ae                	sd	a1,352(sp)
    80004fcc:	75ba                	ld	a1,424(sp)
    80004fce:	22813683          	ld	a3,552(sp)
    80004fd2:	95b6                	add	a1,a1,a3
    80004fd4:	058e                	slli	a1,a1,0x3
    80004fd6:	95aa                	add	a1,a1,a0
    80004fd8:	618c                	ld	a1,0(a1)
    80004fda:	7e14                	ld	a3,56(a2)
    80004fdc:	f1b6                	sd	a3,224(sp)
    80004fde:	f5ae                	sd	a1,232(sp)
    80004fe0:	f9a6                	sd	s1,240(sp)
    80004fe2:	e682                	sd	zero,328(sp)
    80004fe4:	e702                	sd	zero,392(sp)
    80004fe6:	4581                	li	a1,0
    80004fe8:	4681                	li	a3,0
    80004fea:	ef0d                	bnez	a4,80005024 <bilateral_core+0x2e2a>
    80004fec:	01b785b3          	add	a1,a5,s11
    80004ff0:	0ff08693          	addi	a3,ra,255
    80004ff4:	8df5                	and	a1,a1,a3
    80004ff6:	058e                	slli	a1,a1,0x3
    80004ff8:	95aa                	add	a1,a1,a0
    80004ffa:	6194                	ld	a3,0(a1)
    80004ffc:	6238                	ld	a4,64(a2)
    80004ffe:	0ef00593          	li	a1,239
    80005002:	e736                	sd	a3,392(sp)
    80005004:	e6ba                	sd	a4,328(sp)
    80005006:	01f5ed63          	bltu	a1,t6,80005020 <bilateral_core+0x2e26>
    8000500a:	00ff85b3          	add	a1,t6,a5
    8000500e:	05c1                	addi	a1,a1,16
    80005010:	21013683          	ld	a3,528(sp)
    80005014:	8df5                	and	a1,a1,a3
    80005016:	058e                	slli	a1,a1,0x3
    80005018:	95aa                	add	a1,a1,a0
    8000501a:	618c                	ld	a1,0(a1)
    8000501c:	6634                	ld	a3,72(a2)
    8000501e:	a019                	j	80005024 <bilateral_core+0x2e2a>
    80005020:	4581                	li	a1,0
    80005022:	4681                	li	a3,0
    80005024:	e5b6                	sd	a3,200(sp)
    80005026:	edae                	sd	a1,216(sp)
    80005028:	65ce                	ld	a1,208(sp)
    8000502a:	6184                	ld	s1,0(a1)
    8000502c:	6a2c                	ld	a1,80(a2)
    8000502e:	f92e                	sd	a1,176(sp)
    80005030:	0fd08593          	addi	a1,ra,253
    80005034:	fb2e                	sd	a1,432(sp)
    80005036:	7692                	ld	a3,288(sp)
    80005038:	8df5                	and	a1,a1,a3
    8000503a:	058e                	slli	a1,a1,0x3
    8000503c:	00b50733          	add	a4,a0,a1
    80005040:	630c                	ld	a1,0(a4)
    80005042:	f52e                	sd	a1,168(sp)
    80005044:	05863083          	ld	ra,88(a2)
    80005048:	06063983          	ld	s3,96(a2)
    8000504c:	000bb783          	ld	a5,0(s7)
    80005050:	7620                	ld	s0,104(a2)
    80005052:	0ef00693          	li	a3,239
    80005056:	fdde                	sd	s7,248(sp)
    80005058:	e9be                	sd	a5,208(sp)
    8000505a:	01f6e863          	bltu	a3,t6,8000506a <bilateral_core+0x2e70>
    8000505e:	76c6                	ld	a3,112(sp)
    80005060:	62d4                	ld	a3,128(a3)
    80005062:	ecb6                	sd	a3,88(sp)
    80005064:	7a2c                	ld	a1,112(a2)
    80005066:	e8ae                	sd	a1,80(sp)
    80005068:	a019                	j	8000506e <bilateral_core+0x2e74>
    8000506a:	ec82                	sd	zero,88(sp)
    8000506c:	e882                	sd	zero,80(sp)
    8000506e:	65d6                	ld	a1,336(sp)
    80005070:	66fa                	ld	a3,408(sp)
    80005072:	6294                	ld	a3,0(a3)
    80005074:	e136                	sd	a3,128(sp)
    80005076:	07863b83          	ld	s7,120(a2)
    8000507a:	769a                	ld	a3,416(sp)
    8000507c:	629c                	ld	a5,0(a3)
    8000507e:	6254                	ld	a3,128(a2)
    80005080:	f136                	sd	a3,160(sp)
    80005082:	618c                	ld	a1,0(a1)
    80005084:	6654                	ld	a3,136(a2)
    80005086:	e936                	sd	a3,144(sp)
    80005088:	000d3683          	ld	a3,0(s10)
    8000508c:	e536                	sd	a3,136(sp)
    8000508e:	6a54                	ld	a3,144(a2)
    80005090:	fcb6                	sd	a3,120(sp)
    80005092:	0ef00693          	li	a3,239
    80005096:	e66a                	sd	s10,264(sp)
    80005098:	e262                	sd	s8,256(sp)
    8000509a:	f23a                	sd	a4,288(sp)
    8000509c:	e1ce                	sd	s3,192(sp)
    8000509e:	fd22                	sd	s0,184(sp)
    800050a0:	ef3e                	sd	a5,408(sp)
    800050a2:	ed2e                	sd	a1,152(sp)
    800050a4:	01f6e863          	bltu	a3,t6,800050b4 <bilateral_core+0x2eba>
    800050a8:	76d6                	ld	a3,368(sp)
    800050aa:	62cc                	ld	a1,128(a3)
    800050ac:	e0ae                	sd	a1,64(sp)
    800050ae:	6e4c                	ld	a1,152(a2)
    800050b0:	e4ae                	sd	a1,72(sp)
    800050b2:	a019                	j	800050b8 <bilateral_core+0x2ebe>
    800050b4:	e082                	sd	zero,64(sp)
    800050b6:	e482                	sd	zero,72(sp)
    800050b8:	8586                	mv	a1,ra
    800050ba:	87de                	mv	a5,s7
    800050bc:	66f6                	ld	a3,344(sp)
    800050be:	0006bc03          	ld	s8,0(a3)
    800050c2:	0a063983          	ld	s3,160(a2)
    800050c6:	000a3083          	ld	ra,0(s4)
    800050ca:	0a863a03          	ld	s4,168(a2)
    800050ce:	000b3b83          	ld	s7,0(s6)
    800050d2:	0b063f83          	ld	t6,176(a2)
    800050d6:	24813683          	ld	a3,584(sp)
    800050da:	eeee                	sd	s11,344(sp)
    800050dc:	96ee                	add	a3,a3,s11
    800050de:	068e                	slli	a3,a3,0x3
    800050e0:	96aa                	add	a3,a3,a0
    800050e2:	f4b6                	sd	a3,104(sp)
    800050e4:	0006bd03          	ld	s10,0(a3)
    800050e8:	0b863d83          	ld	s11,184(a2)
    800050ec:	0ef00693          	li	a3,239
    800050f0:	27813703          	ld	a4,632(sp)
    800050f4:	ea5a                	sd	s6,272(sp)
    800050f6:	00e6ee63          	bltu	a3,a4,80005112 <bilateral_core+0x2f18>
    800050fa:	8776                	mv	a4,t4
    800050fc:	27013683          	ld	a3,624(sp)
    80005100:	21068413          	addi	s0,a3,528
    80005104:	040e                	slli	s0,s0,0x3
    80005106:	942a                	add	s0,s0,a0
    80005108:	00043e83          	ld	t4,0(s0)
    8000510c:	0c063b03          	ld	s6,192(a2)
    80005110:	a021                	j	80005118 <bilateral_core+0x2f1e>
    80005112:	8776                	mv	a4,t4
    80005114:	4e81                	li	t4,0
    80005116:	4b01                	li	s6,0
    80005118:	7686                	ld	a3,96(sp)
    8000511a:	8077040b          	.insn	4, 0x8077040b
    8000511e:	6068040b          	.insn	4, 0x6068040b
    80005122:	4192840b          	.insn	4, 0x4192840b
    80005126:	2116840b          	.insn	4, 0x2116840b
    8000512a:	7696                	ld	a3,352(sp)
    8000512c:	770e                	ld	a4,224(sp)
    8000512e:	84e6840b          	.insn	4, 0x84e6840b
    80005132:	76ce                	ld	a3,240(sp)
    80005134:	64da840b          	.insn	4, 0x64da840b
    80005138:	76f6                	ld	a3,376(sp)
    8000513a:	772e                	ld	a4,232(sp)
    8000513c:	44e6840b          	.insn	4, 0x44e6840b
    80005140:	29013703          	ld	a4,656(sp)
    80005144:	00e912fb          	.insn	4, 0x00e912fb
    80005148:	25ee0f0b          	.insn	4, 0x25ee0f0b
    8000514c:	76ca                	ld	a3,176(sp)
    8000514e:	88b6858b          	.insn	4, 0x88b6858b
    80005152:	65b6                	ld	a1,328(sp)
    80005154:	66ae                	ld	a3,200(sp)
    80005156:	68d5858b          	.insn	4, 0x68d5858b
    8000515a:	f2028153          	fmv.d.x	ft2,t0
    8000515e:	75aa                	ld	a1,168(sp)
    80005160:	48b4858b          	.insn	4, 0x48b4858b
    80005164:	02017153          	fadd.d	ft2,ft2,ft0
    80005168:	40e915fb          	.insn	4, 0x40e915fb
    8000516c:	66ba                	ld	a3,392(sp)
    8000516e:	64ee                	ld	s1,216(sp)
    80005170:	2896848b          	.insn	4, 0x2896848b
    80005174:	66c6                	ld	a3,80(sp)
    80005176:	8cf6878b          	.insn	4, 0x8cf6878b
    8000517a:	668e                	ld	a3,192(sp)
    8000517c:	77ea                	ld	a5,184(sp)
    8000517e:	6cf6878b          	.insn	4, 0x6cf6878b
    80005182:	f20581d3          	fmv.d.x	ft3,a1
    80005186:	80e917fb          	.insn	4, 0x80e917fb
    8000518a:	02317153          	fadd.d	ft2,ft2,ft3
    8000518e:	66e6                	ld	a3,88(sp)
    80005190:	648a                	ld	s1,128(sp)
    80005192:	4c96848b          	.insn	4, 0x4c96848b
    80005196:	76e6                	ld	a3,120(sp)
    80005198:	64a6                	ld	s1,72(sp)
    8000519a:	9c96848b          	.insn	4, 0x9c96848b
    8000519e:	f20781d3          	fmv.d.x	ft3,a5
    800051a2:	66ce                	ld	a3,208(sp)
    800051a4:	2cd9048b          	.insn	4, 0x2cd9048b
    800051a8:	c0e914fb          	.insn	4, 0xc0e914fb
    800051ac:	02317153          	fadd.d	ft2,ft2,ft3
    800051b0:	768a                	ld	a3,160(sp)
    800051b2:	644a                	ld	s0,144(sp)
    800051b4:	7c86868b          	.insn	4, 0x7c86868b
    800051b8:	66aa                	ld	a3,136(sp)
    800051ba:	6406                	ld	s0,64(sp)
    800051bc:	5c86868b          	.insn	4, 0x5c86868b
    800051c0:	66fa                	ld	a3,408(sp)
    800051c2:	646a                	ld	s0,152(sp)
    800051c4:	3c86868b          	.insn	4, 0x3c86868b
    800051c8:	f20481d3          	fmv.d.x	ft3,s1
    800051cc:	c0e916fb          	.insn	4, 0xc0e916fb
    800051d0:	02317153          	fadd.d	ft2,ft2,ft3
    800051d4:	7d49870b          	.insn	4, 0x7d49870b
    800051d8:	5dab870b          	.insn	4, 0x5dab870b
    800051dc:	f20681d3          	fmv.d.x	ft3,a3
    800051e0:	9dbf885b          	.insn	4, 0x9dbf885b
    800051e4:	c41c16fb          	.insn	4, 0xc41c16fb
    800051e8:	02317153          	fadd.d	ft2,ft2,ft3
    800051ec:	f20681d3          	fmv.d.x	ft3,a3
    800051f0:	7c0b08db          	.insn	4, 0x7c0b08db
    800051f4:	c40e977b          	.insn	4, 0xc40e977b
    800051f8:	02317153          	fadd.d	ft2,ft2,ft3
    800051fc:	f20701d3          	fmv.d.x	ft3,a4
    80005200:	02317153          	fadd.d	ft2,ft2,ft3
    80005204:	005286ab          	.insn	4, 0x005286ab
    80005208:	04b585ab          	.insn	4, 0x04b585ab
    8000520c:	08f7842b          	.insn	4, 0x08f7842b
    80005210:	a22097d3          	flt.d	a5,ft1,ft2
    80005214:	0c9484ab          	.insn	4, 0x0c9484ab
    80005218:	1ce7072b          	.insn	4, 0x1ce7072b
    8000521c:	c3a9                	beqz	a5,8000525e <bilateral_core+0x3064>
    8000521e:	f20681d3          	fmv.d.x	ft3,a3
    80005222:	0201f1d3          	fadd.d	ft3,ft3,ft0
    80005226:	f2058253          	fmv.d.x	ft4,a1
    8000522a:	0241f1d3          	fadd.d	ft3,ft3,ft4
    8000522e:	f2040253          	fmv.d.x	ft4,s0
    80005232:	0241f1d3          	fadd.d	ft3,ft3,ft4
    80005236:	f2048253          	fmv.d.x	ft4,s1
    8000523a:	0241f1d3          	fadd.d	ft3,ft3,ft4
    8000523e:	f2080253          	fmv.d.x	ft4,a6
    80005242:	0241f1d3          	fadd.d	ft3,ft3,ft4
    80005246:	f2088253          	fmv.d.x	ft4,a7
    8000524a:	0241f1d3          	fadd.d	ft3,ft3,ft4
    8000524e:	f2070253          	fmv.d.x	ft4,a4
    80005252:	0241f1d3          	fadd.d	ft3,ft3,ft4
    80005256:	1a21f153          	fdiv.d	ft2,ft3,ft2
    8000525a:	e2010953          	fmv.x.d	s2,ft2
    8000525e:	4081                	li	ra,0
    80005260:	4f81                	li	t6,0
    80005262:	4e01                	li	t3,0
    80005264:	4981                	li	s3,0
    80005266:	4a81                	li	s5,0
    80005268:	4a01                	li	s4,0
    8000526a:	4b01                	li	s6,0
    8000526c:	28813583          	ld	a1,648(sp)
    80005270:	66f2                	ld	a3,280(sp)
    80005272:	95b6                	add	a1,a1,a3
    80005274:	0125b023          	sd	s2,0(a1)
    80005278:	75ee                	ld	a1,248(sp)
    8000527a:	0005bc03          	ld	s8,0(a1)
    8000527e:	4681                	li	a3,0
    80005280:	25813803          	ld	a6,600(sp)
    80005284:	25013783          	ld	a5,592(sp)
    80005288:	24013883          	ld	a7,576(sp)
    8000528c:	649a                	ld	s1,384(sp)
    8000528e:	27813e83          	ld	t4,632(sp)
    80005292:	26813583          	ld	a1,616(sp)
    80005296:	23013703          	ld	a4,560(sp)
    8000529a:	62b2                	ld	t0,264(sp)
    8000529c:	63f6                	ld	t2,344(sp)
    8000529e:	e1b5                	bnez	a1,80005302 <bilateral_core+0x3108>
    800052a0:	65da                	ld	a1,400(sp)
    800052a2:	95ba                	add	a1,a1,a4
    800052a4:	76da                	ld	a3,432(sp)
    800052a6:	8df5                	and	a1,a1,a3
    800052a8:	058e                	slli	a1,a1,0x3
    800052aa:	95aa                	add	a1,a1,a0
    800052ac:	0005b983          	ld	s3,0(a1)
    800052b0:	00063e03          	ld	t3,0(a2)
    800052b4:	22813583          	ld	a1,552(sp)
    800052b8:	95ba                	add	a1,a1,a4
    800052ba:	0fe80693          	addi	a3,a6,254
    800052be:	8df5                	and	a1,a1,a3
    800052c0:	058e                	slli	a1,a1,0x3
    800052c2:	95aa                	add	a1,a1,a0
    800052c4:	0005ba83          	ld	s5,0(a1)
    800052c8:	00863a03          	ld	s4,8(a2)
    800052cc:	21813583          	ld	a1,536(sp)
    800052d0:	959e                	add	a1,a1,t2
    800052d2:	058e                	slli	a1,a1,0x3
    800052d4:	95aa                	add	a1,a1,a0
    800052d6:	0005bf83          	ld	t6,0(a1)
    800052da:	01063083          	ld	ra,16(a2)
    800052de:	0ef00593          	li	a1,239
    800052e2:	01d5ee63          	bltu	a1,t4,800052fe <bilateral_core+0x3104>
    800052e6:	00ee85b3          	add	a1,t4,a4
    800052ea:	05c1                	addi	a1,a1,16
    800052ec:	21013683          	ld	a3,528(sp)
    800052f0:	8df5                	and	a1,a1,a3
    800052f2:	058e                	slli	a1,a1,0x3
    800052f4:	95aa                	add	a1,a1,a0
    800052f6:	0005bb03          	ld	s6,0(a1)
    800052fa:	6e14                	ld	a3,24(a2)
    800052fc:	a019                	j	80005302 <bilateral_core+0x3108>
    800052fe:	4b01                	li	s6,0
    80005300:	4681                	li	a3,0
    80005302:	edb6                	sd	a3,216(sp)
    80005304:	4901                	li	s2,0
    80005306:	0efeb593          	sltiu	a1,t4,239
    8000530a:	76b6                	ld	a3,360(sp)
    8000530c:	8eed                	and	a3,a3,a1
    8000530e:	4b81                	li	s7,0
    80005310:	ce89                	beqz	a3,8000532a <bilateral_core+0x3130>
    80005312:	00ee86b3          	add	a3,t4,a4
    80005316:	06c5                	addi	a3,a3,17
    80005318:	22013703          	ld	a4,544(sp)
    8000531c:	8ef9                	and	a3,a3,a4
    8000531e:	068e                	slli	a3,a3,0x3
    80005320:	96aa                	add	a3,a3,a0
    80005322:	0006b903          	ld	s2,0(a3)
    80005326:	02063b83          	ld	s7,32(a2)
    8000532a:	4401                	li	s0,0
    8000532c:	4d81                	li	s11,0
    8000532e:	4c81                	li	s9,0
    80005330:	4d01                	li	s10,0
    80005332:	4681                	li	a3,0
    80005334:	ef02                	sd	zero,408(sp)
    80005336:	ef8d                	bnez	a5,80005370 <bilateral_core+0x3176>
    80005338:	66da                	ld	a3,400(sp)
    8000533a:	96c6                	add	a3,a3,a7
    8000533c:	775a                	ld	a4,432(sp)
    8000533e:	8ef9                	and	a3,a3,a4
    80005340:	068e                	slli	a3,a3,0x3
    80005342:	96aa                	add	a3,a3,a0
    80005344:	0006bc83          	ld	s9,0(a3)
    80005348:	02863d03          	ld	s10,40(a2)
    8000534c:	22813683          	ld	a3,552(sp)
    80005350:	96c6                	add	a3,a3,a7
    80005352:	0fe80713          	addi	a4,a6,254
    80005356:	8ef9                	and	a3,a3,a4
    80005358:	068e                	slli	a3,a3,0x3
    8000535a:	96aa                	add	a3,a3,a0
    8000535c:	0006bd83          	ld	s11,0(a3)
    80005360:	7a00                	ld	s0,48(a2)
    80005362:	76ba                	ld	a3,424(sp)
    80005364:	969e                	add	a3,a3,t2
    80005366:	068e                	slli	a3,a3,0x3
    80005368:	96aa                	add	a3,a3,a0
    8000536a:	6294                	ld	a3,0(a3)
    8000536c:	7e18                	ld	a4,56(a2)
    8000536e:	ef3a                	sd	a4,408(sp)
    80005370:	fdb6                	sd	a3,248(sp)
    80005372:	4381                	li	t2,0
    80005374:	6692                	ld	a3,256(sp)
    80005376:	8ee5                	and	a3,a3,s1
    80005378:	4781                	li	a5,0
    8000537a:	ce81                	beqz	a3,80005392 <bilateral_core+0x3198>
    8000537c:	011e86b3          	add	a3,t4,a7
    80005380:	06c1                	addi	a3,a3,16
    80005382:	21013703          	ld	a4,528(sp)
    80005386:	8ef9                	and	a3,a3,a4
    80005388:	068e                	slli	a3,a3,0x3
    8000538a:	96aa                	add	a3,a3,a0
    8000538c:	0006b383          	ld	t2,0(a3)
    80005390:	623c                	ld	a5,64(a2)
    80005392:	4f01                	li	t5,0
    80005394:	8de5                	and	a1,a1,s1
    80005396:	4301                	li	t1,0
    80005398:	cd89                	beqz	a1,800053b2 <bilateral_core+0x31b8>
    8000539a:	011e85b3          	add	a1,t4,a7
    8000539e:	05c5                	addi	a1,a1,17
    800053a0:	22013683          	ld	a3,544(sp)
    800053a4:	8df5                	and	a1,a1,a3
    800053a6:	058e                	slli	a1,a1,0x3
    800053a8:	95aa                	add	a1,a1,a0
    800053aa:	0005bf03          	ld	t5,0(a1)
    800053ae:	04863303          	ld	t1,72(a2)
    800053b2:	7592                	ld	a1,288(sp)
    800053b4:	0005b883          	ld	a7,0(a1)
    800053b8:	6a38                	ld	a4,80(a2)
    800053ba:	0fe80593          	addi	a1,a6,254
    800053be:	22b13423          	sd	a1,552(sp)
    800053c2:	76d2                	ld	a3,304(sp)
    800053c4:	8df5                	and	a1,a1,a3
    800053c6:	058e                	slli	a1,a1,0x3
    800053c8:	95aa                	add	a1,a1,a0
    800053ca:	0005b803          	ld	a6,0(a1)
    800053ce:	6e2c                	ld	a1,88(a2)
    800053d0:	eeae                	sd	a1,344(sp)
    800053d2:	7234                	ld	a3,96(a2)
    800053d4:	0ef00593          	li	a1,239
    800053d8:	e756                	sd	s5,392(sp)
    800053da:	fece                	sd	s3,376(sp)
    800053dc:	f2da                	sd	s6,352(sp)
    800053de:	eb36                	sd	a3,400(sp)
    800053e0:	f6ba                	sd	a4,360(sp)
    800053e2:	e5a2                	sd	s0,200(sp)
    800053e4:	01d5ec63          	bltu	a1,t4,800053fc <bilateral_core+0x3202>
    800053e8:	762c                	ld	a1,104(a2)
    800053ea:	f5ae                	sd	a1,232(sp)
    800053ec:	75c6                	ld	a1,112(sp)
    800053ee:	61d4                	ld	a3,128(a1)
    800053f0:	f9b6                	sd	a3,240(sp)
    800053f2:	65cc                	ld	a1,136(a1)
    800053f4:	f1ae                	sd	a1,224(sp)
    800053f6:	7a2c                	ld	a1,112(a2)
    800053f8:	e9ae                	sd	a1,208(sp)
    800053fa:	a029                	j	80005404 <bilateral_core+0x320a>
    800053fc:	f582                	sd	zero,232(sp)
    800053fe:	f982                	sd	zero,240(sp)
    80005400:	f182                	sd	zero,224(sp)
    80005402:	e982                	sd	zero,208(sp)
    80005404:	7b26                	ld	s6,104(sp)
    80005406:	6756                	ld	a4,336(sp)
    80005408:	759a                	ld	a1,416(sp)
    8000540a:	6184                	ld	s1,0(a1)
    8000540c:	7e20                	ld	s0,120(a2)
    8000540e:	00073a83          	ld	s5,0(a4)
    80005412:	6254                	ld	a3,128(a2)
    80005414:	0002b283          	ld	t0,0(t0)
    80005418:	6658                	ld	a4,136(a2)
    8000541a:	0ef00593          	li	a1,239
    8000541e:	ee4a                	sd	s2,280(sp)
    80005420:	01d5e863          	bltu	a1,t4,80005430 <bilateral_core+0x3236>
    80005424:	75d6                	ld	a1,368(sp)
    80005426:	61cc                	ld	a1,128(a1)
    80005428:	e62e                	sd	a1,264(sp)
    8000542a:	6a4c                	ld	a1,144(a2)
    8000542c:	e1ae                	sd	a1,192(sp)
    8000542e:	a019                	j	80005434 <bilateral_core+0x323a>
    80005430:	e602                	sd	zero,264(sp)
    80005432:	e182                	sd	zero,192(sp)
    80005434:	0ee00593          	li	a1,238
    80005438:	f336                	sd	a3,416(sp)
    8000543a:	eaba                	sd	a4,336(sp)
    8000543c:	e6a6                	sd	s1,328(sp)
    8000543e:	fa22                	sd	s0,304(sp)
    80005440:	e246                	sd	a7,256(sp)
    80005442:	8886                	mv	a7,ra
    80005444:	01d5e863          	bltu	a1,t4,80005454 <bilateral_core+0x325a>
    80005448:	75d6                	ld	a1,368(sp)
    8000544a:	65cc                	ld	a1,136(a1)
    8000544c:	fd2e                	sd	a1,184(sp)
    8000544e:	6e4c                	ld	a1,152(a2)
    80005450:	f92e                	sd	a1,176(sp)
    80005452:	a019                	j	80005458 <bilateral_core+0x325e>
    80005454:	fd02                	sd	zero,184(sp)
    80005456:	f902                	sd	zero,176(sp)
    80005458:	75f2                	ld	a1,312(sp)
    8000545a:	6198                	ld	a4,0(a1)
    8000545c:	7240                	ld	s0,160(a2)
    8000545e:	65d2                	ld	a1,272(sp)
    80005460:	618c                	ld	a1,0(a1)
    80005462:	0a863903          	ld	s2,168(a2)
    80005466:	000b3483          	ld	s1,0(s6)
    8000546a:	0b063983          	ld	s3,176(a2)
    8000546e:	0ef00693          	li	a3,239
    80005472:	faba                	sd	a4,368(sp)
    80005474:	fe22                	sd	s0,312(sp)
    80005476:	f226                	sd	s1,288(sp)
    80005478:	846a                	mv	s0,s10
    8000547a:	01d6e863          	bltu	a3,t4,8000548a <bilateral_core+0x3290>
    8000547e:	6696                	ld	a3,320(sp)
    80005480:	62d4                	ld	a3,128(a3)
    80005482:	ea36                	sd	a3,272(sp)
    80005484:	7e54                	ld	a3,184(a2)
    80005486:	e2b6                	sd	a3,320(sp)
    80005488:	a019                	j	8000548e <bilateral_core+0x3294>
    8000548a:	ea02                	sd	zero,272(sp)
    8000548c:	e282                	sd	zero,320(sp)
    8000548e:	0ee00693          	li	a3,238
    80005492:	27813703          	ld	a4,632(sp)
    80005496:	00e6ef63          	bltu	a3,a4,800054b4 <bilateral_core+0x32ba>
    8000549a:	8d2e                	mv	s10,a1
    8000549c:	672e                	ld	a4,200(sp)
    8000549e:	27013683          	ld	a3,624(sp)
    800054a2:	21168693          	addi	a3,a3,529
    800054a6:	068e                	slli	a3,a3,0x3
    800054a8:	96aa                	add	a3,a3,a0
    800054aa:	0006bb03          	ld	s6,0(a3)
    800054ae:	0c063083          	ld	ra,192(a2)
    800054b2:	a029                	j	800054bc <bilateral_core+0x32c2>
    800054b4:	8d2e                	mv	s10,a1
    800054b6:	672e                	ld	a4,200(sp)
    800054b8:	4b01                	li	s6,0
    800054ba:	4081                	li	ra,0
    800054bc:	6eee                	ld	t4,216(sp)
    800054be:	76ee                	ld	a3,248(sp)
    800054c0:	81d8848b          	.insn	4, 0x81d8848b
    800054c4:	614e048b          	.insn	4, 0x614e048b
    800054c8:	7596                	ld	a1,352(sp)
    800054ca:	40bf848b          	.insn	4, 0x40bf848b
    800054ce:	64ba                	ld	s1,392(sp)
    800054d0:	75f6                	ld	a1,376(sp)
    800054d2:	2095848b          	.insn	4, 0x2095848b
    800054d6:	64fa                	ld	s1,408(sp)
    800054d8:	8497048b          	.insn	4, 0x8497048b
    800054dc:	648b848b          	.insn	4, 0x648b848b
    800054e0:	44dd848b          	.insn	4, 0x44dd848b
    800054e4:	29013e83          	ld	t4,656(sp)
    800054e8:	01dc1e7b          	.insn	4, 0x01dc1e7b
    800054ec:	65f2                	ld	a1,280(sp)
    800054ee:	2595870b          	.insn	4, 0x2595870b
    800054f2:	75b6                	ld	a1,360(sp)
    800054f4:	66f6                	ld	a3,344(sp)
    800054f6:	88d5870b          	.insn	4, 0x88d5870b
    800054fa:	6867870b          	.insn	4, 0x6867870b
    800054fe:	f20e0153          	fmv.d.x	ft2,t3
    80005502:	6592                	ld	a1,256(sp)
    80005504:	4905870b          	.insn	4, 0x4905870b
    80005508:	02017153          	fadd.d	ft2,ft2,ft0
    8000550c:	41dc17fb          	.insn	4, 0x41dc17fb
    80005510:	29e3870b          	.insn	4, 0x29e3870b
    80005514:	65ce                	ld	a1,208(sp)
    80005516:	76d2                	ld	a3,304(sp)
    80005518:	8cd5870b          	.insn	4, 0x8cd5870b
    8000551c:	65da                	ld	a1,400(sp)
    8000551e:	76ae                	ld	a3,232(sp)
    80005520:	6cd5870b          	.insn	4, 0x6cd5870b
    80005524:	f20781d3          	fmv.d.x	ft3,a5
    80005528:	81dc147b          	.insn	4, 0x81dc147b
    8000552c:	02317153          	fadd.d	ft2,ft2,ft3
    80005530:	758e                	ld	a1,224(sp)
    80005532:	66b6                	ld	a3,328(sp)
    80005534:	4cd5870b          	.insn	4, 0x4cd5870b
    80005538:	658e                	ld	a1,192(sp)
    8000553a:	76ca                	ld	a3,176(sp)
    8000553c:	9cd5870b          	.insn	4, 0x9cd5870b
    80005540:	f20401d3          	fmv.d.x	ft3,s0
    80005544:	75ce                	ld	a1,240(sp)
    80005546:	2cbc070b          	.insn	4, 0x2cbc070b
    8000554a:	c1dc16fb          	.insn	4, 0xc1dc16fb
    8000554e:	02317153          	fadd.d	ft2,ft2,ft3
    80005552:	759a                	ld	a1,416(sp)
    80005554:	6756                	ld	a4,336(sp)
    80005556:	7ce5870b          	.insn	4, 0x7ce5870b
    8000555a:	65b2                	ld	a1,264(sp)
    8000555c:	776a                	ld	a4,184(sp)
    8000555e:	5ce5870b          	.insn	4, 0x5ce5870b
    80005562:	3c5a870b          	.insn	4, 0x3c5a870b
    80005566:	f20681d3          	fmv.d.x	ft3,a3
    8000556a:	c1dc177b          	.insn	4, 0xc1dc177b
    8000556e:	02317153          	fadd.d	ft2,ft2,ft3
    80005572:	75f2                	ld	a1,312(sp)
    80005574:	7d25858b          	.insn	4, 0x7d25858b
    80005578:	7592                	ld	a1,288(sp)
    8000557a:	64d2                	ld	s1,272(sp)
    8000557c:	5c95858b          	.insn	4, 0x5c95858b
    80005580:	f20701d3          	fmv.d.x	ft3,a4
    80005584:	6596                	ld	a1,320(sp)
    80005586:	9cb988db          	.insn	4, 0x9cb988db
    8000558a:	75d6                	ld	a1,368(sp)
    8000558c:	c5a595fb          	.insn	4, 0xc5a595fb
    80005590:	02317153          	fadd.d	ft2,ft2,ft3
    80005594:	f20581d3          	fmv.d.x	ft3,a1
    80005598:	7c00885b          	.insn	4, 0x7c00885b
    8000559c:	c40b177b          	.insn	4, 0xc40b177b
    800055a0:	02317153          	fadd.d	ft2,ft2,ft3
    800055a4:	f20701d3          	fmv.d.x	ft3,a4
    800055a8:	02317153          	fadd.d	ft2,ft2,ft3
    800055ac:	01ce04ab          	.insn	4, 0x01ce04ab
    800055b0:	04f785ab          	.insn	4, 0x04f785ab
    800055b4:	0884042b          	.insn	4, 0x0884042b
    800055b8:	a22097d3          	flt.d	a5,ft1,ft2
    800055bc:	0cd686ab          	.insn	4, 0x0cd686ab
    800055c0:	1ce7072b          	.insn	4, 0x1ce7072b
    800055c4:	e399                	bnez	a5,800055ca <bilateral_core+0x33d0>
    800055c6:	cf5fc06f          	j	800022ba <bilateral_core+0xc0>
    800055ca:	f20481d3          	fmv.d.x	ft3,s1
    800055ce:	0201f1d3          	fadd.d	ft3,ft3,ft0
    800055d2:	f2058253          	fmv.d.x	ft4,a1
    800055d6:	0241f1d3          	fadd.d	ft3,ft3,ft4
    800055da:	f2040253          	fmv.d.x	ft4,s0
    800055de:	0241f1d3          	fadd.d	ft3,ft3,ft4
    800055e2:	f2068253          	fmv.d.x	ft4,a3
    800055e6:	0241f1d3          	fadd.d	ft3,ft3,ft4
    800055ea:	f2088253          	fmv.d.x	ft4,a7
    800055ee:	0241f1d3          	fadd.d	ft3,ft3,ft4
    800055f2:	f2080253          	fmv.d.x	ft4,a6
    800055f6:	0241f1d3          	fadd.d	ft3,ft3,ft4
    800055fa:	f2070253          	fmv.d.x	ft4,a4
    800055fe:	0241f1d3          	fadd.d	ft3,ft3,ft4
    80005602:	1a21f153          	fdiv.d	ft2,ft3,ft2
    80005606:	e2010c53          	fmv.x.d	s8,ft2
    8000560a:	cb1fc06f          	j	800022ba <bilateral_core+0xc0>
    8000560e:	4401                	li	s0,0
    80005610:	28013683          	ld	a3,640(sp)
    80005614:	0016e593          	ori	a1,a3,1
    80005618:	00859493          	slli	s1,a1,0x8
    8000561c:	0116f733          	and	a4,a3,a7
    80005620:	10048593          	addi	a1,s1,256
    80005624:	20b13c23          	sd	a1,536(sp)
    80005628:	30036593          	ori	a1,t1,768
    8000562c:	26b13423          	sd	a1,616(sp)
    80005630:	26913823          	sd	s1,624(sp)
    80005634:	26e13c23          	sd	a4,632(sp)
    80005638:	a081                	j	80005678 <bilateral_core+0x347e>
    8000563a:	28813583          	ld	a1,648(sp)
    8000563e:	6696                	ld	a3,320(sp)
    80005640:	95b6                	add	a1,a1,a3
    80005642:	23813403          	ld	s0,568(sp)
    80005646:	0441                	addi	s0,s0,16
    80005648:	0195b023          	sd	s9,0(a1)
    8000564c:	28013983          	ld	s3,640(sp)
    80005650:	25813883          	ld	a7,600(sp)
    80005654:	10000593          	li	a1,256
    80005658:	27013483          	ld	s1,624(sp)
    8000565c:	27813703          	ld	a4,632(sp)
    80005660:	26813903          	ld	s2,616(sp)
    80005664:	26013303          	ld	t1,608(sp)
    80005668:	24013283          	ld	t0,576(sp)
    8000566c:	24813a03          	ld	s4,584(sp)
    80005670:	00b41463          	bne	s0,a1,80005678 <bilateral_core+0x347e>
    80005674:	17a0306f          	j	800087ee <bilateral_core+0x65f4>
    80005678:	4e81                	li	t4,0
    8000567a:	4e01                	li	t3,0
    8000567c:	009405b3          	add	a1,s0,s1
    80005680:	22b13823          	sd	a1,560(sp)
    80005684:	00359393          	slli	t2,a1,0x3
    80005688:	007505b3          	add	a1,a0,t2
    8000568c:	f8ae                	sd	a1,112(sp)
    8000568e:	0005bf83          	ld	t6,0(a1)
    80005692:	00803833          	snez	a6,s0
    80005696:	659a                	ld	a1,384(sp)
    80005698:	0105f6b3          	and	a3,a1,a6
    8000569c:	ffe40593          	addi	a1,s0,-2
    800056a0:	eb2e                	sd	a1,400(sp)
    800056a2:	ce81                	beqz	a3,800056ba <bilateral_core+0x34c0>
    800056a4:	65da                	ld	a1,400(sp)
    800056a6:	9596                	add	a1,a1,t0
    800056a8:	22813783          	ld	a5,552(sp)
    800056ac:	8dfd                	and	a1,a1,a5
    800056ae:	058e                	slli	a1,a1,0x3
    800056b0:	95aa                	add	a1,a1,a0
    800056b2:	0005be83          	ld	t4,0(a1)
    800056b6:	00063e03          	ld	t3,0(a2)
    800056ba:	4901                	li	s2,0
    800056bc:	4981                	li	s3,0
    800056be:	ce89                	beqz	a3,800056d8 <bilateral_core+0x34de>
    800056c0:	0ff88593          	addi	a1,a7,255
    800056c4:	00b406b3          	add	a3,s0,a1
    800056c8:	9696                	add	a3,a3,t0
    800056ca:	8df5                	and	a1,a1,a3
    800056cc:	058e                	slli	a1,a1,0x3
    800056ce:	95aa                	add	a1,a1,a0
    800056d0:	0005b903          	ld	s2,0(a1)
    800056d4:	00863983          	ld	s3,8(a2)
    800056d8:	4b01                	li	s6,0
    800056da:	4a81                	li	s5,0
    800056dc:	4b81                	li	s7,0
    800056de:	4c01                	li	s8,0
    800056e0:	25013783          	ld	a5,592(sp)
    800056e4:	e78d                	bnez	a5,8000570e <bilateral_core+0x3514>
    800056e6:	75ba                	ld	a1,424(sp)
    800056e8:	95a2                	add	a1,a1,s0
    800056ea:	058e                	slli	a1,a1,0x3
    800056ec:	95aa                	add	a1,a1,a0
    800056ee:	0005ba83          	ld	s5,0(a1)
    800056f2:	01063b03          	ld	s6,16(a2)
    800056f6:	00146593          	ori	a1,s0,1
    800056fa:	9596                	add	a1,a1,t0
    800056fc:	22013683          	ld	a3,544(sp)
    80005700:	8df5                	and	a1,a1,a3
    80005702:	058e                	slli	a1,a1,0x3
    80005704:	95aa                	add	a1,a1,a0
    80005706:	0005bb83          	ld	s7,0(a1)
    8000570a:	01863c03          	ld	s8,24(a2)
    8000570e:	4c81                	li	s9,0
    80005710:	4d01                	li	s10,0
    80005712:	ef89                	bnez	a5,8000572c <bilateral_core+0x3532>
    80005714:	00246593          	ori	a1,s0,2
    80005718:	9596                	add	a1,a1,t0
    8000571a:	20813683          	ld	a3,520(sp)
    8000571e:	8df5                	and	a1,a1,a3
    80005720:	058e                	slli	a1,a1,0x3
    80005722:	95aa                	add	a1,a1,a0
    80005724:	0005bc83          	ld	s9,0(a1)
    80005728:	02063d03          	ld	s10,32(a2)
    8000572c:	4281                	li	t0,0
    8000572e:	00173793          	seqz	a5,a4
    80005732:	0107f833          	and	a6,a5,a6
    80005736:	4d81                	li	s11,0
    80005738:	00080d63          	beqz	a6,80005752 <bilateral_core+0x3558>
    8000573c:	65da                	ld	a1,400(sp)
    8000573e:	959a                	add	a1,a1,t1
    80005740:	22813683          	ld	a3,552(sp)
    80005744:	8df5                	and	a1,a1,a3
    80005746:	058e                	slli	a1,a1,0x3
    80005748:	95aa                	add	a1,a1,a0
    8000574a:	0005b283          	ld	t0,0(a1)
    8000574e:	02863d83          	ld	s11,40(a2)
    80005752:	4081                	li	ra,0
    80005754:	f682                	sd	zero,360(sp)
    80005756:	00080e63          	beqz	a6,80005772 <bilateral_core+0x3578>
    8000575a:	0ff88593          	addi	a1,a7,255
    8000575e:	00b406b3          	add	a3,s0,a1
    80005762:	969a                	add	a3,a3,t1
    80005764:	8df5                	and	a1,a1,a3
    80005766:	058e                	slli	a1,a1,0x3
    80005768:	95aa                	add	a1,a1,a0
    8000576a:	0005b083          	ld	ra,0(a1)
    8000576e:	7a0c                	ld	a1,48(a2)
    80005770:	f6ae                	sd	a1,360(sp)
    80005772:	f282                	sd	zero,352(sp)
    80005774:	ea82                	sd	zero,336(sp)
    80005776:	eb09                	bnez	a4,80005788 <bilateral_core+0x358e>
    80005778:	008305b3          	add	a1,t1,s0
    8000577c:	058e                	slli	a1,a1,0x3
    8000577e:	95aa                	add	a1,a1,a0
    80005780:	618c                	ld	a1,0(a1)
    80005782:	f2ae                	sd	a1,352(sp)
    80005784:	7e0c                	ld	a1,56(a2)
    80005786:	eaae                	sd	a1,336(sp)
    80005788:	e282                	sd	zero,320(sp)
    8000578a:	e682                	sd	zero,328(sp)
    8000578c:	4581                	li	a1,0
    8000578e:	4681                	li	a3,0
    80005790:	e71d                	bnez	a4,800057be <bilateral_core+0x35c4>
    80005792:	00146593          	ori	a1,s0,1
    80005796:	959a                	add	a1,a1,t1
    80005798:	22013683          	ld	a3,544(sp)
    8000579c:	8df5                	and	a1,a1,a3
    8000579e:	058e                	slli	a1,a1,0x3
    800057a0:	95aa                	add	a1,a1,a0
    800057a2:	618c                	ld	a1,0(a1)
    800057a4:	e6ae                	sd	a1,328(sp)
    800057a6:	622c                	ld	a1,64(a2)
    800057a8:	e2ae                	sd	a1,320(sp)
    800057aa:	00246693          	ori	a3,s0,2
    800057ae:	969a                	add	a3,a3,t1
    800057b0:	20813583          	ld	a1,520(sp)
    800057b4:	8eed                	and	a3,a3,a1
    800057b6:	068e                	slli	a3,a3,0x3
    800057b8:	96aa                	add	a3,a3,a0
    800057ba:	628c                	ld	a1,0(a3)
    800057bc:	6634                	ld	a3,72(a2)
    800057be:	f33e                	sd	a5,416(sp)
    800057c0:	fa4e                	sd	s3,304(sp)
    800057c2:	fdde                	sd	s7,248(sp)
    800057c4:	f5ae                	sd	a1,232(sp)
    800057c6:	f1b6                	sd	a3,224(sp)
    800057c8:	8f76                	mv	t5,t4
    800057ca:	c815                	beqz	s0,800057fe <bilateral_core+0x3604>
    800057cc:	65da                	ld	a1,400(sp)
    800057ce:	00b486b3          	add	a3,s1,a1
    800057d2:	22813583          	ld	a1,552(sp)
    800057d6:	8eed                	and	a3,a3,a1
    800057d8:	068e                	slli	a3,a3,0x3
    800057da:	96aa                	add	a3,a3,a0
    800057dc:	628c                	ld	a1,0(a3)
    800057de:	fd2e                	sd	a1,184(sp)
    800057e0:	6a2c                	ld	a1,80(a2)
    800057e2:	f92e                	sd	a1,176(sp)
    800057e4:	0ff88693          	addi	a3,a7,255
    800057e8:	00d40733          	add	a4,s0,a3
    800057ec:	9726                	add	a4,a4,s1
    800057ee:	8ef9                	and	a3,a3,a4
    800057f0:	068e                	slli	a3,a3,0x3
    800057f2:	96aa                	add	a3,a3,a0
    800057f4:	628c                	ld	a1,0(a3)
    800057f6:	f52e                	sd	a1,168(sp)
    800057f8:	6e2c                	ld	a1,88(a2)
    800057fa:	e52e                	sd	a1,136(sp)
    800057fc:	a029                	j	80005806 <bilateral_core+0x360c>
    800057fe:	f902                	sd	zero,176(sp)
    80005800:	fd02                	sd	zero,184(sp)
    80005802:	f502                	sd	zero,168(sp)
    80005804:	e502                	sd	zero,136(sp)
    80005806:	06063983          	ld	s3,96(a2)
    8000580a:	00146593          	ori	a1,s0,1
    8000580e:	e72e                	sd	a1,392(sp)
    80005810:	00b487b3          	add	a5,s1,a1
    80005814:	00379713          	slli	a4,a5,0x3
    80005818:	00e508b3          	add	a7,a0,a4
    8000581c:	0008b303          	ld	t1,0(a7)
    80005820:	762c                	ld	a1,104(a2)
    80005822:	e9ae                	sd	a1,208(sp)
    80005824:	00246593          	ori	a1,s0,2
    80005828:	ef2e                	sd	a1,408(sp)
    8000582a:	95a6                	add	a1,a1,s1
    8000582c:	00359693          	slli	a3,a1,0x3
    80005830:	00d504b3          	add	s1,a0,a3
    80005834:	eea6                	sd	s1,344(sp)
    80005836:	6084                	ld	s1,0(s1)
    80005838:	07063e83          	ld	t4,112(a2)
    8000583c:	e1f6                	sd	t4,192(sp)
    8000583e:	22813c23          	sd	s0,568(sp)
    80005842:	fe2e                	sd	a1,312(sp)
    80005844:	ee36                	sd	a3,280(sp)
    80005846:	ed9a                	sd	t1,216(sp)
    80005848:	8bf2                	mv	s7,t3
    8000584a:	cc01                	beqz	s0,80005862 <bilateral_core+0x3668>
    8000584c:	21813583          	ld	a1,536(sp)
    80005850:	66da                	ld	a3,400(sp)
    80005852:	96ae                	add	a3,a3,a1
    80005854:	068e                	slli	a3,a3,0x3
    80005856:	96aa                	add	a3,a3,a0
    80005858:	628c                	ld	a1,0(a3)
    8000585a:	f12e                	sd	a1,160(sp)
    8000585c:	07863303          	ld	t1,120(a2)
    80005860:	a019                	j	80005866 <bilateral_core+0x366c>
    80005862:	f102                	sd	zero,160(sp)
    80005864:	4301                	li	t1,0
    80005866:	23813583          	ld	a1,568(sp)
    8000586a:	ea3e                	sd	a5,272(sp)
    8000586c:	e23a                	sd	a4,256(sp)
    8000586e:	f21e                	sd	t2,288(sp)
    80005870:	e642                	sd	a6,264(sp)
    80005872:	e5a6                	sd	s1,200(sp)
    80005874:	84fa                	mv	s1,t5
    80005876:	c999                	beqz	a1,8000588c <bilateral_core+0x3692>
    80005878:	014586b3          	add	a3,a1,s4
    8000587c:	068e                	slli	a3,a3,0x3
    8000587e:	96aa                	add	a3,a3,a0
    80005880:	ff86b683          	ld	a3,-8(a3)
    80005884:	ed36                	sd	a3,152(sp)
    80005886:	6254                	ld	a3,128(a2)
    80005888:	e936                	sd	a3,144(sp)
    8000588a:	a019                	j	80005890 <bilateral_core+0x3696>
    8000588c:	ed02                	sd	zero,152(sp)
    8000588e:	e902                	sd	zero,144(sp)
    80005890:	00ba06b3          	add	a3,s4,a1
    80005894:	068e                	slli	a3,a3,0x3
    80005896:	96aa                	add	a3,a3,a0
    80005898:	f636                	sd	a3,296(sp)
    8000589a:	0006b803          	ld	a6,0(a3)
    8000589e:	08863f03          	ld	t5,136(a2)
    800058a2:	66ba                	ld	a3,392(sp)
    800058a4:	96d2                	add	a3,a3,s4
    800058a6:	068e                	slli	a3,a3,0x3
    800058a8:	96aa                	add	a3,a3,a0
    800058aa:	feb6                	sd	a3,376(sp)
    800058ac:	6280                	ld	s0,0(a3)
    800058ae:	6a5c                	ld	a5,144(a2)
    800058b0:	66fa                	ld	a3,408(sp)
    800058b2:	96d2                	add	a3,a3,s4
    800058b4:	068e                	slli	a3,a3,0x3
    800058b6:	96aa                	add	a3,a3,a0
    800058b8:	fab6                	sd	a3,368(sp)
    800058ba:	0006be83          	ld	t4,0(a3)
    800058be:	09863e03          	ld	t3,152(a2)
    800058c2:	f9c6                	sd	a7,240(sp)
    800058c4:	8726                	mv	a4,s1
    800058c6:	c995                	beqz	a1,800058fa <bilateral_core+0x3700>
    800058c8:	26813583          	ld	a1,616(sp)
    800058cc:	66da                	ld	a3,400(sp)
    800058ce:	96ae                	add	a3,a3,a1
    800058d0:	068e                	slli	a3,a3,0x3
    800058d2:	96aa                	add	a3,a3,a0
    800058d4:	628c                	ld	a1,0(a3)
    800058d6:	e12e                	sd	a1,128(sp)
    800058d8:	724c                	ld	a1,160(a2)
    800058da:	eb2e                	sd	a1,400(sp)
    800058dc:	23813883          	ld	a7,568(sp)
    800058e0:	02088363          	beqz	a7,80005906 <bilateral_core+0x370c>
    800058e4:	26813483          	ld	s1,616(sp)
    800058e8:	009886b3          	add	a3,a7,s1
    800058ec:	068e                	slli	a3,a3,0x3
    800058ee:	96aa                	add	a3,a3,a0
    800058f0:	ff86ba03          	ld	s4,-8(a3)
    800058f4:	0a863383          	ld	t2,168(a2)
    800058f8:	a819                	j	8000590e <bilateral_core+0x3714>
    800058fa:	e102                	sd	zero,128(sp)
    800058fc:	eb02                	sd	zero,400(sp)
    800058fe:	23813883          	ld	a7,568(sp)
    80005902:	fe0891e3          	bnez	a7,800058e4 <bilateral_core+0x36ea>
    80005906:	4a01                	li	s4,0
    80005908:	4381                	li	t2,0
    8000590a:	26813483          	ld	s1,616(sp)
    8000590e:	818b058b          	.insn	4, 0x818b058b
    80005912:	75d2                	ld	a1,304(sp)
    80005914:	60bb858b          	.insn	4, 0x60bb858b
    80005918:	75ee                	ld	a1,248(sp)
    8000591a:	40ba858b          	.insn	4, 0x40ba858b
    8000591e:	2127058b          	.insn	4, 0x2127058b
    80005922:	75b6                	ld	a1,360(sp)
    80005924:	66d6                	ld	a3,336(sp)
    80005926:	84d5858b          	.insn	4, 0x84d5858b
    8000592a:	65bd058b          	.insn	4, 0x65bd058b
    8000592e:	7596                	ld	a1,352(sp)
    80005930:	44b0858b          	.insn	4, 0x44b0858b
    80005934:	245c858b          	.insn	4, 0x245c858b
    80005938:	75ca                	ld	a1,176(sp)
    8000593a:	66aa                	ld	a3,136(sp)
    8000593c:	88d5858b          	.insn	4, 0x88d5858b
    80005940:	6596                	ld	a1,320(sp)
    80005942:	768e                	ld	a3,224(sp)
