
mainop_O2U4_NN.riscv:     file format elf64-littleriscv


Disassembly of section .text.init:

0000000080000000 <_start>:
    80000000:	4081                	li	ra,0
    80000002:	4101                	li	sp,0
    80000004:	4181                	li	gp,0
    80000006:	4201                	li	tp,0
    80000008:	4281                	li	t0,0
    8000000a:	4301                	li	t1,0
    8000000c:	4381                	li	t2,0
    8000000e:	4401                	li	s0,0
    80000010:	4481                	li	s1,0
    80000012:	4501                	li	a0,0
    80000014:	4581                	li	a1,0
    80000016:	4601                	li	a2,0
    80000018:	4681                	li	a3,0
    8000001a:	4701                	li	a4,0
    8000001c:	4781                	li	a5,0
    8000001e:	4801                	li	a6,0
    80000020:	4881                	li	a7,0
    80000022:	4901                	li	s2,0
    80000024:	4981                	li	s3,0
    80000026:	4a01                	li	s4,0
    80000028:	4a81                	li	s5,0
    8000002a:	4b01                	li	s6,0
    8000002c:	4b81                	li	s7,0
    8000002e:	4c01                	li	s8,0
    80000030:	4c81                	li	s9,0
    80000032:	4d01                	li	s10,0
    80000034:	4d81                	li	s11,0
    80000036:	4e01                	li	t3,0
    80000038:	4e81                	li	t4,0
    8000003a:	4f01                	li	t5,0
    8000003c:	4f81                	li	t6,0
    8000003e:	62f9                	lui	t0,0x1e
    80000040:	3002a073          	csrs	mstatus,t0
    80000044:	4285                	li	t0,1
    80000046:	02fe                	slli	t0,t0,0x1f
    80000048:	0002d863          	bgez	t0,80000058 <_start+0x58>
    8000004c:	4505                	li	a0,1
    8000004e:	00001297          	auipc	t0,0x1
    80000052:	faa2a923          	sw	a0,-78(t0) # 80001000 <tohost>
    80000056:	bfdd                	j	8000004c <_start+0x4c>
    80000058:	00000297          	auipc	t0,0x0
    8000005c:	09028293          	addi	t0,t0,144 # 800000e8 <_start+0xe8>
    80000060:	30529073          	csrw	mtvec,t0
    80000064:	00301073          	fscsr	zero
    80000068:	f0000053          	fmv.w.x	ft0,zero
    8000006c:	f00000d3          	fmv.w.x	ft1,zero
    80000070:	f0000153          	fmv.w.x	ft2,zero
    80000074:	f00001d3          	fmv.w.x	ft3,zero
    80000078:	f0000253          	fmv.w.x	ft4,zero
    8000007c:	f00002d3          	fmv.w.x	ft5,zero
    80000080:	f0000353          	fmv.w.x	ft6,zero
    80000084:	f00003d3          	fmv.w.x	ft7,zero
    80000088:	f0000453          	fmv.w.x	fs0,zero
    8000008c:	f00004d3          	fmv.w.x	fs1,zero
    80000090:	f0000553          	fmv.w.x	fa0,zero
    80000094:	f00005d3          	fmv.w.x	fa1,zero
    80000098:	f0000653          	fmv.w.x	fa2,zero
    8000009c:	f00006d3          	fmv.w.x	fa3,zero
    800000a0:	f0000753          	fmv.w.x	fa4,zero
    800000a4:	f00007d3          	fmv.w.x	fa5,zero
    800000a8:	f0000853          	fmv.w.x	fa6,zero
    800000ac:	f00008d3          	fmv.w.x	fa7,zero
    800000b0:	f0000953          	fmv.w.x	fs2,zero
    800000b4:	f00009d3          	fmv.w.x	fs3,zero
    800000b8:	f0000a53          	fmv.w.x	fs4,zero
    800000bc:	f0000ad3          	fmv.w.x	fs5,zero
    800000c0:	f0000b53          	fmv.w.x	fs6,zero
    800000c4:	f0000bd3          	fmv.w.x	fs7,zero
    800000c8:	f0000c53          	fmv.w.x	fs8,zero
    800000cc:	f0000cd3          	fmv.w.x	fs9,zero
    800000d0:	f0000d53          	fmv.w.x	fs10,zero
    800000d4:	f0000dd3          	fmv.w.x	fs11,zero
    800000d8:	f0000e53          	fmv.w.x	ft8,zero
    800000dc:	f0000ed3          	fmv.w.x	ft9,zero
    800000e0:	f0000f53          	fmv.w.x	ft10,zero
    800000e4:	f0000fd3          	fmv.w.x	ft11,zero
    800000e8:	00000297          	auipc	t0,0x0
    800000ec:	03828293          	addi	t0,t0,56 # 80000120 <trap_entry>
    800000f0:	30529073          	csrw	mtvec,t0
    800000f4:	00012197          	auipc	gp,0x12
    800000f8:	c9c18193          	addi	gp,gp,-868 # 80011d90 <__global_pointer$>
    800000fc:	96f18213          	addi	tp,gp,-1681 # 800116ff <_end+0x3f>
    80000100:	fc027213          	andi	tp,tp,-64
    80000104:	f1402573          	csrr	a0,mhartid
    80000108:	4585                	li	a1,1
    8000010a:	00b57063          	bgeu	a0,a1,8000010a <_start+0x10a>
    8000010e:	00150113          	addi	sp,a0,1
    80000112:	0146                	slli	sp,sp,0x11
    80000114:	9112                	add	sp,sp,tp
    80000116:	01151613          	slli	a2,a0,0x11
    8000011a:	9232                	add	tp,tp,a2
    8000011c:	1971006f          	j	80010ab2 <_init>

0000000080000120 <trap_entry>:
    80000120:	716d                	addi	sp,sp,-272
    80000122:	e406                	sd	ra,8(sp)
    80000124:	e80a                	sd	sp,16(sp)
    80000126:	ec0e                	sd	gp,24(sp)
    80000128:	f012                	sd	tp,32(sp)
    8000012a:	f416                	sd	t0,40(sp)
    8000012c:	f81a                	sd	t1,48(sp)
    8000012e:	fc1e                	sd	t2,56(sp)
    80000130:	e0a2                	sd	s0,64(sp)
    80000132:	e4a6                	sd	s1,72(sp)
    80000134:	e8aa                	sd	a0,80(sp)
    80000136:	ecae                	sd	a1,88(sp)
    80000138:	f0b2                	sd	a2,96(sp)
    8000013a:	f4b6                	sd	a3,104(sp)
    8000013c:	f8ba                	sd	a4,112(sp)
    8000013e:	fcbe                	sd	a5,120(sp)
    80000140:	e142                	sd	a6,128(sp)
    80000142:	e546                	sd	a7,136(sp)
    80000144:	e94a                	sd	s2,144(sp)
    80000146:	ed4e                	sd	s3,152(sp)
    80000148:	f152                	sd	s4,160(sp)
    8000014a:	f556                	sd	s5,168(sp)
    8000014c:	f95a                	sd	s6,176(sp)
    8000014e:	fd5e                	sd	s7,184(sp)
    80000150:	e1e2                	sd	s8,192(sp)
    80000152:	e5e6                	sd	s9,200(sp)
    80000154:	e9ea                	sd	s10,208(sp)
    80000156:	edee                	sd	s11,216(sp)
    80000158:	f1f2                	sd	t3,224(sp)
    8000015a:	f5f6                	sd	t4,232(sp)
    8000015c:	f9fa                	sd	t5,240(sp)
    8000015e:	fdfe                	sd	t6,248(sp)
    80000160:	34202573          	csrr	a0,mcause
    80000164:	341025f3          	csrr	a1,mepc
    80000168:	860a                	mv	a2,sp
    8000016a:	780100ef          	jal	800108ea <handle_trap>
    8000016e:	34151073          	csrw	mepc,a0
    80000172:	6289                	lui	t0,0x2
    80000174:	8002829b          	addiw	t0,t0,-2048 # 1800 <buflen.1+0x17c0>
    80000178:	3002a073          	csrs	mstatus,t0
    8000017c:	60a2                	ld	ra,8(sp)
    8000017e:	6142                	ld	sp,16(sp)
    80000180:	61e2                	ld	gp,24(sp)
    80000182:	7202                	ld	tp,32(sp)
    80000184:	72a2                	ld	t0,40(sp)
    80000186:	7342                	ld	t1,48(sp)
    80000188:	73e2                	ld	t2,56(sp)
    8000018a:	6406                	ld	s0,64(sp)
    8000018c:	64a6                	ld	s1,72(sp)
    8000018e:	6546                	ld	a0,80(sp)
    80000190:	65e6                	ld	a1,88(sp)
    80000192:	7606                	ld	a2,96(sp)
    80000194:	76a6                	ld	a3,104(sp)
    80000196:	7746                	ld	a4,112(sp)
    80000198:	77e6                	ld	a5,120(sp)
    8000019a:	680a                	ld	a6,128(sp)
    8000019c:	68aa                	ld	a7,136(sp)
    8000019e:	694a                	ld	s2,144(sp)
    800001a0:	69ea                	ld	s3,152(sp)
    800001a2:	7a0a                	ld	s4,160(sp)
    800001a4:	7aaa                	ld	s5,168(sp)
    800001a6:	7b4a                	ld	s6,176(sp)
    800001a8:	7bea                	ld	s7,184(sp)
    800001aa:	6c0e                	ld	s8,192(sp)
    800001ac:	6cae                	ld	s9,200(sp)
    800001ae:	6d4e                	ld	s10,208(sp)
    800001b0:	6dee                	ld	s11,216(sp)
    800001b2:	7e0e                	ld	t3,224(sp)
    800001b4:	7eae                	ld	t4,232(sp)
    800001b6:	7f4e                	ld	t5,240(sp)
    800001b8:	7fee                	ld	t6,248(sp)
    800001ba:	6151                	addi	sp,sp,272
    800001bc:	30200073          	mret
    800001c0:	0000                	unimp

Disassembly of section .text:

0000000080002000 <d2ull>:
    80002000:	e2050553          	fmv.x.d	a0,fa0
    80002004:	8082                	ret

0000000080002006 <ull2d>:
    80002006:	f2050553          	fmv.d.x	fa0,a0
    8000200a:	8082                	ret

000000008000200c <init_space_weights>:
    8000200c:	7139                	addi	sp,sp,-64
    8000200e:	fc06                	sd	ra,56(sp)
    80002010:	f822                	sd	s0,48(sp)
    80002012:	b422                	fsd	fs0,40(sp)
    80002014:	b026                	fsd	fs1,32(sp)
    80002016:	ac4a                	fsd	fs2,24(sp)
    80002018:	a84e                	fsd	fs3,16(sp)
    8000201a:	a452                	fsd	fs4,8(sp)
    8000201c:	a056                	fsd	fs5,0(sp)
    8000201e:	842a                	mv	s0,a0
    80002020:	10a57053          	fmul.s	ft0,fa0,fa0
    80002024:	42000053          	fcvt.d.s	ft0,ft0
    80002028:	02007ad3          	fadd.d	fs5,ft0,ft0
    8000202c:	0000f517          	auipc	a0,0xf
    80002030:	61450513          	addi	a0,a0,1556 # 80011640 <halF+0xc0>
    80002034:	00053007          	fld	ft0,0(a0)
    80002038:	1b507453          	fdiv.d	fs0,ft0,fs5
    8000203c:	22840553          	fmv.d	fa0,fs0
    80002040:	0000f097          	auipc	ra,0xf
    80002044:	f92080e7          	jalr	-110(ra) # 80010fd2 <exp>
    80002048:	a008                	fsd	fa0,0(s0)
    8000204a:	0000f517          	auipc	a0,0xf
    8000204e:	5fe50513          	addi	a0,a0,1534 # 80011648 <halF+0xc8>
    80002052:	00053007          	fld	ft0,0(a0)
    80002056:	1b5074d3          	fdiv.d	fs1,ft0,fs5
    8000205a:	22948553          	fmv.d	fa0,fs1
    8000205e:	0000f097          	auipc	ra,0xf
    80002062:	f74080e7          	jalr	-140(ra) # 80010fd2 <exp>
    80002066:	a408                	fsd	fa0,8(s0)
    80002068:	0000f517          	auipc	a0,0xf
    8000206c:	5e850513          	addi	a0,a0,1512 # 80011650 <halF+0xd0>
    80002070:	00053007          	fld	ft0,0(a0)
    80002074:	1b507953          	fdiv.d	fs2,ft0,fs5
    80002078:	23290553          	fmv.d	fa0,fs2
    8000207c:	0000f097          	auipc	ra,0xf
    80002080:	f56080e7          	jalr	-170(ra) # 80010fd2 <exp>
    80002084:	a808                	fsd	fa0,16(s0)
    80002086:	22948553          	fmv.d	fa0,fs1
    8000208a:	0000f097          	auipc	ra,0xf
    8000208e:	f48080e7          	jalr	-184(ra) # 80010fd2 <exp>
    80002092:	ac08                	fsd	fa0,24(s0)
    80002094:	22840553          	fmv.d	fa0,fs0
    80002098:	0000f097          	auipc	ra,0xf
    8000209c:	f3a080e7          	jalr	-198(ra) # 80010fd2 <exp>
    800020a0:	b008                	fsd	fa0,32(s0)
    800020a2:	22948553          	fmv.d	fa0,fs1
    800020a6:	0000f097          	auipc	ra,0xf
    800020aa:	f2c080e7          	jalr	-212(ra) # 80010fd2 <exp>
    800020ae:	b408                	fsd	fa0,40(s0)
    800020b0:	0000f517          	auipc	a0,0xf
    800020b4:	5a850513          	addi	a0,a0,1448 # 80011658 <halF+0xd8>
    800020b8:	00053007          	fld	ft0,0(a0)
    800020bc:	1b5079d3          	fdiv.d	fs3,ft0,fs5
    800020c0:	23398553          	fmv.d	fa0,fs3
    800020c4:	0000f097          	auipc	ra,0xf
    800020c8:	f0e080e7          	jalr	-242(ra) # 80010fd2 <exp>
    800020cc:	b808                	fsd	fa0,48(s0)
    800020ce:	0000f517          	auipc	a0,0xf
    800020d2:	59250513          	addi	a0,a0,1426 # 80011660 <halF+0xe0>
    800020d6:	00053007          	fld	ft0,0(a0)
    800020da:	1b507a53          	fdiv.d	fs4,ft0,fs5
    800020de:	234a0553          	fmv.d	fa0,fs4
    800020e2:	0000f097          	auipc	ra,0xf
    800020e6:	ef0080e7          	jalr	-272(ra) # 80010fd2 <exp>
    800020ea:	bc08                	fsd	fa0,56(s0)
    800020ec:	23398553          	fmv.d	fa0,fs3
    800020f0:	0000f097          	auipc	ra,0xf
    800020f4:	ee2080e7          	jalr	-286(ra) # 80010fd2 <exp>
    800020f8:	a028                	fsd	fa0,64(s0)
    800020fa:	22948553          	fmv.d	fa0,fs1
    800020fe:	0000f097          	auipc	ra,0xf
    80002102:	ed4080e7          	jalr	-300(ra) # 80010fd2 <exp>
    80002106:	a428                	fsd	fa0,72(s0)
    80002108:	23290553          	fmv.d	fa0,fs2
    8000210c:	0000f097          	auipc	ra,0xf
    80002110:	ec6080e7          	jalr	-314(ra) # 80010fd2 <exp>
    80002114:	a828                	fsd	fa0,80(s0)
    80002116:	234a0553          	fmv.d	fa0,fs4
    8000211a:	0000f097          	auipc	ra,0xf
    8000211e:	eb8080e7          	jalr	-328(ra) # 80010fd2 <exp>
    80002122:	ac28                	fsd	fa0,88(s0)
    80002124:	f2000053          	fmv.d.x	ft0,zero
    80002128:	22001053          	fneg.d	ft0,ft0
    8000212c:	1b507553          	fdiv.d	fa0,ft0,fs5
    80002130:	0000f097          	auipc	ra,0xf
    80002134:	ea2080e7          	jalr	-350(ra) # 80010fd2 <exp>
    80002138:	b028                	fsd	fa0,96(s0)
    8000213a:	234a0553          	fmv.d	fa0,fs4
    8000213e:	0000f097          	auipc	ra,0xf
    80002142:	e94080e7          	jalr	-364(ra) # 80010fd2 <exp>
    80002146:	b428                	fsd	fa0,104(s0)
    80002148:	23290553          	fmv.d	fa0,fs2
    8000214c:	0000f097          	auipc	ra,0xf
    80002150:	e86080e7          	jalr	-378(ra) # 80010fd2 <exp>
    80002154:	b828                	fsd	fa0,112(s0)
    80002156:	22948553          	fmv.d	fa0,fs1
    8000215a:	0000f097          	auipc	ra,0xf
    8000215e:	e78080e7          	jalr	-392(ra) # 80010fd2 <exp>
    80002162:	bc28                	fsd	fa0,120(s0)
    80002164:	23398553          	fmv.d	fa0,fs3
    80002168:	0000f097          	auipc	ra,0xf
    8000216c:	e6a080e7          	jalr	-406(ra) # 80010fd2 <exp>
    80002170:	a048                	fsd	fa0,128(s0)
    80002172:	234a0553          	fmv.d	fa0,fs4
    80002176:	0000f097          	auipc	ra,0xf
    8000217a:	e5c080e7          	jalr	-420(ra) # 80010fd2 <exp>
    8000217e:	a448                	fsd	fa0,136(s0)
    80002180:	23398553          	fmv.d	fa0,fs3
    80002184:	0000f097          	auipc	ra,0xf
    80002188:	e4e080e7          	jalr	-434(ra) # 80010fd2 <exp>
    8000218c:	a848                	fsd	fa0,144(s0)
    8000218e:	22948553          	fmv.d	fa0,fs1
    80002192:	0000f097          	auipc	ra,0xf
    80002196:	e40080e7          	jalr	-448(ra) # 80010fd2 <exp>
    8000219a:	ac48                	fsd	fa0,152(s0)
    8000219c:	22840553          	fmv.d	fa0,fs0
    800021a0:	0000f097          	auipc	ra,0xf
    800021a4:	e32080e7          	jalr	-462(ra) # 80010fd2 <exp>
    800021a8:	b048                	fsd	fa0,160(s0)
    800021aa:	22948553          	fmv.d	fa0,fs1
    800021ae:	0000f097          	auipc	ra,0xf
    800021b2:	e24080e7          	jalr	-476(ra) # 80010fd2 <exp>
    800021b6:	b448                	fsd	fa0,168(s0)
    800021b8:	23290553          	fmv.d	fa0,fs2
    800021bc:	0000f097          	auipc	ra,0xf
    800021c0:	e16080e7          	jalr	-490(ra) # 80010fd2 <exp>
    800021c4:	b848                	fsd	fa0,176(s0)
    800021c6:	22948553          	fmv.d	fa0,fs1
    800021ca:	0000f097          	auipc	ra,0xf
    800021ce:	e08080e7          	jalr	-504(ra) # 80010fd2 <exp>
    800021d2:	bc48                	fsd	fa0,184(s0)
    800021d4:	22840553          	fmv.d	fa0,fs0
    800021d8:	0000f097          	auipc	ra,0xf
    800021dc:	dfa080e7          	jalr	-518(ra) # 80010fd2 <exp>
    800021e0:	a068                	fsd	fa0,192(s0)
    800021e2:	70e2                	ld	ra,56(sp)
    800021e4:	7442                	ld	s0,48(sp)
    800021e6:	3422                	fld	fs0,40(sp)
    800021e8:	3482                	fld	fs1,32(sp)
    800021ea:	2962                	fld	fs2,24(sp)
    800021ec:	29c2                	fld	fs3,16(sp)
    800021ee:	2a22                	fld	fs4,8(sp)
    800021f0:	2a82                	fld	fs5,0(sp)
    800021f2:	6121                	addi	sp,sp,64
    800021f4:	8082                	ret

00000000800021f6 <bilateral_core>:
    800021f6:	d1010113          	addi	sp,sp,-752
    800021fa:	2e113423          	sd	ra,744(sp)
    800021fe:	2e813023          	sd	s0,736(sp)
    80002202:	2c913c23          	sd	s1,728(sp)
    80002206:	2d213823          	sd	s2,720(sp)
    8000220a:	2d313423          	sd	s3,712(sp)
    8000220e:	2d413023          	sd	s4,704(sp)
    80002212:	2b513c23          	sd	s5,696(sp)
    80002216:	2b613823          	sd	s6,688(sp)
    8000221a:	2b713423          	sd	s7,680(sp)
    8000221e:	2b813023          	sd	s8,672(sp)
    80002222:	29913c23          	sd	s9,664(sp)
    80002226:	29a13823          	sd	s10,656(sp)
    8000222a:	29b13423          	sd	s11,648(sp)
    8000222e:	28d13023          	sd	a3,640(sp)
    80002232:	26b13c23          	sd	a1,632(sp)
    80002236:	4585                	li	a1,1
    80002238:	1582                	slli	a1,a1,0x20
    8000223a:	f0058813          	addi	a6,a1,-256
    8000223e:	f0080593          	addi	a1,a6,-256
    80002242:	e42e                	sd	a1,8(sp)
    80002244:	f2000053          	fmv.d.x	ft0,zero
    80002248:	4281                	li	t0,0
    8000224a:	25013423          	sd	a6,584(sp)
    8000224e:	a801                	j	8000225e <bilateral_core+0x68>
    80002250:	0291                	addi	t0,t0,4
    80002252:	10000593          	li	a1,256
    80002256:	00b29463          	bne	t0,a1,8000225e <bilateral_core+0x68>
    8000225a:	1120e06f          	j	8001036c <bilateral_core+0xe176>
    8000225e:	26513823          	sd	t0,624(sp)
    80002262:	00829393          	slli	t2,t0,0x8
    80002266:	ffe28593          	addi	a1,t0,-2
    8000226a:	0105f7b3          	and	a5,a1,a6
    8000226e:	00859e13          	slli	t3,a1,0x8
    80002272:	65a2                	ld	a1,8(sp)
    80002274:	00be75b3          	and	a1,t3,a1
    80002278:	20b13423          	sd	a1,520(sp)
    8000227c:	fff28593          	addi	a1,t0,-1
    80002280:	0105f6b3          	and	a3,a1,a6
    80002284:	24d13023          	sd	a3,576(sp)
    80002288:	00859313          	slli	t1,a1,0x8
    8000228c:	010375b3          	and	a1,t1,a6
    80002290:	ef2e                	sd	a1,408(sp)
    80002292:	1003ef93          	ori	t6,t2,256
    80002296:	2003e593          	ori	a1,t2,512
    8000229a:	22b13c23          	sd	a1,568(sp)
    8000229e:	4701                	li	a4,0
    800022a0:	24713823          	sd	t2,592(sp)
    800022a4:	22613823          	sd	t1,560(sp)
    800022a8:	26f13023          	sd	a5,608(sp)
    800022ac:	23c13023          	sd	t3,544(sp)
    800022b0:	23f13423          	sd	t6,552(sp)
    800022b4:	a081                	j	800022f4 <bilateral_core+0xfe>
    800022b6:	27813583          	ld	a1,632(sp)
    800022ba:	76ee                	ld	a3,248(sp)
    800022bc:	95b6                	add	a1,a1,a3
    800022be:	0105b023          	sd	a6,0(a1)
    800022c2:	26813703          	ld	a4,616(sp)
    800022c6:	0741                	addi	a4,a4,16
    800022c8:	24813803          	ld	a6,584(sp)
    800022cc:	10000593          	li	a1,256
    800022d0:	27013683          	ld	a3,624(sp)
    800022d4:	25013383          	ld	t2,592(sp)
    800022d8:	23013303          	ld	t1,560(sp)
    800022dc:	23813f03          	ld	t5,568(sp)
    800022e0:	26013783          	ld	a5,608(sp)
    800022e4:	22013e03          	ld	t3,544(sp)
    800022e8:	22813f83          	ld	t6,552(sp)
    800022ec:	00b71463          	bne	a4,a1,800022f4 <bilateral_core+0xfe>
    800022f0:	3520306f          	j	80005642 <bilateral_core+0x344c>
    800022f4:	0017b693          	seqz	a3,a5
    800022f8:	ffe70893          	addi	a7,a4,-2
    800022fc:	00e032b3          	snez	t0,a4
    80002300:	eeb6                	sd	a3,344(sp)
    80002302:	0056f6b3          	and	a3,a3,t0
    80002306:	4781                	li	a5,0
    80002308:	4581                	li	a1,0
    8000230a:	ca91                	beqz	a3,8000231e <bilateral_core+0x128>
    8000230c:	011e07b3          	add	a5,t3,a7
    80002310:	0fe80493          	addi	s1,a6,254
    80002314:	8fe5                	and	a5,a5,s1
    80002316:	078e                	slli	a5,a5,0x3
    80002318:	97aa                	add	a5,a5,a0
    8000231a:	639c                	ld	a5,0(a5)
    8000231c:	620c                	ld	a1,0(a2)
    8000231e:	f63e                	sd	a5,296(sp)
    80002320:	4e81                	li	t4,0
    80002322:	4f01                	li	t5,0
    80002324:	ce89                	beqz	a3,8000233e <bilateral_core+0x148>
    80002326:	0ff80693          	addi	a3,a6,255
    8000232a:	00d707b3          	add	a5,a4,a3
    8000232e:	97f2                	add	a5,a5,t3
    80002330:	8efd                	and	a3,a3,a5
    80002332:	068e                	slli	a3,a3,0x3
    80002334:	96aa                	add	a3,a3,a0
    80002336:	0006be83          	ld	t4,0(a3)
    8000233a:	00863f03          	ld	t5,8(a2)
    8000233e:	4981                	li	s3,0
    80002340:	4901                	li	s2,0
    80002342:	4a01                	li	s4,0
    80002344:	4a81                	li	s5,0
    80002346:	24013483          	ld	s1,576(sp)
    8000234a:	26013403          	ld	s0,608(sp)
    8000234e:	e415                	bnez	s0,8000237a <bilateral_core+0x184>
    80002350:	20813683          	ld	a3,520(sp)
    80002354:	96ba                	add	a3,a3,a4
    80002356:	068e                	slli	a3,a3,0x3
    80002358:	96aa                	add	a3,a3,a0
    8000235a:	0006b903          	ld	s2,0(a3)
    8000235e:	01063983          	ld	s3,16(a2)
    80002362:	00176693          	ori	a3,a4,1
    80002366:	96f2                	add	a3,a3,t3
    80002368:	0f180793          	addi	a5,a6,241
    8000236c:	8efd                	and	a3,a3,a5
    8000236e:	068e                	slli	a3,a3,0x3
    80002370:	96aa                	add	a3,a3,a0
    80002372:	0006ba03          	ld	s4,0(a3)
    80002376:	01863a83          	ld	s5,24(a2)
    8000237a:	26b13423          	sd	a1,616(sp)
    8000237e:	4b01                	li	s6,0
    80002380:	4b81                	li	s7,0
    80002382:	ec09                	bnez	s0,8000239c <bilateral_core+0x1a6>
    80002384:	00276693          	ori	a3,a4,2
    80002388:	96f2                	add	a3,a3,t3
    8000238a:	0f280793          	addi	a5,a6,242
    8000238e:	8efd                	and	a3,a3,a5
    80002390:	068e                	slli	a3,a3,0x3
    80002392:	96aa                	add	a3,a3,a0
    80002394:	0006bb03          	ld	s6,0(a3)
    80002398:	02063b83          	ld	s7,32(a2)
    8000239c:	0014bc93          	seqz	s9,s1
    800023a0:	005cf7b3          	and	a5,s9,t0
    800023a4:	4281                	li	t0,0
    800023a6:	4e01                	li	t3,0
    800023a8:	cf81                	beqz	a5,800023c0 <bilateral_core+0x1ca>
    800023aa:	011305b3          	add	a1,t1,a7
    800023ae:	0fe80693          	addi	a3,a6,254
    800023b2:	8df5                	and	a1,a1,a3
    800023b4:	058e                	slli	a1,a1,0x3
    800023b6:	95aa                	add	a1,a1,a0
    800023b8:	0005b283          	ld	t0,0(a1)
    800023bc:	02863e03          	ld	t3,40(a2)
    800023c0:	4d81                	li	s11,0
    800023c2:	4d01                	li	s10,0
    800023c4:	cf89                	beqz	a5,800023de <bilateral_core+0x1e8>
    800023c6:	0ff80593          	addi	a1,a6,255
    800023ca:	00b706b3          	add	a3,a4,a1
    800023ce:	969a                	add	a3,a3,t1
    800023d0:	8df5                	and	a1,a1,a3
    800023d2:	058e                	slli	a1,a1,0x3
    800023d4:	95aa                	add	a1,a1,a0
    800023d6:	0005bd83          	ld	s11,0(a1)
    800023da:	03063d03          	ld	s10,48(a2)
    800023de:	4081                	li	ra,0
    800023e0:	4401                	li	s0,0
    800023e2:	e881                	bnez	s1,800023f2 <bilateral_core+0x1fc>
    800023e4:	65fa                	ld	a1,408(sp)
    800023e6:	95ba                	add	a1,a1,a4
    800023e8:	058e                	slli	a1,a1,0x3
    800023ea:	95aa                	add	a1,a1,a0
    800023ec:	0005b083          	ld	ra,0(a1)
    800023f0:	7e00                	ld	s0,56(a2)
    800023f2:	f782                	sd	zero,488(sp)
    800023f4:	20013023          	sd	zero,512(sp)
    800023f8:	4581                	li	a1,0
    800023fa:	4681                	li	a3,0
    800023fc:	e885                	bnez	s1,8000242c <bilateral_core+0x236>
    800023fe:	00176593          	ori	a1,a4,1
    80002402:	959a                	add	a1,a1,t1
    80002404:	0f180693          	addi	a3,a6,241
    80002408:	8df5                	and	a1,a1,a3
    8000240a:	058e                	slli	a1,a1,0x3
    8000240c:	95aa                	add	a1,a1,a0
    8000240e:	618c                	ld	a1,0(a1)
    80002410:	20b13023          	sd	a1,512(sp)
    80002414:	622c                	ld	a1,64(a2)
    80002416:	f7ae                	sd	a1,488(sp)
    80002418:	00276593          	ori	a1,a4,2
    8000241c:	959a                	add	a1,a1,t1
    8000241e:	0f280693          	addi	a3,a6,242
    80002422:	8df5                	and	a1,a1,a3
    80002424:	058e                	slli	a1,a1,0x3
    80002426:	95aa                	add	a1,a1,a0
    80002428:	618c                	ld	a1,0(a1)
    8000242a:	6634                	ld	a3,72(a2)
    8000242c:	efbe                	sd	a5,472(sp)
    8000242e:	f32e                	sd	a1,416(sp)
    80002430:	cb0d                	beqz	a4,80002462 <bilateral_core+0x26c>
    80002432:	011385b3          	add	a1,t2,a7
    80002436:	0fe80793          	addi	a5,a6,254
    8000243a:	8dfd                	and	a1,a1,a5
    8000243c:	058e                	slli	a1,a1,0x3
    8000243e:	95aa                	add	a1,a1,a0
    80002440:	618c                	ld	a1,0(a1)
    80002442:	f22e                	sd	a1,288(sp)
    80002444:	6a2c                	ld	a1,80(a2)
    80002446:	ee2e                	sd	a1,280(sp)
    80002448:	0ff80593          	addi	a1,a6,255
    8000244c:	00b707b3          	add	a5,a4,a1
    80002450:	979e                	add	a5,a5,t2
    80002452:	8dfd                	and	a1,a1,a5
    80002454:	058e                	slli	a1,a1,0x3
    80002456:	95aa                	add	a1,a1,a0
    80002458:	618c                	ld	a1,0(a1)
    8000245a:	ea2e                	sd	a1,272(sp)
    8000245c:	6e2c                	ld	a1,88(a2)
    8000245e:	e62e                	sd	a1,264(sp)
    80002460:	a029                	j	8000246a <bilateral_core+0x274>
    80002462:	ee02                	sd	zero,280(sp)
    80002464:	f202                	sd	zero,288(sp)
    80002466:	ea02                	sd	zero,272(sp)
    80002468:	e602                	sd	zero,264(sp)
    8000246a:	fae6                	sd	s9,368(sp)
    8000246c:	ebee                	sd	s11,464(sp)
    8000246e:	e386                	sd	ra,448(sp)
    80002470:	e336                	sd	a3,384(sp)
    80002472:	f6fa                	sd	t5,360(sp)
    80002474:	f5c6                	sd	a7,232(sp)
    80002476:	8ca2                	mv	s9,s0
    80002478:	cb11                	beqz	a4,8000248c <bilateral_core+0x296>
    8000247a:	011f85b3          	add	a1,t6,a7
    8000247e:	058e                	slli	a1,a1,0x3
    80002480:	95aa                	add	a1,a1,a0
    80002482:	618c                	ld	a1,0(a1)
    80002484:	e22e                	sd	a1,256(sp)
    80002486:	7e2c                	ld	a1,120(a2)
    80002488:	fdae                	sd	a1,248(sp)
    8000248a:	a019                	j	80002490 <bilateral_core+0x29a>
    8000248c:	e202                	sd	zero,256(sp)
    8000248e:	fd82                	sd	zero,248(sp)
    80002490:	007705b3          	add	a1,a4,t2
    80002494:	24b13c23          	sd	a1,600(sp)
    80002498:	00359813          	slli	a6,a1,0x3
    8000249c:	010505b3          	add	a1,a0,a6
    800024a0:	e8ae                	sd	a1,80(sp)
    800024a2:	0005bd83          	ld	s11,0(a1)
    800024a6:	06063f03          	ld	t5,96(a2)
    800024aa:	00176593          	ori	a1,a4,1
    800024ae:	ffae                	sd	a1,504(sp)
    800024b0:	00b387b3          	add	a5,t2,a1
    800024b4:	00379313          	slli	t1,a5,0x3
    800024b8:	006500b3          	add	ra,a0,t1
    800024bc:	0000b403          	ld	s0,0(ra)
    800024c0:	762c                	ld	a1,104(a2)
    800024c2:	e6ae                	sd	a1,328(sp)
    800024c4:	00276593          	ori	a1,a4,2
    800024c8:	20b13c23          	sd	a1,536(sp)
    800024cc:	959e                	add	a1,a1,t2
    800024ce:	00359693          	slli	a3,a1,0x3
    800024d2:	00d504b3          	add	s1,a0,a3
    800024d6:	20913823          	sd	s1,528(sp)
    800024da:	0004b383          	ld	t2,0(s1)
    800024de:	07063883          	ld	a7,112(a2)
    800024e2:	fb2e                	sd	a1,432(sp)
    800024e4:	e736                	sd	a3,392(sp)
    800024e6:	ff3e                	sd	a5,440(sp)
    800024e8:	fefa                	sd	t5,376(sp)
    800024ea:	eaa2                	sd	s0,336(sp)
    800024ec:	e296                	sd	t0,320(sp)
    800024ee:	fe5a                	sd	s6,312(sp)
    800024f0:	cf01                	beqz	a4,80002508 <bilateral_core+0x312>
    800024f2:	26813283          	ld	t0,616(sp)
    800024f6:	01f705b3          	add	a1,a4,t6
    800024fa:	058e                	slli	a1,a1,0x3
    800024fc:	95aa                	add	a1,a1,a0
    800024fe:	ff85b403          	ld	s0,-8(a1)
    80002502:	624c                	ld	a1,128(a2)
    80002504:	f9ae                	sd	a1,240(sp)
    80002506:	a029                	j	80002510 <bilateral_core+0x31a>
    80002508:	26813283          	ld	t0,616(sp)
    8000250c:	4401                	li	s0,0
    8000250e:	f982                	sd	zero,240(sp)
    80002510:	00ef87b3          	add	a5,t6,a4
    80002514:	078e                	slli	a5,a5,0x3
    80002516:	00f506b3          	add	a3,a0,a5
    8000251a:	f2b6                	sd	a3,352(sp)
    8000251c:	628c                	ld	a1,0(a3)
    8000251e:	6644                	ld	s1,136(a2)
    80002520:	76fe                	ld	a3,504(sp)
    80002522:	00df87b3          	add	a5,t6,a3
    80002526:	078e                	slli	a5,a5,0x3
    80002528:	00f506b3          	add	a3,a0,a5
    8000252c:	fbb6                	sd	a3,496(sp)
    8000252e:	0006bf03          	ld	t5,0(a3)
    80002532:	6a5c                	ld	a5,144(a2)
    80002534:	21813683          	ld	a3,536(sp)
    80002538:	96fe                	add	a3,a3,t6
    8000253a:	068e                	slli	a3,a3,0x3
    8000253c:	96aa                	add	a3,a3,a0
    8000253e:	f3b6                	sd	a3,480(sp)
    80002540:	0006bb03          	ld	s6,0(a3)
    80002544:	09863c03          	ld	s8,152(a2)
    80002548:	26e13423          	sd	a4,616(sp)
    8000254c:	fa3e                	sd	a5,304(sp)
    8000254e:	8fa6                	mv	t6,s1
    80002550:	87ae                	mv	a5,a1
    80002552:	cf11                	beqz	a4,8000256e <bilateral_core+0x378>
    80002554:	871e                	mv	a4,t2
    80002556:	83ea                	mv	t2,s10
    80002558:	23813683          	ld	a3,568(sp)
    8000255c:	75ae                	ld	a1,232(sp)
    8000255e:	96ae                	add	a3,a3,a1
    80002560:	068e                	slli	a3,a3,0x3
    80002562:	96aa                	add	a3,a3,a0
    80002564:	628c                	ld	a1,0(a3)
    80002566:	f5ae                	sd	a1,232(sp)
    80002568:	724c                	ld	a1,160(a2)
    8000256a:	f1ae                	sd	a1,224(sp)
    8000256c:	a029                	j	80002576 <bilateral_core+0x380>
    8000256e:	871e                	mv	a4,t2
    80002570:	83ea                	mv	t2,s10
    80002572:	f582                	sd	zero,232(sp)
    80002574:	f182                	sd	zero,224(sp)
    80002576:	84a2                	mv	s1,s0
    80002578:	26813d03          	ld	s10,616(sp)
    8000257c:	eb1a                	sd	t1,400(sp)
    8000257e:	e7c2                	sd	a6,456(sp)
    80002580:	f706                	sd	ra,424(sp)
    80002582:	85e6                	mv	a1,s9
    80002584:	000d0d63          	beqz	s10,8000259e <bilateral_core+0x3a8>
    80002588:	23813083          	ld	ra,568(sp)
    8000258c:	001d06b3          	add	a3,s10,ra
    80002590:	068e                	slli	a3,a3,0x3
    80002592:	96aa                	add	a3,a3,a0
    80002594:	ff86b303          	ld	t1,-8(a3)
    80002598:	0a863803          	ld	a6,168(a2)
    8000259c:	a029                	j	800025a6 <bilateral_core+0x3b0>
    8000259e:	4301                	li	t1,0
    800025a0:	4801                	li	a6,0
    800025a2:	23813083          	ld	ra,568(sp)
    800025a6:	7432                	ld	s0,296(sp)
    800025a8:	8159868b          	.insn	4, 0x8159868b
    800025ac:	76b6                	ld	a3,360(sp)
    800025ae:	60d2868b          	.insn	4, 0x60d2868b
    800025b2:	4149068b          	.insn	4, 0x4149068b
    800025b6:	21d4068b          	.insn	4, 0x21d4068b
    800025ba:	28013c83          	ld	s9,640(sp)
    800025be:	019d96fb          	.insn	4, 0x019d96fb
    800025c2:	00d6892b          	.insn	4, 0x00d6892b
    800025c6:	f20680d3          	fmv.d.x	ft1,a3
    800025ca:	0200f0d3          	fadd.d	ft1,ft1,ft0
    800025ce:	84b3868b          	.insn	4, 0x84b3868b
    800025d2:	65cb868b          	.insn	4, 0x65cb868b
    800025d6:	66de                	ld	a3,464(sp)
    800025d8:	641e                	ld	s0,448(sp)
    800025da:	4486868b          	.insn	4, 0x4486868b
    800025de:	6596                	ld	a1,320(sp)
    800025e0:	76f2                	ld	a3,312(sp)
    800025e2:	24b6868b          	.insn	4, 0x24b6868b
    800025e6:	419d96fb          	.insn	4, 0x419d96fb
    800025ea:	04d682ab          	.insn	4, 0x04d682ab
    800025ee:	f2068153          	fmv.d.x	ft2,a3
    800025f2:	0220f0d3          	fadd.d	ft1,ft1,ft2
    800025f6:	65f2                	ld	a1,280(sp)
    800025f8:	66b2                	ld	a3,264(sp)
    800025fa:	88d5868b          	.insn	4, 0x88d5868b
    800025fe:	75be                	ld	a1,488(sp)
    80002600:	669a                	ld	a3,384(sp)
    80002602:	68d5868b          	.insn	4, 0x68d5868b
    80002606:	7592                	ld	a1,288(sp)
    80002608:	66d2                	ld	a3,272(sp)
    8000260a:	48d5868b          	.insn	4, 0x48d5868b
    8000260e:	20013583          	ld	a1,512(sp)
    80002612:	769a                	ld	a3,416(sp)
    80002614:	28d5868b          	.insn	4, 0x28d5868b
    80002618:	819d96fb          	.insn	4, 0x819d96fb
    8000261c:	08d68eab          	.insn	4, 0x08d68eab
    80002620:	f2068153          	fmv.d.x	ft2,a3
    80002624:	0220f0d3          	fadd.d	ft1,ft1,ft2
    80002628:	75ee                	ld	a1,248(sp)
    8000262a:	8cb8868b          	.insn	4, 0x8cb8868b
    8000262e:	75f6                	ld	a1,376(sp)
    80002630:	66b6                	ld	a3,328(sp)
    80002632:	6cd5868b          	.insn	4, 0x6cd5868b
    80002636:	6592                	ld	a1,256(sp)
    80002638:	4cb7068b          	.insn	4, 0x4cb7068b
    8000263c:	65d6                	ld	a1,336(sp)
    8000263e:	2cbd868b          	.insn	4, 0x2cbd868b
    80002642:	c19d96fb          	.insn	4, 0xc19d96fb
    80002646:	0cd688ab          	.insn	4, 0x0cd688ab
    8000264a:	f2068153          	fmv.d.x	ft2,a3
    8000264e:	0220f0d3          	fadd.d	ft1,ft1,ft2
    80002652:	75d2                	ld	a1,304(sp)
    80002654:	9d85868b          	.insn	4, 0x9d85868b
    80002658:	75ce                	ld	a1,240(sp)
    8000265a:	7df5858b          	.insn	4, 0x7df5858b
    8000265e:	5d6f058b          	.insn	4, 0x5d6f058b
    80002662:	3cf4858b          	.insn	4, 0x3cf4858b
    80002666:	c19d95fb          	.insn	4, 0xc19d95fb
    8000266a:	f2058153          	fmv.d.x	ft2,a1
    8000266e:	0220f0d3          	fadd.d	ft1,ft1,ft2
    80002672:	01a085b3          	add	a1,ra,s10
    80002676:	058e                	slli	a1,a1,0x3
    80002678:	95aa                	add	a1,a1,a0
    8000267a:	fe2e                	sd	a1,312(sp)
    8000267c:	6194                	ld	a3,0(a1)
    8000267e:	7a5c                	ld	a5,176(a2)
    80002680:	75fe                	ld	a1,504(sp)
    80002682:	9586                	add	a1,a1,ra
    80002684:	058e                	slli	a1,a1,0x3
    80002686:	95aa                	add	a1,a1,a0
    80002688:	e3ae                	sd	a1,448(sp)
    8000268a:	6180                	ld	s0,0(a1)
    8000268c:	7e44                	ld	s1,184(a2)
    8000268e:	758e                	ld	a1,224(sp)
    80002690:	7d0585db          	.insn	4, 0x7d0585db
    80002694:	772e                	ld	a4,232(sp)
    80002696:	3c67070b          	.insn	4, 0x3c67070b
    8000269a:	5c86868b          	.insn	4, 0x5c86868b
    8000269e:	d09796fb          	.insn	4, 0xd09796fb
    800026a2:	f2068153          	fmv.d.x	ft2,a3
    800026a6:	0220f0d3          	fadd.d	ft1,ft1,ft2
    800026aa:	25813683          	ld	a3,600(sp)
    800026ae:	20268693          	addi	a3,a3,514
    800026b2:	068e                	slli	a3,a3,0x3
    800026b4:	96aa                	add	a3,a3,a0
    800026b6:	6294                	ld	a3,0(a3)
    800026b8:	627c                	ld	a5,192(a2)
    800026ba:	3c0684db          	.insn	4, 0x3c0684db
    800026be:	cc0796fb          	.insn	4, 0xcc0796fb
    800026c2:	1cd687ab          	.insn	4, 0x1cd687ab
    800026c6:	f2068153          	fmv.d.x	ft2,a3
    800026ca:	0220f153          	fadd.d	ft2,ft1,ft2
    800026ce:	0000f697          	auipc	a3,0xf
    800026d2:	f9a68693          	addi	a3,a3,-102 # 80011668 <halF+0xe8>
    800026d6:	0006b087          	fld	ft1,0(a3)
    800026da:	a22096d3          	flt.d	a3,ft1,ft2
    800026de:	c2a9                	beqz	a3,80002720 <bilateral_core+0x52a>
    800026e0:	f20901d3          	fmv.d.x	ft3,s2
    800026e4:	0201f1d3          	fadd.d	ft3,ft3,ft0
    800026e8:	f2028253          	fmv.d.x	ft4,t0
    800026ec:	0241f1d3          	fadd.d	ft3,ft3,ft4
    800026f0:	f20e8253          	fmv.d.x	ft4,t4
    800026f4:	0241f1d3          	fadd.d	ft3,ft3,ft4
    800026f8:	f2088253          	fmv.d.x	ft4,a7
    800026fc:	0241f1d3          	fadd.d	ft3,ft3,ft4
    80002700:	f2058253          	fmv.d.x	ft4,a1
    80002704:	0241f1d3          	fadd.d	ft3,ft3,ft4
    80002708:	f2048253          	fmv.d.x	ft4,s1
    8000270c:	0241f1d3          	fadd.d	ft3,ft3,ft4
    80002710:	f2078253          	fmv.d.x	ft4,a5
    80002714:	0241f1d3          	fadd.d	ft3,ft3,ft4
    80002718:	1a21f153          	fdiv.d	ft2,ft3,ft2
    8000271c:	e2010dd3          	fmv.x.d	s11,ft2
    80002720:	27813583          	ld	a1,632(sp)
    80002724:	66be                	ld	a3,456(sp)
    80002726:	95b6                	add	a1,a1,a3
    80002728:	01b5b023          	sd	s11,0(a1)
    8000272c:	75ba                	ld	a1,424(sp)
    8000272e:	0005b803          	ld	a6,0(a1)
    80002732:	fffd0c13          	addi	s8,s10,-1
    80002736:	01ac35b3          	sltu	a1,s8,s10
    8000273a:	66f6                	ld	a3,344(sp)
    8000273c:	8df5                	and	a1,a1,a3
    8000273e:	4381                	li	t2,0
    80002740:	4881                	li	a7,0
    80002742:	24813783          	ld	a5,584(sp)
    80002746:	26013483          	ld	s1,608(sp)
    8000274a:	22013403          	ld	s0,544(sp)
    8000274e:	22813703          	ld	a4,552(sp)
    80002752:	cd81                	beqz	a1,8000276a <bilateral_core+0x574>
    80002754:	018405b3          	add	a1,s0,s8
    80002758:	0ff78693          	addi	a3,a5,255
    8000275c:	8df5                	and	a1,a1,a3
    8000275e:	058e                	slli	a1,a1,0x3
    80002760:	95aa                	add	a1,a1,a0
    80002762:	0005b383          	ld	t2,0(a1)
    80002766:	00063883          	ld	a7,0(a2)
    8000276a:	4f81                	li	t6,0
    8000276c:	4f01                	li	t5,0
    8000276e:	4e01                	li	t3,0
    80002770:	4e81                	li	t4,0
    80002772:	4901                	li	s2,0
    80002774:	4a01                	li	s4,0
    80002776:	25013283          	ld	t0,592(sp)
    8000277a:	23013303          	ld	t1,560(sp)
    8000277e:	e0b1                	bnez	s1,800027c2 <bilateral_core+0x5cc>
    80002780:	01a405b3          	add	a1,s0,s10
    80002784:	0f078693          	addi	a3,a5,240
    80002788:	8df5                	and	a1,a1,a3
    8000278a:	058e                	slli	a1,a1,0x3
    8000278c:	95aa                	add	a1,a1,a0
    8000278e:	0005be03          	ld	t3,0(a1)
    80002792:	00863e83          	ld	t4,8(a2)
    80002796:	20813583          	ld	a1,520(sp)
    8000279a:	76fe                	ld	a3,504(sp)
    8000279c:	95b6                	add	a1,a1,a3
    8000279e:	058e                	slli	a1,a1,0x3
    800027a0:	95aa                	add	a1,a1,a0
    800027a2:	0005bf03          	ld	t5,0(a1)
    800027a6:	01063f83          	ld	t6,16(a2)
    800027aa:	21813583          	ld	a1,536(sp)
    800027ae:	95a2                	add	a1,a1,s0
    800027b0:	0f278693          	addi	a3,a5,242
    800027b4:	8df5                	and	a1,a1,a3
    800027b6:	058e                	slli	a1,a1,0x3
    800027b8:	95aa                	add	a1,a1,a0
    800027ba:	0005b903          	ld	s2,0(a1)
    800027be:	01863a03          	ld	s4,24(a2)
    800027c2:	4a81                	li	s5,0
    800027c4:	4b01                	li	s6,0
    800027c6:	ec89                	bnez	s1,800027e0 <bilateral_core+0x5ea>
    800027c8:	003d6593          	ori	a1,s10,3
    800027cc:	95a2                	add	a1,a1,s0
    800027ce:	0f378693          	addi	a3,a5,243
    800027d2:	8df5                	and	a1,a1,a3
    800027d4:	058e                	slli	a1,a1,0x3
    800027d6:	95aa                	add	a1,a1,a0
    800027d8:	0005ba83          	ld	s5,0(a1)
    800027dc:	02063b03          	ld	s6,32(a2)
    800027e0:	4401                	li	s0,0
    800027e2:	4b81                	li	s7,0
    800027e4:	65fe                	ld	a1,472(sp)
    800027e6:	c999                	beqz	a1,800027fc <bilateral_core+0x606>
    800027e8:	018305b3          	add	a1,t1,s8
    800027ec:	0ff78693          	addi	a3,a5,255
    800027f0:	8df5                	and	a1,a1,a3
    800027f2:	058e                	slli	a1,a1,0x3
    800027f4:	95aa                	add	a1,a1,a0
    800027f6:	6180                	ld	s0,0(a1)
    800027f8:	02863b83          	ld	s7,40(a2)
    800027fc:	4981                	li	s3,0
    800027fe:	4c81                	li	s9,0
    80002800:	4d81                	li	s11,0
    80002802:	4081                	li	ra,0
    80002804:	24013483          	ld	s1,576(sp)
    80002808:	e48d                	bnez	s1,80002832 <bilateral_core+0x63c>
    8000280a:	01a305b3          	add	a1,t1,s10
    8000280e:	0f078693          	addi	a3,a5,240
    80002812:	8df5                	and	a1,a1,a3
    80002814:	058e                	slli	a1,a1,0x3
    80002816:	95aa                	add	a1,a1,a0
    80002818:	0005bc83          	ld	s9,0(a1)
    8000281c:	03063983          	ld	s3,48(a2)
    80002820:	65fa                	ld	a1,408(sp)
    80002822:	76fe                	ld	a3,504(sp)
    80002824:	95b6                	add	a1,a1,a3
    80002826:	058e                	slli	a1,a1,0x3
    80002828:	95aa                	add	a1,a1,a0
    8000282a:	0005bd83          	ld	s11,0(a1)
    8000282e:	03863083          	ld	ra,56(a2)
    80002832:	e782                	sd	zero,456(sp)
    80002834:	eb82                	sd	zero,464(sp)
    80002836:	4581                	li	a1,0
    80002838:	4681                	li	a3,0
    8000283a:	e49d                	bnez	s1,80002868 <bilateral_core+0x672>
    8000283c:	21813583          	ld	a1,536(sp)
    80002840:	959a                	add	a1,a1,t1
    80002842:	0f278693          	addi	a3,a5,242
    80002846:	8df5                	and	a1,a1,a3
    80002848:	058e                	slli	a1,a1,0x3
    8000284a:	95aa                	add	a1,a1,a0
    8000284c:	618c                	ld	a1,0(a1)
    8000284e:	ebae                	sd	a1,464(sp)
    80002850:	622c                	ld	a1,64(a2)
    80002852:	e7ae                	sd	a1,456(sp)
    80002854:	003d6593          	ori	a1,s10,3
    80002858:	959a                	add	a1,a1,t1
    8000285a:	0f378693          	addi	a3,a5,243
    8000285e:	8df5                	and	a1,a1,a3
    80002860:	058e                	slli	a1,a1,0x3
    80002862:	95aa                	add	a1,a1,a0
    80002864:	618c                	ld	a1,0(a1)
    80002866:	6634                	ld	a3,72(a2)
    80002868:	f372                	sd	t3,416(sp)
    8000286a:	f69e                	sd	t2,360(sp)
    8000286c:	e6d6                	sd	s5,328(sp)
    8000286e:	e2fa                	sd	t5,320(sp)
    80002870:	fa22                	sd	s0,304(sp)
    80002872:	f64a                	sd	s2,296(sp)
    80002874:	f276                	sd	t4,288(sp)
    80002876:	ee46                	sd	a7,280(sp)
    80002878:	ea2e                	sd	a1,272(sp)
    8000287a:	e636                	sd	a3,264(sp)
    8000287c:	833a                	mv	t1,a4
    8000287e:	000d0e63          	beqz	s10,8000289a <bilateral_core+0x6a4>
    80002882:	018285b3          	add	a1,t0,s8
    80002886:	0ff78693          	addi	a3,a5,255
    8000288a:	8df5                	and	a1,a1,a3
    8000288c:	058e                	slli	a1,a1,0x3
    8000288e:	95aa                	add	a1,a1,a0
    80002890:	618c                	ld	a1,0(a1)
    80002892:	edae                	sd	a1,216(sp)
    80002894:	6a2c                	ld	a1,80(a2)
    80002896:	e9ae                	sd	a1,208(sp)
    80002898:	a019                	j	8000289e <bilateral_core+0x6a8>
    8000289a:	ed82                	sd	zero,216(sp)
    8000289c:	e982                	sd	zero,208(sp)
    8000289e:	0f078593          	addi	a1,a5,240
    800028a2:	20b13023          	sd	a1,512(sp)
    800028a6:	25813683          	ld	a3,600(sp)
    800028aa:	8df5                	and	a1,a1,a3
    800028ac:	058e                	slli	a1,a1,0x3
    800028ae:	00b50433          	add	s0,a0,a1
    800028b2:	00043a83          	ld	s5,0(s0)
    800028b6:	05863e03          	ld	t3,88(a2)
    800028ba:	06063e83          	ld	t4,96(a2)
    800028be:	21013583          	ld	a1,528(sp)
    800028c2:	0005b883          	ld	a7,0(a1)
    800028c6:	06863383          	ld	t2,104(a2)
    800028ca:	003d6593          	ori	a1,s10,3
    800028ce:	f7ae                	sd	a1,488(sp)
    800028d0:	9596                	add	a1,a1,t0
    800028d2:	00359693          	slli	a3,a1,0x3
    800028d6:	00d504b3          	add	s1,a0,a3
    800028da:	6098                	ld	a4,0(s1)
    800028dc:	7a3c                	ld	a5,112(a2)
    800028de:	f72e                	sd	a1,424(sp)
    800028e0:	feb6                	sd	a3,376(sp)
    800028e2:	eaa6                	sd	s1,336(sp)
    800028e4:	e322                	sd	s0,384(sp)
    800028e6:	e21e                	sd	t2,256(sp)
    800028e8:	fdba                	sd	a4,248(sp)
    800028ea:	f9c6                	sd	a7,240(sp)
    800028ec:	f5be                	sd	a5,232(sp)
    800028ee:	f1f2                	sd	t3,224(sp)
    800028f0:	000d0d63          	beqz	s10,8000290a <bilateral_core+0x714>
    800028f4:	8d4e                	mv	s10,s3
    800028f6:	87de                	mv	a5,s7
    800028f8:	871a                	mv	a4,t1
    800028fa:	018305b3          	add	a1,t1,s8
    800028fe:	058e                	slli	a1,a1,0x3
    80002900:	95aa                	add	a1,a1,a0
    80002902:	6194                	ld	a3,0(a1)
    80002904:	07863283          	ld	t0,120(a2)
    80002908:	a031                	j	80002914 <bilateral_core+0x71e>
    8000290a:	8d4e                	mv	s10,s3
    8000290c:	87de                	mv	a5,s7
    8000290e:	4681                	li	a3,0
    80002910:	4281                	li	t0,0
    80002912:	871a                	mv	a4,t1
    80002914:	7596                	ld	a1,352(sp)
    80002916:	0005b883          	ld	a7,0(a1)
    8000291a:	08063303          	ld	t1,128(a2)
    8000291e:	75de                	ld	a1,496(sp)
    80002920:	0005bb83          	ld	s7,0(a1)
    80002924:	08863903          	ld	s2,136(a2)
    80002928:	759e                	ld	a1,480(sp)
    8000292a:	0005bf03          	ld	t5,0(a1)
    8000292e:	09063383          	ld	t2,144(a2)
    80002932:	75be                	ld	a1,488(sp)
    80002934:	95ba                	add	a1,a1,a4
    80002936:	058e                	slli	a1,a1,0x3
    80002938:	95aa                	add	a1,a1,a0
    8000293a:	efae                	sd	a1,472(sp)
    8000293c:	0005be03          	ld	t3,0(a1)
    80002940:	6e4c                	ld	a1,152(a2)
    80002942:	26813703          	ld	a4,616(sp)
    80002946:	cf01                	beqz	a4,8000295e <bilateral_core+0x768>
    80002948:	23813403          	ld	s0,568(sp)
    8000294c:	01840733          	add	a4,s0,s8
    80002950:	070e                	slli	a4,a4,0x3
    80002952:	972a                	add	a4,a4,a0
    80002954:	00073c03          	ld	s8,0(a4)
    80002958:	0a063983          	ld	s3,160(a2)
    8000295c:	a029                	j	80002966 <bilateral_core+0x770>
    8000295e:	4c01                	li	s8,0
    80002960:	4981                	li	s3,0
    80002962:	23813403          	ld	s0,568(sp)
    80002966:	814f848b          	.insn	4, 0x814f848b
    8000296a:	7712                	ld	a4,288(sp)
    8000296c:	64f2                	ld	s1,280(sp)
    8000296e:	60e4848b          	.insn	4, 0x60e4848b
    80002972:	6716                	ld	a4,320(sp)
    80002974:	74b2                	ld	s1,296(sp)
    80002976:	4097048b          	.insn	4, 0x4097048b
    8000297a:	771a                	ld	a4,416(sp)
    8000297c:	74b6                	ld	s1,360(sp)
    8000297e:	20e4848b          	.insn	4, 0x20e4848b
    80002982:	28013703          	ld	a4,640(sp)
    80002986:	00e814fb          	.insn	4, 0x00e814fb
    8000298a:	00948a2b          	.insn	4, 0x00948a2b
    8000298e:	f2048153          	fmv.d.x	ft2,s1
    80002992:	02017153          	fadd.d	ft2,ft2,ft0
    80002996:	841d048b          	.insn	4, 0x841d048b
    8000299a:	64fb048b          	.insn	4, 0x64fb048b
    8000299e:	45bc848b          	.insn	4, 0x45bc848b
    800029a2:	64b6                	ld	s1,328(sp)
    800029a4:	77d2                	ld	a5,304(sp)
    800029a6:	24f4848b          	.insn	4, 0x24f4848b
    800029aa:	40e814fb          	.insn	4, 0x40e814fb
    800029ae:	04948b2b          	.insn	4, 0x04948b2b
    800029b2:	f20481d3          	fmv.d.x	ft3,s1
    800029b6:	02317153          	fadd.d	ft2,ft2,ft3
    800029ba:	67ce                	ld	a5,208(sp)
    800029bc:	748e                	ld	s1,224(sp)
    800029be:	8897848b          	.insn	4, 0x8897848b
    800029c2:	67be                	ld	a5,456(sp)
    800029c4:	64b2                	ld	s1,264(sp)
    800029c6:	6897848b          	.insn	4, 0x6897848b
    800029ca:	67ee                	ld	a5,216(sp)
    800029cc:	4957878b          	.insn	4, 0x4957878b
    800029d0:	67de                	ld	a5,464(sp)
    800029d2:	64d2                	ld	s1,272(sp)
    800029d4:	2897878b          	.insn	4, 0x2897878b
    800029d8:	80e814fb          	.insn	4, 0x80e814fb
    800029dc:	08948fab          	.insn	4, 0x08948fab
    800029e0:	f20481d3          	fmv.d.x	ft3,s1
    800029e4:	02317153          	fadd.d	ft2,ft2,ft3
    800029e8:	77ae                	ld	a5,232(sp)
    800029ea:	8c57848b          	.insn	4, 0x8c57848b
    800029ee:	6792                	ld	a5,256(sp)
    800029f0:	6cfe848b          	.insn	4, 0x6cfe848b
    800029f4:	77ee                	ld	a5,248(sp)
    800029f6:	4cd7868b          	.insn	4, 0x4cd7868b
    800029fa:	76ce                	ld	a3,240(sp)
    800029fc:	2cd8068b          	.insn	4, 0x2cd8068b
    80002a00:	c0e814fb          	.insn	4, 0xc0e814fb
    80002a04:	0c9482ab          	.insn	4, 0x0c9482ab
    80002a08:	f20481d3          	fmv.d.x	ft3,s1
    80002a0c:	02317153          	fadd.d	ft2,ft2,ft3
    80002a10:	9cb3858b          	.insn	4, 0x9cb3858b
    80002a14:	7d23058b          	.insn	4, 0x7d23058b
    80002a18:	5dcf058b          	.insn	4, 0x5dcf058b
    80002a1c:	3d78858b          	.insn	4, 0x3d78858b
    80002a20:	c0e815fb          	.insn	4, 0xc0e815fb
    80002a24:	f20581d3          	fmv.d.x	ft3,a1
    80002a28:	02317153          	fadd.d	ft2,ft2,ft3
    80002a2c:	75f2                	ld	a1,312(sp)
    80002a2e:	618c                	ld	a1,0(a1)
    80002a30:	7644                	ld	s1,168(a2)
    80002a32:	669e                	ld	a3,448(sp)
    80002a34:	629c                	ld	a5,0(a3)
    80002a36:	7a54                	ld	a3,176(a2)
    80002a38:	21813703          	ld	a4,536(sp)
    80002a3c:	9722                	add	a4,a4,s0
    80002a3e:	070e                	slli	a4,a4,0x3
    80002a40:	972a                	add	a4,a4,a0
    80002a42:	f33a                	sd	a4,416(sp)
    80002a44:	6318                	ld	a4,0(a4)
    80002a46:	7e40                	ld	s0,184(a2)
    80002a48:	3cbc05db          	.insn	4, 0x3cbc05db
    80002a4c:	7c99848b          	.insn	4, 0x7c99848b
    80002a50:	5ce7870b          	.insn	4, 0x5ce7870b
    80002a54:	d08696fb          	.insn	4, 0xd08696fb
    80002a58:	f20681d3          	fmv.d.x	ft3,a3
    80002a5c:	02317153          	fadd.d	ft2,ft2,ft3
    80002a60:	25813683          	ld	a3,600(sp)
    80002a64:	20368693          	addi	a3,a3,515
    80002a68:	068e                	slli	a3,a3,0x3
    80002a6a:	96aa                	add	a3,a3,a0
    80002a6c:	6294                	ld	a3,0(a3)
    80002a6e:	627c                	ld	a5,192(a2)
    80002a70:	3c06875b          	.insn	4, 0x3c06875b
    80002a74:	cc0796fb          	.insn	4, 0xcc0796fb
    80002a78:	1cd684ab          	.insn	4, 0x1cd684ab
    80002a7c:	f20681d3          	fmv.d.x	ft3,a3
    80002a80:	02317153          	fadd.d	ft2,ft2,ft3
    80002a84:	a22096d3          	flt.d	a3,ft1,ft2
    80002a88:	c2a9                	beqz	a3,80002aca <bilateral_core+0x8d4>
    80002a8a:	f20a01d3          	fmv.d.x	ft3,s4
    80002a8e:	0201f1d3          	fadd.d	ft3,ft3,ft0
    80002a92:	f20b0253          	fmv.d.x	ft4,s6
    80002a96:	0241f1d3          	fadd.d	ft3,ft3,ft4
    80002a9a:	f20f8253          	fmv.d.x	ft4,t6
    80002a9e:	0241f1d3          	fadd.d	ft3,ft3,ft4
    80002aa2:	f2028253          	fmv.d.x	ft4,t0
    80002aa6:	0241f1d3          	fadd.d	ft3,ft3,ft4
    80002aaa:	f2058253          	fmv.d.x	ft4,a1
    80002aae:	0241f1d3          	fadd.d	ft3,ft3,ft4
    80002ab2:	f2070253          	fmv.d.x	ft4,a4
    80002ab6:	0241f1d3          	fadd.d	ft3,ft3,ft4
    80002aba:	f2048253          	fmv.d.x	ft4,s1
    80002abe:	0241f1d3          	fadd.d	ft3,ft3,ft4
    80002ac2:	1a21f153          	fdiv.d	ft2,ft3,ft2
    80002ac6:	e2010853          	fmv.x.d	a6,ft2
    80002aca:	27813583          	ld	a1,632(sp)
    80002ace:	66da                	ld	a3,400(sp)
    80002ad0:	95b6                	add	a1,a1,a3
    80002ad2:	0105b023          	sd	a6,0(a1)
    80002ad6:	21013583          	ld	a1,528(sp)
    80002ada:	0005bd83          	ld	s11,0(a1)
    80002ade:	4e01                	li	t3,0
    80002ae0:	4301                	li	t1,0
    80002ae2:	4881                	li	a7,0
    80002ae4:	4801                	li	a6,0
    80002ae6:	4281                	li	t0,0
    80002ae8:	4381                	li	t2,0
    80002aea:	4e81                	li	t4,0
    80002aec:	4f01                	li	t5,0
    80002aee:	24813083          	ld	ra,584(sp)
    80002af2:	26013703          	ld	a4,608(sp)
    80002af6:	22013783          	ld	a5,544(sp)
    80002afa:	26813483          	ld	s1,616(sp)
    80002afe:	ef29                	bnez	a4,80002b58 <bilateral_core+0x962>
    80002b00:	009785b3          	add	a1,a5,s1
    80002b04:	20013683          	ld	a3,512(sp)
    80002b08:	8df5                	and	a1,a1,a3
    80002b0a:	058e                	slli	a1,a1,0x3
    80002b0c:	95aa                	add	a1,a1,a0
    80002b0e:	0005b803          	ld	a6,0(a1)
    80002b12:	00063883          	ld	a7,0(a2)
    80002b16:	75fe                	ld	a1,504(sp)
    80002b18:	95be                	add	a1,a1,a5
    80002b1a:	0f108693          	addi	a3,ra,241
    80002b1e:	8df5                	and	a1,a1,a3
    80002b20:	058e                	slli	a1,a1,0x3
    80002b22:	95aa                	add	a1,a1,a0
    80002b24:	0005b283          	ld	t0,0(a1)
    80002b28:	00863383          	ld	t2,8(a2)
    80002b2c:	20813583          	ld	a1,520(sp)
    80002b30:	21813683          	ld	a3,536(sp)
    80002b34:	95b6                	add	a1,a1,a3
    80002b36:	058e                	slli	a1,a1,0x3
    80002b38:	95aa                	add	a1,a1,a0
    80002b3a:	0005b303          	ld	t1,0(a1)
    80002b3e:	01063e03          	ld	t3,16(a2)
    80002b42:	75be                	ld	a1,488(sp)
    80002b44:	95be                	add	a1,a1,a5
    80002b46:	0f308693          	addi	a3,ra,243
    80002b4a:	8df5                	and	a1,a1,a3
    80002b4c:	058e                	slli	a1,a1,0x3
    80002b4e:	95aa                	add	a1,a1,a0
    80002b50:	0005be83          	ld	t4,0(a1)
    80002b54:	01863f03          	ld	t5,24(a2)
    80002b58:	4f81                	li	t6,0
    80002b5a:	4981                	li	s3,0
    80002b5c:	24013403          	ld	s0,576(sp)
    80002b60:	ef09                	bnez	a4,80002b7a <bilateral_core+0x984>
    80002b62:	0044e593          	ori	a1,s1,4
    80002b66:	95be                	add	a1,a1,a5
    80002b68:	0f408693          	addi	a3,ra,244
    80002b6c:	8df5                	and	a1,a1,a3
    80002b6e:	058e                	slli	a1,a1,0x3
    80002b70:	95aa                	add	a1,a1,a0
    80002b72:	0005bf83          	ld	t6,0(a1)
    80002b76:	02063983          	ld	s3,32(a2)
    80002b7a:	4b81                	li	s7,0
    80002b7c:	4b01                	li	s6,0
    80002b7e:	4a01                	li	s4,0
    80002b80:	4a81                	li	s5,0
    80002b82:	4c81                	li	s9,0
    80002b84:	4781                	li	a5,0
    80002b86:	e039                	bnez	s0,80002bcc <bilateral_core+0x9d6>
    80002b88:	23013703          	ld	a4,560(sp)
    80002b8c:	26813583          	ld	a1,616(sp)
    80002b90:	95ba                	add	a1,a1,a4
    80002b92:	20013683          	ld	a3,512(sp)
    80002b96:	8df5                	and	a1,a1,a3
    80002b98:	058e                	slli	a1,a1,0x3
    80002b9a:	95aa                	add	a1,a1,a0
    80002b9c:	0005ba03          	ld	s4,0(a1)
    80002ba0:	02863a83          	ld	s5,40(a2)
    80002ba4:	75fe                	ld	a1,504(sp)
    80002ba6:	95ba                	add	a1,a1,a4
    80002ba8:	0f108693          	addi	a3,ra,241
    80002bac:	8df5                	and	a1,a1,a3
    80002bae:	058e                	slli	a1,a1,0x3
    80002bb0:	95aa                	add	a1,a1,a0
    80002bb2:	0005bb03          	ld	s6,0(a1)
    80002bb6:	03063b83          	ld	s7,48(a2)
    80002bba:	65fa                	ld	a1,408(sp)
    80002bbc:	21813683          	ld	a3,536(sp)
    80002bc0:	95b6                	add	a1,a1,a3
    80002bc2:	058e                	slli	a1,a1,0x3
    80002bc4:	95aa                	add	a1,a1,a0
    80002bc6:	0005bc83          	ld	s9,0(a1)
    80002bca:	7e1c                	ld	a5,56(a2)
    80002bcc:	4d01                	li	s10,0
    80002bce:	4c01                	li	s8,0
    80002bd0:	4581                	li	a1,0
    80002bd2:	4701                	li	a4,0
    80002bd4:	e815                	bnez	s0,80002c08 <bilateral_core+0xa12>
    80002bd6:	23013683          	ld	a3,560(sp)
    80002bda:	75be                	ld	a1,488(sp)
    80002bdc:	95b6                	add	a1,a1,a3
    80002bde:	0f308713          	addi	a4,ra,243
    80002be2:	8df9                	and	a1,a1,a4
    80002be4:	058e                	slli	a1,a1,0x3
    80002be6:	95aa                	add	a1,a1,a0
    80002be8:	0005bc03          	ld	s8,0(a1)
    80002bec:	04063d03          	ld	s10,64(a2)
    80002bf0:	26813583          	ld	a1,616(sp)
    80002bf4:	0045e593          	ori	a1,a1,4
    80002bf8:	95b6                	add	a1,a1,a3
    80002bfa:	0f408713          	addi	a4,ra,244
    80002bfe:	8df9                	and	a1,a1,a4
    80002c00:	058e                	slli	a1,a1,0x3
    80002c02:	95aa                	add	a1,a1,a0
    80002c04:	618c                	ld	a1,0(a1)
    80002c06:	6638                	ld	a4,72(a2)
    80002c08:	81ee068b          	.insn	4, 0x81ee068b
    80002c0c:	6078868b          	.insn	4, 0x6078868b
    80002c10:	41d3068b          	.insn	4, 0x41d3068b
    80002c14:	2058068b          	.insn	4, 0x2058068b
    80002c18:	28013403          	ld	s0,640(sp)
    80002c1c:	008d96fb          	.insn	4, 0x008d96fb
    80002c20:	00d6832b          	.insn	4, 0x00d6832b
    80002c24:	f2068153          	fmv.d.x	ft2,a3
    80002c28:	02017153          	fadd.d	ft2,ft2,ft0
    80002c2c:	84fb868b          	.insn	4, 0x84fb868b
    80002c30:	6559868b          	.insn	4, 0x6559868b
    80002c34:	459b068b          	.insn	4, 0x459b068b
    80002c38:	254f868b          	.insn	4, 0x254f868b
    80002c3c:	408d96fb          	.insn	4, 0x408d96fb
    80002c40:	04d682ab          	.insn	4, 0x04d682ab
    80002c44:	f20681d3          	fmv.d.x	ft3,a3
    80002c48:	02317153          	fadd.d	ft2,ft2,ft3
    80002c4c:	669a                	ld	a3,384(sp)
    80002c4e:	6294                	ld	a3,0(a3)
    80002c50:	05063803          	ld	a6,80(a2)
    80002c54:	0f108793          	addi	a5,ra,241
    80002c58:	20f13823          	sd	a5,528(sp)
    80002c5c:	74fa                	ld	s1,440(sp)
    80002c5e:	8fe5                	and	a5,a5,s1
    80002c60:	078e                	slli	a5,a5,0x3
    80002c62:	00f508b3          	add	a7,a0,a5
    80002c66:	0008b783          	ld	a5,0(a7)
    80002c6a:	6e24                	ld	s1,88(a2)
    80002c6c:	68ed070b          	.insn	4, 0x68ed070b
    80002c70:	28bc058b          	.insn	4, 0x28bc058b
    80002c74:	088d858b          	.insn	4, 0x088d858b
    80002c78:	48f6858b          	.insn	4, 0x48f6858b
    80002c7c:	909816fb          	.insn	4, 0x909816fb
    80002c80:	08d683ab          	.insn	4, 0x08d683ab
    80002c84:	f20681d3          	fmv.d.x	ft3,a3
    80002c88:	02317153          	fadd.d	ft2,ft2,ft3
    80002c8c:	06063e03          	ld	t3,96(a2)
    80002c90:	6ad6                	ld	s5,336(sp)
    80002c92:	000abe83          	ld	t4,0(s5)
    80002c96:	06863f03          	ld	t5,104(a2)
    80002c9a:	26813a03          	ld	s4,616(sp)
    80002c9e:	004a6793          	ori	a5,s4,4
    80002ca2:	25013583          	ld	a1,592(sp)
    80002ca6:	95be                	add	a1,a1,a5
    80002ca8:	e32e                	sd	a1,384(sp)
    80002caa:	058e                	slli	a1,a1,0x3
    80002cac:	f6ae                	sd	a1,360(sp)
    80002cae:	00b50833          	add	a6,a0,a1
    80002cb2:	00083483          	ld	s1,0(a6)
    80002cb6:	07063f83          	ld	t6,112(a2)
    80002cba:	7596                	ld	a1,352(sp)
    80002cbc:	618c                	ld	a1,0(a1)
    80002cbe:	7e34                	ld	a3,120(a2)
    80002cc0:	0c8d870b          	.insn	4, 0x0c8d870b
    80002cc4:	2ddd870b          	.insn	4, 0x2ddd870b
    80002cc8:	6dee070b          	.insn	4, 0x6dee070b
    80002ccc:	4cb4858b          	.insn	4, 0x4cb4858b
    80002cd0:	d0df95fb          	.insn	4, 0xd0df95fb
    80002cd4:	0cb58e2b          	.insn	4, 0x0cb58e2b
    80002cd8:	f20581d3          	fmv.d.x	ft3,a1
    80002cdc:	02317153          	fadd.d	ft2,ft2,ft3
    80002ce0:	75de                	ld	a1,496(sp)
    80002ce2:	0005be83          	ld	t4,0(a1)
    80002ce6:	08063f03          	ld	t5,128(a2)
    80002cea:	759e                	ld	a1,480(sp)
    80002cec:	0005b983          	ld	s3,0(a1)
    80002cf0:	6644                	ld	s1,136(a2)
    80002cf2:	65fe                	ld	a1,472(sp)
    80002cf4:	0005b903          	ld	s2,0(a1)
    80002cf8:	09063f83          	ld	t6,144(a2)
    80002cfc:	22813583          	ld	a1,552(sp)
    80002d00:	ff3e                	sd	a5,440(sp)
    80002d02:	95be                	add	a1,a1,a5
    80002d04:	058e                	slli	a1,a1,0x3
    80002d06:	95aa                	add	a1,a1,a0
    80002d08:	ebae                	sd	a1,464(sp)
    80002d0a:	618c                	ld	a1,0(a1)
    80002d0c:	6e54                	ld	a3,152(a2)
    80002d0e:	1c8d870b          	.insn	4, 0x1c8d870b
    80002d12:	3d3e870b          	.insn	4, 0x3d3e870b
    80002d16:	7c9f070b          	.insn	4, 0x7c9f070b
    80002d1a:	5cb9058b          	.insn	4, 0x5cb9058b
    80002d1e:	d0df95fb          	.insn	4, 0xd0df95fb
    80002d22:	f20581d3          	fmv.d.x	ft3,a1
    80002d26:	02317153          	fadd.d	ft2,ft2,ft3
    80002d2a:	75f2                	ld	a1,312(sp)
    80002d2c:	0005be83          	ld	t4,0(a1)
    80002d30:	0a063f03          	ld	t5,160(a2)
    80002d34:	659e                	ld	a1,448(sp)
    80002d36:	6198                	ld	a4,0(a1)
    80002d38:	7644                	ld	s1,168(a2)
    80002d3a:	759a                	ld	a1,416(sp)
    80002d3c:	6180                	ld	s0,0(a1)
    80002d3e:	7a5c                	ld	a5,176(a2)
    80002d40:	23813583          	ld	a1,568(sp)
    80002d44:	76be                	ld	a3,488(sp)
    80002d46:	95b6                	add	a1,a1,a3
    80002d48:	058e                	slli	a1,a1,0x3
    80002d4a:	95aa                	add	a1,a1,a0
    80002d4c:	eb2e                	sd	a1,400(sp)
    80002d4e:	618c                	ld	a1,0(a1)
    80002d50:	7e54                	ld	a3,184(a2)
    80002d52:	3cee875b          	.insn	4, 0x3cee875b
    80002d56:	7c9f048b          	.insn	4, 0x7c9f048b
    80002d5a:	5cb4058b          	.insn	4, 0x5cb4058b
    80002d5e:	d0d795fb          	.insn	4, 0xd0d795fb
    80002d62:	f20581d3          	fmv.d.x	ft3,a1
    80002d66:	02317153          	fadd.d	ft2,ft2,ft3
    80002d6a:	25813583          	ld	a1,600(sp)
    80002d6e:	20458593          	addi	a1,a1,516
    80002d72:	058e                	slli	a1,a1,0x3
    80002d74:	95aa                	add	a1,a1,a0
    80002d76:	618c                	ld	a1,0(a1)
    80002d78:	6274                	ld	a3,192(a2)
    80002d7a:	3c05845b          	.insn	4, 0x3c05845b
    80002d7e:	cc0695fb          	.insn	4, 0xcc0695fb
    80002d82:	1cb586ab          	.insn	4, 0x1cb586ab
    80002d86:	f20581d3          	fmv.d.x	ft3,a1
    80002d8a:	02317153          	fadd.d	ft2,ft2,ft3
    80002d8e:	a22095d3          	flt.d	a1,ft1,ft2
    80002d92:	c1a9                	beqz	a1,80002dd4 <bilateral_core+0xbde>
    80002d94:	f20301d3          	fmv.d.x	ft3,t1
    80002d98:	0201f1d3          	fadd.d	ft3,ft3,ft0
    80002d9c:	f2028253          	fmv.d.x	ft4,t0
    80002da0:	0241f1d3          	fadd.d	ft3,ft3,ft4
    80002da4:	f2038253          	fmv.d.x	ft4,t2
    80002da8:	0241f1d3          	fadd.d	ft3,ft3,ft4
    80002dac:	f20e0253          	fmv.d.x	ft4,t3
    80002db0:	0241f1d3          	fadd.d	ft3,ft3,ft4
    80002db4:	f2070253          	fmv.d.x	ft4,a4
    80002db8:	0241f1d3          	fadd.d	ft3,ft3,ft4
    80002dbc:	f2040253          	fmv.d.x	ft4,s0
    80002dc0:	0241f1d3          	fadd.d	ft3,ft3,ft4
    80002dc4:	f2068253          	fmv.d.x	ft4,a3
    80002dc8:	0241f1d3          	fadd.d	ft3,ft3,ft4
    80002dcc:	1a21f153          	fdiv.d	ft2,ft3,ft2
    80002dd0:	e2010dd3          	fmv.x.d	s11,ft2
    80002dd4:	27813583          	ld	a1,632(sp)
    80002dd8:	66ba                	ld	a3,392(sp)
    80002dda:	95b6                	add	a1,a1,a3
    80002ddc:	01b5b023          	sd	s11,0(a1)
    80002de0:	000ab903          	ld	s2,0(s5)
    80002de4:	4f81                	li	t6,0
    80002de6:	4e81                	li	t4,0
    80002de8:	4381                	li	t2,0
    80002dea:	4301                	li	t1,0
    80002dec:	4e01                	li	t3,0
    80002dee:	4f01                	li	t5,0
    80002df0:	4981                	li	s3,0
    80002df2:	4a81                	li	s5,0
    80002df4:	26013783          	ld	a5,608(sp)
    80002df8:	efb9                	bnez	a5,80002e56 <bilateral_core+0xc60>
    80002dfa:	22013703          	ld	a4,544(sp)
    80002dfe:	75fe                	ld	a1,504(sp)
    80002e00:	95ba                	add	a1,a1,a4
    80002e02:	21013683          	ld	a3,528(sp)
    80002e06:	8df5                	and	a1,a1,a3
    80002e08:	058e                	slli	a1,a1,0x3
    80002e0a:	95aa                	add	a1,a1,a0
    80002e0c:	0005b303          	ld	t1,0(a1)
    80002e10:	00063383          	ld	t2,0(a2)
    80002e14:	21813583          	ld	a1,536(sp)
    80002e18:	95ba                	add	a1,a1,a4
    80002e1a:	0f208693          	addi	a3,ra,242
    80002e1e:	8df5                	and	a1,a1,a3
    80002e20:	058e                	slli	a1,a1,0x3
    80002e22:	95aa                	add	a1,a1,a0
    80002e24:	0005be03          	ld	t3,0(a1)
    80002e28:	00863f03          	ld	t5,8(a2)
    80002e2c:	20813583          	ld	a1,520(sp)
    80002e30:	76be                	ld	a3,488(sp)
    80002e32:	95b6                	add	a1,a1,a3
    80002e34:	058e                	slli	a1,a1,0x3
    80002e36:	95aa                	add	a1,a1,a0
    80002e38:	0005be83          	ld	t4,0(a1)
    80002e3c:	01063f83          	ld	t6,16(a2)
    80002e40:	75fa                	ld	a1,440(sp)
    80002e42:	95ba                	add	a1,a1,a4
    80002e44:	0f408693          	addi	a3,ra,244
    80002e48:	8df5                	and	a1,a1,a3
    80002e4a:	058e                	slli	a1,a1,0x3
    80002e4c:	95aa                	add	a1,a1,a0
    80002e4e:	0005b983          	ld	s3,0(a1)
    80002e52:	01863a83          	ld	s5,24(a2)
    80002e56:	4b01                	li	s6,0
    80002e58:	4b81                	li	s7,0
    80002e5a:	24013703          	ld	a4,576(sp)
    80002e5e:	ef99                	bnez	a5,80002e7c <bilateral_core+0xc86>
    80002e60:	005a6593          	ori	a1,s4,5
    80002e64:	22013683          	ld	a3,544(sp)
    80002e68:	95b6                	add	a1,a1,a3
    80002e6a:	0f508693          	addi	a3,ra,245
    80002e6e:	8df5                	and	a1,a1,a3
    80002e70:	058e                	slli	a1,a1,0x3
    80002e72:	95aa                	add	a1,a1,a0
    80002e74:	0005bb03          	ld	s6,0(a1)
    80002e78:	02063b83          	ld	s7,32(a2)
    80002e7c:	4d81                	li	s11,0
    80002e7e:	4d01                	li	s10,0
    80002e80:	4c01                	li	s8,0
    80002e82:	4c81                	li	s9,0
    80002e84:	4681                	li	a3,0
    80002e86:	4401                	li	s0,0
    80002e88:	e329                	bnez	a4,80002eca <bilateral_core+0xcd4>
    80002e8a:	23013783          	ld	a5,560(sp)
    80002e8e:	75fe                	ld	a1,504(sp)
    80002e90:	95be                	add	a1,a1,a5
    80002e92:	21013683          	ld	a3,528(sp)
    80002e96:	8df5                	and	a1,a1,a3
    80002e98:	058e                	slli	a1,a1,0x3
    80002e9a:	95aa                	add	a1,a1,a0
    80002e9c:	0005bc03          	ld	s8,0(a1)
    80002ea0:	02863c83          	ld	s9,40(a2)
    80002ea4:	21813583          	ld	a1,536(sp)
    80002ea8:	95be                	add	a1,a1,a5
    80002eaa:	0f208693          	addi	a3,ra,242
    80002eae:	8df5                	and	a1,a1,a3
    80002eb0:	058e                	slli	a1,a1,0x3
    80002eb2:	95aa                	add	a1,a1,a0
    80002eb4:	0005bd03          	ld	s10,0(a1)
    80002eb8:	03063d83          	ld	s11,48(a2)
    80002ebc:	65fa                	ld	a1,408(sp)
    80002ebe:	76be                	ld	a3,488(sp)
    80002ec0:	95b6                	add	a1,a1,a3
    80002ec2:	058e                	slli	a1,a1,0x3
    80002ec4:	95aa                	add	a1,a1,a0
    80002ec6:	6194                	ld	a3,0(a1)
    80002ec8:	7e00                	ld	s0,56(a2)
    80002eca:	4081                	li	ra,0
    80002ecc:	4281                	li	t0,0
    80002ece:	4781                	li	a5,0
    80002ed0:	4481                	li	s1,0
    80002ed2:	eb15                	bnez	a4,80002f06 <bilateral_core+0xd10>
    80002ed4:	23013483          	ld	s1,560(sp)
    80002ed8:	75fa                	ld	a1,440(sp)
    80002eda:	95a6                	add	a1,a1,s1
    80002edc:	24813703          	ld	a4,584(sp)
    80002ee0:	0f470793          	addi	a5,a4,244
    80002ee4:	8dfd                	and	a1,a1,a5
    80002ee6:	058e                	slli	a1,a1,0x3
    80002ee8:	95aa                	add	a1,a1,a0
    80002eea:	0005b283          	ld	t0,0(a1)
    80002eee:	04063083          	ld	ra,64(a2)
    80002ef2:	005a6793          	ori	a5,s4,5
    80002ef6:	97a6                	add	a5,a5,s1
    80002ef8:	0f570493          	addi	s1,a4,245
    80002efc:	8fe5                	and	a5,a5,s1
    80002efe:	078e                	slli	a5,a5,0x3
    80002f00:	97aa                	add	a5,a5,a0
    80002f02:	639c                	ld	a5,0(a5)
    80002f04:	6624                	ld	s1,72(a2)
    80002f06:	815f858b          	.insn	4, 0x815f858b
    80002f0a:	61e3858b          	.insn	4, 0x61e3858b
    80002f0e:	413e858b          	.insn	4, 0x413e858b
    80002f12:	21c3058b          	.insn	4, 0x21c3058b
    80002f16:	28013703          	ld	a4,640(sp)
    80002f1a:	00e915fb          	.insn	4, 0x00e915fb
    80002f1e:	00b583ab          	.insn	4, 0x00b583ab
    80002f22:	f2058153          	fmv.d.x	ft2,a1
    80002f26:	02017153          	fadd.d	ft2,ft2,ft0
    80002f2a:	848d858b          	.insn	4, 0x848d858b
    80002f2e:	659b858b          	.insn	4, 0x659b858b
    80002f32:	44dd058b          	.insn	4, 0x44dd058b
    80002f36:	258b058b          	.insn	4, 0x258b058b
    80002f3a:	40e915fb          	.insn	4, 0x40e915fb
    80002f3e:	04b58e2b          	.insn	4, 0x04b58e2b
    80002f42:	f20581d3          	fmv.d.x	ft3,a1
    80002f46:	02317153          	fadd.d	ft2,ft2,ft3
    80002f4a:	0008b583          	ld	a1,0(a7)
    80002f4e:	05063303          	ld	t1,80(a2)
    80002f52:	24813683          	ld	a3,584(sp)
    80002f56:	0f268693          	addi	a3,a3,242
    80002f5a:	ffb6                	sd	a3,504(sp)
    80002f5c:	745a                	ld	s0,432(sp)
    80002f5e:	8c75                	and	s0,s0,a3
    80002f60:	040e                	slli	s0,s0,0x3
    80002f62:	008508b3          	add	a7,a0,s0
    80002f66:	0008b403          	ld	s0,0(a7)
    80002f6a:	6e34                	ld	a3,88(a2)
    80002f6c:	6890848b          	.insn	4, 0x6890848b
    80002f70:	28f2878b          	.insn	4, 0x28f2878b
    80002f74:	08e9078b          	.insn	4, 0x08e9078b
    80002f78:	4885858b          	.insn	4, 0x4885858b
    80002f7c:	90d315fb          	.insn	4, 0x90d315fb
    80002f80:	08b582ab          	.insn	4, 0x08b582ab
    80002f84:	f20581d3          	fmv.d.x	ft3,a1
    80002f88:	02317153          	fadd.d	ft2,ft2,ft3
    80002f8c:	06063e83          	ld	t4,96(a2)
    80002f90:	00083f03          	ld	t5,0(a6)
    80002f94:	06863f83          	ld	t6,104(a2)
    80002f98:	005a6793          	ori	a5,s4,5
    80002f9c:	25013583          	ld	a1,592(sp)
    80002fa0:	95be                	add	a1,a1,a5
    80002fa2:	eaae                	sd	a1,336(sp)
    80002fa4:	058e                	slli	a1,a1,0x3
    80002fa6:	fa2e                	sd	a1,304(sp)
    80002fa8:	00b50333          	add	t1,a0,a1
    80002fac:	00033983          	ld	s3,0(t1)
    80002fb0:	7a20                	ld	s0,112(a2)
    80002fb2:	75de                	ld	a1,496(sp)
    80002fb4:	6184                	ld	s1,0(a1)
    80002fb6:	7e2c                	ld	a1,120(a2)
    80002fb8:	0ce9068b          	.insn	4, 0x0ce9068b
    80002fbc:	2de9068b          	.insn	4, 0x2de9068b
    80002fc0:	6dfe868b          	.insn	4, 0x6dfe868b
    80002fc4:	4c99868b          	.insn	4, 0x4c99868b
    80002fc8:	d0b415fb          	.insn	4, 0xd0b415fb
    80002fcc:	0cb58eab          	.insn	4, 0x0cb58eab
    80002fd0:	f20581d3          	fmv.d.x	ft3,a1
    80002fd4:	02317153          	fadd.d	ft2,ft2,ft3
    80002fd8:	759e                	ld	a1,480(sp)
    80002fda:	0005bf03          	ld	t5,0(a1)
    80002fde:	08063f83          	ld	t6,128(a2)
    80002fe2:	65fe                	ld	a1,472(sp)
    80002fe4:	0005b983          	ld	s3,0(a1)
    80002fe8:	6644                	ld	s1,136(a2)
    80002fea:	65de                	ld	a1,464(sp)
    80002fec:	6180                	ld	s0,0(a1)
    80002fee:	09063a83          	ld	s5,144(a2)
    80002ff2:	22813583          	ld	a1,552(sp)
    80002ff6:	fb3e                	sd	a5,432(sp)
    80002ff8:	95be                	add	a1,a1,a5
    80002ffa:	058e                	slli	a1,a1,0x3
    80002ffc:	95aa                	add	a1,a1,a0
    80002ffe:	e7ae                	sd	a1,456(sp)
    80003000:	618c                	ld	a1,0(a1)
    80003002:	6e54                	ld	a3,152(a2)
    80003004:	1ce9070b          	.insn	4, 0x1ce9070b
    80003008:	3d3f070b          	.insn	4, 0x3d3f070b
    8000300c:	7c9f870b          	.insn	4, 0x7c9f870b
    80003010:	5cb4058b          	.insn	4, 0x5cb4058b
    80003014:	d0da95fb          	.insn	4, 0xd0da95fb
    80003018:	f20581d3          	fmv.d.x	ft3,a1
    8000301c:	02317153          	fadd.d	ft2,ft2,ft3
    80003020:	659e                	ld	a1,448(sp)
    80003022:	0005bf03          	ld	t5,0(a1)
    80003026:	0a063f83          	ld	t6,160(a2)
    8000302a:	759a                	ld	a1,416(sp)
    8000302c:	6198                	ld	a4,0(a1)
    8000302e:	765c                	ld	a5,168(a2)
    80003030:	65da                	ld	a1,400(sp)
    80003032:	6184                	ld	s1,0(a1)
    80003034:	7a40                	ld	s0,176(a2)
    80003036:	23813583          	ld	a1,568(sp)
    8000303a:	76fa                	ld	a3,440(sp)
    8000303c:	95b6                	add	a1,a1,a3
    8000303e:	058e                	slli	a1,a1,0x3
    80003040:	95aa                	add	a1,a1,a0
    80003042:	e72e                	sd	a1,392(sp)
    80003044:	618c                	ld	a1,0(a1)
    80003046:	7e54                	ld	a3,184(a2)
    80003048:	3cef075b          	.insn	4, 0x3cef075b
    8000304c:	7cff878b          	.insn	4, 0x7cff878b
    80003050:	5cb4858b          	.insn	4, 0x5cb4858b
    80003054:	d0d415fb          	.insn	4, 0xd0d415fb
    80003058:	f20581d3          	fmv.d.x	ft3,a1
    8000305c:	02317153          	fadd.d	ft2,ft2,ft3
    80003060:	25813583          	ld	a1,600(sp)
    80003064:	20558593          	addi	a1,a1,517
    80003068:	058e                	slli	a1,a1,0x3
    8000306a:	95aa                	add	a1,a1,a0
    8000306c:	618c                	ld	a1,0(a1)
    8000306e:	6274                	ld	a3,192(a2)
    80003070:	3c05845b          	.insn	4, 0x3c05845b
    80003074:	cc0695fb          	.insn	4, 0xcc0695fb
    80003078:	1cb586ab          	.insn	4, 0x1cb586ab
    8000307c:	f20581d3          	fmv.d.x	ft3,a1
    80003080:	02317153          	fadd.d	ft2,ft2,ft3
    80003084:	a22095d3          	flt.d	a1,ft1,ft2
    80003088:	c1a9                	beqz	a1,800030ca <bilateral_core+0xed4>
    8000308a:	f20381d3          	fmv.d.x	ft3,t2
    8000308e:	0201f1d3          	fadd.d	ft3,ft3,ft0
    80003092:	f20e0253          	fmv.d.x	ft4,t3
    80003096:	0241f1d3          	fadd.d	ft3,ft3,ft4
    8000309a:	f2028253          	fmv.d.x	ft4,t0
    8000309e:	0241f1d3          	fadd.d	ft3,ft3,ft4
    800030a2:	f20e8253          	fmv.d.x	ft4,t4
    800030a6:	0241f1d3          	fadd.d	ft3,ft3,ft4
    800030aa:	f2070253          	fmv.d.x	ft4,a4
    800030ae:	0241f1d3          	fadd.d	ft3,ft3,ft4
    800030b2:	f2040253          	fmv.d.x	ft4,s0
    800030b6:	0241f1d3          	fadd.d	ft3,ft3,ft4
    800030ba:	f2068253          	fmv.d.x	ft4,a3
    800030be:	0241f1d3          	fadd.d	ft3,ft3,ft4
    800030c2:	1a21f153          	fdiv.d	ft2,ft3,ft2
    800030c6:	e2010953          	fmv.x.d	s2,ft2
    800030ca:	27813583          	ld	a1,632(sp)
    800030ce:	76f6                	ld	a3,376(sp)
    800030d0:	95b6                	add	a1,a1,a3
    800030d2:	0125b023          	sd	s2,0(a1)
    800030d6:	00083b83          	ld	s7,0(a6)
    800030da:	4b01                	li	s6,0
    800030dc:	4f01                	li	t5,0
    800030de:	4381                	li	t2,0
    800030e0:	4801                	li	a6,0
    800030e2:	4e81                	li	t4,0
    800030e4:	4a81                	li	s5,0
    800030e6:	4c01                	li	s8,0
    800030e8:	4c81                	li	s9,0
    800030ea:	24813703          	ld	a4,584(sp)
    800030ee:	24013783          	ld	a5,576(sp)
    800030f2:	26013483          	ld	s1,608(sp)
    800030f6:	ecb1                	bnez	s1,80003152 <bilateral_core+0xf5c>
    800030f8:	22013403          	ld	s0,544(sp)
    800030fc:	21813583          	ld	a1,536(sp)
    80003100:	95a2                	add	a1,a1,s0
    80003102:	76fe                	ld	a3,504(sp)
    80003104:	8df5                	and	a1,a1,a3
    80003106:	058e                	slli	a1,a1,0x3
    80003108:	95aa                	add	a1,a1,a0
    8000310a:	0005b803          	ld	a6,0(a1)
    8000310e:	00063383          	ld	t2,0(a2)
    80003112:	75be                	ld	a1,488(sp)
    80003114:	95a2                	add	a1,a1,s0
    80003116:	0f370693          	addi	a3,a4,243
    8000311a:	8df5                	and	a1,a1,a3
    8000311c:	058e                	slli	a1,a1,0x3
    8000311e:	95aa                	add	a1,a1,a0
    80003120:	0005be83          	ld	t4,0(a1)
    80003124:	00863a83          	ld	s5,8(a2)
    80003128:	20813583          	ld	a1,520(sp)
    8000312c:	76fa                	ld	a3,440(sp)
    8000312e:	95b6                	add	a1,a1,a3
    80003130:	058e                	slli	a1,a1,0x3
    80003132:	95aa                	add	a1,a1,a0
    80003134:	0005bf03          	ld	t5,0(a1)
    80003138:	01063b03          	ld	s6,16(a2)
    8000313c:	75da                	ld	a1,432(sp)
    8000313e:	95a2                	add	a1,a1,s0
    80003140:	0f570693          	addi	a3,a4,245
    80003144:	8df5                	and	a1,a1,a3
    80003146:	058e                	slli	a1,a1,0x3
    80003148:	95aa                	add	a1,a1,a0
    8000314a:	0005bc03          	ld	s8,0(a1)
    8000314e:	01863c83          	ld	s9,24(a2)
    80003152:	4d81                	li	s11,0
    80003154:	4f81                	li	t6,0
    80003156:	ec99                	bnez	s1,80003174 <bilateral_core+0xf7e>
    80003158:	006a6593          	ori	a1,s4,6
    8000315c:	22013683          	ld	a3,544(sp)
    80003160:	95b6                	add	a1,a1,a3
    80003162:	0f670693          	addi	a3,a4,246
    80003166:	8df5                	and	a1,a1,a3
    80003168:	058e                	slli	a1,a1,0x3
    8000316a:	95aa                	add	a1,a1,a0
    8000316c:	0005bd83          	ld	s11,0(a1)
    80003170:	02063f83          	ld	t6,32(a2)
    80003174:	4e01                	li	t3,0
    80003176:	4081                	li	ra,0
    80003178:	4981                	li	s3,0
    8000317a:	4d01                	li	s10,0
    8000317c:	4681                	li	a3,0
    8000317e:	4401                	li	s0,0
    80003180:	e3b1                	bnez	a5,800031c4 <bilateral_core+0xfce>
    80003182:	23013703          	ld	a4,560(sp)
    80003186:	21813583          	ld	a1,536(sp)
    8000318a:	95ba                	add	a1,a1,a4
    8000318c:	76fe                	ld	a3,504(sp)
    8000318e:	8df5                	and	a1,a1,a3
    80003190:	058e                	slli	a1,a1,0x3
    80003192:	95aa                	add	a1,a1,a0
    80003194:	0005b983          	ld	s3,0(a1)
    80003198:	02863d03          	ld	s10,40(a2)
    8000319c:	75be                	ld	a1,488(sp)
    8000319e:	95ba                	add	a1,a1,a4
    800031a0:	24813683          	ld	a3,584(sp)
    800031a4:	0f368693          	addi	a3,a3,243
    800031a8:	8df5                	and	a1,a1,a3
    800031aa:	058e                	slli	a1,a1,0x3
    800031ac:	95aa                	add	a1,a1,a0
    800031ae:	0005b083          	ld	ra,0(a1)
    800031b2:	03063e03          	ld	t3,48(a2)
    800031b6:	65fa                	ld	a1,408(sp)
    800031b8:	76fa                	ld	a3,440(sp)
    800031ba:	95b6                	add	a1,a1,a3
    800031bc:	058e                	slli	a1,a1,0x3
    800031be:	95aa                	add	a1,a1,a0
    800031c0:	6194                	ld	a3,0(a1)
    800031c2:	7e00                	ld	s0,56(a2)
    800031c4:	4a01                	li	s4,0
    800031c6:	4901                	li	s2,0
    800031c8:	4281                	li	t0,0
    800031ca:	4581                	li	a1,0
    800031cc:	ef9d                	bnez	a5,8000320a <bilateral_core+0x1014>
    800031ce:	23013483          	ld	s1,560(sp)
    800031d2:	75da                	ld	a1,432(sp)
    800031d4:	95a6                	add	a1,a1,s1
    800031d6:	24813703          	ld	a4,584(sp)
    800031da:	0f570793          	addi	a5,a4,245
    800031de:	8dfd                	and	a1,a1,a5
    800031e0:	058e                	slli	a1,a1,0x3
    800031e2:	95aa                	add	a1,a1,a0
    800031e4:	0005b903          	ld	s2,0(a1)
    800031e8:	04063a03          	ld	s4,64(a2)
    800031ec:	26813583          	ld	a1,616(sp)
    800031f0:	0065e593          	ori	a1,a1,6
    800031f4:	00b482b3          	add	t0,s1,a1
    800031f8:	0f670593          	addi	a1,a4,246
    800031fc:	00b2f5b3          	and	a1,t0,a1
    80003200:	058e                	slli	a1,a1,0x3
    80003202:	95aa                	add	a1,a1,a0
    80003204:	0005b283          	ld	t0,0(a1)
    80003208:	662c                	ld	a1,72(a2)
    8000320a:	819b078b          	.insn	4, 0x819b078b
    8000320e:	6153878b          	.insn	4, 0x6153878b
    80003212:	418f078b          	.insn	4, 0x418f078b
    80003216:	21d8078b          	.insn	4, 0x21d8078b
    8000321a:	28013483          	ld	s1,640(sp)
    8000321e:	009b97fb          	.insn	4, 0x009b97fb
    80003222:	00f78f2b          	.insn	4, 0x00f78f2b
    80003226:	f2078153          	fmv.d.x	ft2,a5
    8000322a:	02017153          	fadd.d	ft2,ft2,ft0
    8000322e:	848e078b          	.insn	4, 0x848e078b
    80003232:	65af878b          	.insn	4, 0x65af878b
    80003236:	44d0868b          	.insn	4, 0x44d0868b
    8000323a:	253d868b          	.insn	4, 0x253d868b
    8000323e:	409b96fb          	.insn	4, 0x409b96fb
    80003242:	04d6882b          	.insn	4, 0x04d6882b
    80003246:	f20681d3          	fmv.d.x	ft3,a3
    8000324a:	02317153          	fadd.d	ft2,ft2,ft3
    8000324e:	0008b683          	ld	a3,0(a7)
    80003252:	6a3c                	ld	a5,80(a2)
    80003254:	24813083          	ld	ra,584(sp)
    80003258:	0f308713          	addi	a4,ra,243
    8000325c:	fbba                	sd	a4,496(sp)
    8000325e:	743a                	ld	s0,424(sp)
    80003260:	8c79                	and	s0,s0,a4
    80003262:	040e                	slli	s0,s0,0x3
    80003264:	00850eb3          	add	t4,a0,s0
    80003268:	000eb403          	ld	s0,0(t4)
    8000326c:	6e38                	ld	a4,88(a2)
    8000326e:	68ba058b          	.insn	4, 0x68ba058b
    80003272:	2859058b          	.insn	4, 0x2859058b
    80003276:	089b858b          	.insn	4, 0x089b858b
    8000327a:	4886858b          	.insn	4, 0x4886858b
    8000327e:	90e796fb          	.insn	4, 0x90e796fb
    80003282:	08d688ab          	.insn	4, 0x08d688ab
    80003286:	f20681d3          	fmv.d.x	ft3,a3
    8000328a:	02317153          	fadd.d	ft2,ft2,ft3
    8000328e:	06063283          	ld	t0,96(a2)
    80003292:	00033e03          	ld	t3,0(t1)
    80003296:	06863f83          	ld	t6,104(a2)
    8000329a:	26813583          	ld	a1,616(sp)
    8000329e:	0065e413          	ori	s0,a1,6
    800032a2:	25013583          	ld	a1,592(sp)
    800032a6:	95a2                	add	a1,a1,s0
    800032a8:	e6ae                	sd	a1,328(sp)
    800032aa:	058e                	slli	a1,a1,0x3
    800032ac:	f62e                	sd	a1,296(sp)
    800032ae:	00b503b3          	add	t2,a0,a1
    800032b2:	0003b903          	ld	s2,0(t2)
    800032b6:	7a2c                	ld	a1,112(a2)
    800032b8:	769e                	ld	a3,480(sp)
    800032ba:	6298                	ld	a4,0(a3)
    800032bc:	7e34                	ld	a3,120(a2)
    800032be:	0c9b878b          	.insn	4, 0x0c9b878b
    800032c2:	2dcb878b          	.insn	4, 0x2dcb878b
    800032c6:	6df2878b          	.insn	4, 0x6df2878b
    800032ca:	4ce9070b          	.insn	4, 0x4ce9070b
    800032ce:	d0d595fb          	.insn	4, 0xd0d595fb
    800032d2:	0cb582ab          	.insn	4, 0x0cb582ab
    800032d6:	f20581d3          	fmv.d.x	ft3,a1
    800032da:	02317153          	fadd.d	ft2,ft2,ft3
    800032de:	65fe                	ld	a1,472(sp)
    800032e0:	0005be03          	ld	t3,0(a1)
    800032e4:	08063f83          	ld	t6,128(a2)
    800032e8:	65de                	ld	a1,464(sp)
    800032ea:	0005b903          	ld	s2,0(a1)
    800032ee:	08863983          	ld	s3,136(a2)
    800032f2:	65be                	ld	a1,456(sp)
    800032f4:	0005ba03          	ld	s4,0(a1)
    800032f8:	6a5c                	ld	a5,144(a2)
    800032fa:	22813583          	ld	a1,552(sp)
    800032fe:	f722                	sd	s0,424(sp)
    80003300:	95a2                	add	a1,a1,s0
    80003302:	058e                	slli	a1,a1,0x3
    80003304:	95aa                	add	a1,a1,a0
    80003306:	20b13c23          	sd	a1,536(sp)
    8000330a:	618c                	ld	a1,0(a1)
    8000330c:	6e54                	ld	a3,152(a2)
    8000330e:	1c9b870b          	.insn	4, 0x1c9b870b
    80003312:	3d2e070b          	.insn	4, 0x3d2e070b
    80003316:	7d3f870b          	.insn	4, 0x7d3f870b
    8000331a:	5cba058b          	.insn	4, 0x5cba058b
    8000331e:	d0d795fb          	.insn	4, 0xd0d795fb
    80003322:	f20581d3          	fmv.d.x	ft3,a1
    80003326:	02317153          	fadd.d	ft2,ft2,ft3
    8000332a:	759a                	ld	a1,416(sp)
    8000332c:	0005be03          	ld	t3,0(a1)
    80003330:	0a063f83          	ld	t6,160(a2)
    80003334:	65da                	ld	a1,400(sp)
    80003336:	6198                	ld	a4,0(a1)
    80003338:	765c                	ld	a5,168(a2)
    8000333a:	65ba                	ld	a1,392(sp)
    8000333c:	6180                	ld	s0,0(a1)
    8000333e:	7a44                	ld	s1,176(a2)
    80003340:	23813583          	ld	a1,568(sp)
    80003344:	76da                	ld	a3,432(sp)
    80003346:	95b6                	add	a1,a1,a3
    80003348:	058e                	slli	a1,a1,0x3
    8000334a:	95aa                	add	a1,a1,a0
    8000334c:	feae                	sd	a1,376(sp)
    8000334e:	618c                	ld	a1,0(a1)
    80003350:	7e54                	ld	a3,184(a2)
    80003352:	3cee075b          	.insn	4, 0x3cee075b
    80003356:	7cff878b          	.insn	4, 0x7cff878b
    8000335a:	5cb4058b          	.insn	4, 0x5cb4058b
    8000335e:	d0d495fb          	.insn	4, 0xd0d495fb
    80003362:	f20581d3          	fmv.d.x	ft3,a1
    80003366:	02317153          	fadd.d	ft2,ft2,ft3
    8000336a:	25813583          	ld	a1,600(sp)
    8000336e:	20658593          	addi	a1,a1,518
    80003372:	058e                	slli	a1,a1,0x3
    80003374:	95aa                	add	a1,a1,a0
    80003376:	618c                	ld	a1,0(a1)
    80003378:	6274                	ld	a3,192(a2)
    8000337a:	3c05845b          	.insn	4, 0x3c05845b
    8000337e:	cc0695fb          	.insn	4, 0xcc0695fb
    80003382:	1cb586ab          	.insn	4, 0x1cb586ab
    80003386:	f20581d3          	fmv.d.x	ft3,a1
    8000338a:	02317153          	fadd.d	ft2,ft2,ft3
    8000338e:	a22095d3          	flt.d	a1,ft1,ft2
    80003392:	c1a9                	beqz	a1,800033d4 <bilateral_core+0x11de>
    80003394:	f20f01d3          	fmv.d.x	ft3,t5
    80003398:	0201f1d3          	fadd.d	ft3,ft3,ft0
    8000339c:	f2080253          	fmv.d.x	ft4,a6
    800033a0:	0241f1d3          	fadd.d	ft3,ft3,ft4
    800033a4:	f2088253          	fmv.d.x	ft4,a7
    800033a8:	0241f1d3          	fadd.d	ft3,ft3,ft4
    800033ac:	f2028253          	fmv.d.x	ft4,t0
    800033b0:	0241f1d3          	fadd.d	ft3,ft3,ft4
    800033b4:	f2070253          	fmv.d.x	ft4,a4
    800033b8:	0241f1d3          	fadd.d	ft3,ft3,ft4
    800033bc:	f2040253          	fmv.d.x	ft4,s0
    800033c0:	0241f1d3          	fadd.d	ft3,ft3,ft4
    800033c4:	f2068253          	fmv.d.x	ft4,a3
    800033c8:	0241f1d3          	fadd.d	ft3,ft3,ft4
    800033cc:	1a21f153          	fdiv.d	ft2,ft3,ft2
    800033d0:	e2010bd3          	fmv.x.d	s7,ft2
    800033d4:	27813583          	ld	a1,632(sp)
    800033d8:	76b6                	ld	a3,360(sp)
    800033da:	95b6                	add	a1,a1,a3
    800033dc:	0175b023          	sd	s7,0(a1)
    800033e0:	00033a03          	ld	s4,0(t1)
    800033e4:	4c01                	li	s8,0
    800033e6:	4a81                	li	s5,0
    800033e8:	4f01                	li	t5,0
    800033ea:	4301                	li	t1,0
    800033ec:	4901                	li	s2,0
    800033ee:	4b01                	li	s6,0
    800033f0:	4c81                	li	s9,0
    800033f2:	4d81                	li	s11,0
    800033f4:	26013703          	ld	a4,608(sp)
    800033f8:	22013783          	ld	a5,544(sp)
    800033fc:	eb39                	bnez	a4,80003452 <bilateral_core+0x125c>
    800033fe:	75be                	ld	a1,488(sp)
    80003400:	95be                	add	a1,a1,a5
    80003402:	76de                	ld	a3,496(sp)
    80003404:	8df5                	and	a1,a1,a3
    80003406:	058e                	slli	a1,a1,0x3
    80003408:	95aa                	add	a1,a1,a0
    8000340a:	0005b303          	ld	t1,0(a1)
    8000340e:	00063f03          	ld	t5,0(a2)
    80003412:	75fa                	ld	a1,440(sp)
    80003414:	95be                	add	a1,a1,a5
    80003416:	0f408693          	addi	a3,ra,244
    8000341a:	8df5                	and	a1,a1,a3
    8000341c:	058e                	slli	a1,a1,0x3
    8000341e:	95aa                	add	a1,a1,a0
    80003420:	0005b903          	ld	s2,0(a1)
    80003424:	00863b03          	ld	s6,8(a2)
    80003428:	20813583          	ld	a1,520(sp)
    8000342c:	76da                	ld	a3,432(sp)
    8000342e:	95b6                	add	a1,a1,a3
    80003430:	058e                	slli	a1,a1,0x3
    80003432:	95aa                	add	a1,a1,a0
    80003434:	0005ba83          	ld	s5,0(a1)
    80003438:	01063c03          	ld	s8,16(a2)
    8000343c:	75ba                	ld	a1,424(sp)
    8000343e:	95be                	add	a1,a1,a5
    80003440:	0f608693          	addi	a3,ra,246
    80003444:	8df5                	and	a1,a1,a3
    80003446:	058e                	slli	a1,a1,0x3
    80003448:	95aa                	add	a1,a1,a0
    8000344a:	0005bc83          	ld	s9,0(a1)
    8000344e:	01863d83          	ld	s11,24(a2)
    80003452:	4981                	li	s3,0
    80003454:	4d01                	li	s10,0
    80003456:	ef19                	bnez	a4,80003474 <bilateral_core+0x127e>
    80003458:	26813583          	ld	a1,616(sp)
    8000345c:	0075e593          	ori	a1,a1,7
    80003460:	95be                	add	a1,a1,a5
    80003462:	0f708693          	addi	a3,ra,247
    80003466:	8df5                	and	a1,a1,a3
    80003468:	058e                	slli	a1,a1,0x3
    8000346a:	95aa                	add	a1,a1,a0
    8000346c:	0005b983          	ld	s3,0(a1)
    80003470:	02063d03          	ld	s10,32(a2)
    80003474:	4f81                	li	t6,0
    80003476:	4e01                	li	t3,0
    80003478:	4801                	li	a6,0
    8000347a:	4281                	li	t0,0
    8000347c:	4481                	li	s1,0
    8000347e:	4681                	li	a3,0
    80003480:	24013703          	ld	a4,576(sp)
    80003484:	ef1d                	bnez	a4,800034c2 <bilateral_core+0x12cc>
    80003486:	23013783          	ld	a5,560(sp)
    8000348a:	75be                	ld	a1,488(sp)
    8000348c:	95be                	add	a1,a1,a5
    8000348e:	76de                	ld	a3,496(sp)
    80003490:	8df5                	and	a1,a1,a3
    80003492:	058e                	slli	a1,a1,0x3
    80003494:	95aa                	add	a1,a1,a0
    80003496:	0005b803          	ld	a6,0(a1)
    8000349a:	02863283          	ld	t0,40(a2)
    8000349e:	75fa                	ld	a1,440(sp)
    800034a0:	95be                	add	a1,a1,a5
    800034a2:	0f408693          	addi	a3,ra,244
    800034a6:	8df5                	and	a1,a1,a3
    800034a8:	058e                	slli	a1,a1,0x3
    800034aa:	95aa                	add	a1,a1,a0
    800034ac:	0005be03          	ld	t3,0(a1)
    800034b0:	03063f83          	ld	t6,48(a2)
    800034b4:	65fa                	ld	a1,408(sp)
    800034b6:	76da                	ld	a3,432(sp)
    800034b8:	95b6                	add	a1,a1,a3
    800034ba:	058e                	slli	a1,a1,0x3
    800034bc:	95aa                	add	a1,a1,a0
    800034be:	6184                	ld	s1,0(a1)
    800034c0:	7e14                	ld	a3,56(a2)
    800034c2:	4081                	li	ra,0
    800034c4:	4881                	li	a7,0
    800034c6:	4b81                	li	s7,0
    800034c8:	4581                	li	a1,0
    800034ca:	ef0d                	bnez	a4,80003504 <bilateral_core+0x130e>
    800034cc:	23013403          	ld	s0,560(sp)
    800034d0:	75ba                	ld	a1,424(sp)
    800034d2:	95a2                	add	a1,a1,s0
    800034d4:	24813703          	ld	a4,584(sp)
    800034d8:	0f670793          	addi	a5,a4,246
    800034dc:	8dfd                	and	a1,a1,a5
    800034de:	058e                	slli	a1,a1,0x3
    800034e0:	95aa                	add	a1,a1,a0
    800034e2:	0005b883          	ld	a7,0(a1)
    800034e6:	04063083          	ld	ra,64(a2)
    800034ea:	26813583          	ld	a1,616(sp)
    800034ee:	0075e593          	ori	a1,a1,7
    800034f2:	95a2                	add	a1,a1,s0
    800034f4:	0f770413          	addi	s0,a4,247
    800034f8:	8de1                	and	a1,a1,s0
    800034fa:	058e                	slli	a1,a1,0x3
    800034fc:	95aa                	add	a1,a1,a0
    800034fe:	0005bb83          	ld	s7,0(a1)
    80003502:	662c                	ld	a1,72(a2)
    80003504:	81bc078b          	.insn	4, 0x81bc078b
    80003508:	616f078b          	.insn	4, 0x616f078b
    8000350c:	419a878b          	.insn	4, 0x419a878b
    80003510:	2123078b          	.insn	4, 0x2123078b
    80003514:	28013403          	ld	s0,640(sp)
    80003518:	008a17fb          	.insn	4, 0x008a17fb
    8000351c:	00f78aab          	.insn	4, 0x00f78aab
    80003520:	f2078153          	fmv.d.x	ft2,a5
    80003524:	02017153          	fadd.d	ft2,ft2,ft0
    80003528:	84df868b          	.insn	4, 0x84df868b
    8000352c:	645d068b          	.insn	4, 0x645d068b
    80003530:	449e068b          	.insn	4, 0x449e068b
    80003534:	2509868b          	.insn	4, 0x2509868b
    80003538:	408a16fb          	.insn	4, 0x408a16fb
    8000353c:	04d6882b          	.insn	4, 0x04d6882b
    80003540:	f20681d3          	fmv.d.x	ft3,a3
    80003544:	02317153          	fadd.d	ft2,ft2,ft3
    80003548:	000eb683          	ld	a3,0(t4)
    8000354c:	6a3c                	ld	a5,80(a2)
    8000354e:	24813703          	ld	a4,584(sp)
    80003552:	0f470713          	addi	a4,a4,244
    80003556:	f7ba                	sd	a4,488(sp)
    80003558:	649a                	ld	s1,384(sp)
    8000355a:	8cf9                	and	s1,s1,a4
    8000355c:	048e                	slli	s1,s1,0x3
    8000355e:	00950733          	add	a4,a0,s1
    80003562:	f3ba                	sd	a4,480(sp)
    80003564:	6304                	ld	s1,0(a4)
    80003566:	6e38                	ld	a4,88(a2)
    80003568:	68b0858b          	.insn	4, 0x68b0858b
    8000356c:	2978858b          	.insn	4, 0x2978858b
    80003570:	088a058b          	.insn	4, 0x088a058b
    80003574:	4896858b          	.insn	4, 0x4896858b
    80003578:	90e796fb          	.insn	4, 0x90e796fb
    8000357c:	08d688ab          	.insn	4, 0x08d688ab
    80003580:	f20681d3          	fmv.d.x	ft3,a3
    80003584:	02317153          	fadd.d	ft2,ft2,ft3
    80003588:	06063283          	ld	t0,96(a2)
    8000358c:	0003be03          	ld	t3,0(t2)
    80003590:	06863f03          	ld	t5,104(a2)
    80003594:	26813583          	ld	a1,616(sp)
    80003598:	0075e793          	ori	a5,a1,7
    8000359c:	25013583          	ld	a1,592(sp)
    800035a0:	95be                	add	a1,a1,a5
    800035a2:	e2ae                	sd	a1,320(sp)
    800035a4:	058e                	slli	a1,a1,0x3
    800035a6:	f22e                	sd	a1,288(sp)
    800035a8:	00b50eb3          	add	t4,a0,a1
    800035ac:	000eb483          	ld	s1,0(t4)
    800035b0:	07063303          	ld	t1,112(a2)
    800035b4:	65fe                	ld	a1,472(sp)
    800035b6:	618c                	ld	a1,0(a1)
    800035b8:	7e34                	ld	a3,120(a2)
    800035ba:	0c8a070b          	.insn	4, 0x0c8a070b
    800035be:	2dca070b          	.insn	4, 0x2dca070b
    800035c2:	6de2870b          	.insn	4, 0x6de2870b
    800035c6:	4cb4858b          	.insn	4, 0x4cb4858b
    800035ca:	d0d315fb          	.insn	4, 0xd0d315fb
    800035ce:	0cb582ab          	.insn	4, 0x0cb582ab
    800035d2:	f20581d3          	fmv.d.x	ft3,a1
    800035d6:	02317153          	fadd.d	ft2,ft2,ft3
    800035da:	65de                	ld	a1,464(sp)
    800035dc:	0005be03          	ld	t3,0(a1)
    800035e0:	08063f03          	ld	t5,128(a2)
    800035e4:	65be                	ld	a1,456(sp)
    800035e6:	0005bf83          	ld	t6,0(a1)
    800035ea:	6644                	ld	s1,136(a2)
    800035ec:	21813583          	ld	a1,536(sp)
    800035f0:	0005b903          	ld	s2,0(a1)
    800035f4:	09063303          	ld	t1,144(a2)
    800035f8:	22813583          	ld	a1,552(sp)
    800035fc:	f33e                	sd	a5,416(sp)
    800035fe:	95be                	add	a1,a1,a5
    80003600:	058e                	slli	a1,a1,0x3
    80003602:	95aa                	add	a1,a1,a0
    80003604:	e3ae                	sd	a1,448(sp)
    80003606:	618c                	ld	a1,0(a1)
    80003608:	6e54                	ld	a3,152(a2)
    8000360a:	1c8a070b          	.insn	4, 0x1c8a070b
    8000360e:	3dfe070b          	.insn	4, 0x3dfe070b
    80003612:	7c9f070b          	.insn	4, 0x7c9f070b
    80003616:	5cb9058b          	.insn	4, 0x5cb9058b
    8000361a:	d0d315fb          	.insn	4, 0xd0d315fb
    8000361e:	f20581d3          	fmv.d.x	ft3,a1
    80003622:	02317153          	fadd.d	ft2,ft2,ft3
    80003626:	65da                	ld	a1,400(sp)
    80003628:	0005be03          	ld	t3,0(a1)
    8000362c:	0a063f03          	ld	t5,160(a2)
    80003630:	65ba                	ld	a1,392(sp)
    80003632:	6194                	ld	a3,0(a1)
    80003634:	765c                	ld	a5,168(a2)
    80003636:	75f6                	ld	a1,376(sp)
    80003638:	6184                	ld	s1,0(a1)
    8000363a:	7a40                	ld	s0,176(a2)
    8000363c:	23813583          	ld	a1,568(sp)
    80003640:	773a                	ld	a4,424(sp)
    80003642:	95ba                	add	a1,a1,a4
    80003644:	058e                	slli	a1,a1,0x3
    80003646:	95aa                	add	a1,a1,a0
    80003648:	f6ae                	sd	a1,360(sp)
    8000364a:	618c                	ld	a1,0(a1)
    8000364c:	7e58                	ld	a4,184(a2)
    8000364e:	3cde06db          	.insn	4, 0x3cde06db
    80003652:	7cff078b          	.insn	4, 0x7cff078b
    80003656:	5cb4858b          	.insn	4, 0x5cb4858b
    8000365a:	d0e415fb          	.insn	4, 0xd0e415fb
    8000365e:	f20581d3          	fmv.d.x	ft3,a1
    80003662:	02317153          	fadd.d	ft2,ft2,ft3
    80003666:	25813583          	ld	a1,600(sp)
    8000366a:	20758593          	addi	a1,a1,519
    8000366e:	058e                	slli	a1,a1,0x3
    80003670:	95aa                	add	a1,a1,a0
    80003672:	618c                	ld	a1,0(a1)
    80003674:	6278                	ld	a4,192(a2)
    80003676:	3c05845b          	.insn	4, 0x3c05845b
    8000367a:	cc0715fb          	.insn	4, 0xcc0715fb
    8000367e:	1cb584ab          	.insn	4, 0x1cb584ab
    80003682:	f20581d3          	fmv.d.x	ft3,a1
    80003686:	02317153          	fadd.d	ft2,ft2,ft3
    8000368a:	a22095d3          	flt.d	a1,ft1,ft2
    8000368e:	c1a9                	beqz	a1,800036d0 <bilateral_core+0x14da>
    80003690:	f20a81d3          	fmv.d.x	ft3,s5
    80003694:	0201f1d3          	fadd.d	ft3,ft3,ft0
    80003698:	f2080253          	fmv.d.x	ft4,a6
    8000369c:	0241f1d3          	fadd.d	ft3,ft3,ft4
    800036a0:	f2088253          	fmv.d.x	ft4,a7
    800036a4:	0241f1d3          	fadd.d	ft3,ft3,ft4
    800036a8:	f2028253          	fmv.d.x	ft4,t0
    800036ac:	0241f1d3          	fadd.d	ft3,ft3,ft4
    800036b0:	f2068253          	fmv.d.x	ft4,a3
    800036b4:	0241f1d3          	fadd.d	ft3,ft3,ft4
    800036b8:	f2040253          	fmv.d.x	ft4,s0
    800036bc:	0241f1d3          	fadd.d	ft3,ft3,ft4
    800036c0:	f2048253          	fmv.d.x	ft4,s1
    800036c4:	0241f1d3          	fadd.d	ft3,ft3,ft4
    800036c8:	1a21f153          	fdiv.d	ft2,ft3,ft2
    800036cc:	e2010a53          	fmv.x.d	s4,ft2
    800036d0:	27813583          	ld	a1,632(sp)
    800036d4:	76d2                	ld	a3,304(sp)
    800036d6:	95b6                	add	a1,a1,a3
    800036d8:	0145b023          	sd	s4,0(a1)
    800036dc:	0003b903          	ld	s2,0(t2)
    800036e0:	4d81                	li	s11,0
    800036e2:	4b01                	li	s6,0
    800036e4:	4f81                	li	t6,0
    800036e6:	4381                	li	t2,0
    800036e8:	4a81                	li	s5,0
    800036ea:	4c01                	li	s8,0
    800036ec:	4c81                	li	s9,0
    800036ee:	4081                	li	ra,0
    800036f0:	26013483          	ld	s1,608(sp)
    800036f4:	ecb9                	bnez	s1,80003752 <bilateral_core+0x155c>
    800036f6:	22013783          	ld	a5,544(sp)
    800036fa:	75fa                	ld	a1,440(sp)
    800036fc:	95be                	add	a1,a1,a5
    800036fe:	76be                	ld	a3,488(sp)
    80003700:	8df5                	and	a1,a1,a3
    80003702:	058e                	slli	a1,a1,0x3
    80003704:	95aa                	add	a1,a1,a0
    80003706:	0005b383          	ld	t2,0(a1)
    8000370a:	00063f83          	ld	t6,0(a2)
    8000370e:	75da                	ld	a1,432(sp)
    80003710:	95be                	add	a1,a1,a5
    80003712:	24813703          	ld	a4,584(sp)
    80003716:	0f570693          	addi	a3,a4,245
    8000371a:	8df5                	and	a1,a1,a3
    8000371c:	058e                	slli	a1,a1,0x3
    8000371e:	95aa                	add	a1,a1,a0
    80003720:	0005ba83          	ld	s5,0(a1)
    80003724:	00863c03          	ld	s8,8(a2)
    80003728:	20813583          	ld	a1,520(sp)
    8000372c:	76ba                	ld	a3,424(sp)
    8000372e:	95b6                	add	a1,a1,a3
    80003730:	058e                	slli	a1,a1,0x3
    80003732:	95aa                	add	a1,a1,a0
    80003734:	0005bb03          	ld	s6,0(a1)
    80003738:	01063d83          	ld	s11,16(a2)
    8000373c:	759a                	ld	a1,416(sp)
    8000373e:	95be                	add	a1,a1,a5
    80003740:	0f770693          	addi	a3,a4,247
    80003744:	8df5                	and	a1,a1,a3
    80003746:	058e                	slli	a1,a1,0x3
    80003748:	95aa                	add	a1,a1,a0
    8000374a:	0005bc83          	ld	s9,0(a1)
    8000374e:	01863083          	ld	ra,24(a2)
    80003752:	4a01                	li	s4,0
    80003754:	4b81                	li	s7,0
    80003756:	24013783          	ld	a5,576(sp)
    8000375a:	e09d                	bnez	s1,80003780 <bilateral_core+0x158a>
    8000375c:	26813583          	ld	a1,616(sp)
    80003760:	0085e593          	ori	a1,a1,8
    80003764:	22013683          	ld	a3,544(sp)
    80003768:	95b6                	add	a1,a1,a3
    8000376a:	24813683          	ld	a3,584(sp)
    8000376e:	0f868693          	addi	a3,a3,248
    80003772:	8df5                	and	a1,a1,a3
    80003774:	058e                	slli	a1,a1,0x3
    80003776:	95aa                	add	a1,a1,a0
    80003778:	0005ba03          	ld	s4,0(a1)
    8000377c:	02063b83          	ld	s7,32(a2)
    80003780:	4981                	li	s3,0
    80003782:	4f01                	li	t5,0
    80003784:	4301                	li	t1,0
    80003786:	4581                	li	a1,0
    80003788:	4401                	li	s0,0
    8000378a:	4281                	li	t0,0
    8000378c:	e3b1                	bnez	a5,800037d0 <bilateral_core+0x15da>
    8000378e:	23013703          	ld	a4,560(sp)
    80003792:	75fa                	ld	a1,440(sp)
    80003794:	95ba                	add	a1,a1,a4
    80003796:	76be                	ld	a3,488(sp)
    80003798:	8df5                	and	a1,a1,a3
    8000379a:	058e                	slli	a1,a1,0x3
    8000379c:	95aa                	add	a1,a1,a0
    8000379e:	0005b303          	ld	t1,0(a1)
    800037a2:	760c                	ld	a1,40(a2)
    800037a4:	76da                	ld	a3,432(sp)
    800037a6:	00d70433          	add	s0,a4,a3
    800037aa:	24813703          	ld	a4,584(sp)
    800037ae:	0f570713          	addi	a4,a4,245
    800037b2:	8f61                	and	a4,a4,s0
    800037b4:	070e                	slli	a4,a4,0x3
    800037b6:	972a                	add	a4,a4,a0
    800037b8:	00073f03          	ld	t5,0(a4)
    800037bc:	03063983          	ld	s3,48(a2)
    800037c0:	66fa                	ld	a3,408(sp)
    800037c2:	773a                	ld	a4,424(sp)
    800037c4:	9736                	add	a4,a4,a3
    800037c6:	070e                	slli	a4,a4,0x3
    800037c8:	972a                	add	a4,a4,a0
    800037ca:	6300                	ld	s0,0(a4)
    800037cc:	03863283          	ld	t0,56(a2)
    800037d0:	4801                	li	a6,0
    800037d2:	4d01                	li	s10,0
    800037d4:	4e01                	li	t3,0
    800037d6:	4881                	li	a7,0
    800037d8:	ef95                	bnez	a5,80003814 <bilateral_core+0x161e>
    800037da:	23013683          	ld	a3,560(sp)
    800037de:	771a                	ld	a4,416(sp)
    800037e0:	9736                	add	a4,a4,a3
    800037e2:	24813483          	ld	s1,584(sp)
    800037e6:	0f748793          	addi	a5,s1,247
    800037ea:	8f7d                	and	a4,a4,a5
    800037ec:	070e                	slli	a4,a4,0x3
    800037ee:	972a                	add	a4,a4,a0
    800037f0:	00073d03          	ld	s10,0(a4)
    800037f4:	04063803          	ld	a6,64(a2)
    800037f8:	26813703          	ld	a4,616(sp)
    800037fc:	00876713          	ori	a4,a4,8
    80003800:	9736                	add	a4,a4,a3
    80003802:	0f848793          	addi	a5,s1,248
    80003806:	8f7d                	and	a4,a4,a5
    80003808:	070e                	slli	a4,a4,0x3
    8000380a:	972a                	add	a4,a4,a0
    8000380c:	00073e03          	ld	t3,0(a4)
    80003810:	04863883          	ld	a7,72(a2)
    80003814:	801d870b          	.insn	4, 0x801d870b
    80003818:	618f870b          	.insn	4, 0x618f870b
    8000381c:	419b070b          	.insn	4, 0x419b070b
    80003820:	2153870b          	.insn	4, 0x2153870b
    80003824:	28013783          	ld	a5,640(sp)
    80003828:	00f9177b          	.insn	4, 0x00f9177b
    8000382c:	00e70aab          	.insn	4, 0x00e70aab
    80003830:	f2070153          	fmv.d.x	ft2,a4
    80003834:	02017153          	fadd.d	ft2,ft2,ft0
    80003838:	8459870b          	.insn	4, 0x8459870b
    8000383c:	64bb858b          	.insn	4, 0x64bb858b
    80003840:	448f058b          	.insn	4, 0x448f058b
    80003844:	246a058b          	.insn	4, 0x246a058b
    80003848:	40f915fb          	.insn	4, 0x40f915fb
    8000384c:	04b582ab          	.insn	4, 0x04b582ab
    80003850:	f20581d3          	fmv.d.x	ft3,a1
    80003854:	02317153          	fadd.d	ft2,ft2,ft3
    80003858:	759e                	ld	a1,480(sp)
    8000385a:	618c                	ld	a1,0(a1)
    8000385c:	6a34                	ld	a3,80(a2)
    8000385e:	24813b83          	ld	s7,584(sp)
    80003862:	0f5b8713          	addi	a4,s7,245
    80003866:	f3ba                	sd	a4,480(sp)
    80003868:	64d6                	ld	s1,336(sp)
    8000386a:	8f65                	and	a4,a4,s1
    8000386c:	070e                	slli	a4,a4,0x3
    8000386e:	00e50a33          	add	s4,a0,a4
    80003872:	000a3703          	ld	a4,0(s4)
    80003876:	6e24                	ld	s1,88(a2)
    80003878:	6918040b          	.insn	4, 0x6918040b
    8000387c:	29cd040b          	.insn	4, 0x29cd040b
    80003880:	08f9040b          	.insn	4, 0x08f9040b
    80003884:	48e5858b          	.insn	4, 0x48e5858b
    80003888:	909695fb          	.insn	4, 0x909695fb
    8000388c:	08b5882b          	.insn	4, 0x08b5882b
    80003890:	f20581d3          	fmv.d.x	ft3,a1
    80003894:	02317153          	fadd.d	ft2,ft2,ft3
    80003898:	06063883          	ld	a7,96(a2)
    8000389c:	89f6                	mv	s3,t4
    8000389e:	000eb383          	ld	t2,0(t4)
    800038a2:	06863e03          	ld	t3,104(a2)
    800038a6:	26813583          	ld	a1,616(sp)
    800038aa:	0085e713          	ori	a4,a1,8
    800038ae:	25013583          	ld	a1,592(sp)
    800038b2:	95ba                	add	a1,a1,a4
    800038b4:	fa2e                	sd	a1,304(sp)
    800038b6:	058e                	slli	a1,a1,0x3
    800038b8:	ee2e                	sd	a1,280(sp)
    800038ba:	00b50eb3          	add	t4,a0,a1
    800038be:	000eb403          	ld	s0,0(t4)
    800038c2:	07063303          	ld	t1,112(a2)
    800038c6:	65de                	ld	a1,464(sp)
    800038c8:	6184                	ld	s1,0(a1)
    800038ca:	7e2c                	ld	a1,120(a2)
    800038cc:	0cf9068b          	.insn	4, 0x0cf9068b
    800038d0:	2c79068b          	.insn	4, 0x2c79068b
    800038d4:	6dc8868b          	.insn	4, 0x6dc8868b
    800038d8:	4c94068b          	.insn	4, 0x4c94068b
    800038dc:	d0b315fb          	.insn	4, 0xd0b315fb
    800038e0:	0cb588ab          	.insn	4, 0x0cb588ab
    800038e4:	f20581d3          	fmv.d.x	ft3,a1
    800038e8:	02317153          	fadd.d	ft2,ft2,ft3
    800038ec:	65be                	ld	a1,456(sp)
    800038ee:	0005b383          	ld	t2,0(a1)
    800038f2:	08063e03          	ld	t3,128(a2)
    800038f6:	21813583          	ld	a1,536(sp)
    800038fa:	0005bf03          	ld	t5,0(a1)
    800038fe:	6644                	ld	s1,136(a2)
    80003900:	659e                	ld	a1,448(sp)
    80003902:	6180                	ld	s0,0(a1)
    80003904:	09063f83          	ld	t6,144(a2)
    80003908:	22813583          	ld	a1,552(sp)
    8000390c:	eb3a                	sd	a4,400(sp)
    8000390e:	95ba                	add	a1,a1,a4
    80003910:	058e                	slli	a1,a1,0x3
    80003912:	95aa                	add	a1,a1,a0
    80003914:	ff2e                	sd	a1,440(sp)
    80003916:	618c                	ld	a1,0(a1)
    80003918:	6e54                	ld	a3,152(a2)
    8000391a:	1cf9070b          	.insn	4, 0x1cf9070b
    8000391e:	3de3870b          	.insn	4, 0x3de3870b
    80003922:	7c9e070b          	.insn	4, 0x7c9e070b
    80003926:	5cb4058b          	.insn	4, 0x5cb4058b
    8000392a:	d0df95fb          	.insn	4, 0xd0df95fb
    8000392e:	f20581d3          	fmv.d.x	ft3,a1
    80003932:	02317153          	fadd.d	ft2,ft2,ft3
    80003936:	65ba                	ld	a1,392(sp)
    80003938:	0005b383          	ld	t2,0(a1)
    8000393c:	0a063e03          	ld	t3,160(a2)
    80003940:	75f6                	ld	a1,376(sp)
    80003942:	6194                	ld	a3,0(a1)
    80003944:	765c                	ld	a5,168(a2)
    80003946:	75b6                	ld	a1,360(sp)
    80003948:	6184                	ld	s1,0(a1)
    8000394a:	7a40                	ld	s0,176(a2)
    8000394c:	23813583          	ld	a1,568(sp)
    80003950:	771a                	ld	a4,416(sp)
    80003952:	95ba                	add	a1,a1,a4
    80003954:	058e                	slli	a1,a1,0x3
    80003956:	95aa                	add	a1,a1,a0
    80003958:	e72e                	sd	a1,392(sp)
    8000395a:	618c                	ld	a1,0(a1)
    8000395c:	7e58                	ld	a4,184(a2)
    8000395e:	3cd386db          	.insn	4, 0x3cd386db
    80003962:	7cfe078b          	.insn	4, 0x7cfe078b
    80003966:	5cb4858b          	.insn	4, 0x5cb4858b
    8000396a:	d0e415fb          	.insn	4, 0xd0e415fb
    8000396e:	f20581d3          	fmv.d.x	ft3,a1
    80003972:	02317153          	fadd.d	ft2,ft2,ft3
    80003976:	25813583          	ld	a1,600(sp)
    8000397a:	20858593          	addi	a1,a1,520
    8000397e:	058e                	slli	a1,a1,0x3
    80003980:	95aa                	add	a1,a1,a0
    80003982:	618c                	ld	a1,0(a1)
    80003984:	6278                	ld	a4,192(a2)
    80003986:	3c05845b          	.insn	4, 0x3c05845b
    8000398a:	cc07177b          	.insn	4, 0xcc07177b
    8000398e:	1ce705ab          	.insn	4, 0x1ce705ab
    80003992:	f20701d3          	fmv.d.x	ft3,a4
    80003996:	02317153          	fadd.d	ft2,ft2,ft3
    8000399a:	a2209753          	flt.d	a4,ft1,ft2
    8000399e:	c329                	beqz	a4,800039e0 <bilateral_core+0x17ea>
    800039a0:	f20a81d3          	fmv.d.x	ft3,s5
    800039a4:	0201f1d3          	fadd.d	ft3,ft3,ft0
    800039a8:	f2028253          	fmv.d.x	ft4,t0
    800039ac:	0241f1d3          	fadd.d	ft3,ft3,ft4
    800039b0:	f2080253          	fmv.d.x	ft4,a6
    800039b4:	0241f1d3          	fadd.d	ft3,ft3,ft4
    800039b8:	f2088253          	fmv.d.x	ft4,a7
    800039bc:	0241f1d3          	fadd.d	ft3,ft3,ft4
    800039c0:	f2068253          	fmv.d.x	ft4,a3
    800039c4:	0241f1d3          	fadd.d	ft3,ft3,ft4
    800039c8:	f2040253          	fmv.d.x	ft4,s0
    800039cc:	0241f1d3          	fadd.d	ft3,ft3,ft4
    800039d0:	f2058253          	fmv.d.x	ft4,a1
    800039d4:	0241f1d3          	fadd.d	ft3,ft3,ft4
    800039d8:	1a21f153          	fdiv.d	ft2,ft3,ft2
    800039dc:	e2010953          	fmv.x.d	s2,ft2
    800039e0:	27813583          	ld	a1,632(sp)
    800039e4:	76b2                	ld	a3,296(sp)
    800039e6:	95b6                	add	a1,a1,a3
    800039e8:	0125b023          	sd	s2,0(a1)
    800039ec:	0009bf83          	ld	t6,0(s3)
    800039f0:	4d81                	li	s11,0
    800039f2:	4b01                	li	s6,0
    800039f4:	4e01                	li	t3,0
    800039f6:	4301                	li	t1,0
    800039f8:	4a81                	li	s5,0
    800039fa:	4c01                	li	s8,0
    800039fc:	4c81                	li	s9,0
    800039fe:	4f01                	li	t5,0
    80003a00:	26013703          	ld	a4,608(sp)
    80003a04:	ef29                	bnez	a4,80003a5e <bilateral_core+0x1868>
    80003a06:	22013783          	ld	a5,544(sp)
    80003a0a:	75da                	ld	a1,432(sp)
    80003a0c:	95be                	add	a1,a1,a5
    80003a0e:	769e                	ld	a3,480(sp)
    80003a10:	8df5                	and	a1,a1,a3
    80003a12:	058e                	slli	a1,a1,0x3
    80003a14:	95aa                	add	a1,a1,a0
    80003a16:	0005b303          	ld	t1,0(a1)
    80003a1a:	00063e03          	ld	t3,0(a2)
    80003a1e:	75ba                	ld	a1,424(sp)
    80003a20:	95be                	add	a1,a1,a5
    80003a22:	0f6b8693          	addi	a3,s7,246
    80003a26:	8df5                	and	a1,a1,a3
    80003a28:	058e                	slli	a1,a1,0x3
    80003a2a:	95aa                	add	a1,a1,a0
    80003a2c:	0005ba83          	ld	s5,0(a1)
    80003a30:	00863c03          	ld	s8,8(a2)
    80003a34:	20813583          	ld	a1,520(sp)
    80003a38:	769a                	ld	a3,416(sp)
    80003a3a:	95b6                	add	a1,a1,a3
    80003a3c:	058e                	slli	a1,a1,0x3
    80003a3e:	95aa                	add	a1,a1,a0
    80003a40:	0005bb03          	ld	s6,0(a1)
    80003a44:	01063d83          	ld	s11,16(a2)
    80003a48:	65da                	ld	a1,400(sp)
    80003a4a:	95be                	add	a1,a1,a5
    80003a4c:	0f8b8693          	addi	a3,s7,248
    80003a50:	8df5                	and	a1,a1,a3
    80003a52:	058e                	slli	a1,a1,0x3
    80003a54:	95aa                	add	a1,a1,a0
    80003a56:	0005bc83          	ld	s9,0(a1)
    80003a5a:	01863f03          	ld	t5,24(a2)
    80003a5e:	4981                	li	s3,0
    80003a60:	4d01                	li	s10,0
    80003a62:	e30d                	bnez	a4,80003a84 <bilateral_core+0x188e>
    80003a64:	26813583          	ld	a1,616(sp)
    80003a68:	0095e593          	ori	a1,a1,9
    80003a6c:	22013683          	ld	a3,544(sp)
    80003a70:	95b6                	add	a1,a1,a3
    80003a72:	0f9b8693          	addi	a3,s7,249
    80003a76:	8df5                	and	a1,a1,a3
    80003a78:	058e                	slli	a1,a1,0x3
    80003a7a:	95aa                	add	a1,a1,a0
    80003a7c:	0005b983          	ld	s3,0(a1)
    80003a80:	02063d03          	ld	s10,32(a2)
    80003a84:	4381                	li	t2,0
    80003a86:	4281                	li	t0,0
    80003a88:	4801                	li	a6,0
    80003a8a:	4081                	li	ra,0
    80003a8c:	4901                	li	s2,0
    80003a8e:	4481                	li	s1,0
    80003a90:	24013703          	ld	a4,576(sp)
    80003a94:	e331                	bnez	a4,80003ad8 <bilateral_core+0x18e2>
    80003a96:	23013783          	ld	a5,560(sp)
    80003a9a:	75da                	ld	a1,432(sp)
    80003a9c:	95be                	add	a1,a1,a5
    80003a9e:	769e                	ld	a3,480(sp)
    80003aa0:	8df5                	and	a1,a1,a3
    80003aa2:	058e                	slli	a1,a1,0x3
    80003aa4:	95aa                	add	a1,a1,a0
    80003aa6:	0005b803          	ld	a6,0(a1)
    80003aaa:	02863083          	ld	ra,40(a2)
    80003aae:	75ba                	ld	a1,424(sp)
    80003ab0:	95be                	add	a1,a1,a5
    80003ab2:	24813683          	ld	a3,584(sp)
    80003ab6:	0f668693          	addi	a3,a3,246
    80003aba:	8df5                	and	a1,a1,a3
    80003abc:	058e                	slli	a1,a1,0x3
    80003abe:	95aa                	add	a1,a1,a0
    80003ac0:	0005b283          	ld	t0,0(a1)
    80003ac4:	03063383          	ld	t2,48(a2)
    80003ac8:	65fa                	ld	a1,408(sp)
    80003aca:	769a                	ld	a3,416(sp)
    80003acc:	95b6                	add	a1,a1,a3
    80003ace:	058e                	slli	a1,a1,0x3
    80003ad0:	95aa                	add	a1,a1,a0
    80003ad2:	0005b903          	ld	s2,0(a1)
    80003ad6:	7e04                	ld	s1,56(a2)
    80003ad8:	4b81                	li	s7,0
    80003ada:	4881                	li	a7,0
    80003adc:	4581                	li	a1,0
    80003ade:	4781                	li	a5,0
    80003ae0:	ef05                	bnez	a4,80003b18 <bilateral_core+0x1922>
    80003ae2:	23013783          	ld	a5,560(sp)
    80003ae6:	65da                	ld	a1,400(sp)
    80003ae8:	95be                	add	a1,a1,a5
    80003aea:	24813683          	ld	a3,584(sp)
    80003aee:	0f868713          	addi	a4,a3,248
    80003af2:	8df9                	and	a1,a1,a4
    80003af4:	058e                	slli	a1,a1,0x3
    80003af6:	95aa                	add	a1,a1,a0
    80003af8:	0005b883          	ld	a7,0(a1)
    80003afc:	04063b83          	ld	s7,64(a2)
    80003b00:	26813583          	ld	a1,616(sp)
    80003b04:	0095e593          	ori	a1,a1,9
    80003b08:	95be                	add	a1,a1,a5
    80003b0a:	0f968793          	addi	a5,a3,249
    80003b0e:	8dfd                	and	a1,a1,a5
    80003b10:	058e                	slli	a1,a1,0x3
    80003b12:	95aa                	add	a1,a1,a0
    80003b14:	618c                	ld	a1,0(a1)
    80003b16:	663c                	ld	a5,72(a2)
    80003b18:	81ed868b          	.insn	4, 0x81ed868b
    80003b1c:	618e068b          	.insn	4, 0x618e068b
    80003b20:	419b068b          	.insn	4, 0x419b068b
    80003b24:	2153068b          	.insn	4, 0x2153068b
    80003b28:	28013403          	ld	s0,640(sp)
    80003b2c:	008f96fb          	.insn	4, 0x008f96fb
    80003b30:	00d68f2b          	.insn	4, 0x00d68f2b
    80003b34:	f2068153          	fmv.d.x	ft2,a3
    80003b38:	02017153          	fadd.d	ft2,ft2,ft0
    80003b3c:	8493868b          	.insn	4, 0x8493868b
    80003b40:	641d068b          	.insn	4, 0x641d068b
    80003b44:	4522868b          	.insn	4, 0x4522868b
    80003b48:	2509868b          	.insn	4, 0x2509868b
    80003b4c:	408f96fb          	.insn	4, 0x408f96fb
    80003b50:	04d6882b          	.insn	4, 0x04d6882b
    80003b54:	f20681d3          	fmv.d.x	ft3,a3
    80003b58:	02317153          	fadd.d	ft2,ft2,ft3
    80003b5c:	000a3683          	ld	a3,0(s4)
    80003b60:	05063283          	ld	t0,80(a2)
    80003b64:	24813a83          	ld	s5,584(sp)
    80003b68:	0f6a8713          	addi	a4,s5,246
    80003b6c:	efba                	sd	a4,472(sp)
    80003b6e:	64b6                	ld	s1,328(sp)
    80003b70:	8f65                	and	a4,a4,s1
    80003b72:	070e                	slli	a4,a4,0x3
    80003b74:	00e50333          	add	t1,a0,a4
    80003b78:	00033703          	ld	a4,0(t1)
    80003b7c:	6e24                	ld	s1,88(a2)
    80003b7e:	68fb878b          	.insn	4, 0x68fb878b
    80003b82:	28b8858b          	.insn	4, 0x28b8858b
    80003b86:	088f858b          	.insn	4, 0x088f858b
    80003b8a:	48e6858b          	.insn	4, 0x48e6858b
    80003b8e:	909295fb          	.insn	4, 0x909295fb
    80003b92:	08b588ab          	.insn	4, 0x08b588ab
    80003b96:	f20581d3          	fmv.d.x	ft3,a1
    80003b9a:	02317153          	fadd.d	ft2,ft2,ft3
    80003b9e:	06063283          	ld	t0,96(a2)
    80003ba2:	000eb383          	ld	t2,0(t4)
    80003ba6:	06863903          	ld	s2,104(a2)
    80003baa:	26813583          	ld	a1,616(sp)
    80003bae:	0095e793          	ori	a5,a1,9
    80003bb2:	25013583          	ld	a1,592(sp)
    80003bb6:	95be                	add	a1,a1,a5
    80003bb8:	f62e                	sd	a1,296(sp)
    80003bba:	058e                	slli	a1,a1,0x3
    80003bbc:	ea2e                	sd	a1,272(sp)
    80003bbe:	00b50e33          	add	t3,a0,a1
    80003bc2:	000e3483          	ld	s1,0(t3)
    80003bc6:	07063983          	ld	s3,112(a2)
    80003bca:	65be                	ld	a1,456(sp)
    80003bcc:	6198                	ld	a4,0(a1)
    80003bce:	7e2c                	ld	a1,120(a2)
    80003bd0:	0c8f868b          	.insn	4, 0x0c8f868b
    80003bd4:	2c7f868b          	.insn	4, 0x2c7f868b
    80003bd8:	6d22868b          	.insn	4, 0x6d22868b
    80003bdc:	4ce4868b          	.insn	4, 0x4ce4868b
    80003be0:	d0b995fb          	.insn	4, 0xd0b995fb
    80003be4:	0cb582ab          	.insn	4, 0x0cb582ab
    80003be8:	f20581d3          	fmv.d.x	ft3,a1
    80003bec:	02317153          	fadd.d	ft2,ft2,ft3
    80003bf0:	21813583          	ld	a1,536(sp)
    80003bf4:	0005b383          	ld	t2,0(a1)
    80003bf8:	08063903          	ld	s2,128(a2)
    80003bfc:	659e                	ld	a1,448(sp)
    80003bfe:	0005b983          	ld	s3,0(a1)
    80003c02:	6644                	ld	s1,136(a2)
    80003c04:	75fa                	ld	a1,440(sp)
    80003c06:	0005ba03          	ld	s4,0(a1)
    80003c0a:	09063b03          	ld	s6,144(a2)
    80003c0e:	22813583          	ld	a1,552(sp)
    80003c12:	e33e                	sd	a5,384(sp)
    80003c14:	95be                	add	a1,a1,a5
    80003c16:	058e                	slli	a1,a1,0x3
    80003c18:	95aa                	add	a1,a1,a0
    80003c1a:	fb2e                	sd	a1,432(sp)
    80003c1c:	618c                	ld	a1,0(a1)
    80003c1e:	6e54                	ld	a3,152(a2)
    80003c20:	1c8f870b          	.insn	4, 0x1c8f870b
    80003c24:	3d33870b          	.insn	4, 0x3d33870b
    80003c28:	7c99070b          	.insn	4, 0x7c99070b
    80003c2c:	5cba058b          	.insn	4, 0x5cba058b
    80003c30:	d0db15fb          	.insn	4, 0xd0db15fb
    80003c34:	f20581d3          	fmv.d.x	ft3,a1
    80003c38:	02317153          	fadd.d	ft2,ft2,ft3
    80003c3c:	75f6                	ld	a1,376(sp)
    80003c3e:	0005b383          	ld	t2,0(a1)
    80003c42:	0a063903          	ld	s2,160(a2)
    80003c46:	75b6                	ld	a1,360(sp)
    80003c48:	6198                	ld	a4,0(a1)
    80003c4a:	765c                	ld	a5,168(a2)
    80003c4c:	65ba                	ld	a1,392(sp)
    80003c4e:	6184                	ld	s1,0(a1)
    80003c50:	7a40                	ld	s0,176(a2)
    80003c52:	23813583          	ld	a1,568(sp)
    80003c56:	66da                	ld	a3,400(sp)
    80003c58:	95b6                	add	a1,a1,a3
    80003c5a:	058e                	slli	a1,a1,0x3
    80003c5c:	95aa                	add	a1,a1,a0
    80003c5e:	eaae                	sd	a1,336(sp)
    80003c60:	618c                	ld	a1,0(a1)
    80003c62:	7e54                	ld	a3,184(a2)
    80003c64:	3ce3875b          	.insn	4, 0x3ce3875b
    80003c68:	7cf9078b          	.insn	4, 0x7cf9078b
    80003c6c:	5cb4858b          	.insn	4, 0x5cb4858b
    80003c70:	d0d415fb          	.insn	4, 0xd0d415fb
    80003c74:	f20581d3          	fmv.d.x	ft3,a1
    80003c78:	02317153          	fadd.d	ft2,ft2,ft3
    80003c7c:	25813583          	ld	a1,600(sp)
    80003c80:	20958593          	addi	a1,a1,521
    80003c84:	058e                	slli	a1,a1,0x3
    80003c86:	95aa                	add	a1,a1,a0
    80003c88:	618c                	ld	a1,0(a1)
    80003c8a:	6274                	ld	a3,192(a2)
    80003c8c:	3c05845b          	.insn	4, 0x3c05845b
    80003c90:	cc0695fb          	.insn	4, 0xcc0695fb
    80003c94:	1cb586ab          	.insn	4, 0x1cb586ab
    80003c98:	f20581d3          	fmv.d.x	ft3,a1
    80003c9c:	02317153          	fadd.d	ft2,ft2,ft3
    80003ca0:	a22095d3          	flt.d	a1,ft1,ft2
    80003ca4:	c1a9                	beqz	a1,80003ce6 <bilateral_core+0x1af0>
    80003ca6:	f20f01d3          	fmv.d.x	ft3,t5
    80003caa:	0201f1d3          	fadd.d	ft3,ft3,ft0
    80003cae:	f2080253          	fmv.d.x	ft4,a6
    80003cb2:	0241f1d3          	fadd.d	ft3,ft3,ft4
    80003cb6:	f2088253          	fmv.d.x	ft4,a7
    80003cba:	0241f1d3          	fadd.d	ft3,ft3,ft4
    80003cbe:	f2028253          	fmv.d.x	ft4,t0
    80003cc2:	0241f1d3          	fadd.d	ft3,ft3,ft4
    80003cc6:	f2070253          	fmv.d.x	ft4,a4
    80003cca:	0241f1d3          	fadd.d	ft3,ft3,ft4
    80003cce:	f2040253          	fmv.d.x	ft4,s0
    80003cd2:	0241f1d3          	fadd.d	ft3,ft3,ft4
    80003cd6:	f2068253          	fmv.d.x	ft4,a3
    80003cda:	0241f1d3          	fadd.d	ft3,ft3,ft4
    80003cde:	1a21f153          	fdiv.d	ft2,ft3,ft2
    80003ce2:	e2010fd3          	fmv.x.d	t6,ft2
    80003ce6:	27813583          	ld	a1,632(sp)
    80003cea:	7692                	ld	a3,288(sp)
    80003cec:	95b6                	add	a1,a1,a3
    80003cee:	01f5b023          	sd	t6,0(a1)
    80003cf2:	000eb903          	ld	s2,0(t4)
    80003cf6:	4c81                	li	s9,0
    80003cf8:	4c01                	li	s8,0
    80003cfa:	4a01                	li	s4,0
    80003cfc:	4e81                	li	t4,0
    80003cfe:	4b01                	li	s6,0
    80003d00:	4d81                	li	s11,0
    80003d02:	4f01                	li	t5,0
    80003d04:	4d01                	li	s10,0
    80003d06:	26013703          	ld	a4,608(sp)
    80003d0a:	ef29                	bnez	a4,80003d64 <bilateral_core+0x1b6e>
    80003d0c:	22013783          	ld	a5,544(sp)
    80003d10:	75ba                	ld	a1,424(sp)
    80003d12:	95be                	add	a1,a1,a5
    80003d14:	66fe                	ld	a3,472(sp)
    80003d16:	8df5                	and	a1,a1,a3
    80003d18:	058e                	slli	a1,a1,0x3
    80003d1a:	95aa                	add	a1,a1,a0
    80003d1c:	0005be83          	ld	t4,0(a1)
    80003d20:	00063a03          	ld	s4,0(a2)
    80003d24:	759a                	ld	a1,416(sp)
    80003d26:	95be                	add	a1,a1,a5
    80003d28:	0f7a8693          	addi	a3,s5,247
    80003d2c:	8df5                	and	a1,a1,a3
    80003d2e:	058e                	slli	a1,a1,0x3
    80003d30:	95aa                	add	a1,a1,a0
    80003d32:	0005bb03          	ld	s6,0(a1)
    80003d36:	00863d83          	ld	s11,8(a2)
    80003d3a:	20813583          	ld	a1,520(sp)
    80003d3e:	66da                	ld	a3,400(sp)
    80003d40:	95b6                	add	a1,a1,a3
    80003d42:	058e                	slli	a1,a1,0x3
    80003d44:	95aa                	add	a1,a1,a0
    80003d46:	0005bc03          	ld	s8,0(a1)
    80003d4a:	01063c83          	ld	s9,16(a2)
    80003d4e:	659a                	ld	a1,384(sp)
    80003d50:	95be                	add	a1,a1,a5
    80003d52:	0f9a8693          	addi	a3,s5,249
    80003d56:	8df5                	and	a1,a1,a3
    80003d58:	058e                	slli	a1,a1,0x3
    80003d5a:	95aa                	add	a1,a1,a0
    80003d5c:	0005bf03          	ld	t5,0(a1)
    80003d60:	01863d03          	ld	s10,24(a2)
    80003d64:	4081                	li	ra,0
    80003d66:	4b81                	li	s7,0
    80003d68:	e31d                	bnez	a4,80003d8e <bilateral_core+0x1b98>
    80003d6a:	26813583          	ld	a1,616(sp)
    80003d6e:	00a5e593          	ori	a1,a1,10
    80003d72:	22013683          	ld	a3,544(sp)
    80003d76:	95b6                	add	a1,a1,a3
    80003d78:	24813683          	ld	a3,584(sp)
    80003d7c:	0fa68693          	addi	a3,a3,250
    80003d80:	8df5                	and	a1,a1,a3
    80003d82:	058e                	slli	a1,a1,0x3
    80003d84:	95aa                	add	a1,a1,a0
    80003d86:	0005b083          	ld	ra,0(a1)
    80003d8a:	02063b83          	ld	s7,32(a2)
    80003d8e:	4981                	li	s3,0
    80003d90:	4381                	li	t2,0
    80003d92:	4801                	li	a6,0
    80003d94:	4281                	li	t0,0
    80003d96:	4481                	li	s1,0
    80003d98:	4781                	li	a5,0
    80003d9a:	24013703          	ld	a4,576(sp)
    80003d9e:	e329                	bnez	a4,80003de0 <bilateral_core+0x1bea>
    80003da0:	23013783          	ld	a5,560(sp)
    80003da4:	75ba                	ld	a1,424(sp)
    80003da6:	95be                	add	a1,a1,a5
    80003da8:	66fe                	ld	a3,472(sp)
    80003daa:	8df5                	and	a1,a1,a3
    80003dac:	058e                	slli	a1,a1,0x3
    80003dae:	95aa                	add	a1,a1,a0
    80003db0:	0005b803          	ld	a6,0(a1)
    80003db4:	02863283          	ld	t0,40(a2)
    80003db8:	759a                	ld	a1,416(sp)
    80003dba:	95be                	add	a1,a1,a5
    80003dbc:	24813683          	ld	a3,584(sp)
    80003dc0:	0f768693          	addi	a3,a3,247
    80003dc4:	8df5                	and	a1,a1,a3
    80003dc6:	058e                	slli	a1,a1,0x3
    80003dc8:	95aa                	add	a1,a1,a0
    80003dca:	0005b383          	ld	t2,0(a1)
    80003dce:	03063983          	ld	s3,48(a2)
    80003dd2:	65fa                	ld	a1,408(sp)
    80003dd4:	66da                	ld	a3,400(sp)
    80003dd6:	95b6                	add	a1,a1,a3
    80003dd8:	058e                	slli	a1,a1,0x3
    80003dda:	95aa                	add	a1,a1,a0
    80003ddc:	6184                	ld	s1,0(a1)
    80003dde:	7e1c                	ld	a5,56(a2)
    80003de0:	4f81                	li	t6,0
    80003de2:	4881                	li	a7,0
    80003de4:	4581                	li	a1,0
    80003de6:	4401                	li	s0,0
    80003de8:	ef05                	bnez	a4,80003e20 <bilateral_core+0x1c2a>
    80003dea:	23013403          	ld	s0,560(sp)
    80003dee:	659a                	ld	a1,384(sp)
    80003df0:	95a2                	add	a1,a1,s0
    80003df2:	24813703          	ld	a4,584(sp)
    80003df6:	0f970693          	addi	a3,a4,249
    80003dfa:	8df5                	and	a1,a1,a3
    80003dfc:	058e                	slli	a1,a1,0x3
    80003dfe:	95aa                	add	a1,a1,a0
    80003e00:	0005b883          	ld	a7,0(a1)
    80003e04:	04063f83          	ld	t6,64(a2)
    80003e08:	26813583          	ld	a1,616(sp)
    80003e0c:	00a5e593          	ori	a1,a1,10
    80003e10:	95a2                	add	a1,a1,s0
    80003e12:	0fa70413          	addi	s0,a4,250
    80003e16:	8de1                	and	a1,a1,s0
    80003e18:	058e                	slli	a1,a1,0x3
    80003e1a:	95aa                	add	a1,a1,a0
    80003e1c:	618c                	ld	a1,0(a1)
    80003e1e:	6620                	ld	s0,72(a2)
    80003e20:	81ac868b          	.insn	4, 0x81ac868b
    80003e24:	61ba068b          	.insn	4, 0x61ba068b
    80003e28:	41ec068b          	.insn	4, 0x41ec068b
    80003e2c:	216e868b          	.insn	4, 0x216e868b
    80003e30:	28013703          	ld	a4,640(sp)
    80003e34:	00e916fb          	.insn	4, 0x00e916fb
    80003e38:	00d68a2b          	.insn	4, 0x00d68a2b
    80003e3c:	f2068153          	fmv.d.x	ft2,a3
    80003e40:	02017153          	fadd.d	ft2,ft2,ft0
    80003e44:	84f9868b          	.insn	4, 0x84f9868b
    80003e48:	645b868b          	.insn	4, 0x645b868b
    80003e4c:	4493868b          	.insn	4, 0x4493868b
    80003e50:	2500868b          	.insn	4, 0x2500868b
    80003e54:	40e916fb          	.insn	4, 0x40e916fb
    80003e58:	04d6882b          	.insn	4, 0x04d6882b
    80003e5c:	f20681d3          	fmv.d.x	ft3,a3
    80003e60:	02317153          	fadd.d	ft2,ft2,ft3
    80003e64:	00033683          	ld	a3,0(t1)
    80003e68:	05063283          	ld	t0,80(a2)
    80003e6c:	24813a83          	ld	s5,584(sp)
    80003e70:	0f7a8793          	addi	a5,s5,247
    80003e74:	ebbe                	sd	a5,464(sp)
    80003e76:	6496                	ld	s1,320(sp)
    80003e78:	8fe5                	and	a5,a5,s1
    80003e7a:	078e                	slli	a5,a5,0x3
    80003e7c:	97aa                	add	a5,a5,a0
    80003e7e:	e7be                	sd	a5,456(sp)
    80003e80:	639c                	ld	a5,0(a5)
    80003e82:	6e24                	ld	s1,88(a2)
    80003e84:	688f840b          	.insn	4, 0x688f840b
    80003e88:	28b8858b          	.insn	4, 0x28b8858b
    80003e8c:	08e9058b          	.insn	4, 0x08e9058b
    80003e90:	48f6858b          	.insn	4, 0x48f6858b
    80003e94:	909295fb          	.insn	4, 0x909295fb
    80003e98:	08b588ab          	.insn	4, 0x08b588ab
    80003e9c:	f20581d3          	fmv.d.x	ft3,a1
    80003ea0:	02317153          	fadd.d	ft2,ft2,ft3
    80003ea4:	06063283          	ld	t0,96(a2)
    80003ea8:	000e3303          	ld	t1,0(t3)
    80003eac:	06863383          	ld	t2,104(a2)
    80003eb0:	26813583          	ld	a1,616(sp)
    80003eb4:	00a5e413          	ori	s0,a1,10
    80003eb8:	25013583          	ld	a1,592(sp)
    80003ebc:	95a2                	add	a1,a1,s0
    80003ebe:	f22e                	sd	a1,288(sp)
    80003ec0:	058e                	slli	a1,a1,0x3
    80003ec2:	e62e                	sd	a1,264(sp)
    80003ec4:	00b50fb3          	add	t6,a0,a1
    80003ec8:	000fb483          	ld	s1,0(t6)
    80003ecc:	07063e83          	ld	t4,112(a2)
    80003ed0:	21813583          	ld	a1,536(sp)
    80003ed4:	619c                	ld	a5,0(a1)
    80003ed6:	7e2c                	ld	a1,120(a2)
    80003ed8:	0ce9068b          	.insn	4, 0x0ce9068b
    80003edc:	2c69068b          	.insn	4, 0x2c69068b
    80003ee0:	6c72868b          	.insn	4, 0x6c72868b
    80003ee4:	4cf4868b          	.insn	4, 0x4cf4868b
    80003ee8:	d0be95fb          	.insn	4, 0xd0be95fb
    80003eec:	0cb582ab          	.insn	4, 0x0cb582ab
    80003ef0:	f20581d3          	fmv.d.x	ft3,a1
    80003ef4:	02317153          	fadd.d	ft2,ft2,ft3
    80003ef8:	659e                	ld	a1,448(sp)
    80003efa:	0005b303          	ld	t1,0(a1)
    80003efe:	08063383          	ld	t2,128(a2)
    80003f02:	75fa                	ld	a1,440(sp)
    80003f04:	0005bf03          	ld	t5,0(a1)
    80003f08:	665c                	ld	a5,136(a2)
    80003f0a:	75da                	ld	a1,432(sp)
    80003f0c:	6184                	ld	s1,0(a1)
    80003f0e:	09063e83          	ld	t4,144(a2)
    80003f12:	22813583          	ld	a1,552(sp)
    80003f16:	f722                	sd	s0,424(sp)
    80003f18:	95a2                	add	a1,a1,s0
    80003f1a:	058e                	slli	a1,a1,0x3
    80003f1c:	95aa                	add	a1,a1,a0
    80003f1e:	20b13c23          	sd	a1,536(sp)
    80003f22:	618c                	ld	a1,0(a1)
    80003f24:	6e54                	ld	a3,152(a2)
    80003f26:	1ce9070b          	.insn	4, 0x1ce9070b
    80003f2a:	3de3070b          	.insn	4, 0x3de3070b
    80003f2e:	7cf3870b          	.insn	4, 0x7cf3870b
    80003f32:	5cb4858b          	.insn	4, 0x5cb4858b
    80003f36:	d0de95fb          	.insn	4, 0xd0de95fb
    80003f3a:	f20581d3          	fmv.d.x	ft3,a1
    80003f3e:	02317153          	fadd.d	ft2,ft2,ft3
    80003f42:	75b6                	ld	a1,360(sp)
    80003f44:	0005b303          	ld	t1,0(a1)
    80003f48:	0a063383          	ld	t2,160(a2)
    80003f4c:	65ba                	ld	a1,392(sp)
    80003f4e:	6198                	ld	a4,0(a1)
    80003f50:	765c                	ld	a5,168(a2)
    80003f52:	65d6                	ld	a1,336(sp)
    80003f54:	6184                	ld	s1,0(a1)
    80003f56:	7a40                	ld	s0,176(a2)
    80003f58:	23813583          	ld	a1,568(sp)
    80003f5c:	669a                	ld	a3,384(sp)
    80003f5e:	95b6                	add	a1,a1,a3
    80003f60:	058e                	slli	a1,a1,0x3
    80003f62:	95aa                	add	a1,a1,a0
    80003f64:	e6ae                	sd	a1,328(sp)
    80003f66:	618c                	ld	a1,0(a1)
    80003f68:	7e54                	ld	a3,184(a2)
    80003f6a:	3ce3075b          	.insn	4, 0x3ce3075b
    80003f6e:	7cf3878b          	.insn	4, 0x7cf3878b
    80003f72:	5cb4858b          	.insn	4, 0x5cb4858b
    80003f76:	d0d415fb          	.insn	4, 0xd0d415fb
    80003f7a:	f20581d3          	fmv.d.x	ft3,a1
    80003f7e:	02317153          	fadd.d	ft2,ft2,ft3
    80003f82:	25813583          	ld	a1,600(sp)
    80003f86:	20a58593          	addi	a1,a1,522
    80003f8a:	058e                	slli	a1,a1,0x3
    80003f8c:	95aa                	add	a1,a1,a0
    80003f8e:	618c                	ld	a1,0(a1)
    80003f90:	627c                	ld	a5,192(a2)
    80003f92:	3c0586db          	.insn	4, 0x3c0586db
    80003f96:	cc0795fb          	.insn	4, 0xcc0795fb
    80003f9a:	1cb587ab          	.insn	4, 0x1cb587ab
    80003f9e:	f20581d3          	fmv.d.x	ft3,a1
    80003fa2:	02317153          	fadd.d	ft2,ft2,ft3
    80003fa6:	a22095d3          	flt.d	a1,ft1,ft2
    80003faa:	c1a9                	beqz	a1,80003fec <bilateral_core+0x1df6>
    80003fac:	f20a01d3          	fmv.d.x	ft3,s4
    80003fb0:	0201f1d3          	fadd.d	ft3,ft3,ft0
    80003fb4:	f2080253          	fmv.d.x	ft4,a6
    80003fb8:	0241f1d3          	fadd.d	ft3,ft3,ft4
    80003fbc:	f2088253          	fmv.d.x	ft4,a7
    80003fc0:	0241f1d3          	fadd.d	ft3,ft3,ft4
    80003fc4:	f2028253          	fmv.d.x	ft4,t0
    80003fc8:	0241f1d3          	fadd.d	ft3,ft3,ft4
    80003fcc:	f2070253          	fmv.d.x	ft4,a4
    80003fd0:	0241f1d3          	fadd.d	ft3,ft3,ft4
    80003fd4:	f2068253          	fmv.d.x	ft4,a3
    80003fd8:	0241f1d3          	fadd.d	ft3,ft3,ft4
    80003fdc:	f2078253          	fmv.d.x	ft4,a5
    80003fe0:	0241f1d3          	fadd.d	ft3,ft3,ft4
    80003fe4:	1a21f153          	fdiv.d	ft2,ft3,ft2
    80003fe8:	e2010953          	fmv.x.d	s2,ft2
    80003fec:	fefe                	sd	t6,376(sp)
    80003fee:	27813583          	ld	a1,632(sp)
    80003ff2:	66f2                	ld	a3,280(sp)
    80003ff4:	95b6                	add	a1,a1,a3
    80003ff6:	0125b023          	sd	s2,0(a1)
    80003ffa:	000e3b03          	ld	s6,0(t3)
    80003ffe:	4b81                	li	s7,0
    80004000:	4c01                	li	s8,0
    80004002:	4e01                	li	t3,0
    80004004:	4281                	li	t0,0
    80004006:	4a01                	li	s4,0
    80004008:	4d81                	li	s11,0
    8000400a:	4c81                	li	s9,0
    8000400c:	4f01                	li	t5,0
    8000400e:	24013783          	ld	a5,576(sp)
    80004012:	26013703          	ld	a4,608(sp)
    80004016:	ef29                	bnez	a4,80004070 <bilateral_core+0x1e7a>
    80004018:	22013483          	ld	s1,544(sp)
    8000401c:	759a                	ld	a1,416(sp)
    8000401e:	95a6                	add	a1,a1,s1
    80004020:	66de                	ld	a3,464(sp)
    80004022:	8df5                	and	a1,a1,a3
    80004024:	058e                	slli	a1,a1,0x3
    80004026:	95aa                	add	a1,a1,a0
    80004028:	0005b283          	ld	t0,0(a1)
    8000402c:	00063e03          	ld	t3,0(a2)
    80004030:	65da                	ld	a1,400(sp)
    80004032:	95a6                	add	a1,a1,s1
    80004034:	0f8a8693          	addi	a3,s5,248
    80004038:	8df5                	and	a1,a1,a3
    8000403a:	058e                	slli	a1,a1,0x3
    8000403c:	95aa                	add	a1,a1,a0
    8000403e:	0005ba03          	ld	s4,0(a1)
    80004042:	00863d83          	ld	s11,8(a2)
    80004046:	20813583          	ld	a1,520(sp)
    8000404a:	669a                	ld	a3,384(sp)
    8000404c:	95b6                	add	a1,a1,a3
    8000404e:	058e                	slli	a1,a1,0x3
    80004050:	95aa                	add	a1,a1,a0
    80004052:	0005bc03          	ld	s8,0(a1)
    80004056:	01063b83          	ld	s7,16(a2)
    8000405a:	75ba                	ld	a1,424(sp)
    8000405c:	95a6                	add	a1,a1,s1
    8000405e:	0faa8693          	addi	a3,s5,250
    80004062:	8df5                	and	a1,a1,a3
    80004064:	058e                	slli	a1,a1,0x3
    80004066:	95aa                	add	a1,a1,a0
    80004068:	0005bc83          	ld	s9,0(a1)
    8000406c:	01863f03          	ld	t5,24(a2)
    80004070:	4301                	li	t1,0
    80004072:	4981                	li	s3,0
    80004074:	e30d                	bnez	a4,80004096 <bilateral_core+0x1ea0>
    80004076:	26813583          	ld	a1,616(sp)
    8000407a:	00b5e593          	ori	a1,a1,11
    8000407e:	22013683          	ld	a3,544(sp)
    80004082:	95b6                	add	a1,a1,a3
    80004084:	0fba8693          	addi	a3,s5,251
    80004088:	8df5                	and	a1,a1,a3
    8000408a:	058e                	slli	a1,a1,0x3
    8000408c:	95aa                	add	a1,a1,a0
    8000408e:	0005b303          	ld	t1,0(a1)
    80004092:	02063983          	ld	s3,32(a2)
    80004096:	4e81                	li	t4,0
    80004098:	4f81                	li	t6,0
    8000409a:	4801                	li	a6,0
    8000409c:	4d01                	li	s10,0
    8000409e:	4681                	li	a3,0
    800040a0:	4381                	li	t2,0
    800040a2:	e3a1                	bnez	a5,800040e2 <bilateral_core+0x1eec>
    800040a4:	23013703          	ld	a4,560(sp)
    800040a8:	759a                	ld	a1,416(sp)
    800040aa:	95ba                	add	a1,a1,a4
    800040ac:	66de                	ld	a3,464(sp)
    800040ae:	8df5                	and	a1,a1,a3
    800040b0:	058e                	slli	a1,a1,0x3
    800040b2:	95aa                	add	a1,a1,a0
    800040b4:	0005b803          	ld	a6,0(a1)
    800040b8:	02863d03          	ld	s10,40(a2)
    800040bc:	65da                	ld	a1,400(sp)
    800040be:	95ba                	add	a1,a1,a4
    800040c0:	0f8a8693          	addi	a3,s5,248
    800040c4:	8df5                	and	a1,a1,a3
    800040c6:	058e                	slli	a1,a1,0x3
    800040c8:	95aa                	add	a1,a1,a0
    800040ca:	0005bf83          	ld	t6,0(a1)
    800040ce:	03063e83          	ld	t4,48(a2)
    800040d2:	65fa                	ld	a1,408(sp)
    800040d4:	669a                	ld	a3,384(sp)
    800040d6:	96ae                	add	a3,a3,a1
    800040d8:	068e                	slli	a3,a3,0x3
    800040da:	96aa                	add	a3,a3,a0
    800040dc:	6294                	ld	a3,0(a3)
    800040de:	03863383          	ld	t2,56(a2)
    800040e2:	4701                	li	a4,0
    800040e4:	4a81                	li	s5,0
    800040e6:	4081                	li	ra,0
    800040e8:	4881                	li	a7,0
    800040ea:	ef9d                	bnez	a5,80004128 <bilateral_core+0x1f32>
    800040ec:	23013583          	ld	a1,560(sp)
    800040f0:	773a                	ld	a4,424(sp)
    800040f2:	972e                	add	a4,a4,a1
    800040f4:	24813483          	ld	s1,584(sp)
    800040f8:	0fa48793          	addi	a5,s1,250
    800040fc:	8f7d                	and	a4,a4,a5
    800040fe:	070e                	slli	a4,a4,0x3
    80004100:	972a                	add	a4,a4,a0
    80004102:	00073a83          	ld	s5,0(a4)
    80004106:	6238                	ld	a4,64(a2)
    80004108:	26813783          	ld	a5,616(sp)
    8000410c:	00b7e413          	ori	s0,a5,11
    80004110:	008588b3          	add	a7,a1,s0
    80004114:	0fb48413          	addi	s0,s1,251
    80004118:	0088f433          	and	s0,a7,s0
    8000411c:	040e                	slli	s0,s0,0x3
    8000411e:	942a                	add	s0,s0,a0
    80004120:	00043083          	ld	ra,0(s0)
    80004124:	04863883          	ld	a7,72(a2)
    80004128:	81eb840b          	.insn	4, 0x81eb840b
    8000412c:	61be040b          	.insn	4, 0x61be040b
    80004130:	419c040b          	.insn	4, 0x419c040b
    80004134:	2142840b          	.insn	4, 0x2142840b
    80004138:	28013783          	ld	a5,640(sp)
    8000413c:	00fb147b          	.insn	4, 0x00fb147b
    80004140:	0084092b          	.insn	4, 0x0084092b
    80004144:	f2040153          	fmv.d.x	ft2,s0
    80004148:	02017153          	fadd.d	ft2,ft2,ft0
    8000414c:	847e858b          	.insn	4, 0x847e858b
    80004150:	65a9858b          	.insn	4, 0x65a9858b
    80004154:	44df858b          	.insn	4, 0x44df858b
    80004158:	2503058b          	.insn	4, 0x2503058b
    8000415c:	40fb15fb          	.insn	4, 0x40fb15fb
    80004160:	04b5882b          	.insn	4, 0x04b5882b
    80004164:	f20581d3          	fmv.d.x	ft3,a1
    80004168:	02317153          	fadd.d	ft2,ft2,ft3
    8000416c:	65be                	ld	a1,456(sp)
    8000416e:	618c                	ld	a1,0(a1)
    80004170:	6a34                	ld	a3,80(a2)
    80004172:	24813483          	ld	s1,584(sp)
    80004176:	0f848493          	addi	s1,s1,248
    8000417a:	e7a6                	sd	s1,456(sp)
    8000417c:	7452                	ld	s0,304(sp)
    8000417e:	8c65                	and	s0,s0,s1
    80004180:	040e                	slli	s0,s0,0x3
    80004182:	008502b3          	add	t0,a0,s0
    80004186:	0002b403          	ld	s0,0(t0)
    8000418a:	6e24                	ld	s1,88(a2)
    8000418c:	6917070b          	.insn	4, 0x6917070b
    80004190:	281a870b          	.insn	4, 0x281a870b
    80004194:	08fb070b          	.insn	4, 0x08fb070b
    80004198:	4885858b          	.insn	4, 0x4885858b
    8000419c:	909695fb          	.insn	4, 0x909695fb
    800041a0:	08b588ab          	.insn	4, 0x08b588ab
    800041a4:	f20581d3          	fmv.d.x	ft3,a1
    800041a8:	02317153          	fadd.d	ft2,ft2,ft3
    800041ac:	06063303          	ld	t1,96(a2)
    800041b0:	79f6                	ld	s3,376(sp)
    800041b2:	0009b383          	ld	t2,0(s3)
    800041b6:	06863e03          	ld	t3,104(a2)
    800041ba:	26813583          	ld	a1,616(sp)
    800041be:	00b5e713          	ori	a4,a1,11
    800041c2:	25013583          	ld	a1,592(sp)
    800041c6:	95ba                	add	a1,a1,a4
    800041c8:	fa2e                	sd	a1,304(sp)
    800041ca:	058e                	slli	a1,a1,0x3
    800041cc:	ee2e                	sd	a1,280(sp)
    800041ce:	00b50eb3          	add	t4,a0,a1
    800041d2:	000eb403          	ld	s0,0(t4)
    800041d6:	07063f03          	ld	t5,112(a2)
    800041da:	659e                	ld	a1,448(sp)
    800041dc:	6184                	ld	s1,0(a1)
    800041de:	7e2c                	ld	a1,120(a2)
    800041e0:	0cfb068b          	.insn	4, 0x0cfb068b
    800041e4:	2c7b068b          	.insn	4, 0x2c7b068b
    800041e8:	6dc3068b          	.insn	4, 0x6dc3068b
    800041ec:	4c94068b          	.insn	4, 0x4c94068b
    800041f0:	d0bf15fb          	.insn	4, 0xd0bf15fb
    800041f4:	0cb5832b          	.insn	4, 0x0cb5832b
    800041f8:	f20581d3          	fmv.d.x	ft3,a1
    800041fc:	02317153          	fadd.d	ft2,ft2,ft3
    80004200:	75fa                	ld	a1,440(sp)
    80004202:	0005b383          	ld	t2,0(a1)
    80004206:	08063e03          	ld	t3,128(a2)
    8000420a:	75da                	ld	a1,432(sp)
    8000420c:	0005bf03          	ld	t5,0(a1)
    80004210:	6644                	ld	s1,136(a2)
    80004212:	21813583          	ld	a1,536(sp)
    80004216:	6180                	ld	s0,0(a1)
    80004218:	09063f83          	ld	t6,144(a2)
    8000421c:	22813583          	ld	a1,552(sp)
    80004220:	f6ba                	sd	a4,360(sp)
    80004222:	95ba                	add	a1,a1,a4
    80004224:	058e                	slli	a1,a1,0x3
    80004226:	95aa                	add	a1,a1,a0
    80004228:	f32e                	sd	a1,416(sp)
    8000422a:	618c                	ld	a1,0(a1)
    8000422c:	6e54                	ld	a3,152(a2)
    8000422e:	1cfb070b          	.insn	4, 0x1cfb070b
    80004232:	3de3870b          	.insn	4, 0x3de3870b
    80004236:	7c9e070b          	.insn	4, 0x7c9e070b
    8000423a:	5cb4058b          	.insn	4, 0x5cb4058b
    8000423e:	d0df95fb          	.insn	4, 0xd0df95fb
    80004242:	f20581d3          	fmv.d.x	ft3,a1
    80004246:	02317153          	fadd.d	ft2,ft2,ft3
    8000424a:	65ba                	ld	a1,392(sp)
    8000424c:	0005b383          	ld	t2,0(a1)
    80004250:	0a063e03          	ld	t3,160(a2)
    80004254:	65d6                	ld	a1,336(sp)
    80004256:	6194                	ld	a3,0(a1)
    80004258:	765c                	ld	a5,168(a2)
    8000425a:	65b6                	ld	a1,328(sp)
    8000425c:	6184                	ld	s1,0(a1)
    8000425e:	7a40                	ld	s0,176(a2)
    80004260:	23813583          	ld	a1,568(sp)
    80004264:	773a                	ld	a4,424(sp)
    80004266:	95ba                	add	a1,a1,a4
    80004268:	058e                	slli	a1,a1,0x3
    8000426a:	95aa                	add	a1,a1,a0
    8000426c:	e2ae                	sd	a1,320(sp)
    8000426e:	618c                	ld	a1,0(a1)
    80004270:	7e58                	ld	a4,184(a2)
    80004272:	3cd386db          	.insn	4, 0x3cd386db
    80004276:	7cfe078b          	.insn	4, 0x7cfe078b
    8000427a:	5cb4858b          	.insn	4, 0x5cb4858b
    8000427e:	d0e415fb          	.insn	4, 0xd0e415fb
    80004282:	f20581d3          	fmv.d.x	ft3,a1
    80004286:	02317153          	fadd.d	ft2,ft2,ft3
    8000428a:	25813583          	ld	a1,600(sp)
    8000428e:	20b58593          	addi	a1,a1,523
    80004292:	058e                	slli	a1,a1,0x3
    80004294:	95aa                	add	a1,a1,a0
    80004296:	618c                	ld	a1,0(a1)
    80004298:	6278                	ld	a4,192(a2)
    8000429a:	3c05845b          	.insn	4, 0x3c05845b
    8000429e:	cc07177b          	.insn	4, 0xcc07177b
    800042a2:	1ce705ab          	.insn	4, 0x1ce705ab
    800042a6:	f20701d3          	fmv.d.x	ft3,a4
    800042aa:	02317153          	fadd.d	ft2,ft2,ft3
    800042ae:	a2209753          	flt.d	a4,ft1,ft2
    800042b2:	c329                	beqz	a4,800042f4 <bilateral_core+0x20fe>
    800042b4:	f20901d3          	fmv.d.x	ft3,s2
    800042b8:	0201f1d3          	fadd.d	ft3,ft3,ft0
    800042bc:	f2080253          	fmv.d.x	ft4,a6
    800042c0:	0241f1d3          	fadd.d	ft3,ft3,ft4
    800042c4:	f2088253          	fmv.d.x	ft4,a7
    800042c8:	0241f1d3          	fadd.d	ft3,ft3,ft4
    800042cc:	f2030253          	fmv.d.x	ft4,t1
    800042d0:	0241f1d3          	fadd.d	ft3,ft3,ft4
    800042d4:	f2068253          	fmv.d.x	ft4,a3
    800042d8:	0241f1d3          	fadd.d	ft3,ft3,ft4
    800042dc:	f2040253          	fmv.d.x	ft4,s0
    800042e0:	0241f1d3          	fadd.d	ft3,ft3,ft4
    800042e4:	f2058253          	fmv.d.x	ft4,a1
    800042e8:	0241f1d3          	fadd.d	ft3,ft3,ft4
    800042ec:	1a21f153          	fdiv.d	ft2,ft3,ft2
    800042f0:	e2010b53          	fmv.x.d	s6,ft2
    800042f4:	27813583          	ld	a1,632(sp)
    800042f8:	66d2                	ld	a3,272(sp)
    800042fa:	95b6                	add	a1,a1,a3
    800042fc:	0165b023          	sd	s6,0(a1)
    80004300:	0009ba03          	ld	s4,0(s3)
    80004304:	4d81                	li	s11,0
    80004306:	4b81                	li	s7,0
    80004308:	4901                	li	s2,0
    8000430a:	4381                	li	t2,0
    8000430c:	4b01                	li	s6,0
    8000430e:	4c01                	li	s8,0
    80004310:	4c81                	li	s9,0
    80004312:	4981                	li	s3,0
    80004314:	24813703          	ld	a4,584(sp)
    80004318:	26013783          	ld	a5,608(sp)
    8000431c:	efa9                	bnez	a5,80004376 <bilateral_core+0x2180>
    8000431e:	22013483          	ld	s1,544(sp)
    80004322:	65da                	ld	a1,400(sp)
    80004324:	95a6                	add	a1,a1,s1
    80004326:	66be                	ld	a3,456(sp)
    80004328:	8df5                	and	a1,a1,a3
    8000432a:	058e                	slli	a1,a1,0x3
    8000432c:	95aa                	add	a1,a1,a0
    8000432e:	0005b383          	ld	t2,0(a1)
    80004332:	00063903          	ld	s2,0(a2)
    80004336:	659a                	ld	a1,384(sp)
    80004338:	95a6                	add	a1,a1,s1
    8000433a:	0f970693          	addi	a3,a4,249
    8000433e:	8df5                	and	a1,a1,a3
    80004340:	058e                	slli	a1,a1,0x3
    80004342:	95aa                	add	a1,a1,a0
    80004344:	0005bb03          	ld	s6,0(a1)
    80004348:	00863c03          	ld	s8,8(a2)
    8000434c:	20813583          	ld	a1,520(sp)
    80004350:	76ba                	ld	a3,424(sp)
    80004352:	95b6                	add	a1,a1,a3
    80004354:	058e                	slli	a1,a1,0x3
    80004356:	95aa                	add	a1,a1,a0
    80004358:	0005bb83          	ld	s7,0(a1)
    8000435c:	01063d83          	ld	s11,16(a2)
    80004360:	75b6                	ld	a1,360(sp)
    80004362:	95a6                	add	a1,a1,s1
    80004364:	0fb70693          	addi	a3,a4,251
    80004368:	8df5                	and	a1,a1,a3
    8000436a:	058e                	slli	a1,a1,0x3
    8000436c:	95aa                	add	a1,a1,a0
    8000436e:	0005bc83          	ld	s9,0(a1)
    80004372:	01863983          	ld	s3,24(a2)
    80004376:	4d01                	li	s10,0
    80004378:	4801                	li	a6,0
    8000437a:	24013483          	ld	s1,576(sp)
    8000437e:	e38d                	bnez	a5,800043a0 <bilateral_core+0x21aa>
    80004380:	26813583          	ld	a1,616(sp)
    80004384:	00c5e593          	ori	a1,a1,12
    80004388:	22013683          	ld	a3,544(sp)
    8000438c:	95b6                	add	a1,a1,a3
    8000438e:	0fc70693          	addi	a3,a4,252
    80004392:	8df5                	and	a1,a1,a3
    80004394:	058e                	slli	a1,a1,0x3
    80004396:	95aa                	add	a1,a1,a0
    80004398:	0005bd03          	ld	s10,0(a1)
    8000439c:	02063803          	ld	a6,32(a2)
    800043a0:	4881                	li	a7,0
    800043a2:	4301                	li	t1,0
    800043a4:	4e01                	li	t3,0
    800043a6:	4081                	li	ra,0
    800043a8:	4781                	li	a5,0
    800043aa:	4681                	li	a3,0
    800043ac:	e0a9                	bnez	s1,800043ee <bilateral_core+0x21f8>
    800043ae:	23013703          	ld	a4,560(sp)
    800043b2:	65da                	ld	a1,400(sp)
    800043b4:	95ba                	add	a1,a1,a4
    800043b6:	66be                	ld	a3,456(sp)
    800043b8:	8df5                	and	a1,a1,a3
    800043ba:	058e                	slli	a1,a1,0x3
    800043bc:	95aa                	add	a1,a1,a0
    800043be:	0005be03          	ld	t3,0(a1)
    800043c2:	02863083          	ld	ra,40(a2)
    800043c6:	659a                	ld	a1,384(sp)
    800043c8:	95ba                	add	a1,a1,a4
    800043ca:	24813683          	ld	a3,584(sp)
    800043ce:	0f968693          	addi	a3,a3,249
    800043d2:	8df5                	and	a1,a1,a3
    800043d4:	058e                	slli	a1,a1,0x3
    800043d6:	95aa                	add	a1,a1,a0
    800043d8:	0005b303          	ld	t1,0(a1)
    800043dc:	03063883          	ld	a7,48(a2)
    800043e0:	65fa                	ld	a1,408(sp)
    800043e2:	76ba                	ld	a3,424(sp)
    800043e4:	95b6                	add	a1,a1,a3
    800043e6:	058e                	slli	a1,a1,0x3
    800043e8:	95aa                	add	a1,a1,a0
    800043ea:	619c                	ld	a5,0(a1)
    800043ec:	7e14                	ld	a3,56(a2)
    800043ee:	4f01                	li	t5,0
    800043f0:	4a81                	li	s5,0
    800043f2:	4581                	li	a1,0
    800043f4:	4401                	li	s0,0
    800043f6:	ec85                	bnez	s1,8000442e <bilateral_core+0x2238>
    800043f8:	23013403          	ld	s0,560(sp)
    800043fc:	75b6                	ld	a1,360(sp)
    800043fe:	95a2                	add	a1,a1,s0
    80004400:	24813483          	ld	s1,584(sp)
    80004404:	0fb48713          	addi	a4,s1,251
    80004408:	8df9                	and	a1,a1,a4
    8000440a:	058e                	slli	a1,a1,0x3
    8000440c:	95aa                	add	a1,a1,a0
    8000440e:	0005ba83          	ld	s5,0(a1)
    80004412:	04063f03          	ld	t5,64(a2)
    80004416:	26813583          	ld	a1,616(sp)
    8000441a:	00c5e593          	ori	a1,a1,12
    8000441e:	95a2                	add	a1,a1,s0
    80004420:	0fc48413          	addi	s0,s1,252
    80004424:	8de1                	and	a1,a1,s0
    80004426:	058e                	slli	a1,a1,0x3
    80004428:	95aa                	add	a1,a1,a0
    8000442a:	618c                	ld	a1,0(a1)
    8000442c:	6620                	ld	s0,72(a2)
    8000442e:	813d870b          	.insn	4, 0x813d870b
    80004432:	6189070b          	.insn	4, 0x6189070b
    80004436:	419b870b          	.insn	4, 0x419b870b
    8000443a:	2163870b          	.insn	4, 0x2163870b
    8000443e:	28013483          	ld	s1,640(sp)
    80004442:	009a177b          	.insn	4, 0x009a177b
    80004446:	00e709ab          	.insn	4, 0x00e709ab
    8000444a:	f2070153          	fmv.d.x	ft2,a4
    8000444e:	02017153          	fadd.d	ft2,ft2,ft0
    80004452:	84d8868b          	.insn	4, 0x84d8868b
    80004456:	6418068b          	.insn	4, 0x6418068b
    8000445a:	44f3068b          	.insn	4, 0x44f3068b
    8000445e:	25cd068b          	.insn	4, 0x25cd068b
    80004462:	409a16fb          	.insn	4, 0x409a16fb
    80004466:	04d6882b          	.insn	4, 0x04d6882b
    8000446a:	f20681d3          	fmv.d.x	ft3,a3
    8000446e:	02317153          	fadd.d	ft2,ft2,ft3
    80004472:	0002b883          	ld	a7,0(t0)
    80004476:	6a38                	ld	a4,80(a2)
    80004478:	24813383          	ld	t2,584(sp)
    8000447c:	0f938693          	addi	a3,t2,249
    80004480:	e3b6                	sd	a3,448(sp)
    80004482:	77b2                	ld	a5,296(sp)
    80004484:	8ff5                	and	a5,a5,a3
    80004486:	078e                	slli	a5,a5,0x3
    80004488:	00f50fb3          	add	t6,a0,a5
    8000448c:	000fb783          	ld	a5,0(t6)
    80004490:	6e34                	ld	a3,88(a2)
    80004492:	688f040b          	.insn	4, 0x688f040b
    80004496:	28ba858b          	.insn	4, 0x28ba858b
    8000449a:	089a058b          	.insn	4, 0x089a058b
    8000449e:	48f8858b          	.insn	4, 0x48f8858b
    800044a2:	90d715fb          	.insn	4, 0x90d715fb
    800044a6:	08b588ab          	.insn	4, 0x08b588ab
    800044aa:	f20581d3          	fmv.d.x	ft3,a1
    800044ae:	02317153          	fadd.d	ft2,ft2,ft3
    800044b2:	06063303          	ld	t1,96(a2)
    800044b6:	000ebe03          	ld	t3,0(t4)
    800044ba:	06863283          	ld	t0,104(a2)
    800044be:	26813583          	ld	a1,616(sp)
    800044c2:	00c5e793          	ori	a5,a1,12
    800044c6:	25013583          	ld	a1,592(sp)
    800044ca:	95be                	add	a1,a1,a5
    800044cc:	f62e                	sd	a1,296(sp)
    800044ce:	058e                	slli	a1,a1,0x3
    800044d0:	ea2e                	sd	a1,272(sp)
    800044d2:	95aa                	add	a1,a1,a0
    800044d4:	fdae                	sd	a1,248(sp)
    800044d6:	0005bf03          	ld	t5,0(a1)
    800044da:	7a20                	ld	s0,112(a2)
    800044dc:	75fa                	ld	a1,440(sp)
    800044de:	6198                	ld	a4,0(a1)
    800044e0:	7e2c                	ld	a1,120(a2)
    800044e2:	0c9a068b          	.insn	4, 0x0c9a068b
    800044e6:	2dca068b          	.insn	4, 0x2dca068b
    800044ea:	6c53068b          	.insn	4, 0x6c53068b
    800044ee:	4cef068b          	.insn	4, 0x4cef068b
    800044f2:	d0b415fb          	.insn	4, 0xd0b415fb
    800044f6:	0cb5832b          	.insn	4, 0x0cb5832b
    800044fa:	f20581d3          	fmv.d.x	ft3,a1
    800044fe:	02317153          	fadd.d	ft2,ft2,ft3
    80004502:	75da                	ld	a1,432(sp)
    80004504:	0005be03          	ld	t3,0(a1)
    80004508:	08063f03          	ld	t5,128(a2)
    8000450c:	21813583          	ld	a1,536(sp)
    80004510:	0005b903          	ld	s2,0(a1)
    80004514:	08863283          	ld	t0,136(a2)
    80004518:	759a                	ld	a1,416(sp)
    8000451a:	6180                	ld	s0,0(a1)
    8000451c:	09063a83          	ld	s5,144(a2)
    80004520:	22813583          	ld	a1,552(sp)
    80004524:	febe                	sd	a5,376(sp)
    80004526:	95be                	add	a1,a1,a5
    80004528:	058e                	slli	a1,a1,0x3
    8000452a:	95aa                	add	a1,a1,a0
    8000452c:	e72e                	sd	a1,392(sp)
    8000452e:	618c                	ld	a1,0(a1)
    80004530:	6e54                	ld	a3,152(a2)
    80004532:	1c9a070b          	.insn	4, 0x1c9a070b
    80004536:	3d2e070b          	.insn	4, 0x3d2e070b
    8000453a:	7c5f070b          	.insn	4, 0x7c5f070b
    8000453e:	5cb4058b          	.insn	4, 0x5cb4058b
    80004542:	d0da95fb          	.insn	4, 0xd0da95fb
    80004546:	f20581d3          	fmv.d.x	ft3,a1
    8000454a:	02317153          	fadd.d	ft2,ft2,ft3
    8000454e:	65d6                	ld	a1,336(sp)
    80004550:	0005be03          	ld	t3,0(a1)
    80004554:	0a063f03          	ld	t5,160(a2)
    80004558:	65b6                	ld	a1,328(sp)
    8000455a:	6198                	ld	a4,0(a1)
    8000455c:	765c                	ld	a5,168(a2)
    8000455e:	6596                	ld	a1,320(sp)
    80004560:	6184                	ld	s1,0(a1)
    80004562:	7a40                	ld	s0,176(a2)
    80004564:	23813583          	ld	a1,568(sp)
    80004568:	76b6                	ld	a3,360(sp)
    8000456a:	95b6                	add	a1,a1,a3
    8000456c:	058e                	slli	a1,a1,0x3
    8000456e:	95aa                	add	a1,a1,a0
    80004570:	eaae                	sd	a1,336(sp)
    80004572:	618c                	ld	a1,0(a1)
    80004574:	7e54                	ld	a3,184(a2)
    80004576:	3cee075b          	.insn	4, 0x3cee075b
    8000457a:	7cff078b          	.insn	4, 0x7cff078b
    8000457e:	5cb4858b          	.insn	4, 0x5cb4858b
    80004582:	d0d415fb          	.insn	4, 0xd0d415fb
    80004586:	f20581d3          	fmv.d.x	ft3,a1
    8000458a:	02317153          	fadd.d	ft2,ft2,ft3
    8000458e:	25813583          	ld	a1,600(sp)
    80004592:	20c58593          	addi	a1,a1,524
    80004596:	058e                	slli	a1,a1,0x3
    80004598:	95aa                	add	a1,a1,a0
    8000459a:	618c                	ld	a1,0(a1)
    8000459c:	6274                	ld	a3,192(a2)
    8000459e:	3c05845b          	.insn	4, 0x3c05845b
    800045a2:	cc0695fb          	.insn	4, 0xcc0695fb
    800045a6:	1cb586ab          	.insn	4, 0x1cb586ab
    800045aa:	f20581d3          	fmv.d.x	ft3,a1
    800045ae:	02317153          	fadd.d	ft2,ft2,ft3
    800045b2:	a22095d3          	flt.d	a1,ft1,ft2
    800045b6:	c1a9                	beqz	a1,800045f8 <bilateral_core+0x2402>
    800045b8:	f20981d3          	fmv.d.x	ft3,s3
    800045bc:	0201f1d3          	fadd.d	ft3,ft3,ft0
    800045c0:	f2080253          	fmv.d.x	ft4,a6
    800045c4:	0241f1d3          	fadd.d	ft3,ft3,ft4
    800045c8:	f2088253          	fmv.d.x	ft4,a7
    800045cc:	0241f1d3          	fadd.d	ft3,ft3,ft4
    800045d0:	f2030253          	fmv.d.x	ft4,t1
    800045d4:	0241f1d3          	fadd.d	ft3,ft3,ft4
    800045d8:	f2070253          	fmv.d.x	ft4,a4
    800045dc:	0241f1d3          	fadd.d	ft3,ft3,ft4
    800045e0:	f2040253          	fmv.d.x	ft4,s0
    800045e4:	0241f1d3          	fadd.d	ft3,ft3,ft4
    800045e8:	f2068253          	fmv.d.x	ft4,a3
    800045ec:	0241f1d3          	fadd.d	ft3,ft3,ft4
    800045f0:	1a21f153          	fdiv.d	ft2,ft3,ft2
    800045f4:	e2010a53          	fmv.x.d	s4,ft2
    800045f8:	27813583          	ld	a1,632(sp)
    800045fc:	66b2                	ld	a3,264(sp)
    800045fe:	95b6                	add	a1,a1,a3
    80004600:	0145b023          	sd	s4,0(a1)
    80004604:	000eb283          	ld	t0,0(t4)
    80004608:	4d81                	li	s11,0
    8000460a:	4c01                	li	s8,0
    8000460c:	4e81                	li	t4,0
    8000460e:	4801                	li	a6,0
    80004610:	4b01                	li	s6,0
    80004612:	4d01                	li	s10,0
    80004614:	4c81                	li	s9,0
    80004616:	4301                	li	t1,0
    80004618:	26013783          	ld	a5,608(sp)
    8000461c:	efa9                	bnez	a5,80004676 <bilateral_core+0x2480>
    8000461e:	22013703          	ld	a4,544(sp)
    80004622:	659a                	ld	a1,384(sp)
    80004624:	95ba                	add	a1,a1,a4
    80004626:	669e                	ld	a3,448(sp)
    80004628:	8df5                	and	a1,a1,a3
    8000462a:	058e                	slli	a1,a1,0x3
    8000462c:	95aa                	add	a1,a1,a0
    8000462e:	0005b803          	ld	a6,0(a1)
    80004632:	00063e83          	ld	t4,0(a2)
    80004636:	75ba                	ld	a1,424(sp)
    80004638:	95ba                	add	a1,a1,a4
    8000463a:	0fa38693          	addi	a3,t2,250
    8000463e:	8df5                	and	a1,a1,a3
    80004640:	058e                	slli	a1,a1,0x3
    80004642:	95aa                	add	a1,a1,a0
    80004644:	0005bb03          	ld	s6,0(a1)
    80004648:	00863d03          	ld	s10,8(a2)
    8000464c:	20813583          	ld	a1,520(sp)
    80004650:	76b6                	ld	a3,360(sp)
    80004652:	95b6                	add	a1,a1,a3
    80004654:	058e                	slli	a1,a1,0x3
    80004656:	95aa                	add	a1,a1,a0
    80004658:	0005bc03          	ld	s8,0(a1)
    8000465c:	01063d83          	ld	s11,16(a2)
    80004660:	75f6                	ld	a1,376(sp)
    80004662:	95ba                	add	a1,a1,a4
    80004664:	0fc38693          	addi	a3,t2,252
    80004668:	8df5                	and	a1,a1,a3
    8000466a:	058e                	slli	a1,a1,0x3
    8000466c:	95aa                	add	a1,a1,a0
    8000466e:	0005bc83          	ld	s9,0(a1)
    80004672:	01863303          	ld	t1,24(a2)
    80004676:	4981                	li	s3,0
    80004678:	4b81                	li	s7,0
    8000467a:	24013703          	ld	a4,576(sp)
    8000467e:	26813583          	ld	a1,616(sp)
    80004682:	ef99                	bnez	a5,800046a0 <bilateral_core+0x24aa>
    80004684:	00d5e593          	ori	a1,a1,13
    80004688:	22013683          	ld	a3,544(sp)
    8000468c:	95b6                	add	a1,a1,a3
    8000468e:	0fd38693          	addi	a3,t2,253
    80004692:	8df5                	and	a1,a1,a3
    80004694:	058e                	slli	a1,a1,0x3
    80004696:	95aa                	add	a1,a1,a0
    80004698:	0005b983          	ld	s3,0(a1)
    8000469c:	02063b83          	ld	s7,32(a2)
    800046a0:	4881                	li	a7,0
    800046a2:	4081                	li	ra,0
    800046a4:	4f01                	li	t5,0
    800046a6:	4e01                	li	t3,0
    800046a8:	4681                	li	a3,0
    800046aa:	4901                	li	s2,0
    800046ac:	e331                	bnez	a4,800046f0 <bilateral_core+0x24fa>
    800046ae:	23013783          	ld	a5,560(sp)
    800046b2:	659a                	ld	a1,384(sp)
    800046b4:	95be                	add	a1,a1,a5
    800046b6:	669e                	ld	a3,448(sp)
    800046b8:	8df5                	and	a1,a1,a3
    800046ba:	058e                	slli	a1,a1,0x3
    800046bc:	95aa                	add	a1,a1,a0
    800046be:	0005bf03          	ld	t5,0(a1)
    800046c2:	02863e03          	ld	t3,40(a2)
    800046c6:	75ba                	ld	a1,424(sp)
    800046c8:	95be                	add	a1,a1,a5
    800046ca:	24813683          	ld	a3,584(sp)
    800046ce:	0fa68693          	addi	a3,a3,250
    800046d2:	8df5                	and	a1,a1,a3
    800046d4:	058e                	slli	a1,a1,0x3
    800046d6:	95aa                	add	a1,a1,a0
    800046d8:	0005b083          	ld	ra,0(a1)
    800046dc:	03063883          	ld	a7,48(a2)
    800046e0:	65fa                	ld	a1,408(sp)
    800046e2:	76b6                	ld	a3,360(sp)
    800046e4:	95b6                	add	a1,a1,a3
    800046e6:	058e                	slli	a1,a1,0x3
    800046e8:	95aa                	add	a1,a1,a0
    800046ea:	6194                	ld	a3,0(a1)
    800046ec:	03863903          	ld	s2,56(a2)
    800046f0:	4a81                	li	s5,0
    800046f2:	4a01                	li	s4,0
    800046f4:	4381                	li	t2,0
    800046f6:	4581                	li	a1,0
    800046f8:	ef0d                	bnez	a4,80004732 <bilateral_core+0x253c>
    800046fa:	23013483          	ld	s1,560(sp)
    800046fe:	75f6                	ld	a1,376(sp)
    80004700:	95a6                	add	a1,a1,s1
    80004702:	24813783          	ld	a5,584(sp)
    80004706:	0fc78713          	addi	a4,a5,252
    8000470a:	8df9                	and	a1,a1,a4
    8000470c:	058e                	slli	a1,a1,0x3
    8000470e:	95aa                	add	a1,a1,a0
    80004710:	0005ba03          	ld	s4,0(a1)
    80004714:	04063a83          	ld	s5,64(a2)
    80004718:	26813583          	ld	a1,616(sp)
    8000471c:	00d5e593          	ori	a1,a1,13
    80004720:	95a6                	add	a1,a1,s1
    80004722:	0fd78413          	addi	s0,a5,253
    80004726:	8de1                	and	a1,a1,s0
    80004728:	058e                	slli	a1,a1,0x3
    8000472a:	95aa                	add	a1,a1,a0
    8000472c:	0005b383          	ld	t2,0(a1)
    80004730:	662c                	ld	a1,72(a2)
    80004732:	806d878b          	.insn	4, 0x806d878b
    80004736:	61ae878b          	.insn	4, 0x61ae878b
    8000473a:	419c078b          	.insn	4, 0x419c078b
    8000473e:	2168078b          	.insn	4, 0x2168078b
    80004742:	28013403          	ld	s0,640(sp)
    80004746:	008297fb          	.insn	4, 0x008297fb
    8000474a:	00f7832b          	.insn	4, 0x00f7832b
    8000474e:	f2078153          	fmv.d.x	ft2,a5
    80004752:	02017153          	fadd.d	ft2,ft2,ft0
    80004756:	8528878b          	.insn	4, 0x8528878b
    8000475a:	65cb878b          	.insn	4, 0x65cb878b
    8000475e:	44d0868b          	.insn	4, 0x44d0868b
    80004762:	25e9868b          	.insn	4, 0x25e9868b
    80004766:	408296fb          	.insn	4, 0x408296fb
    8000476a:	04d688ab          	.insn	4, 0x04d688ab
    8000476e:	f20681d3          	fmv.d.x	ft3,a3
    80004772:	02317153          	fadd.d	ft2,ft2,ft3
    80004776:	000fb683          	ld	a3,0(t6)
    8000477a:	6a3c                	ld	a5,80(a2)
    8000477c:	24813703          	ld	a4,584(sp)
    80004780:	0fa70713          	addi	a4,a4,250
    80004784:	ff3a                	sd	a4,440(sp)
    80004786:	7492                	ld	s1,288(sp)
    80004788:	8f65                	and	a4,a4,s1
    8000478a:	070e                	slli	a4,a4,0x3
    8000478c:	00e50eb3          	add	t4,a0,a4
    80004790:	000eb703          	ld	a4,0(t4)
    80004794:	6e24                	ld	s1,88(a2)
    80004796:	68ba858b          	.insn	4, 0x68ba858b
    8000479a:	287a058b          	.insn	4, 0x287a058b
    8000479e:	0882858b          	.insn	4, 0x0882858b
    800047a2:	48e6858b          	.insn	4, 0x48e6858b
    800047a6:	909796fb          	.insn	4, 0x909796fb
    800047aa:	08d68e2b          	.insn	4, 0x08d68e2b
    800047ae:	f20681d3          	fmv.d.x	ft3,a3
    800047b2:	02317153          	fadd.d	ft2,ft2,ft3
    800047b6:	06063f03          	ld	t5,96(a2)
    800047ba:	7b6e                	ld	s6,248(sp)
    800047bc:	000b3f83          	ld	t6,0(s6)
    800047c0:	06863383          	ld	t2,104(a2)
    800047c4:	26813a03          	ld	s4,616(sp)
    800047c8:	00da6793          	ori	a5,s4,13
    800047cc:	25013583          	ld	a1,592(sp)
    800047d0:	95be                	add	a1,a1,a5
    800047d2:	e22e                	sd	a1,256(sp)
    800047d4:	058e                	slli	a1,a1,0x3
    800047d6:	f22e                	sd	a1,288(sp)
    800047d8:	00b50833          	add	a6,a0,a1
    800047dc:	00083483          	ld	s1,0(a6)
    800047e0:	07063903          	ld	s2,112(a2)
    800047e4:	75da                	ld	a1,432(sp)
    800047e6:	618c                	ld	a1,0(a1)
    800047e8:	7e34                	ld	a3,120(a2)
    800047ea:	0c82870b          	.insn	4, 0x0c82870b
    800047ee:	2df2870b          	.insn	4, 0x2df2870b
    800047f2:	6c7f070b          	.insn	4, 0x6c7f070b
    800047f6:	4cb4858b          	.insn	4, 0x4cb4858b
    800047fa:	d0d915fb          	.insn	4, 0xd0d915fb
    800047fe:	0cb58f2b          	.insn	4, 0x0cb58f2b
    80004802:	f20581d3          	fmv.d.x	ft3,a1
    80004806:	02317153          	fadd.d	ft2,ft2,ft3
    8000480a:	21813583          	ld	a1,536(sp)
    8000480e:	0005bf83          	ld	t6,0(a1)
    80004812:	08063903          	ld	s2,128(a2)
    80004816:	759a                	ld	a1,416(sp)
    80004818:	0005b983          	ld	s3,0(a1)
    8000481c:	6644                	ld	s1,136(a2)
    8000481e:	65ba                	ld	a1,392(sp)
    80004820:	0005b383          	ld	t2,0(a1)
    80004824:	09063a83          	ld	s5,144(a2)
    80004828:	22813583          	ld	a1,552(sp)
    8000482c:	e33e                	sd	a5,384(sp)
    8000482e:	95be                	add	a1,a1,a5
    80004830:	058e                	slli	a1,a1,0x3
    80004832:	95aa                	add	a1,a1,a0
    80004834:	eb2e                	sd	a1,400(sp)
    80004836:	618c                	ld	a1,0(a1)
    80004838:	6e54                	ld	a3,152(a2)
    8000483a:	1c82870b          	.insn	4, 0x1c82870b
    8000483e:	3d3f870b          	.insn	4, 0x3d3f870b
    80004842:	7c99070b          	.insn	4, 0x7c99070b
    80004846:	5cb3858b          	.insn	4, 0x5cb3858b
    8000484a:	d0da95fb          	.insn	4, 0xd0da95fb
    8000484e:	f20581d3          	fmv.d.x	ft3,a1
    80004852:	02317153          	fadd.d	ft2,ft2,ft3
    80004856:	65b6                	ld	a1,328(sp)
    80004858:	0005bf83          	ld	t6,0(a1)
    8000485c:	0a063903          	ld	s2,160(a2)
    80004860:	6596                	ld	a1,320(sp)
    80004862:	6198                	ld	a4,0(a1)
    80004864:	765c                	ld	a5,168(a2)
    80004866:	65d6                	ld	a1,336(sp)
    80004868:	6184                	ld	s1,0(a1)
    8000486a:	7a40                	ld	s0,176(a2)
    8000486c:	23813583          	ld	a1,568(sp)
    80004870:	76f6                	ld	a3,376(sp)
    80004872:	95b6                	add	a1,a1,a3
    80004874:	058e                	slli	a1,a1,0x3
    80004876:	95aa                	add	a1,a1,a0
    80004878:	e6ae                	sd	a1,328(sp)
    8000487a:	618c                	ld	a1,0(a1)
    8000487c:	7e54                	ld	a3,184(a2)
    8000487e:	3cef875b          	.insn	4, 0x3cef875b
    80004882:	7cf9078b          	.insn	4, 0x7cf9078b
    80004886:	5cb4858b          	.insn	4, 0x5cb4858b
    8000488a:	d0d415fb          	.insn	4, 0xd0d415fb
    8000488e:	f20581d3          	fmv.d.x	ft3,a1
    80004892:	02317153          	fadd.d	ft2,ft2,ft3
    80004896:	25813583          	ld	a1,600(sp)
    8000489a:	20d58593          	addi	a1,a1,525
    8000489e:	058e                	slli	a1,a1,0x3
    800048a0:	95aa                	add	a1,a1,a0
    800048a2:	618c                	ld	a1,0(a1)
    800048a4:	6274                	ld	a3,192(a2)
    800048a6:	3c05845b          	.insn	4, 0x3c05845b
    800048aa:	cc0695fb          	.insn	4, 0xcc0695fb
    800048ae:	1cb586ab          	.insn	4, 0x1cb586ab
    800048b2:	f20581d3          	fmv.d.x	ft3,a1
    800048b6:	02317153          	fadd.d	ft2,ft2,ft3
    800048ba:	a22095d3          	flt.d	a1,ft1,ft2
    800048be:	c1a9                	beqz	a1,80004900 <bilateral_core+0x270a>
    800048c0:	f20301d3          	fmv.d.x	ft3,t1
    800048c4:	0201f1d3          	fadd.d	ft3,ft3,ft0
    800048c8:	f2088253          	fmv.d.x	ft4,a7
    800048cc:	0241f1d3          	fadd.d	ft3,ft3,ft4
    800048d0:	f20e0253          	fmv.d.x	ft4,t3
    800048d4:	0241f1d3          	fadd.d	ft3,ft3,ft4
    800048d8:	f20f0253          	fmv.d.x	ft4,t5
    800048dc:	0241f1d3          	fadd.d	ft3,ft3,ft4
    800048e0:	f2070253          	fmv.d.x	ft4,a4
    800048e4:	0241f1d3          	fadd.d	ft3,ft3,ft4
    800048e8:	f2040253          	fmv.d.x	ft4,s0
    800048ec:	0241f1d3          	fadd.d	ft3,ft3,ft4
    800048f0:	f2068253          	fmv.d.x	ft4,a3
    800048f4:	0241f1d3          	fadd.d	ft3,ft3,ft4
    800048f8:	1a21f153          	fdiv.d	ft2,ft3,ft2
    800048fc:	e20102d3          	fmv.x.d	t0,ft2
    80004900:	27813583          	ld	a1,632(sp)
    80004904:	66f2                	ld	a3,280(sp)
    80004906:	95b6                	add	a1,a1,a3
    80004908:	0055b023          	sd	t0,0(a1)
    8000490c:	000b3083          	ld	ra,0(s6)
    80004910:	4c01                	li	s8,0
    80004912:	4a81                	li	s5,0
    80004914:	4f81                	li	t6,0
    80004916:	4381                	li	t2,0
    80004918:	4981                	li	s3,0
    8000491a:	4b01                	li	s6,0
    8000491c:	4c81                	li	s9,0
    8000491e:	4301                	li	t1,0
    80004920:	26013783          	ld	a5,608(sp)
    80004924:	efb9                	bnez	a5,80004982 <bilateral_core+0x278c>
    80004926:	22013483          	ld	s1,544(sp)
    8000492a:	75ba                	ld	a1,424(sp)
    8000492c:	95a6                	add	a1,a1,s1
    8000492e:	76fa                	ld	a3,440(sp)
    80004930:	8df5                	and	a1,a1,a3
    80004932:	058e                	slli	a1,a1,0x3
    80004934:	95aa                	add	a1,a1,a0
    80004936:	0005b383          	ld	t2,0(a1)
    8000493a:	00063f83          	ld	t6,0(a2)
    8000493e:	75b6                	ld	a1,360(sp)
    80004940:	95a6                	add	a1,a1,s1
    80004942:	24813703          	ld	a4,584(sp)
    80004946:	0fb70693          	addi	a3,a4,251
    8000494a:	8df5                	and	a1,a1,a3
    8000494c:	058e                	slli	a1,a1,0x3
    8000494e:	95aa                	add	a1,a1,a0
    80004950:	0005b983          	ld	s3,0(a1)
    80004954:	00863b03          	ld	s6,8(a2)
    80004958:	20813583          	ld	a1,520(sp)
    8000495c:	76f6                	ld	a3,376(sp)
    8000495e:	95b6                	add	a1,a1,a3
    80004960:	058e                	slli	a1,a1,0x3
    80004962:	95aa                	add	a1,a1,a0
    80004964:	0005ba83          	ld	s5,0(a1)
    80004968:	01063c03          	ld	s8,16(a2)
    8000496c:	659a                	ld	a1,384(sp)
    8000496e:	95a6                	add	a1,a1,s1
    80004970:	0fd70693          	addi	a3,a4,253
    80004974:	8df5                	and	a1,a1,a3
    80004976:	058e                	slli	a1,a1,0x3
    80004978:	95aa                	add	a1,a1,a0
    8000497a:	0005bc83          	ld	s9,0(a1)
    8000497e:	01863303          	ld	t1,24(a2)
    80004982:	4d01                	li	s10,0
    80004984:	4b81                	li	s7,0
    80004986:	24013403          	ld	s0,576(sp)
    8000498a:	e38d                	bnez	a5,800049ac <bilateral_core+0x27b6>
    8000498c:	00ea6593          	ori	a1,s4,14
    80004990:	22013683          	ld	a3,544(sp)
    80004994:	95b6                	add	a1,a1,a3
    80004996:	24813683          	ld	a3,584(sp)
    8000499a:	0fe68693          	addi	a3,a3,254
    8000499e:	8df5                	and	a1,a1,a3
    800049a0:	058e                	slli	a1,a1,0x3
    800049a2:	95aa                	add	a1,a1,a0
    800049a4:	0005bd03          	ld	s10,0(a1)
    800049a8:	02063b83          	ld	s7,32(a2)
    800049ac:	4d81                	li	s11,0
    800049ae:	4901                	li	s2,0
    800049b0:	4e01                	li	t3,0
    800049b2:	4f01                	li	t5,0
    800049b4:	4281                	li	t0,0
    800049b6:	4581                	li	a1,0
    800049b8:	e031                	bnez	s0,800049fc <bilateral_core+0x2806>
    800049ba:	23013703          	ld	a4,560(sp)
    800049be:	75ba                	ld	a1,424(sp)
    800049c0:	95ba                	add	a1,a1,a4
    800049c2:	76fa                	ld	a3,440(sp)
    800049c4:	8df5                	and	a1,a1,a3
    800049c6:	058e                	slli	a1,a1,0x3
    800049c8:	95aa                	add	a1,a1,a0
    800049ca:	0005be03          	ld	t3,0(a1)
    800049ce:	02863f03          	ld	t5,40(a2)
    800049d2:	75b6                	ld	a1,360(sp)
    800049d4:	95ba                	add	a1,a1,a4
    800049d6:	24813683          	ld	a3,584(sp)
    800049da:	0fb68693          	addi	a3,a3,251
    800049de:	8df5                	and	a1,a1,a3
    800049e0:	058e                	slli	a1,a1,0x3
    800049e2:	95aa                	add	a1,a1,a0
    800049e4:	0005b903          	ld	s2,0(a1)
    800049e8:	03063d83          	ld	s11,48(a2)
    800049ec:	65fa                	ld	a1,408(sp)
    800049ee:	76f6                	ld	a3,376(sp)
    800049f0:	95b6                	add	a1,a1,a3
    800049f2:	058e                	slli	a1,a1,0x3
    800049f4:	95aa                	add	a1,a1,a0
    800049f6:	0005b283          	ld	t0,0(a1)
    800049fa:	7e0c                	ld	a1,56(a2)
    800049fc:	4a01                	li	s4,0
    800049fe:	4881                	li	a7,0
    80004a00:	4701                	li	a4,0
    80004a02:	4781                	li	a5,0
    80004a04:	ec0d                	bnez	s0,80004a3e <bilateral_core+0x2848>
    80004a06:	23013403          	ld	s0,560(sp)
    80004a0a:	669a                	ld	a3,384(sp)
    80004a0c:	00d40733          	add	a4,s0,a3
    80004a10:	24813683          	ld	a3,584(sp)
    80004a14:	0fd68793          	addi	a5,a3,253
    80004a18:	8f7d                	and	a4,a4,a5
    80004a1a:	070e                	slli	a4,a4,0x3
    80004a1c:	972a                	add	a4,a4,a0
    80004a1e:	00073883          	ld	a7,0(a4)
    80004a22:	04063a03          	ld	s4,64(a2)
    80004a26:	26813703          	ld	a4,616(sp)
    80004a2a:	00e76713          	ori	a4,a4,14
    80004a2e:	9722                	add	a4,a4,s0
    80004a30:	0fe68793          	addi	a5,a3,254
    80004a34:	8f7d                	and	a4,a4,a5
    80004a36:	070e                	slli	a4,a4,0x3
    80004a38:	972a                	add	a4,a4,a0
    80004a3a:	6318                	ld	a4,0(a4)
    80004a3c:	663c                	ld	a5,72(a2)
    80004a3e:	806c068b          	.insn	4, 0x806c068b
    80004a42:	616f868b          	.insn	4, 0x616f868b
    80004a46:	419a868b          	.insn	4, 0x419a868b
    80004a4a:	2133868b          	.insn	4, 0x2133868b
    80004a4e:	28013483          	ld	s1,640(sp)
    80004a52:	009096fb          	.insn	4, 0x009096fb
    80004a56:	00d68fab          	.insn	4, 0x00d68fab
    80004a5a:	f2068153          	fmv.d.x	ft2,a3
    80004a5e:	02017153          	fadd.d	ft2,ft2,ft0
    80004a62:	84bd858b          	.insn	4, 0x84bd858b
    80004a66:	65eb858b          	.insn	4, 0x65eb858b
    80004a6a:	4459058b          	.insn	4, 0x4459058b
    80004a6e:	25cd058b          	.insn	4, 0x25cd058b
    80004a72:	409095fb          	.insn	4, 0x409095fb
    80004a76:	04b5832b          	.insn	4, 0x04b5832b
    80004a7a:	f20581d3          	fmv.d.x	ft3,a1
    80004a7e:	02317153          	fadd.d	ft2,ft2,ft3
    80004a82:	000eb583          	ld	a1,0(t4)
    80004a86:	05063283          	ld	t0,80(a2)
    80004a8a:	24813683          	ld	a3,584(sp)
    80004a8e:	0fb68693          	addi	a3,a3,251
    80004a92:	fb36                	sd	a3,432(sp)
    80004a94:	7452                	ld	s0,304(sp)
    80004a96:	8c75                	and	s0,s0,a3
    80004a98:	040e                	slli	s0,s0,0x3
    80004a9a:	008503b3          	add	t2,a0,s0
    80004a9e:	0003b403          	ld	s0,0(t2)
    80004aa2:	6e34                	ld	a3,88(a2)
    80004aa4:	68fa078b          	.insn	4, 0x68fa078b
    80004aa8:	28e8870b          	.insn	4, 0x28e8870b
    80004aac:	0890870b          	.insn	4, 0x0890870b
    80004ab0:	4885858b          	.insn	4, 0x4885858b
    80004ab4:	90d296fb          	.insn	4, 0x90d296fb
    80004ab8:	08d682ab          	.insn	4, 0x08d682ab
    80004abc:	f20681d3          	fmv.d.x	ft3,a3
    80004ac0:	02317153          	fadd.d	ft2,ft2,ft3
    80004ac4:	06063e03          	ld	t3,96(a2)
    80004ac8:	00083e83          	ld	t4,0(a6)
    80004acc:	06863f03          	ld	t5,104(a2)
    80004ad0:	26813a03          	ld	s4,616(sp)
    80004ad4:	00ea6793          	ori	a5,s4,14
    80004ad8:	25013583          	ld	a1,592(sp)
    80004adc:	95be                	add	a1,a1,a5
    80004ade:	e62e                	sd	a1,264(sp)
    80004ae0:	058e                	slli	a1,a1,0x3
    80004ae2:	f9ae                	sd	a1,240(sp)
    80004ae4:	00b508b3          	add	a7,a0,a1
    80004ae8:	0008b903          	ld	s2,0(a7)
    80004aec:	7a20                	ld	s0,112(a2)
    80004aee:	21813583          	ld	a1,536(sp)
    80004af2:	618c                	ld	a1,0(a1)
    80004af4:	7e34                	ld	a3,120(a2)
    80004af6:	0c90870b          	.insn	4, 0x0c90870b
    80004afa:	2dd0870b          	.insn	4, 0x2dd0870b
    80004afe:	6dee070b          	.insn	4, 0x6dee070b
    80004b02:	4cb9058b          	.insn	4, 0x4cb9058b
    80004b06:	d0d415fb          	.insn	4, 0xd0d415fb
    80004b0a:	0cb58e2b          	.insn	4, 0x0cb58e2b
    80004b0e:	f20581d3          	fmv.d.x	ft3,a1
    80004b12:	02317153          	fadd.d	ft2,ft2,ft3
    80004b16:	759a                	ld	a1,416(sp)
    80004b18:	0005be83          	ld	t4,0(a1)
    80004b1c:	08063f03          	ld	t5,128(a2)
    80004b20:	65ba                	ld	a1,392(sp)
    80004b22:	0005bb03          	ld	s6,0(a1)
    80004b26:	08863983          	ld	s3,136(a2)
    80004b2a:	65da                	ld	a1,400(sp)
    80004b2c:	6180                	ld	s0,0(a1)
    80004b2e:	09063903          	ld	s2,144(a2)
    80004b32:	22813583          	ld	a1,552(sp)
    80004b36:	20f13c23          	sd	a5,536(sp)
    80004b3a:	95be                	add	a1,a1,a5
    80004b3c:	058e                	slli	a1,a1,0x3
    80004b3e:	00b50ab3          	add	s5,a0,a1
    80004b42:	000ab583          	ld	a1,0(s5)
    80004b46:	6e54                	ld	a3,152(a2)
    80004b48:	1c90870b          	.insn	4, 0x1c90870b
    80004b4c:	3d6e870b          	.insn	4, 0x3d6e870b
    80004b50:	7d3f070b          	.insn	4, 0x7d3f070b
    80004b54:	5cb4058b          	.insn	4, 0x5cb4058b
    80004b58:	d0d915fb          	.insn	4, 0xd0d915fb
    80004b5c:	f20581d3          	fmv.d.x	ft3,a1
    80004b60:	02317153          	fadd.d	ft2,ft2,ft3
    80004b64:	6596                	ld	a1,320(sp)
    80004b66:	0005be83          	ld	t4,0(a1)
    80004b6a:	0a063f03          	ld	t5,160(a2)
    80004b6e:	65d6                	ld	a1,336(sp)
    80004b70:	6198                	ld	a4,0(a1)
    80004b72:	7644                	ld	s1,168(a2)
    80004b74:	65b6                	ld	a1,328(sp)
    80004b76:	6180                	ld	s0,0(a1)
    80004b78:	7a5c                	ld	a5,176(a2)
    80004b7a:	23813583          	ld	a1,568(sp)
    80004b7e:	669a                	ld	a3,384(sp)
    80004b80:	95b6                	add	a1,a1,a3
    80004b82:	058e                	slli	a1,a1,0x3
    80004b84:	95aa                	add	a1,a1,a0
    80004b86:	fa2e                	sd	a1,304(sp)
    80004b88:	618c                	ld	a1,0(a1)
    80004b8a:	7e54                	ld	a3,184(a2)
    80004b8c:	3cee875b          	.insn	4, 0x3cee875b
    80004b90:	7c9f048b          	.insn	4, 0x7c9f048b
    80004b94:	5cb4058b          	.insn	4, 0x5cb4058b
    80004b98:	d0d795fb          	.insn	4, 0xd0d795fb
    80004b9c:	f20581d3          	fmv.d.x	ft3,a1
    80004ba0:	02317153          	fadd.d	ft2,ft2,ft3
    80004ba4:	25813583          	ld	a1,600(sp)
    80004ba8:	20e58593          	addi	a1,a1,526
    80004bac:	058e                	slli	a1,a1,0x3
    80004bae:	95aa                	add	a1,a1,a0
    80004bb0:	618c                	ld	a1,0(a1)
    80004bb2:	6274                	ld	a3,192(a2)
    80004bb4:	3c05845b          	.insn	4, 0x3c05845b
    80004bb8:	cc0695fb          	.insn	4, 0xcc0695fb
    80004bbc:	1cb586ab          	.insn	4, 0x1cb586ab
    80004bc0:	f20581d3          	fmv.d.x	ft3,a1
    80004bc4:	02317153          	fadd.d	ft2,ft2,ft3
    80004bc8:	a22095d3          	flt.d	a1,ft1,ft2
    80004bcc:	c1a9                	beqz	a1,80004c0e <bilateral_core+0x2a18>
    80004bce:	f20f81d3          	fmv.d.x	ft3,t6
    80004bd2:	0201f1d3          	fadd.d	ft3,ft3,ft0
    80004bd6:	f2030253          	fmv.d.x	ft4,t1
    80004bda:	0241f1d3          	fadd.d	ft3,ft3,ft4
    80004bde:	f2028253          	fmv.d.x	ft4,t0
    80004be2:	0241f1d3          	fadd.d	ft3,ft3,ft4
    80004be6:	f20e0253          	fmv.d.x	ft4,t3
    80004bea:	0241f1d3          	fadd.d	ft3,ft3,ft4
    80004bee:	f2070253          	fmv.d.x	ft4,a4
    80004bf2:	0241f1d3          	fadd.d	ft3,ft3,ft4
    80004bf6:	f2040253          	fmv.d.x	ft4,s0
    80004bfa:	0241f1d3          	fadd.d	ft3,ft3,ft4
    80004bfe:	f2068253          	fmv.d.x	ft4,a3
    80004c02:	0241f1d3          	fadd.d	ft3,ft3,ft4
    80004c06:	1a21f153          	fdiv.d	ft2,ft3,ft2
    80004c0a:	e20100d3          	fmv.x.d	ra,ft2
    80004c0e:	e2d6                	sd	s5,320(sp)
    80004c10:	27813583          	ld	a1,632(sp)
    80004c14:	66d2                	ld	a3,272(sp)
    80004c16:	95b6                	add	a1,a1,a3
    80004c18:	0015b023          	sd	ra,0(a1)
    80004c1c:	00083d83          	ld	s11,0(a6)
    80004c20:	4981                	li	s3,0
    80004c22:	4e81                	li	t4,0
    80004c24:	4301                	li	t1,0
    80004c26:	4801                	li	a6,0
    80004c28:	4e01                	li	t3,0
    80004c2a:	4f81                	li	t6,0
    80004c2c:	4a81                	li	s5,0
    80004c2e:	4b01                	li	s6,0
    80004c30:	24813083          	ld	ra,584(sp)
    80004c34:	26013703          	ld	a4,608(sp)
    80004c38:	ef31                	bnez	a4,80004c94 <bilateral_core+0x2a9e>
    80004c3a:	22013783          	ld	a5,544(sp)
    80004c3e:	75b6                	ld	a1,360(sp)
    80004c40:	95be                	add	a1,a1,a5
    80004c42:	76da                	ld	a3,432(sp)
    80004c44:	8df5                	and	a1,a1,a3
    80004c46:	058e                	slli	a1,a1,0x3
    80004c48:	95aa                	add	a1,a1,a0
    80004c4a:	0005b803          	ld	a6,0(a1)
    80004c4e:	00063303          	ld	t1,0(a2)
    80004c52:	75f6                	ld	a1,376(sp)
    80004c54:	95be                	add	a1,a1,a5
    80004c56:	0fc08693          	addi	a3,ra,252
    80004c5a:	8df5                	and	a1,a1,a3
    80004c5c:	058e                	slli	a1,a1,0x3
    80004c5e:	95aa                	add	a1,a1,a0
    80004c60:	0005be03          	ld	t3,0(a1)
    80004c64:	00863f83          	ld	t6,8(a2)
    80004c68:	20813583          	ld	a1,520(sp)
    80004c6c:	669a                	ld	a3,384(sp)
    80004c6e:	95b6                	add	a1,a1,a3
    80004c70:	058e                	slli	a1,a1,0x3
    80004c72:	95aa                	add	a1,a1,a0
    80004c74:	0005be83          	ld	t4,0(a1)
    80004c78:	01063983          	ld	s3,16(a2)
    80004c7c:	21813583          	ld	a1,536(sp)
    80004c80:	95be                	add	a1,a1,a5
    80004c82:	0fe08693          	addi	a3,ra,254
    80004c86:	8df5                	and	a1,a1,a3
    80004c88:	058e                	slli	a1,a1,0x3
    80004c8a:	95aa                	add	a1,a1,a0
    80004c8c:	0005ba83          	ld	s5,0(a1)
    80004c90:	01863b03          	ld	s6,24(a2)
    80004c94:	4b81                	li	s7,0
    80004c96:	4c01                	li	s8,0
    80004c98:	24013403          	ld	s0,576(sp)
    80004c9c:	ef19                	bnez	a4,80004cba <bilateral_core+0x2ac4>
    80004c9e:	00fa6593          	ori	a1,s4,15
    80004ca2:	22013683          	ld	a3,544(sp)
    80004ca6:	95b6                	add	a1,a1,a3
    80004ca8:	0ff08693          	addi	a3,ra,255
    80004cac:	8df5                	and	a1,a1,a3
    80004cae:	058e                	slli	a1,a1,0x3
    80004cb0:	95aa                	add	a1,a1,a0
    80004cb2:	0005bb83          	ld	s7,0(a1)
    80004cb6:	02063c03          	ld	s8,32(a2)
    80004cba:	4d01                	li	s10,0
    80004cbc:	4901                	li	s2,0
    80004cbe:	4f01                	li	t5,0
    80004cc0:	4c81                	li	s9,0
    80004cc2:	4681                	li	a3,0
    80004cc4:	4701                	li	a4,0
    80004cc6:	ec1d                	bnez	s0,80004d04 <bilateral_core+0x2b0e>
    80004cc8:	23013703          	ld	a4,560(sp)
    80004ccc:	75b6                	ld	a1,360(sp)
    80004cce:	95ba                	add	a1,a1,a4
    80004cd0:	76da                	ld	a3,432(sp)
    80004cd2:	8df5                	and	a1,a1,a3
    80004cd4:	058e                	slli	a1,a1,0x3
    80004cd6:	95aa                	add	a1,a1,a0
    80004cd8:	0005bf03          	ld	t5,0(a1)
    80004cdc:	02863c83          	ld	s9,40(a2)
    80004ce0:	75f6                	ld	a1,376(sp)
    80004ce2:	95ba                	add	a1,a1,a4
    80004ce4:	0fc08693          	addi	a3,ra,252
    80004ce8:	8df5                	and	a1,a1,a3
    80004cea:	058e                	slli	a1,a1,0x3
    80004cec:	95aa                	add	a1,a1,a0
    80004cee:	0005b903          	ld	s2,0(a1)
    80004cf2:	03063d03          	ld	s10,48(a2)
    80004cf6:	65fa                	ld	a1,408(sp)
    80004cf8:	669a                	ld	a3,384(sp)
    80004cfa:	95b6                	add	a1,a1,a3
    80004cfc:	058e                	slli	a1,a1,0x3
    80004cfe:	95aa                	add	a1,a1,a0
    80004d00:	6194                	ld	a3,0(a1)
    80004d02:	7e18                	ld	a4,56(a2)
    80004d04:	4281                	li	t0,0
    80004d06:	4a01                	li	s4,0
    80004d08:	4781                	li	a5,0
    80004d0a:	4481                	li	s1,0
    80004d0c:	e81d                	bnez	s0,80004d42 <bilateral_core+0x2b4c>
    80004d0e:	23013403          	ld	s0,560(sp)
    80004d12:	21813583          	ld	a1,536(sp)
    80004d16:	95a2                	add	a1,a1,s0
    80004d18:	0fe08793          	addi	a5,ra,254
    80004d1c:	8dfd                	and	a1,a1,a5
    80004d1e:	058e                	slli	a1,a1,0x3
    80004d20:	95aa                	add	a1,a1,a0
    80004d22:	0005ba03          	ld	s4,0(a1)
    80004d26:	04063283          	ld	t0,64(a2)
    80004d2a:	26813583          	ld	a1,616(sp)
    80004d2e:	00f5e793          	ori	a5,a1,15
    80004d32:	97a2                	add	a5,a5,s0
    80004d34:	0ff08493          	addi	s1,ra,255
    80004d38:	8fe5                	and	a5,a5,s1
    80004d3a:	078e                	slli	a5,a5,0x3
    80004d3c:	97aa                	add	a5,a5,a0
    80004d3e:	639c                	ld	a5,0(a5)
    80004d40:	6624                	ld	s1,72(a2)
    80004d42:	8169858b          	.insn	4, 0x8169858b
    80004d46:	61f3058b          	.insn	4, 0x61f3058b
    80004d4a:	415e858b          	.insn	4, 0x415e858b
    80004d4e:	21c8058b          	.insn	4, 0x21c8058b
    80004d52:	28013403          	ld	s0,640(sp)
    80004d56:	008d95fb          	.insn	4, 0x008d95fb
    80004d5a:	00b5882b          	.insn	4, 0x00b5882b
    80004d5e:	f2058153          	fmv.d.x	ft2,a1
    80004d62:	02017153          	fadd.d	ft2,ft2,ft0
    80004d66:	84ed058b          	.insn	4, 0x84ed058b
    80004d6a:	659c058b          	.insn	4, 0x659c058b
    80004d6e:	44d9058b          	.insn	4, 0x44d9058b
    80004d72:	25eb858b          	.insn	4, 0x25eb858b
    80004d76:	408d95fb          	.insn	4, 0x408d95fb
    80004d7a:	04b5832b          	.insn	4, 0x04b5832b
    80004d7e:	f20581d3          	fmv.d.x	ft3,a1
    80004d82:	02317153          	fadd.d	ft2,ft2,ft3
    80004d86:	0003b583          	ld	a1,0(t2)
    80004d8a:	05063383          	ld	t2,80(a2)
    80004d8e:	0fc08693          	addi	a3,ra,252
    80004d92:	f736                	sd	a3,424(sp)
    80004d94:	7732                	ld	a4,296(sp)
    80004d96:	8f75                	and	a4,a4,a3
    80004d98:	070e                	slli	a4,a4,0x3
    80004d9a:	00e506b3          	add	a3,a0,a4
    80004d9e:	fd36                	sd	a3,184(sp)
    80004da0:	6298                	ld	a4,0(a3)
    80004da2:	6e34                	ld	a3,88(a2)
    80004da4:	6892848b          	.insn	4, 0x6892848b
    80004da8:	28fa078b          	.insn	4, 0x28fa078b
    80004dac:	088d878b          	.insn	4, 0x088d878b
    80004db0:	48e5858b          	.insn	4, 0x48e5858b
    80004db4:	90d396fb          	.insn	4, 0x90d396fb
    80004db8:	08d682ab          	.insn	4, 0x08d682ab
    80004dbc:	f20681d3          	fmv.d.x	ft3,a3
    80004dc0:	02317153          	fadd.d	ft2,ft2,ft3
    80004dc4:	06063383          	ld	t2,96(a2)
    80004dc8:	0008be03          	ld	t3,0(a7)
    80004dcc:	06863f03          	ld	t5,104(a2)
    80004dd0:	26813b03          	ld	s6,616(sp)
    80004dd4:	00fb6793          	ori	a5,s6,15
    80004dd8:	25013583          	ld	a1,592(sp)
    80004ddc:	00f584b3          	add	s1,a1,a5
    80004de0:	00349593          	slli	a1,s1,0x3
    80004de4:	fdae                	sd	a1,248(sp)
    80004de6:	95aa                	add	a1,a1,a0
    80004de8:	f62e                	sd	a1,296(sp)
    80004dea:	6184                	ld	s1,0(a1)
    80004dec:	07063f83          	ld	t6,112(a2)
    80004df0:	759a                	ld	a1,416(sp)
    80004df2:	618c                	ld	a1,0(a1)
    80004df4:	7e34                	ld	a3,120(a2)
    80004df6:	0c8d870b          	.insn	4, 0x0c8d870b
    80004dfa:	2dcd870b          	.insn	4, 0x2dcd870b
    80004dfe:	6de3870b          	.insn	4, 0x6de3870b
    80004e02:	4cb4858b          	.insn	4, 0x4cb4858b
    80004e06:	d0df95fb          	.insn	4, 0xd0df95fb
    80004e0a:	0cb583ab          	.insn	4, 0x0cb583ab
    80004e0e:	f20581d3          	fmv.d.x	ft3,a1
    80004e12:	02317153          	fadd.d	ft2,ft2,ft3
    80004e16:	65ba                	ld	a1,392(sp)
    80004e18:	0005be03          	ld	t3,0(a1)
    80004e1c:	08063f03          	ld	t5,128(a2)
    80004e20:	65da                	ld	a1,400(sp)
    80004e22:	0005bf83          	ld	t6,0(a1)
    80004e26:	6644                	ld	s1,136(a2)
    80004e28:	6596                	ld	a1,320(sp)
    80004e2a:	0005b903          	ld	s2,0(a1)
    80004e2e:	09063983          	ld	s3,144(a2)
    80004e32:	22813583          	ld	a1,552(sp)
    80004e36:	f6be                	sd	a5,360(sp)
    80004e38:	95be                	add	a1,a1,a5
    80004e3a:	058e                	slli	a1,a1,0x3
    80004e3c:	00b50c33          	add	s8,a0,a1
    80004e40:	000c3583          	ld	a1,0(s8)
    80004e44:	6e54                	ld	a3,152(a2)
    80004e46:	1c8d870b          	.insn	4, 0x1c8d870b
    80004e4a:	3dfe070b          	.insn	4, 0x3dfe070b
    80004e4e:	7c9f070b          	.insn	4, 0x7c9f070b
    80004e52:	5cb9058b          	.insn	4, 0x5cb9058b
    80004e56:	d0d995fb          	.insn	4, 0xd0d995fb
    80004e5a:	f20581d3          	fmv.d.x	ft3,a1
    80004e5e:	02317153          	fadd.d	ft2,ft2,ft3
    80004e62:	65d6                	ld	a1,336(sp)
    80004e64:	0005be03          	ld	t3,0(a1)
    80004e68:	0a063f03          	ld	t5,160(a2)
    80004e6c:	65b6                	ld	a1,328(sp)
    80004e6e:	6198                	ld	a4,0(a1)
    80004e70:	765c                	ld	a5,168(a2)
    80004e72:	79d2                	ld	s3,304(sp)
    80004e74:	0009b483          	ld	s1,0(s3)
    80004e78:	7a40                	ld	s0,176(a2)
    80004e7a:	21813583          	ld	a1,536(sp)
    80004e7e:	23813683          	ld	a3,568(sp)
    80004e82:	95b6                	add	a1,a1,a3
    80004e84:	058e                	slli	a1,a1,0x3
    80004e86:	95aa                	add	a1,a1,a0
    80004e88:	eaae                	sd	a1,336(sp)
    80004e8a:	618c                	ld	a1,0(a1)
    80004e8c:	7e54                	ld	a3,184(a2)
    80004e8e:	3cee075b          	.insn	4, 0x3cee075b
    80004e92:	7cff078b          	.insn	4, 0x7cff078b
    80004e96:	5cb4858b          	.insn	4, 0x5cb4858b
    80004e9a:	d0d415fb          	.insn	4, 0xd0d415fb
    80004e9e:	f20581d3          	fmv.d.x	ft3,a1
    80004ea2:	02317153          	fadd.d	ft2,ft2,ft3
    80004ea6:	25813583          	ld	a1,600(sp)
    80004eaa:	20f58593          	addi	a1,a1,527
    80004eae:	058e                	slli	a1,a1,0x3
    80004eb0:	95aa                	add	a1,a1,a0
    80004eb2:	618c                	ld	a1,0(a1)
    80004eb4:	6274                	ld	a3,192(a2)
    80004eb6:	3c0584db          	.insn	4, 0x3c0584db
    80004eba:	cc0695fb          	.insn	4, 0xcc0695fb
    80004ebe:	1cb586ab          	.insn	4, 0x1cb586ab
    80004ec2:	f20581d3          	fmv.d.x	ft3,a1
    80004ec6:	02317153          	fadd.d	ft2,ft2,ft3
    80004eca:	a22095d3          	flt.d	a1,ft1,ft2
    80004ece:	c1a9                	beqz	a1,80004f10 <bilateral_core+0x2d1a>
    80004ed0:	f20801d3          	fmv.d.x	ft3,a6
    80004ed4:	0201f1d3          	fadd.d	ft3,ft3,ft0
    80004ed8:	f2030253          	fmv.d.x	ft4,t1
    80004edc:	0241f1d3          	fadd.d	ft3,ft3,ft4
    80004ee0:	f2028253          	fmv.d.x	ft4,t0
    80004ee4:	0241f1d3          	fadd.d	ft3,ft3,ft4
    80004ee8:	f2038253          	fmv.d.x	ft4,t2
    80004eec:	0241f1d3          	fadd.d	ft3,ft3,ft4
    80004ef0:	f2070253          	fmv.d.x	ft4,a4
    80004ef4:	0241f1d3          	fadd.d	ft3,ft3,ft4
    80004ef8:	f2048253          	fmv.d.x	ft4,s1
    80004efc:	0241f1d3          	fadd.d	ft3,ft3,ft4
    80004f00:	f2068253          	fmv.d.x	ft4,a3
    80004f04:	0241f1d3          	fadd.d	ft3,ft3,ft4
    80004f08:	1a21f153          	fdiv.d	ft2,ft3,ft2
    80004f0c:	e2010dd3          	fmv.x.d	s11,ft2
    80004f10:	27813583          	ld	a1,632(sp)
    80004f14:	7692                	ld	a3,288(sp)
    80004f16:	95b6                	add	a1,a1,a3
    80004f18:	01b5b023          	sd	s11,0(a1)
    80004f1c:	0008be83          	ld	t4,0(a7)
    80004f20:	4c81                	li	s9,0
    80004f22:	4301                	li	t1,0
    80004f24:	4d81                	li	s11,0
    80004f26:	4701                	li	a4,0
    80004f28:	4881                	li	a7,0
    80004f2a:	4381                	li	t2,0
    80004f2c:	4f01                	li	t5,0
    80004f2e:	4901                	li	s2,0
    80004f30:	26013583          	ld	a1,608(sp)
    80004f34:	22013483          	ld	s1,544(sp)
    80004f38:	e9b9                	bnez	a1,80004f8e <bilateral_core+0x2d98>
    80004f3a:	75f6                	ld	a1,376(sp)
    80004f3c:	95a6                	add	a1,a1,s1
    80004f3e:	76ba                	ld	a3,424(sp)
    80004f40:	8df5                	and	a1,a1,a3
    80004f42:	058e                	slli	a1,a1,0x3
    80004f44:	95aa                	add	a1,a1,a0
    80004f46:	6198                	ld	a4,0(a1)
    80004f48:	00063d83          	ld	s11,0(a2)
    80004f4c:	659a                	ld	a1,384(sp)
    80004f4e:	95a6                	add	a1,a1,s1
    80004f50:	0fd08693          	addi	a3,ra,253
    80004f54:	8df5                	and	a1,a1,a3
    80004f56:	058e                	slli	a1,a1,0x3
    80004f58:	95aa                	add	a1,a1,a0
    80004f5a:	0005b883          	ld	a7,0(a1)
    80004f5e:	00863383          	ld	t2,8(a2)
    80004f62:	20813583          	ld	a1,520(sp)
    80004f66:	21813683          	ld	a3,536(sp)
    80004f6a:	95b6                	add	a1,a1,a3
    80004f6c:	058e                	slli	a1,a1,0x3
    80004f6e:	95aa                	add	a1,a1,a0
    80004f70:	0005b303          	ld	t1,0(a1)
    80004f74:	01063c83          	ld	s9,16(a2)
    80004f78:	75b6                	ld	a1,360(sp)
    80004f7a:	95a6                	add	a1,a1,s1
    80004f7c:	0ff08693          	addi	a3,ra,255
    80004f80:	8df5                	and	a1,a1,a3
    80004f82:	058e                	slli	a1,a1,0x3
    80004f84:	95aa                	add	a1,a1,a0
    80004f86:	0005bf03          	ld	t5,0(a1)
    80004f8a:	01863903          	ld	s2,24(a2)
    80004f8e:	e0ba                	sd	a4,64(sp)
    80004f90:	0f0b3813          	sltiu	a6,s6,240
    80004f94:	65f6                	ld	a1,344(sp)
    80004f96:	0105f5b3          	and	a1,a1,a6
    80004f9a:	4f81                	li	t6,0
    80004f9c:	4d01                	li	s10,0
    80004f9e:	24013703          	ld	a4,576(sp)
    80004fa2:	23013783          	ld	a5,560(sp)
    80004fa6:	cd89                	beqz	a1,80004fc0 <bilateral_core+0x2dca>
    80004fa8:	009b05b3          	add	a1,s6,s1
    80004fac:	05c1                	addi	a1,a1,16
    80004fae:	20013683          	ld	a3,512(sp)
    80004fb2:	8df5                	and	a1,a1,a3
    80004fb4:	058e                	slli	a1,a1,0x3
    80004fb6:	95aa                	add	a1,a1,a0
    80004fb8:	0005bf83          	ld	t6,0(a1)
    80004fbc:	02063d03          	ld	s10,32(a2)
    80004fc0:	ee02                	sd	zero,280(sp)
    80004fc2:	f202                	sd	zero,288(sp)
    80004fc4:	4281                	li	t0,0
    80004fc6:	4a81                	li	s5,0
    80004fc8:	4581                	li	a1,0
    80004fca:	4681                	li	a3,0
    80004fcc:	ef15                	bnez	a4,80005008 <bilateral_core+0x2e12>
    80004fce:	75f6                	ld	a1,376(sp)
    80004fd0:	95be                	add	a1,a1,a5
    80004fd2:	76ba                	ld	a3,424(sp)
    80004fd4:	8df5                	and	a1,a1,a3
    80004fd6:	058e                	slli	a1,a1,0x3
    80004fd8:	95aa                	add	a1,a1,a0
    80004fda:	0005b283          	ld	t0,0(a1)
    80004fde:	02863a83          	ld	s5,40(a2)
    80004fe2:	659a                	ld	a1,384(sp)
    80004fe4:	95be                	add	a1,a1,a5
    80004fe6:	0fd08693          	addi	a3,ra,253
    80004fea:	8df5                	and	a1,a1,a3
    80004fec:	058e                	slli	a1,a1,0x3
    80004fee:	95aa                	add	a1,a1,a0
    80004ff0:	618c                	ld	a1,0(a1)
    80004ff2:	f22e                	sd	a1,288(sp)
    80004ff4:	7a0c                	ld	a1,48(a2)
    80004ff6:	ee2e                	sd	a1,280(sp)
    80004ff8:	65fa                	ld	a1,408(sp)
    80004ffa:	21813683          	ld	a3,536(sp)
    80004ffe:	95b6                	add	a1,a1,a3
    80005000:	058e                	slli	a1,a1,0x3
    80005002:	95aa                	add	a1,a1,a0
    80005004:	618c                	ld	a1,0(a1)
    80005006:	7e14                	ld	a3,56(a2)
    80005008:	e9b6                	sd	a3,208(sp)
    8000500a:	edae                	sd	a1,216(sp)
    8000500c:	ea02                	sd	zero,272(sp)
    8000500e:	fe82                	sd	zero,376(sp)
    80005010:	4581                	li	a1,0
    80005012:	4681                	li	a3,0
    80005014:	ef0d                	bnez	a4,8000504e <bilateral_core+0x2e58>
    80005016:	75b6                	ld	a1,360(sp)
    80005018:	95be                	add	a1,a1,a5
    8000501a:	0ff08693          	addi	a3,ra,255
    8000501e:	8df5                	and	a1,a1,a3
    80005020:	058e                	slli	a1,a1,0x3
    80005022:	95aa                	add	a1,a1,a0
    80005024:	6194                	ld	a3,0(a1)
    80005026:	6238                	ld	a4,64(a2)
    80005028:	0ef00593          	li	a1,239
    8000502c:	feb6                	sd	a3,376(sp)
    8000502e:	ea3a                	sd	a4,272(sp)
    80005030:	0165ed63          	bltu	a1,s6,8000504a <bilateral_core+0x2e54>
    80005034:	00fb05b3          	add	a1,s6,a5
    80005038:	05c1                	addi	a1,a1,16
    8000503a:	20013683          	ld	a3,512(sp)
    8000503e:	8df5                	and	a1,a1,a3
    80005040:	058e                	slli	a1,a1,0x3
    80005042:	95aa                	add	a1,a1,a0
    80005044:	618c                	ld	a1,0(a1)
    80005046:	6634                	ld	a3,72(a2)
    80005048:	a019                	j	8000504e <bilateral_core+0x2e58>
    8000504a:	4581                	li	a1,0
    8000504c:	4681                	li	a3,0
    8000504e:	e1b6                	sd	a3,192(sp)
    80005050:	e5ae                	sd	a1,200(sp)
    80005052:	75ea                	ld	a1,184(sp)
    80005054:	0005ba03          	ld	s4,0(a1)
    80005058:	6a2c                	ld	a1,80(a2)
    8000505a:	fd2e                	sd	a1,184(sp)
    8000505c:	0fd08593          	addi	a1,ra,253
    80005060:	f32e                	sd	a1,416(sp)
    80005062:	6692                	ld	a3,256(sp)
    80005064:	8df5                	and	a1,a1,a3
    80005066:	058e                	slli	a1,a1,0x3
    80005068:	00b506b3          	add	a3,a0,a1
    8000506c:	6284                	ld	s1,0(a3)
    8000506e:	6e20                	ld	s0,88(a2)
    80005070:	06063083          	ld	ra,96(a2)
    80005074:	75b2                	ld	a1,296(sp)
    80005076:	0005be03          	ld	t3,0(a1)
    8000507a:	06863b83          	ld	s7,104(a2)
    8000507e:	0ef00593          	li	a1,239
    80005082:	e236                	sd	a3,256(sp)
    80005084:	f926                	sd	s1,176(sp)
    80005086:	f122                	sd	s0,160(sp)
    80005088:	f8ea                	sd	s10,112(sp)
    8000508a:	0165e863          	bltu	a1,s6,8000509a <bilateral_core+0x2ea4>
    8000508e:	65c6                	ld	a1,80(sp)
    80005090:	61cc                	ld	a1,128(a1)
    80005092:	fc2e                	sd	a1,56(sp)
    80005094:	7a2c                	ld	a1,112(a2)
    80005096:	f82e                	sd	a1,48(sp)
    80005098:	a019                	j	8000509e <bilateral_core+0x2ea8>
    8000509a:	fc02                	sd	zero,56(sp)
    8000509c:	f802                	sd	zero,48(sp)
    8000509e:	6696                	ld	a3,320(sp)
    800050a0:	65ba                	ld	a1,392(sp)
    800050a2:	618c                	ld	a1,0(a1)
    800050a4:	e12e                	sd	a1,128(sp)
    800050a6:	7e2c                	ld	a1,120(a2)
    800050a8:	fcae                	sd	a1,120(sp)
    800050aa:	65da                	ld	a1,400(sp)
    800050ac:	6184                	ld	s1,0(a1)
    800050ae:	08063b03          	ld	s6,128(a2)
    800050b2:	6280                	ld	s0,0(a3)
    800050b4:	6658                	ld	a4,136(a2)
    800050b6:	000c3783          	ld	a5,0(s8)
    800050ba:	6a4c                	ld	a1,144(a2)
    800050bc:	e52e                	sd	a1,136(sp)
    800050be:	0ef00593          	li	a1,239
    800050c2:	26813683          	ld	a3,616(sp)
    800050c6:	f5e2                	sd	s8,232(sp)
    800050c8:	f1c2                	sd	a6,224(sp)
    800050ca:	e726                	sd	s1,392(sp)
    800050cc:	f522                	sd	s0,168(sp)
    800050ce:	ed3a                	sd	a4,152(sp)
    800050d0:	e93e                	sd	a5,144(sp)
    800050d2:	f4de                	sd	s7,104(sp)
    800050d4:	f086                	sd	ra,96(sp)
    800050d6:	ecf2                	sd	t3,88(sp)
    800050d8:	84e6                	mv	s1,s9
    800050da:	00d5e863          	bltu	a1,a3,800050ea <bilateral_core+0x2ef4>
    800050de:	7596                	ld	a1,352(sp)
    800050e0:	61cc                	ld	a1,128(a1)
    800050e2:	f02e                	sd	a1,32(sp)
    800050e4:	6e4c                	ld	a1,152(a2)
    800050e6:	f42e                	sd	a1,40(sp)
    800050e8:	a019                	j	800050ee <bilateral_core+0x2ef8>
    800050ea:	f002                	sd	zero,32(sp)
    800050ec:	f402                	sd	zero,40(sp)
    800050ee:	23813683          	ld	a3,568(sp)
    800050f2:	845a                	mv	s0,s6
    800050f4:	65b6                	ld	a1,328(sp)
    800050f6:	0005bc03          	ld	s8,0(a1)
    800050fa:	0a063b83          	ld	s7,160(a2)
    800050fe:	0009bc83          	ld	s9,0(s3)
    80005102:	0a863d03          	ld	s10,168(a2)
    80005106:	65d6                	ld	a1,336(sp)
    80005108:	0005b083          	ld	ra,0(a1)
    8000510c:	0b063803          	ld	a6,176(a2)
    80005110:	75b6                	ld	a1,360(sp)
    80005112:	95b6                	add	a1,a1,a3
    80005114:	058e                	slli	a1,a1,0x3
    80005116:	95aa                	add	a1,a1,a0
    80005118:	e4ae                	sd	a1,72(sp)
    8000511a:	0005be03          	ld	t3,0(a1)
    8000511e:	7e54                	ld	a3,184(a2)
    80005120:	0ef00713          	li	a4,239
    80005124:	26813783          	ld	a5,616(sp)
    80005128:	00f76c63          	bltu	a4,a5,80005140 <bilateral_core+0x2f4a>
    8000512c:	25813703          	ld	a4,600(sp)
    80005130:	21070793          	addi	a5,a4,528
    80005134:	078e                	slli	a5,a5,0x3
    80005136:	97aa                	add	a5,a5,a0
    80005138:	639c                	ld	a5,0(a5)
    8000513a:	0c063b03          	ld	s6,192(a2)
    8000513e:	a019                	j	80005144 <bilateral_core+0x2f4e>
    80005140:	4781                	li	a5,0
    80005142:	4b01                	li	s6,0
    80005144:	6706                	ld	a4,64(sp)
    80005146:	8124848b          	.insn	4, 0x8124848b
    8000514a:	607d848b          	.insn	4, 0x607d848b
    8000514e:	41e3048b          	.insn	4, 0x41e3048b
    80005152:	2117048b          	.insn	4, 0x2117048b
    80005156:	28013983          	ld	s3,640(sp)
    8000515a:	013e94fb          	.insn	4, 0x013e94fb
    8000515e:	009488ab          	.insn	4, 0x009488ab
    80005162:	f2048153          	fmv.d.x	ft2,s1
    80005166:	02017153          	fadd.d	ft2,ft2,ft0
    8000516a:	6772                	ld	a4,280(sp)
    8000516c:	64ce                	ld	s1,208(sp)
    8000516e:	8497048b          	.insn	4, 0x8497048b
    80005172:	75c6                	ld	a1,112(sp)
    80005174:	6555848b          	.insn	4, 0x6555848b
    80005178:	7712                	ld	a4,288(sp)
    8000517a:	64ee                	ld	s1,216(sp)
    8000517c:	4497048b          	.insn	4, 0x4497048b
    80005180:	245f848b          	.insn	4, 0x245f848b
    80005184:	413e94fb          	.insn	4, 0x413e94fb
    80005188:	04948dab          	.insn	4, 0x04948dab
    8000518c:	f20481d3          	fmv.d.x	ft3,s1
    80005190:	02317153          	fadd.d	ft2,ft2,ft3
    80005194:	776a                	ld	a4,184(sp)
    80005196:	748a                	ld	s1,160(sp)
    80005198:	8897048b          	.insn	4, 0x8897048b
    8000519c:	6752                	ld	a4,272(sp)
    8000519e:	648e                	ld	s1,192(sp)
    800051a0:	6897048b          	.insn	4, 0x6897048b
    800051a4:	774a                	ld	a4,176(sp)
    800051a6:	48ea048b          	.insn	4, 0x48ea048b
    800051aa:	7776                	ld	a4,376(sp)
    800051ac:	64ae                	ld	s1,200(sp)
    800051ae:	2897048b          	.insn	4, 0x2897048b
    800051b2:	813e94fb          	.insn	4, 0x813e94fb
    800051b6:	089482ab          	.insn	4, 0x089482ab
    800051ba:	f20481d3          	fmv.d.x	ft3,s1
    800051be:	02317153          	fadd.d	ft2,ft2,ft3
    800051c2:	7742                	ld	a4,48(sp)
    800051c4:	74e6                	ld	s1,120(sp)
    800051c6:	8c97048b          	.insn	4, 0x8c97048b
    800051ca:	75a6                	ld	a1,104(sp)
    800051cc:	7706                	ld	a4,96(sp)
    800051ce:	6cb7048b          	.insn	4, 0x6cb7048b
    800051d2:	7762                	ld	a4,56(sp)
    800051d4:	648a                	ld	s1,128(sp)
    800051d6:	4c97048b          	.insn	4, 0x4c97048b
    800051da:	65e6                	ld	a1,88(sp)
    800051dc:	2cbe848b          	.insn	4, 0x2cbe848b
    800051e0:	c13e977b          	.insn	4, 0xc13e977b
    800051e4:	0ce704ab          	.insn	4, 0x0ce704ab
    800051e8:	f20701d3          	fmv.d.x	ft3,a4
    800051ec:	02317153          	fadd.d	ft2,ft2,ft3
    800051f0:	672a                	ld	a4,136(sp)
    800051f2:	75a2                	ld	a1,40(sp)
    800051f4:	9cb7070b          	.insn	4, 0x9cb7070b
    800051f8:	676a                	ld	a4,152(sp)
    800051fa:	7ce4070b          	.insn	4, 0x7ce4070b
    800051fe:	674a                	ld	a4,144(sp)
    80005200:	7582                	ld	a1,32(sp)
    80005202:	5cb7070b          	.insn	4, 0x5cb7070b
    80005206:	673a                	ld	a4,392(sp)
    80005208:	742a                	ld	s0,168(sp)
    8000520a:	3c87070b          	.insn	4, 0x3c87070b
    8000520e:	c13e977b          	.insn	4, 0xc13e977b
    80005212:	f20701d3          	fmv.d.x	ft3,a4
    80005216:	02317153          	fadd.d	ft2,ft2,ft3
    8000521a:	9cd806db          	.insn	4, 0x9cd806db
    8000521e:	7dab870b          	.insn	4, 0x7dab870b
    80005222:	5dc0858b          	.insn	4, 0x5dc0858b
    80005226:	c59c15fb          	.insn	4, 0xc59c15fb
    8000522a:	f20581d3          	fmv.d.x	ft3,a1
    8000522e:	02317153          	fadd.d	ft2,ft2,ft3
    80005232:	7c0b05db          	.insn	4, 0x7c0b05db
    80005236:	c40797fb          	.insn	4, 0xc40797fb
    8000523a:	1cf7872b          	.insn	4, 0x1cf7872b
    8000523e:	f20781d3          	fmv.d.x	ft3,a5
    80005242:	02317153          	fadd.d	ft2,ft2,ft3
    80005246:	a22097d3          	flt.d	a5,ft1,ft2
    8000524a:	c3a9                	beqz	a5,8000528c <bilateral_core+0x3096>
    8000524c:	f20881d3          	fmv.d.x	ft3,a7
    80005250:	0201f1d3          	fadd.d	ft3,ft3,ft0
    80005254:	f20d8253          	fmv.d.x	ft4,s11
    80005258:	0241f1d3          	fadd.d	ft3,ft3,ft4
    8000525c:	f2028253          	fmv.d.x	ft4,t0
    80005260:	0241f1d3          	fadd.d	ft3,ft3,ft4
    80005264:	f2048253          	fmv.d.x	ft4,s1
    80005268:	0241f1d3          	fadd.d	ft3,ft3,ft4
    8000526c:	f2068253          	fmv.d.x	ft4,a3
    80005270:	0241f1d3          	fadd.d	ft3,ft3,ft4
    80005274:	f2058253          	fmv.d.x	ft4,a1
    80005278:	0241f1d3          	fadd.d	ft3,ft3,ft4
    8000527c:	f2070253          	fmv.d.x	ft4,a4
    80005280:	0241f1d3          	fadd.d	ft3,ft3,ft4
    80005284:	1a21f153          	fdiv.d	ft2,ft3,ft2
    80005288:	e2010ed3          	fmv.x.d	t4,ft2
    8000528c:	27813583          	ld	a1,632(sp)
    80005290:	76ce                	ld	a3,240(sp)
    80005292:	95b6                	add	a1,a1,a3
    80005294:	01d5b023          	sd	t4,0(a1)
    80005298:	75b2                	ld	a1,296(sp)
    8000529a:	0005b803          	ld	a6,0(a1)
    8000529e:	4f81                	li	t6,0
    800052a0:	4e01                	li	t3,0
    800052a2:	4701                	li	a4,0
    800052a4:	4481                	li	s1,0
    800052a6:	4b81                	li	s7,0
    800052a8:	4f01                	li	t5,0
    800052aa:	4901                	li	s2,0
    800052ac:	4981                	li	s3,0
    800052ae:	24813383          	ld	t2,584(sp)
    800052b2:	23013883          	ld	a7,560(sp)
    800052b6:	72d6                	ld	t0,368(sp)
    800052b8:	26013583          	ld	a1,608(sp)
    800052bc:	22013783          	ld	a5,544(sp)
    800052c0:	26813a03          	ld	s4,616(sp)
    800052c4:	732e                	ld	t1,232(sp)
    800052c6:	e1b5                	bnez	a1,8000532a <bilateral_core+0x3134>
    800052c8:	659a                	ld	a1,384(sp)
    800052ca:	95be                	add	a1,a1,a5
    800052cc:	769a                	ld	a3,416(sp)
    800052ce:	8df5                	and	a1,a1,a3
    800052d0:	058e                	slli	a1,a1,0x3
    800052d2:	95aa                	add	a1,a1,a0
    800052d4:	6184                	ld	s1,0(a1)
    800052d6:	6218                	ld	a4,0(a2)
    800052d8:	21813583          	ld	a1,536(sp)
    800052dc:	95be                	add	a1,a1,a5
    800052de:	0fe38693          	addi	a3,t2,254
    800052e2:	8df5                	and	a1,a1,a3
    800052e4:	058e                	slli	a1,a1,0x3
    800052e6:	95aa                	add	a1,a1,a0
    800052e8:	0005bb83          	ld	s7,0(a1)
    800052ec:	00863f03          	ld	t5,8(a2)
    800052f0:	20813583          	ld	a1,520(sp)
    800052f4:	76b6                	ld	a3,360(sp)
    800052f6:	95b6                	add	a1,a1,a3
    800052f8:	058e                	slli	a1,a1,0x3
    800052fa:	95aa                	add	a1,a1,a0
    800052fc:	0005be03          	ld	t3,0(a1)
    80005300:	01063f83          	ld	t6,16(a2)
    80005304:	0ef00593          	li	a1,239
    80005308:	0145ef63          	bltu	a1,s4,80005326 <bilateral_core+0x3130>
    8000530c:	00fa05b3          	add	a1,s4,a5
    80005310:	05c1                	addi	a1,a1,16
    80005312:	20013683          	ld	a3,512(sp)
    80005316:	8df5                	and	a1,a1,a3
    80005318:	058e                	slli	a1,a1,0x3
    8000531a:	95aa                	add	a1,a1,a0
    8000531c:	0005b903          	ld	s2,0(a1)
    80005320:	01863983          	ld	s3,24(a2)
    80005324:	a019                	j	8000532a <bilateral_core+0x3134>
    80005326:	4901                	li	s2,0
    80005328:	4981                	li	s3,0
    8000532a:	f626                	sd	s1,296(sp)
    8000532c:	e73a                	sd	a4,392(sp)
    8000532e:	0efa3713          	sltiu	a4,s4,239
    80005332:	65f6                	ld	a1,344(sp)
    80005334:	8df9                	and	a1,a1,a4
    80005336:	4a81                	li	s5,0
    80005338:	4b01                	li	s6,0
    8000533a:	cd89                	beqz	a1,80005354 <bilateral_core+0x315e>
    8000533c:	00fa05b3          	add	a1,s4,a5
    80005340:	05c5                	addi	a1,a1,17
    80005342:	21013683          	ld	a3,528(sp)
    80005346:	8df5                	and	a1,a1,a3
    80005348:	058e                	slli	a1,a1,0x3
    8000534a:	95aa                	add	a1,a1,a0
    8000534c:	0005ba83          	ld	s5,0(a1)
    80005350:	02063b03          	ld	s6,32(a2)
    80005354:	4d01                	li	s10,0
    80005356:	4c81                	li	s9,0
    80005358:	4c01                	li	s8,0
    8000535a:	4781                	li	a5,0
    8000535c:	4d81                	li	s11,0
    8000535e:	4681                	li	a3,0
    80005360:	24013583          	ld	a1,576(sp)
    80005364:	ed95                	bnez	a1,800053a0 <bilateral_core+0x31aa>
    80005366:	659a                	ld	a1,384(sp)
    80005368:	95c6                	add	a1,a1,a7
    8000536a:	769a                	ld	a3,416(sp)
    8000536c:	8df5                	and	a1,a1,a3
    8000536e:	058e                	slli	a1,a1,0x3
    80005370:	95aa                	add	a1,a1,a0
    80005372:	0005bc03          	ld	s8,0(a1)
    80005376:	761c                	ld	a5,40(a2)
    80005378:	21813583          	ld	a1,536(sp)
    8000537c:	95c6                	add	a1,a1,a7
    8000537e:	0fe38693          	addi	a3,t2,254
    80005382:	8df5                	and	a1,a1,a3
    80005384:	058e                	slli	a1,a1,0x3
    80005386:	95aa                	add	a1,a1,a0
    80005388:	0005bc83          	ld	s9,0(a1)
    8000538c:	03063d03          	ld	s10,48(a2)
    80005390:	65fa                	ld	a1,408(sp)
    80005392:	76b6                	ld	a3,360(sp)
    80005394:	95b6                	add	a1,a1,a3
    80005396:	058e                	slli	a1,a1,0x3
    80005398:	95aa                	add	a1,a1,a0
    8000539a:	0005bd83          	ld	s11,0(a1)
    8000539e:	7e14                	ld	a3,56(a2)
    800053a0:	eeb6                	sd	a3,344(sp)
    800053a2:	758e                	ld	a1,224(sp)
    800053a4:	00b2f5b3          	and	a1,t0,a1
    800053a8:	4681                	li	a3,0
    800053aa:	4481                	li	s1,0
    800053ac:	c999                	beqz	a1,800053c2 <bilateral_core+0x31cc>
    800053ae:	011a05b3          	add	a1,s4,a7
    800053b2:	05c1                	addi	a1,a1,16
    800053b4:	20013683          	ld	a3,512(sp)
    800053b8:	8df5                	and	a1,a1,a3
    800053ba:	058e                	slli	a1,a1,0x3
    800053bc:	95aa                	add	a1,a1,a0
    800053be:	6194                	ld	a3,0(a1)
    800053c0:	6224                	ld	s1,64(a2)
    800053c2:	fea6                	sd	s1,376(sp)
    800053c4:	e336                	sd	a3,384(sp)
    800053c6:	00e2f5b3          	and	a1,t0,a4
    800053ca:	4701                	li	a4,0
    800053cc:	4281                	li	t0,0
    800053ce:	cd81                	beqz	a1,800053e6 <bilateral_core+0x31f0>
    800053d0:	011a05b3          	add	a1,s4,a7
    800053d4:	05c5                	addi	a1,a1,17
    800053d6:	21013683          	ld	a3,528(sp)
    800053da:	8df5                	and	a1,a1,a3
    800053dc:	058e                	slli	a1,a1,0x3
    800053de:	95aa                	add	a1,a1,a0
    800053e0:	6198                	ld	a4,0(a1)
    800053e2:	04863283          	ld	t0,72(a2)
    800053e6:	6592                	ld	a1,256(sp)
    800053e8:	0005b083          	ld	ra,0(a1)
    800053ec:	05063e83          	ld	t4,80(a2)
    800053f0:	0fe38593          	addi	a1,t2,254
    800053f4:	20b13c23          	sd	a1,536(sp)
    800053f8:	66b2                	ld	a3,264(sp)
    800053fa:	8df5                	and	a1,a1,a3
    800053fc:	058e                	slli	a1,a1,0x3
    800053fe:	95aa                	add	a1,a1,a0
    80005400:	6184                	ld	s1,0(a1)
    80005402:	6e20                	ld	s0,88(a2)
    80005404:	7234                	ld	a3,96(a2)
    80005406:	0ef00593          	li	a1,239
    8000540a:	f6ba                	sd	a4,360(sp)
    8000540c:	e6b6                	sd	a3,328(sp)
    8000540e:	f222                	sd	s0,288(sp)
    80005410:	ee4a                	sd	s2,280(sp)
    80005412:	ea7a                	sd	t5,272(sp)
    80005414:	e5ce                	sd	s3,200(sp)
    80005416:	e1e2                	sd	s8,192(sp)
    80005418:	0145ec63          	bltu	a1,s4,80005430 <bilateral_core+0x323a>
    8000541c:	762c                	ld	a1,104(a2)
    8000541e:	e22e                	sd	a1,256(sp)
    80005420:	65c6                	ld	a1,80(sp)
    80005422:	61d4                	ld	a3,128(a1)
    80005424:	f9b6                	sd	a3,240(sp)
    80005426:	65cc                	ld	a1,136(a1)
    80005428:	f1ae                	sd	a1,224(sp)
    8000542a:	7a2c                	ld	a1,112(a2)
    8000542c:	edae                	sd	a1,216(sp)
    8000542e:	a029                	j	80005438 <bilateral_core+0x3242>
    80005430:	e202                	sd	zero,256(sp)
    80005432:	f982                	sd	zero,240(sp)
    80005434:	f182                	sd	zero,224(sp)
    80005436:	ed82                	sd	zero,216(sp)
    80005438:	69a6                	ld	s3,72(sp)
    8000543a:	6716                	ld	a4,320(sp)
    8000543c:	65da                	ld	a1,400(sp)
    8000543e:	0005bc03          	ld	s8,0(a1)
    80005442:	7e2c                	ld	a1,120(a2)
    80005444:	eb2e                	sd	a1,400(sp)
    80005446:	00073883          	ld	a7,0(a4)
    8000544a:	08063383          	ld	t2,128(a2)
    8000544e:	00033903          	ld	s2,0(t1)
    80005452:	08863f03          	ld	t5,136(a2)
    80005456:	0ef00593          	li	a1,239
    8000545a:	0145ee63          	bltu	a1,s4,80005476 <bilateral_core+0x3280>
    8000545e:	7596                	ld	a1,352(sp)
    80005460:	61cc                	ld	a1,128(a1)
    80005462:	f5ae                	sd	a1,232(sp)
    80005464:	6a4c                	ld	a1,144(a2)
    80005466:	e9ae                	sd	a1,208(sp)
    80005468:	0ee00593          	li	a1,238
    8000546c:	0145fb63          	bgeu	a1,s4,80005482 <bilateral_core+0x328c>
    80005470:	fd02                	sd	zero,184(sp)
    80005472:	f902                	sd	zero,176(sp)
    80005474:	a821                	j	8000548c <bilateral_core+0x3296>
    80005476:	f582                	sd	zero,232(sp)
    80005478:	e982                	sd	zero,208(sp)
    8000547a:	0ee00593          	li	a1,238
    8000547e:	ff45e9e3          	bltu	a1,s4,80005470 <bilateral_core+0x327a>
    80005482:	7596                	ld	a1,352(sp)
    80005484:	65cc                	ld	a1,136(a1)
    80005486:	fd2e                	sd	a1,184(sp)
    80005488:	6e4c                	ld	a1,152(a2)
    8000548a:	f92e                	sd	a1,176(sp)
    8000548c:	75d2                	ld	a1,304(sp)
    8000548e:	0005b303          	ld	t1,0(a1)
    80005492:	7254                	ld	a3,160(a2)
    80005494:	65d6                	ld	a1,336(sp)
    80005496:	6198                	ld	a4,0(a1)
    80005498:	764c                	ld	a1,168(a2)
    8000549a:	e62e                	sd	a1,264(sp)
    8000549c:	0009b403          	ld	s0,0(s3)
    800054a0:	0b063983          	ld	s3,176(a2)
    800054a4:	0ef00593          	li	a1,239
    800054a8:	f29a                	sd	t1,352(sp)
    800054aa:	eaba                	sd	a4,336(sp)
    800054ac:	e2b6                	sd	a3,320(sp)
    800054ae:	fa22                	sd	s0,304(sp)
    800054b0:	831e                	mv	t1,t2
    800054b2:	0145e863          	bltu	a1,s4,800054c2 <bilateral_core+0x32cc>
    800054b6:	75f2                	ld	a1,312(sp)
    800054b8:	61cc                	ld	a1,128(a1)
    800054ba:	fe2e                	sd	a1,312(sp)
    800054bc:	7e4c                	ld	a1,184(a2)
    800054be:	f52e                	sd	a1,168(sp)
    800054c0:	a019                	j	800054c6 <bilateral_core+0x32d0>
    800054c2:	fe02                	sd	zero,312(sp)
    800054c4:	f502                	sd	zero,168(sp)
    800054c6:	86ce                	mv	a3,s3
    800054c8:	8762                	mv	a4,s8
    800054ca:	0ee00593          	li	a1,238
    800054ce:	0145ef63          	bltu	a1,s4,800054ec <bilateral_core+0x32f6>
    800054d2:	6c0e                	ld	s8,192(sp)
    800054d4:	642e                	ld	s0,200(sp)
    800054d6:	25813583          	ld	a1,600(sp)
    800054da:	21158593          	addi	a1,a1,529
    800054de:	058e                	slli	a1,a1,0x3
    800054e0:	95aa                	add	a1,a1,a0
    800054e2:	0005ba03          	ld	s4,0(a1)
    800054e6:	0c063383          	ld	t2,192(a2)
    800054ea:	a029                	j	800054f4 <bilateral_core+0x32fe>
    800054ec:	6c0e                	ld	s8,192(sp)
    800054ee:	642e                	ld	s0,200(sp)
    800054f0:	4a01                	li	s4,0
    800054f2:	4381                	li	t2,0
    800054f4:	808f858b          	.insn	4, 0x808f858b
    800054f8:	65ba                	ld	a1,392(sp)
    800054fa:	6452                	ld	s0,272(sp)
    800054fc:	6085858b          	.insn	4, 0x6085858b
    80005500:	65f2                	ld	a1,280(sp)
    80005502:	40be058b          	.insn	4, 0x40be058b
    80005506:	75b2                	ld	a1,296(sp)
    80005508:	2175858b          	.insn	4, 0x2175858b
    8000550c:	28013983          	ld	s3,640(sp)
    80005510:	013815fb          	.insn	4, 0x013815fb
    80005514:	00b58e2b          	.insn	4, 0x00b58e2b
    80005518:	f2058153          	fmv.d.x	ft2,a1
    8000551c:	02017153          	fadd.d	ft2,ft2,ft0
    80005520:	65f6                	ld	a1,344(sp)
    80005522:	84bd058b          	.insn	4, 0x84bd058b
    80005526:	64fb058b          	.insn	4, 0x64fb058b
    8000552a:	45bc858b          	.insn	4, 0x45bc858b
    8000552e:	258a858b          	.insn	4, 0x258a858b
    80005532:	413815fb          	.insn	4, 0x413815fb
    80005536:	04b58fab          	.insn	4, 0x04b58fab
    8000553a:	f20581d3          	fmv.d.x	ft3,a1
    8000553e:	02317153          	fadd.d	ft2,ft2,ft3
    80005542:	7592                	ld	a1,288(sp)
    80005544:	88be858b          	.insn	4, 0x88be858b
    80005548:	75f6                	ld	a1,376(sp)
    8000554a:	6855858b          	.insn	4, 0x6855858b
    8000554e:	4890858b          	.insn	4, 0x4890858b
    80005552:	659a                	ld	a1,384(sp)
    80005554:	77b6                	ld	a5,360(sp)
    80005556:	28f5858b          	.insn	4, 0x28f5858b
    8000555a:	813815fb          	.insn	4, 0x813815fb
    8000555e:	08b580ab          	.insn	4, 0x08b580ab
    80005562:	f20581d3          	fmv.d.x	ft3,a1
    80005566:	02317153          	fadd.d	ft2,ft2,ft3
    8000556a:	65ee                	ld	a1,216(sp)
    8000556c:	67da                	ld	a5,400(sp)
    8000556e:	8cf5858b          	.insn	4, 0x8cf5858b
    80005572:	65b6                	ld	a1,328(sp)
    80005574:	6792                	ld	a5,256(sp)
    80005576:	6cf5858b          	.insn	4, 0x6cf5858b
    8000557a:	758e                	ld	a1,224(sp)
    8000557c:	4ce5858b          	.insn	4, 0x4ce5858b
    80005580:	75ce                	ld	a1,240(sp)
    80005582:	2cb8058b          	.insn	4, 0x2cb8058b
    80005586:	c13815fb          	.insn	4, 0xc13815fb
    8000558a:	0cb5842b          	.insn	4, 0x0cb5842b
    8000558e:	f20581d3          	fmv.d.x	ft3,a1
    80005592:	02317153          	fadd.d	ft2,ft2,ft3
    80005596:	65ce                	ld	a1,208(sp)
    80005598:	774a                	ld	a4,176(sp)
    8000559a:	9ce5858b          	.insn	4, 0x9ce5858b
    8000559e:	7de3058b          	.insn	4, 0x7de3058b
    800055a2:	75ae                	ld	a1,232(sp)
    800055a4:	776a                	ld	a4,184(sp)
    800055a6:	5ce5858b          	.insn	4, 0x5ce5858b
    800055aa:	3d28858b          	.insn	4, 0x3d28858b
    800055ae:	c13815fb          	.insn	4, 0xc13815fb
    800055b2:	f20581d3          	fmv.d.x	ft3,a1
    800055b6:	02317153          	fadd.d	ft2,ft2,ft3
    800055ba:	75aa                	ld	a1,168(sp)
    800055bc:	9cb686db          	.insn	4, 0x9cb686db
    800055c0:	6596                	ld	a1,320(sp)
    800055c2:	6732                	ld	a4,264(sp)
    800055c4:	7ce5858b          	.insn	4, 0x7ce5858b
    800055c8:	75d2                	ld	a1,304(sp)
    800055ca:	7772                	ld	a4,312(sp)
    800055cc:	5ce5858b          	.insn	4, 0x5ce5858b
    800055d0:	7596                	ld	a1,352(sp)
    800055d2:	6756                	ld	a4,336(sp)
    800055d4:	c4e595fb          	.insn	4, 0xc4e595fb
    800055d8:	f20581d3          	fmv.d.x	ft3,a1
    800055dc:	02317153          	fadd.d	ft2,ft2,ft3
    800055e0:	7c03875b          	.insn	4, 0x7c03875b
    800055e4:	c40a17fb          	.insn	4, 0xc40a17fb
    800055e8:	1cf785ab          	.insn	4, 0x1cf785ab
    800055ec:	f20781d3          	fmv.d.x	ft3,a5
    800055f0:	02317153          	fadd.d	ft2,ft2,ft3
    800055f4:	a22097d3          	flt.d	a5,ft1,ft2
    800055f8:	e399                	bnez	a5,800055fe <bilateral_core+0x3408>
    800055fa:	cbdfc06f          	j	800022b6 <bilateral_core+0xc0>
    800055fe:	f20e01d3          	fmv.d.x	ft3,t3
    80005602:	0201f1d3          	fadd.d	ft3,ft3,ft0
    80005606:	f20f8253          	fmv.d.x	ft4,t6
    8000560a:	0241f1d3          	fadd.d	ft3,ft3,ft4
    8000560e:	f2008253          	fmv.d.x	ft4,ra
    80005612:	0241f1d3          	fadd.d	ft3,ft3,ft4
    80005616:	f2040253          	fmv.d.x	ft4,s0
    8000561a:	0241f1d3          	fadd.d	ft3,ft3,ft4
    8000561e:	f2068253          	fmv.d.x	ft4,a3
    80005622:	0241f1d3          	fadd.d	ft3,ft3,ft4
    80005626:	f2070253          	fmv.d.x	ft4,a4
    8000562a:	0241f1d3          	fadd.d	ft3,ft3,ft4
    8000562e:	f2058253          	fmv.d.x	ft4,a1
    80005632:	0241f1d3          	fadd.d	ft3,ft3,ft4
    80005636:	1a21f153          	fdiv.d	ft2,ft3,ft2
    8000563a:	e2010853          	fmv.x.d	a6,ft2
    8000563e:	c79fc06f          	j	800022b6 <bilateral_core+0xc0>
    80005642:	0016e593          	ori	a1,a3,1
    80005646:	00859e93          	slli	t4,a1,0x8
    8000564a:	0106ffb3          	and	t6,a3,a6
    8000564e:	100e8593          	addi	a1,t4,256
    80005652:	20b13423          	sd	a1,520(sp)
    80005656:	3003e593          	ori	a1,t2,768
    8000565a:	24b13c23          	sd	a1,600(sp)
    8000565e:	4481                	li	s1,0
    80005660:	27d13023          	sd	t4,608(sp)
    80005664:	27f13423          	sd	t6,616(sp)
    80005668:	a835                	j	800056a4 <bilateral_core+0x34ae>
    8000566a:	27813583          	ld	a1,632(sp)
    8000566e:	76ee                	ld	a3,248(sp)
    80005670:	95b6                	add	a1,a1,a3
    80005672:	0165b023          	sd	s6,0(a1)
    80005676:	22813483          	ld	s1,552(sp)
    8000567a:	04c1                	addi	s1,s1,16
    8000567c:	10000593          	li	a1,256
    80005680:	27013283          	ld	t0,624(sp)
    80005684:	26013e83          	ld	t4,608(sp)
    80005688:	26813f83          	ld	t6,616(sp)
    8000568c:	25813e03          	ld	t3,600(sp)
    80005690:	25013383          	ld	t2,592(sp)
    80005694:	23013303          	ld	t1,560(sp)
    80005698:	23813f03          	ld	t5,568(sp)
    8000569c:	00b49463          	bne	s1,a1,800056a4 <bilateral_core+0x34ae>
    800056a0:	26e0306f          	j	8000890e <bilateral_core+0x6718>
    800056a4:	01d485b3          	add	a1,s1,t4
    800056a8:	22b13023          	sd	a1,544(sp)
    800056ac:	00359293          	slli	t0,a1,0x3
    800056b0:	005505b3          	add	a1,a0,t0
    800056b4:	f82e                	sd	a1,48(sp)
    800056b6:	0005b083          	ld	ra,0(a1)
    800056ba:	ffe48b93          	addi	s7,s1,-2
    800056be:	009038b3          	snez	a7,s1
    800056c2:	75d6                	ld	a1,368(sp)
    800056c4:	0115f6b3          	and	a3,a1,a7
    800056c8:	4e01                	li	t3,0
    800056ca:	4901                	li	s2,0
    800056cc:	ce81                	beqz	a3,800056e4 <bilateral_core+0x34ee>
    800056ce:	017307b3          	add	a5,t1,s7
    800056d2:	21813583          	ld	a1,536(sp)
    800056d6:	8fed                	and	a5,a5,a1
    800056d8:	078e                	slli	a5,a5,0x3
    800056da:	97aa                	add	a5,a5,a0
    800056dc:	0007be03          	ld	t3,0(a5)
    800056e0:	00063903          	ld	s2,0(a2)
    800056e4:	8df2                	mv	s11,t3
    800056e6:	4981                	li	s3,0
    800056e8:	4a01                	li	s4,0
    800056ea:	ce99                	beqz	a3,80005708 <bilateral_core+0x3512>
    800056ec:	24813583          	ld	a1,584(sp)
    800056f0:	0ff58693          	addi	a3,a1,255
    800056f4:	00d487b3          	add	a5,s1,a3
    800056f8:	979a                	add	a5,a5,t1
    800056fa:	8efd                	and	a3,a3,a5
    800056fc:	068e                	slli	a3,a3,0x3
    800056fe:	96aa                	add	a3,a3,a0
    80005700:	0006b983          	ld	s3,0(a3)
    80005704:	00863a03          	ld	s4,8(a2)
    80005708:	4801                	li	a6,0
    8000570a:	4e01                	li	t3,0
    8000570c:	4b01                	li	s6,0
    8000570e:	4c01                	li	s8,0
    80005710:	24013783          	ld	a5,576(sp)
    80005714:	e795                	bnez	a5,80005740 <bilateral_core+0x354a>
    80005716:	65fa                	ld	a1,408(sp)
    80005718:	009586b3          	add	a3,a1,s1
    8000571c:	068e                	slli	a3,a3,0x3
    8000571e:	96aa                	add	a3,a3,a0
    80005720:	0006be03          	ld	t3,0(a3)
    80005724:	01063803          	ld	a6,16(a2)
    80005728:	0014e693          	ori	a3,s1,1
    8000572c:	969a                	add	a3,a3,t1
    8000572e:	21013583          	ld	a1,528(sp)
    80005732:	8eed                	and	a3,a3,a1
    80005734:	068e                	slli	a3,a3,0x3
    80005736:	96aa                	add	a3,a3,a0
    80005738:	0006bb03          	ld	s6,0(a3)
    8000573c:	01863c03          	ld	s8,24(a2)
    80005740:	4c81                	li	s9,0
    80005742:	4d01                	li	s10,0
    80005744:	ef81                	bnez	a5,8000575c <bilateral_core+0x3566>
    80005746:	0024e693          	ori	a3,s1,2
    8000574a:	969a                	add	a3,a3,t1
    8000574c:	75fe                	ld	a1,504(sp)
    8000574e:	8eed                	and	a3,a3,a1
    80005750:	068e                	slli	a3,a3,0x3
    80005752:	96aa                	add	a3,a3,a0
    80005754:	0006bc83          	ld	s9,0(a3)
    80005758:	02063d03          	ld	s10,32(a2)
    8000575c:	001fb793          	seqz	a5,t6
    80005760:	0117f8b3          	and	a7,a5,a7
    80005764:	4301                	li	t1,0
    80005766:	4a81                	li	s5,0
    80005768:	00088d63          	beqz	a7,80005782 <bilateral_core+0x358c>
    8000576c:	017386b3          	add	a3,t2,s7
    80005770:	21813583          	ld	a1,536(sp)
    80005774:	8eed                	and	a3,a3,a1
    80005776:	068e                	slli	a3,a3,0x3
    80005778:	96aa                	add	a3,a3,a0
    8000577a:	0006b303          	ld	t1,0(a3)
    8000577e:	02863a83          	ld	s5,40(a2)
    80005782:	4701                	li	a4,0
    80005784:	4581                	li	a1,0
    80005786:	00088e63          	beqz	a7,800057a2 <bilateral_core+0x35ac>
    8000578a:	24813583          	ld	a1,584(sp)
    8000578e:	0ff58693          	addi	a3,a1,255
    80005792:	00d48733          	add	a4,s1,a3
    80005796:	971e                	add	a4,a4,t2
    80005798:	8ef9                	and	a3,a3,a4
    8000579a:	068e                	slli	a3,a3,0x3
    8000579c:	96aa                	add	a3,a3,a0
    8000579e:	6298                	ld	a4,0(a3)
    800057a0:	7a0c                	ld	a1,48(a2)
    800057a2:	f1ae                	sd	a1,224(sp)
    800057a4:	e302                	sd	zero,384(sp)
    800057a6:	ee82                	sd	zero,344(sp)
    800057a8:	847e                	mv	s0,t6
    800057aa:	000f9a63          	bnez	t6,800057be <bilateral_core+0x35c8>
    800057ae:	009386b3          	add	a3,t2,s1
    800057b2:	068e                	slli	a3,a3,0x3
    800057b4:	96aa                	add	a3,a3,a0
    800057b6:	628c                	ld	a1,0(a3)
    800057b8:	e32e                	sd	a1,384(sp)
    800057ba:	7e0c                	ld	a1,56(a2)
    800057bc:	eeae                	sd	a1,344(sp)
    800057be:	ea82                	sd	zero,336(sp)
    800057c0:	4f81                	li	t6,0
    800057c2:	4581                	li	a1,0
    800057c4:	4681                	li	a3,0
    800057c6:	e415                	bnez	s0,800057f2 <bilateral_core+0x35fc>
    800057c8:	0014e693          	ori	a3,s1,1
    800057cc:	969e                	add	a3,a3,t2
    800057ce:	21013583          	ld	a1,528(sp)
    800057d2:	8eed                	and	a3,a3,a1
    800057d4:	068e                	slli	a3,a3,0x3
    800057d6:	96aa                	add	a3,a3,a0
    800057d8:	0006bf83          	ld	t6,0(a3)
    800057dc:	622c                	ld	a1,64(a2)
    800057de:	eaae                	sd	a1,336(sp)
    800057e0:	0024e693          	ori	a3,s1,2
    800057e4:	969e                	add	a3,a3,t2
    800057e6:	75fe                	ld	a1,504(sp)
    800057e8:	8eed                	and	a3,a3,a1
    800057ea:	068e                	slli	a3,a3,0x3
    800057ec:	96aa                	add	a3,a3,a0
    800057ee:	628c                	ld	a1,0(a3)
    800057f0:	6634                	ld	a3,72(a2)
    800057f2:	eb3e                	sd	a5,400(sp)
    800057f4:	e696                	sd	t0,328(sp)
    800057f6:	f64e                	sd	s3,296(sp)
    800057f8:	e252                	sd	s4,256(sp)
    800057fa:	f9d6                	sd	s5,240(sp)
    800057fc:	f5ba                	sd	a4,232(sp)
    800057fe:	edae                	sd	a1,216(sp)
    80005800:	e9b6                	sd	a3,208(sp)
    80005802:	c89d                	beqz	s1,80005838 <bilateral_core+0x3642>
    80005804:	017e86b3          	add	a3,t4,s7
    80005808:	21813583          	ld	a1,536(sp)
    8000580c:	8eed                	and	a3,a3,a1
    8000580e:	068e                	slli	a3,a3,0x3
    80005810:	96aa                	add	a3,a3,a0
    80005812:	628c                	ld	a1,0(a3)
    80005814:	f52e                	sd	a1,168(sp)
    80005816:	6a2c                	ld	a1,80(a2)
    80005818:	f12e                	sd	a1,160(sp)
    8000581a:	24813583          	ld	a1,584(sp)
    8000581e:	0ff58693          	addi	a3,a1,255
    80005822:	00d48733          	add	a4,s1,a3
    80005826:	9776                	add	a4,a4,t4
    80005828:	8ef9                	and	a3,a3,a4
    8000582a:	068e                	slli	a3,a3,0x3
    8000582c:	96aa                	add	a3,a3,a0
    8000582e:	628c                	ld	a1,0(a3)
    80005830:	ed2e                	sd	a1,152(sp)
    80005832:	6e2c                	ld	a1,88(a2)
    80005834:	e92e                	sd	a1,144(sp)
    80005836:	a029                	j	80005840 <bilateral_core+0x364a>
    80005838:	f102                	sd	zero,160(sp)
    8000583a:	f502                	sd	zero,168(sp)
    8000583c:	ed02                	sd	zero,152(sp)
    8000583e:	e902                	sd	zero,144(sp)
    80005840:	06063283          	ld	t0,96(a2)
    80005844:	0014e593          	ori	a1,s1,1
    80005848:	feae                	sd	a1,376(sp)
    8000584a:	00be8733          	add	a4,t4,a1
    8000584e:	00371a93          	slli	s5,a4,0x3
    80005852:	01550433          	add	s0,a0,s5
    80005856:	00043383          	ld	t2,0(s0)
    8000585a:	06863983          	ld	s3,104(a2)
    8000585e:	0024e593          	ori	a1,s1,2
    80005862:	e72e                	sd	a1,392(sp)
    80005864:	95f6                	add	a1,a1,t4
    80005866:	00359693          	slli	a3,a1,0x3
    8000586a:	00d507b3          	add	a5,a0,a3
    8000586e:	e2be                	sd	a5,320(sp)
    80005870:	639c                	ld	a5,0(a5)
    80005872:	07063e83          	ld	t4,112(a2)
    80005876:	fa2e                	sd	a1,304(sp)
    80005878:	e636                	sd	a3,264(sp)
    8000587a:	fda2                	sd	s0,248(sp)
    8000587c:	fd3e                	sd	a5,184(sp)
    8000587e:	cc81                	beqz	s1,80005896 <bilateral_core+0x36a0>
    80005880:	20813583          	ld	a1,520(sp)
    80005884:	017586b3          	add	a3,a1,s7
    80005888:	068e                	slli	a3,a3,0x3
    8000588a:	96aa                	add	a3,a3,a0
    8000588c:	628c                	ld	a1,0(a3)
    8000588e:	e52e                	sd	a1,136(sp)
    80005890:	7e2c                	ld	a1,120(a2)
    80005892:	e12e                	sd	a1,128(sp)
    80005894:	a019                	j	8000589a <bilateral_core+0x36a4>
    80005896:	e502                	sd	zero,136(sp)
    80005898:	e102                	sd	zero,128(sp)
    8000589a:	87ee                	mv	a5,s11
    8000589c:	fe3a                	sd	a4,312(sp)
    8000589e:	e59e                	sd	t2,200(sp)
    800058a0:	e1ce                	sd	s3,192(sp)
    800058a2:	f916                	sd	t0,176(sp)
    800058a4:	8df6                	mv	s11,t4
    800058a6:	82fe                	mv	t0,t6
    800058a8:	c899                	beqz	s1,800058be <bilateral_core+0x36c8>
    800058aa:	01e486b3          	add	a3,s1,t5
    800058ae:	068e                	slli	a3,a3,0x3
    800058b0:	96aa                	add	a3,a3,a0
    800058b2:	ff86b583          	ld	a1,-8(a3)
    800058b6:	fcae                	sd	a1,120(sp)
    800058b8:	624c                	ld	a1,128(a2)
    800058ba:	f8ae                	sd	a1,112(sp)
    800058bc:	a019                	j	800058c2 <bilateral_core+0x36cc>
    800058be:	fc82                	sd	zero,120(sp)
    800058c0:	f882                	sd	zero,112(sp)
    800058c2:	009f06b3          	add	a3,t5,s1
    800058c6:	068e                	slli	a3,a3,0x3
    800058c8:	00d505b3          	add	a1,a0,a3
    800058cc:	f22e                	sd	a1,288(sp)
    800058ce:	0005bf83          	ld	t6,0(a1)
    800058d2:	08863e83          	ld	t4,136(a2)
    800058d6:	75f6                	ld	a1,376(sp)
    800058d8:	00bf06b3          	add	a3,t5,a1
    800058dc:	068e                	slli	a3,a3,0x3
    800058de:	00d505b3          	add	a1,a0,a3
    800058e2:	f6ae                	sd	a1,360(sp)
    800058e4:	0005ba03          	ld	s4,0(a1)
    800058e8:	09063983          	ld	s3,144(a2)
    800058ec:	65ba                	ld	a1,392(sp)
    800058ee:	00bf06b3          	add	a3,t5,a1
    800058f2:	068e                	slli	a3,a3,0x3
    800058f4:	00d505b3          	add	a1,a0,a3
    800058f8:	f2ae                	sd	a1,352(sp)
    800058fa:	0005b383          	ld	t2,0(a1)
    800058fe:	09863f03          	ld	t5,152(a2)
    80005902:	22913423          	sd	s1,552(sp)
    80005906:	ea56                	sd	s5,272(sp)
    80005908:	ee46                	sd	a7,280(sp)
    8000590a:	8772                	mv	a4,t3
    8000590c:	c88d                	beqz	s1,8000593e <bilateral_core+0x3748>
    8000590e:	25813583          	ld	a1,600(sp)
    80005912:	017586b3          	add	a3,a1,s7
    80005916:	068e                	slli	a3,a3,0x3
    80005918:	96aa                	add	a3,a3,a0
    8000591a:	0006ba83          	ld	s5,0(a3)
    8000591e:	0a063883          	ld	a7,160(a2)
    80005922:	22813b83          	ld	s7,552(sp)
    80005926:	020b8263          	beqz	s7,8000594a <bilateral_core+0x3754>
    8000592a:	25813403          	ld	s0,600(sp)
    8000592e:	008b86b3          	add	a3,s7,s0
    80005932:	068e                	slli	a3,a3,0x3
    80005934:	96aa                	add	a3,a3,a0
    80005936:	ff86be03          	ld	t3,-8(a3)
    8000593a:	7654                	ld	a3,168(a2)
    8000593c:	a819                	j	80005952 <bilateral_core+0x375c>
    8000593e:	4a81                	li	s5,0
    80005940:	4881                	li	a7,0
    80005942:	22813b83          	ld	s7,552(sp)
    80005946:	fe0b92e3          	bnez	s7,8000592a <bilateral_core+0x3734>
    8000594a:	4e01                	li	t3,0
    8000594c:	4681                	li	a3,0
    8000594e:	25813403          	ld	s0,600(sp)
    80005952:	8188048b          	.insn	4, 0x8188048b
    80005956:	6592                	ld	a1,256(sp)
    80005958:	60b9048b          	.insn	4, 0x60b9048b
    8000595c:	4167048b          	.insn	4, 0x4167048b
    80005960:	75b2                	ld	a1,296(sp)
    80005962:	20b7848b          	.insn	4, 0x20b7848b
    80005966:	28013583          	ld	a1,640(sp)
    8000596a:	00b094fb          	.insn	4, 0x00b094fb
    8000596e:	0094892b          	.insn	4, 0x0094892b
    80005972:	f2048153          	fmv.d.x	ft2,s1
    80005976:	02017153          	fadd.d	ft2,ft2,ft0
    8000597a:	770e                	ld	a4,224(sp)
    8000597c:	67f6                	ld	a5,344(sp)
    8000597e:	84f7048b          	.insn	4, 0x84f7048b
    80005982:	774e                	ld	a4,240(sp)
    80005984:	64ed048b          	.insn	4, 0x64ed048b
    80005988:	772e                	ld	a4,232(sp)
    8000598a:	679a                	ld	a5,384(sp)
    8000598c:	44f7048b          	.insn	4, 0x44f7048b
    80005990:	246c848b          	.insn	4, 0x246c848b
    80005994:	40b094fb          	.insn	4, 0x40b094fb
