
mainop_O2U4_YN.riscv:     file format elf64-littleriscv


Disassembly of section .text.init:

0000000080000000 <_start>:
    80000000:	4081                	li	ra,0
    80000002:	4101                	li	sp,0
    80000004:	4181                	li	gp,0
    80000006:	4201                	li	tp,0
    80000008:	4281                	li	t0,0
    8000000a:	4301                	li	t1,0
    8000000c:	4381                	li	t2,0
    8000000e:	4401                	li	s0,0
    80000010:	4481                	li	s1,0
    80000012:	4501                	li	a0,0
    80000014:	4581                	li	a1,0
    80000016:	4601                	li	a2,0
    80000018:	4681                	li	a3,0
    8000001a:	4701                	li	a4,0
    8000001c:	4781                	li	a5,0
    8000001e:	4801                	li	a6,0
    80000020:	4881                	li	a7,0
    80000022:	4901                	li	s2,0
    80000024:	4981                	li	s3,0
    80000026:	4a01                	li	s4,0
    80000028:	4a81                	li	s5,0
    8000002a:	4b01                	li	s6,0
    8000002c:	4b81                	li	s7,0
    8000002e:	4c01                	li	s8,0
    80000030:	4c81                	li	s9,0
    80000032:	4d01                	li	s10,0
    80000034:	4d81                	li	s11,0
    80000036:	4e01                	li	t3,0
    80000038:	4e81                	li	t4,0
    8000003a:	4f01                	li	t5,0
    8000003c:	4f81                	li	t6,0
    8000003e:	62f9                	lui	t0,0x1e
    80000040:	3002a073          	csrs	mstatus,t0
    80000044:	4285                	li	t0,1
    80000046:	02fe                	slli	t0,t0,0x1f
    80000048:	0002d863          	bgez	t0,80000058 <_start+0x58>
    8000004c:	4505                	li	a0,1
    8000004e:	00001297          	auipc	t0,0x1
    80000052:	faa2a923          	sw	a0,-78(t0) # 80001000 <tohost>
    80000056:	bfdd                	j	8000004c <_start+0x4c>
    80000058:	00000297          	auipc	t0,0x0
    8000005c:	09028293          	addi	t0,t0,144 # 800000e8 <_start+0xe8>
    80000060:	30529073          	csrw	mtvec,t0
    80000064:	00301073          	fscsr	zero
    80000068:	f0000053          	fmv.w.x	ft0,zero
    8000006c:	f00000d3          	fmv.w.x	ft1,zero
    80000070:	f0000153          	fmv.w.x	ft2,zero
    80000074:	f00001d3          	fmv.w.x	ft3,zero
    80000078:	f0000253          	fmv.w.x	ft4,zero
    8000007c:	f00002d3          	fmv.w.x	ft5,zero
    80000080:	f0000353          	fmv.w.x	ft6,zero
    80000084:	f00003d3          	fmv.w.x	ft7,zero
    80000088:	f0000453          	fmv.w.x	fs0,zero
    8000008c:	f00004d3          	fmv.w.x	fs1,zero
    80000090:	f0000553          	fmv.w.x	fa0,zero
    80000094:	f00005d3          	fmv.w.x	fa1,zero
    80000098:	f0000653          	fmv.w.x	fa2,zero
    8000009c:	f00006d3          	fmv.w.x	fa3,zero
    800000a0:	f0000753          	fmv.w.x	fa4,zero
    800000a4:	f00007d3          	fmv.w.x	fa5,zero
    800000a8:	f0000853          	fmv.w.x	fa6,zero
    800000ac:	f00008d3          	fmv.w.x	fa7,zero
    800000b0:	f0000953          	fmv.w.x	fs2,zero
    800000b4:	f00009d3          	fmv.w.x	fs3,zero
    800000b8:	f0000a53          	fmv.w.x	fs4,zero
    800000bc:	f0000ad3          	fmv.w.x	fs5,zero
    800000c0:	f0000b53          	fmv.w.x	fs6,zero
    800000c4:	f0000bd3          	fmv.w.x	fs7,zero
    800000c8:	f0000c53          	fmv.w.x	fs8,zero
    800000cc:	f0000cd3          	fmv.w.x	fs9,zero
    800000d0:	f0000d53          	fmv.w.x	fs10,zero
    800000d4:	f0000dd3          	fmv.w.x	fs11,zero
    800000d8:	f0000e53          	fmv.w.x	ft8,zero
    800000dc:	f0000ed3          	fmv.w.x	ft9,zero
    800000e0:	f0000f53          	fmv.w.x	ft10,zero
    800000e4:	f0000fd3          	fmv.w.x	ft11,zero
    800000e8:	00000297          	auipc	t0,0x0
    800000ec:	03828293          	addi	t0,t0,56 # 80000120 <trap_entry>
    800000f0:	30529073          	csrw	mtvec,t0
    800000f4:	00012197          	auipc	gp,0x12
    800000f8:	d3418193          	addi	gp,gp,-716 # 80011e28 <__global_pointer$>
    800000fc:	95718213          	addi	tp,gp,-1705 # 8001177f <_end+0x3f>
    80000100:	fc027213          	andi	tp,tp,-64
    80000104:	f1402573          	csrr	a0,mhartid
    80000108:	4585                	li	a1,1
    8000010a:	00b57063          	bgeu	a0,a1,8000010a <_start+0x10a>
    8000010e:	00150113          	addi	sp,a0,1
    80000112:	0146                	slli	sp,sp,0x11
    80000114:	9112                	add	sp,sp,tp
    80000116:	01151613          	slli	a2,a0,0x11
    8000011a:	9232                	add	tp,tp,a2
    8000011c:	22d1006f          	j	80010b48 <_init>

0000000080000120 <trap_entry>:
    80000120:	716d                	addi	sp,sp,-272
    80000122:	e406                	sd	ra,8(sp)
    80000124:	e80a                	sd	sp,16(sp)
    80000126:	ec0e                	sd	gp,24(sp)
    80000128:	f012                	sd	tp,32(sp)
    8000012a:	f416                	sd	t0,40(sp)
    8000012c:	f81a                	sd	t1,48(sp)
    8000012e:	fc1e                	sd	t2,56(sp)
    80000130:	e0a2                	sd	s0,64(sp)
    80000132:	e4a6                	sd	s1,72(sp)
    80000134:	e8aa                	sd	a0,80(sp)
    80000136:	ecae                	sd	a1,88(sp)
    80000138:	f0b2                	sd	a2,96(sp)
    8000013a:	f4b6                	sd	a3,104(sp)
    8000013c:	f8ba                	sd	a4,112(sp)
    8000013e:	fcbe                	sd	a5,120(sp)
    80000140:	e142                	sd	a6,128(sp)
    80000142:	e546                	sd	a7,136(sp)
    80000144:	e94a                	sd	s2,144(sp)
    80000146:	ed4e                	sd	s3,152(sp)
    80000148:	f152                	sd	s4,160(sp)
    8000014a:	f556                	sd	s5,168(sp)
    8000014c:	f95a                	sd	s6,176(sp)
    8000014e:	fd5e                	sd	s7,184(sp)
    80000150:	e1e2                	sd	s8,192(sp)
    80000152:	e5e6                	sd	s9,200(sp)
    80000154:	e9ea                	sd	s10,208(sp)
    80000156:	edee                	sd	s11,216(sp)
    80000158:	f1f2                	sd	t3,224(sp)
    8000015a:	f5f6                	sd	t4,232(sp)
    8000015c:	f9fa                	sd	t5,240(sp)
    8000015e:	fdfe                	sd	t6,248(sp)
    80000160:	34202573          	csrr	a0,mcause
    80000164:	341025f3          	csrr	a1,mepc
    80000168:	860a                	mv	a2,sp
    8000016a:	017100ef          	jal	80010980 <handle_trap>
    8000016e:	34151073          	csrw	mepc,a0
    80000172:	6289                	lui	t0,0x2
    80000174:	8002829b          	addiw	t0,t0,-2048 # 1800 <buflen.1+0x17c0>
    80000178:	3002a073          	csrs	mstatus,t0
    8000017c:	60a2                	ld	ra,8(sp)
    8000017e:	6142                	ld	sp,16(sp)
    80000180:	61e2                	ld	gp,24(sp)
    80000182:	7202                	ld	tp,32(sp)
    80000184:	72a2                	ld	t0,40(sp)
    80000186:	7342                	ld	t1,48(sp)
    80000188:	73e2                	ld	t2,56(sp)
    8000018a:	6406                	ld	s0,64(sp)
    8000018c:	64a6                	ld	s1,72(sp)
    8000018e:	6546                	ld	a0,80(sp)
    80000190:	65e6                	ld	a1,88(sp)
    80000192:	7606                	ld	a2,96(sp)
    80000194:	76a6                	ld	a3,104(sp)
    80000196:	7746                	ld	a4,112(sp)
    80000198:	77e6                	ld	a5,120(sp)
    8000019a:	680a                	ld	a6,128(sp)
    8000019c:	68aa                	ld	a7,136(sp)
    8000019e:	694a                	ld	s2,144(sp)
    800001a0:	69ea                	ld	s3,152(sp)
    800001a2:	7a0a                	ld	s4,160(sp)
    800001a4:	7aaa                	ld	s5,168(sp)
    800001a6:	7b4a                	ld	s6,176(sp)
    800001a8:	7bea                	ld	s7,184(sp)
    800001aa:	6c0e                	ld	s8,192(sp)
    800001ac:	6cae                	ld	s9,200(sp)
    800001ae:	6d4e                	ld	s10,208(sp)
    800001b0:	6dee                	ld	s11,216(sp)
    800001b2:	7e0e                	ld	t3,224(sp)
    800001b4:	7eae                	ld	t4,232(sp)
    800001b6:	7f4e                	ld	t5,240(sp)
    800001b8:	7fee                	ld	t6,248(sp)
    800001ba:	6151                	addi	sp,sp,272
    800001bc:	30200073          	mret
    800001c0:	0000                	unimp

Disassembly of section .text:

0000000080002000 <d2ull>:
    80002000:	e2050553          	fmv.x.d	a0,fa0
    80002004:	8082                	ret

0000000080002006 <ull2d>:
    80002006:	f2050553          	fmv.d.x	fa0,a0
    8000200a:	8082                	ret

000000008000200c <init_space_weights>:
    8000200c:	7139                	addi	sp,sp,-64
    8000200e:	fc06                	sd	ra,56(sp)
    80002010:	f822                	sd	s0,48(sp)
    80002012:	b422                	fsd	fs0,40(sp)
    80002014:	b026                	fsd	fs1,32(sp)
    80002016:	ac4a                	fsd	fs2,24(sp)
    80002018:	a84e                	fsd	fs3,16(sp)
    8000201a:	a452                	fsd	fs4,8(sp)
    8000201c:	a056                	fsd	fs5,0(sp)
    8000201e:	10a57053          	fmul.s	ft0,fa0,fa0
    80002022:	42000053          	fcvt.d.s	ft0,ft0
    80002026:	02007ad3          	fadd.d	fs5,ft0,ft0
    8000202a:	0000f597          	auipc	a1,0xf
    8000202e:	6ae58593          	addi	a1,a1,1710 # 800116d8 <halF+0xc0>
    80002032:	0005b007          	fld	ft0,0(a1)
    80002036:	1b507453          	fdiv.d	fs0,ft0,fs5
    8000203a:	842a                	mv	s0,a0
    8000203c:	22840553          	fmv.d	fa0,fs0
    80002040:	0000f097          	auipc	ra,0xf
    80002044:	028080e7          	jalr	40(ra) # 80011068 <exp>
    80002048:	0000f517          	auipc	a0,0xf
    8000204c:	69850513          	addi	a0,a0,1688 # 800116e0 <halF+0xc8>
    80002050:	00053007          	fld	ft0,0(a0)
    80002054:	1b5074d3          	fdiv.d	fs1,ft0,fs5
    80002058:	a008                	fsd	fa0,0(s0)
    8000205a:	22948553          	fmv.d	fa0,fs1
    8000205e:	0000f097          	auipc	ra,0xf
    80002062:	00a080e7          	jalr	10(ra) # 80011068 <exp>
    80002066:	0000f517          	auipc	a0,0xf
    8000206a:	68250513          	addi	a0,a0,1666 # 800116e8 <halF+0xd0>
    8000206e:	00053007          	fld	ft0,0(a0)
    80002072:	1b507953          	fdiv.d	fs2,ft0,fs5
    80002076:	a408                	fsd	fa0,8(s0)
    80002078:	23290553          	fmv.d	fa0,fs2
    8000207c:	0000f097          	auipc	ra,0xf
    80002080:	fec080e7          	jalr	-20(ra) # 80011068 <exp>
    80002084:	a808                	fsd	fa0,16(s0)
    80002086:	22948553          	fmv.d	fa0,fs1
    8000208a:	0000f097          	auipc	ra,0xf
    8000208e:	fde080e7          	jalr	-34(ra) # 80011068 <exp>
    80002092:	ac08                	fsd	fa0,24(s0)
    80002094:	22840553          	fmv.d	fa0,fs0
    80002098:	0000f097          	auipc	ra,0xf
    8000209c:	fd0080e7          	jalr	-48(ra) # 80011068 <exp>
    800020a0:	b008                	fsd	fa0,32(s0)
    800020a2:	22948553          	fmv.d	fa0,fs1
    800020a6:	0000f097          	auipc	ra,0xf
    800020aa:	fc2080e7          	jalr	-62(ra) # 80011068 <exp>
    800020ae:	0000f517          	auipc	a0,0xf
    800020b2:	64250513          	addi	a0,a0,1602 # 800116f0 <halF+0xd8>
    800020b6:	00053007          	fld	ft0,0(a0)
    800020ba:	1b5079d3          	fdiv.d	fs3,ft0,fs5
    800020be:	b408                	fsd	fa0,40(s0)
    800020c0:	23398553          	fmv.d	fa0,fs3
    800020c4:	0000f097          	auipc	ra,0xf
    800020c8:	fa4080e7          	jalr	-92(ra) # 80011068 <exp>
    800020cc:	0000f517          	auipc	a0,0xf
    800020d0:	62c50513          	addi	a0,a0,1580 # 800116f8 <halF+0xe0>
    800020d4:	00053007          	fld	ft0,0(a0)
    800020d8:	1b507a53          	fdiv.d	fs4,ft0,fs5
    800020dc:	b808                	fsd	fa0,48(s0)
    800020de:	234a0553          	fmv.d	fa0,fs4
    800020e2:	0000f097          	auipc	ra,0xf
    800020e6:	f86080e7          	jalr	-122(ra) # 80011068 <exp>
    800020ea:	bc08                	fsd	fa0,56(s0)
    800020ec:	23398553          	fmv.d	fa0,fs3
    800020f0:	0000f097          	auipc	ra,0xf
    800020f4:	f78080e7          	jalr	-136(ra) # 80011068 <exp>
    800020f8:	a028                	fsd	fa0,64(s0)
    800020fa:	22948553          	fmv.d	fa0,fs1
    800020fe:	0000f097          	auipc	ra,0xf
    80002102:	f6a080e7          	jalr	-150(ra) # 80011068 <exp>
    80002106:	a428                	fsd	fa0,72(s0)
    80002108:	23290553          	fmv.d	fa0,fs2
    8000210c:	0000f097          	auipc	ra,0xf
    80002110:	f5c080e7          	jalr	-164(ra) # 80011068 <exp>
    80002114:	a828                	fsd	fa0,80(s0)
    80002116:	234a0553          	fmv.d	fa0,fs4
    8000211a:	0000f097          	auipc	ra,0xf
    8000211e:	f4e080e7          	jalr	-178(ra) # 80011068 <exp>
    80002122:	f2000053          	fmv.d.x	ft0,zero
    80002126:	22001053          	fneg.d	ft0,ft0
    8000212a:	1b507053          	fdiv.d	ft0,ft0,fs5
    8000212e:	ac28                	fsd	fa0,88(s0)
    80002130:	22000553          	fmv.d	fa0,ft0
    80002134:	0000f097          	auipc	ra,0xf
    80002138:	f34080e7          	jalr	-204(ra) # 80011068 <exp>
    8000213c:	b028                	fsd	fa0,96(s0)
    8000213e:	234a0553          	fmv.d	fa0,fs4
    80002142:	0000f097          	auipc	ra,0xf
    80002146:	f26080e7          	jalr	-218(ra) # 80011068 <exp>
    8000214a:	b428                	fsd	fa0,104(s0)
    8000214c:	23290553          	fmv.d	fa0,fs2
    80002150:	0000f097          	auipc	ra,0xf
    80002154:	f18080e7          	jalr	-232(ra) # 80011068 <exp>
    80002158:	b828                	fsd	fa0,112(s0)
    8000215a:	22948553          	fmv.d	fa0,fs1
    8000215e:	0000f097          	auipc	ra,0xf
    80002162:	f0a080e7          	jalr	-246(ra) # 80011068 <exp>
    80002166:	bc28                	fsd	fa0,120(s0)
    80002168:	23398553          	fmv.d	fa0,fs3
    8000216c:	0000f097          	auipc	ra,0xf
    80002170:	efc080e7          	jalr	-260(ra) # 80011068 <exp>
    80002174:	a048                	fsd	fa0,128(s0)
    80002176:	234a0553          	fmv.d	fa0,fs4
    8000217a:	0000f097          	auipc	ra,0xf
    8000217e:	eee080e7          	jalr	-274(ra) # 80011068 <exp>
    80002182:	a448                	fsd	fa0,136(s0)
    80002184:	23398553          	fmv.d	fa0,fs3
    80002188:	0000f097          	auipc	ra,0xf
    8000218c:	ee0080e7          	jalr	-288(ra) # 80011068 <exp>
    80002190:	a848                	fsd	fa0,144(s0)
    80002192:	22948553          	fmv.d	fa0,fs1
    80002196:	0000f097          	auipc	ra,0xf
    8000219a:	ed2080e7          	jalr	-302(ra) # 80011068 <exp>
    8000219e:	ac48                	fsd	fa0,152(s0)
    800021a0:	22840553          	fmv.d	fa0,fs0
    800021a4:	0000f097          	auipc	ra,0xf
    800021a8:	ec4080e7          	jalr	-316(ra) # 80011068 <exp>
    800021ac:	b048                	fsd	fa0,160(s0)
    800021ae:	22948553          	fmv.d	fa0,fs1
    800021b2:	0000f097          	auipc	ra,0xf
    800021b6:	eb6080e7          	jalr	-330(ra) # 80011068 <exp>
    800021ba:	b448                	fsd	fa0,168(s0)
    800021bc:	23290553          	fmv.d	fa0,fs2
    800021c0:	0000f097          	auipc	ra,0xf
    800021c4:	ea8080e7          	jalr	-344(ra) # 80011068 <exp>
    800021c8:	b848                	fsd	fa0,176(s0)
    800021ca:	22948553          	fmv.d	fa0,fs1
    800021ce:	0000f097          	auipc	ra,0xf
    800021d2:	e9a080e7          	jalr	-358(ra) # 80011068 <exp>
    800021d6:	bc48                	fsd	fa0,184(s0)
    800021d8:	22840553          	fmv.d	fa0,fs0
    800021dc:	0000f097          	auipc	ra,0xf
    800021e0:	e8c080e7          	jalr	-372(ra) # 80011068 <exp>
    800021e4:	a068                	fsd	fa0,192(s0)
    800021e6:	70e2                	ld	ra,56(sp)
    800021e8:	7442                	ld	s0,48(sp)
    800021ea:	3422                	fld	fs0,40(sp)
    800021ec:	3482                	fld	fs1,32(sp)
    800021ee:	2962                	fld	fs2,24(sp)
    800021f0:	29c2                	fld	fs3,16(sp)
    800021f2:	2a22                	fld	fs4,8(sp)
    800021f4:	2a82                	fld	fs5,0(sp)
    800021f6:	6121                	addi	sp,sp,64
    800021f8:	8082                	ret

00000000800021fa <bilateral_core>:
    800021fa:	d0010113          	addi	sp,sp,-768
    800021fe:	2e113c23          	sd	ra,760(sp)
    80002202:	2e813823          	sd	s0,752(sp)
    80002206:	2e913423          	sd	s1,744(sp)
    8000220a:	2f213023          	sd	s2,736(sp)
    8000220e:	2d313c23          	sd	s3,728(sp)
    80002212:	2d413823          	sd	s4,720(sp)
    80002216:	2d513423          	sd	s5,712(sp)
    8000221a:	2d613023          	sd	s6,704(sp)
    8000221e:	2b713c23          	sd	s7,696(sp)
    80002222:	2b813823          	sd	s8,688(sp)
    80002226:	2b913423          	sd	s9,680(sp)
    8000222a:	2ba13023          	sd	s10,672(sp)
    8000222e:	29b13c23          	sd	s11,664(sp)
    80002232:	28d13823          	sd	a3,656(sp)
    80002236:	28b13423          	sd	a1,648(sp)
    8000223a:	4f01                	li	t5,0
    8000223c:	4585                	li	a1,1
    8000223e:	1582                	slli	a1,a1,0x20
    80002240:	f0058313          	addi	t1,a1,-256
    80002244:	f0030593          	addi	a1,t1,-256
    80002248:	e42e                	sd	a1,8(sp)
    8000224a:	f2000053          	fmv.d.x	ft0,zero
    8000224e:	24613c23          	sd	t1,600(sp)
    80002252:	a801                	j	80002262 <bilateral_core+0x68>
    80002254:	0f11                	addi	t5,t5,4
    80002256:	10000593          	li	a1,256
    8000225a:	00bf1463          	bne	t5,a1,80002262 <bilateral_core+0x68>
    8000225e:	19e0e06f          	j	800103fc <bilateral_core+0xe202>
    80002262:	29e13023          	sd	t5,640(sp)
    80002266:	4401                	li	s0,0
    80002268:	008f1393          	slli	t2,t5,0x8
    8000226c:	ffef0593          	addi	a1,t5,-2
    80002270:	0065f7b3          	and	a5,a1,t1
    80002274:	00859e13          	slli	t3,a1,0x8
    80002278:	65a2                	ld	a1,8(sp)
    8000227a:	00be75b3          	and	a1,t3,a1
    8000227e:	20b13c23          	sd	a1,536(sp)
    80002282:	ffff0593          	addi	a1,t5,-1
    80002286:	0065f6b3          	and	a3,a1,t1
    8000228a:	24d13823          	sd	a3,592(sp)
    8000228e:	00859813          	slli	a6,a1,0x8
    80002292:	006875b3          	and	a1,a6,t1
    80002296:	f72e                	sd	a1,424(sp)
    80002298:	1003e913          	ori	s2,t2,256
    8000229c:	2003e593          	ori	a1,t2,512
    800022a0:	24b13423          	sd	a1,584(sp)
    800022a4:	26713023          	sd	t2,608(sp)
    800022a8:	23013c23          	sd	a6,568(sp)
    800022ac:	26f13423          	sd	a5,616(sp)
    800022b0:	23c13823          	sd	t3,560(sp)
    800022b4:	25213023          	sd	s2,576(sp)
    800022b8:	a835                	j	800022f4 <bilateral_core+0xfa>
    800022ba:	28813583          	ld	a1,648(sp)
    800022be:	76b2                	ld	a3,296(sp)
    800022c0:	95b6                	add	a1,a1,a3
    800022c2:	27813403          	ld	s0,632(sp)
    800022c6:	0441                	addi	s0,s0,16
    800022c8:	01e5b023          	sd	t5,0(a1)
    800022cc:	28013683          	ld	a3,640(sp)
    800022d0:	25813303          	ld	t1,600(sp)
    800022d4:	10000593          	li	a1,256
    800022d8:	26013383          	ld	t2,608(sp)
    800022dc:	23813803          	ld	a6,568(sp)
    800022e0:	26813783          	ld	a5,616(sp)
    800022e4:	23013e03          	ld	t3,560(sp)
    800022e8:	24013903          	ld	s2,576(sp)
    800022ec:	00b41463          	bne	s0,a1,800022f4 <bilateral_core+0xfa>
    800022f0:	38a0306f          	j	8000567a <bilateral_core+0x3480>
    800022f4:	4e81                	li	t4,0
    800022f6:	4f01                	li	t5,0
    800022f8:	0017b693          	seqz	a3,a5
    800022fc:	008035b3          	snez	a1,s0
    80002300:	f6b6                	sd	a3,360(sp)
    80002302:	8eed                	and	a3,a3,a1
    80002304:	ffe40d93          	addi	s11,s0,-2
    80002308:	25013883          	ld	a7,592(sp)
    8000230c:	ce81                	beqz	a3,80002324 <bilateral_core+0x12a>
    8000230e:	01be0733          	add	a4,t3,s11
    80002312:	0fe30493          	addi	s1,t1,254
    80002316:	8f65                	and	a4,a4,s1
    80002318:	070e                	slli	a4,a4,0x3
    8000231a:	972a                	add	a4,a4,a0
    8000231c:	00073e83          	ld	t4,0(a4)
    80002320:	00063f03          	ld	t5,0(a2)
    80002324:	4b01                	li	s6,0
    80002326:	4f81                	li	t6,0
    80002328:	ce89                	beqz	a3,80002342 <bilateral_core+0x148>
    8000232a:	0ff30693          	addi	a3,t1,255
    8000232e:	00d40733          	add	a4,s0,a3
    80002332:	9772                	add	a4,a4,t3
    80002334:	8ef9                	and	a3,a3,a4
    80002336:	068e                	slli	a3,a3,0x3
    80002338:	96aa                	add	a3,a3,a0
    8000233a:	0006bb03          	ld	s6,0(a3)
    8000233e:	00863f83          	ld	t6,8(a2)
    80002342:	4a01                	li	s4,0
    80002344:	4981                	li	s3,0
    80002346:	4c01                	li	s8,0
    80002348:	4b81                	li	s7,0
    8000234a:	e795                	bnez	a5,80002376 <bilateral_core+0x17c>
    8000234c:	21813683          	ld	a3,536(sp)
    80002350:	96a2                	add	a3,a3,s0
    80002352:	068e                	slli	a3,a3,0x3
    80002354:	96aa                	add	a3,a3,a0
    80002356:	0006b983          	ld	s3,0(a3)
    8000235a:	01063a03          	ld	s4,16(a2)
    8000235e:	00146693          	ori	a3,s0,1
    80002362:	96f2                	add	a3,a3,t3
    80002364:	0f130713          	addi	a4,t1,241
    80002368:	8ef9                	and	a3,a3,a4
    8000236a:	068e                	slli	a3,a3,0x3
    8000236c:	96aa                	add	a3,a3,a0
    8000236e:	0006bc03          	ld	s8,0(a3)
    80002372:	01863b83          	ld	s7,24(a2)
    80002376:	4281                	li	t0,0
    80002378:	4c81                	li	s9,0
    8000237a:	ef89                	bnez	a5,80002394 <bilateral_core+0x19a>
    8000237c:	00246693          	ori	a3,s0,2
    80002380:	96f2                	add	a3,a3,t3
    80002382:	0f230713          	addi	a4,t1,242
    80002386:	8ef9                	and	a3,a3,a4
    80002388:	068e                	slli	a3,a3,0x3
    8000238a:	96aa                	add	a3,a3,a0
    8000238c:	0006b283          	ld	t0,0(a3)
    80002390:	02063c83          	ld	s9,32(a2)
    80002394:	4781                	li	a5,0
    80002396:	0018ba93          	seqz	s5,a7
    8000239a:	00baf733          	and	a4,s5,a1
    8000239e:	4e01                	li	t3,0
    800023a0:	cb19                	beqz	a4,800023b6 <bilateral_core+0x1bc>
    800023a2:	01b805b3          	add	a1,a6,s11
    800023a6:	0fe30693          	addi	a3,t1,254
    800023aa:	8df5                	and	a1,a1,a3
    800023ac:	058e                	slli	a1,a1,0x3
    800023ae:	95aa                	add	a1,a1,a0
    800023b0:	619c                	ld	a5,0(a1)
    800023b2:	02863e03          	ld	t3,40(a2)
    800023b6:	4481                	li	s1,0
    800023b8:	4d01                	li	s10,0
    800023ba:	cf01                	beqz	a4,800023d2 <bilateral_core+0x1d8>
    800023bc:	0ff30593          	addi	a1,t1,255
    800023c0:	00b406b3          	add	a3,s0,a1
    800023c4:	96c2                	add	a3,a3,a6
    800023c6:	8df5                	and	a1,a1,a3
    800023c8:	058e                	slli	a1,a1,0x3
    800023ca:	95aa                	add	a1,a1,a0
    800023cc:	6184                	ld	s1,0(a1)
    800023ce:	03063d03          	ld	s10,48(a2)
    800023d2:	4081                	li	ra,0
    800023d4:	20013823          	sd	zero,528(sp)
    800023d8:	00089b63          	bnez	a7,800023ee <bilateral_core+0x1f4>
    800023dc:	75ba                	ld	a1,424(sp)
    800023de:	95a2                	add	a1,a1,s0
    800023e0:	058e                	slli	a1,a1,0x3
    800023e2:	95aa                	add	a1,a1,a0
    800023e4:	0005b083          	ld	ra,0(a1)
    800023e8:	7e0c                	ld	a1,56(a2)
    800023ea:	20b13823          	sd	a1,528(sp)
    800023ee:	f782                	sd	zero,488(sp)
    800023f0:	ff82                	sd	zero,504(sp)
    800023f2:	4581                	li	a1,0
    800023f4:	4681                	li	a3,0
    800023f6:	02089863          	bnez	a7,80002426 <bilateral_core+0x22c>
    800023fa:	00146593          	ori	a1,s0,1
    800023fe:	95c2                	add	a1,a1,a6
    80002400:	0f130693          	addi	a3,t1,241
    80002404:	8df5                	and	a1,a1,a3
    80002406:	058e                	slli	a1,a1,0x3
    80002408:	95aa                	add	a1,a1,a0
    8000240a:	618c                	ld	a1,0(a1)
    8000240c:	ffae                	sd	a1,504(sp)
    8000240e:	622c                	ld	a1,64(a2)
    80002410:	f7ae                	sd	a1,488(sp)
    80002412:	00246593          	ori	a1,s0,2
    80002416:	95c2                	add	a1,a1,a6
    80002418:	0f230693          	addi	a3,t1,242
    8000241c:	8df5                	and	a1,a1,a3
    8000241e:	058e                	slli	a1,a1,0x3
    80002420:	95aa                	add	a1,a1,a0
    80002422:	618c                	ld	a1,0(a1)
    80002424:	6634                	ld	a3,72(a2)
    80002426:	eeae                	sd	a1,344(sp)
    80002428:	eab6                	sd	a3,336(sp)
    8000242a:	c80d                	beqz	s0,8000245c <bilateral_core+0x262>
    8000242c:	01b385b3          	add	a1,t2,s11
    80002430:	0fe30693          	addi	a3,t1,254
    80002434:	8df5                	and	a1,a1,a3
    80002436:	058e                	slli	a1,a1,0x3
    80002438:	95aa                	add	a1,a1,a0
    8000243a:	618c                	ld	a1,0(a1)
    8000243c:	f62e                	sd	a1,296(sp)
    8000243e:	6a2c                	ld	a1,80(a2)
    80002440:	f22e                	sd	a1,288(sp)
    80002442:	0ff30593          	addi	a1,t1,255
    80002446:	00b406b3          	add	a3,s0,a1
    8000244a:	969e                	add	a3,a3,t2
    8000244c:	8df5                	and	a1,a1,a3
    8000244e:	058e                	slli	a1,a1,0x3
    80002450:	95aa                	add	a1,a1,a0
    80002452:	618c                	ld	a1,0(a1)
    80002454:	ee2e                	sd	a1,280(sp)
    80002456:	6e2c                	ld	a1,88(a2)
    80002458:	ea2e                	sd	a1,272(sp)
    8000245a:	a029                	j	80002464 <bilateral_core+0x26a>
    8000245c:	f202                	sd	zero,288(sp)
    8000245e:	f602                	sd	zero,296(sp)
    80002460:	ee02                	sd	zero,280(sp)
    80002462:	ea02                	sd	zero,272(sp)
    80002464:	f3ba                	sd	a4,480(sp)
    80002466:	efda                	sd	s6,472(sp)
    80002468:	eb96                	sd	t0,464(sp)
    8000246a:	e7be                	sd	a5,456(sp)
    8000246c:	ff62                	sd	s8,440(sp)
    8000246e:	e726                	sd	s1,392(sp)
    80002470:	f2fa                	sd	t5,352(sp)
    80002472:	c811                	beqz	s0,80002486 <bilateral_core+0x28c>
    80002474:	01b905b3          	add	a1,s2,s11
    80002478:	058e                	slli	a1,a1,0x3
    8000247a:	95aa                	add	a1,a1,a0
    8000247c:	618c                	ld	a1,0(a1)
    8000247e:	e62e                	sd	a1,264(sp)
    80002480:	7e2c                	ld	a1,120(a2)
    80002482:	e22e                	sd	a1,256(sp)
    80002484:	a019                	j	8000248a <bilateral_core+0x290>
    80002486:	e602                	sd	zero,264(sp)
    80002488:	e202                	sd	zero,256(sp)
    8000248a:	007405b3          	add	a1,s0,t2
    8000248e:	26b13823          	sd	a1,624(sp)
    80002492:	00359893          	slli	a7,a1,0x3
    80002496:	011505b3          	add	a1,a0,a7
    8000249a:	ecae                	sd	a1,88(sp)
    8000249c:	0005bb03          	ld	s6,0(a1)
    800024a0:	06063803          	ld	a6,96(a2)
    800024a4:	00146593          	ori	a1,s0,1
    800024a8:	20b13423          	sd	a1,520(sp)
    800024ac:	00b38733          	add	a4,t2,a1
    800024b0:	00371293          	slli	t0,a4,0x3
    800024b4:	00550f33          	add	t5,a0,t0
    800024b8:	000f3303          	ld	t1,0(t5)
    800024bc:	06863c03          	ld	s8,104(a2)
    800024c0:	00246593          	ori	a1,s0,2
    800024c4:	22b13423          	sd	a1,552(sp)
    800024c8:	959e                	add	a1,a1,t2
    800024ca:	00359693          	slli	a3,a1,0x3
    800024ce:	00d504b3          	add	s1,a0,a3
    800024d2:	22913023          	sd	s1,544(sp)
    800024d6:	6084                	ld	s1,0(s1)
    800024d8:	7a3c                	ld	a5,112(a2)
    800024da:	e3ae                	sd	a1,448(sp)
    800024dc:	ef36                	sd	a3,408(sp)
    800024de:	f33a                	sd	a4,416(sp)
    800024e0:	e69a                	sd	t1,328(sp)
    800024e2:	e2e2                	sd	s8,320(sp)
    800024e4:	fe26                	sd	s1,312(sp)
    800024e6:	fa3e                	sd	a5,304(sp)
    800024e8:	84f6                	mv	s1,t4
    800024ea:	c811                	beqz	s0,800024fe <bilateral_core+0x304>
    800024ec:	012405b3          	add	a1,s0,s2
    800024f0:	058e                	slli	a1,a1,0x3
    800024f2:	95aa                	add	a1,a1,a0
    800024f4:	ff85b583          	ld	a1,-8(a1)
    800024f8:	fdae                	sd	a1,248(sp)
    800024fa:	624c                	ld	a1,128(a2)
    800024fc:	a019                	j	80002502 <bilateral_core+0x308>
    800024fe:	fd82                	sd	zero,248(sp)
    80002500:	4581                	li	a1,0
    80002502:	008906b3          	add	a3,s2,s0
    80002506:	068e                	slli	a3,a3,0x3
    80002508:	96aa                	add	a3,a3,a0
    8000250a:	fab6                	sd	a3,368(sp)
    8000250c:	0006be83          	ld	t4,0(a3)
    80002510:	08863383          	ld	t2,136(a2)
    80002514:	20813683          	ld	a3,520(sp)
    80002518:	96ca                	add	a3,a3,s2
    8000251a:	068e                	slli	a3,a3,0x3
    8000251c:	96aa                	add	a3,a3,a0
    8000251e:	20d13023          	sd	a3,512(sp)
    80002522:	6298                	ld	a4,0(a3)
    80002524:	09063303          	ld	t1,144(a2)
    80002528:	22813683          	ld	a3,552(sp)
    8000252c:	96ca                	add	a3,a3,s2
    8000252e:	068e                	slli	a3,a3,0x3
    80002530:	96aa                	add	a3,a3,a0
    80002532:	fbb6                	sd	a3,496(sp)
    80002534:	0006b903          	ld	s2,0(a3)
    80002538:	09863c03          	ld	s8,152(a2)
    8000253c:	26813c23          	sd	s0,632(sp)
    80002540:	fb46                	sd	a7,432(sp)
    80002542:	fefa                	sd	t5,376(sp)
    80002544:	cc09                	beqz	s0,8000255e <bilateral_core+0x364>
    80002546:	8466                	mv	s0,s9
    80002548:	24813883          	ld	a7,584(sp)
    8000254c:	01b886b3          	add	a3,a7,s11
    80002550:	068e                	slli	a3,a3,0x3
    80002552:	96aa                	add	a3,a3,a0
    80002554:	0006bf03          	ld	t5,0(a3)
    80002558:	0a063d83          	ld	s11,160(a2)
    8000255c:	a031                	j	80002568 <bilateral_core+0x36e>
    8000255e:	8466                	mv	s0,s9
    80002560:	4f01                	li	t5,0
    80002562:	4d81                	li	s11,0
    80002564:	24813883          	ld	a7,584(sp)
    80002568:	e356                	sd	s5,384(sp)
    8000256a:	27813c83          	ld	s9,632(sp)
    8000256e:	eb16                	sd	t0,400(sp)
    80002570:	000c8b63          	beqz	s9,80002586 <bilateral_core+0x38c>
    80002574:	011c86b3          	add	a3,s9,a7
    80002578:	068e                	slli	a3,a3,0x3
    8000257a:	96aa                	add	a3,a3,a0
    8000257c:	ff86ba83          	ld	s5,-8(a3)
    80002580:	0a863283          	ld	t0,168(a2)
    80002584:	a019                	j	8000258a <bilateral_core+0x390>
    80002586:	4a81                	li	s5,0
    80002588:	4281                	li	t0,0
    8000258a:	817a078b          	.insn	4, 0x817a078b
    8000258e:	7696                	ld	a3,352(sp)
    80002590:	61f6878b          	.insn	4, 0x61f6878b
    80002594:	76fa                	ld	a3,440(sp)
    80002596:	40d9878b          	.insn	4, 0x40d9878b
    8000259a:	66fe                	ld	a3,472(sp)
    8000259c:	20d4878b          	.insn	4, 0x20d4878b
    800025a0:	29013683          	ld	a3,656(sp)
    800025a4:	00db17fb          	.insn	4, 0x00db17fb
    800025a8:	00f789ab          	.insn	4, 0x00f789ab
    800025ac:	f20780d3          	fmv.d.x	ft1,a5
    800025b0:	21013783          	ld	a5,528(sp)
    800025b4:	84fd078b          	.insn	4, 0x84fd078b
    800025b8:	65c4078b          	.insn	4, 0x65c4078b
    800025bc:	67ba                	ld	a5,392(sp)
    800025be:	4417878b          	.insn	4, 0x4417878b
    800025c2:	67de                	ld	a5,464(sp)
    800025c4:	64be                	ld	s1,456(sp)
    800025c6:	2497878b          	.insn	4, 0x2497878b
    800025ca:	40db17fb          	.insn	4, 0x40db17fb
    800025ce:	04f78e2b          	.insn	4, 0x04f78e2b
    800025d2:	0200f0d3          	fadd.d	ft1,ft1,ft0
    800025d6:	f2078153          	fmv.d.x	ft2,a5
    800025da:	7792                	ld	a5,288(sp)
    800025dc:	64d2                	ld	s1,272(sp)
    800025de:	8897878b          	.insn	4, 0x8897878b
    800025e2:	77be                	ld	a5,488(sp)
    800025e4:	64d6                	ld	s1,336(sp)
    800025e6:	6897878b          	.insn	4, 0x6897878b
    800025ea:	77b2                	ld	a5,296(sp)
    800025ec:	64f2                	ld	s1,280(sp)
    800025ee:	4897878b          	.insn	4, 0x4897878b
    800025f2:	77fe                	ld	a5,504(sp)
    800025f4:	64f6                	ld	s1,344(sp)
    800025f6:	2897878b          	.insn	4, 0x2897878b
    800025fa:	80db147b          	.insn	4, 0x80db147b
    800025fe:	08840fab          	.insn	4, 0x08840fab
    80002602:	0220f0d3          	fadd.d	ft1,ft1,ft2
    80002606:	f2040153          	fmv.d.x	ft2,s0
    8000260a:	6792                	ld	a5,256(sp)
    8000260c:	7452                	ld	s0,304(sp)
    8000260e:	8cf4040b          	.insn	4, 0x8cf4040b
    80002612:	6796                	ld	a5,320(sp)
    80002614:	6cf8048b          	.insn	4, 0x6cf8048b
    80002618:	67b2                	ld	a5,264(sp)
    8000261a:	74f2                	ld	s1,312(sp)
    8000261c:	4cf4848b          	.insn	4, 0x4cf4848b
    80002620:	67b6                	ld	a5,328(sp)
    80002622:	2cfb048b          	.insn	4, 0x2cfb048b
    80002626:	c0db147b          	.insn	4, 0xc0db147b
    8000262a:	0c84082b          	.insn	4, 0x0c84082b
    8000262e:	0220f0d3          	fadd.d	ft1,ft1,ft2
    80002632:	f2040153          	fmv.d.x	ft2,s0
    80002636:	9d83040b          	.insn	4, 0x9d83040b
    8000263a:	7c75858b          	.insn	4, 0x7c75858b
    8000263e:	5d27058b          	.insn	4, 0x5d27058b
    80002642:	75ee                	ld	a1,248(sp)
    80002644:	3dd5858b          	.insn	4, 0x3dd5858b
    80002648:	c0db177b          	.insn	4, 0xc0db177b
    8000264c:	0220f0d3          	fadd.d	ft1,ft1,ft2
    80002650:	019885b3          	add	a1,a7,s9
    80002654:	058e                	slli	a1,a1,0x3
    80002656:	95aa                	add	a1,a1,a0
    80002658:	e2ae                	sd	a1,320(sp)
    8000265a:	6180                	ld	s0,0(a1)
    8000265c:	7a5c                	ld	a5,176(a2)
    8000265e:	20813583          	ld	a1,520(sp)
    80002662:	95c6                	add	a1,a1,a7
    80002664:	058e                	slli	a1,a1,0x3
    80002666:	95aa                	add	a1,a1,a0
    80002668:	ebae                	sd	a1,464(sp)
    8000266a:	6184                	ld	s1,0(a1)
    8000266c:	7e54                	ld	a3,184(a2)
    8000266e:	7c5d82db          	.insn	4, 0x7c5d82db
    80002672:	3d5f058b          	.insn	4, 0x3d5f058b
    80002676:	5c94058b          	.insn	4, 0x5c94058b
    8000267a:	d0d795fb          	.insn	4, 0xd0d795fb
    8000267e:	f2070153          	fmv.d.x	ft2,a4
    80002682:	0220f0d3          	fadd.d	ft1,ft1,ft2
    80002686:	27013683          	ld	a3,624(sp)
    8000268a:	20268693          	addi	a3,a3,514
    8000268e:	068e                	slli	a3,a3,0x3
    80002690:	96aa                	add	a3,a3,a0
    80002692:	6294                	ld	a3,0(a3)
    80002694:	6278                	ld	a4,192(a2)
    80002696:	f2058153          	fmv.d.x	ft2,a1
    8000269a:	3c0686db          	.insn	4, 0x3c0686db
    8000269e:	cc0715fb          	.insn	4, 0xcc0715fb
    800026a2:	1cb5872b          	.insn	4, 0x1cb5872b
    800026a6:	0220f0d3          	fadd.d	ft1,ft1,ft2
    800026aa:	f2058153          	fmv.d.x	ft2,a1
    800026ae:	0220f153          	fadd.d	ft2,ft1,ft2
    800026b2:	0000f597          	auipc	a1,0xf
    800026b6:	04e58593          	addi	a1,a1,78 # 80011700 <halF+0xe8>
    800026ba:	0005b087          	fld	ft1,0(a1)
    800026be:	a22095d3          	flt.d	a1,ft1,ft2
    800026c2:	c1a9                	beqz	a1,80002704 <bilateral_core+0x50a>
    800026c4:	f20981d3          	fmv.d.x	ft3,s3
    800026c8:	0201f1d3          	fadd.d	ft3,ft3,ft0
    800026cc:	f20e0253          	fmv.d.x	ft4,t3
    800026d0:	0241f1d3          	fadd.d	ft3,ft3,ft4
    800026d4:	f20f8253          	fmv.d.x	ft4,t6
    800026d8:	0241f1d3          	fadd.d	ft3,ft3,ft4
    800026dc:	f2080253          	fmv.d.x	ft4,a6
    800026e0:	0241f1d3          	fadd.d	ft3,ft3,ft4
    800026e4:	f2028253          	fmv.d.x	ft4,t0
    800026e8:	0241f1d3          	fadd.d	ft3,ft3,ft4
    800026ec:	f2068253          	fmv.d.x	ft4,a3
    800026f0:	0241f1d3          	fadd.d	ft3,ft3,ft4
    800026f4:	f2070253          	fmv.d.x	ft4,a4
    800026f8:	0241f1d3          	fadd.d	ft3,ft3,ft4
    800026fc:	1a21f153          	fdiv.d	ft2,ft3,ft2
    80002700:	e2010b53          	fmv.x.d	s6,ft2
    80002704:	4b81                	li	s7,0
    80002706:	28813583          	ld	a1,648(sp)
    8000270a:	76da                	ld	a3,432(sp)
    8000270c:	95b6                	add	a1,a1,a3
    8000270e:	0165b023          	sd	s6,0(a1)
    80002712:	75f6                	ld	a1,376(sp)
    80002714:	0005b303          	ld	t1,0(a1)
    80002718:	fffc8293          	addi	t0,s9,-1
    8000271c:	0192b5b3          	sltu	a1,t0,s9
    80002720:	76b6                	ld	a3,360(sp)
    80002722:	8df5                	and	a1,a1,a3
    80002724:	4e81                	li	t4,0
    80002726:	25813703          	ld	a4,600(sp)
    8000272a:	26013883          	ld	a7,608(sp)
    8000272e:	26813403          	ld	s0,616(sp)
    80002732:	23013783          	ld	a5,560(sp)
    80002736:	cd81                	beqz	a1,8000274e <bilateral_core+0x554>
    80002738:	005785b3          	add	a1,a5,t0
    8000273c:	0ff70693          	addi	a3,a4,255
    80002740:	8df5                	and	a1,a1,a3
    80002742:	058e                	slli	a1,a1,0x3
    80002744:	95aa                	add	a1,a1,a0
    80002746:	0005bb83          	ld	s7,0(a1)
    8000274a:	00063e83          	ld	t4,0(a2)
    8000274e:	4981                	li	s3,0
    80002750:	4901                	li	s2,0
    80002752:	4d01                	li	s10,0
    80002754:	4f81                	li	t6,0
    80002756:	4a01                	li	s4,0
    80002758:	4a81                	li	s5,0
    8000275a:	23813803          	ld	a6,568(sp)
    8000275e:	e039                	bnez	s0,800027a4 <bilateral_core+0x5aa>
    80002760:	019785b3          	add	a1,a5,s9
    80002764:	0f070693          	addi	a3,a4,240
    80002768:	8df5                	and	a1,a1,a3
    8000276a:	058e                	slli	a1,a1,0x3
    8000276c:	95aa                	add	a1,a1,a0
    8000276e:	0005bd03          	ld	s10,0(a1)
    80002772:	00863f83          	ld	t6,8(a2)
    80002776:	21813583          	ld	a1,536(sp)
    8000277a:	20813683          	ld	a3,520(sp)
    8000277e:	95b6                	add	a1,a1,a3
    80002780:	058e                	slli	a1,a1,0x3
    80002782:	95aa                	add	a1,a1,a0
    80002784:	0005b903          	ld	s2,0(a1)
    80002788:	01063983          	ld	s3,16(a2)
    8000278c:	22813583          	ld	a1,552(sp)
    80002790:	95be                	add	a1,a1,a5
    80002792:	0f270693          	addi	a3,a4,242
    80002796:	8df5                	and	a1,a1,a3
    80002798:	058e                	slli	a1,a1,0x3
    8000279a:	95aa                	add	a1,a1,a0
    8000279c:	0005ba03          	ld	s4,0(a1)
    800027a0:	01863a83          	ld	s5,24(a2)
    800027a4:	4e01                	li	t3,0
    800027a6:	4b01                	li	s6,0
    800027a8:	ec09                	bnez	s0,800027c2 <bilateral_core+0x5c8>
    800027aa:	003ce593          	ori	a1,s9,3
    800027ae:	95be                	add	a1,a1,a5
    800027b0:	0f370693          	addi	a3,a4,243
    800027b4:	8df5                	and	a1,a1,a3
    800027b6:	058e                	slli	a1,a1,0x3
    800027b8:	95aa                	add	a1,a1,a0
    800027ba:	0005be03          	ld	t3,0(a1)
    800027be:	02063b03          	ld	s6,32(a2)
    800027c2:	4f01                	li	t5,0
    800027c4:	4c01                	li	s8,0
    800027c6:	759e                	ld	a1,480(sp)
    800027c8:	cd81                	beqz	a1,800027e0 <bilateral_core+0x5e6>
    800027ca:	005805b3          	add	a1,a6,t0
    800027ce:	0ff70693          	addi	a3,a4,255
    800027d2:	8df5                	and	a1,a1,a3
    800027d4:	058e                	slli	a1,a1,0x3
    800027d6:	95aa                	add	a1,a1,a0
    800027d8:	0005bf03          	ld	t5,0(a1)
    800027dc:	02863c03          	ld	s8,40(a2)
    800027e0:	4d81                	li	s11,0
    800027e2:	4381                	li	t2,0
    800027e4:	4081                	li	ra,0
    800027e6:	f382                	sd	zero,480(sp)
    800027e8:	25013403          	ld	s0,592(sp)
    800027ec:	e415                	bnez	s0,80002818 <bilateral_core+0x61e>
    800027ee:	019805b3          	add	a1,a6,s9
    800027f2:	0f070693          	addi	a3,a4,240
    800027f6:	8df5                	and	a1,a1,a3
    800027f8:	058e                	slli	a1,a1,0x3
    800027fa:	95aa                	add	a1,a1,a0
    800027fc:	0005b383          	ld	t2,0(a1)
    80002800:	03063d83          	ld	s11,48(a2)
    80002804:	75ba                	ld	a1,424(sp)
    80002806:	20813683          	ld	a3,520(sp)
    8000280a:	95b6                	add	a1,a1,a3
    8000280c:	058e                	slli	a1,a1,0x3
    8000280e:	95aa                	add	a1,a1,a0
    80002810:	0005b083          	ld	ra,0(a1)
    80002814:	7e0c                	ld	a1,56(a2)
    80002816:	f3ae                	sd	a1,480(sp)
    80002818:	e782                	sd	zero,456(sp)
    8000281a:	ef82                	sd	zero,472(sp)
    8000281c:	4581                	li	a1,0
    8000281e:	4681                	li	a3,0
    80002820:	e41d                	bnez	s0,8000284e <bilateral_core+0x654>
    80002822:	22813583          	ld	a1,552(sp)
    80002826:	95c2                	add	a1,a1,a6
    80002828:	0f270693          	addi	a3,a4,242
    8000282c:	8df5                	and	a1,a1,a3
    8000282e:	058e                	slli	a1,a1,0x3
    80002830:	95aa                	add	a1,a1,a0
    80002832:	618c                	ld	a1,0(a1)
    80002834:	efae                	sd	a1,472(sp)
    80002836:	622c                	ld	a1,64(a2)
    80002838:	e7ae                	sd	a1,456(sp)
    8000283a:	003ce593          	ori	a1,s9,3
    8000283e:	95c2                	add	a1,a1,a6
    80002840:	0f370693          	addi	a3,a4,243
    80002844:	8df5                	and	a1,a1,a3
    80002846:	058e                	slli	a1,a1,0x3
    80002848:	95aa                	add	a1,a1,a0
    8000284a:	618c                	ld	a1,0(a1)
    8000284c:	6634                	ld	a3,72(a2)
    8000284e:	fb6a                	sd	s10,432(sp)
    80002850:	eede                	sd	s7,344(sp)
    80002852:	eaf2                	sd	t3,336(sp)
    80002854:	e6ca                	sd	s2,328(sp)
    80002856:	fe76                	sd	t4,312(sp)
    80002858:	fa4e                	sd	s3,304(sp)
    8000285a:	f62e                	sd	a1,296(sp)
    8000285c:	8836                	mv	a6,a3
    8000285e:	000c8e63          	beqz	s9,8000287a <bilateral_core+0x680>
    80002862:	005885b3          	add	a1,a7,t0
    80002866:	0ff70693          	addi	a3,a4,255
    8000286a:	8df5                	and	a1,a1,a3
    8000286c:	058e                	slli	a1,a1,0x3
    8000286e:	95aa                	add	a1,a1,a0
    80002870:	618c                	ld	a1,0(a1)
    80002872:	f9ae                	sd	a1,240(sp)
    80002874:	6a2c                	ld	a1,80(a2)
    80002876:	f5ae                	sd	a1,232(sp)
    80002878:	a019                	j	8000287e <bilateral_core+0x684>
    8000287a:	f982                	sd	zero,240(sp)
    8000287c:	f582                	sd	zero,232(sp)
    8000287e:	24813783          	ld	a5,584(sp)
    80002882:	0f070593          	addi	a1,a4,240
    80002886:	20b13823          	sd	a1,528(sp)
    8000288a:	27013683          	ld	a3,624(sp)
    8000288e:	8df5                	and	a1,a1,a3
    80002890:	058e                	slli	a1,a1,0x3
    80002892:	00b50433          	add	s0,a0,a1
    80002896:	00043983          	ld	s3,0(s0)
    8000289a:	05863b83          	ld	s7,88(a2)
    8000289e:	06063e03          	ld	t3,96(a2)
    800028a2:	22013583          	ld	a1,544(sp)
    800028a6:	0005b903          	ld	s2,0(a1)
    800028aa:	06863e83          	ld	t4,104(a2)
    800028ae:	003ce593          	ori	a1,s9,3
    800028b2:	ffae                	sd	a1,504(sp)
    800028b4:	95c6                	add	a1,a1,a7
    800028b6:	00359693          	slli	a3,a1,0x3
    800028ba:	00d50733          	add	a4,a0,a3
    800028be:	00073883          	ld	a7,0(a4)
    800028c2:	7a24                	ld	s1,112(a2)
    800028c4:	ff2e                	sd	a1,440(sp)
    800028c6:	e736                	sd	a3,392(sp)
    800028c8:	f2ba                	sd	a4,352(sp)
    800028ca:	fea2                	sd	s0,376(sp)
    800028cc:	f24a                	sd	s2,288(sp)
    800028ce:	ee72                	sd	t3,280(sp)
    800028d0:	ea46                	sd	a7,272(sp)
    800028d2:	e64e                	sd	s3,264(sp)
    800028d4:	e226                	sd	s1,256(sp)
    800028d6:	fdde                	sd	s7,248(sp)
    800028d8:	000c8e63          	beqz	s9,800028f4 <bilateral_core+0x6fa>
    800028dc:	8c9e                	mv	s9,t2
    800028de:	24013703          	ld	a4,576(sp)
    800028e2:	005705b3          	add	a1,a4,t0
    800028e6:	058e                	slli	a1,a1,0x3
    800028e8:	95aa                	add	a1,a1,a0
    800028ea:	618c                	ld	a1,0(a1)
    800028ec:	f1ae                	sd	a1,224(sp)
    800028ee:	07863883          	ld	a7,120(a2)
    800028f2:	a031                	j	800028fe <bilateral_core+0x704>
    800028f4:	8c9e                	mv	s9,t2
    800028f6:	f182                	sd	zero,224(sp)
    800028f8:	4881                	li	a7,0
    800028fa:	24013703          	ld	a4,576(sp)
    800028fe:	86c2                	mv	a3,a6
    80002900:	75d6                	ld	a1,368(sp)
    80002902:	0005be03          	ld	t3,0(a1)
    80002906:	08063903          	ld	s2,128(a2)
    8000290a:	20013583          	ld	a1,512(sp)
    8000290e:	0005bd03          	ld	s10,0(a1)
    80002912:	08863803          	ld	a6,136(a2)
    80002916:	75de                	ld	a1,496(sp)
    80002918:	0005bb83          	ld	s7,0(a1)
    8000291c:	09063983          	ld	s3,144(a2)
    80002920:	75fe                	ld	a1,504(sp)
    80002922:	95ba                	add	a1,a1,a4
    80002924:	058e                	slli	a1,a1,0x3
    80002926:	95aa                	add	a1,a1,a0
    80002928:	f7ae                	sd	a1,488(sp)
    8000292a:	0005b383          	ld	t2,0(a1)
    8000292e:	6e4c                	ld	a1,152(a2)
    80002930:	27813703          	ld	a4,632(sp)
    80002934:	cb11                	beqz	a4,80002948 <bilateral_core+0x74e>
    80002936:	005784b3          	add	s1,a5,t0
    8000293a:	048e                	slli	s1,s1,0x3
    8000293c:	94aa                	add	s1,s1,a0
    8000293e:	6098                	ld	a4,0(s1)
    80002940:	edba                	sd	a4,216(sp)
    80002942:	7258                	ld	a4,160(a2)
    80002944:	e9ba                	sd	a4,208(sp)
    80002946:	a019                	j	8000294c <bilateral_core+0x752>
    80002948:	ed82                	sd	zero,216(sp)
    8000294a:	e982                	sd	zero,208(sp)
    8000294c:	7752                	ld	a4,304(sp)
    8000294e:	8157028b          	.insn	4, 0x8157028b
    80002952:	7772                	ld	a4,312(sp)
    80002954:	61f7070b          	.insn	4, 0x61f7070b
    80002958:	6736                	ld	a4,328(sp)
    8000295a:	4147070b          	.insn	4, 0x4147070b
    8000295e:	775a                	ld	a4,432(sp)
    80002960:	64f6                	ld	s1,344(sp)
    80002962:	20e4870b          	.insn	4, 0x20e4870b
    80002966:	29013483          	ld	s1,656(sp)
    8000296a:	0093177b          	.insn	4, 0x0093177b
    8000296e:	00e70fab          	.insn	4, 0x00e70fab
    80002972:	f2070153          	fmv.d.x	ft2,a4
    80002976:	771e                	ld	a4,480(sp)
    80002978:	84ed870b          	.insn	4, 0x84ed870b
    8000297c:	658b070b          	.insn	4, 0x658b070b
    80002980:	441c870b          	.insn	4, 0x441c870b
    80002984:	6756                	ld	a4,336(sp)
    80002986:	25e7070b          	.insn	4, 0x25e7070b
    8000298a:	4093177b          	.insn	4, 0x4093177b
    8000298e:	04e70a2b          	.insn	4, 0x04e70a2b
    80002992:	02017153          	fadd.d	ft2,ft2,ft0
    80002996:	f20701d3          	fmv.d.x	ft3,a4
    8000299a:	772e                	ld	a4,232(sp)
    8000299c:	746e                	ld	s0,248(sp)
    8000299e:	8887070b          	.insn	4, 0x8887070b
    800029a2:	673e                	ld	a4,456(sp)
    800029a4:	68d7070b          	.insn	4, 0x68d7070b
    800029a8:	76ce                	ld	a3,240(sp)
    800029aa:	6732                	ld	a4,264(sp)
    800029ac:	48e6870b          	.insn	4, 0x48e6870b
    800029b0:	677e                	ld	a4,472(sp)
    800029b2:	76b2                	ld	a3,296(sp)
    800029b4:	28d7070b          	.insn	4, 0x28d7070b
    800029b8:	8093177b          	.insn	4, 0x8093177b
    800029bc:	08e702ab          	.insn	4, 0x08e702ab
    800029c0:	02317153          	fadd.d	ft2,ft2,ft3
    800029c4:	f20701d3          	fmv.d.x	ft3,a4
    800029c8:	6692                	ld	a3,256(sp)
    800029ca:	8d16870b          	.insn	4, 0x8d16870b
    800029ce:	66f2                	ld	a3,280(sp)
    800029d0:	6dd6870b          	.insn	4, 0x6dd6870b
    800029d4:	66d2                	ld	a3,272(sp)
    800029d6:	770e                	ld	a4,224(sp)
    800029d8:	4ce6868b          	.insn	4, 0x4ce6868b
    800029dc:	7692                	ld	a3,288(sp)
    800029de:	2cd3068b          	.insn	4, 0x2cd3068b
    800029e2:	c093177b          	.insn	4, 0xc093177b
    800029e6:	0ce70f2b          	.insn	4, 0x0ce70f2b
    800029ea:	02317153          	fadd.d	ft2,ft2,ft3
    800029ee:	f20701d3          	fmv.d.x	ft3,a4
    800029f2:	02317153          	fadd.d	ft2,ft2,ft3
    800029f6:	9cb9858b          	.insn	4, 0x9cb9858b
    800029fa:	7d09058b          	.insn	4, 0x7d09058b
    800029fe:	5c7b858b          	.insn	4, 0x5c7b858b
    80002a02:	3dae058b          	.insn	4, 0x3dae058b
    80002a06:	c09318fb          	.insn	4, 0xc09318fb
    80002a0a:	6916                	ld	s2,320(sp)
    80002a0c:	00093803          	ld	a6,0(s2)
    80002a10:	7640                	ld	s0,168(a2)
    80002a12:	66de                	ld	a3,464(sp)
    80002a14:	6294                	ld	a3,0(a3)
    80002a16:	7a44                	ld	s1,176(a2)
    80002a18:	22813703          	ld	a4,552(sp)
    80002a1c:	97ba                	add	a5,a5,a4
    80002a1e:	078e                	slli	a5,a5,0x3
    80002a20:	00f50733          	add	a4,a0,a5
    80002a24:	fb3a                	sd	a4,432(sp)
    80002a26:	631c                	ld	a5,0(a4)
    80002a28:	7e58                	ld	a4,184(a2)
    80002a2a:	65ee                	ld	a1,216(sp)
    80002a2c:	3d05885b          	.insn	4, 0x3d05885b
    80002a30:	65ce                	ld	a1,208(sp)
    80002a32:	7c85840b          	.insn	4, 0x7c85840b
    80002a36:	5cf6868b          	.insn	4, 0x5cf6868b
    80002a3a:	d0e496fb          	.insn	4, 0xd0e496fb
    80002a3e:	f20881d3          	fmv.d.x	ft3,a7
    80002a42:	02317153          	fadd.d	ft2,ft2,ft3
    80002a46:	27013703          	ld	a4,624(sp)
    80002a4a:	20370713          	addi	a4,a4,515
    80002a4e:	070e                	slli	a4,a4,0x3
    80002a50:	972a                	add	a4,a4,a0
    80002a52:	6318                	ld	a4,0(a4)
    80002a54:	627c                	ld	a5,192(a2)
    80002a56:	f20681d3          	fmv.d.x	ft3,a3
    80002a5a:	3c0704db          	.insn	4, 0x3c0704db
    80002a5e:	cc0796fb          	.insn	4, 0xcc0796fb
    80002a62:	1cd6842b          	.insn	4, 0x1cd6842b
    80002a66:	02317153          	fadd.d	ft2,ft2,ft3
    80002a6a:	f20681d3          	fmv.d.x	ft3,a3
    80002a6e:	02317153          	fadd.d	ft2,ft2,ft3
    80002a72:	a22096d3          	flt.d	a3,ft1,ft2
    80002a76:	c2a9                	beqz	a3,80002ab8 <bilateral_core+0x8be>
    80002a78:	f20f81d3          	fmv.d.x	ft3,t6
    80002a7c:	0201f1d3          	fadd.d	ft3,ft3,ft0
    80002a80:	f20a0253          	fmv.d.x	ft4,s4
    80002a84:	0241f1d3          	fadd.d	ft3,ft3,ft4
    80002a88:	f2028253          	fmv.d.x	ft4,t0
    80002a8c:	0241f1d3          	fadd.d	ft3,ft3,ft4
    80002a90:	f20f0253          	fmv.d.x	ft4,t5
    80002a94:	0241f1d3          	fadd.d	ft3,ft3,ft4
    80002a98:	f2080253          	fmv.d.x	ft4,a6
    80002a9c:	0241f1d3          	fadd.d	ft3,ft3,ft4
    80002aa0:	f2048253          	fmv.d.x	ft4,s1
    80002aa4:	0241f1d3          	fadd.d	ft3,ft3,ft4
    80002aa8:	f2040253          	fmv.d.x	ft4,s0
    80002aac:	0241f1d3          	fadd.d	ft3,ft3,ft4
    80002ab0:	1a21f153          	fdiv.d	ft2,ft3,ft2
    80002ab4:	e2010353          	fmv.x.d	t1,ft2
    80002ab8:	4881                	li	a7,0
    80002aba:	4381                	li	t2,0
    80002abc:	4281                	li	t0,0
    80002abe:	4801                	li	a6,0
    80002ac0:	4c81                	li	s9,0
    80002ac2:	4e01                	li	t3,0
    80002ac4:	4e81                	li	t4,0
    80002ac6:	28813583          	ld	a1,648(sp)
    80002aca:	66da                	ld	a3,400(sp)
    80002acc:	95b6                	add	a1,a1,a3
    80002ace:	0065b023          	sd	t1,0(a1)
    80002ad2:	22013583          	ld	a1,544(sp)
    80002ad6:	0005bd83          	ld	s11,0(a1)
    80002ada:	4f01                	li	t5,0
    80002adc:	25813083          	ld	ra,600(sp)
    80002ae0:	27813703          	ld	a4,632(sp)
    80002ae4:	26813783          	ld	a5,616(sp)
    80002ae8:	e3a5                	bnez	a5,80002b48 <bilateral_core+0x94e>
    80002aea:	23013483          	ld	s1,560(sp)
    80002aee:	00e485b3          	add	a1,s1,a4
    80002af2:	21013683          	ld	a3,528(sp)
    80002af6:	8df5                	and	a1,a1,a3
    80002af8:	058e                	slli	a1,a1,0x3
    80002afa:	95aa                	add	a1,a1,a0
    80002afc:	0005b803          	ld	a6,0(a1)
    80002b00:	00063283          	ld	t0,0(a2)
    80002b04:	20813583          	ld	a1,520(sp)
    80002b08:	95a6                	add	a1,a1,s1
    80002b0a:	0f108693          	addi	a3,ra,241
    80002b0e:	8df5                	and	a1,a1,a3
    80002b10:	058e                	slli	a1,a1,0x3
    80002b12:	95aa                	add	a1,a1,a0
    80002b14:	0005bc83          	ld	s9,0(a1)
    80002b18:	00863e03          	ld	t3,8(a2)
    80002b1c:	21813583          	ld	a1,536(sp)
    80002b20:	22813683          	ld	a3,552(sp)
    80002b24:	95b6                	add	a1,a1,a3
    80002b26:	058e                	slli	a1,a1,0x3
    80002b28:	95aa                	add	a1,a1,a0
    80002b2a:	0005b383          	ld	t2,0(a1)
    80002b2e:	01063883          	ld	a7,16(a2)
    80002b32:	75fe                	ld	a1,504(sp)
    80002b34:	95a6                	add	a1,a1,s1
    80002b36:	0f308693          	addi	a3,ra,243
    80002b3a:	8df5                	and	a1,a1,a3
    80002b3c:	058e                	slli	a1,a1,0x3
    80002b3e:	95aa                	add	a1,a1,a0
    80002b40:	0005be83          	ld	t4,0(a1)
    80002b44:	01863f03          	ld	t5,24(a2)
    80002b48:	4f81                	li	t6,0
    80002b4a:	4981                	li	s3,0
    80002b4c:	ef99                	bnez	a5,80002b6a <bilateral_core+0x970>
    80002b4e:	00476593          	ori	a1,a4,4
    80002b52:	23013683          	ld	a3,560(sp)
    80002b56:	95b6                	add	a1,a1,a3
    80002b58:	0f408693          	addi	a3,ra,244
    80002b5c:	8df5                	and	a1,a1,a3
    80002b5e:	058e                	slli	a1,a1,0x3
    80002b60:	95aa                	add	a1,a1,a0
    80002b62:	0005bf83          	ld	t6,0(a1)
    80002b66:	02063983          	ld	s3,32(a2)
    80002b6a:	4b81                	li	s7,0
    80002b6c:	4b01                	li	s6,0
    80002b6e:	4a01                	li	s4,0
    80002b70:	4a81                	li	s5,0
    80002b72:	4481                	li	s1,0
    80002b74:	4401                	li	s0,0
    80002b76:	25013783          	ld	a5,592(sp)
    80002b7a:	e3b9                	bnez	a5,80002bc0 <bilateral_core+0x9c6>
    80002b7c:	23813703          	ld	a4,568(sp)
    80002b80:	27813583          	ld	a1,632(sp)
    80002b84:	95ba                	add	a1,a1,a4
    80002b86:	21013683          	ld	a3,528(sp)
    80002b8a:	8df5                	and	a1,a1,a3
    80002b8c:	058e                	slli	a1,a1,0x3
    80002b8e:	95aa                	add	a1,a1,a0
    80002b90:	0005ba03          	ld	s4,0(a1)
    80002b94:	02863a83          	ld	s5,40(a2)
    80002b98:	20813583          	ld	a1,520(sp)
    80002b9c:	95ba                	add	a1,a1,a4
    80002b9e:	0f108693          	addi	a3,ra,241
    80002ba2:	8df5                	and	a1,a1,a3
    80002ba4:	058e                	slli	a1,a1,0x3
    80002ba6:	95aa                	add	a1,a1,a0
    80002ba8:	0005bb03          	ld	s6,0(a1)
    80002bac:	03063b83          	ld	s7,48(a2)
    80002bb0:	75ba                	ld	a1,424(sp)
    80002bb2:	22813683          	ld	a3,552(sp)
    80002bb6:	95b6                	add	a1,a1,a3
    80002bb8:	058e                	slli	a1,a1,0x3
    80002bba:	95aa                	add	a1,a1,a0
    80002bbc:	6184                	ld	s1,0(a1)
    80002bbe:	7e00                	ld	s0,56(a2)
    80002bc0:	4d01                	li	s10,0
    80002bc2:	4c01                	li	s8,0
    80002bc4:	4581                	li	a1,0
    80002bc6:	4701                	li	a4,0
    80002bc8:	eb95                	bnez	a5,80002bfc <bilateral_core+0xa02>
    80002bca:	23813703          	ld	a4,568(sp)
    80002bce:	75fe                	ld	a1,504(sp)
    80002bd0:	95ba                	add	a1,a1,a4
    80002bd2:	0f308693          	addi	a3,ra,243
    80002bd6:	8df5                	and	a1,a1,a3
    80002bd8:	058e                	slli	a1,a1,0x3
    80002bda:	95aa                	add	a1,a1,a0
    80002bdc:	0005bc03          	ld	s8,0(a1)
    80002be0:	04063d03          	ld	s10,64(a2)
    80002be4:	27813583          	ld	a1,632(sp)
    80002be8:	0045e593          	ori	a1,a1,4
    80002bec:	95ba                	add	a1,a1,a4
    80002bee:	0f408713          	addi	a4,ra,244
    80002bf2:	8df9                	and	a1,a1,a4
    80002bf4:	058e                	slli	a1,a1,0x3
    80002bf6:	95aa                	add	a1,a1,a0
    80002bf8:	618c                	ld	a1,0(a1)
    80002bfa:	6638                	ld	a4,72(a2)
    80002bfc:	81e8868b          	.insn	4, 0x81e8868b
    80002c00:	61c2868b          	.insn	4, 0x61c2868b
    80002c04:	41d3868b          	.insn	4, 0x41d3868b
    80002c08:	2198068b          	.insn	4, 0x2198068b
    80002c0c:	29013783          	ld	a5,656(sp)
    80002c10:	00fd96fb          	.insn	4, 0x00fd96fb
    80002c14:	00d688ab          	.insn	4, 0x00d688ab
    80002c18:	848b840b          	.insn	4, 0x848b840b
    80002c1c:	6559840b          	.insn	4, 0x6559840b
    80002c20:	449b048b          	.insn	4, 0x449b048b
    80002c24:	254f848b          	.insn	4, 0x254f848b
    80002c28:	40fd94fb          	.insn	4, 0x40fd94fb
    80002c2c:	0494832b          	.insn	4, 0x0494832b
    80002c30:	f2068153          	fmv.d.x	ft2,a3
    80002c34:	02017153          	fadd.d	ft2,ft2,ft0
    80002c38:	f20481d3          	fmv.d.x	ft3,s1
    80002c3c:	76f6                	ld	a3,376(sp)
    80002c3e:	0006b803          	ld	a6,0(a3)
    80002c42:	6a24                	ld	s1,80(a2)
    80002c44:	0f108693          	addi	a3,ra,241
    80002c48:	22d13023          	sd	a3,544(sp)
    80002c4c:	741a                	ld	s0,416(sp)
    80002c4e:	8c75                	and	s0,s0,a3
    80002c50:	040e                	slli	s0,s0,0x3
    80002c52:	008502b3          	add	t0,a0,s0
    80002c56:	0002b403          	ld	s0,0(t0)
    80002c5a:	6e34                	ld	a3,88(a2)
    80002c5c:	02317153          	fadd.d	ft2,ft2,ft3
    80002c60:	68ed070b          	.insn	4, 0x68ed070b
    80002c64:	28bc058b          	.insn	4, 0x28bc058b
    80002c68:	08fd858b          	.insn	4, 0x08fd858b
    80002c6c:	4888058b          	.insn	4, 0x4888058b
    80002c70:	90d496fb          	.insn	4, 0x90d496fb
    80002c74:	08d683ab          	.insn	4, 0x08d683ab
    80002c78:	06063e03          	ld	t3,96(a2)
    80002c7c:	7a96                	ld	s5,352(sp)
    80002c7e:	000abf03          	ld	t5,0(s5)
    80002c82:	06863f83          	ld	t6,104(a2)
    80002c86:	27813583          	ld	a1,632(sp)
    80002c8a:	0045e413          	ori	s0,a1,4
    80002c8e:	26013583          	ld	a1,608(sp)
    80002c92:	95a2                	add	a1,a1,s0
    80002c94:	eb2e                	sd	a1,400(sp)
    80002c96:	058e                	slli	a1,a1,0x3
    80002c98:	feae                	sd	a1,376(sp)
    80002c9a:	00b50833          	add	a6,a0,a1
    80002c9e:	00083983          	ld	s3,0(a6)
    80002ca2:	07063e83          	ld	t4,112(a2)
    80002ca6:	75d6                	ld	a1,368(sp)
    80002ca8:	618c                	ld	a1,0(a1)
    80002caa:	7e38                	ld	a4,120(a2)
    80002cac:	0cfd848b          	.insn	4, 0x0cfd848b
    80002cb0:	2ded848b          	.insn	4, 0x2ded848b
    80002cb4:	6dfe048b          	.insn	4, 0x6dfe048b
    80002cb8:	4cb9858b          	.insn	4, 0x4cb9858b
    80002cbc:	d0ee977b          	.insn	4, 0xd0ee977b
    80002cc0:	0ce70e2b          	.insn	4, 0x0ce70e2b
    80002cc4:	f20681d3          	fmv.d.x	ft3,a3
    80002cc8:	02317153          	fadd.d	ft2,ft2,ft3
    80002ccc:	f20701d3          	fmv.d.x	ft3,a4
    80002cd0:	20013583          	ld	a1,512(sp)
    80002cd4:	0005bf03          	ld	t5,0(a1)
    80002cd8:	08063f83          	ld	t6,128(a2)
    80002cdc:	75de                	ld	a1,496(sp)
    80002cde:	0005be83          	ld	t4,0(a1)
    80002ce2:	6644                	ld	s1,136(a2)
    80002ce4:	75be                	ld	a1,488(sp)
    80002ce6:	0005ba03          	ld	s4,0(a1)
    80002cea:	09063983          	ld	s3,144(a2)
    80002cee:	24013583          	ld	a1,576(sp)
    80002cf2:	e7a2                	sd	s0,456(sp)
    80002cf4:	008586b3          	add	a3,a1,s0
    80002cf8:	068e                	slli	a3,a3,0x3
    80002cfa:	00d505b3          	add	a1,a0,a3
    80002cfe:	f3ae                	sd	a1,480(sp)
    80002d00:	6194                	ld	a3,0(a1)
    80002d02:	6e58                	ld	a4,152(a2)
    80002d04:	02317153          	fadd.d	ft2,ft2,ft3
    80002d08:	1cfd858b          	.insn	4, 0x1cfd858b
    80002d0c:	3ddf058b          	.insn	4, 0x3ddf058b
    80002d10:	7c9f858b          	.insn	4, 0x7c9f858b
    80002d14:	5cda058b          	.insn	4, 0x5cda058b
    80002d18:	d0e99f7b          	.insn	4, 0xd0e99f7b
    80002d1c:	00093f83          	ld	t6,0(s2)
    80002d20:	0a063983          	ld	s3,160(a2)
    80002d24:	65de                	ld	a1,464(sp)
    80002d26:	619c                	ld	a5,0(a1)
    80002d28:	7644                	ld	s1,168(a2)
    80002d2a:	75da                	ld	a1,432(sp)
    80002d2c:	6180                	ld	s0,0(a1)
    80002d2e:	7a4c                	ld	a1,176(a2)
    80002d30:	24813683          	ld	a3,584(sp)
    80002d34:	777e                	ld	a4,504(sp)
    80002d36:	96ba                	add	a3,a3,a4
    80002d38:	068e                	slli	a3,a3,0x3
    80002d3a:	96aa                	add	a3,a3,a0
    80002d3c:	f336                	sd	a3,416(sp)
    80002d3e:	6294                	ld	a3,0(a3)
    80002d40:	7e58                	ld	a4,184(a2)
    80002d42:	3cff87db          	.insn	4, 0x3cff87db
    80002d46:	7c99848b          	.insn	4, 0x7c99848b
    80002d4a:	5cd4068b          	.insn	4, 0x5cd4068b
    80002d4e:	d0e595fb          	.insn	4, 0xd0e595fb
    80002d52:	f20f01d3          	fmv.d.x	ft3,t5
    80002d56:	02317153          	fadd.d	ft2,ft2,ft3
    80002d5a:	27013683          	ld	a3,624(sp)
    80002d5e:	20468693          	addi	a3,a3,516
    80002d62:	068e                	slli	a3,a3,0x3
    80002d64:	96aa                	add	a3,a3,a0
    80002d66:	6294                	ld	a3,0(a3)
    80002d68:	6278                	ld	a4,192(a2)
    80002d6a:	f20581d3          	fmv.d.x	ft3,a1
    80002d6e:	3c06845b          	.insn	4, 0x3c06845b
    80002d72:	cc0715fb          	.insn	4, 0xcc0715fb
    80002d76:	1cb584ab          	.insn	4, 0x1cb584ab
    80002d7a:	02317153          	fadd.d	ft2,ft2,ft3
    80002d7e:	f20581d3          	fmv.d.x	ft3,a1
    80002d82:	02317153          	fadd.d	ft2,ft2,ft3
    80002d86:	a22095d3          	flt.d	a1,ft1,ft2
    80002d8a:	c1a9                	beqz	a1,80002dcc <bilateral_core+0xbd2>
    80002d8c:	f20881d3          	fmv.d.x	ft3,a7
    80002d90:	0201f1d3          	fadd.d	ft3,ft3,ft0
    80002d94:	f2030253          	fmv.d.x	ft4,t1
    80002d98:	0241f1d3          	fadd.d	ft3,ft3,ft4
    80002d9c:	f2038253          	fmv.d.x	ft4,t2
    80002da0:	0241f1d3          	fadd.d	ft3,ft3,ft4
    80002da4:	f20e0253          	fmv.d.x	ft4,t3
    80002da8:	0241f1d3          	fadd.d	ft3,ft3,ft4
    80002dac:	f2078253          	fmv.d.x	ft4,a5
    80002db0:	0241f1d3          	fadd.d	ft3,ft3,ft4
    80002db4:	f2040253          	fmv.d.x	ft4,s0
    80002db8:	0241f1d3          	fadd.d	ft3,ft3,ft4
    80002dbc:	f2048253          	fmv.d.x	ft4,s1
    80002dc0:	0241f1d3          	fadd.d	ft3,ft3,ft4
    80002dc4:	1a21f153          	fdiv.d	ft2,ft3,ft2
    80002dc8:	e2010dd3          	fmv.x.d	s11,ft2
    80002dcc:	4881                	li	a7,0
    80002dce:	4f81                	li	t6,0
    80002dd0:	4381                	li	t2,0
    80002dd2:	4301                	li	t1,0
    80002dd4:	4f01                	li	t5,0
    80002dd6:	4981                	li	s3,0
    80002dd8:	4a01                	li	s4,0
    80002dda:	28813583          	ld	a1,648(sp)
    80002dde:	66fa                	ld	a3,408(sp)
    80002de0:	95b6                	add	a1,a1,a3
    80002de2:	01b5b023          	sd	s11,0(a1)
    80002de6:	000ab903          	ld	s2,0(s5)
    80002dea:	4a81                	li	s5,0
    80002dec:	26813703          	ld	a4,616(sp)
    80002df0:	e325                	bnez	a4,80002e50 <bilateral_core+0xc56>
    80002df2:	23013783          	ld	a5,560(sp)
    80002df6:	20813583          	ld	a1,520(sp)
    80002dfa:	95be                	add	a1,a1,a5
    80002dfc:	22013683          	ld	a3,544(sp)
    80002e00:	8df5                	and	a1,a1,a3
    80002e02:	058e                	slli	a1,a1,0x3
    80002e04:	95aa                	add	a1,a1,a0
    80002e06:	0005b303          	ld	t1,0(a1)
    80002e0a:	00063383          	ld	t2,0(a2)
    80002e0e:	22813583          	ld	a1,552(sp)
    80002e12:	95be                	add	a1,a1,a5
    80002e14:	0f208693          	addi	a3,ra,242
    80002e18:	8df5                	and	a1,a1,a3
    80002e1a:	058e                	slli	a1,a1,0x3
    80002e1c:	95aa                	add	a1,a1,a0
    80002e1e:	0005bf03          	ld	t5,0(a1)
    80002e22:	00863983          	ld	s3,8(a2)
    80002e26:	21813583          	ld	a1,536(sp)
    80002e2a:	76fe                	ld	a3,504(sp)
    80002e2c:	95b6                	add	a1,a1,a3
    80002e2e:	058e                	slli	a1,a1,0x3
    80002e30:	95aa                	add	a1,a1,a0
    80002e32:	0005bf83          	ld	t6,0(a1)
    80002e36:	01063883          	ld	a7,16(a2)
    80002e3a:	65be                	ld	a1,456(sp)
    80002e3c:	95be                	add	a1,a1,a5
    80002e3e:	0f408693          	addi	a3,ra,244
    80002e42:	8df5                	and	a1,a1,a3
    80002e44:	058e                	slli	a1,a1,0x3
    80002e46:	95aa                	add	a1,a1,a0
    80002e48:	0005ba03          	ld	s4,0(a1)
    80002e4c:	01863a83          	ld	s5,24(a2)
    80002e50:	4b01                	li	s6,0
    80002e52:	4b81                	li	s7,0
    80002e54:	25013783          	ld	a5,592(sp)
    80002e58:	e30d                	bnez	a4,80002e7a <bilateral_core+0xc80>
    80002e5a:	27813583          	ld	a1,632(sp)
    80002e5e:	0055e593          	ori	a1,a1,5
    80002e62:	23013683          	ld	a3,560(sp)
    80002e66:	95b6                	add	a1,a1,a3
    80002e68:	0f508693          	addi	a3,ra,245
    80002e6c:	8df5                	and	a1,a1,a3
    80002e6e:	058e                	slli	a1,a1,0x3
    80002e70:	95aa                	add	a1,a1,a0
    80002e72:	0005bb03          	ld	s6,0(a1)
    80002e76:	02063b83          	ld	s7,32(a2)
    80002e7a:	4d81                	li	s11,0
    80002e7c:	4d01                	li	s10,0
    80002e7e:	4c01                	li	s8,0
    80002e80:	4c81                	li	s9,0
    80002e82:	4581                	li	a1,0
    80002e84:	4701                	li	a4,0
    80002e86:	e3b1                	bnez	a5,80002eca <bilateral_core+0xcd0>
    80002e88:	23813703          	ld	a4,568(sp)
    80002e8c:	20813583          	ld	a1,520(sp)
    80002e90:	95ba                	add	a1,a1,a4
    80002e92:	22013683          	ld	a3,544(sp)
    80002e96:	8df5                	and	a1,a1,a3
    80002e98:	058e                	slli	a1,a1,0x3
    80002e9a:	95aa                	add	a1,a1,a0
    80002e9c:	0005bc03          	ld	s8,0(a1)
    80002ea0:	02863c83          	ld	s9,40(a2)
    80002ea4:	22813583          	ld	a1,552(sp)
    80002ea8:	95ba                	add	a1,a1,a4
    80002eaa:	0f208693          	addi	a3,ra,242
    80002eae:	8df5                	and	a1,a1,a3
    80002eb0:	058e                	slli	a1,a1,0x3
    80002eb2:	95aa                	add	a1,a1,a0
    80002eb4:	0005bd03          	ld	s10,0(a1)
    80002eb8:	03063d83          	ld	s11,48(a2)
    80002ebc:	75ba                	ld	a1,424(sp)
    80002ebe:	76fe                	ld	a3,504(sp)
    80002ec0:	95b6                	add	a1,a1,a3
    80002ec2:	058e                	slli	a1,a1,0x3
    80002ec4:	95aa                	add	a1,a1,a0
    80002ec6:	618c                	ld	a1,0(a1)
    80002ec8:	7e18                	ld	a4,56(a2)
    80002eca:	4e01                	li	t3,0
    80002ecc:	4081                	li	ra,0
    80002ece:	4481                	li	s1,0
    80002ed0:	4401                	li	s0,0
    80002ed2:	ef85                	bnez	a5,80002f0a <bilateral_core+0xd10>
    80002ed4:	23813403          	ld	s0,568(sp)
    80002ed8:	66be                	ld	a3,456(sp)
    80002eda:	96a2                	add	a3,a3,s0
    80002edc:	25813783          	ld	a5,600(sp)
    80002ee0:	0f478493          	addi	s1,a5,244
    80002ee4:	8ee5                	and	a3,a3,s1
    80002ee6:	068e                	slli	a3,a3,0x3
    80002ee8:	96aa                	add	a3,a3,a0
    80002eea:	0006b083          	ld	ra,0(a3)
    80002eee:	04063e03          	ld	t3,64(a2)
    80002ef2:	27813683          	ld	a3,632(sp)
    80002ef6:	0056e493          	ori	s1,a3,5
    80002efa:	94a2                	add	s1,s1,s0
    80002efc:	0f578413          	addi	s0,a5,245
    80002f00:	8ce1                	and	s1,s1,s0
    80002f02:	048e                	slli	s1,s1,0x3
    80002f04:	94aa                	add	s1,s1,a0
    80002f06:	6084                	ld	s1,0(s1)
    80002f08:	6620                	ld	s0,72(a2)
    80002f0a:	8158868b          	.insn	4, 0x8158868b
    80002f0e:	6133868b          	.insn	4, 0x6133868b
    80002f12:	414f868b          	.insn	4, 0x414f868b
    80002f16:	21e3068b          	.insn	4, 0x21e3068b
    80002f1a:	29013783          	ld	a5,656(sp)
    80002f1e:	00f916fb          	.insn	4, 0x00f916fb
    80002f22:	00d688ab          	.insn	4, 0x00d688ab
    80002f26:	84ed870b          	.insn	4, 0x84ed870b
    80002f2a:	659b870b          	.insn	4, 0x659b870b
    80002f2e:	44bd058b          	.insn	4, 0x44bd058b
    80002f32:	258b058b          	.insn	4, 0x258b058b
    80002f36:	40f915fb          	.insn	4, 0x40f915fb
    80002f3a:	04b5832b          	.insn	4, 0x04b5832b
    80002f3e:	f2068153          	fmv.d.x	ft2,a3
    80002f42:	02017153          	fadd.d	ft2,ft2,ft0
    80002f46:	f20581d3          	fmv.d.x	ft3,a1
    80002f4a:	0002b583          	ld	a1,0(t0)
    80002f4e:	05063383          	ld	t2,80(a2)
    80002f52:	25813683          	ld	a3,600(sp)
    80002f56:	0f268693          	addi	a3,a3,242
    80002f5a:	20d13423          	sd	a3,520(sp)
    80002f5e:	671e                	ld	a4,448(sp)
    80002f60:	8f75                	and	a4,a4,a3
    80002f62:	070e                	slli	a4,a4,0x3
    80002f64:	00e502b3          	add	t0,a0,a4
    80002f68:	0002b703          	ld	a4,0(t0)
    80002f6c:	6e34                	ld	a3,88(a2)
    80002f6e:	02317153          	fadd.d	ft2,ft2,ft3
    80002f72:	688e040b          	.insn	4, 0x688e040b
    80002f76:	2890848b          	.insn	4, 0x2890848b
    80002f7a:	08f9048b          	.insn	4, 0x08f9048b
    80002f7e:	48e5858b          	.insn	4, 0x48e5858b
    80002f82:	90d395fb          	.insn	4, 0x90d395fb
    80002f86:	08b583ab          	.insn	4, 0x08b583ab
    80002f8a:	06063e03          	ld	t3,96(a2)
    80002f8e:	00083f83          	ld	t6,0(a6)
    80002f92:	06863983          	ld	s3,104(a2)
    80002f96:	27813683          	ld	a3,632(sp)
    80002f9a:	0056e413          	ori	s0,a3,5
    80002f9e:	26013683          	ld	a3,608(sp)
    80002fa2:	96a2                	add	a3,a3,s0
    80002fa4:	f2b6                	sd	a3,352(sp)
    80002fa6:	068e                	slli	a3,a3,0x3
    80002fa8:	e6b6                	sd	a3,328(sp)
    80002faa:	96aa                	add	a3,a3,a0
    80002fac:	eab6                	sd	a3,336(sp)
    80002fae:	0006bf03          	ld	t5,0(a3)
    80002fb2:	07063e83          	ld	t4,112(a2)
    80002fb6:	20013683          	ld	a3,512(sp)
    80002fba:	6294                	ld	a3,0(a3)
    80002fbc:	7e38                	ld	a4,120(a2)
    80002fbe:	0cf9048b          	.insn	4, 0x0cf9048b
    80002fc2:	2df9048b          	.insn	4, 0x2df9048b
    80002fc6:	6d3e048b          	.insn	4, 0x6d3e048b
    80002fca:	4cdf068b          	.insn	4, 0x4cdf068b
    80002fce:	d0ee96fb          	.insn	4, 0xd0ee96fb
    80002fd2:	0cd68e2b          	.insn	4, 0x0cd68e2b
    80002fd6:	f20581d3          	fmv.d.x	ft3,a1
    80002fda:	02317153          	fadd.d	ft2,ft2,ft3
    80002fde:	f20681d3          	fmv.d.x	ft3,a3
    80002fe2:	75de                	ld	a1,496(sp)
    80002fe4:	0005bf83          	ld	t6,0(a1)
    80002fe8:	08063983          	ld	s3,128(a2)
    80002fec:	75be                	ld	a1,488(sp)
    80002fee:	0005ba03          	ld	s4,0(a1)
    80002ff2:	08863e83          	ld	t4,136(a2)
    80002ff6:	759e                	ld	a1,480(sp)
    80002ff8:	6184                	ld	s1,0(a1)
    80002ffa:	09063f03          	ld	t5,144(a2)
    80002ffe:	24013583          	ld	a1,576(sp)
    80003002:	e3a2                	sd	s0,448(sp)
    80003004:	95a2                	add	a1,a1,s0
    80003006:	058e                	slli	a1,a1,0x3
    80003008:	95aa                	add	a1,a1,a0
    8000300a:	efae                	sd	a1,472(sp)
    8000300c:	618c                	ld	a1,0(a1)
    8000300e:	6e54                	ld	a3,152(a2)
    80003010:	02317153          	fadd.d	ft2,ft2,ft3
    80003014:	1cf9070b          	.insn	4, 0x1cf9070b
    80003018:	3d4f870b          	.insn	4, 0x3d4f870b
    8000301c:	7dd9870b          	.insn	4, 0x7dd9870b
    80003020:	5cb4858b          	.insn	4, 0x5cb4858b
    80003024:	d0df1ffb          	.insn	4, 0xd0df1ffb
    80003028:	65de                	ld	a1,464(sp)
    8000302a:	0005b983          	ld	s3,0(a1)
    8000302e:	0a063a03          	ld	s4,160(a2)
    80003032:	75da                	ld	a1,432(sp)
    80003034:	619c                	ld	a5,0(a1)
    80003036:	7644                	ld	s1,168(a2)
    80003038:	759a                	ld	a1,416(sp)
    8000303a:	6180                	ld	s0,0(a1)
    8000303c:	7a4c                	ld	a1,176(a2)
    8000303e:	24813683          	ld	a3,584(sp)
    80003042:	673e                	ld	a4,456(sp)
    80003044:	96ba                	add	a3,a3,a4
    80003046:	068e                	slli	a3,a3,0x3
    80003048:	96aa                	add	a3,a3,a0
    8000304a:	ef36                	sd	a3,408(sp)
    8000304c:	6294                	ld	a3,0(a3)
    8000304e:	7e58                	ld	a4,184(a2)
    80003050:	3cf987db          	.insn	4, 0x3cf987db
    80003054:	7c9a048b          	.insn	4, 0x7c9a048b
    80003058:	5cd4068b          	.insn	4, 0x5cd4068b
    8000305c:	d0e595fb          	.insn	4, 0xd0e595fb
    80003060:	f20f81d3          	fmv.d.x	ft3,t6
    80003064:	02317153          	fadd.d	ft2,ft2,ft3
    80003068:	27013683          	ld	a3,624(sp)
    8000306c:	20568693          	addi	a3,a3,517
    80003070:	068e                	slli	a3,a3,0x3
    80003072:	96aa                	add	a3,a3,a0
    80003074:	6294                	ld	a3,0(a3)
    80003076:	6278                	ld	a4,192(a2)
    80003078:	f20581d3          	fmv.d.x	ft3,a1
    8000307c:	3c0684db          	.insn	4, 0x3c0684db
    80003080:	cc0716fb          	.insn	4, 0xcc0716fb
    80003084:	1cd685ab          	.insn	4, 0x1cd685ab
    80003088:	02317153          	fadd.d	ft2,ft2,ft3
    8000308c:	f20681d3          	fmv.d.x	ft3,a3
    80003090:	02317153          	fadd.d	ft2,ft2,ft3
    80003094:	a22096d3          	flt.d	a3,ft1,ft2
    80003098:	c2a9                	beqz	a3,800030da <bilateral_core+0xee0>
    8000309a:	f20881d3          	fmv.d.x	ft3,a7
    8000309e:	0201f1d3          	fadd.d	ft3,ft3,ft0
    800030a2:	f2030253          	fmv.d.x	ft4,t1
    800030a6:	0241f1d3          	fadd.d	ft3,ft3,ft4
    800030aa:	f2038253          	fmv.d.x	ft4,t2
    800030ae:	0241f1d3          	fadd.d	ft3,ft3,ft4
    800030b2:	f20e0253          	fmv.d.x	ft4,t3
    800030b6:	0241f1d3          	fadd.d	ft3,ft3,ft4
    800030ba:	f2078253          	fmv.d.x	ft4,a5
    800030be:	0241f1d3          	fadd.d	ft3,ft3,ft4
    800030c2:	f2048253          	fmv.d.x	ft4,s1
    800030c6:	0241f1d3          	fadd.d	ft3,ft3,ft4
    800030ca:	f2058253          	fmv.d.x	ft4,a1
    800030ce:	0241f1d3          	fadd.d	ft3,ft3,ft4
    800030d2:	1a21f153          	fdiv.d	ft2,ft3,ft2
    800030d6:	e2010953          	fmv.x.d	s2,ft2
    800030da:	4881                	li	a7,0
    800030dc:	4b01                	li	s6,0
    800030de:	4a01                	li	s4,0
    800030e0:	4301                	li	t1,0
    800030e2:	4a81                	li	s5,0
    800030e4:	4f81                	li	t6,0
    800030e6:	4c01                	li	s8,0
    800030e8:	28813583          	ld	a1,648(sp)
    800030ec:	66ba                	ld	a3,392(sp)
    800030ee:	95b6                	add	a1,a1,a3
    800030f0:	0125b023          	sd	s2,0(a1)
    800030f4:	00083b83          	ld	s7,0(a6)
    800030f8:	4801                	li	a6,0
    800030fa:	25813703          	ld	a4,600(sp)
    800030fe:	25013783          	ld	a5,592(sp)
    80003102:	23813e03          	ld	t3,568(sp)
    80003106:	26813483          	ld	s1,616(sp)
    8000310a:	ecb9                	bnez	s1,80003168 <bilateral_core+0xf6e>
    8000310c:	23013403          	ld	s0,560(sp)
    80003110:	22813583          	ld	a1,552(sp)
    80003114:	95a2                	add	a1,a1,s0
    80003116:	20813683          	ld	a3,520(sp)
    8000311a:	8df5                	and	a1,a1,a3
    8000311c:	058e                	slli	a1,a1,0x3
    8000311e:	95aa                	add	a1,a1,a0
    80003120:	0005b303          	ld	t1,0(a1)
    80003124:	00063a03          	ld	s4,0(a2)
    80003128:	75fe                	ld	a1,504(sp)
    8000312a:	95a2                	add	a1,a1,s0
    8000312c:	0f370693          	addi	a3,a4,243
    80003130:	8df5                	and	a1,a1,a3
    80003132:	058e                	slli	a1,a1,0x3
    80003134:	95aa                	add	a1,a1,a0
    80003136:	0005ba83          	ld	s5,0(a1)
    8000313a:	00863f83          	ld	t6,8(a2)
    8000313e:	21813583          	ld	a1,536(sp)
    80003142:	66be                	ld	a3,456(sp)
    80003144:	95b6                	add	a1,a1,a3
    80003146:	058e                	slli	a1,a1,0x3
    80003148:	95aa                	add	a1,a1,a0
    8000314a:	0005bb03          	ld	s6,0(a1)
    8000314e:	01063883          	ld	a7,16(a2)
    80003152:	659e                	ld	a1,448(sp)
    80003154:	95a2                	add	a1,a1,s0
    80003156:	0f570693          	addi	a3,a4,245
    8000315a:	8df5                	and	a1,a1,a3
    8000315c:	058e                	slli	a1,a1,0x3
    8000315e:	95aa                	add	a1,a1,a0
    80003160:	0005bc03          	ld	s8,0(a1)
    80003164:	01863803          	ld	a6,24(a2)
    80003168:	4c81                	li	s9,0
    8000316a:	4981                	li	s3,0
    8000316c:	e08d                	bnez	s1,8000318e <bilateral_core+0xf94>
    8000316e:	27813583          	ld	a1,632(sp)
    80003172:	0065e593          	ori	a1,a1,6
    80003176:	23013683          	ld	a3,560(sp)
    8000317a:	95b6                	add	a1,a1,a3
    8000317c:	0f670693          	addi	a3,a4,246
    80003180:	8df5                	and	a1,a1,a3
    80003182:	058e                	slli	a1,a1,0x3
    80003184:	95aa                	add	a1,a1,a0
    80003186:	0005bc83          	ld	s9,0(a1)
    8000318a:	02063983          	ld	s3,32(a2)
    8000318e:	4381                	li	t2,0
    80003190:	4081                	li	ra,0
    80003192:	4d01                	li	s10,0
    80003194:	4d81                	li	s11,0
    80003196:	4481                	li	s1,0
    80003198:	4701                	li	a4,0
    8000319a:	e3a9                	bnez	a5,800031dc <bilateral_core+0xfe2>
    8000319c:	22813583          	ld	a1,552(sp)
    800031a0:	95f2                	add	a1,a1,t3
    800031a2:	20813683          	ld	a3,520(sp)
    800031a6:	8df5                	and	a1,a1,a3
    800031a8:	058e                	slli	a1,a1,0x3
    800031aa:	95aa                	add	a1,a1,a0
    800031ac:	0005bd03          	ld	s10,0(a1)
    800031b0:	02863d83          	ld	s11,40(a2)
    800031b4:	75fe                	ld	a1,504(sp)
    800031b6:	95f2                	add	a1,a1,t3
    800031b8:	25813683          	ld	a3,600(sp)
    800031bc:	0f368693          	addi	a3,a3,243
    800031c0:	8df5                	and	a1,a1,a3
    800031c2:	058e                	slli	a1,a1,0x3
    800031c4:	95aa                	add	a1,a1,a0
    800031c6:	0005b083          	ld	ra,0(a1)
    800031ca:	03063383          	ld	t2,48(a2)
    800031ce:	75ba                	ld	a1,424(sp)
    800031d0:	66be                	ld	a3,456(sp)
    800031d2:	95b6                	add	a1,a1,a3
    800031d4:	058e                	slli	a1,a1,0x3
    800031d6:	95aa                	add	a1,a1,a0
    800031d8:	6184                	ld	s1,0(a1)
    800031da:	7e18                	ld	a4,56(a2)
    800031dc:	4e81                	li	t4,0
    800031de:	4901                	li	s2,0
    800031e0:	4f01                	li	t5,0
    800031e2:	4e01                	li	t3,0
    800031e4:	ef9d                	bnez	a5,80003222 <bilateral_core+0x1028>
    800031e6:	23813e03          	ld	t3,568(sp)
    800031ea:	659e                	ld	a1,448(sp)
    800031ec:	95f2                	add	a1,a1,t3
    800031ee:	25813783          	ld	a5,600(sp)
    800031f2:	0f578693          	addi	a3,a5,245
    800031f6:	8df5                	and	a1,a1,a3
    800031f8:	058e                	slli	a1,a1,0x3
    800031fa:	95aa                	add	a1,a1,a0
    800031fc:	0005b903          	ld	s2,0(a1)
    80003200:	04063e83          	ld	t4,64(a2)
    80003204:	27813583          	ld	a1,632(sp)
    80003208:	0065e413          	ori	s0,a1,6
    8000320c:	9e22                	add	t3,t3,s0
    8000320e:	0f678413          	addi	s0,a5,246
    80003212:	008e7433          	and	s0,t3,s0
    80003216:	040e                	slli	s0,s0,0x3
    80003218:	942a                	add	s0,s0,a0
    8000321a:	00043f03          	ld	t5,0(s0)
    8000321e:	04863e03          	ld	t3,72(a2)
    80003222:	8108858b          	.insn	4, 0x8108858b
    80003226:	61fa058b          	.insn	4, 0x61fa058b
    8000322a:	418b058b          	.insn	4, 0x418b058b
    8000322e:	2153058b          	.insn	4, 0x2153058b
    80003232:	29013403          	ld	s0,656(sp)
    80003236:	008b95fb          	.insn	4, 0x008b95fb
    8000323a:	00b588ab          	.insn	4, 0x00b588ab
    8000323e:	84e3870b          	.insn	4, 0x84e3870b
    80003242:	65b9870b          	.insn	4, 0x65b9870b
    80003246:	4490870b          	.insn	4, 0x4490870b
    8000324a:	25ac870b          	.insn	4, 0x25ac870b
    8000324e:	408b977b          	.insn	4, 0x408b977b
    80003252:	04e7032b          	.insn	4, 0x04e7032b
    80003256:	f2058153          	fmv.d.x	ft2,a1
    8000325a:	02017153          	fadd.d	ft2,ft2,ft0
    8000325e:	f20701d3          	fmv.d.x	ft3,a4
    80003262:	0002b583          	ld	a1,0(t0)
    80003266:	6a38                	ld	a4,80(a2)
    80003268:	25813d03          	ld	s10,600(sp)
    8000326c:	0f3d0693          	addi	a3,s10,243
    80003270:	20d13023          	sd	a3,512(sp)
    80003274:	77fa                	ld	a5,440(sp)
    80003276:	00d7f4b3          	and	s1,a5,a3
    8000327a:	048e                	slli	s1,s1,0x3
    8000327c:	00950a33          	add	s4,a0,s1
    80003280:	000a3483          	ld	s1,0(s4)
    80003284:	6e34                	ld	a3,88(a2)
    80003286:	02317153          	fadd.d	ft2,ft2,ft3
    8000328a:	69ce878b          	.insn	4, 0x69ce878b
    8000328e:	29e9078b          	.insn	4, 0x29e9078b
    80003292:	088b878b          	.insn	4, 0x088b878b
    80003296:	4895858b          	.insn	4, 0x4895858b
    8000329a:	90d716fb          	.insn	4, 0x90d716fb
    8000329e:	08d682ab          	.insn	4, 0x08d682ab
    800032a2:	06063383          	ld	t2,96(a2)
    800032a6:	69d6                	ld	s3,336(sp)
    800032a8:	0009be03          	ld	t3,0(s3)
    800032ac:	06863e83          	ld	t4,104(a2)
    800032b0:	27813583          	ld	a1,632(sp)
    800032b4:	0065e793          	ori	a5,a1,6
    800032b8:	26013583          	ld	a1,608(sp)
    800032bc:	95be                	add	a1,a1,a5
    800032be:	eeae                	sd	a1,344(sp)
    800032c0:	058e                	slli	a1,a1,0x3
    800032c2:	fe2e                	sd	a1,312(sp)
    800032c4:	95aa                	add	a1,a1,a0
    800032c6:	f62e                	sd	a1,296(sp)
    800032c8:	0005b803          	ld	a6,0(a1)
    800032cc:	07063f03          	ld	t5,112(a2)
    800032d0:	75de                	ld	a1,496(sp)
    800032d2:	618c                	ld	a1,0(a1)
    800032d4:	7e38                	ld	a4,120(a2)
    800032d6:	0c8b848b          	.insn	4, 0x0c8b848b
    800032da:	2dcb848b          	.insn	4, 0x2dcb848b
    800032de:	6dd3848b          	.insn	4, 0x6dd3848b
    800032e2:	4cb8058b          	.insn	4, 0x4cb8058b
    800032e6:	d0ef177b          	.insn	4, 0xd0ef177b
    800032ea:	0ce703ab          	.insn	4, 0x0ce703ab
    800032ee:	f20681d3          	fmv.d.x	ft3,a3
    800032f2:	02317153          	fadd.d	ft2,ft2,ft3
    800032f6:	f20701d3          	fmv.d.x	ft3,a4
    800032fa:	75be                	ld	a1,488(sp)
    800032fc:	0005be03          	ld	t3,0(a1)
    80003300:	08063e83          	ld	t4,128(a2)
    80003304:	759e                	ld	a1,480(sp)
    80003306:	0005bf03          	ld	t5,0(a1)
    8000330a:	6644                	ld	s1,136(a2)
    8000330c:	65fe                	ld	a1,472(sp)
    8000330e:	0005b803          	ld	a6,0(a1)
    80003312:	09063f83          	ld	t6,144(a2)
    80003316:	24013583          	ld	a1,576(sp)
    8000331a:	ff3e                	sd	a5,440(sp)
    8000331c:	00f586b3          	add	a3,a1,a5
    80003320:	068e                	slli	a3,a3,0x3
    80003322:	00d505b3          	add	a1,a0,a3
    80003326:	22b13423          	sd	a1,552(sp)
    8000332a:	6194                	ld	a3,0(a1)
    8000332c:	6e58                	ld	a4,152(a2)
    8000332e:	02317153          	fadd.d	ft2,ft2,ft3
    80003332:	1c8b858b          	.insn	4, 0x1c8b858b
    80003336:	3dee058b          	.insn	4, 0x3dee058b
    8000333a:	7c9e858b          	.insn	4, 0x7c9e858b
    8000333e:	5cd8058b          	.insn	4, 0x5cd8058b
    80003342:	d0ef9e7b          	.insn	4, 0xd0ef9e7b
    80003346:	75da                	ld	a1,432(sp)
    80003348:	0005be83          	ld	t4,0(a1)
    8000334c:	0a063f83          	ld	t6,160(a2)
    80003350:	759a                	ld	a1,416(sp)
    80003352:	619c                	ld	a5,0(a1)
    80003354:	7644                	ld	s1,168(a2)
    80003356:	65fa                	ld	a1,408(sp)
    80003358:	6180                	ld	s0,0(a1)
    8000335a:	7a4c                	ld	a1,176(a2)
    8000335c:	24813683          	ld	a3,584(sp)
    80003360:	671e                	ld	a4,448(sp)
    80003362:	96ba                	add	a3,a3,a4
    80003364:	068e                	slli	a3,a3,0x3
    80003366:	96aa                	add	a3,a3,a0
    80003368:	e736                	sd	a3,392(sp)
    8000336a:	6294                	ld	a3,0(a3)
    8000336c:	7e58                	ld	a4,184(a2)
    8000336e:	3cfe87db          	.insn	4, 0x3cfe87db
    80003372:	7c9f848b          	.insn	4, 0x7c9f848b
    80003376:	5cd4068b          	.insn	4, 0x5cd4068b
    8000337a:	d0e595fb          	.insn	4, 0xd0e595fb
    8000337e:	f20e01d3          	fmv.d.x	ft3,t3
    80003382:	02317153          	fadd.d	ft2,ft2,ft3
    80003386:	27013683          	ld	a3,624(sp)
    8000338a:	20668693          	addi	a3,a3,518
    8000338e:	068e                	slli	a3,a3,0x3
    80003390:	96aa                	add	a3,a3,a0
    80003392:	6294                	ld	a3,0(a3)
    80003394:	6278                	ld	a4,192(a2)
    80003396:	f20581d3          	fmv.d.x	ft3,a1
    8000339a:	3c06845b          	.insn	4, 0x3c06845b
    8000339e:	cc0715fb          	.insn	4, 0xcc0715fb
    800033a2:	1cb584ab          	.insn	4, 0x1cb584ab
    800033a6:	02317153          	fadd.d	ft2,ft2,ft3
    800033aa:	f20581d3          	fmv.d.x	ft3,a1
    800033ae:	02317153          	fadd.d	ft2,ft2,ft3
    800033b2:	a22095d3          	flt.d	a1,ft1,ft2
    800033b6:	c1a9                	beqz	a1,800033f8 <bilateral_core+0x11fe>
    800033b8:	f20881d3          	fmv.d.x	ft3,a7
    800033bc:	0201f1d3          	fadd.d	ft3,ft3,ft0
    800033c0:	f2030253          	fmv.d.x	ft4,t1
    800033c4:	0241f1d3          	fadd.d	ft3,ft3,ft4
    800033c8:	f2028253          	fmv.d.x	ft4,t0
    800033cc:	0241f1d3          	fadd.d	ft3,ft3,ft4
    800033d0:	f2038253          	fmv.d.x	ft4,t2
    800033d4:	0241f1d3          	fadd.d	ft3,ft3,ft4
    800033d8:	f2078253          	fmv.d.x	ft4,a5
    800033dc:	0241f1d3          	fadd.d	ft3,ft3,ft4
    800033e0:	f2040253          	fmv.d.x	ft4,s0
    800033e4:	0241f1d3          	fadd.d	ft3,ft3,ft4
    800033e8:	f2048253          	fmv.d.x	ft4,s1
    800033ec:	0241f1d3          	fadd.d	ft3,ft3,ft4
    800033f0:	1a21f153          	fdiv.d	ft2,ft3,ft2
    800033f4:	e2010bd3          	fmv.x.d	s7,ft2
    800033f8:	4881                	li	a7,0
    800033fa:	4c01                	li	s8,0
    800033fc:	4b01                	li	s6,0
    800033fe:	4901                	li	s2,0
    80003400:	4a81                	li	s5,0
    80003402:	4f81                	li	t6,0
    80003404:	4c81                	li	s9,0
    80003406:	28813583          	ld	a1,648(sp)
    8000340a:	76f6                	ld	a3,376(sp)
    8000340c:	95b6                	add	a1,a1,a3
    8000340e:	0175b023          	sd	s7,0(a1)
    80003412:	0009bb83          	ld	s7,0(s3)
    80003416:	4f01                	li	t5,0
    80003418:	26813703          	ld	a4,616(sp)
    8000341c:	ef31                	bnez	a4,80003478 <bilateral_core+0x127e>
    8000341e:	23013783          	ld	a5,560(sp)
    80003422:	75fe                	ld	a1,504(sp)
    80003424:	95be                	add	a1,a1,a5
    80003426:	20013683          	ld	a3,512(sp)
    8000342a:	8df5                	and	a1,a1,a3
    8000342c:	058e                	slli	a1,a1,0x3
    8000342e:	95aa                	add	a1,a1,a0
    80003430:	0005b903          	ld	s2,0(a1)
    80003434:	00063b03          	ld	s6,0(a2)
    80003438:	65be                	ld	a1,456(sp)
    8000343a:	95be                	add	a1,a1,a5
    8000343c:	0f4d0693          	addi	a3,s10,244
    80003440:	8df5                	and	a1,a1,a3
    80003442:	058e                	slli	a1,a1,0x3
    80003444:	95aa                	add	a1,a1,a0
    80003446:	0005ba83          	ld	s5,0(a1)
    8000344a:	00863f83          	ld	t6,8(a2)
    8000344e:	21813583          	ld	a1,536(sp)
    80003452:	669e                	ld	a3,448(sp)
    80003454:	95b6                	add	a1,a1,a3
    80003456:	058e                	slli	a1,a1,0x3
    80003458:	95aa                	add	a1,a1,a0
    8000345a:	0005bc03          	ld	s8,0(a1)
    8000345e:	01063883          	ld	a7,16(a2)
    80003462:	75fa                	ld	a1,440(sp)
    80003464:	95be                	add	a1,a1,a5
    80003466:	0f6d0693          	addi	a3,s10,246
    8000346a:	8df5                	and	a1,a1,a3
    8000346c:	058e                	slli	a1,a1,0x3
    8000346e:	95aa                	add	a1,a1,a0
    80003470:	0005bc83          	ld	s9,0(a1)
    80003474:	01863f03          	ld	t5,24(a2)
    80003478:	4d81                	li	s11,0
    8000347a:	4981                	li	s3,0
    8000347c:	25013783          	ld	a5,592(sp)
    80003480:	e30d                	bnez	a4,800034a2 <bilateral_core+0x12a8>
    80003482:	27813583          	ld	a1,632(sp)
    80003486:	0075e593          	ori	a1,a1,7
    8000348a:	23013683          	ld	a3,560(sp)
    8000348e:	95b6                	add	a1,a1,a3
    80003490:	0f7d0693          	addi	a3,s10,247
    80003494:	8df5                	and	a1,a1,a3
    80003496:	058e                	slli	a1,a1,0x3
    80003498:	95aa                	add	a1,a1,a0
    8000349a:	0005bd83          	ld	s11,0(a1)
    8000349e:	02063983          	ld	s3,32(a2)
    800034a2:	4381                	li	t2,0
    800034a4:	4301                	li	t1,0
    800034a6:	4d01                	li	s10,0
    800034a8:	4081                	li	ra,0
    800034aa:	4481                	li	s1,0
    800034ac:	4701                	li	a4,0
    800034ae:	e3b1                	bnez	a5,800034f2 <bilateral_core+0x12f8>
    800034b0:	23813703          	ld	a4,568(sp)
    800034b4:	75fe                	ld	a1,504(sp)
    800034b6:	95ba                	add	a1,a1,a4
    800034b8:	20013683          	ld	a3,512(sp)
    800034bc:	8df5                	and	a1,a1,a3
    800034be:	058e                	slli	a1,a1,0x3
    800034c0:	95aa                	add	a1,a1,a0
    800034c2:	0005bd03          	ld	s10,0(a1)
    800034c6:	02863083          	ld	ra,40(a2)
    800034ca:	65be                	ld	a1,456(sp)
    800034cc:	95ba                	add	a1,a1,a4
    800034ce:	25813683          	ld	a3,600(sp)
    800034d2:	0f468693          	addi	a3,a3,244
    800034d6:	8df5                	and	a1,a1,a3
    800034d8:	058e                	slli	a1,a1,0x3
    800034da:	95aa                	add	a1,a1,a0
    800034dc:	0005b303          	ld	t1,0(a1)
    800034e0:	03063383          	ld	t2,48(a2)
    800034e4:	75ba                	ld	a1,424(sp)
    800034e6:	669e                	ld	a3,448(sp)
    800034e8:	95b6                	add	a1,a1,a3
    800034ea:	058e                	slli	a1,a1,0x3
    800034ec:	95aa                	add	a1,a1,a0
    800034ee:	6184                	ld	s1,0(a1)
    800034f0:	7e18                	ld	a4,56(a2)
    800034f2:	4e81                	li	t4,0
    800034f4:	4e01                	li	t3,0
    800034f6:	4801                	li	a6,0
    800034f8:	4581                	li	a1,0
    800034fa:	ef8d                	bnez	a5,80003534 <bilateral_core+0x133a>
    800034fc:	23813403          	ld	s0,568(sp)
    80003500:	75fa                	ld	a1,440(sp)
    80003502:	95a2                	add	a1,a1,s0
    80003504:	25813783          	ld	a5,600(sp)
    80003508:	0f678693          	addi	a3,a5,246
    8000350c:	8df5                	and	a1,a1,a3
    8000350e:	058e                	slli	a1,a1,0x3
    80003510:	95aa                	add	a1,a1,a0
    80003512:	0005be03          	ld	t3,0(a1)
    80003516:	04063e83          	ld	t4,64(a2)
    8000351a:	27813583          	ld	a1,632(sp)
    8000351e:	0075e593          	ori	a1,a1,7
    80003522:	95a2                	add	a1,a1,s0
    80003524:	0f778413          	addi	s0,a5,247
    80003528:	8de1                	and	a1,a1,s0
    8000352a:	058e                	slli	a1,a1,0x3
    8000352c:	95aa                	add	a1,a1,a0
    8000352e:	0005b803          	ld	a6,0(a1)
    80003532:	662c                	ld	a1,72(a2)
    80003534:	81e8868b          	.insn	4, 0x81e8868b
    80003538:	61fb068b          	.insn	4, 0x61fb068b
    8000353c:	419c068b          	.insn	4, 0x419c068b
    80003540:	2159068b          	.insn	4, 0x2159068b
    80003544:	29013403          	ld	s0,656(sp)
    80003548:	008b96fb          	.insn	4, 0x008b96fb
    8000354c:	00d688ab          	.insn	4, 0x00d688ab
    80003550:	84e3870b          	.insn	4, 0x84e3870b
    80003554:	6419870b          	.insn	4, 0x6419870b
    80003558:	4493070b          	.insn	4, 0x4493070b
    8000355c:	25ad870b          	.insn	4, 0x25ad870b
    80003560:	408b977b          	.insn	4, 0x408b977b
    80003564:	04e702ab          	.insn	4, 0x04e702ab
    80003568:	f2068153          	fmv.d.x	ft2,a3
    8000356c:	02017153          	fadd.d	ft2,ft2,ft0
    80003570:	f20701d3          	fmv.d.x	ft3,a4
    80003574:	000a3683          	ld	a3,0(s4)
    80003578:	6a38                	ld	a4,80(a2)
    8000357a:	25813983          	ld	s3,600(sp)
    8000357e:	0f498793          	addi	a5,s3,244
    80003582:	ffbe                	sd	a5,504(sp)
    80003584:	64da                	ld	s1,400(sp)
    80003586:	8cfd                	and	s1,s1,a5
    80003588:	048e                	slli	s1,s1,0x3
    8000358a:	00950b33          	add	s6,a0,s1
    8000358e:	000b3483          	ld	s1,0(s6)
    80003592:	6e3c                	ld	a5,88(a2)
    80003594:	02317153          	fadd.d	ft2,ft2,ft3
    80003598:	68be858b          	.insn	4, 0x68be858b
    8000359c:	290e058b          	.insn	4, 0x290e058b
    800035a0:	088b858b          	.insn	4, 0x088b858b
    800035a4:	4896858b          	.insn	4, 0x4896858b
    800035a8:	90f716fb          	.insn	4, 0x90f716fb
    800035ac:	08d6832b          	.insn	4, 0x08d6832b
    800035b0:	06063383          	ld	t2,96(a2)
    800035b4:	7932                	ld	s2,296(sp)
    800035b6:	00093e03          	ld	t3,0(s2)
    800035ba:	06863e83          	ld	t4,104(a2)
    800035be:	27813a03          	ld	s4,632(sp)
    800035c2:	007a6793          	ori	a5,s4,7
    800035c6:	26013583          	ld	a1,608(sp)
    800035ca:	95be                	add	a1,a1,a5
    800035cc:	eaae                	sd	a1,336(sp)
    800035ce:	058e                	slli	a1,a1,0x3
    800035d0:	fa2e                	sd	a1,304(sp)
    800035d2:	95aa                	add	a1,a1,a0
    800035d4:	eb2e                	sd	a1,400(sp)
    800035d6:	0005b803          	ld	a6,0(a1)
    800035da:	07063f03          	ld	t5,112(a2)
    800035de:	75be                	ld	a1,488(sp)
    800035e0:	618c                	ld	a1,0(a1)
    800035e2:	7e38                	ld	a4,120(a2)
    800035e4:	0c8b848b          	.insn	4, 0x0c8b848b
    800035e8:	2dcb848b          	.insn	4, 0x2dcb848b
    800035ec:	6dd3848b          	.insn	4, 0x6dd3848b
    800035f0:	4cb8058b          	.insn	4, 0x4cb8058b
    800035f4:	d0ef177b          	.insn	4, 0xd0ef177b
    800035f8:	0ce703ab          	.insn	4, 0x0ce703ab
    800035fc:	f20681d3          	fmv.d.x	ft3,a3
    80003600:	02317153          	fadd.d	ft2,ft2,ft3
    80003604:	f20701d3          	fmv.d.x	ft3,a4
    80003608:	759e                	ld	a1,480(sp)
    8000360a:	0005be03          	ld	t3,0(a1)
    8000360e:	08063e83          	ld	t4,128(a2)
    80003612:	65fe                	ld	a1,472(sp)
    80003614:	0005bf83          	ld	t6,0(a1)
    80003618:	6644                	ld	s1,136(a2)
    8000361a:	22813583          	ld	a1,552(sp)
    8000361e:	0005b803          	ld	a6,0(a1)
    80003622:	09063f03          	ld	t5,144(a2)
    80003626:	24013583          	ld	a1,576(sp)
    8000362a:	fb3e                	sd	a5,432(sp)
    8000362c:	00f586b3          	add	a3,a1,a5
    80003630:	068e                	slli	a3,a3,0x3
    80003632:	00d505b3          	add	a1,a0,a3
    80003636:	ebae                	sd	a1,464(sp)
    80003638:	6194                	ld	a3,0(a1)
    8000363a:	6e58                	ld	a4,152(a2)
    8000363c:	02317153          	fadd.d	ft2,ft2,ft3
    80003640:	1c8b858b          	.insn	4, 0x1c8b858b
    80003644:	3dfe058b          	.insn	4, 0x3dfe058b
    80003648:	7c9e858b          	.insn	4, 0x7c9e858b
    8000364c:	5cd8058b          	.insn	4, 0x5cd8058b
    80003650:	d0ef1e7b          	.insn	4, 0xd0ef1e7b
    80003654:	759a                	ld	a1,416(sp)
    80003656:	0005be83          	ld	t4,0(a1)
    8000365a:	0a063f03          	ld	t5,160(a2)
    8000365e:	65fa                	ld	a1,408(sp)
    80003660:	619c                	ld	a5,0(a1)
    80003662:	7644                	ld	s1,168(a2)
    80003664:	65ba                	ld	a1,392(sp)
    80003666:	6180                	ld	s0,0(a1)
    80003668:	7a4c                	ld	a1,176(a2)
    8000366a:	24813683          	ld	a3,584(sp)
    8000366e:	777a                	ld	a4,440(sp)
    80003670:	96ba                	add	a3,a3,a4
    80003672:	068e                	slli	a3,a3,0x3
    80003674:	96aa                	add	a3,a3,a0
    80003676:	feb6                	sd	a3,376(sp)
    80003678:	6294                	ld	a3,0(a3)
    8000367a:	7e58                	ld	a4,184(a2)
    8000367c:	3cfe87db          	.insn	4, 0x3cfe87db
    80003680:	7c9f048b          	.insn	4, 0x7c9f048b
    80003684:	5cd4068b          	.insn	4, 0x5cd4068b
    80003688:	d0e595fb          	.insn	4, 0xd0e595fb
    8000368c:	f20e01d3          	fmv.d.x	ft3,t3
    80003690:	02317153          	fadd.d	ft2,ft2,ft3
    80003694:	27013683          	ld	a3,624(sp)
    80003698:	20768693          	addi	a3,a3,519
    8000369c:	068e                	slli	a3,a3,0x3
    8000369e:	96aa                	add	a3,a3,a0
    800036a0:	6294                	ld	a3,0(a3)
    800036a2:	6278                	ld	a4,192(a2)
    800036a4:	f20581d3          	fmv.d.x	ft3,a1
    800036a8:	3c06845b          	.insn	4, 0x3c06845b
    800036ac:	cc0715fb          	.insn	4, 0xcc0715fb
    800036b0:	1cb584ab          	.insn	4, 0x1cb584ab
    800036b4:	02317153          	fadd.d	ft2,ft2,ft3
    800036b8:	f20581d3          	fmv.d.x	ft3,a1
    800036bc:	02317153          	fadd.d	ft2,ft2,ft3
    800036c0:	a22095d3          	flt.d	a1,ft1,ft2
    800036c4:	c1a9                	beqz	a1,80003706 <bilateral_core+0x150c>
    800036c6:	f20881d3          	fmv.d.x	ft3,a7
    800036ca:	0201f1d3          	fadd.d	ft3,ft3,ft0
    800036ce:	f2028253          	fmv.d.x	ft4,t0
    800036d2:	0241f1d3          	fadd.d	ft3,ft3,ft4
    800036d6:	f2030253          	fmv.d.x	ft4,t1
    800036da:	0241f1d3          	fadd.d	ft3,ft3,ft4
    800036de:	f2038253          	fmv.d.x	ft4,t2
    800036e2:	0241f1d3          	fadd.d	ft3,ft3,ft4
    800036e6:	f2078253          	fmv.d.x	ft4,a5
    800036ea:	0241f1d3          	fadd.d	ft3,ft3,ft4
    800036ee:	f2040253          	fmv.d.x	ft4,s0
    800036f2:	0241f1d3          	fadd.d	ft3,ft3,ft4
    800036f6:	f2048253          	fmv.d.x	ft4,s1
    800036fa:	0241f1d3          	fadd.d	ft3,ft3,ft4
    800036fe:	1a21f153          	fdiv.d	ft2,ft3,ft2
    80003702:	e2010bd3          	fmv.x.d	s7,ft2
    80003706:	4881                	li	a7,0
    80003708:	4f81                	li	t6,0
    8000370a:	4c81                	li	s9,0
    8000370c:	4c01                	li	s8,0
    8000370e:	4d81                	li	s11,0
    80003710:	4a81                	li	s5,0
    80003712:	4f01                	li	t5,0
    80003714:	28813583          	ld	a1,648(sp)
    80003718:	66b6                	ld	a3,328(sp)
    8000371a:	95b6                	add	a1,a1,a3
    8000371c:	0175b023          	sd	s7,0(a1)
    80003720:	00093903          	ld	s2,0(s2)
    80003724:	4801                	li	a6,0
    80003726:	26813783          	ld	a5,616(sp)
    8000372a:	efa9                	bnez	a5,80003784 <bilateral_core+0x158a>
    8000372c:	23013703          	ld	a4,560(sp)
    80003730:	65be                	ld	a1,456(sp)
    80003732:	95ba                	add	a1,a1,a4
    80003734:	76fe                	ld	a3,504(sp)
    80003736:	8df5                	and	a1,a1,a3
    80003738:	058e                	slli	a1,a1,0x3
    8000373a:	95aa                	add	a1,a1,a0
    8000373c:	0005bc03          	ld	s8,0(a1)
    80003740:	00063c83          	ld	s9,0(a2)
    80003744:	659e                	ld	a1,448(sp)
    80003746:	95ba                	add	a1,a1,a4
    80003748:	0f598693          	addi	a3,s3,245
    8000374c:	8df5                	and	a1,a1,a3
    8000374e:	058e                	slli	a1,a1,0x3
    80003750:	95aa                	add	a1,a1,a0
    80003752:	0005bd83          	ld	s11,0(a1)
    80003756:	00863a83          	ld	s5,8(a2)
    8000375a:	21813583          	ld	a1,536(sp)
    8000375e:	76fa                	ld	a3,440(sp)
    80003760:	95b6                	add	a1,a1,a3
    80003762:	058e                	slli	a1,a1,0x3
    80003764:	95aa                	add	a1,a1,a0
    80003766:	0005bf83          	ld	t6,0(a1)
    8000376a:	01063883          	ld	a7,16(a2)
    8000376e:	75da                	ld	a1,432(sp)
    80003770:	95ba                	add	a1,a1,a4
    80003772:	0f798693          	addi	a3,s3,247
    80003776:	8df5                	and	a1,a1,a3
    80003778:	058e                	slli	a1,a1,0x3
    8000377a:	95aa                	add	a1,a1,a0
    8000377c:	0005bf03          	ld	t5,0(a1)
    80003780:	01863803          	ld	a6,24(a2)
    80003784:	4d01                	li	s10,0
    80003786:	4081                	li	ra,0
    80003788:	25013703          	ld	a4,592(sp)
    8000378c:	e38d                	bnez	a5,800037ae <bilateral_core+0x15b4>
    8000378e:	008a6593          	ori	a1,s4,8
    80003792:	23013683          	ld	a3,560(sp)
    80003796:	95b6                	add	a1,a1,a3
    80003798:	25813683          	ld	a3,600(sp)
    8000379c:	0f868693          	addi	a3,a3,248
    800037a0:	8df5                	and	a1,a1,a3
    800037a2:	058e                	slli	a1,a1,0x3
    800037a4:	95aa                	add	a1,a1,a0
    800037a6:	0005bd03          	ld	s10,0(a1)
    800037aa:	02063083          	ld	ra,32(a2)
    800037ae:	4981                	li	s3,0
    800037b0:	4e81                	li	t4,0
    800037b2:	4e01                	li	t3,0
    800037b4:	4281                	li	t0,0
    800037b6:	4301                	li	t1,0
    800037b8:	4381                	li	t2,0
    800037ba:	e339                	bnez	a4,80003800 <bilateral_core+0x1606>
    800037bc:	23813783          	ld	a5,568(sp)
    800037c0:	65be                	ld	a1,456(sp)
    800037c2:	95be                	add	a1,a1,a5
    800037c4:	76fe                	ld	a3,504(sp)
    800037c6:	8df5                	and	a1,a1,a3
    800037c8:	058e                	slli	a1,a1,0x3
    800037ca:	95aa                	add	a1,a1,a0
    800037cc:	0005be03          	ld	t3,0(a1)
    800037d0:	02863283          	ld	t0,40(a2)
    800037d4:	659e                	ld	a1,448(sp)
    800037d6:	95be                	add	a1,a1,a5
    800037d8:	25813683          	ld	a3,600(sp)
    800037dc:	0f568693          	addi	a3,a3,245
    800037e0:	8df5                	and	a1,a1,a3
    800037e2:	058e                	slli	a1,a1,0x3
    800037e4:	95aa                	add	a1,a1,a0
    800037e6:	0005be83          	ld	t4,0(a1)
    800037ea:	03063983          	ld	s3,48(a2)
    800037ee:	75ba                	ld	a1,424(sp)
    800037f0:	76fa                	ld	a3,440(sp)
    800037f2:	95b6                	add	a1,a1,a3
    800037f4:	058e                	slli	a1,a1,0x3
    800037f6:	95aa                	add	a1,a1,a0
    800037f8:	0005b303          	ld	t1,0(a1)
    800037fc:	03863383          	ld	t2,56(a2)
    80003800:	4a01                	li	s4,0
    80003802:	4b81                	li	s7,0
    80003804:	4681                	li	a3,0
    80003806:	4401                	li	s0,0
    80003808:	ef05                	bnez	a4,80003840 <bilateral_core+0x1646>
    8000380a:	23813783          	ld	a5,568(sp)
    8000380e:	75da                	ld	a1,432(sp)
    80003810:	95be                	add	a1,a1,a5
    80003812:	25813703          	ld	a4,600(sp)
    80003816:	0f770693          	addi	a3,a4,247
    8000381a:	8df5                	and	a1,a1,a3
    8000381c:	058e                	slli	a1,a1,0x3
    8000381e:	95aa                	add	a1,a1,a0
    80003820:	0005bb83          	ld	s7,0(a1)
    80003824:	04063a03          	ld	s4,64(a2)
    80003828:	27813583          	ld	a1,632(sp)
    8000382c:	0085e693          	ori	a3,a1,8
    80003830:	96be                	add	a3,a3,a5
    80003832:	0f870413          	addi	s0,a4,248
    80003836:	8ee1                	and	a3,a3,s0
    80003838:	068e                	slli	a3,a3,0x3
    8000383a:	96aa                	add	a3,a3,a0
    8000383c:	6294                	ld	a3,0(a3)
    8000383e:	6620                	ld	s0,72(a2)
    80003840:	8108870b          	.insn	4, 0x8108870b
    80003844:	615c870b          	.insn	4, 0x615c870b
    80003848:	41ef870b          	.insn	4, 0x41ef870b
    8000384c:	21bc070b          	.insn	4, 0x21bc070b
    80003850:	29013783          	ld	a5,656(sp)
    80003854:	00f9177b          	.insn	4, 0x00f9177b
    80003858:	00e708ab          	.insn	4, 0x00e708ab
    8000385c:	8479848b          	.insn	4, 0x8479848b
    80003860:	6450848b          	.insn	4, 0x6450848b
    80003864:	446e848b          	.insn	4, 0x446e848b
    80003868:	25cd048b          	.insn	4, 0x25cd048b
    8000386c:	40f914fb          	.insn	4, 0x40f914fb
    80003870:	0494832b          	.insn	4, 0x0494832b
    80003874:	f2070153          	fmv.d.x	ft2,a4
    80003878:	02017153          	fadd.d	ft2,ft2,ft0
    8000387c:	f20481d3          	fmv.d.x	ft3,s1
    80003880:	000b3803          	ld	a6,0(s6)
    80003884:	6a24                	ld	s1,80(a2)
    80003886:	25813e83          	ld	t4,600(sp)
    8000388a:	0f5e8593          	addi	a1,t4,245
    8000388e:	fbae                	sd	a1,496(sp)
    80003890:	7716                	ld	a4,352(sp)
    80003892:	8df9                	and	a1,a1,a4
    80003894:	058e                	slli	a1,a1,0x3
    80003896:	95aa                	add	a1,a1,a0
    80003898:	f7ae                	sd	a1,488(sp)
    8000389a:	618c                	ld	a1,0(a1)
    8000389c:	6e38                	ld	a4,88(a2)
    8000389e:	02317153          	fadd.d	ft2,ft2,ft3
    800038a2:	688a040b          	.insn	4, 0x688a040b
    800038a6:	28db868b          	.insn	4, 0x28db868b
    800038aa:	08f9068b          	.insn	4, 0x08f9068b
    800038ae:	48b8058b          	.insn	4, 0x48b8058b
    800038b2:	90e496fb          	.insn	4, 0x90e496fb
    800038b6:	08d682ab          	.insn	4, 0x08d682ab
    800038ba:	06063383          	ld	t2,96(a2)
    800038be:	6bda                	ld	s7,400(sp)
    800038c0:	000bbe03          	ld	t3,0(s7)
    800038c4:	06863f03          	ld	t5,104(a2)
    800038c8:	27813f83          	ld	t6,632(sp)
    800038cc:	008fe413          	ori	s0,t6,8
    800038d0:	26013583          	ld	a1,608(sp)
    800038d4:	95a2                	add	a1,a1,s0
    800038d6:	e6ae                	sd	a1,328(sp)
    800038d8:	058e                	slli	a1,a1,0x3
    800038da:	f62e                	sd	a1,296(sp)
    800038dc:	00b50d33          	add	s10,a0,a1
    800038e0:	000d3983          	ld	s3,0(s10)
    800038e4:	07063803          	ld	a6,112(a2)
    800038e8:	759e                	ld	a1,480(sp)
    800038ea:	618c                	ld	a1,0(a1)
    800038ec:	7e38                	ld	a4,120(a2)
    800038ee:	0cf9048b          	.insn	4, 0x0cf9048b
    800038f2:	2dc9048b          	.insn	4, 0x2dc9048b
    800038f6:	6de3848b          	.insn	4, 0x6de3848b
    800038fa:	4cb9858b          	.insn	4, 0x4cb9858b
    800038fe:	d0e8177b          	.insn	4, 0xd0e8177b
    80003902:	0ce703ab          	.insn	4, 0x0ce703ab
    80003906:	f20681d3          	fmv.d.x	ft3,a3
    8000390a:	02317153          	fadd.d	ft2,ft2,ft3
    8000390e:	f20701d3          	fmv.d.x	ft3,a4
    80003912:	65fe                	ld	a1,472(sp)
    80003914:	0005be03          	ld	t3,0(a1)
    80003918:	08063f03          	ld	t5,128(a2)
    8000391c:	22813583          	ld	a1,552(sp)
    80003920:	0005b803          	ld	a6,0(a1)
    80003924:	6644                	ld	s1,136(a2)
    80003926:	65de                	ld	a1,464(sp)
    80003928:	0005ba03          	ld	s4,0(a1)
    8000392c:	09063983          	ld	s3,144(a2)
    80003930:	24013583          	ld	a1,576(sp)
    80003934:	f322                	sd	s0,416(sp)
    80003936:	008586b3          	add	a3,a1,s0
    8000393a:	068e                	slli	a3,a3,0x3
    8000393c:	00d505b3          	add	a1,a0,a3
    80003940:	e7ae                	sd	a1,456(sp)
    80003942:	6194                	ld	a3,0(a1)
    80003944:	6e58                	ld	a4,152(a2)
    80003946:	02317153          	fadd.d	ft2,ft2,ft3
    8000394a:	1cf9058b          	.insn	4, 0x1cf9058b
    8000394e:	3d0e058b          	.insn	4, 0x3d0e058b
    80003952:	7c9f058b          	.insn	4, 0x7c9f058b
    80003956:	5cda058b          	.insn	4, 0x5cda058b
    8000395a:	d0e99e7b          	.insn	4, 0xd0e99e7b
    8000395e:	65fa                	ld	a1,408(sp)
    80003960:	0005bf03          	ld	t5,0(a1)
    80003964:	0a063983          	ld	s3,160(a2)
    80003968:	65ba                	ld	a1,392(sp)
    8000396a:	619c                	ld	a5,0(a1)
    8000396c:	7644                	ld	s1,168(a2)
    8000396e:	75f6                	ld	a1,376(sp)
    80003970:	6180                	ld	s0,0(a1)
    80003972:	7a4c                	ld	a1,176(a2)
    80003974:	24813683          	ld	a3,584(sp)
    80003978:	775a                	ld	a4,432(sp)
    8000397a:	96ba                	add	a3,a3,a4
    8000397c:	068e                	slli	a3,a3,0x3
    8000397e:	96aa                	add	a3,a3,a0
    80003980:	ef36                	sd	a3,408(sp)
    80003982:	6294                	ld	a3,0(a3)
    80003984:	7e58                	ld	a4,184(a2)
    80003986:	3cff07db          	.insn	4, 0x3cff07db
    8000398a:	7c99848b          	.insn	4, 0x7c99848b
    8000398e:	5cd4068b          	.insn	4, 0x5cd4068b
    80003992:	d0e595fb          	.insn	4, 0xd0e595fb
    80003996:	f20e01d3          	fmv.d.x	ft3,t3
    8000399a:	02317153          	fadd.d	ft2,ft2,ft3
    8000399e:	27013683          	ld	a3,624(sp)
    800039a2:	20868693          	addi	a3,a3,520
    800039a6:	068e                	slli	a3,a3,0x3
    800039a8:	96aa                	add	a3,a3,a0
    800039aa:	6294                	ld	a3,0(a3)
    800039ac:	6278                	ld	a4,192(a2)
    800039ae:	f20581d3          	fmv.d.x	ft3,a1
    800039b2:	3c0684db          	.insn	4, 0x3c0684db
    800039b6:	cc0715fb          	.insn	4, 0xcc0715fb
    800039ba:	1cb5842b          	.insn	4, 0x1cb5842b
    800039be:	02317153          	fadd.d	ft2,ft2,ft3
    800039c2:	f20581d3          	fmv.d.x	ft3,a1
    800039c6:	02317153          	fadd.d	ft2,ft2,ft3
    800039ca:	a22095d3          	flt.d	a1,ft1,ft2
    800039ce:	c1a9                	beqz	a1,80003a10 <bilateral_core+0x1816>
    800039d0:	f20881d3          	fmv.d.x	ft3,a7
    800039d4:	0201f1d3          	fadd.d	ft3,ft3,ft0
    800039d8:	f2030253          	fmv.d.x	ft4,t1
    800039dc:	0241f1d3          	fadd.d	ft3,ft3,ft4
    800039e0:	f2028253          	fmv.d.x	ft4,t0
    800039e4:	0241f1d3          	fadd.d	ft3,ft3,ft4
    800039e8:	f2038253          	fmv.d.x	ft4,t2
    800039ec:	0241f1d3          	fadd.d	ft3,ft3,ft4
    800039f0:	f2078253          	fmv.d.x	ft4,a5
    800039f4:	0241f1d3          	fadd.d	ft3,ft3,ft4
    800039f8:	f2048253          	fmv.d.x	ft4,s1
    800039fc:	0241f1d3          	fadd.d	ft3,ft3,ft4
    80003a00:	f2040253          	fmv.d.x	ft4,s0
    80003a04:	0241f1d3          	fadd.d	ft3,ft3,ft4
    80003a08:	1a21f153          	fdiv.d	ft2,ft3,ft2
    80003a0c:	e2010953          	fmv.x.d	s2,ft2
    80003a10:	4881                	li	a7,0
    80003a12:	4d81                	li	s11,0
    80003a14:	4c01                	li	s8,0
    80003a16:	4b01                	li	s6,0
    80003a18:	4c81                	li	s9,0
    80003a1a:	4a81                	li	s5,0
    80003a1c:	4f01                	li	t5,0
    80003a1e:	28813583          	ld	a1,648(sp)
    80003a22:	76f2                	ld	a3,312(sp)
    80003a24:	95b6                	add	a1,a1,a3
    80003a26:	0125b023          	sd	s2,0(a1)
    80003a2a:	000bb803          	ld	a6,0(s7)
    80003a2e:	4901                	li	s2,0
    80003a30:	26813783          	ld	a5,616(sp)
    80003a34:	efa9                	bnez	a5,80003a8e <bilateral_core+0x1894>
    80003a36:	23013703          	ld	a4,560(sp)
    80003a3a:	659e                	ld	a1,448(sp)
    80003a3c:	95ba                	add	a1,a1,a4
    80003a3e:	76de                	ld	a3,496(sp)
    80003a40:	8df5                	and	a1,a1,a3
    80003a42:	058e                	slli	a1,a1,0x3
    80003a44:	95aa                	add	a1,a1,a0
    80003a46:	0005bb03          	ld	s6,0(a1)
    80003a4a:	00063c03          	ld	s8,0(a2)
    80003a4e:	75fa                	ld	a1,440(sp)
    80003a50:	95ba                	add	a1,a1,a4
    80003a52:	0f6e8693          	addi	a3,t4,246
    80003a56:	8df5                	and	a1,a1,a3
    80003a58:	058e                	slli	a1,a1,0x3
    80003a5a:	95aa                	add	a1,a1,a0
    80003a5c:	0005bc83          	ld	s9,0(a1)
    80003a60:	00863a83          	ld	s5,8(a2)
    80003a64:	21813583          	ld	a1,536(sp)
    80003a68:	76da                	ld	a3,432(sp)
    80003a6a:	95b6                	add	a1,a1,a3
    80003a6c:	058e                	slli	a1,a1,0x3
    80003a6e:	95aa                	add	a1,a1,a0
    80003a70:	0005bd83          	ld	s11,0(a1)
    80003a74:	01063883          	ld	a7,16(a2)
    80003a78:	759a                	ld	a1,416(sp)
    80003a7a:	95ba                	add	a1,a1,a4
    80003a7c:	0f8e8693          	addi	a3,t4,248
    80003a80:	8df5                	and	a1,a1,a3
    80003a82:	058e                	slli	a1,a1,0x3
    80003a84:	95aa                	add	a1,a1,a0
    80003a86:	0005bf03          	ld	t5,0(a1)
    80003a8a:	01863903          	ld	s2,24(a2)
    80003a8e:	4981                	li	s3,0
    80003a90:	4081                	li	ra,0
    80003a92:	25013703          	ld	a4,592(sp)
    80003a96:	e38d                	bnez	a5,80003ab8 <bilateral_core+0x18be>
    80003a98:	009fe593          	ori	a1,t6,9
    80003a9c:	23013683          	ld	a3,560(sp)
    80003aa0:	95b6                	add	a1,a1,a3
    80003aa2:	25813683          	ld	a3,600(sp)
    80003aa6:	0f968693          	addi	a3,a3,249
    80003aaa:	8df5                	and	a1,a1,a3
    80003aac:	058e                	slli	a1,a1,0x3
    80003aae:	95aa                	add	a1,a1,a0
    80003ab0:	0005b983          	ld	s3,0(a1)
    80003ab4:	02063083          	ld	ra,32(a2)
    80003ab8:	8bea                	mv	s7,s10
    80003aba:	4a01                	li	s4,0
    80003abc:	4281                	li	t0,0
    80003abe:	4301                	li	t1,0
    80003ac0:	4e01                	li	t3,0
    80003ac2:	4681                	li	a3,0
    80003ac4:	4381                	li	t2,0
    80003ac6:	e331                	bnez	a4,80003b0a <bilateral_core+0x1910>
    80003ac8:	23813783          	ld	a5,568(sp)
    80003acc:	659e                	ld	a1,448(sp)
    80003ace:	95be                	add	a1,a1,a5
    80003ad0:	76de                	ld	a3,496(sp)
    80003ad2:	8df5                	and	a1,a1,a3
    80003ad4:	058e                	slli	a1,a1,0x3
    80003ad6:	95aa                	add	a1,a1,a0
    80003ad8:	0005b303          	ld	t1,0(a1)
    80003adc:	02863e03          	ld	t3,40(a2)
    80003ae0:	75fa                	ld	a1,440(sp)
    80003ae2:	95be                	add	a1,a1,a5
    80003ae4:	25813683          	ld	a3,600(sp)
    80003ae8:	0f668693          	addi	a3,a3,246
    80003aec:	8df5                	and	a1,a1,a3
    80003aee:	058e                	slli	a1,a1,0x3
    80003af0:	95aa                	add	a1,a1,a0
    80003af2:	0005b283          	ld	t0,0(a1)
    80003af6:	03063a03          	ld	s4,48(a2)
    80003afa:	75ba                	ld	a1,424(sp)
    80003afc:	76da                	ld	a3,432(sp)
    80003afe:	96ae                	add	a3,a3,a1
    80003b00:	068e                	slli	a3,a3,0x3
    80003b02:	96aa                	add	a3,a3,a0
    80003b04:	6294                	ld	a3,0(a3)
    80003b06:	03863383          	ld	t2,56(a2)
    80003b0a:	4e81                	li	t4,0
    80003b0c:	4d01                	li	s10,0
    80003b0e:	4f81                	li	t6,0
    80003b10:	4781                	li	a5,0
    80003b12:	ef15                	bnez	a4,80003b4e <bilateral_core+0x1954>
    80003b14:	23813483          	ld	s1,568(sp)
    80003b18:	759a                	ld	a1,416(sp)
    80003b1a:	00b48733          	add	a4,s1,a1
    80003b1e:	25813583          	ld	a1,600(sp)
    80003b22:	0f858793          	addi	a5,a1,248
    80003b26:	8f7d                	and	a4,a4,a5
    80003b28:	070e                	slli	a4,a4,0x3
    80003b2a:	972a                	add	a4,a4,a0
    80003b2c:	00073d03          	ld	s10,0(a4)
    80003b30:	04063e83          	ld	t4,64(a2)
    80003b34:	27813703          	ld	a4,632(sp)
    80003b38:	00976793          	ori	a5,a4,9
    80003b3c:	97a6                	add	a5,a5,s1
    80003b3e:	0f958413          	addi	s0,a1,249
    80003b42:	8fe1                	and	a5,a5,s0
    80003b44:	078e                	slli	a5,a5,0x3
    80003b46:	97aa                	add	a5,a5,a0
    80003b48:	0007bf83          	ld	t6,0(a5)
    80003b4c:	663c                	ld	a5,72(a2)
    80003b4e:	8128858b          	.insn	4, 0x8128858b
    80003b52:	615c058b          	.insn	4, 0x615c058b
    80003b56:	41ed858b          	.insn	4, 0x41ed858b
    80003b5a:	219b058b          	.insn	4, 0x219b058b
    80003b5e:	29013403          	ld	s0,656(sp)
    80003b62:	008815fb          	.insn	4, 0x008815fb
    80003b66:	00b588ab          	.insn	4, 0x00b588ab
    80003b6a:	847a070b          	.insn	4, 0x847a070b
    80003b6e:	65c0870b          	.insn	4, 0x65c0870b
    80003b72:	44d2868b          	.insn	4, 0x44d2868b
    80003b76:	2469868b          	.insn	4, 0x2469868b
    80003b7a:	408816fb          	.insn	4, 0x408816fb
    80003b7e:	04d682ab          	.insn	4, 0x04d682ab
    80003b82:	f2058153          	fmv.d.x	ft2,a1
    80003b86:	02017153          	fadd.d	ft2,ft2,ft0
    80003b8a:	f20681d3          	fmv.d.x	ft3,a3
    80003b8e:	75be                	ld	a1,488(sp)
    80003b90:	618c                	ld	a1,0(a1)
    80003b92:	6a34                	ld	a3,80(a2)
    80003b94:	25813983          	ld	s3,600(sp)
    80003b98:	0f698713          	addi	a4,s3,246
    80003b9c:	f7ba                	sd	a4,488(sp)
    80003b9e:	64f6                	ld	s1,344(sp)
    80003ba0:	8f65                	and	a4,a4,s1
    80003ba2:	070e                	slli	a4,a4,0x3
    80003ba4:	00e50b33          	add	s6,a0,a4
    80003ba8:	000b3703          	ld	a4,0(s6)
    80003bac:	6e24                	ld	s1,88(a2)
    80003bae:	02317153          	fadd.d	ft2,ft2,ft3
    80003bb2:	68fe878b          	.insn	4, 0x68fe878b
    80003bb6:	29fd078b          	.insn	4, 0x29fd078b
    80003bba:	0888078b          	.insn	4, 0x0888078b
    80003bbe:	48e5858b          	.insn	4, 0x48e5858b
    80003bc2:	909696fb          	.insn	4, 0x909696fb
    80003bc6:	08d6832b          	.insn	4, 0x08d6832b
    80003bca:	06063383          	ld	t2,96(a2)
    80003bce:	8d5e                	mv	s10,s7
    80003bd0:	000bbe03          	ld	t3,0(s7)
    80003bd4:	06863e83          	ld	t4,104(a2)
    80003bd8:	27813a03          	ld	s4,632(sp)
    80003bdc:	009a6793          	ori	a5,s4,9
    80003be0:	26013583          	ld	a1,608(sp)
    80003be4:	95be                	add	a1,a1,a5
    80003be6:	fe2e                	sd	a1,312(sp)
    80003be8:	058e                	slli	a1,a1,0x3
    80003bea:	f22e                	sd	a1,288(sp)
    80003bec:	95aa                	add	a1,a1,a0
    80003bee:	8bae                	mv	s7,a1
    80003bf0:	0005bf03          	ld	t5,0(a1)
    80003bf4:	07063f83          	ld	t6,112(a2)
    80003bf8:	65fe                	ld	a1,472(sp)
    80003bfa:	618c                	ld	a1,0(a1)
    80003bfc:	7e38                	ld	a4,120(a2)
    80003bfe:	0c88048b          	.insn	4, 0x0c88048b
    80003c02:	2dc8048b          	.insn	4, 0x2dc8048b
    80003c06:	6dd3848b          	.insn	4, 0x6dd3848b
    80003c0a:	4cbf058b          	.insn	4, 0x4cbf058b
    80003c0e:	d0ef977b          	.insn	4, 0xd0ef977b
    80003c12:	0ce703ab          	.insn	4, 0x0ce703ab
    80003c16:	f20681d3          	fmv.d.x	ft3,a3
    80003c1a:	02317153          	fadd.d	ft2,ft2,ft3
    80003c1e:	f20701d3          	fmv.d.x	ft3,a4
    80003c22:	22813583          	ld	a1,552(sp)
    80003c26:	0005be03          	ld	t3,0(a1)
    80003c2a:	08063e83          	ld	t4,128(a2)
    80003c2e:	65de                	ld	a1,464(sp)
    80003c30:	0005b903          	ld	s2,0(a1)
    80003c34:	6644                	ld	s1,136(a2)
    80003c36:	65be                	ld	a1,456(sp)
    80003c38:	0005bf83          	ld	t6,0(a1)
    80003c3c:	09063f03          	ld	t5,144(a2)
    80003c40:	24013583          	ld	a1,576(sp)
    80003c44:	eb3e                	sd	a5,400(sp)
    80003c46:	00f586b3          	add	a3,a1,a5
    80003c4a:	068e                	slli	a3,a3,0x3
    80003c4c:	00d505b3          	add	a1,a0,a3
    80003c50:	e3ae                	sd	a1,448(sp)
    80003c52:	6194                	ld	a3,0(a1)
    80003c54:	6e58                	ld	a4,152(a2)
    80003c56:	02317153          	fadd.d	ft2,ft2,ft3
    80003c5a:	1c88058b          	.insn	4, 0x1c88058b
    80003c5e:	3d2e058b          	.insn	4, 0x3d2e058b
    80003c62:	7c9e858b          	.insn	4, 0x7c9e858b
    80003c66:	5cdf858b          	.insn	4, 0x5cdf858b
    80003c6a:	d0ef1e7b          	.insn	4, 0xd0ef1e7b
    80003c6e:	65ba                	ld	a1,392(sp)
    80003c70:	0005be83          	ld	t4,0(a1)
    80003c74:	0a063f03          	ld	t5,160(a2)
    80003c78:	75f6                	ld	a1,376(sp)
    80003c7a:	6198                	ld	a4,0(a1)
    80003c7c:	7644                	ld	s1,168(a2)
    80003c7e:	65fa                	ld	a1,408(sp)
    80003c80:	6180                	ld	s0,0(a1)
    80003c82:	7a4c                	ld	a1,176(a2)
    80003c84:	24813683          	ld	a3,584(sp)
    80003c88:	779a                	ld	a5,416(sp)
    80003c8a:	96be                	add	a3,a3,a5
    80003c8c:	068e                	slli	a3,a3,0x3
    80003c8e:	96aa                	add	a3,a3,a0
    80003c90:	f2b6                	sd	a3,352(sp)
    80003c92:	6294                	ld	a3,0(a3)
    80003c94:	7e5c                	ld	a5,184(a2)
    80003c96:	3cee875b          	.insn	4, 0x3cee875b
    80003c9a:	7c9f048b          	.insn	4, 0x7c9f048b
    80003c9e:	5cd4068b          	.insn	4, 0x5cd4068b
    80003ca2:	d0f595fb          	.insn	4, 0xd0f595fb
    80003ca6:	f20e01d3          	fmv.d.x	ft3,t3
    80003caa:	02317153          	fadd.d	ft2,ft2,ft3
    80003cae:	27013683          	ld	a3,624(sp)
    80003cb2:	20968693          	addi	a3,a3,521
    80003cb6:	068e                	slli	a3,a3,0x3
    80003cb8:	96aa                	add	a3,a3,a0
    80003cba:	6294                	ld	a3,0(a3)
    80003cbc:	627c                	ld	a5,192(a2)
    80003cbe:	f20581d3          	fmv.d.x	ft3,a1
    80003cc2:	3c06845b          	.insn	4, 0x3c06845b
    80003cc6:	cc0795fb          	.insn	4, 0xcc0795fb
    80003cca:	1cb586ab          	.insn	4, 0x1cb586ab
    80003cce:	02317153          	fadd.d	ft2,ft2,ft3
    80003cd2:	f20581d3          	fmv.d.x	ft3,a1
    80003cd6:	02317153          	fadd.d	ft2,ft2,ft3
    80003cda:	a22095d3          	flt.d	a1,ft1,ft2
    80003cde:	c1a9                	beqz	a1,80003d20 <bilateral_core+0x1b26>
    80003ce0:	f20881d3          	fmv.d.x	ft3,a7
    80003ce4:	0201f1d3          	fadd.d	ft3,ft3,ft0
    80003ce8:	f2028253          	fmv.d.x	ft4,t0
    80003cec:	0241f1d3          	fadd.d	ft3,ft3,ft4
    80003cf0:	f2030253          	fmv.d.x	ft4,t1
    80003cf4:	0241f1d3          	fadd.d	ft3,ft3,ft4
    80003cf8:	f2038253          	fmv.d.x	ft4,t2
    80003cfc:	0241f1d3          	fadd.d	ft3,ft3,ft4
    80003d00:	f2070253          	fmv.d.x	ft4,a4
    80003d04:	0241f1d3          	fadd.d	ft3,ft3,ft4
    80003d08:	f2040253          	fmv.d.x	ft4,s0
    80003d0c:	0241f1d3          	fadd.d	ft3,ft3,ft4
    80003d10:	f2068253          	fmv.d.x	ft4,a3
    80003d14:	0241f1d3          	fadd.d	ft3,ft3,ft4
    80003d18:	1a21f153          	fdiv.d	ft2,ft3,ft2
    80003d1c:	e2010853          	fmv.x.d	a6,ft2
    80003d20:	4881                	li	a7,0
    80003d22:	4901                	li	s2,0
    80003d24:	4c81                	li	s9,0
    80003d26:	4c01                	li	s8,0
    80003d28:	4d81                	li	s11,0
    80003d2a:	4a81                	li	s5,0
    80003d2c:	4f01                	li	t5,0
    80003d2e:	28813583          	ld	a1,648(sp)
    80003d32:	76d2                	ld	a3,304(sp)
    80003d34:	95b6                	add	a1,a1,a3
    80003d36:	0105b023          	sd	a6,0(a1)
    80003d3a:	000d3f83          	ld	t6,0(s10)
    80003d3e:	4801                	li	a6,0
    80003d40:	26813703          	ld	a4,616(sp)
    80003d44:	ef29                	bnez	a4,80003d9e <bilateral_core+0x1ba4>
    80003d46:	23013783          	ld	a5,560(sp)
    80003d4a:	75fa                	ld	a1,440(sp)
    80003d4c:	95be                	add	a1,a1,a5
    80003d4e:	76be                	ld	a3,488(sp)
    80003d50:	8df5                	and	a1,a1,a3
    80003d52:	058e                	slli	a1,a1,0x3
    80003d54:	95aa                	add	a1,a1,a0
    80003d56:	0005bc03          	ld	s8,0(a1)
    80003d5a:	00063c83          	ld	s9,0(a2)
    80003d5e:	75da                	ld	a1,432(sp)
    80003d60:	95be                	add	a1,a1,a5
    80003d62:	0f798693          	addi	a3,s3,247
    80003d66:	8df5                	and	a1,a1,a3
    80003d68:	058e                	slli	a1,a1,0x3
    80003d6a:	95aa                	add	a1,a1,a0
    80003d6c:	0005bd83          	ld	s11,0(a1)
    80003d70:	00863a83          	ld	s5,8(a2)
    80003d74:	21813583          	ld	a1,536(sp)
    80003d78:	769a                	ld	a3,416(sp)
    80003d7a:	95b6                	add	a1,a1,a3
    80003d7c:	058e                	slli	a1,a1,0x3
    80003d7e:	95aa                	add	a1,a1,a0
    80003d80:	0005b903          	ld	s2,0(a1)
    80003d84:	01063883          	ld	a7,16(a2)
    80003d88:	65da                	ld	a1,400(sp)
    80003d8a:	95be                	add	a1,a1,a5
    80003d8c:	0f998693          	addi	a3,s3,249
    80003d90:	8df5                	and	a1,a1,a3
    80003d92:	058e                	slli	a1,a1,0x3
    80003d94:	95aa                	add	a1,a1,a0
    80003d96:	0005bf03          	ld	t5,0(a1)
    80003d9a:	01863803          	ld	a6,24(a2)
    80003d9e:	4d01                	li	s10,0
    80003da0:	4081                	li	ra,0
    80003da2:	25013403          	ld	s0,592(sp)
    80003da6:	e30d                	bnez	a4,80003dc8 <bilateral_core+0x1bce>
    80003da8:	00aa6593          	ori	a1,s4,10
    80003dac:	23013683          	ld	a3,560(sp)
    80003db0:	95b6                	add	a1,a1,a3
    80003db2:	25813683          	ld	a3,600(sp)
    80003db6:	0fa68693          	addi	a3,a3,250
    80003dba:	8df5                	and	a1,a1,a3
    80003dbc:	058e                	slli	a1,a1,0x3
    80003dbe:	95aa                	add	a1,a1,a0
    80003dc0:	0005bd03          	ld	s10,0(a1)
    80003dc4:	02063083          	ld	ra,32(a2)
    80003dc8:	4981                	li	s3,0
    80003dca:	4281                	li	t0,0
    80003dcc:	4381                	li	t2,0
    80003dce:	4e01                	li	t3,0
    80003dd0:	4301                	li	t1,0
    80003dd2:	4681                	li	a3,0
    80003dd4:	e031                	bnez	s0,80003e18 <bilateral_core+0x1c1e>
    80003dd6:	23813703          	ld	a4,568(sp)
    80003dda:	75fa                	ld	a1,440(sp)
    80003ddc:	95ba                	add	a1,a1,a4
    80003dde:	76be                	ld	a3,488(sp)
    80003de0:	8df5                	and	a1,a1,a3
    80003de2:	058e                	slli	a1,a1,0x3
    80003de4:	95aa                	add	a1,a1,a0
    80003de6:	0005b383          	ld	t2,0(a1)
    80003dea:	02863e03          	ld	t3,40(a2)
    80003dee:	75da                	ld	a1,432(sp)
    80003df0:	95ba                	add	a1,a1,a4
    80003df2:	25813683          	ld	a3,600(sp)
    80003df6:	0f768693          	addi	a3,a3,247
    80003dfa:	8df5                	and	a1,a1,a3
    80003dfc:	058e                	slli	a1,a1,0x3
    80003dfe:	95aa                	add	a1,a1,a0
    80003e00:	0005b283          	ld	t0,0(a1)
    80003e04:	03063983          	ld	s3,48(a2)
    80003e08:	75ba                	ld	a1,424(sp)
    80003e0a:	769a                	ld	a3,416(sp)
    80003e0c:	95b6                	add	a1,a1,a3
    80003e0e:	058e                	slli	a1,a1,0x3
    80003e10:	95aa                	add	a1,a1,a0
    80003e12:	0005b303          	ld	t1,0(a1)
    80003e16:	7e14                	ld	a3,56(a2)
    80003e18:	4a01                	li	s4,0
    80003e1a:	4e81                	li	t4,0
    80003e1c:	4701                	li	a4,0
    80003e1e:	4781                	li	a5,0
    80003e20:	ec05                	bnez	s0,80003e58 <bilateral_core+0x1c5e>
    80003e22:	23813403          	ld	s0,568(sp)
    80003e26:	65da                	ld	a1,400(sp)
    80003e28:	95a2                	add	a1,a1,s0
    80003e2a:	25813783          	ld	a5,600(sp)
    80003e2e:	0f978713          	addi	a4,a5,249
    80003e32:	8df9                	and	a1,a1,a4
    80003e34:	058e                	slli	a1,a1,0x3
    80003e36:	95aa                	add	a1,a1,a0
    80003e38:	0005be83          	ld	t4,0(a1)
    80003e3c:	04063a03          	ld	s4,64(a2)
    80003e40:	27813583          	ld	a1,632(sp)
    80003e44:	00a5e713          	ori	a4,a1,10
    80003e48:	9722                	add	a4,a4,s0
    80003e4a:	0fa78793          	addi	a5,a5,250
    80003e4e:	8f7d                	and	a4,a4,a5
    80003e50:	070e                	slli	a4,a4,0x3
    80003e52:	972a                	add	a4,a4,a0
    80003e54:	6318                	ld	a4,0(a4)
    80003e56:	663c                	ld	a5,72(a2)
    80003e58:	8108840b          	.insn	4, 0x8108840b
    80003e5c:	615c840b          	.insn	4, 0x615c840b
    80003e60:	41e9040b          	.insn	4, 0x41e9040b
    80003e64:	21bc040b          	.insn	4, 0x21bc040b
    80003e68:	29013a83          	ld	s5,656(sp)
    80003e6c:	015f947b          	.insn	4, 0x015f947b
    80003e70:	008408ab          	.insn	4, 0x008408ab
    80003e74:	84d9868b          	.insn	4, 0x84d9868b
    80003e78:	65c0868b          	.insn	4, 0x65c0868b
    80003e7c:	4462868b          	.insn	4, 0x4462868b
    80003e80:	247d068b          	.insn	4, 0x247d068b
    80003e84:	415f96fb          	.insn	4, 0x415f96fb
    80003e88:	04d6832b          	.insn	4, 0x04d6832b
    80003e8c:	f2040153          	fmv.d.x	ft2,s0
    80003e90:	02017153          	fadd.d	ft2,ft2,ft0
    80003e94:	f20681d3          	fmv.d.x	ft3,a3
    80003e98:	000b3683          	ld	a3,0(s6)
    80003e9c:	6a20                	ld	s0,80(a2)
    80003e9e:	25813583          	ld	a1,600(sp)
    80003ea2:	0f758593          	addi	a1,a1,247
    80003ea6:	f3ae                	sd	a1,480(sp)
    80003ea8:	64d6                	ld	s1,336(sp)
    80003eaa:	8de5                	and	a1,a1,s1
    80003eac:	058e                	slli	a1,a1,0x3
    80003eae:	00b50c33          	add	s8,a0,a1
    80003eb2:	000c3583          	ld	a1,0(s8)
    80003eb6:	6e24                	ld	s1,88(a2)
    80003eb8:	02317153          	fadd.d	ft2,ft2,ft3
    80003ebc:	68fa078b          	.insn	4, 0x68fa078b
    80003ec0:	28ee870b          	.insn	4, 0x28ee870b
    80003ec4:	095f870b          	.insn	4, 0x095f870b
    80003ec8:	48b6858b          	.insn	4, 0x48b6858b
    80003ecc:	909416fb          	.insn	4, 0x909416fb
    80003ed0:	08d683ab          	.insn	4, 0x08d683ab
    80003ed4:	06063e03          	ld	t3,96(a2)
    80003ed8:	8a5e                	mv	s4,s7
    80003eda:	000bbe83          	ld	t4,0(s7)
    80003ede:	06863f03          	ld	t5,104(a2)
    80003ee2:	27813283          	ld	t0,632(sp)
    80003ee6:	00a2e793          	ori	a5,t0,10
    80003eea:	26013583          	ld	a1,608(sp)
    80003eee:	95be                	add	a1,a1,a5
    80003ef0:	fa2e                	sd	a1,304(sp)
    80003ef2:	058e                	slli	a1,a1,0x3
    80003ef4:	ee2e                	sd	a1,280(sp)
    80003ef6:	00b50833          	add	a6,a0,a1
    80003efa:	00083403          	ld	s0,0(a6)
    80003efe:	07063903          	ld	s2,112(a2)
    80003f02:	22813583          	ld	a1,552(sp)
    80003f06:	618c                	ld	a1,0(a1)
    80003f08:	7e38                	ld	a4,120(a2)
    80003f0a:	0d5f848b          	.insn	4, 0x0d5f848b
    80003f0e:	2ddf848b          	.insn	4, 0x2ddf848b
    80003f12:	6dee048b          	.insn	4, 0x6dee048b
    80003f16:	4cb4058b          	.insn	4, 0x4cb4058b
    80003f1a:	d0e9177b          	.insn	4, 0xd0e9177b
    80003f1e:	0ce70e2b          	.insn	4, 0x0ce70e2b
    80003f22:	f20681d3          	fmv.d.x	ft3,a3
    80003f26:	02317153          	fadd.d	ft2,ft2,ft3
    80003f2a:	f20701d3          	fmv.d.x	ft3,a4
    80003f2e:	65de                	ld	a1,464(sp)
    80003f30:	0005be83          	ld	t4,0(a1)
    80003f34:	08063f03          	ld	t5,128(a2)
    80003f38:	65be                	ld	a1,456(sp)
    80003f3a:	0005b983          	ld	s3,0(a1)
    80003f3e:	6644                	ld	s1,136(a2)
    80003f40:	659e                	ld	a1,448(sp)
    80003f42:	6180                	ld	s0,0(a1)
    80003f44:	09063903          	ld	s2,144(a2)
    80003f48:	24013583          	ld	a1,576(sp)
    80003f4c:	ff3e                	sd	a5,440(sp)
    80003f4e:	00f586b3          	add	a3,a1,a5
    80003f52:	068e                	slli	a3,a3,0x3
    80003f54:	00d505b3          	add	a1,a0,a3
    80003f58:	22b13423          	sd	a1,552(sp)
    80003f5c:	6194                	ld	a3,0(a1)
    80003f5e:	6e58                	ld	a4,152(a2)
    80003f60:	02317153          	fadd.d	ft2,ft2,ft3
    80003f64:	1d5f858b          	.insn	4, 0x1d5f858b
    80003f68:	3d3e858b          	.insn	4, 0x3d3e858b
    80003f6c:	7c9f058b          	.insn	4, 0x7c9f058b
    80003f70:	5cd4058b          	.insn	4, 0x5cd4058b
    80003f74:	d0e91efb          	.insn	4, 0xd0e91efb
    80003f78:	75f6                	ld	a1,376(sp)
    80003f7a:	0005bf03          	ld	t5,0(a1)
    80003f7e:	0a063903          	ld	s2,160(a2)
    80003f82:	65fa                	ld	a1,408(sp)
    80003f84:	6198                	ld	a4,0(a1)
    80003f86:	7644                	ld	s1,168(a2)
    80003f88:	7596                	ld	a1,352(sp)
    80003f8a:	6180                	ld	s0,0(a1)
    80003f8c:	7a4c                	ld	a1,176(a2)
    80003f8e:	24813683          	ld	a3,584(sp)
    80003f92:	67da                	ld	a5,400(sp)
    80003f94:	96be                	add	a3,a3,a5
    80003f96:	068e                	slli	a3,a3,0x3
    80003f98:	96aa                	add	a3,a3,a0
    80003f9a:	eeb6                	sd	a3,344(sp)
    80003f9c:	6294                	ld	a3,0(a3)
    80003f9e:	7e5c                	ld	a5,184(a2)
    80003fa0:	3cef075b          	.insn	4, 0x3cef075b
    80003fa4:	7c99048b          	.insn	4, 0x7c99048b
    80003fa8:	5cd4068b          	.insn	4, 0x5cd4068b
    80003fac:	d0f595fb          	.insn	4, 0xd0f595fb
    80003fb0:	f20e81d3          	fmv.d.x	ft3,t4
    80003fb4:	02317153          	fadd.d	ft2,ft2,ft3
    80003fb8:	27013683          	ld	a3,624(sp)
    80003fbc:	20a68693          	addi	a3,a3,522
    80003fc0:	068e                	slli	a3,a3,0x3
    80003fc2:	96aa                	add	a3,a3,a0
    80003fc4:	6294                	ld	a3,0(a3)
    80003fc6:	627c                	ld	a5,192(a2)
    80003fc8:	f20581d3          	fmv.d.x	ft3,a1
    80003fcc:	3c06845b          	.insn	4, 0x3c06845b
    80003fd0:	cc0795fb          	.insn	4, 0xcc0795fb
    80003fd4:	1cb586ab          	.insn	4, 0x1cb586ab
    80003fd8:	02317153          	fadd.d	ft2,ft2,ft3
    80003fdc:	f20581d3          	fmv.d.x	ft3,a1
    80003fe0:	02317153          	fadd.d	ft2,ft2,ft3
    80003fe4:	a22095d3          	flt.d	a1,ft1,ft2
    80003fe8:	c1a9                	beqz	a1,8000402a <bilateral_core+0x1e30>
    80003fea:	f20881d3          	fmv.d.x	ft3,a7
    80003fee:	0201f1d3          	fadd.d	ft3,ft3,ft0
    80003ff2:	f2030253          	fmv.d.x	ft4,t1
    80003ff6:	0241f1d3          	fadd.d	ft3,ft3,ft4
    80003ffa:	f2038253          	fmv.d.x	ft4,t2
    80003ffe:	0241f1d3          	fadd.d	ft3,ft3,ft4
    80004002:	f20e0253          	fmv.d.x	ft4,t3
    80004006:	0241f1d3          	fadd.d	ft3,ft3,ft4
    8000400a:	f2070253          	fmv.d.x	ft4,a4
    8000400e:	0241f1d3          	fadd.d	ft3,ft3,ft4
    80004012:	f2040253          	fmv.d.x	ft4,s0
    80004016:	0241f1d3          	fadd.d	ft3,ft3,ft4
    8000401a:	f2068253          	fmv.d.x	ft4,a3
    8000401e:	0241f1d3          	fadd.d	ft3,ft3,ft4
    80004022:	1a21f153          	fdiv.d	ft2,ft3,ft2
    80004026:	e2010fd3          	fmv.x.d	t6,ft2
    8000402a:	4f01                	li	t5,0
    8000402c:	4b81                	li	s7,0
    8000402e:	4d81                	li	s11,0
    80004030:	4e01                	li	t3,0
    80004032:	4081                	li	ra,0
    80004034:	4881                	li	a7,0
    80004036:	4901                	li	s2,0
    80004038:	28813583          	ld	a1,648(sp)
    8000403c:	76b2                	ld	a3,296(sp)
    8000403e:	95b6                	add	a1,a1,a3
    80004040:	01f5b023          	sd	t6,0(a1)
    80004044:	000a3f83          	ld	t6,0(s4)
    80004048:	4b01                	li	s6,0
    8000404a:	26813783          	ld	a5,616(sp)
    8000404e:	efb9                	bnez	a5,800040ac <bilateral_core+0x1eb2>
    80004050:	23013483          	ld	s1,560(sp)
    80004054:	75da                	ld	a1,432(sp)
    80004056:	95a6                	add	a1,a1,s1
    80004058:	769e                	ld	a3,480(sp)
    8000405a:	8df5                	and	a1,a1,a3
    8000405c:	058e                	slli	a1,a1,0x3
    8000405e:	95aa                	add	a1,a1,a0
    80004060:	0005be03          	ld	t3,0(a1)
    80004064:	00063d83          	ld	s11,0(a2)
    80004068:	759a                	ld	a1,416(sp)
    8000406a:	95a6                	add	a1,a1,s1
    8000406c:	25813703          	ld	a4,600(sp)
    80004070:	0f870693          	addi	a3,a4,248
    80004074:	8df5                	and	a1,a1,a3
    80004076:	058e                	slli	a1,a1,0x3
    80004078:	95aa                	add	a1,a1,a0
    8000407a:	0005b083          	ld	ra,0(a1)
    8000407e:	00863883          	ld	a7,8(a2)
    80004082:	21813583          	ld	a1,536(sp)
    80004086:	66da                	ld	a3,400(sp)
    80004088:	95b6                	add	a1,a1,a3
    8000408a:	058e                	slli	a1,a1,0x3
    8000408c:	95aa                	add	a1,a1,a0
    8000408e:	0005bb83          	ld	s7,0(a1)
    80004092:	01063f03          	ld	t5,16(a2)
    80004096:	75fa                	ld	a1,440(sp)
    80004098:	95a6                	add	a1,a1,s1
    8000409a:	0fa70693          	addi	a3,a4,250
    8000409e:	8df5                	and	a1,a1,a3
    800040a0:	058e                	slli	a1,a1,0x3
    800040a2:	95aa                	add	a1,a1,a0
    800040a4:	0005b903          	ld	s2,0(a1)
    800040a8:	01863b03          	ld	s6,24(a2)
    800040ac:	4981                	li	s3,0
    800040ae:	4d01                	li	s10,0
    800040b0:	25013703          	ld	a4,592(sp)
    800040b4:	e38d                	bnez	a5,800040d6 <bilateral_core+0x1edc>
    800040b6:	00b2e593          	ori	a1,t0,11
    800040ba:	23013683          	ld	a3,560(sp)
    800040be:	95b6                	add	a1,a1,a3
    800040c0:	25813683          	ld	a3,600(sp)
    800040c4:	0fb68693          	addi	a3,a3,251
    800040c8:	8df5                	and	a1,a1,a3
    800040ca:	058e                	slli	a1,a1,0x3
    800040cc:	95aa                	add	a1,a1,a0
    800040ce:	0005b983          	ld	s3,0(a1)
    800040d2:	02063d03          	ld	s10,32(a2)
    800040d6:	4a81                	li	s5,0
    800040d8:	4381                	li	t2,0
    800040da:	4c81                	li	s9,0
    800040dc:	4301                	li	t1,0
    800040de:	4781                	li	a5,0
    800040e0:	4481                	li	s1,0
    800040e2:	e329                	bnez	a4,80004124 <bilateral_core+0x1f2a>
    800040e4:	23813783          	ld	a5,568(sp)
    800040e8:	75da                	ld	a1,432(sp)
    800040ea:	95be                	add	a1,a1,a5
    800040ec:	769e                	ld	a3,480(sp)
    800040ee:	8df5                	and	a1,a1,a3
    800040f0:	058e                	slli	a1,a1,0x3
    800040f2:	95aa                	add	a1,a1,a0
    800040f4:	0005bc83          	ld	s9,0(a1)
    800040f8:	02863303          	ld	t1,40(a2)
    800040fc:	759a                	ld	a1,416(sp)
    800040fe:	95be                	add	a1,a1,a5
    80004100:	25813683          	ld	a3,600(sp)
    80004104:	0f868693          	addi	a3,a3,248
    80004108:	8df5                	and	a1,a1,a3
    8000410a:	058e                	slli	a1,a1,0x3
    8000410c:	95aa                	add	a1,a1,a0
    8000410e:	0005b383          	ld	t2,0(a1)
    80004112:	03063a83          	ld	s5,48(a2)
    80004116:	75ba                	ld	a1,424(sp)
    80004118:	66da                	ld	a3,400(sp)
    8000411a:	95b6                	add	a1,a1,a3
    8000411c:	058e                	slli	a1,a1,0x3
    8000411e:	95aa                	add	a1,a1,a0
    80004120:	619c                	ld	a5,0(a1)
    80004122:	7e04                	ld	s1,56(a2)
    80004124:	4e81                	li	t4,0
    80004126:	4a01                	li	s4,0
    80004128:	4281                	li	t0,0
    8000412a:	4581                	li	a1,0
    8000412c:	ef0d                	bnez	a4,80004166 <bilateral_core+0x1f6c>
    8000412e:	23813403          	ld	s0,568(sp)
    80004132:	75fa                	ld	a1,440(sp)
    80004134:	95a2                	add	a1,a1,s0
    80004136:	25813703          	ld	a4,600(sp)
    8000413a:	0fa70693          	addi	a3,a4,250
    8000413e:	8df5                	and	a1,a1,a3
    80004140:	058e                	slli	a1,a1,0x3
    80004142:	95aa                	add	a1,a1,a0
    80004144:	0005ba03          	ld	s4,0(a1)
    80004148:	04063e83          	ld	t4,64(a2)
    8000414c:	27813583          	ld	a1,632(sp)
    80004150:	00b5e593          	ori	a1,a1,11
    80004154:	95a2                	add	a1,a1,s0
    80004156:	0fb70413          	addi	s0,a4,251
    8000415a:	8de1                	and	a1,a1,s0
    8000415c:	058e                	slli	a1,a1,0x3
    8000415e:	95aa                	add	a1,a1,a0
    80004160:	0005b283          	ld	t0,0(a1)
    80004164:	662c                	ld	a1,72(a2)
    80004166:	816f068b          	.insn	4, 0x816f068b
    8000416a:	611d868b          	.insn	4, 0x611d868b
    8000416e:	412b868b          	.insn	4, 0x412b868b
    80004172:	201e068b          	.insn	4, 0x201e068b
    80004176:	29013403          	ld	s0,656(sp)
    8000417a:	008f96fb          	.insn	4, 0x008f96fb
    8000417e:	00d688ab          	.insn	4, 0x00d688ab
    80004182:	849a848b          	.insn	4, 0x849a848b
    80004186:	646d048b          	.insn	4, 0x646d048b
    8000418a:	44f3878b          	.insn	4, 0x44f3878b
    8000418e:	2599878b          	.insn	4, 0x2599878b
    80004192:	408f97fb          	.insn	4, 0x408f97fb
    80004196:	04f7832b          	.insn	4, 0x04f7832b
    8000419a:	f2068153          	fmv.d.x	ft2,a3
    8000419e:	02017153          	fadd.d	ft2,ft2,ft0
    800041a2:	f20781d3          	fmv.d.x	ft3,a5
    800041a6:	000c3683          	ld	a3,0(s8)
    800041aa:	6a3c                	ld	a5,80(a2)
    800041ac:	25813703          	ld	a4,600(sp)
    800041b0:	0f870713          	addi	a4,a4,248
    800041b4:	efba                	sd	a4,472(sp)
    800041b6:	64b6                	ld	s1,328(sp)
    800041b8:	8cf9                	and	s1,s1,a4
    800041ba:	048e                	slli	s1,s1,0x3
    800041bc:	00950b33          	add	s6,a0,s1
    800041c0:	000b3483          	ld	s1,0(s6)
    800041c4:	6e38                	ld	a4,88(a2)
    800041c6:	02317153          	fadd.d	ft2,ft2,ft3
    800041ca:	68be858b          	.insn	4, 0x68be858b
    800041ce:	285a058b          	.insn	4, 0x285a058b
    800041d2:	088f858b          	.insn	4, 0x088f858b
    800041d6:	4896858b          	.insn	4, 0x4896858b
    800041da:	90e796fb          	.insn	4, 0x90e796fb
    800041de:	08d683ab          	.insn	4, 0x08d683ab
    800041e2:	06063e03          	ld	t3,96(a2)
    800041e6:	00083e83          	ld	t4,0(a6)
    800041ea:	06863f03          	ld	t5,104(a2)
    800041ee:	27813a03          	ld	s4,632(sp)
    800041f2:	00ba6493          	ori	s1,s4,11
    800041f6:	26013583          	ld	a1,608(sp)
    800041fa:	95a6                	add	a1,a1,s1
    800041fc:	e6ae                	sd	a1,328(sp)
    800041fe:	058e                	slli	a1,a1,0x3
    80004200:	ea2e                	sd	a1,272(sp)
    80004202:	00b500b3          	add	ra,a0,a1
    80004206:	0000b903          	ld	s2,0(ra)
    8000420a:	07063283          	ld	t0,112(a2)
    8000420e:	65de                	ld	a1,464(sp)
    80004210:	618c                	ld	a1,0(a1)
    80004212:	7e38                	ld	a4,120(a2)
    80004214:	0c8f878b          	.insn	4, 0x0c8f878b
    80004218:	2ddf878b          	.insn	4, 0x2ddf878b
    8000421c:	6dee078b          	.insn	4, 0x6dee078b
    80004220:	4cb9058b          	.insn	4, 0x4cb9058b
    80004224:	d0e2977b          	.insn	4, 0xd0e2977b
    80004228:	0ce70e2b          	.insn	4, 0x0ce70e2b
    8000422c:	f20681d3          	fmv.d.x	ft3,a3
    80004230:	02317153          	fadd.d	ft2,ft2,ft3
    80004234:	f20701d3          	fmv.d.x	ft3,a4
    80004238:	65be                	ld	a1,456(sp)
    8000423a:	0005be83          	ld	t4,0(a1)
    8000423e:	08063f03          	ld	t5,128(a2)
    80004242:	659e                	ld	a1,448(sp)
    80004244:	619c                	ld	a5,0(a1)
    80004246:	08863983          	ld	s3,136(a2)
    8000424a:	22813583          	ld	a1,552(sp)
    8000424e:	0005b283          	ld	t0,0(a1)
    80004252:	09063903          	ld	s2,144(a2)
    80004256:	24013583          	ld	a1,576(sp)
    8000425a:	fea6                	sd	s1,376(sp)
    8000425c:	009586b3          	add	a3,a1,s1
    80004260:	068e                	slli	a3,a3,0x3
    80004262:	00d505b3          	add	a1,a0,a3
    80004266:	fb2e                	sd	a1,432(sp)
    80004268:	6194                	ld	a3,0(a1)
    8000426a:	6e58                	ld	a4,152(a2)
    8000426c:	02317153          	fadd.d	ft2,ft2,ft3
    80004270:	1c8f858b          	.insn	4, 0x1c8f858b
    80004274:	3cfe858b          	.insn	4, 0x3cfe858b
    80004278:	7d3f058b          	.insn	4, 0x7d3f058b
    8000427c:	5cd2858b          	.insn	4, 0x5cd2858b
    80004280:	d0e91efb          	.insn	4, 0xd0e91efb
    80004284:	65fa                	ld	a1,408(sp)
    80004286:	0005bf03          	ld	t5,0(a1)
    8000428a:	0a063903          	ld	s2,160(a2)
    8000428e:	7596                	ld	a1,352(sp)
    80004290:	619c                	ld	a5,0(a1)
    80004292:	7644                	ld	s1,168(a2)
    80004294:	65f6                	ld	a1,344(sp)
    80004296:	6180                	ld	s0,0(a1)
    80004298:	7a4c                	ld	a1,176(a2)
    8000429a:	24813683          	ld	a3,584(sp)
    8000429e:	777a                	ld	a4,440(sp)
    800042a0:	96ba                	add	a3,a3,a4
    800042a2:	068e                	slli	a3,a3,0x3
    800042a4:	96aa                	add	a3,a3,a0
    800042a6:	eab6                	sd	a3,336(sp)
    800042a8:	6294                	ld	a3,0(a3)
    800042aa:	7e58                	ld	a4,184(a2)
    800042ac:	3cff0f5b          	.insn	4, 0x3cff0f5b
    800042b0:	7c99078b          	.insn	4, 0x7c99078b
    800042b4:	5cd4068b          	.insn	4, 0x5cd4068b
    800042b8:	d0e595fb          	.insn	4, 0xd0e595fb
    800042bc:	f20e81d3          	fmv.d.x	ft3,t4
    800042c0:	02317153          	fadd.d	ft2,ft2,ft3
    800042c4:	27013683          	ld	a3,624(sp)
    800042c8:	20b68693          	addi	a3,a3,523
    800042cc:	068e                	slli	a3,a3,0x3
    800042ce:	96aa                	add	a3,a3,a0
    800042d0:	6294                	ld	a3,0(a3)
    800042d2:	6278                	ld	a4,192(a2)
    800042d4:	f20581d3          	fmv.d.x	ft3,a1
    800042d8:	3c0684db          	.insn	4, 0x3c0684db
    800042dc:	cc0715fb          	.insn	4, 0xcc0715fb
    800042e0:	1cb587ab          	.insn	4, 0x1cb587ab
    800042e4:	02317153          	fadd.d	ft2,ft2,ft3
    800042e8:	f20581d3          	fmv.d.x	ft3,a1
    800042ec:	02317153          	fadd.d	ft2,ft2,ft3
    800042f0:	a22095d3          	flt.d	a1,ft1,ft2
    800042f4:	c1a9                	beqz	a1,80004336 <bilateral_core+0x213c>
    800042f6:	f20881d3          	fmv.d.x	ft3,a7
    800042fa:	0201f1d3          	fadd.d	ft3,ft3,ft0
    800042fe:	f2030253          	fmv.d.x	ft4,t1
    80004302:	0241f1d3          	fadd.d	ft3,ft3,ft4
    80004306:	f2038253          	fmv.d.x	ft4,t2
    8000430a:	0241f1d3          	fadd.d	ft3,ft3,ft4
    8000430e:	f20e0253          	fmv.d.x	ft4,t3
    80004312:	0241f1d3          	fadd.d	ft3,ft3,ft4
    80004316:	f20f0253          	fmv.d.x	ft4,t5
    8000431a:	0241f1d3          	fadd.d	ft3,ft3,ft4
    8000431e:	f2048253          	fmv.d.x	ft4,s1
    80004322:	0241f1d3          	fadd.d	ft3,ft3,ft4
    80004326:	f2078253          	fmv.d.x	ft4,a5
    8000432a:	0241f1d3          	fadd.d	ft3,ft3,ft4
    8000432e:	1a21f153          	fdiv.d	ft2,ft3,ft2
    80004332:	e2010fd3          	fmv.x.d	t6,ft2
    80004336:	4881                	li	a7,0
    80004338:	4901                	li	s2,0
    8000433a:	4c01                	li	s8,0
    8000433c:	4381                	li	t2,0
    8000433e:	4d81                	li	s11,0
    80004340:	4b81                	li	s7,0
    80004342:	4f01                	li	t5,0
    80004344:	28813583          	ld	a1,648(sp)
    80004348:	7692                	ld	a3,288(sp)
    8000434a:	95b6                	add	a1,a1,a3
    8000434c:	01f5b023          	sd	t6,0(a1)
    80004350:	00083283          	ld	t0,0(a6)
    80004354:	4801                	li	a6,0
    80004356:	26813783          	ld	a5,616(sp)
    8000435a:	efb9                	bnez	a5,800043b8 <bilateral_core+0x21be>
    8000435c:	23013483          	ld	s1,560(sp)
    80004360:	759a                	ld	a1,416(sp)
    80004362:	95a6                	add	a1,a1,s1
    80004364:	66fe                	ld	a3,472(sp)
    80004366:	8df5                	and	a1,a1,a3
    80004368:	058e                	slli	a1,a1,0x3
    8000436a:	95aa                	add	a1,a1,a0
    8000436c:	0005b383          	ld	t2,0(a1)
    80004370:	00063c03          	ld	s8,0(a2)
    80004374:	65da                	ld	a1,400(sp)
    80004376:	95a6                	add	a1,a1,s1
    80004378:	25813703          	ld	a4,600(sp)
    8000437c:	0f970693          	addi	a3,a4,249
    80004380:	8df5                	and	a1,a1,a3
    80004382:	058e                	slli	a1,a1,0x3
    80004384:	95aa                	add	a1,a1,a0
    80004386:	0005bd83          	ld	s11,0(a1)
    8000438a:	00863b83          	ld	s7,8(a2)
    8000438e:	21813583          	ld	a1,536(sp)
    80004392:	76fa                	ld	a3,440(sp)
    80004394:	95b6                	add	a1,a1,a3
    80004396:	058e                	slli	a1,a1,0x3
    80004398:	95aa                	add	a1,a1,a0
    8000439a:	0005b903          	ld	s2,0(a1)
    8000439e:	01063883          	ld	a7,16(a2)
    800043a2:	75f6                	ld	a1,376(sp)
    800043a4:	95a6                	add	a1,a1,s1
    800043a6:	0fb70693          	addi	a3,a4,251
    800043aa:	8df5                	and	a1,a1,a3
    800043ac:	058e                	slli	a1,a1,0x3
    800043ae:	95aa                	add	a1,a1,a0
    800043b0:	0005bf03          	ld	t5,0(a1)
    800043b4:	01863803          	ld	a6,24(a2)
    800043b8:	4981                	li	s3,0
    800043ba:	4d01                	li	s10,0
    800043bc:	e38d                	bnez	a5,800043de <bilateral_core+0x21e4>
    800043be:	00ca6593          	ori	a1,s4,12
    800043c2:	23013683          	ld	a3,560(sp)
    800043c6:	95b6                	add	a1,a1,a3
    800043c8:	25813683          	ld	a3,600(sp)
    800043cc:	0fc68693          	addi	a3,a3,252
    800043d0:	8df5                	and	a1,a1,a3
    800043d2:	058e                	slli	a1,a1,0x3
    800043d4:	95aa                	add	a1,a1,a0
    800043d6:	0005b983          	ld	s3,0(a1)
    800043da:	02063d03          	ld	s10,32(a2)
    800043de:	4a81                	li	s5,0
    800043e0:	4e01                	li	t3,0
    800043e2:	4c81                	li	s9,0
    800043e4:	4301                	li	t1,0
    800043e6:	4401                	li	s0,0
    800043e8:	4701                	li	a4,0
    800043ea:	25013483          	ld	s1,592(sp)
    800043ee:	e0a9                	bnez	s1,80004430 <bilateral_core+0x2236>
    800043f0:	23813703          	ld	a4,568(sp)
    800043f4:	759a                	ld	a1,416(sp)
    800043f6:	95ba                	add	a1,a1,a4
    800043f8:	66fe                	ld	a3,472(sp)
    800043fa:	8df5                	and	a1,a1,a3
    800043fc:	058e                	slli	a1,a1,0x3
    800043fe:	95aa                	add	a1,a1,a0
    80004400:	0005bc83          	ld	s9,0(a1)
    80004404:	02863303          	ld	t1,40(a2)
    80004408:	65da                	ld	a1,400(sp)
    8000440a:	95ba                	add	a1,a1,a4
    8000440c:	25813683          	ld	a3,600(sp)
    80004410:	0f968693          	addi	a3,a3,249
    80004414:	8df5                	and	a1,a1,a3
    80004416:	058e                	slli	a1,a1,0x3
    80004418:	95aa                	add	a1,a1,a0
    8000441a:	0005be03          	ld	t3,0(a1)
    8000441e:	03063a83          	ld	s5,48(a2)
    80004422:	75ba                	ld	a1,424(sp)
    80004424:	76fa                	ld	a3,440(sp)
    80004426:	95b6                	add	a1,a1,a3
    80004428:	058e                	slli	a1,a1,0x3
    8000442a:	95aa                	add	a1,a1,a0
    8000442c:	6180                	ld	s0,0(a1)
    8000442e:	7e18                	ld	a4,56(a2)
    80004430:	4f81                	li	t6,0
    80004432:	4e81                	li	t4,0
    80004434:	4581                	li	a1,0
    80004436:	4781                	li	a5,0
    80004438:	e895                	bnez	s1,8000446c <bilateral_core+0x2272>
    8000443a:	23813483          	ld	s1,568(sp)
    8000443e:	75f6                	ld	a1,376(sp)
    80004440:	95a6                	add	a1,a1,s1
    80004442:	25813783          	ld	a5,600(sp)
    80004446:	0fb78693          	addi	a3,a5,251
    8000444a:	8df5                	and	a1,a1,a3
    8000444c:	058e                	slli	a1,a1,0x3
    8000444e:	95aa                	add	a1,a1,a0
    80004450:	0005be83          	ld	t4,0(a1)
    80004454:	04063f83          	ld	t6,64(a2)
    80004458:	00ca6593          	ori	a1,s4,12
    8000445c:	95a6                	add	a1,a1,s1
    8000445e:	0fc78793          	addi	a5,a5,252
    80004462:	8dfd                	and	a1,a1,a5
    80004464:	058e                	slli	a1,a1,0x3
    80004466:	95aa                	add	a1,a1,a0
    80004468:	618c                	ld	a1,0(a1)
    8000446a:	663c                	ld	a5,72(a2)
    8000446c:	8108868b          	.insn	4, 0x8108868b
    80004470:	617c068b          	.insn	4, 0x617c068b
    80004474:	41e9068b          	.insn	4, 0x41e9068b
    80004478:	21b3868b          	.insn	4, 0x21b3868b
    8000447c:	29013383          	ld	t2,656(sp)
    80004480:	007296fb          	.insn	4, 0x007296fb
    80004484:	00d688ab          	.insn	4, 0x00d688ab
    80004488:	84ea870b          	.insn	4, 0x84ea870b
    8000448c:	646d070b          	.insn	4, 0x646d070b
    80004490:	448e070b          	.insn	4, 0x448e070b
    80004494:	2599870b          	.insn	4, 0x2599870b
    80004498:	4072977b          	.insn	4, 0x4072977b
    8000449c:	04e7082b          	.insn	4, 0x04e7082b
    800044a0:	f2068153          	fmv.d.x	ft2,a3
    800044a4:	02017153          	fadd.d	ft2,ft2,ft0
    800044a8:	f20701d3          	fmv.d.x	ft3,a4
    800044ac:	000b3683          	ld	a3,0(s6)
    800044b0:	6a38                	ld	a4,80(a2)
    800044b2:	25813483          	ld	s1,600(sp)
    800044b6:	0f948493          	addi	s1,s1,249
    800044ba:	eba6                	sd	s1,464(sp)
    800044bc:	7472                	ld	s0,312(sp)
    800044be:	8c65                	and	s0,s0,s1
    800044c0:	040e                	slli	s0,s0,0x3
    800044c2:	00850b33          	add	s6,a0,s0
    800044c6:	000b3403          	ld	s0,0(s6)
    800044ca:	6e24                	ld	s1,88(a2)
    800044cc:	02317153          	fadd.d	ft2,ft2,ft3
    800044d0:	68ff878b          	.insn	4, 0x68ff878b
    800044d4:	28be858b          	.insn	4, 0x28be858b
    800044d8:	0872858b          	.insn	4, 0x0872858b
    800044dc:	4886858b          	.insn	4, 0x4886858b
    800044e0:	909715fb          	.insn	4, 0x909715fb
    800044e4:	08b5832b          	.insn	4, 0x08b5832b
    800044e8:	06063e03          	ld	t3,96(a2)
    800044ec:	0000be83          	ld	t4,0(ra)
    800044f0:	06863f03          	ld	t5,104(a2)
    800044f4:	00ca6713          	ori	a4,s4,12
    800044f8:	26013683          	ld	a3,608(sp)
    800044fc:	96ba                	add	a3,a3,a4
    800044fe:	f636                	sd	a3,296(sp)
    80004500:	068e                	slli	a3,a3,0x3
    80004502:	e636                	sd	a3,264(sp)
    80004504:	96aa                	add	a3,a3,a0
    80004506:	fe36                	sd	a3,312(sp)
    80004508:	6280                	ld	s0,0(a3)
    8000450a:	07063f83          	ld	t6,112(a2)
    8000450e:	66be                	ld	a3,456(sp)
    80004510:	6294                	ld	a3,0(a3)
    80004512:	7e3c                	ld	a5,120(a2)
    80004514:	0c72848b          	.insn	4, 0x0c72848b
    80004518:	2dd2848b          	.insn	4, 0x2dd2848b
    8000451c:	6dee048b          	.insn	4, 0x6dee048b
    80004520:	4cd4068b          	.insn	4, 0x4cd4068b
    80004524:	d0ff96fb          	.insn	4, 0xd0ff96fb
    80004528:	0cd68e2b          	.insn	4, 0x0cd68e2b
    8000452c:	f20581d3          	fmv.d.x	ft3,a1
    80004530:	02317153          	fadd.d	ft2,ft2,ft3
    80004534:	f20681d3          	fmv.d.x	ft3,a3
    80004538:	659e                	ld	a1,448(sp)
    8000453a:	0005be83          	ld	t4,0(a1)
    8000453e:	08063f03          	ld	t5,128(a2)
    80004542:	22813583          	ld	a1,552(sp)
    80004546:	0005bf83          	ld	t6,0(a1)
    8000454a:	6644                	ld	s1,136(a2)
    8000454c:	75da                	ld	a1,432(sp)
    8000454e:	6180                	ld	s0,0(a1)
    80004550:	6a5c                	ld	a5,144(a2)
    80004552:	24013583          	ld	a1,576(sp)
    80004556:	e73a                	sd	a4,392(sp)
    80004558:	95ba                	add	a1,a1,a4
    8000455a:	058e                	slli	a1,a1,0x3
    8000455c:	95aa                	add	a1,a1,a0
    8000455e:	ef2e                	sd	a1,408(sp)
    80004560:	618c                	ld	a1,0(a1)
    80004562:	6e54                	ld	a3,152(a2)
    80004564:	02317153          	fadd.d	ft2,ft2,ft3
    80004568:	1c72870b          	.insn	4, 0x1c72870b
    8000456c:	3dfe870b          	.insn	4, 0x3dfe870b
    80004570:	7c9f070b          	.insn	4, 0x7c9f070b
    80004574:	5cb4058b          	.insn	4, 0x5cb4058b
    80004578:	d0d79efb          	.insn	4, 0xd0d79efb
    8000457c:	7596                	ld	a1,352(sp)
    8000457e:	0005bf03          	ld	t5,0(a1)
    80004582:	0a063f83          	ld	t6,160(a2)
    80004586:	65f6                	ld	a1,344(sp)
    80004588:	619c                	ld	a5,0(a1)
    8000458a:	7644                	ld	s1,168(a2)
    8000458c:	65d6                	ld	a1,336(sp)
    8000458e:	6180                	ld	s0,0(a1)
    80004590:	7a54                	ld	a3,176(a2)
    80004592:	24813583          	ld	a1,584(sp)
    80004596:	7776                	ld	a4,376(sp)
    80004598:	95ba                	add	a1,a1,a4
    8000459a:	058e                	slli	a1,a1,0x3
    8000459c:	95aa                	add	a1,a1,a0
    8000459e:	f2ae                	sd	a1,352(sp)
    800045a0:	618c                	ld	a1,0(a1)
    800045a2:	7e58                	ld	a4,184(a2)
    800045a4:	3cff07db          	.insn	4, 0x3cff07db
    800045a8:	7c9f848b          	.insn	4, 0x7c9f848b
    800045ac:	5cb4058b          	.insn	4, 0x5cb4058b
    800045b0:	d0e695fb          	.insn	4, 0xd0e695fb
    800045b4:	f20e81d3          	fmv.d.x	ft3,t4
    800045b8:	02317153          	fadd.d	ft2,ft2,ft3
    800045bc:	27013683          	ld	a3,624(sp)
    800045c0:	20c68693          	addi	a3,a3,524
    800045c4:	068e                	slli	a3,a3,0x3
    800045c6:	96aa                	add	a3,a3,a0
    800045c8:	6294                	ld	a3,0(a3)
    800045ca:	6278                	ld	a4,192(a2)
    800045cc:	f20581d3          	fmv.d.x	ft3,a1
    800045d0:	3c0686db          	.insn	4, 0x3c0686db
    800045d4:	cc0715fb          	.insn	4, 0xcc0715fb
    800045d8:	1cb5842b          	.insn	4, 0x1cb5842b
    800045dc:	02317153          	fadd.d	ft2,ft2,ft3
    800045e0:	f20581d3          	fmv.d.x	ft3,a1
    800045e4:	02317153          	fadd.d	ft2,ft2,ft3
    800045e8:	a22095d3          	flt.d	a1,ft1,ft2
    800045ec:	c1a9                	beqz	a1,8000462e <bilateral_core+0x2434>
    800045ee:	f20881d3          	fmv.d.x	ft3,a7
    800045f2:	0201f1d3          	fadd.d	ft3,ft3,ft0
    800045f6:	f2080253          	fmv.d.x	ft4,a6
    800045fa:	0241f1d3          	fadd.d	ft3,ft3,ft4
    800045fe:	f2030253          	fmv.d.x	ft4,t1
    80004602:	0241f1d3          	fadd.d	ft3,ft3,ft4
    80004606:	f20e0253          	fmv.d.x	ft4,t3
    8000460a:	0241f1d3          	fadd.d	ft3,ft3,ft4
    8000460e:	f2078253          	fmv.d.x	ft4,a5
    80004612:	0241f1d3          	fadd.d	ft3,ft3,ft4
    80004616:	f2068253          	fmv.d.x	ft4,a3
    8000461a:	0241f1d3          	fadd.d	ft3,ft3,ft4
    8000461e:	f2040253          	fmv.d.x	ft4,s0
    80004622:	0241f1d3          	fadd.d	ft3,ft3,ft4
    80004626:	1a21f153          	fdiv.d	ft2,ft3,ft2
    8000462a:	e20102d3          	fmv.x.d	t0,ft2
    8000462e:	4881                	li	a7,0
    80004630:	4d81                	li	s11,0
    80004632:	4c01                	li	s8,0
    80004634:	4301                	li	t1,0
    80004636:	4d01                	li	s10,0
    80004638:	4b81                	li	s7,0
    8000463a:	4f01                	li	t5,0
    8000463c:	28813583          	ld	a1,648(sp)
    80004640:	66f2                	ld	a3,280(sp)
    80004642:	95b6                	add	a1,a1,a3
    80004644:	0055b023          	sd	t0,0(a1)
    80004648:	0000b383          	ld	t2,0(ra)
    8000464c:	4081                	li	ra,0
    8000464e:	26813483          	ld	s1,616(sp)
    80004652:	ecb9                	bnez	s1,800046b0 <bilateral_core+0x24b6>
    80004654:	23013783          	ld	a5,560(sp)
    80004658:	65da                	ld	a1,400(sp)
    8000465a:	95be                	add	a1,a1,a5
    8000465c:	66de                	ld	a3,464(sp)
    8000465e:	8df5                	and	a1,a1,a3
    80004660:	058e                	slli	a1,a1,0x3
    80004662:	95aa                	add	a1,a1,a0
    80004664:	0005b303          	ld	t1,0(a1)
    80004668:	00063c03          	ld	s8,0(a2)
    8000466c:	75fa                	ld	a1,440(sp)
    8000466e:	95be                	add	a1,a1,a5
    80004670:	25813703          	ld	a4,600(sp)
    80004674:	0fa70693          	addi	a3,a4,250
    80004678:	8df5                	and	a1,a1,a3
    8000467a:	058e                	slli	a1,a1,0x3
    8000467c:	95aa                	add	a1,a1,a0
    8000467e:	0005bd03          	ld	s10,0(a1)
    80004682:	00863b83          	ld	s7,8(a2)
    80004686:	21813583          	ld	a1,536(sp)
    8000468a:	76f6                	ld	a3,376(sp)
    8000468c:	95b6                	add	a1,a1,a3
    8000468e:	058e                	slli	a1,a1,0x3
    80004690:	95aa                	add	a1,a1,a0
    80004692:	0005bd83          	ld	s11,0(a1)
    80004696:	01063883          	ld	a7,16(a2)
    8000469a:	65ba                	ld	a1,392(sp)
    8000469c:	95be                	add	a1,a1,a5
    8000469e:	0fc70693          	addi	a3,a4,252
    800046a2:	8df5                	and	a1,a1,a3
    800046a4:	058e                	slli	a1,a1,0x3
    800046a6:	95aa                	add	a1,a1,a0
    800046a8:	0005bf03          	ld	t5,0(a1)
    800046ac:	01863083          	ld	ra,24(a2)
    800046b0:	4981                	li	s3,0
    800046b2:	4801                	li	a6,0
    800046b4:	25013783          	ld	a5,592(sp)
    800046b8:	e08d                	bnez	s1,800046da <bilateral_core+0x24e0>
    800046ba:	00da6593          	ori	a1,s4,13
    800046be:	23013683          	ld	a3,560(sp)
    800046c2:	95b6                	add	a1,a1,a3
    800046c4:	25813683          	ld	a3,600(sp)
    800046c8:	0fd68693          	addi	a3,a3,253
    800046cc:	8df5                	and	a1,a1,a3
    800046ce:	058e                	slli	a1,a1,0x3
    800046d0:	95aa                	add	a1,a1,a0
    800046d2:	0005b983          	ld	s3,0(a1)
    800046d6:	02063803          	ld	a6,32(a2)
    800046da:	4281                	li	t0,0
    800046dc:	4e81                	li	t4,0
    800046de:	4c81                	li	s9,0
    800046e0:	4a81                	li	s5,0
    800046e2:	4e01                	li	t3,0
    800046e4:	4901                	li	s2,0
    800046e6:	e3b9                	bnez	a5,8000472c <bilateral_core+0x2532>
    800046e8:	23813703          	ld	a4,568(sp)
    800046ec:	65da                	ld	a1,400(sp)
    800046ee:	95ba                	add	a1,a1,a4
    800046f0:	66de                	ld	a3,464(sp)
    800046f2:	8df5                	and	a1,a1,a3
    800046f4:	058e                	slli	a1,a1,0x3
    800046f6:	95aa                	add	a1,a1,a0
    800046f8:	0005bc83          	ld	s9,0(a1)
    800046fc:	02863a83          	ld	s5,40(a2)
    80004700:	75fa                	ld	a1,440(sp)
    80004702:	95ba                	add	a1,a1,a4
    80004704:	25813683          	ld	a3,600(sp)
    80004708:	0fa68693          	addi	a3,a3,250
    8000470c:	8df5                	and	a1,a1,a3
    8000470e:	058e                	slli	a1,a1,0x3
    80004710:	95aa                	add	a1,a1,a0
    80004712:	0005be83          	ld	t4,0(a1)
    80004716:	03063283          	ld	t0,48(a2)
    8000471a:	75ba                	ld	a1,424(sp)
    8000471c:	76f6                	ld	a3,376(sp)
    8000471e:	95b6                	add	a1,a1,a3
    80004720:	058e                	slli	a1,a1,0x3
    80004722:	95aa                	add	a1,a1,a0
    80004724:	0005be03          	ld	t3,0(a1)
    80004728:	03863903          	ld	s2,56(a2)
    8000472c:	4a01                	li	s4,0
    8000472e:	4f81                	li	t6,0
    80004730:	4581                	li	a1,0
    80004732:	4701                	li	a4,0
    80004734:	ef85                	bnez	a5,8000476c <bilateral_core+0x2572>
    80004736:	23813783          	ld	a5,568(sp)
    8000473a:	65ba                	ld	a1,392(sp)
    8000473c:	95be                	add	a1,a1,a5
    8000473e:	25813703          	ld	a4,600(sp)
    80004742:	0fc70693          	addi	a3,a4,252
    80004746:	8df5                	and	a1,a1,a3
    80004748:	058e                	slli	a1,a1,0x3
    8000474a:	95aa                	add	a1,a1,a0
    8000474c:	0005bf83          	ld	t6,0(a1)
    80004750:	04063a03          	ld	s4,64(a2)
    80004754:	27813583          	ld	a1,632(sp)
    80004758:	00d5e593          	ori	a1,a1,13
    8000475c:	95be                	add	a1,a1,a5
    8000475e:	0fd70713          	addi	a4,a4,253
    80004762:	8df9                	and	a1,a1,a4
    80004764:	058e                	slli	a1,a1,0x3
    80004766:	95aa                	add	a1,a1,a0
    80004768:	618c                	ld	a1,0(a1)
    8000476a:	6638                	ld	a4,72(a2)
    8000476c:	8018840b          	.insn	4, 0x8018840b
    80004770:	617c040b          	.insn	4, 0x617c040b
    80004774:	41ed840b          	.insn	4, 0x41ed840b
    80004778:	21a3040b          	.insn	4, 0x21a3040b
    8000477c:	29013b83          	ld	s7,656(sp)
    80004780:	0173947b          	.insn	4, 0x0173947b
    80004784:	008408ab          	.insn	4, 0x008408ab
    80004788:	8522878b          	.insn	4, 0x8522878b
    8000478c:	6558078b          	.insn	4, 0x6558078b
    80004790:	45ce878b          	.insn	4, 0x45ce878b
    80004794:	2599878b          	.insn	4, 0x2599878b
    80004798:	417397fb          	.insn	4, 0x417397fb
    8000479c:	04f7882b          	.insn	4, 0x04f7882b
    800047a0:	f2040153          	fmv.d.x	ft2,s0
    800047a4:	02017153          	fadd.d	ft2,ft2,ft0
    800047a8:	f20781d3          	fmv.d.x	ft3,a5
    800047ac:	000b3783          	ld	a5,0(s6)
    800047b0:	6a20                	ld	s0,80(a2)
    800047b2:	25813683          	ld	a3,600(sp)
    800047b6:	0fa68693          	addi	a3,a3,250
    800047ba:	e7b6                	sd	a3,456(sp)
    800047bc:	74d2                	ld	s1,304(sp)
    800047be:	8ee5                	and	a3,a3,s1
    800047c0:	068e                	slli	a3,a3,0x3
    800047c2:	00d50333          	add	t1,a0,a3
    800047c6:	00033683          	ld	a3,0(t1)
    800047ca:	6e24                	ld	s1,88(a2)
    800047cc:	02317153          	fadd.d	ft2,ft2,ft3
    800047d0:	68ea070b          	.insn	4, 0x68ea070b
    800047d4:	28bf858b          	.insn	4, 0x28bf858b
    800047d8:	0973858b          	.insn	4, 0x0973858b
    800047dc:	48d7858b          	.insn	4, 0x48d7858b
    800047e0:	909415fb          	.insn	4, 0x909415fb
    800047e4:	08b582ab          	.insn	4, 0x08b582ab
    800047e8:	06063e03          	ld	t3,96(a2)
    800047ec:	7a72                	ld	s4,312(sp)
    800047ee:	000a3e83          	ld	t4,0(s4)
    800047f2:	06863f03          	ld	t5,104(a2)
    800047f6:	27813f83          	ld	t6,632(sp)
    800047fa:	00dfe713          	ori	a4,t6,13
    800047fe:	26013683          	ld	a3,608(sp)
    80004802:	96ba                	add	a3,a3,a4
    80004804:	fa36                	sd	a3,304(sp)
    80004806:	068e                	slli	a3,a3,0x3
    80004808:	ee36                	sd	a3,280(sp)
    8000480a:	96aa                	add	a3,a3,a0
    8000480c:	e236                	sd	a3,256(sp)
    8000480e:	6280                	ld	s0,0(a3)
    80004810:	07063903          	ld	s2,112(a2)
    80004814:	669e                	ld	a3,448(sp)
    80004816:	6294                	ld	a3,0(a3)
    80004818:	7e3c                	ld	a5,120(a2)
    8000481a:	0d73848b          	.insn	4, 0x0d73848b
    8000481e:	2dd3848b          	.insn	4, 0x2dd3848b
    80004822:	6dee048b          	.insn	4, 0x6dee048b
    80004826:	4cd4068b          	.insn	4, 0x4cd4068b
    8000482a:	d0f916fb          	.insn	4, 0xd0f916fb
    8000482e:	0cd68e2b          	.insn	4, 0x0cd68e2b
    80004832:	f20581d3          	fmv.d.x	ft3,a1
    80004836:	02317153          	fadd.d	ft2,ft2,ft3
    8000483a:	f20681d3          	fmv.d.x	ft3,a3
    8000483e:	22813583          	ld	a1,552(sp)
    80004842:	0005be83          	ld	t4,0(a1)
    80004846:	08063f03          	ld	t5,128(a2)
    8000484a:	75da                	ld	a1,432(sp)
    8000484c:	0005b903          	ld	s2,0(a1)
    80004850:	6644                	ld	s1,136(a2)
    80004852:	65fa                	ld	a1,408(sp)
    80004854:	6180                	ld	s0,0(a1)
    80004856:	6a5c                	ld	a5,144(a2)
    80004858:	24013583          	ld	a1,576(sp)
    8000485c:	eb3a                	sd	a4,400(sp)
    8000485e:	95ba                	add	a1,a1,a4
    80004860:	058e                	slli	a1,a1,0x3
    80004862:	95aa                	add	a1,a1,a0
    80004864:	f32e                	sd	a1,416(sp)
    80004866:	618c                	ld	a1,0(a1)
    80004868:	6e54                	ld	a3,152(a2)
    8000486a:	02317153          	fadd.d	ft2,ft2,ft3
    8000486e:	1d73870b          	.insn	4, 0x1d73870b
    80004872:	3d2e870b          	.insn	4, 0x3d2e870b
    80004876:	7c9f070b          	.insn	4, 0x7c9f070b
    8000487a:	5cb4058b          	.insn	4, 0x5cb4058b
    8000487e:	d0d79efb          	.insn	4, 0xd0d79efb
    80004882:	65f6                	ld	a1,344(sp)
    80004884:	0005bf03          	ld	t5,0(a1)
    80004888:	0a063903          	ld	s2,160(a2)
    8000488c:	65d6                	ld	a1,336(sp)
    8000488e:	619c                	ld	a5,0(a1)
    80004890:	7644                	ld	s1,168(a2)
    80004892:	7596                	ld	a1,352(sp)
    80004894:	6180                	ld	s0,0(a1)
    80004896:	7a54                	ld	a3,176(a2)
    80004898:	24813583          	ld	a1,584(sp)
    8000489c:	673a                	ld	a4,392(sp)
    8000489e:	95ba                	add	a1,a1,a4
    800048a0:	058e                	slli	a1,a1,0x3
    800048a2:	95aa                	add	a1,a1,a0
    800048a4:	eeae                	sd	a1,344(sp)
    800048a6:	618c                	ld	a1,0(a1)
    800048a8:	7e58                	ld	a4,184(a2)
    800048aa:	3cff07db          	.insn	4, 0x3cff07db
    800048ae:	7c99048b          	.insn	4, 0x7c99048b
    800048b2:	5cb4058b          	.insn	4, 0x5cb4058b
    800048b6:	d0e695fb          	.insn	4, 0xd0e695fb
    800048ba:	f20e81d3          	fmv.d.x	ft3,t4
    800048be:	02317153          	fadd.d	ft2,ft2,ft3
    800048c2:	27013683          	ld	a3,624(sp)
    800048c6:	20d68693          	addi	a3,a3,525
    800048ca:	068e                	slli	a3,a3,0x3
    800048cc:	96aa                	add	a3,a3,a0
    800048ce:	6294                	ld	a3,0(a3)
    800048d0:	6278                	ld	a4,192(a2)
    800048d2:	f20581d3          	fmv.d.x	ft3,a1
    800048d6:	3c0686db          	.insn	4, 0x3c0686db
    800048da:	cc0715fb          	.insn	4, 0xcc0715fb
    800048de:	1cb5842b          	.insn	4, 0x1cb5842b
    800048e2:	02317153          	fadd.d	ft2,ft2,ft3
    800048e6:	f20581d3          	fmv.d.x	ft3,a1
    800048ea:	02317153          	fadd.d	ft2,ft2,ft3
    800048ee:	a22095d3          	flt.d	a1,ft1,ft2
    800048f2:	c1a9                	beqz	a1,80004934 <bilateral_core+0x273a>
    800048f4:	f20881d3          	fmv.d.x	ft3,a7
    800048f8:	0201f1d3          	fadd.d	ft3,ft3,ft0
    800048fc:	f2080253          	fmv.d.x	ft4,a6
    80004900:	0241f1d3          	fadd.d	ft3,ft3,ft4
    80004904:	f2028253          	fmv.d.x	ft4,t0
    80004908:	0241f1d3          	fadd.d	ft3,ft3,ft4
    8000490c:	f20e0253          	fmv.d.x	ft4,t3
    80004910:	0241f1d3          	fadd.d	ft3,ft3,ft4
    80004914:	f2078253          	fmv.d.x	ft4,a5
    80004918:	0241f1d3          	fadd.d	ft3,ft3,ft4
    8000491c:	f2068253          	fmv.d.x	ft4,a3
    80004920:	0241f1d3          	fadd.d	ft3,ft3,ft4
    80004924:	f2040253          	fmv.d.x	ft4,s0
    80004928:	0241f1d3          	fadd.d	ft3,ft3,ft4
    8000492c:	1a21f153          	fdiv.d	ft2,ft3,ft2
    80004930:	e20103d3          	fmv.x.d	t2,ft2
    80004934:	4881                	li	a7,0
    80004936:	4b81                	li	s7,0
    80004938:	4a81                	li	s5,0
    8000493a:	4981                	li	s3,0
    8000493c:	4b01                	li	s6,0
    8000493e:	4c01                	li	s8,0
    80004940:	4f01                	li	t5,0
    80004942:	28813583          	ld	a1,648(sp)
    80004946:	66d2                	ld	a3,272(sp)
    80004948:	95b6                	add	a1,a1,a3
    8000494a:	0075b023          	sd	t2,0(a1)
    8000494e:	000a3083          	ld	ra,0(s4)
    80004952:	4381                	li	t2,0
    80004954:	26813783          	ld	a5,616(sp)
    80004958:	efb9                	bnez	a5,800049b6 <bilateral_core+0x27bc>
    8000495a:	23013483          	ld	s1,560(sp)
    8000495e:	75fa                	ld	a1,440(sp)
    80004960:	95a6                	add	a1,a1,s1
    80004962:	66be                	ld	a3,456(sp)
    80004964:	8df5                	and	a1,a1,a3
    80004966:	058e                	slli	a1,a1,0x3
    80004968:	95aa                	add	a1,a1,a0
    8000496a:	0005b983          	ld	s3,0(a1)
    8000496e:	00063a83          	ld	s5,0(a2)
    80004972:	75f6                	ld	a1,376(sp)
    80004974:	95a6                	add	a1,a1,s1
    80004976:	25813703          	ld	a4,600(sp)
    8000497a:	0fb70693          	addi	a3,a4,251
    8000497e:	8df5                	and	a1,a1,a3
    80004980:	058e                	slli	a1,a1,0x3
    80004982:	95aa                	add	a1,a1,a0
    80004984:	0005bb03          	ld	s6,0(a1)
    80004988:	00863c03          	ld	s8,8(a2)
    8000498c:	21813583          	ld	a1,536(sp)
    80004990:	66ba                	ld	a3,392(sp)
    80004992:	95b6                	add	a1,a1,a3
    80004994:	058e                	slli	a1,a1,0x3
    80004996:	95aa                	add	a1,a1,a0
    80004998:	0005bb83          	ld	s7,0(a1)
    8000499c:	01063883          	ld	a7,16(a2)
    800049a0:	65da                	ld	a1,400(sp)
    800049a2:	95a6                	add	a1,a1,s1
    800049a4:	0fd70693          	addi	a3,a4,253
    800049a8:	8df5                	and	a1,a1,a3
    800049aa:	058e                	slli	a1,a1,0x3
    800049ac:	95aa                	add	a1,a1,a0
    800049ae:	0005bf03          	ld	t5,0(a1)
    800049b2:	01863383          	ld	t2,24(a2)
    800049b6:	4d01                	li	s10,0
    800049b8:	4801                	li	a6,0
    800049ba:	25013483          	ld	s1,592(sp)
    800049be:	e38d                	bnez	a5,800049e0 <bilateral_core+0x27e6>
    800049c0:	00efe593          	ori	a1,t6,14
    800049c4:	23013683          	ld	a3,560(sp)
    800049c8:	95b6                	add	a1,a1,a3
    800049ca:	25813683          	ld	a3,600(sp)
    800049ce:	0fe68693          	addi	a3,a3,254
    800049d2:	8df5                	and	a1,a1,a3
    800049d4:	058e                	slli	a1,a1,0x3
    800049d6:	95aa                	add	a1,a1,a0
    800049d8:	0005bd03          	ld	s10,0(a1)
    800049dc:	02063803          	ld	a6,32(a2)
    800049e0:	4d81                	li	s11,0
    800049e2:	4901                	li	s2,0
    800049e4:	4c81                	li	s9,0
    800049e6:	4e01                	li	t3,0
    800049e8:	4581                	li	a1,0
    800049ea:	4701                	li	a4,0
    800049ec:	e0a9                	bnez	s1,80004a2e <bilateral_core+0x2834>
    800049ee:	23813703          	ld	a4,568(sp)
    800049f2:	75fa                	ld	a1,440(sp)
    800049f4:	95ba                	add	a1,a1,a4
    800049f6:	66be                	ld	a3,456(sp)
    800049f8:	8df5                	and	a1,a1,a3
    800049fa:	058e                	slli	a1,a1,0x3
    800049fc:	95aa                	add	a1,a1,a0
    800049fe:	0005bc83          	ld	s9,0(a1)
    80004a02:	02863e03          	ld	t3,40(a2)
    80004a06:	75f6                	ld	a1,376(sp)
    80004a08:	95ba                	add	a1,a1,a4
    80004a0a:	25813683          	ld	a3,600(sp)
    80004a0e:	0fb68693          	addi	a3,a3,251
    80004a12:	8df5                	and	a1,a1,a3
    80004a14:	058e                	slli	a1,a1,0x3
    80004a16:	95aa                	add	a1,a1,a0
    80004a18:	0005b903          	ld	s2,0(a1)
    80004a1c:	03063d83          	ld	s11,48(a2)
    80004a20:	75ba                	ld	a1,424(sp)
    80004a22:	66ba                	ld	a3,392(sp)
    80004a24:	95b6                	add	a1,a1,a3
    80004a26:	058e                	slli	a1,a1,0x3
    80004a28:	95aa                	add	a1,a1,a0
    80004a2a:	618c                	ld	a1,0(a1)
    80004a2c:	7e18                	ld	a4,56(a2)
    80004a2e:	4a01                	li	s4,0
    80004a30:	4e81                	li	t4,0
    80004a32:	4f81                	li	t6,0
    80004a34:	4781                	li	a5,0
    80004a36:	ec8d                	bnez	s1,80004a70 <bilateral_core+0x2876>
    80004a38:	23813403          	ld	s0,568(sp)
    80004a3c:	66da                	ld	a3,400(sp)
    80004a3e:	96a2                	add	a3,a3,s0
    80004a40:	25813483          	ld	s1,600(sp)
    80004a44:	0fd48793          	addi	a5,s1,253
    80004a48:	8efd                	and	a3,a3,a5
    80004a4a:	068e                	slli	a3,a3,0x3
    80004a4c:	96aa                	add	a3,a3,a0
    80004a4e:	0006be83          	ld	t4,0(a3)
    80004a52:	04063a03          	ld	s4,64(a2)
    80004a56:	27813683          	ld	a3,632(sp)
    80004a5a:	00e6e793          	ori	a5,a3,14
    80004a5e:	97a2                	add	a5,a5,s0
    80004a60:	0fe48413          	addi	s0,s1,254
    80004a64:	8fe1                	and	a5,a5,s0
    80004a66:	078e                	slli	a5,a5,0x3
    80004a68:	97aa                	add	a5,a5,a0
    80004a6a:	0007bf83          	ld	t6,0(a5)
    80004a6e:	663c                	ld	a5,72(a2)
    80004a70:	8078868b          	.insn	4, 0x8078868b
    80004a74:	618a868b          	.insn	4, 0x618a868b
    80004a78:	41eb868b          	.insn	4, 0x41eb868b
    80004a7c:	2169868b          	.insn	4, 0x2169868b
    80004a80:	29013403          	ld	s0,656(sp)
    80004a84:	008096fb          	.insn	4, 0x008096fb
    80004a88:	00d688ab          	.insn	4, 0x00d688ab
    80004a8c:	84ed870b          	.insn	4, 0x84ed870b
    80004a90:	65c8070b          	.insn	4, 0x65c8070b
    80004a94:	44b9058b          	.insn	4, 0x44b9058b
    80004a98:	259d058b          	.insn	4, 0x259d058b
    80004a9c:	408095fb          	.insn	4, 0x408095fb
    80004aa0:	04b5882b          	.insn	4, 0x04b5882b
    80004aa4:	f2068153          	fmv.d.x	ft2,a3
    80004aa8:	02017153          	fadd.d	ft2,ft2,ft0
    80004aac:	f20581d3          	fmv.d.x	ft3,a1
    80004ab0:	00033583          	ld	a1,0(t1)
    80004ab4:	6a34                	ld	a3,80(a2)
    80004ab6:	25813703          	ld	a4,600(sp)
    80004aba:	0fb70713          	addi	a4,a4,251
    80004abe:	e3ba                	sd	a4,448(sp)
    80004ac0:	64b6                	ld	s1,328(sp)
    80004ac2:	8f65                	and	a4,a4,s1
    80004ac4:	070e                	slli	a4,a4,0x3
    80004ac6:	00e502b3          	add	t0,a0,a4
    80004aca:	0002b703          	ld	a4,0(t0)
    80004ace:	6e24                	ld	s1,88(a2)
    80004ad0:	02317153          	fadd.d	ft2,ft2,ft3
    80004ad4:	68fa078b          	.insn	4, 0x68fa078b
    80004ad8:	29fe878b          	.insn	4, 0x29fe878b
    80004adc:	0880878b          	.insn	4, 0x0880878b
    80004ae0:	48e5858b          	.insn	4, 0x48e5858b
    80004ae4:	909695fb          	.insn	4, 0x909695fb
    80004ae8:	08b583ab          	.insn	4, 0x08b583ab
    80004aec:	06063e03          	ld	t3,96(a2)
    80004af0:	6b92                	ld	s7,256(sp)
    80004af2:	000bbe83          	ld	t4,0(s7)
    80004af6:	06863f03          	ld	t5,104(a2)
    80004afa:	27813a03          	ld	s4,632(sp)
    80004afe:	00ea6713          	ori	a4,s4,14
    80004b02:	26013683          	ld	a3,608(sp)
    80004b06:	96ba                	add	a3,a3,a4
    80004b08:	fe36                	sd	a3,312(sp)
    80004b0a:	068e                	slli	a3,a3,0x3
    80004b0c:	f236                	sd	a3,288(sp)
    80004b0e:	00d50333          	add	t1,a0,a3
    80004b12:	00033f83          	ld	t6,0(t1)
    80004b16:	07063903          	ld	s2,112(a2)
    80004b1a:	22813683          	ld	a3,552(sp)
    80004b1e:	6294                	ld	a3,0(a3)
    80004b20:	7e3c                	ld	a5,120(a2)
    80004b22:	0c80848b          	.insn	4, 0x0c80848b
    80004b26:	2dd0848b          	.insn	4, 0x2dd0848b
    80004b2a:	6dee048b          	.insn	4, 0x6dee048b
    80004b2e:	4cdf868b          	.insn	4, 0x4cdf868b
    80004b32:	d0f916fb          	.insn	4, 0xd0f916fb
    80004b36:	0cd68e2b          	.insn	4, 0x0cd68e2b
    80004b3a:	f20581d3          	fmv.d.x	ft3,a1
    80004b3e:	02317153          	fadd.d	ft2,ft2,ft3
    80004b42:	f20681d3          	fmv.d.x	ft3,a3
    80004b46:	75da                	ld	a1,432(sp)
    80004b48:	0005be83          	ld	t4,0(a1)
    80004b4c:	08063f03          	ld	t5,128(a2)
    80004b50:	65fa                	ld	a1,408(sp)
    80004b52:	0005b903          	ld	s2,0(a1)
    80004b56:	6644                	ld	s1,136(a2)
    80004b58:	759a                	ld	a1,416(sp)
    80004b5a:	0005bf83          	ld	t6,0(a1)
    80004b5e:	6a5c                	ld	a5,144(a2)
    80004b60:	24013583          	ld	a1,576(sp)
    80004b64:	22e13423          	sd	a4,552(sp)
    80004b68:	95ba                	add	a1,a1,a4
    80004b6a:	058e                	slli	a1,a1,0x3
    80004b6c:	95aa                	add	a1,a1,a0
    80004b6e:	e6ae                	sd	a1,328(sp)
    80004b70:	618c                	ld	a1,0(a1)
    80004b72:	6e54                	ld	a3,152(a2)
    80004b74:	02317153          	fadd.d	ft2,ft2,ft3
    80004b78:	1c80870b          	.insn	4, 0x1c80870b
    80004b7c:	3d2e870b          	.insn	4, 0x3d2e870b
    80004b80:	7c9f070b          	.insn	4, 0x7c9f070b
    80004b84:	5cbf858b          	.insn	4, 0x5cbf858b
    80004b88:	d0d79efb          	.insn	4, 0xd0d79efb
    80004b8c:	65d6                	ld	a1,336(sp)
    80004b8e:	0005bf03          	ld	t5,0(a1)
    80004b92:	0a063903          	ld	s2,160(a2)
    80004b96:	7596                	ld	a1,352(sp)
    80004b98:	619c                	ld	a5,0(a1)
    80004b9a:	7644                	ld	s1,168(a2)
    80004b9c:	65f6                	ld	a1,344(sp)
    80004b9e:	6180                	ld	s0,0(a1)
    80004ba0:	7a4c                	ld	a1,176(a2)
    80004ba2:	24813683          	ld	a3,584(sp)
    80004ba6:	675a                	ld	a4,400(sp)
    80004ba8:	96ba                	add	a3,a3,a4
    80004baa:	068e                	slli	a3,a3,0x3
    80004bac:	96aa                	add	a3,a3,a0
    80004bae:	eab6                	sd	a3,336(sp)
    80004bb0:	6294                	ld	a3,0(a3)
    80004bb2:	7e58                	ld	a4,184(a2)
    80004bb4:	3cff07db          	.insn	4, 0x3cff07db
    80004bb8:	7c99048b          	.insn	4, 0x7c99048b
    80004bbc:	5cd4068b          	.insn	4, 0x5cd4068b
    80004bc0:	d0e595fb          	.insn	4, 0xd0e595fb
    80004bc4:	f20e81d3          	fmv.d.x	ft3,t4
    80004bc8:	02317153          	fadd.d	ft2,ft2,ft3
    80004bcc:	27013683          	ld	a3,624(sp)
    80004bd0:	20e68693          	addi	a3,a3,526
    80004bd4:	068e                	slli	a3,a3,0x3
    80004bd6:	96aa                	add	a3,a3,a0
    80004bd8:	6294                	ld	a3,0(a3)
    80004bda:	6278                	ld	a4,192(a2)
    80004bdc:	f20581d3          	fmv.d.x	ft3,a1
    80004be0:	3c06845b          	.insn	4, 0x3c06845b
    80004be4:	cc0716fb          	.insn	4, 0xcc0716fb
    80004be8:	1cd685ab          	.insn	4, 0x1cd685ab
    80004bec:	02317153          	fadd.d	ft2,ft2,ft3
    80004bf0:	f20681d3          	fmv.d.x	ft3,a3
    80004bf4:	02317153          	fadd.d	ft2,ft2,ft3
    80004bf8:	a22096d3          	flt.d	a3,ft1,ft2
    80004bfc:	c2a9                	beqz	a3,80004c3e <bilateral_core+0x2a44>
    80004bfe:	f20881d3          	fmv.d.x	ft3,a7
    80004c02:	0201f1d3          	fadd.d	ft3,ft3,ft0
    80004c06:	f2080253          	fmv.d.x	ft4,a6
    80004c0a:	0241f1d3          	fadd.d	ft3,ft3,ft4
    80004c0e:	f2038253          	fmv.d.x	ft4,t2
    80004c12:	0241f1d3          	fadd.d	ft3,ft3,ft4
    80004c16:	f20e0253          	fmv.d.x	ft4,t3
    80004c1a:	0241f1d3          	fadd.d	ft3,ft3,ft4
    80004c1e:	f2078253          	fmv.d.x	ft4,a5
    80004c22:	0241f1d3          	fadd.d	ft3,ft3,ft4
    80004c26:	f2040253          	fmv.d.x	ft4,s0
    80004c2a:	0241f1d3          	fadd.d	ft3,ft3,ft4
    80004c2e:	f2058253          	fmv.d.x	ft4,a1
    80004c32:	0241f1d3          	fadd.d	ft3,ft3,ft4
    80004c36:	1a21f153          	fdiv.d	ft2,ft3,ft2
    80004c3a:	e20100d3          	fmv.x.d	ra,ft2
    80004c3e:	4881                	li	a7,0
    80004c40:	4a81                	li	s5,0
    80004c42:	4e01                	li	t3,0
    80004c44:	4381                	li	t2,0
    80004c46:	4981                	li	s3,0
    80004c48:	4b01                	li	s6,0
    80004c4a:	4f01                	li	t5,0
    80004c4c:	28813583          	ld	a1,648(sp)
    80004c50:	66b2                	ld	a3,264(sp)
    80004c52:	95b6                	add	a1,a1,a3
    80004c54:	0015b023          	sd	ra,0(a1)
    80004c58:	000bbd83          	ld	s11,0(s7)
    80004c5c:	4801                	li	a6,0
    80004c5e:	25813083          	ld	ra,600(sp)
    80004c62:	26813703          	ld	a4,616(sp)
    80004c66:	ef31                	bnez	a4,80004cc2 <bilateral_core+0x2ac8>
    80004c68:	23013783          	ld	a5,560(sp)
    80004c6c:	75f6                	ld	a1,376(sp)
    80004c6e:	95be                	add	a1,a1,a5
    80004c70:	669e                	ld	a3,448(sp)
    80004c72:	8df5                	and	a1,a1,a3
    80004c74:	058e                	slli	a1,a1,0x3
    80004c76:	95aa                	add	a1,a1,a0
    80004c78:	0005b383          	ld	t2,0(a1)
    80004c7c:	00063e03          	ld	t3,0(a2)
    80004c80:	65ba                	ld	a1,392(sp)
    80004c82:	95be                	add	a1,a1,a5
    80004c84:	0fc08693          	addi	a3,ra,252
    80004c88:	8df5                	and	a1,a1,a3
    80004c8a:	058e                	slli	a1,a1,0x3
    80004c8c:	95aa                	add	a1,a1,a0
    80004c8e:	0005b983          	ld	s3,0(a1)
    80004c92:	00863b03          	ld	s6,8(a2)
    80004c96:	21813583          	ld	a1,536(sp)
    80004c9a:	66da                	ld	a3,400(sp)
    80004c9c:	95b6                	add	a1,a1,a3
    80004c9e:	058e                	slli	a1,a1,0x3
    80004ca0:	95aa                	add	a1,a1,a0
    80004ca2:	0005ba83          	ld	s5,0(a1)
    80004ca6:	01063883          	ld	a7,16(a2)
    80004caa:	22813583          	ld	a1,552(sp)
    80004cae:	95be                	add	a1,a1,a5
    80004cb0:	0fe08693          	addi	a3,ra,254
    80004cb4:	8df5                	and	a1,a1,a3
    80004cb6:	058e                	slli	a1,a1,0x3
    80004cb8:	95aa                	add	a1,a1,a0
    80004cba:	0005bf03          	ld	t5,0(a1)
    80004cbe:	01863803          	ld	a6,24(a2)
    80004cc2:	4f81                	li	t6,0
    80004cc4:	4b81                	li	s7,0
    80004cc6:	25013783          	ld	a5,592(sp)
    80004cca:	ef19                	bnez	a4,80004ce8 <bilateral_core+0x2aee>
    80004ccc:	00fa6593          	ori	a1,s4,15
    80004cd0:	23013683          	ld	a3,560(sp)
    80004cd4:	95b6                	add	a1,a1,a3
    80004cd6:	0ff08693          	addi	a3,ra,255
    80004cda:	8df5                	and	a1,a1,a3
    80004cdc:	058e                	slli	a1,a1,0x3
    80004cde:	95aa                	add	a1,a1,a0
    80004ce0:	0005bf83          	ld	t6,0(a1)
    80004ce4:	02063b83          	ld	s7,32(a2)
    80004ce8:	4d01                	li	s10,0
    80004cea:	4901                	li	s2,0
    80004cec:	4c01                	li	s8,0
    80004cee:	4c81                	li	s9,0
    80004cf0:	4701                	li	a4,0
    80004cf2:	4481                	li	s1,0
    80004cf4:	ef9d                	bnez	a5,80004d32 <bilateral_core+0x2b38>
    80004cf6:	23813703          	ld	a4,568(sp)
    80004cfa:	75f6                	ld	a1,376(sp)
    80004cfc:	95ba                	add	a1,a1,a4
    80004cfe:	669e                	ld	a3,448(sp)
    80004d00:	8df5                	and	a1,a1,a3
    80004d02:	058e                	slli	a1,a1,0x3
    80004d04:	95aa                	add	a1,a1,a0
    80004d06:	0005bc03          	ld	s8,0(a1)
    80004d0a:	02863c83          	ld	s9,40(a2)
    80004d0e:	65ba                	ld	a1,392(sp)
    80004d10:	95ba                	add	a1,a1,a4
    80004d12:	0fc08693          	addi	a3,ra,252
    80004d16:	8df5                	and	a1,a1,a3
    80004d18:	058e                	slli	a1,a1,0x3
    80004d1a:	95aa                	add	a1,a1,a0
    80004d1c:	0005b903          	ld	s2,0(a1)
    80004d20:	03063d03          	ld	s10,48(a2)
    80004d24:	75ba                	ld	a1,424(sp)
    80004d26:	66da                	ld	a3,400(sp)
    80004d28:	95b6                	add	a1,a1,a3
    80004d2a:	058e                	slli	a1,a1,0x3
    80004d2c:	95aa                	add	a1,a1,a0
    80004d2e:	6198                	ld	a4,0(a1)
    80004d30:	7e04                	ld	s1,56(a2)
    80004d32:	4a01                	li	s4,0
    80004d34:	4e81                	li	t4,0
    80004d36:	4401                	li	s0,0
    80004d38:	4581                	li	a1,0
    80004d3a:	eb9d                	bnez	a5,80004d70 <bilateral_core+0x2b76>
    80004d3c:	23813783          	ld	a5,568(sp)
    80004d40:	22813583          	ld	a1,552(sp)
    80004d44:	95be                	add	a1,a1,a5
    80004d46:	0fe08693          	addi	a3,ra,254
    80004d4a:	8df5                	and	a1,a1,a3
    80004d4c:	058e                	slli	a1,a1,0x3
    80004d4e:	95aa                	add	a1,a1,a0
    80004d50:	0005be83          	ld	t4,0(a1)
    80004d54:	04063a03          	ld	s4,64(a2)
    80004d58:	27813583          	ld	a1,632(sp)
    80004d5c:	00f5e593          	ori	a1,a1,15
    80004d60:	95be                	add	a1,a1,a5
    80004d62:	0ff08413          	addi	s0,ra,255
    80004d66:	8de1                	and	a1,a1,s0
    80004d68:	058e                	slli	a1,a1,0x3
    80004d6a:	95aa                	add	a1,a1,a0
    80004d6c:	6180                	ld	s0,0(a1)
    80004d6e:	662c                	ld	a1,72(a2)
    80004d70:	8108868b          	.insn	4, 0x8108868b
    80004d74:	616e068b          	.insn	4, 0x616e068b
    80004d78:	41ea868b          	.insn	4, 0x41ea868b
    80004d7c:	2133868b          	.insn	4, 0x2133868b
    80004d80:	29013983          	ld	s3,656(sp)
    80004d84:	013d96fb          	.insn	4, 0x013d96fb
    80004d88:	00d6882b          	.insn	4, 0x00d6882b
    80004d8c:	849d048b          	.insn	4, 0x849d048b
    80004d90:	659b848b          	.insn	4, 0x659b848b
    80004d94:	44e9070b          	.insn	4, 0x44e9070b
    80004d98:	258f870b          	.insn	4, 0x258f870b
    80004d9c:	413d977b          	.insn	4, 0x413d977b
    80004da0:	04e70fab          	.insn	4, 0x04e70fab
    80004da4:	f2068153          	fmv.d.x	ft2,a3
    80004da8:	02017153          	fadd.d	ft2,ft2,ft0
    80004dac:	f20701d3          	fmv.d.x	ft3,a4
    80004db0:	0002b683          	ld	a3,0(t0)
    80004db4:	6a38                	ld	a4,80(a2)
    80004db6:	0fc08793          	addi	a5,ra,252
    80004dba:	ff3e                	sd	a5,440(sp)
    80004dbc:	74b2                	ld	s1,296(sp)
    80004dbe:	8cfd                	and	s1,s1,a5
    80004dc0:	048e                	slli	s1,s1,0x3
    80004dc2:	009507b3          	add	a5,a0,s1
    80004dc6:	f5be                	sd	a5,232(sp)
    80004dc8:	6384                	ld	s1,0(a5)
    80004dca:	6e3c                	ld	a5,88(a2)
    80004dcc:	02317153          	fadd.d	ft2,ft2,ft3
    80004dd0:	68ba058b          	.insn	4, 0x68ba058b
    80004dd4:	288e858b          	.insn	4, 0x288e858b
    80004dd8:	093d858b          	.insn	4, 0x093d858b
    80004ddc:	4896858b          	.insn	4, 0x4896858b
    80004de0:	90f715fb          	.insn	4, 0x90f715fb
    80004de4:	08b582ab          	.insn	4, 0x08b582ab
    80004de8:	06063383          	ld	t2,96(a2)
    80004dec:	00033e03          	ld	t3,0(t1)
    80004df0:	06863e83          	ld	t4,104(a2)
    80004df4:	27813883          	ld	a7,632(sp)
    80004df8:	00f8e493          	ori	s1,a7,15
    80004dfc:	26013683          	ld	a3,608(sp)
    80004e00:	00968433          	add	s0,a3,s1
    80004e04:	00341693          	slli	a3,s0,0x3
    80004e08:	f636                	sd	a3,296(sp)
    80004e0a:	00d50b33          	add	s6,a0,a3
    80004e0e:	000b3403          	ld	s0,0(s6)
    80004e12:	07063f03          	ld	t5,112(a2)
    80004e16:	76da                	ld	a3,432(sp)
    80004e18:	6294                	ld	a3,0(a3)
    80004e1a:	7e38                	ld	a4,120(a2)
    80004e1c:	0d3d878b          	.insn	4, 0x0d3d878b
    80004e20:	2dcd878b          	.insn	4, 0x2dcd878b
    80004e24:	6dd3878b          	.insn	4, 0x6dd3878b
    80004e28:	4cd4068b          	.insn	4, 0x4cd4068b
    80004e2c:	d0ef16fb          	.insn	4, 0xd0ef16fb
    80004e30:	0cd683ab          	.insn	4, 0x0cd683ab
    80004e34:	f20581d3          	fmv.d.x	ft3,a1
    80004e38:	02317153          	fadd.d	ft2,ft2,ft3
    80004e3c:	f20681d3          	fmv.d.x	ft3,a3
    80004e40:	65fa                	ld	a1,408(sp)
    80004e42:	0005be03          	ld	t3,0(a1)
    80004e46:	08063e83          	ld	t4,128(a2)
    80004e4a:	759a                	ld	a1,416(sp)
    80004e4c:	0005bf03          	ld	t5,0(a1)
    80004e50:	665c                	ld	a5,136(a2)
    80004e52:	65b6                	ld	a1,328(sp)
    80004e54:	0005b903          	ld	s2,0(a1)
    80004e58:	6a40                	ld	s0,144(a2)
    80004e5a:	24013583          	ld	a1,576(sp)
    80004e5e:	fea6                	sd	s1,376(sp)
    80004e60:	95a6                	add	a1,a1,s1
    80004e62:	058e                	slli	a1,a1,0x3
    80004e64:	00b50d33          	add	s10,a0,a1
    80004e68:	000d3583          	ld	a1,0(s10)
    80004e6c:	6e54                	ld	a3,152(a2)
    80004e6e:	02317153          	fadd.d	ft2,ft2,ft3
    80004e72:	1d3d870b          	.insn	4, 0x1d3d870b
    80004e76:	3dee070b          	.insn	4, 0x3dee070b
    80004e7a:	7cfe870b          	.insn	4, 0x7cfe870b
    80004e7e:	5cb9058b          	.insn	4, 0x5cb9058b
    80004e82:	d0d41e7b          	.insn	4, 0xd0d41e7b
    80004e86:	7596                	ld	a1,352(sp)
    80004e88:	0005be83          	ld	t4,0(a1)
    80004e8c:	0a063f03          	ld	t5,160(a2)
    80004e90:	65f6                	ld	a1,344(sp)
    80004e92:	619c                	ld	a5,0(a1)
    80004e94:	7644                	ld	s1,168(a2)
    80004e96:	65d6                	ld	a1,336(sp)
    80004e98:	6180                	ld	s0,0(a1)
    80004e9a:	7a54                	ld	a3,176(a2)
    80004e9c:	24813583          	ld	a1,584(sp)
    80004ea0:	22813703          	ld	a4,552(sp)
    80004ea4:	95ba                	add	a1,a1,a4
    80004ea6:	058e                	slli	a1,a1,0x3
    80004ea8:	95aa                	add	a1,a1,a0
    80004eaa:	f2ae                	sd	a1,352(sp)
    80004eac:	618c                	ld	a1,0(a1)
    80004eae:	7e58                	ld	a4,184(a2)
    80004eb0:	3cfe87db          	.insn	4, 0x3cfe87db
    80004eb4:	7c9f048b          	.insn	4, 0x7c9f048b
    80004eb8:	5cb4058b          	.insn	4, 0x5cb4058b
    80004ebc:	d0e695fb          	.insn	4, 0xd0e695fb
    80004ec0:	f20e01d3          	fmv.d.x	ft3,t3
    80004ec4:	02317153          	fadd.d	ft2,ft2,ft3
    80004ec8:	27013683          	ld	a3,624(sp)
    80004ecc:	20f68693          	addi	a3,a3,527
    80004ed0:	068e                	slli	a3,a3,0x3
    80004ed2:	96aa                	add	a3,a3,a0
    80004ed4:	6294                	ld	a3,0(a3)
    80004ed6:	6278                	ld	a4,192(a2)
    80004ed8:	f20581d3          	fmv.d.x	ft3,a1
    80004edc:	3c0686db          	.insn	4, 0x3c0686db
    80004ee0:	cc0715fb          	.insn	4, 0xcc0715fb
    80004ee4:	1cb5872b          	.insn	4, 0x1cb5872b
    80004ee8:	02317153          	fadd.d	ft2,ft2,ft3
    80004eec:	f20581d3          	fmv.d.x	ft3,a1
    80004ef0:	02317153          	fadd.d	ft2,ft2,ft3
    80004ef4:	a22095d3          	flt.d	a1,ft1,ft2
    80004ef8:	c1a9                	beqz	a1,80004f3a <bilateral_core+0x2d40>
    80004efa:	f20801d3          	fmv.d.x	ft3,a6
    80004efe:	0201f1d3          	fadd.d	ft3,ft3,ft0
    80004f02:	f20f8253          	fmv.d.x	ft4,t6
    80004f06:	0241f1d3          	fadd.d	ft3,ft3,ft4
    80004f0a:	f2028253          	fmv.d.x	ft4,t0
    80004f0e:	0241f1d3          	fadd.d	ft3,ft3,ft4
    80004f12:	f2038253          	fmv.d.x	ft4,t2
    80004f16:	0241f1d3          	fadd.d	ft3,ft3,ft4
    80004f1a:	f2078253          	fmv.d.x	ft4,a5
    80004f1e:	0241f1d3          	fadd.d	ft3,ft3,ft4
    80004f22:	f2068253          	fmv.d.x	ft4,a3
    80004f26:	0241f1d3          	fadd.d	ft3,ft3,ft4
    80004f2a:	f2070253          	fmv.d.x	ft4,a4
    80004f2e:	0241f1d3          	fadd.d	ft3,ft3,ft4
    80004f32:	1a21f153          	fdiv.d	ft2,ft3,ft2
    80004f36:	e2010dd3          	fmv.x.d	s11,ft2
    80004f3a:	4481                	li	s1,0
    80004f3c:	4e01                	li	t3,0
    80004f3e:	4e81                	li	t4,0
    80004f40:	4f01                	li	t5,0
    80004f42:	4381                	li	t2,0
    80004f44:	4401                	li	s0,0
    80004f46:	4701                	li	a4,0
    80004f48:	28813583          	ld	a1,648(sp)
    80004f4c:	66f2                	ld	a3,280(sp)
    80004f4e:	95b6                	add	a1,a1,a3
    80004f50:	01b5b023          	sd	s11,0(a1)
    80004f54:	00033803          	ld	a6,0(t1)
    80004f58:	4301                	li	t1,0
    80004f5a:	25013c03          	ld	s8,592(sp)
    80004f5e:	23813983          	ld	s3,568(sp)
    80004f62:	26813683          	ld	a3,616(sp)
    80004f66:	23013783          	ld	a5,560(sp)
    80004f6a:	eaa9                	bnez	a3,80004fbc <bilateral_core+0x2dc2>
    80004f6c:	66ba                	ld	a3,392(sp)
    80004f6e:	96be                	add	a3,a3,a5
    80004f70:	777a                	ld	a4,440(sp)
    80004f72:	8ef9                	and	a3,a3,a4
    80004f74:	068e                	slli	a3,a3,0x3
    80004f76:	96aa                	add	a3,a3,a0
    80004f78:	0006bf03          	ld	t5,0(a3)
    80004f7c:	00063e83          	ld	t4,0(a2)
    80004f80:	66da                	ld	a3,400(sp)
    80004f82:	96be                	add	a3,a3,a5
    80004f84:	0fd08713          	addi	a4,ra,253
    80004f88:	8ef9                	and	a3,a3,a4
    80004f8a:	068e                	slli	a3,a3,0x3
    80004f8c:	96aa                	add	a3,a3,a0
    80004f8e:	0006b383          	ld	t2,0(a3)
    80004f92:	6600                	ld	s0,8(a2)
    80004f94:	21813683          	ld	a3,536(sp)
    80004f98:	22813703          	ld	a4,552(sp)
    80004f9c:	96ba                	add	a3,a3,a4
    80004f9e:	068e                	slli	a3,a3,0x3
    80004fa0:	96aa                	add	a3,a3,a0
    80004fa2:	0006be03          	ld	t3,0(a3)
    80004fa6:	6a04                	ld	s1,16(a2)
    80004fa8:	76f6                	ld	a3,376(sp)
    80004faa:	96be                	add	a3,a3,a5
    80004fac:	0ff08713          	addi	a4,ra,255
    80004fb0:	8ef9                	and	a3,a3,a4
    80004fb2:	068e                	slli	a3,a3,0x3
    80004fb4:	96aa                	add	a3,a3,a0
    80004fb6:	6298                	ld	a4,0(a3)
    80004fb8:	01863303          	ld	t1,24(a2)
    80004fbc:	e4a6                	sd	s1,72(sp)
    80004fbe:	e23a                	sd	a4,256(sp)
    80004fc0:	4901                	li	s2,0
    80004fc2:	0f08b593          	sltiu	a1,a7,240
    80004fc6:	76b6                	ld	a3,360(sp)
    80004fc8:	ee2e                	sd	a1,280(sp)
    80004fca:	8eed                	and	a3,a3,a1
    80004fcc:	4d81                	li	s11,0
    80004fce:	ce89                	beqz	a3,80004fe8 <bilateral_core+0x2dee>
    80004fd0:	00f886b3          	add	a3,a7,a5
    80004fd4:	06c1                	addi	a3,a3,16
    80004fd6:	21013703          	ld	a4,528(sp)
    80004fda:	8ef9                	and	a3,a3,a4
    80004fdc:	068e                	slli	a3,a3,0x3
    80004fde:	96aa                	add	a3,a3,a0
    80004fe0:	0006b903          	ld	s2,0(a3)
    80004fe4:	02063d83          	ld	s11,32(a2)
    80004fe8:	e8a2                	sd	s0,80(sp)
    80004fea:	4581                	li	a1,0
    80004fec:	4481                	li	s1,0
    80004fee:	4781                	li	a5,0
    80004ff0:	4401                	li	s0,0
    80004ff2:	4681                	li	a3,0
    80004ff4:	4701                	li	a4,0
    80004ff6:	020c1b63          	bnez	s8,8000502c <bilateral_core+0x2e32>
    80004ffa:	66ba                	ld	a3,392(sp)
    80004ffc:	96ce                	add	a3,a3,s3
    80004ffe:	777a                	ld	a4,440(sp)
    80005000:	8ef9                	and	a3,a3,a4
    80005002:	068e                	slli	a3,a3,0x3
    80005004:	96aa                	add	a3,a3,a0
    80005006:	629c                	ld	a5,0(a3)
    80005008:	7600                	ld	s0,40(a2)
    8000500a:	66da                	ld	a3,400(sp)
    8000500c:	96ce                	add	a3,a3,s3
    8000500e:	0fd08713          	addi	a4,ra,253
    80005012:	8ef9                	and	a3,a3,a4
    80005014:	068e                	slli	a3,a3,0x3
    80005016:	96aa                	add	a3,a3,a0
    80005018:	6284                	ld	s1,0(a3)
    8000501a:	7a0c                	ld	a1,48(a2)
    8000501c:	76ba                	ld	a3,424(sp)
    8000501e:	22813703          	ld	a4,552(sp)
    80005022:	96ba                	add	a3,a3,a4
    80005024:	068e                	slli	a3,a3,0x3
    80005026:	96aa                	add	a3,a3,a0
    80005028:	6294                	ld	a3,0(a3)
    8000502a:	7e18                	ld	a4,56(a2)
    8000502c:	e9ba                	sd	a4,208(sp)
    8000502e:	edb6                	sd	a3,216(sp)
    80005030:	f1ae                	sd	a1,224(sp)
    80005032:	f9a6                	sd	s1,240(sp)
    80005034:	fda2                	sd	s0,248(sp)
    80005036:	4281                	li	t0,0
    80005038:	4581                	li	a1,0
    8000503a:	4a01                	li	s4,0
    8000503c:	4f81                	li	t6,0
    8000503e:	020c1f63          	bnez	s8,8000507c <bilateral_core+0x2e82>
    80005042:	76f6                	ld	a3,376(sp)
    80005044:	96ce                	add	a3,a3,s3
    80005046:	0ff08713          	addi	a4,ra,255
    8000504a:	8ef9                	and	a3,a3,a4
    8000504c:	068e                	slli	a3,a3,0x3
    8000504e:	96aa                	add	a3,a3,a0
    80005050:	628c                	ld	a1,0(a3)
    80005052:	04063283          	ld	t0,64(a2)
    80005056:	0ef00693          	li	a3,239
    8000505a:	0116ef63          	bltu	a3,a7,80005078 <bilateral_core+0x2e7e>
    8000505e:	013886b3          	add	a3,a7,s3
    80005062:	06c1                	addi	a3,a3,16
    80005064:	21013703          	ld	a4,528(sp)
    80005068:	8ef9                	and	a3,a3,a4
    8000506a:	068e                	slli	a3,a3,0x3
    8000506c:	96aa                	add	a3,a3,a0
    8000506e:	0006ba03          	ld	s4,0(a3)
    80005072:	04863f83          	ld	t6,72(a2)
    80005076:	a019                	j	8000507c <bilateral_core+0x2e82>
    80005078:	4a01                	li	s4,0
    8000507a:	4f81                	li	t6,0
    8000507c:	76ae                	ld	a3,232(sp)
    8000507e:	0006bc03          	ld	s8,0(a3)
    80005082:	6a34                	ld	a3,80(a2)
    80005084:	e0b6                	sd	a3,64(sp)
    80005086:	0fd08693          	addi	a3,ra,253
    8000508a:	fb36                	sd	a3,432(sp)
    8000508c:	7752                	ld	a4,304(sp)
    8000508e:	8ef9                	and	a3,a3,a4
    80005090:	068e                	slli	a3,a3,0x3
    80005092:	00d50ab3          	add	s5,a0,a3
    80005096:	000ab403          	ld	s0,0(s5)
    8000509a:	05863c83          	ld	s9,88(a2)
    8000509e:	06063983          	ld	s3,96(a2)
    800050a2:	000b3b83          	ld	s7,0(s6)
    800050a6:	06863083          	ld	ra,104(a2)
    800050aa:	0ef00693          	li	a3,239
    800050ae:	e65a                	sd	s6,264(sp)
    800050b0:	e5ae                	sd	a1,200(sp)
    800050b2:	e1a2                	sd	s0,192(sp)
    800050b4:	fd3e                	sd	a5,184(sp)
    800050b6:	0116e863          	bltu	a3,a7,800050c6 <bilateral_core+0x2ecc>
    800050ba:	66e6                	ld	a3,88(sp)
    800050bc:	62cc                	ld	a1,128(a3)
    800050be:	f42e                	sd	a1,40(sp)
    800050c0:	7a2c                	ld	a1,112(a2)
    800050c2:	f02e                	sd	a1,32(sp)
    800050c4:	a019                	j	800050ca <bilateral_core+0x2ed0>
    800050c6:	f402                	sd	zero,40(sp)
    800050c8:	f002                	sd	zero,32(sp)
    800050ca:	65b6                	ld	a1,328(sp)
    800050cc:	66fa                	ld	a3,408(sp)
    800050ce:	6294                	ld	a3,0(a3)
    800050d0:	e136                	sd	a3,128(sp)
    800050d2:	7e34                	ld	a3,120(a2)
    800050d4:	fcb6                	sd	a3,120(sp)
    800050d6:	769a                	ld	a3,416(sp)
    800050d8:	0006bb03          	ld	s6,0(a3)
    800050dc:	625c                	ld	a5,128(a2)
    800050de:	618c                	ld	a1,0(a1)
    800050e0:	6644                	ld	s1,136(a2)
    800050e2:	000d3703          	ld	a4,0(s10)
    800050e6:	6a40                	ld	s0,144(a2)
    800050e8:	0ef00693          	li	a3,239
    800050ec:	e756                	sd	s5,392(sp)
    800050ee:	fa4e                	sd	s3,304(sp)
    800050f0:	f586                	sd	ra,232(sp)
    800050f2:	ef5a                	sd	s6,408(sp)
    800050f4:	f95e                	sd	s7,176(sp)
    800050f6:	f52e                	sd	a1,168(sp)
    800050f8:	f13e                	sd	a5,160(sp)
    800050fa:	ed26                	sd	s1,152(sp)
    800050fc:	e93a                	sd	a4,144(sp)
    800050fe:	e522                	sd	s0,136(sp)
    80005100:	f8e2                	sd	s8,112(sp)
    80005102:	f4d2                	sd	s4,104(sp)
    80005104:	f0fe                	sd	t6,96(sp)
    80005106:	8b7a                	mv	s6,t5
    80005108:	0116ea63          	bltu	a3,a7,8000511c <bilateral_core+0x2f22>
    8000510c:	6f46                	ld	t5,80(sp)
    8000510e:	88f6                	mv	a7,t4
    80005110:	76d6                	ld	a3,368(sp)
    80005112:	62cc                	ld	a1,128(a3)
    80005114:	f82e                	sd	a1,48(sp)
    80005116:	6e4c                	ld	a1,152(a2)
    80005118:	fc2e                	sd	a1,56(sp)
    8000511a:	a029                	j	80005124 <bilateral_core+0x2f2a>
    8000511c:	6f46                	ld	t5,80(sp)
    8000511e:	88f6                	mv	a7,t4
    80005120:	f802                	sd	zero,48(sp)
    80005122:	fc02                	sd	zero,56(sp)
    80005124:	65d6                	ld	a1,336(sp)
    80005126:	7796                	ld	a5,352(sp)
    80005128:	66f6                	ld	a3,344(sp)
    8000512a:	0006bb83          	ld	s7,0(a3)
    8000512e:	0a063a83          	ld	s5,160(a2)
    80005132:	0005b983          	ld	s3,0(a1)
    80005136:	0a863f83          	ld	t6,168(a2)
    8000513a:	638c                	ld	a1,0(a5)
    8000513c:	0b063083          	ld	ra,176(a2)
    80005140:	24813683          	ld	a3,584(sp)
    80005144:	7776                	ld	a4,376(sp)
    80005146:	96ba                	add	a3,a3,a4
    80005148:	068e                	slli	a3,a3,0x3
    8000514a:	96aa                	add	a3,a3,a0
    8000514c:	e8b6                	sd	a3,80(sp)
    8000514e:	0006bc03          	ld	s8,0(a3)
    80005152:	0b863a03          	ld	s4,184(a2)
    80005156:	0ef00493          	li	s1,239
    8000515a:	27813403          	ld	s0,632(sp)
    8000515e:	ea6a                	sd	s10,272(sp)
    80005160:	eeae                	sd	a1,344(sp)
    80005162:	0084ec63          	bltu	s1,s0,8000517a <bilateral_core+0x2f80>
    80005166:	27013483          	ld	s1,624(sp)
    8000516a:	21048413          	addi	s0,s1,528
    8000516e:	040e                	slli	s0,s0,0x3
    80005170:	942a                	add	s0,s0,a0
    80005172:	00043d03          	ld	s10,0(s0)
    80005176:	6264                	ld	s1,192(a2)
    80005178:	a019                	j	8000517e <bilateral_core+0x2f84>
    8000517a:	4d01                	li	s10,0
    8000517c:	4481                	li	s1,0
    8000517e:	6ea6                	ld	t4,72(sp)
    80005180:	6706                	ld	a4,64(sp)
    80005182:	76a2                	ld	a3,40(sp)
    80005184:	7782                	ld	a5,32(sp)
    80005186:	806e840b          	.insn	4, 0x806e840b
    8000518a:	61e8840b          	.insn	4, 0x61e8840b
    8000518e:	6412                	ld	s0,256(sp)
    80005190:	408e040b          	.insn	4, 0x408e040b
    80005194:	207b040b          	.insn	4, 0x207b040b
    80005198:	29013e83          	ld	t4,656(sp)
    8000519c:	01d8147b          	.insn	4, 0x01d8147b
    800051a0:	0084032b          	.insn	4, 0x0084032b
    800051a4:	f2040153          	fmv.d.x	ft2,s0
    800051a8:	740e                	ld	s0,224(sp)
    800051aa:	65ce                	ld	a1,208(sp)
    800051ac:	84b4040b          	.insn	4, 0x84b4040b
    800051b0:	746e                	ld	s0,248(sp)
    800051b2:	648d840b          	.insn	4, 0x648d840b
    800051b6:	744e                	ld	s0,240(sp)
    800051b8:	65ee                	ld	a1,216(sp)
    800051ba:	44b4040b          	.insn	4, 0x44b4040b
    800051be:	75ea                	ld	a1,184(sp)
    800051c0:	24b9040b          	.insn	4, 0x24b9040b
    800051c4:	41d8147b          	.insn	4, 0x41d8147b
    800051c8:	048408ab          	.insn	4, 0x048408ab
    800051cc:	02017153          	fadd.d	ft2,ft2,ft0
    800051d0:	f20401d3          	fmv.d.x	ft3,s0
    800051d4:	8997040b          	.insn	4, 0x8997040b
    800051d8:	7586                	ld	a1,96(sp)
    800051da:	68b2840b          	.insn	4, 0x68b2840b
    800051de:	658e                	ld	a1,192(sp)
    800051e0:	7746                	ld	a4,112(sp)
    800051e2:	48b7040b          	.insn	4, 0x48b7040b
    800051e6:	65ae                	ld	a1,200(sp)
    800051e8:	7726                	ld	a4,104(sp)
    800051ea:	28e5840b          	.insn	4, 0x28e5840b
    800051ee:	81d8147b          	.insn	4, 0x81d8147b
    800051f2:	088402ab          	.insn	4, 0x088402ab
    800051f6:	02317153          	fadd.d	ft2,ft2,ft3
    800051fa:	f20401d3          	fmv.d.x	ft3,s0
    800051fe:	75e6                	ld	a1,120(sp)
    80005200:	8cb7840b          	.insn	4, 0x8cb7840b
    80005204:	75d2                	ld	a1,304(sp)
    80005206:	77ae                	ld	a5,232(sp)
    80005208:	6cf5840b          	.insn	4, 0x6cf5840b
    8000520c:	658a                	ld	a1,128(sp)
    8000520e:	4cb6840b          	.insn	4, 0x4cb6840b
    80005212:	75ca                	ld	a1,176(sp)
    80005214:	2cb8040b          	.insn	4, 0x2cb8040b
    80005218:	c1d817fb          	.insn	4, 0xc1d817fb
    8000521c:	0cf7842b          	.insn	4, 0x0cf7842b
    80005220:	02317153          	fadd.d	ft2,ft2,ft3
    80005224:	f20781d3          	fmv.d.x	ft3,a5
    80005228:	65aa                	ld	a1,136(sp)
    8000522a:	76e2                	ld	a3,56(sp)
    8000522c:	9cd5878b          	.insn	4, 0x9cd5878b
    80005230:	758a                	ld	a1,160(sp)
    80005232:	66ea                	ld	a3,152(sp)
    80005234:	7cd5878b          	.insn	4, 0x7cd5878b
    80005238:	65ca                	ld	a1,144(sp)
    8000523a:	76c2                	ld	a3,48(sp)
    8000523c:	5cd5878b          	.insn	4, 0x5cd5878b
    80005240:	65fa                	ld	a1,408(sp)
    80005242:	76aa                	ld	a3,168(sp)
    80005244:	3cd5878b          	.insn	4, 0x3cd5878b
    80005248:	c1d817fb          	.insn	4, 0xc1d817fb
    8000524c:	02317153          	fadd.d	ft2,ft2,ft3
    80005250:	f20781d3          	fmv.d.x	ft3,a5
    80005254:	9d4086db          	.insn	4, 0x9d4086db
    80005258:	7dfa878b          	.insn	4, 0x7dfa878b
    8000525c:	65f6                	ld	a1,344(sp)
    8000525e:	5d85870b          	.insn	4, 0x5d85870b
    80005262:	c53b977b          	.insn	4, 0xc53b977b
    80005266:	02317153          	fadd.d	ft2,ft2,ft3
    8000526a:	f20701d3          	fmv.d.x	ft3,a4
    8000526e:	7c04875b          	.insn	4, 0x7c04875b
    80005272:	c40d14fb          	.insn	4, 0xc40d14fb
    80005276:	1c9487ab          	.insn	4, 0x1c9487ab
    8000527a:	02317153          	fadd.d	ft2,ft2,ft3
    8000527e:	f20481d3          	fmv.d.x	ft3,s1
    80005282:	02317153          	fadd.d	ft2,ft2,ft3
    80005286:	a22094d3          	flt.d	s1,ft1,ft2
    8000528a:	c0a9                	beqz	s1,800052cc <bilateral_core+0x30d2>
    8000528c:	f20301d3          	fmv.d.x	ft3,t1
    80005290:	0201f1d3          	fadd.d	ft3,ft3,ft0
    80005294:	f2088253          	fmv.d.x	ft4,a7
    80005298:	0241f1d3          	fadd.d	ft3,ft3,ft4
    8000529c:	f2028253          	fmv.d.x	ft4,t0
    800052a0:	0241f1d3          	fadd.d	ft3,ft3,ft4
    800052a4:	f2040253          	fmv.d.x	ft4,s0
    800052a8:	0241f1d3          	fadd.d	ft3,ft3,ft4
    800052ac:	f2068253          	fmv.d.x	ft4,a3
    800052b0:	0241f1d3          	fadd.d	ft3,ft3,ft4
    800052b4:	f2070253          	fmv.d.x	ft4,a4
    800052b8:	0241f1d3          	fadd.d	ft3,ft3,ft4
    800052bc:	f2078253          	fmv.d.x	ft4,a5
    800052c0:	0241f1d3          	fadd.d	ft3,ft3,ft4
    800052c4:	1a21f153          	fdiv.d	ft2,ft3,ft2
    800052c8:	e2010853          	fmv.x.d	a6,ft2
    800052cc:	4a01                	li	s4,0
    800052ce:	4781                	li	a5,0
    800052d0:	4c01                	li	s8,0
    800052d2:	4e01                	li	t3,0
    800052d4:	4a81                	li	s5,0
    800052d6:	4e81                	li	t4,0
    800052d8:	4f81                	li	t6,0
    800052da:	28813683          	ld	a3,648(sp)
    800052de:	7712                	ld	a4,288(sp)
    800052e0:	96ba                	add	a3,a3,a4
    800052e2:	0106b023          	sd	a6,0(a3)
    800052e6:	65b2                	ld	a1,264(sp)
    800052e8:	0005bf03          	ld	t5,0(a1)
    800052ec:	4901                	li	s2,0
    800052ee:	25813803          	ld	a6,600(sp)
    800052f2:	23813883          	ld	a7,568(sp)
    800052f6:	649a                	ld	s1,384(sp)
    800052f8:	27813403          	ld	s0,632(sp)
    800052fc:	26813583          	ld	a1,616(sp)
    80005300:	23013703          	ld	a4,560(sp)
    80005304:	6352                	ld	t1,272(sp)
    80005306:	e1bd                	bnez	a1,8000536c <bilateral_core+0x3172>
    80005308:	65da                	ld	a1,400(sp)
    8000530a:	95ba                	add	a1,a1,a4
    8000530c:	76da                	ld	a3,432(sp)
    8000530e:	8df5                	and	a1,a1,a3
    80005310:	058e                	slli	a1,a1,0x3
    80005312:	95aa                	add	a1,a1,a0
    80005314:	0005be03          	ld	t3,0(a1)
    80005318:	00063c03          	ld	s8,0(a2)
    8000531c:	22813583          	ld	a1,552(sp)
    80005320:	95ba                	add	a1,a1,a4
    80005322:	0fe80693          	addi	a3,a6,254
    80005326:	8df5                	and	a1,a1,a3
    80005328:	058e                	slli	a1,a1,0x3
    8000532a:	95aa                	add	a1,a1,a0
    8000532c:	0005ba83          	ld	s5,0(a1)
    80005330:	00863e83          	ld	t4,8(a2)
    80005334:	21813583          	ld	a1,536(sp)
    80005338:	76f6                	ld	a3,376(sp)
    8000533a:	95b6                	add	a1,a1,a3
    8000533c:	058e                	slli	a1,a1,0x3
    8000533e:	95aa                	add	a1,a1,a0
    80005340:	619c                	ld	a5,0(a1)
    80005342:	01063a03          	ld	s4,16(a2)
    80005346:	0ef00593          	li	a1,239
    8000534a:	0085ef63          	bltu	a1,s0,80005368 <bilateral_core+0x316e>
    8000534e:	00e405b3          	add	a1,s0,a4
    80005352:	05c1                	addi	a1,a1,16
    80005354:	21013683          	ld	a3,528(sp)
    80005358:	8df5                	and	a1,a1,a3
    8000535a:	058e                	slli	a1,a1,0x3
    8000535c:	95aa                	add	a1,a1,a0
    8000535e:	0005bf83          	ld	t6,0(a1)
    80005362:	01863903          	ld	s2,24(a2)
    80005366:	a019                	j	8000536c <bilateral_core+0x3172>
    80005368:	4f81                	li	t6,0
    8000536a:	4901                	li	s2,0
    8000536c:	e5be                	sd	a5,200(sp)
    8000536e:	4b01                	li	s6,0
    80005370:	0ef43593          	sltiu	a1,s0,239
    80005374:	76b6                	ld	a3,360(sp)
    80005376:	8eed                	and	a3,a3,a1
    80005378:	4b81                	li	s7,0
    8000537a:	ce89                	beqz	a3,80005394 <bilateral_core+0x319a>
    8000537c:	00e406b3          	add	a3,s0,a4
    80005380:	06c5                	addi	a3,a3,17
    80005382:	22013703          	ld	a4,544(sp)
    80005386:	8ef9                	and	a3,a3,a4
    80005388:	068e                	slli	a3,a3,0x3
    8000538a:	96aa                	add	a3,a3,a0
    8000538c:	0006bb03          	ld	s6,0(a3)
    80005390:	02063b83          	ld	s7,32(a2)
    80005394:	4d81                	li	s11,0
    80005396:	4d01                	li	s10,0
    80005398:	4381                	li	t2,0
    8000539a:	4c81                	li	s9,0
    8000539c:	4081                	li	ra,0
    8000539e:	4701                	li	a4,0
    800053a0:	25013683          	ld	a3,592(sp)
    800053a4:	ee9d                	bnez	a3,800053e2 <bilateral_core+0x31e8>
    800053a6:	66da                	ld	a3,400(sp)
    800053a8:	96c6                	add	a3,a3,a7
    800053aa:	775a                	ld	a4,432(sp)
    800053ac:	8ef9                	and	a3,a3,a4
    800053ae:	068e                	slli	a3,a3,0x3
    800053b0:	96aa                	add	a3,a3,a0
    800053b2:	0006b383          	ld	t2,0(a3)
    800053b6:	02863c83          	ld	s9,40(a2)
    800053ba:	22813683          	ld	a3,552(sp)
    800053be:	96c6                	add	a3,a3,a7
    800053c0:	0fe80713          	addi	a4,a6,254
    800053c4:	8ef9                	and	a3,a3,a4
    800053c6:	068e                	slli	a3,a3,0x3
    800053c8:	96aa                	add	a3,a3,a0
    800053ca:	0006bd03          	ld	s10,0(a3)
    800053ce:	03063d83          	ld	s11,48(a2)
    800053d2:	76ba                	ld	a3,424(sp)
    800053d4:	7776                	ld	a4,376(sp)
    800053d6:	96ba                	add	a3,a3,a4
    800053d8:	068e                	slli	a3,a3,0x3
    800053da:	96aa                	add	a3,a3,a0
    800053dc:	0006b083          	ld	ra,0(a3)
    800053e0:	7e18                	ld	a4,56(a2)
    800053e2:	ef3a                	sd	a4,408(sp)
    800053e4:	4981                	li	s3,0
    800053e6:	66f2                	ld	a3,280(sp)
    800053e8:	8ee5                	and	a3,a3,s1
    800053ea:	4281                	li	t0,0
    800053ec:	ce89                	beqz	a3,80005406 <bilateral_core+0x320c>
    800053ee:	011406b3          	add	a3,s0,a7
    800053f2:	06c1                	addi	a3,a3,16
    800053f4:	21013703          	ld	a4,528(sp)
    800053f8:	8ef9                	and	a3,a3,a4
    800053fa:	068e                	slli	a3,a3,0x3
    800053fc:	96aa                	add	a3,a3,a0
    800053fe:	0006b983          	ld	s3,0(a3)
    80005402:	04063283          	ld	t0,64(a2)
    80005406:	fee2                	sd	s8,376(sp)
    80005408:	4681                	li	a3,0
    8000540a:	8de5                	and	a1,a1,s1
    8000540c:	4481                	li	s1,0
    8000540e:	c999                	beqz	a1,80005424 <bilateral_core+0x322a>
    80005410:	011405b3          	add	a1,s0,a7
    80005414:	05c5                	addi	a1,a1,17
    80005416:	22013683          	ld	a3,544(sp)
    8000541a:	8df5                	and	a1,a1,a3
    8000541c:	058e                	slli	a1,a1,0x3
    8000541e:	95aa                	add	a1,a1,a0
    80005420:	6194                	ld	a3,0(a1)
    80005422:	6624                	ld	s1,72(a2)
    80005424:	eb36                	sd	a3,400(sp)
    80005426:	65ba                	ld	a1,392(sp)
    80005428:	0005b883          	ld	a7,0(a1)
    8000542c:	05063c03          	ld	s8,80(a2)
    80005430:	0fe80593          	addi	a1,a6,254
    80005434:	22b13423          	sd	a1,552(sp)
    80005438:	76f2                	ld	a3,312(sp)
    8000543a:	8df5                	and	a1,a1,a3
    8000543c:	058e                	slli	a1,a1,0x3
    8000543e:	95aa                	add	a1,a1,a0
    80005440:	6194                	ld	a3,0(a1)
    80005442:	6e3c                	ld	a5,88(a2)
    80005444:	06063803          	ld	a6,96(a2)
    80005448:	0ef00593          	li	a1,239
    8000544c:	f6b6                	sd	a3,360(sp)
    8000544e:	fe3e                	sd	a5,312(sp)
    80005450:	0085ec63          	bltu	a1,s0,80005468 <bilateral_core+0x326e>
    80005454:	762c                	ld	a1,104(a2)
    80005456:	f1ae                	sd	a1,224(sp)
    80005458:	65e6                	ld	a1,88(sp)
    8000545a:	61d4                	ld	a3,128(a1)
    8000545c:	edb6                	sd	a3,216(sp)
    8000545e:	65cc                	ld	a1,136(a1)
    80005460:	e9ae                	sd	a1,208(sp)
    80005462:	7a2c                	ld	a1,112(a2)
    80005464:	e1ae                	sd	a1,192(sp)
    80005466:	a029                	j	80005470 <bilateral_core+0x3276>
    80005468:	f182                	sd	zero,224(sp)
    8000546a:	ed82                	sd	zero,216(sp)
    8000546c:	e982                	sd	zero,208(sp)
    8000546e:	e182                	sd	zero,192(sp)
    80005470:	66b6                	ld	a3,328(sp)
    80005472:	759a                	ld	a1,416(sp)
    80005474:	618c                	ld	a1,0(a1)
    80005476:	ee2e                	sd	a1,280(sp)
    80005478:	7e2c                	ld	a1,120(a2)
    8000547a:	e62e                	sd	a1,264(sp)
    8000547c:	6294                	ld	a3,0(a3)
    8000547e:	624c                	ld	a1,128(a2)
    80005480:	e6ae                	sd	a1,328(sp)
    80005482:	00033783          	ld	a5,0(t1)
    80005486:	6658                	ld	a4,136(a2)
    80005488:	0ef00593          	li	a1,239
    8000548c:	e746                	sd	a7,392(sp)
    8000548e:	eebe                	sd	a5,344(sp)
    80005490:	fa3a                	sd	a4,304(sp)
    80005492:	f216                	sd	t0,288(sp)
    80005494:	e226                	sd	s1,256(sp)
    80005496:	fdce                	sd	s3,248(sp)
    80005498:	f9e2                	sd	s8,240(sp)
    8000549a:	0085e863          	bltu	a1,s0,800054aa <bilateral_core+0x32b0>
    8000549e:	75d6                	ld	a1,368(sp)
    800054a0:	61cc                	ld	a1,128(a1)
    800054a2:	ea2e                	sd	a1,272(sp)
    800054a4:	6a4c                	ld	a1,144(a2)
    800054a6:	fd2e                	sd	a1,184(sp)
    800054a8:	a019                	j	800054ae <bilateral_core+0x32b4>
    800054aa:	ea02                	sd	zero,272(sp)
    800054ac:	fd02                	sd	zero,184(sp)
    800054ae:	6746                	ld	a4,80(sp)
    800054b0:	849e                	mv	s1,t2
    800054b2:	63ae                	ld	t2,200(sp)
    800054b4:	0ee00593          	li	a1,238
    800054b8:	f336                	sd	a3,416(sp)
    800054ba:	f5c2                	sd	a6,232(sp)
    800054bc:	0085e763          	bltu	a1,s0,800054ca <bilateral_core+0x32d0>
    800054c0:	75d6                	ld	a1,368(sp)
    800054c2:	65cc                	ld	a1,136(a1)
    800054c4:	f92e                	sd	a1,176(sp)
    800054c6:	6e5c                	ld	a5,152(a2)
    800054c8:	a019                	j	800054ce <bilateral_core+0x32d4>
    800054ca:	f902                	sd	zero,176(sp)
    800054cc:	4781                	li	a5,0
    800054ce:	66d6                	ld	a3,336(sp)
    800054d0:	0006b883          	ld	a7,0(a3)
    800054d4:	0a063983          	ld	s3,160(a2)
    800054d8:	7696                	ld	a3,352(sp)
    800054da:	0006b803          	ld	a6,0(a3)
    800054de:	0a863303          	ld	t1,168(a2)
    800054e2:	6318                	ld	a4,0(a4)
    800054e4:	7a4c                	ld	a1,176(a2)
    800054e6:	0ef00693          	li	a3,239
    800054ea:	faba                	sd	a4,368(sp)
    800054ec:	0086e863          	bltu	a3,s0,800054fc <bilateral_core+0x3302>
    800054f0:	6696                	ld	a3,320(sp)
    800054f2:	62d4                	ld	a3,128(a3)
    800054f4:	eab6                	sd	a3,336(sp)
    800054f6:	7e54                	ld	a3,184(a2)
    800054f8:	f2b6                	sd	a3,352(sp)
    800054fa:	a019                	j	80005500 <bilateral_core+0x3306>
    800054fc:	ea82                	sd	zero,336(sp)
    800054fe:	f282                	sd	zero,352(sp)
    80005500:	86ae                	mv	a3,a1
    80005502:	0ee00713          	li	a4,238
    80005506:	00876e63          	bltu	a4,s0,80005522 <bilateral_core+0x3328>
    8000550a:	8426                	mv	s0,s1
    8000550c:	27013703          	ld	a4,624(sp)
    80005510:	21170713          	addi	a4,a4,529
    80005514:	070e                	slli	a4,a4,0x3
    80005516:	972a                	add	a4,a4,a0
    80005518:	00073283          	ld	t0,0(a4)
    8000551c:	0c063c03          	ld	s8,192(a2)
    80005520:	a021                	j	80005528 <bilateral_core+0x332e>
    80005522:	8426                	mv	s0,s1
    80005524:	4281                	li	t0,0
    80005526:	4c01                	li	s8,0
    80005528:	85be                	mv	a1,a5
    8000552a:	812a070b          	.insn	4, 0x812a070b
    8000552e:	7776                	ld	a4,376(sp)
    80005530:	61d7070b          	.insn	4, 0x61d7070b
    80005534:	41f3870b          	.insn	4, 0x41f3870b
    80005538:	215e070b          	.insn	4, 0x215e070b
    8000553c:	29013a03          	ld	s4,656(sp)
    80005540:	014f177b          	.insn	4, 0x014f177b
    80005544:	00e703ab          	.insn	4, 0x00e703ab
    80005548:	f2070153          	fmv.d.x	ft2,a4
    8000554c:	677a                	ld	a4,408(sp)
    8000554e:	84ed870b          	.insn	4, 0x84ed870b
    80005552:	659b870b          	.insn	4, 0x659b870b
    80005556:	441d070b          	.insn	4, 0x441d070b
    8000555a:	248b070b          	.insn	4, 0x248b070b
    8000555e:	414f177b          	.insn	4, 0x414f177b
    80005562:	04e70eab          	.insn	4, 0x04e70eab
    80005566:	02017153          	fadd.d	ft2,ft2,ft0
    8000556a:	f20701d3          	fmv.d.x	ft3,a4
    8000556e:	7772                	ld	a4,312(sp)
    80005570:	74ce                	ld	s1,240(sp)
    80005572:	88e4870b          	.insn	4, 0x88e4870b
    80005576:	7712                	ld	a4,288(sp)
    80005578:	6492                	ld	s1,256(sp)
    8000557a:	6897070b          	.insn	4, 0x6897070b
    8000557e:	673a                	ld	a4,392(sp)
    80005580:	74b6                	ld	s1,360(sp)
    80005582:	4897070b          	.insn	4, 0x4897070b
    80005586:	675a                	ld	a4,400(sp)
    80005588:	74ee                	ld	s1,248(sp)
    8000558a:	28e4870b          	.insn	4, 0x28e4870b
    8000558e:	814f177b          	.insn	4, 0x814f177b
    80005592:	08e70e2b          	.insn	4, 0x08e70e2b
    80005596:	02317153          	fadd.d	ft2,ft2,ft3
    8000559a:	f20701d3          	fmv.d.x	ft3,a4
    8000559e:	670e                	ld	a4,192(sp)
    800055a0:	64b2                	ld	s1,264(sp)
    800055a2:	8c97070b          	.insn	4, 0x8c97070b
    800055a6:	770e                	ld	a4,224(sp)
    800055a8:	77ae                	ld	a5,232(sp)
    800055aa:	6ce7870b          	.insn	4, 0x6ce7870b
    800055ae:	674e                	ld	a4,208(sp)
    800055b0:	67f2                	ld	a5,280(sp)
    800055b2:	4cf7070b          	.insn	4, 0x4cf7070b
    800055b6:	676e                	ld	a4,216(sp)
    800055b8:	2cef070b          	.insn	4, 0x2cef070b
    800055bc:	c14f177b          	.insn	4, 0xc14f177b
    800055c0:	0ce704ab          	.insn	4, 0x0ce704ab
    800055c4:	02317153          	fadd.d	ft2,ft2,ft3
    800055c8:	f20701d3          	fmv.d.x	ft3,a4
    800055cc:	776a                	ld	a4,184(sp)
    800055ce:	9cb7058b          	.insn	4, 0x9cb7058b
    800055d2:	65b6                	ld	a1,328(sp)
    800055d4:	7752                	ld	a4,304(sp)
    800055d6:	7ce5858b          	.insn	4, 0x7ce5858b
    800055da:	65d2                	ld	a1,272(sp)
    800055dc:	774a                	ld	a4,176(sp)
    800055de:	5ce5858b          	.insn	4, 0x5ce5858b
    800055e2:	759a                	ld	a1,416(sp)
    800055e4:	6776                	ld	a4,344(sp)
    800055e6:	3ce5858b          	.insn	4, 0x3ce5858b
    800055ea:	c14f15fb          	.insn	4, 0xc14f15fb
    800055ee:	02317153          	fadd.d	ft2,ft2,ft3
    800055f2:	f20581d3          	fmv.d.x	ft3,a1
    800055f6:	7596                	ld	a1,352(sp)
    800055f8:	9cb685db          	.insn	4, 0x9cb685db
    800055fc:	7c69868b          	.insn	4, 0x7c69868b
    80005600:	76d6                	ld	a3,368(sp)
    80005602:	6756                	ld	a4,336(sp)
    80005604:	5ce6868b          	.insn	4, 0x5ce6868b
    80005608:	c50896fb          	.insn	4, 0xc50896fb
    8000560c:	02317153          	fadd.d	ft2,ft2,ft3
    80005610:	f20681d3          	fmv.d.x	ft3,a3
    80005614:	7c0c06db          	.insn	4, 0x7c0c06db
    80005618:	c402947b          	.insn	4, 0xc402947b
    8000561c:	1c84072b          	.insn	4, 0x1c84072b
    80005620:	02317153          	fadd.d	ft2,ft2,ft3
    80005624:	f20401d3          	fmv.d.x	ft3,s0
    80005628:	02317153          	fadd.d	ft2,ft2,ft3
    8000562c:	a2209453          	flt.d	s0,ft1,ft2
    80005630:	e019                	bnez	s0,80005636 <bilateral_core+0x343c>
    80005632:	c89fc06f          	j	800022ba <bilateral_core+0xc0>
    80005636:	f20381d3          	fmv.d.x	ft3,t2
    8000563a:	0201f1d3          	fadd.d	ft3,ft3,ft0
    8000563e:	f20e8253          	fmv.d.x	ft4,t4
    80005642:	0241f1d3          	fadd.d	ft3,ft3,ft4
    80005646:	f20e0253          	fmv.d.x	ft4,t3
    8000564a:	0241f1d3          	fadd.d	ft3,ft3,ft4
    8000564e:	f2048253          	fmv.d.x	ft4,s1
    80005652:	0241f1d3          	fadd.d	ft3,ft3,ft4
    80005656:	f2058253          	fmv.d.x	ft4,a1
    8000565a:	0241f1d3          	fadd.d	ft3,ft3,ft4
    8000565e:	f2068253          	fmv.d.x	ft4,a3
    80005662:	0241f1d3          	fadd.d	ft3,ft3,ft4
    80005666:	f2070253          	fmv.d.x	ft4,a4
    8000566a:	0241f1d3          	fadd.d	ft3,ft3,ft4
    8000566e:	1a21f153          	fdiv.d	ft2,ft3,ft2
    80005672:	e2010f53          	fmv.x.d	t5,ft2
    80005676:	c45fc06f          	j	800022ba <bilateral_core+0xc0>
    8000567a:	4401                	li	s0,0
    8000567c:	0016e593          	ori	a1,a3,1
    80005680:	00859e93          	slli	t4,a1,0x8
    80005684:	0066f4b3          	and	s1,a3,t1
    80005688:	100e8593          	addi	a1,t4,256
    8000568c:	20b13c23          	sd	a1,536(sp)
    80005690:	3003ea13          	ori	s4,t2,768
    80005694:	27d13823          	sd	t4,624(sp)
    80005698:	26913c23          	sd	s1,632(sp)
    8000569c:	27413423          	sd	s4,616(sp)
    800056a0:	a835                	j	800056dc <bilateral_core+0x34e2>
    800056a2:	28813583          	ld	a1,648(sp)
    800056a6:	6696                	ld	a3,320(sp)
    800056a8:	95b6                	add	a1,a1,a3
    800056aa:	24013403          	ld	s0,576(sp)
    800056ae:	0441                	addi	s0,s0,16
    800056b0:	0125b023          	sd	s2,0(a1)
    800056b4:	28013f03          	ld	t5,640(sp)
    800056b8:	25813303          	ld	t1,600(sp)
    800056bc:	10000593          	li	a1,256
    800056c0:	27013e83          	ld	t4,624(sp)
    800056c4:	27813483          	ld	s1,632(sp)
    800056c8:	26813a03          	ld	s4,616(sp)
    800056cc:	26013383          	ld	t2,608(sp)
    800056d0:	23813803          	ld	a6,568(sp)
    800056d4:	00b41463          	bne	s0,a1,800056dc <bilateral_core+0x34e2>
    800056d8:	2340306f          	j	8000890c <bilateral_core+0x6712>
    800056dc:	4e01                	li	t3,0
    800056de:	4f01                	li	t5,0
    800056e0:	01d405b3          	add	a1,s0,t4
    800056e4:	22b13823          	sd	a1,560(sp)
    800056e8:	00359893          	slli	a7,a1,0x3
    800056ec:	011505b3          	add	a1,a0,a7
    800056f0:	f0ae                	sd	a1,96(sp)
    800056f2:	0005ba83          	ld	s5,0(a1)
    800056f6:	00803733          	snez	a4,s0
    800056fa:	659a                	ld	a1,384(sp)
    800056fc:	00e5f6b3          	and	a3,a1,a4
    80005700:	ffe40293          	addi	t0,s0,-2
    80005704:	ce81                	beqz	a3,8000571c <bilateral_core+0x3522>
    80005706:	005807b3          	add	a5,a6,t0
    8000570a:	22813583          	ld	a1,552(sp)
    8000570e:	8fed                	and	a5,a5,a1
    80005710:	078e                	slli	a5,a5,0x3
    80005712:	97aa                	add	a5,a5,a0
    80005714:	0007be03          	ld	t3,0(a5)
    80005718:	00063f03          	ld	t5,0(a2)
    8000571c:	4901                	li	s2,0
    8000571e:	4981                	li	s3,0
    80005720:	ce89                	beqz	a3,8000573a <bilateral_core+0x3540>
    80005722:	0ff30693          	addi	a3,t1,255
    80005726:	00d407b3          	add	a5,s0,a3
    8000572a:	97c2                	add	a5,a5,a6
    8000572c:	8efd                	and	a3,a3,a5
    8000572e:	068e                	slli	a3,a3,0x3
    80005730:	96aa                	add	a3,a3,a0
    80005732:	0006b903          	ld	s2,0(a3)
    80005736:	00863983          	ld	s3,8(a2)
    8000573a:	4b81                	li	s7,0
    8000573c:	4b01                	li	s6,0
    8000573e:	4c01                	li	s8,0
    80005740:	4c81                	li	s9,0
    80005742:	25013783          	ld	a5,592(sp)
    80005746:	e795                	bnez	a5,80005772 <bilateral_core+0x3578>
    80005748:	75ba                	ld	a1,424(sp)
    8000574a:	008586b3          	add	a3,a1,s0
    8000574e:	068e                	slli	a3,a3,0x3
    80005750:	96aa                	add	a3,a3,a0
    80005752:	0006bb03          	ld	s6,0(a3)
    80005756:	01063b83          	ld	s7,16(a2)
    8000575a:	00146693          	ori	a3,s0,1
    8000575e:	96c2                	add	a3,a3,a6
    80005760:	22013583          	ld	a1,544(sp)
    80005764:	8eed                	and	a3,a3,a1
    80005766:	068e                	slli	a3,a3,0x3
    80005768:	96aa                	add	a3,a3,a0
    8000576a:	0006bc03          	ld	s8,0(a3)
    8000576e:	01863c83          	ld	s9,24(a2)
    80005772:	4d01                	li	s10,0
    80005774:	4d81                	li	s11,0
    80005776:	ef89                	bnez	a5,80005790 <bilateral_core+0x3596>
    80005778:	00246693          	ori	a3,s0,2
    8000577c:	96c2                	add	a3,a3,a6
    8000577e:	20813583          	ld	a1,520(sp)
    80005782:	8eed                	and	a3,a3,a1
    80005784:	068e                	slli	a3,a3,0x3
    80005786:	96aa                	add	a3,a3,a0
    80005788:	0006bd03          	ld	s10,0(a3)
    8000578c:	02063d83          	ld	s11,32(a2)
    80005790:	4801                	li	a6,0
    80005792:	0014b593          	seqz	a1,s1
    80005796:	f32e                	sd	a1,416(sp)
    80005798:	00e5f7b3          	and	a5,a1,a4
    8000579c:	4081                	li	ra,0
    8000579e:	cf81                	beqz	a5,800057b6 <bilateral_core+0x35bc>
    800057a0:	005386b3          	add	a3,t2,t0
    800057a4:	22813583          	ld	a1,552(sp)
    800057a8:	8eed                	and	a3,a3,a1
    800057aa:	068e                	slli	a3,a3,0x3
    800057ac:	96aa                	add	a3,a3,a0
    800057ae:	0006b803          	ld	a6,0(a3)
    800057b2:	02863083          	ld	ra,40(a2)
    800057b6:	4701                	li	a4,0
    800057b8:	eb02                	sd	zero,400(sp)
    800057ba:	24813f83          	ld	t6,584(sp)
    800057be:	cf81                	beqz	a5,800057d6 <bilateral_core+0x35dc>
    800057c0:	0ff30693          	addi	a3,t1,255
    800057c4:	00d40733          	add	a4,s0,a3
    800057c8:	971e                	add	a4,a4,t2
    800057ca:	8ef9                	and	a3,a3,a4
    800057cc:	068e                	slli	a3,a3,0x3
    800057ce:	96aa                	add	a3,a3,a0
    800057d0:	6298                	ld	a4,0(a3)
    800057d2:	7a0c                	ld	a1,48(a2)
    800057d4:	eb2e                	sd	a1,400(sp)
    800057d6:	f682                	sd	zero,360(sp)
    800057d8:	f282                	sd	zero,352(sp)
    800057da:	e889                	bnez	s1,800057ec <bilateral_core+0x35f2>
    800057dc:	008386b3          	add	a3,t2,s0
    800057e0:	068e                	slli	a3,a3,0x3
    800057e2:	96aa                	add	a3,a3,a0
    800057e4:	628c                	ld	a1,0(a3)
    800057e6:	f6ae                	sd	a1,360(sp)
    800057e8:	7e0c                	ld	a1,56(a2)
    800057ea:	f2ae                	sd	a1,352(sp)
    800057ec:	e682                	sd	zero,328(sp)
    800057ee:	ee82                	sd	zero,344(sp)
    800057f0:	4581                	li	a1,0
    800057f2:	4681                	li	a3,0
    800057f4:	e49d                	bnez	s1,80005822 <bilateral_core+0x3628>
    800057f6:	00146693          	ori	a3,s0,1
    800057fa:	969e                	add	a3,a3,t2
    800057fc:	22013583          	ld	a1,544(sp)
    80005800:	8eed                	and	a3,a3,a1
    80005802:	068e                	slli	a3,a3,0x3
    80005804:	96aa                	add	a3,a3,a0
    80005806:	628c                	ld	a1,0(a3)
    80005808:	eeae                	sd	a1,344(sp)
    8000580a:	622c                	ld	a1,64(a2)
    8000580c:	e6ae                	sd	a1,328(sp)
    8000580e:	00246693          	ori	a3,s0,2
    80005812:	969e                	add	a3,a3,t2
    80005814:	20813583          	ld	a1,520(sp)
    80005818:	8eed                	and	a3,a3,a1
    8000581a:	068e                	slli	a3,a3,0x3
    8000581c:	96aa                	add	a3,a3,a0
    8000581e:	628c                	ld	a1,0(a3)
    80005820:	6634                	ld	a3,72(a2)
    80005822:	fe46                	sd	a7,312(sp)
    80005824:	ea3e                	sd	a5,272(sp)
    80005826:	fa7a                	sd	t5,304(sp)
    80005828:	fdba                	sd	a4,248(sp)
    8000582a:	f9ae                	sd	a1,240(sp)
    8000582c:	f5b6                	sd	a3,232(sp)
    8000582e:	c80d                	beqz	s0,80005860 <bilateral_core+0x3666>
    80005830:	005e86b3          	add	a3,t4,t0
    80005834:	22813583          	ld	a1,552(sp)
    80005838:	8eed                	and	a3,a3,a1
    8000583a:	068e                	slli	a3,a3,0x3
    8000583c:	96aa                	add	a3,a3,a0
    8000583e:	628c                	ld	a1,0(a3)
    80005840:	e1ae                	sd	a1,192(sp)
    80005842:	6a2c                	ld	a1,80(a2)
    80005844:	fd2e                	sd	a1,184(sp)
    80005846:	0ff30693          	addi	a3,t1,255
    8000584a:	00d40733          	add	a4,s0,a3
    8000584e:	9776                	add	a4,a4,t4
    80005850:	8ef9                	and	a3,a3,a4
    80005852:	068e                	slli	a3,a3,0x3
    80005854:	96aa                	add	a3,a3,a0
    80005856:	628c                	ld	a1,0(a3)
    80005858:	f92e                	sd	a1,176(sp)
    8000585a:	6e2c                	ld	a1,88(a2)
    8000585c:	f52e                	sd	a1,168(sp)
    8000585e:	a029                	j	80005868 <bilateral_core+0x366e>
    80005860:	fd02                	sd	zero,184(sp)
    80005862:	e182                	sd	zero,192(sp)
    80005864:	f902                	sd	zero,176(sp)
    80005866:	f502                	sd	zero,168(sp)
    80005868:	06063883          	ld	a7,96(a2)
    8000586c:	00146593          	ori	a1,s0,1
    80005870:	e72e                	sd	a1,392(sp)
    80005872:	00be83b3          	add	t2,t4,a1
    80005876:	00339793          	slli	a5,t2,0x3
    8000587a:	00f50733          	add	a4,a0,a5
    8000587e:	00073303          	ld	t1,0(a4)
    80005882:	06863f03          	ld	t5,104(a2)
    80005886:	00246593          	ori	a1,s0,2
    8000588a:	ef2e                	sd	a1,408(sp)
    8000588c:	00be86b3          	add	a3,t4,a1
    80005890:	00369493          	slli	s1,a3,0x3
    80005894:	009505b3          	add	a1,a0,s1
    80005898:	eaae                	sd	a1,336(sp)
    8000589a:	0005be83          	ld	t4,0(a1)
    8000589e:	7a2c                	ld	a1,112(a2)
    800058a0:	e2b6                	sd	a3,320(sp)
    800058a2:	e23a                	sd	a4,256(sp)
    800058a4:	f19a                	sd	t1,224(sp)
    800058a6:	8372                	mv	t1,t3
    800058a8:	c819                	beqz	s0,800058be <bilateral_core+0x36c4>
    800058aa:	21813683          	ld	a3,536(sp)
    800058ae:	9696                	add	a3,a3,t0
    800058b0:	068e                	slli	a3,a3,0x3
    800058b2:	96aa                	add	a3,a3,a0
    800058b4:	6294                	ld	a3,0(a3)
    800058b6:	f136                	sd	a3,160(sp)
    800058b8:	7e34                	ld	a3,120(a2)
    800058ba:	ed36                	sd	a3,152(sp)
    800058bc:	a019                	j	800058c2 <bilateral_core+0x36c8>
    800058be:	f102                	sd	zero,160(sp)
    800058c0:	ed02                	sd	zero,152(sp)
    800058c2:	f226                	sd	s1,288(sp)
    800058c4:	ee1e                	sd	t2,280(sp)
    800058c6:	e63e                	sd	a5,264(sp)
    800058c8:	edfa                	sd	t5,216(sp)
    800058ca:	e9f6                	sd	t4,208(sp)
    800058cc:	e5ae                	sd	a1,200(sp)
    800058ce:	85ca                	mv	a1,s2
    800058d0:	c819                	beqz	s0,800058e6 <bilateral_core+0x36ec>
    800058d2:	01f406b3          	add	a3,s0,t6
    800058d6:	068e                	slli	a3,a3,0x3
    800058d8:	96aa                	add	a3,a3,a0
    800058da:	ff86b683          	ld	a3,-8(a3)
    800058de:	e936                	sd	a3,144(sp)
    800058e0:	6254                	ld	a3,128(a2)
    800058e2:	e536                	sd	a3,136(sp)
    800058e4:	a019                	j	800058ea <bilateral_core+0x36f0>
    800058e6:	e902                	sd	zero,144(sp)
    800058e8:	e502                	sd	zero,136(sp)
    800058ea:	008f86b3          	add	a3,t6,s0
    800058ee:	068e                	slli	a3,a3,0x3
    800058f0:	96aa                	add	a3,a3,a0
    800058f2:	f636                	sd	a3,296(sp)
    800058f4:	0006be03          	ld	t3,0(a3)
    800058f8:	08863903          	ld	s2,136(a2)
    800058fc:	66ba                	ld	a3,392(sp)
    800058fe:	96fe                	add	a3,a3,t6
    80005900:	068e                	slli	a3,a3,0x3
    80005902:	96aa                	add	a3,a3,a0
    80005904:	feb6                	sd	a3,376(sp)
    80005906:	0006bf03          	ld	t5,0(a3)
    8000590a:	86fe                	mv	a3,t6
    8000590c:	6a5c                	ld	a5,144(a2)
    8000590e:	64fa                	ld	s1,408(sp)
    80005910:	009f86b3          	add	a3,t6,s1
    80005914:	068e                	slli	a3,a3,0x3
    80005916:	96aa                	add	a3,a3,a0
    80005918:	fab6                	sd	a3,368(sp)
    8000591a:	0006b383          	ld	t2,0(a3)
    8000591e:	09863e83          	ld	t4,152(a2)
    80005922:	24813023          	sd	s0,576(sp)
    80005926:	874e                	mv	a4,s3
    80005928:	c41d                	beqz	s0,80005956 <bilateral_core+0x375c>
    8000592a:	005a06b3          	add	a3,s4,t0
    8000592e:	068e                	slli	a3,a3,0x3
    80005930:	96aa                	add	a3,a3,a0
    80005932:	6294                	ld	a3,0(a3)
    80005934:	e136                	sd	a3,128(sp)
    80005936:	0a063283          	ld	t0,160(a2)
    8000593a:	24013983          	ld	s3,576(sp)
    8000593e:	02098263          	beqz	s3,80005962 <bilateral_core+0x3768>
    80005942:	845a                	mv	s0,s6
    80005944:	014986b3          	add	a3,s3,s4
    80005948:	068e                	slli	a3,a3,0x3
    8000594a:	96aa                	add	a3,a3,a0
    8000594c:	ff86bf83          	ld	t6,-8(a3)
    80005950:	0a863b03          	ld	s6,168(a2)
    80005954:	a811                	j	80005968 <bilateral_core+0x376e>
    80005956:	e102                	sd	zero,128(sp)
    80005958:	4281                	li	t0,0
    8000595a:	24013983          	ld	s3,576(sp)
    8000595e:	fe0992e3          	bnez	s3,80005942 <bilateral_core+0x3748>
    80005962:	845a                	mv	s0,s6
    80005964:	4f81                	li	t6,0
    80005966:	4b01                	li	s6,0
    80005968:	819b848b          	.insn	4, 0x819b848b
    8000596c:	76d2                	ld	a3,304(sp)
    8000596e:	60e6848b          	.insn	4, 0x60e6848b
    80005972:	4184048b          	.insn	4, 0x4184048b
    80005976:	20b3048b          	.insn	4, 0x20b3048b
    8000597a:	29013683          	ld	a3,656(sp)
    8000597e:	00da94fb          	.insn	4, 0x00da94fb
    80005982:	00948cab          	.insn	4, 0x00948cab
    80005986:	f2048153          	fmv.d.x	ft2,s1
    8000598a:	65da                	ld	a1,400(sp)
    8000598c:	7716                	ld	a4,352(sp)
    8000598e:	84e5848b          	.insn	4, 0x84e5848b
    80005992:	641d848b          	.insn	4, 0x641d848b
    80005996:	75ee                	ld	a1,248(sp)
    80005998:	7736                	ld	a4,360(sp)
    8000599a:	44e5848b          	.insn	4, 0x44e5848b
    8000599e:	250d048b          	.insn	4, 0x250d048b
    800059a2:	40da94fb          	.insn	4, 0x40da94fb
    800059a6:	0494832b          	.insn	4, 0x0494832b
    800059aa:	02017153          	fadd.d	ft2,ft2,ft0
    800059ae:	f20481d3          	fmv.d.x	ft3,s1
    800059b2:	75ea                	ld	a1,184(sp)
