
mainop_BASELINE_O2U4.riscv:     file format elf64-littleriscv


Disassembly of section .text.init:

0000000080000000 <_start>:
    80000000:	4081                	li	ra,0
    80000002:	4101                	li	sp,0
    80000004:	4181                	li	gp,0
    80000006:	4201                	li	tp,0
    80000008:	4281                	li	t0,0
    8000000a:	4301                	li	t1,0
    8000000c:	4381                	li	t2,0
    8000000e:	4401                	li	s0,0
    80000010:	4481                	li	s1,0
    80000012:	4501                	li	a0,0
    80000014:	4581                	li	a1,0
    80000016:	4601                	li	a2,0
    80000018:	4681                	li	a3,0
    8000001a:	4701                	li	a4,0
    8000001c:	4781                	li	a5,0
    8000001e:	4801                	li	a6,0
    80000020:	4881                	li	a7,0
    80000022:	4901                	li	s2,0
    80000024:	4981                	li	s3,0
    80000026:	4a01                	li	s4,0
    80000028:	4a81                	li	s5,0
    8000002a:	4b01                	li	s6,0
    8000002c:	4b81                	li	s7,0
    8000002e:	4c01                	li	s8,0
    80000030:	4c81                	li	s9,0
    80000032:	4d01                	li	s10,0
    80000034:	4d81                	li	s11,0
    80000036:	4e01                	li	t3,0
    80000038:	4e81                	li	t4,0
    8000003a:	4f01                	li	t5,0
    8000003c:	4f81                	li	t6,0
    8000003e:	62f9                	lui	t0,0x1e
    80000040:	3002a073          	csrs	mstatus,t0
    80000044:	4285                	li	t0,1
    80000046:	02fe                	slli	t0,t0,0x1f
    80000048:	0002d863          	bgez	t0,80000058 <_start+0x58>
    8000004c:	4505                	li	a0,1
    8000004e:	00001297          	auipc	t0,0x1
    80000052:	faa2a923          	sw	a0,-78(t0) # 80001000 <tohost>
    80000056:	bfdd                	j	8000004c <_start+0x4c>
    80000058:	00000297          	auipc	t0,0x0
    8000005c:	09028293          	addi	t0,t0,144 # 800000e8 <_start+0xe8>
    80000060:	30529073          	csrw	mtvec,t0
    80000064:	00301073          	fscsr	zero
    80000068:	f0000053          	fmv.w.x	ft0,zero
    8000006c:	f00000d3          	fmv.w.x	ft1,zero
    80000070:	f0000153          	fmv.w.x	ft2,zero
    80000074:	f00001d3          	fmv.w.x	ft3,zero
    80000078:	f0000253          	fmv.w.x	ft4,zero
    8000007c:	f00002d3          	fmv.w.x	ft5,zero
    80000080:	f0000353          	fmv.w.x	ft6,zero
    80000084:	f00003d3          	fmv.w.x	ft7,zero
    80000088:	f0000453          	fmv.w.x	fs0,zero
    8000008c:	f00004d3          	fmv.w.x	fs1,zero
    80000090:	f0000553          	fmv.w.x	fa0,zero
    80000094:	f00005d3          	fmv.w.x	fa1,zero
    80000098:	f0000653          	fmv.w.x	fa2,zero
    8000009c:	f00006d3          	fmv.w.x	fa3,zero
    800000a0:	f0000753          	fmv.w.x	fa4,zero
    800000a4:	f00007d3          	fmv.w.x	fa5,zero
    800000a8:	f0000853          	fmv.w.x	fa6,zero
    800000ac:	f00008d3          	fmv.w.x	fa7,zero
    800000b0:	f0000953          	fmv.w.x	fs2,zero
    800000b4:	f00009d3          	fmv.w.x	fs3,zero
    800000b8:	f0000a53          	fmv.w.x	fs4,zero
    800000bc:	f0000ad3          	fmv.w.x	fs5,zero
    800000c0:	f0000b53          	fmv.w.x	fs6,zero
    800000c4:	f0000bd3          	fmv.w.x	fs7,zero
    800000c8:	f0000c53          	fmv.w.x	fs8,zero
    800000cc:	f0000cd3          	fmv.w.x	fs9,zero
    800000d0:	f0000d53          	fmv.w.x	fs10,zero
    800000d4:	f0000dd3          	fmv.w.x	fs11,zero
    800000d8:	f0000e53          	fmv.w.x	ft8,zero
    800000dc:	f0000ed3          	fmv.w.x	ft9,zero
    800000e0:	f0000f53          	fmv.w.x	ft10,zero
    800000e4:	f0000fd3          	fmv.w.x	ft11,zero
    800000e8:	00000297          	auipc	t0,0x0
    800000ec:	03828293          	addi	t0,t0,56 # 80000120 <trap_entry>
    800000f0:	30529073          	csrw	mtvec,t0
    800000f4:	00015197          	auipc	gp,0x15
    800000f8:	16c18193          	addi	gp,gp,364 # 80015260 <__global_pointer$>
    800000fc:	95f18213          	addi	tp,gp,-1697 # 80014bbf <_end+0x3f>
    80000100:	fc027213          	andi	tp,tp,-64
    80000104:	f1402573          	csrr	a0,mhartid
    80000108:	4585                	li	a1,1
    8000010a:	00b57063          	bgeu	a0,a1,8000010a <_start+0x10a>
    8000010e:	00150113          	addi	sp,a0,1
    80000112:	0146                	slli	sp,sp,0x11
    80000114:	9112                	add	sp,sp,tp
    80000116:	01151613          	slli	a2,a0,0x11
    8000011a:	9232                	add	tp,tp,a2
    8000011c:	65d1306f          	j	80013f78 <_init>

0000000080000120 <trap_entry>:
    80000120:	716d                	addi	sp,sp,-272
    80000122:	e406                	sd	ra,8(sp)
    80000124:	e80a                	sd	sp,16(sp)
    80000126:	ec0e                	sd	gp,24(sp)
    80000128:	f012                	sd	tp,32(sp)
    8000012a:	f416                	sd	t0,40(sp)
    8000012c:	f81a                	sd	t1,48(sp)
    8000012e:	fc1e                	sd	t2,56(sp)
    80000130:	e0a2                	sd	s0,64(sp)
    80000132:	e4a6                	sd	s1,72(sp)
    80000134:	e8aa                	sd	a0,80(sp)
    80000136:	ecae                	sd	a1,88(sp)
    80000138:	f0b2                	sd	a2,96(sp)
    8000013a:	f4b6                	sd	a3,104(sp)
    8000013c:	f8ba                	sd	a4,112(sp)
    8000013e:	fcbe                	sd	a5,120(sp)
    80000140:	e142                	sd	a6,128(sp)
    80000142:	e546                	sd	a7,136(sp)
    80000144:	e94a                	sd	s2,144(sp)
    80000146:	ed4e                	sd	s3,152(sp)
    80000148:	f152                	sd	s4,160(sp)
    8000014a:	f556                	sd	s5,168(sp)
    8000014c:	f95a                	sd	s6,176(sp)
    8000014e:	fd5e                	sd	s7,184(sp)
    80000150:	e1e2                	sd	s8,192(sp)
    80000152:	e5e6                	sd	s9,200(sp)
    80000154:	e9ea                	sd	s10,208(sp)
    80000156:	edee                	sd	s11,216(sp)
    80000158:	f1f2                	sd	t3,224(sp)
    8000015a:	f5f6                	sd	t4,232(sp)
    8000015c:	f9fa                	sd	t5,240(sp)
    8000015e:	fdfe                	sd	t6,248(sp)
    80000160:	34202573          	csrr	a0,mcause
    80000164:	341025f3          	csrr	a1,mepc
    80000168:	860a                	mv	a2,sp
    8000016a:	447130ef          	jal	80013db0 <handle_trap>
    8000016e:	34151073          	csrw	mepc,a0
    80000172:	6289                	lui	t0,0x2
    80000174:	8002829b          	addiw	t0,t0,-2048 # 1800 <buflen.1+0x17c0>
    80000178:	3002a073          	csrs	mstatus,t0
    8000017c:	60a2                	ld	ra,8(sp)
    8000017e:	6142                	ld	sp,16(sp)
    80000180:	61e2                	ld	gp,24(sp)
    80000182:	7202                	ld	tp,32(sp)
    80000184:	72a2                	ld	t0,40(sp)
    80000186:	7342                	ld	t1,48(sp)
    80000188:	73e2                	ld	t2,56(sp)
    8000018a:	6406                	ld	s0,64(sp)
    8000018c:	64a6                	ld	s1,72(sp)
    8000018e:	6546                	ld	a0,80(sp)
    80000190:	65e6                	ld	a1,88(sp)
    80000192:	7606                	ld	a2,96(sp)
    80000194:	76a6                	ld	a3,104(sp)
    80000196:	7746                	ld	a4,112(sp)
    80000198:	77e6                	ld	a5,120(sp)
    8000019a:	680a                	ld	a6,128(sp)
    8000019c:	68aa                	ld	a7,136(sp)
    8000019e:	694a                	ld	s2,144(sp)
    800001a0:	69ea                	ld	s3,152(sp)
    800001a2:	7a0a                	ld	s4,160(sp)
    800001a4:	7aaa                	ld	s5,168(sp)
    800001a6:	7b4a                	ld	s6,176(sp)
    800001a8:	7bea                	ld	s7,184(sp)
    800001aa:	6c0e                	ld	s8,192(sp)
    800001ac:	6cae                	ld	s9,200(sp)
    800001ae:	6d4e                	ld	s10,208(sp)
    800001b0:	6dee                	ld	s11,216(sp)
    800001b2:	7e0e                	ld	t3,224(sp)
    800001b4:	7eae                	ld	t4,232(sp)
    800001b6:	7f4e                	ld	t5,240(sp)
    800001b8:	7fee                	ld	t6,248(sp)
    800001ba:	6151                	addi	sp,sp,272
    800001bc:	30200073          	mret
    800001c0:	0000                	unimp

Disassembly of section .text:

0000000080002000 <d2ull>:
    80002000:	e2050553          	fmv.x.d	a0,fa0
    80002004:	8082                	ret

0000000080002006 <ull2d>:
    80002006:	f2050553          	fmv.d.x	fa0,a0
    8000200a:	8082                	ret

000000008000200c <PickResult>:
    8000200c:	058e                	slli	a1,a1,0x3
    8000200e:	952e                	add	a0,a0,a1
    80002010:	6108                	ld	a0,0(a0)
    80002012:	8082                	ret

0000000080002014 <Impl_BilateralKernel4>:
    80002014:	715d                	addi	sp,sp,-80
    80002016:	e486                	sd	ra,72(sp)
    80002018:	e0a2                	sd	s0,64(sp)
    8000201a:	fc26                	sd	s1,56(sp)
    8000201c:	b822                	fsd	fs0,48(sp)
    8000201e:	b426                	fsd	fs1,40(sp)
    80002020:	b04a                	fsd	fs2,32(sp)
    80002022:	ac4e                	fsd	fs3,24(sp)
    80002024:	a852                	fsd	fs4,16(sp)
    80002026:	a456                	fsd	fs5,8(sp)
    80002028:	a05a                	fsd	fs6,0(sp)
    8000202a:	842a                	mv	s0,a0
    8000202c:	2100                	fld	fs0,0(a0)
    8000202e:	2904                	fld	fs1,16(a0)
    80002030:	0a84f053          	fsub.d	ft0,fs1,fs0
    80002034:	220010d3          	fneg.d	ft1,ft0
    80002038:	12107053          	fmul.d	ft0,ft0,ft1
    8000203c:	00853907          	fld	fs2,8(a0)
    80002040:	12097553          	fmul.d	fa0,fs2,ft0
    80002044:	03053987          	fld	fs3,48(a0)
    80002048:	84ae                	mv	s1,a1
    8000204a:	44e120ef          	jal	80014498 <exp>
    8000204e:	01843a07          	fld	fs4,24(s0)
    80002052:	0a8a7053          	fsub.d	ft0,fs4,fs0
    80002056:	220010d3          	fneg.d	ft1,ft0
    8000205a:	12a9f153          	fmul.d	ft2,fs3,fa0
    8000205e:	12107053          	fmul.d	ft0,ft0,ft1
    80002062:	f20000d3          	fmv.d.x	ft1,zero
    80002066:	0a24f4c3          	fmadd.d	fs1,fs1,ft2,ft1
    8000206a:	12097553          	fmul.d	fa0,fs2,ft0
    8000206e:	021179d3          	fadd.d	fs3,ft2,ft1
    80002072:	03843a87          	fld	fs5,56(s0)
    80002076:	422120ef          	jal	80014498 <exp>
    8000207a:	02043b07          	fld	fs6,32(s0)
    8000207e:	0a8b7053          	fsub.d	ft0,fs6,fs0
    80002082:	220010d3          	fneg.d	ft1,ft0
    80002086:	12aaf153          	fmul.d	ft2,fs5,fa0
    8000208a:	12107053          	fmul.d	ft0,ft0,ft1
    8000208e:	4a2a74c3          	fmadd.d	fs1,fs4,ft2,fs1
    80002092:	12097553          	fmul.d	fa0,fs2,ft0
    80002096:	0229f9d3          	fadd.d	fs3,fs3,ft2
    8000209a:	04043a07          	fld	fs4,64(s0)
    8000209e:	3fa120ef          	jal	80014498 <exp>
    800020a2:	02843a87          	fld	fs5,40(s0)
    800020a6:	0a8af053          	fsub.d	ft0,fs5,fs0
    800020aa:	220010d3          	fneg.d	ft1,ft0
    800020ae:	12aa7153          	fmul.d	ft2,fs4,fa0
    800020b2:	12107053          	fmul.d	ft0,ft0,ft1
    800020b6:	4a2b7443          	fmadd.d	fs0,fs6,ft2,fs1
    800020ba:	12097553          	fmul.d	fa0,fs2,ft0
    800020be:	0229f4d3          	fadd.d	fs1,fs3,ft2
    800020c2:	04843907          	fld	fs2,72(s0)
    800020c6:	3d2120ef          	jal	80014498 <exp>
    800020ca:	12a97053          	fmul.d	ft0,fs2,fa0
    800020ce:	420af0c3          	fmadd.d	ft1,fs5,ft0,fs0
    800020d2:	0204f053          	fadd.d	ft0,fs1,ft0
    800020d6:	0014b027          	fsd	ft1,0(s1)
    800020da:	0004b427          	fsd	ft0,8(s1)
    800020de:	60a6                	ld	ra,72(sp)
    800020e0:	6406                	ld	s0,64(sp)
    800020e2:	74e2                	ld	s1,56(sp)
    800020e4:	3442                	fld	fs0,48(sp)
    800020e6:	34a2                	fld	fs1,40(sp)
    800020e8:	3902                	fld	fs2,32(sp)
    800020ea:	29e2                	fld	fs3,24(sp)
    800020ec:	2a42                	fld	fs4,16(sp)
    800020ee:	2aa2                	fld	fs5,8(sp)
    800020f0:	2b02                	fld	fs6,0(sp)
    800020f2:	6161                	addi	sp,sp,80
    800020f4:	8082                	ret

00000000800020f6 <SW_BilateralKernel4>:
    800020f6:	711d                	addi	sp,sp,-96
    800020f8:	ec86                	sd	ra,88(sp)
    800020fa:	e8a2                	sd	s0,80(sp)
    800020fc:	e4a6                	sd	s1,72(sp)
    800020fe:	e0ca                	sd	s2,64(sp)
    80002100:	fc4e                	sd	s3,56(sp)
    80002102:	b822                	fsd	fs0,48(sp)
    80002104:	b426                	fsd	fs1,40(sp)
    80002106:	b04a                	fsd	fs2,32(sp)
    80002108:	ac4e                	fsd	fs3,24(sp)
    8000210a:	a852                	fsd	fs4,16(sp)
    8000210c:	a456                	fsd	fs5,8(sp)
    8000210e:	a05a                	fsd	fs6,0(sp)
    80002110:	f2058453          	fmv.d.x	fs0,a1
    80002114:	f20684d3          	fmv.d.x	fs1,a3
    80002118:	0a84f053          	fsub.d	ft0,fs1,fs0
    8000211c:	220010d3          	fneg.d	ft1,ft0
    80002120:	12107053          	fmul.d	ft0,ft0,ft1
    80002124:	f2060953          	fmv.d.x	fs2,a2
    80002128:	13207553          	fmul.d	fa0,ft0,fs2
    8000212c:	8942                	mv	s2,a6
    8000212e:	84be                	mv	s1,a5
    80002130:	843a                	mv	s0,a4
    80002132:	f20889d3          	fmv.d.x	fs3,a7
    80002136:	89aa                	mv	s3,a0
    80002138:	360120ef          	jal	80014498 <exp>
    8000213c:	f2040a53          	fmv.d.x	fs4,s0
    80002140:	0a8a7053          	fsub.d	ft0,fs4,fs0
    80002144:	220010d3          	fneg.d	ft1,ft0
    80002148:	13357153          	fmul.d	ft2,fa0,fs3
    8000214c:	12107053          	fmul.d	ft0,ft0,ft1
    80002150:	f20000d3          	fmv.d.x	ft1,zero
    80002154:	0a24f4c3          	fmadd.d	fs1,fs1,ft2,ft1
    80002158:	13207553          	fmul.d	fa0,ft0,fs2
    8000215c:	021179d3          	fadd.d	fs3,ft2,ft1
    80002160:	3a86                	fld	fs5,96(sp)
    80002162:	336120ef          	jal	80014498 <exp>
    80002166:	f2048b53          	fmv.d.x	fs6,s1
    8000216a:	0a8b7053          	fsub.d	ft0,fs6,fs0
    8000216e:	220010d3          	fneg.d	ft1,ft0
    80002172:	13557153          	fmul.d	ft2,fa0,fs5
    80002176:	12107053          	fmul.d	ft0,ft0,ft1
    8000217a:	4a2a74c3          	fmadd.d	fs1,fs4,ft2,fs1
    8000217e:	13207553          	fmul.d	fa0,ft0,fs2
    80002182:	0229f9d3          	fadd.d	fs3,fs3,ft2
    80002186:	3a26                	fld	fs4,104(sp)
    80002188:	310120ef          	jal	80014498 <exp>
    8000218c:	f2090ad3          	fmv.d.x	fs5,s2
    80002190:	0a8af053          	fsub.d	ft0,fs5,fs0
    80002194:	220010d3          	fneg.d	ft1,ft0
    80002198:	13457153          	fmul.d	ft2,fa0,fs4
    8000219c:	12107053          	fmul.d	ft0,ft0,ft1
    800021a0:	4a2b7443          	fmadd.d	fs0,fs6,ft2,fs1
    800021a4:	13207553          	fmul.d	fa0,ft0,fs2
    800021a8:	0229f4d3          	fadd.d	fs1,fs3,ft2
    800021ac:	3946                	fld	fs2,112(sp)
    800021ae:	2ea120ef          	jal	80014498 <exp>
    800021b2:	13257053          	fmul.d	ft0,fa0,fs2
    800021b6:	420af0c3          	fmadd.d	ft1,fs5,ft0,fs0
    800021ba:	0204f053          	fadd.d	ft0,fs1,ft0
    800021be:	0019b027          	fsd	ft1,0(s3)
    800021c2:	0009b427          	fsd	ft0,8(s3)
    800021c6:	60e6                	ld	ra,88(sp)
    800021c8:	6446                	ld	s0,80(sp)
    800021ca:	64a6                	ld	s1,72(sp)
    800021cc:	6906                	ld	s2,64(sp)
    800021ce:	79e2                	ld	s3,56(sp)
    800021d0:	3442                	fld	fs0,48(sp)
    800021d2:	34a2                	fld	fs1,40(sp)
    800021d4:	3902                	fld	fs2,32(sp)
    800021d6:	29e2                	fld	fs3,24(sp)
    800021d8:	2a42                	fld	fs4,16(sp)
    800021da:	2aa2                	fld	fs5,8(sp)
    800021dc:	2b02                	fld	fs6,0(sp)
    800021de:	6125                	addi	sp,sp,96
    800021e0:	8082                	ret

00000000800021e2 <init_space_weights>:
    800021e2:	7139                	addi	sp,sp,-64
    800021e4:	fc06                	sd	ra,56(sp)
    800021e6:	f822                	sd	s0,48(sp)
    800021e8:	b422                	fsd	fs0,40(sp)
    800021ea:	b026                	fsd	fs1,32(sp)
    800021ec:	ac4a                	fsd	fs2,24(sp)
    800021ee:	a84e                	fsd	fs3,16(sp)
    800021f0:	a452                	fsd	fs4,8(sp)
    800021f2:	a056                	fsd	fs5,0(sp)
    800021f4:	10a57053          	fmul.s	ft0,fa0,fa0
    800021f8:	42000053          	fcvt.d.s	ft0,ft0
    800021fc:	02007ad3          	fadd.d	fs5,ft0,ft0
    80002200:	8b018593          	addi	a1,gp,-1872 # 80014b10 <halF+0xc0>
    80002204:	0005b007          	fld	ft0,0(a1)
    80002208:	1b507453          	fdiv.d	fs0,ft0,fs5
    8000220c:	842a                	mv	s0,a0
    8000220e:	22840553          	fmv.d	fa0,fs0
    80002212:	286120ef          	jal	80014498 <exp>
    80002216:	8b818513          	addi	a0,gp,-1864 # 80014b18 <halF+0xc8>
    8000221a:	00053007          	fld	ft0,0(a0)
    8000221e:	1b5074d3          	fdiv.d	fs1,ft0,fs5
    80002222:	a008                	fsd	fa0,0(s0)
    80002224:	22948553          	fmv.d	fa0,fs1
    80002228:	270120ef          	jal	80014498 <exp>
    8000222c:	8c018513          	addi	a0,gp,-1856 # 80014b20 <halF+0xd0>
    80002230:	00053007          	fld	ft0,0(a0)
    80002234:	1b507953          	fdiv.d	fs2,ft0,fs5
    80002238:	a408                	fsd	fa0,8(s0)
    8000223a:	23290553          	fmv.d	fa0,fs2
    8000223e:	25a120ef          	jal	80014498 <exp>
    80002242:	a808                	fsd	fa0,16(s0)
    80002244:	22948553          	fmv.d	fa0,fs1
    80002248:	250120ef          	jal	80014498 <exp>
    8000224c:	ac08                	fsd	fa0,24(s0)
    8000224e:	22840553          	fmv.d	fa0,fs0
    80002252:	246120ef          	jal	80014498 <exp>
    80002256:	b008                	fsd	fa0,32(s0)
    80002258:	22948553          	fmv.d	fa0,fs1
    8000225c:	23c120ef          	jal	80014498 <exp>
    80002260:	8c818513          	addi	a0,gp,-1848 # 80014b28 <halF+0xd8>
    80002264:	00053007          	fld	ft0,0(a0)
    80002268:	1b5079d3          	fdiv.d	fs3,ft0,fs5
    8000226c:	b408                	fsd	fa0,40(s0)
    8000226e:	23398553          	fmv.d	fa0,fs3
    80002272:	226120ef          	jal	80014498 <exp>
    80002276:	8d018513          	addi	a0,gp,-1840 # 80014b30 <halF+0xe0>
    8000227a:	00053007          	fld	ft0,0(a0)
    8000227e:	1b507a53          	fdiv.d	fs4,ft0,fs5
    80002282:	b808                	fsd	fa0,48(s0)
    80002284:	234a0553          	fmv.d	fa0,fs4
    80002288:	210120ef          	jal	80014498 <exp>
    8000228c:	bc08                	fsd	fa0,56(s0)
    8000228e:	23398553          	fmv.d	fa0,fs3
    80002292:	206120ef          	jal	80014498 <exp>
    80002296:	a028                	fsd	fa0,64(s0)
    80002298:	22948553          	fmv.d	fa0,fs1
    8000229c:	1fc120ef          	jal	80014498 <exp>
    800022a0:	a428                	fsd	fa0,72(s0)
    800022a2:	23290553          	fmv.d	fa0,fs2
    800022a6:	1f2120ef          	jal	80014498 <exp>
    800022aa:	a828                	fsd	fa0,80(s0)
    800022ac:	234a0553          	fmv.d	fa0,fs4
    800022b0:	1e8120ef          	jal	80014498 <exp>
    800022b4:	f2000053          	fmv.d.x	ft0,zero
    800022b8:	22001053          	fneg.d	ft0,ft0
    800022bc:	1b507053          	fdiv.d	ft0,ft0,fs5
    800022c0:	ac28                	fsd	fa0,88(s0)
    800022c2:	22000553          	fmv.d	fa0,ft0
    800022c6:	1d2120ef          	jal	80014498 <exp>
    800022ca:	b028                	fsd	fa0,96(s0)
    800022cc:	234a0553          	fmv.d	fa0,fs4
    800022d0:	1c8120ef          	jal	80014498 <exp>
    800022d4:	b428                	fsd	fa0,104(s0)
    800022d6:	23290553          	fmv.d	fa0,fs2
    800022da:	1be120ef          	jal	80014498 <exp>
    800022de:	b828                	fsd	fa0,112(s0)
    800022e0:	22948553          	fmv.d	fa0,fs1
    800022e4:	1b4120ef          	jal	80014498 <exp>
    800022e8:	bc28                	fsd	fa0,120(s0)
    800022ea:	23398553          	fmv.d	fa0,fs3
    800022ee:	1aa120ef          	jal	80014498 <exp>
    800022f2:	a048                	fsd	fa0,128(s0)
    800022f4:	234a0553          	fmv.d	fa0,fs4
    800022f8:	1a0120ef          	jal	80014498 <exp>
    800022fc:	a448                	fsd	fa0,136(s0)
    800022fe:	23398553          	fmv.d	fa0,fs3
    80002302:	196120ef          	jal	80014498 <exp>
    80002306:	a848                	fsd	fa0,144(s0)
    80002308:	22948553          	fmv.d	fa0,fs1
    8000230c:	18c120ef          	jal	80014498 <exp>
    80002310:	ac48                	fsd	fa0,152(s0)
    80002312:	22840553          	fmv.d	fa0,fs0
    80002316:	182120ef          	jal	80014498 <exp>
    8000231a:	b048                	fsd	fa0,160(s0)
    8000231c:	22948553          	fmv.d	fa0,fs1
    80002320:	178120ef          	jal	80014498 <exp>
    80002324:	b448                	fsd	fa0,168(s0)
    80002326:	23290553          	fmv.d	fa0,fs2
    8000232a:	16e120ef          	jal	80014498 <exp>
    8000232e:	b848                	fsd	fa0,176(s0)
    80002330:	22948553          	fmv.d	fa0,fs1
    80002334:	164120ef          	jal	80014498 <exp>
    80002338:	bc48                	fsd	fa0,184(s0)
    8000233a:	22840553          	fmv.d	fa0,fs0
    8000233e:	15a120ef          	jal	80014498 <exp>
    80002342:	a068                	fsd	fa0,192(s0)
    80002344:	70e2                	ld	ra,56(sp)
    80002346:	7442                	ld	s0,48(sp)
    80002348:	3422                	fld	fs0,40(sp)
    8000234a:	3482                	fld	fs1,32(sp)
    8000234c:	2962                	fld	fs2,24(sp)
    8000234e:	29c2                	fld	fs3,16(sp)
    80002350:	2a22                	fld	fs4,8(sp)
    80002352:	2a82                	fld	fs5,0(sp)
    80002354:	6121                	addi	sp,sp,64
    80002356:	8082                	ret

0000000080002358 <bilateral_core>:
    80002358:	ba010113          	addi	sp,sp,-1120
    8000235c:	44113c23          	sd	ra,1112(sp)
    80002360:	44813823          	sd	s0,1104(sp)
    80002364:	44913423          	sd	s1,1096(sp)
    80002368:	45213023          	sd	s2,1088(sp)
    8000236c:	43313c23          	sd	s3,1080(sp)
    80002370:	43413823          	sd	s4,1072(sp)
    80002374:	43513423          	sd	s5,1064(sp)
    80002378:	43613023          	sd	s6,1056(sp)
    8000237c:	41713c23          	sd	s7,1048(sp)
    80002380:	41813823          	sd	s8,1040(sp)
    80002384:	41913423          	sd	s9,1032(sp)
    80002388:	41a13023          	sd	s10,1024(sp)
    8000238c:	3fb13c23          	sd	s11,1016(sp)
    80002390:	3e813827          	fsd	fs0,1008(sp)
    80002394:	3e913427          	fsd	fs1,1000(sp)
    80002398:	3f213027          	fsd	fs2,992(sp)
    8000239c:	3d313c27          	fsd	fs3,984(sp)
    800023a0:	3d413827          	fsd	fs4,976(sp)
    800023a4:	3d513427          	fsd	fs5,968(sp)
    800023a8:	3d613027          	fsd	fs6,960(sp)
    800023ac:	3b713c27          	fsd	fs7,952(sp)
    800023b0:	3b813827          	fsd	fs8,944(sp)
    800023b4:	3b913427          	fsd	fs9,936(sp)
    800023b8:	3ba13027          	fsd	fs10,928(sp)
    800023bc:	39b13c27          	fsd	fs11,920(sp)
    800023c0:	8d32                	mv	s10,a2
    800023c2:	38b13423          	sd	a1,904(sp)
    800023c6:	89aa                	mv	s3,a0
    800023c8:	4481                	li	s1,0
    800023ca:	4505                	li	a0,1
    800023cc:	1502                	slli	a0,a0,0x20
    800023ce:	f0050413          	addi	s0,a0,-256
    800023d2:	f2068053          	fmv.d.x	ft0,a3
    800023d6:	38013027          	fsd	ft0,896(sp)
    800023da:	f0040513          	addi	a0,s0,-256
    800023de:	e42a                	sd	a0,8(sp)
    800023e0:	f20009d3          	fmv.d.x	fs3,zero
    800023e4:	36813823          	sd	s0,880(sp)
    800023e8:	25313027          	fsd	fs3,576(sp)
    800023ec:	a801                	j	800023fc <bilateral_core+0xa4>
    800023ee:	0489                	addi	s1,s1,2
    800023f0:	10000513          	li	a0,256
    800023f4:	00a49463          	bne	s1,a0,800023fc <bilateral_core+0xa4>
    800023f8:	4201106f          	j	80013818 <bilateral_core+0x114c0>
    800023fc:	4901                	li	s2,0
    800023fe:	00849593          	slli	a1,s1,0x8
    80002402:	ffe48513          	addi	a0,s1,-2
    80002406:	00857db3          	and	s11,a0,s0
    8000240a:	8622                	mv	a2,s0
    8000240c:	00851413          	slli	s0,a0,0x8
    80002410:	6522                	ld	a0,8(sp)
    80002412:	8d61                	and	a0,a0,s0
    80002414:	30a13423          	sd	a0,776(sp)
    80002418:	fff48513          	addi	a0,s1,-1
    8000241c:	00c57bb3          	and	s7,a0,a2
    80002420:	0522                	slli	a0,a0,0x8
    80002422:	34a13823          	sd	a0,848(sp)
    80002426:	8ab2                	mv	s5,a2
    80002428:	8d71                	and	a0,a0,a2
    8000242a:	32a13823          	sd	a0,816(sp)
    8000242e:	1005e513          	ori	a0,a1,256
    80002432:	36a13423          	sd	a0,872(sp)
    80002436:	36b13023          	sd	a1,864(sp)
    8000243a:	20058513          	addi	a0,a1,512
    8000243e:	34a13423          	sd	a0,840(sp)
    80002442:	38913823          	sd	s1,912(sp)
    80002446:	35713c23          	sd	s7,856(sp)
    8000244a:	35b13023          	sd	s11,832(sp)
    8000244e:	32813c23          	sd	s0,824(sp)
    80002452:	a00d                	j	80002474 <bilateral_core+0x11c>
    80002454:	38813503          	ld	a0,904(sp)
    80002458:	30013583          	ld	a1,768(sp)
    8000245c:	952e                	add	a0,a0,a1
    8000245e:	0941                	addi	s2,s2,16
    80002460:	01453023          	sd	s4,0(a0)
    80002464:	24013987          	fld	fs3,576(sp)
    80002468:	10000513          	li	a0,256
    8000246c:	00a91463          	bne	s2,a0,80002474 <bilateral_core+0x11c>
    80002470:	0d50806f          	j	8000ad44 <bilateral_core+0x89ec>
    80002474:	001db513          	seqz	a0,s11
    80002478:	ffe90b13          	addi	s6,s2,-2
    8000247c:	01203cb3          	snez	s9,s2
    80002480:	26a13023          	sd	a0,608(sp)
    80002484:	01957533          	and	a0,a0,s9
    80002488:	23398053          	fmv.d	ft0,fs3
    8000248c:	233980d3          	fmv.d	ft1,fs3
    80002490:	cd01                	beqz	a0,800024a8 <bilateral_core+0x150>
    80002492:	016405b3          	add	a1,s0,s6
    80002496:	0fea8613          	addi	a2,s5,254
    8000249a:	8df1                	and	a1,a1,a2
    8000249c:	058e                	slli	a1,a1,0x3
    8000249e:	95ce                	add	a1,a1,s3
    800024a0:	0005b007          	fld	ft0,0(a1)
    800024a4:	000d3087          	fld	ft1,0(s10)
    800024a8:	28113427          	fsd	ft1,648(sp)
    800024ac:	23398453          	fmv.d	fs0,fs3
    800024b0:	233980d3          	fmv.d	ft1,fs3
    800024b4:	38013487          	fld	fs1,896(sp)
    800024b8:	36013483          	ld	s1,864(sp)
    800024bc:	cd01                	beqz	a0,800024d4 <bilateral_core+0x17c>
    800024be:	0ffa8513          	addi	a0,s5,255
    800024c2:	00a905b3          	add	a1,s2,a0
    800024c6:	95a2                	add	a1,a1,s0
    800024c8:	8d6d                	and	a0,a0,a1
    800024ca:	050e                	slli	a0,a0,0x3
    800024cc:	954e                	add	a0,a0,s3
    800024ce:	2100                	fld	fs0,0(a0)
    800024d0:	008d3087          	fld	ft1,8(s10)
    800024d4:	36113c27          	fsd	ft1,888(sp)
    800024d8:	233980d3          	fmv.d	ft1,fs3
    800024dc:	23398953          	fmv.d	fs2,fs3
    800024e0:	23398a53          	fmv.d	fs4,fs3
    800024e4:	23398153          	fmv.d	ft2,fs3
    800024e8:	020d9763          	bnez	s11,80002516 <bilateral_core+0x1be>
    800024ec:	30813503          	ld	a0,776(sp)
    800024f0:	954a                	add	a0,a0,s2
    800024f2:	050e                	slli	a0,a0,0x3
    800024f4:	954e                	add	a0,a0,s3
    800024f6:	00053907          	fld	fs2,0(a0)
    800024fa:	010d3087          	fld	ft1,16(s10)
    800024fe:	00196513          	ori	a0,s2,1
    80002502:	9522                	add	a0,a0,s0
    80002504:	0f1a8593          	addi	a1,s5,241
    80002508:	8d6d                	and	a0,a0,a1
    8000250a:	050e                	slli	a0,a0,0x3
    8000250c:	954e                	add	a0,a0,s3
    8000250e:	00053a07          	fld	fs4,0(a0)
    80002512:	018d3107          	fld	ft2,24(s10)
    80002516:	2c213c27          	fsd	ft2,728(sp)
    8000251a:	2e113427          	fsd	ft1,744(sp)
    8000251e:	00990533          	add	a0,s2,s1
    80002522:	32a13423          	sd	a0,808(sp)
    80002526:	050e                	slli	a0,a0,0x3
    80002528:	30a13023          	sd	a0,768(sp)
    8000252c:	954e                	add	a0,a0,s3
    8000252e:	24a13423          	sd	a0,584(sp)
    80002532:	00053a03          	ld	s4,0(a0)
    80002536:	f20a0dd3          	fmv.d.x	fs11,s4
    8000253a:	a682                	fsd	ft0,328(sp)
    8000253c:	0bb07053          	fsub.d	ft0,ft0,fs11
    80002540:	220010d3          	fneg.d	ft1,ft0
    80002544:	12107053          	fmul.d	ft0,ft0,ft1
    80002548:	12907553          	fmul.d	fa0,ft0,fs1
    8000254c:	74d110ef          	jal	80014498 <exp>
    80002550:	0bb47053          	fsub.d	ft0,fs0,fs11
    80002554:	220010d3          	fneg.d	ft1,ft0
    80002558:	12107053          	fmul.d	ft0,ft0,ft1
    8000255c:	12907053          	fmul.d	ft0,ft0,fs1
    80002560:	2aa13c27          	fsd	fa0,696(sp)
    80002564:	22000553          	fmv.d	fa0,ft0
    80002568:	731110ef          	jal	80014498 <exp>
    8000256c:	0bb97053          	fsub.d	ft0,fs2,fs11
    80002570:	220010d3          	fneg.d	ft1,ft0
    80002574:	12107053          	fmul.d	ft0,ft0,ft1
    80002578:	12907053          	fmul.d	ft0,ft0,fs1
    8000257c:	2aa13027          	fsd	fa0,672(sp)
    80002580:	22000553          	fmv.d	fa0,ft0
    80002584:	715110ef          	jal	80014498 <exp>
    80002588:	0bba7053          	fsub.d	ft0,fs4,fs11
    8000258c:	220010d3          	fneg.d	ft1,ft0
    80002590:	12107053          	fmul.d	ft0,ft0,ft1
    80002594:	12907053          	fmul.d	ft0,ft0,fs1
    80002598:	28a13c27          	fsd	fa0,664(sp)
    8000259c:	22000553          	fmv.d	fa0,ft0
    800025a0:	6f9110ef          	jal	80014498 <exp>
    800025a4:	28a13827          	fsd	fa0,656(sp)
    800025a8:	23398053          	fmv.d	ft0,fs3
    800025ac:	233980d3          	fmv.d	ft1,fs3
    800025b0:	000d9e63          	bnez	s11,800025cc <bilateral_core+0x274>
    800025b4:	00296513          	ori	a0,s2,2
    800025b8:	9522                	add	a0,a0,s0
    800025ba:	0f2a8593          	addi	a1,s5,242
    800025be:	8d6d                	and	a0,a0,a1
    800025c0:	050e                	slli	a0,a0,0x3
    800025c2:	954e                	add	a0,a0,s3
    800025c4:	00053007          	fld	ft0,0(a0)
    800025c8:	020d3087          	fld	ft1,32(s10)
    800025cc:	001bb513          	seqz	a0,s7
    800025d0:	2ea13023          	sd	a0,736(sp)
    800025d4:	01957c33          	and	s8,a0,s9
    800025d8:	23398ad3          	fmv.d	fs5,fs3
    800025dc:	23398153          	fmv.d	ft2,fs3
    800025e0:	000c0e63          	beqz	s8,800025fc <bilateral_core+0x2a4>
    800025e4:	35013503          	ld	a0,848(sp)
    800025e8:	955a                	add	a0,a0,s6
    800025ea:	0fea8593          	addi	a1,s5,254
    800025ee:	8d6d                	and	a0,a0,a1
    800025f0:	050e                	slli	a0,a0,0x3
    800025f2:	954e                	add	a0,a0,s3
    800025f4:	00053a87          	fld	fs5,0(a0)
    800025f8:	028d3107          	fld	ft2,40(s10)
    800025fc:	23398b53          	fmv.d	fs6,fs3
    80002600:	233981d3          	fmv.d	ft3,fs3
    80002604:	020c0063          	beqz	s8,80002624 <bilateral_core+0x2cc>
    80002608:	0ffa8513          	addi	a0,s5,255
    8000260c:	00a905b3          	add	a1,s2,a0
    80002610:	35013603          	ld	a2,848(sp)
    80002614:	95b2                	add	a1,a1,a2
    80002616:	8d6d                	and	a0,a0,a1
    80002618:	050e                	slli	a0,a0,0x3
    8000261a:	954e                	add	a0,a0,s3
    8000261c:	00053b07          	fld	fs6,0(a0)
    80002620:	030d3187          	fld	ft3,48(s10)
    80002624:	24313c27          	fsd	ft3,600(sp)
    80002628:	26213c27          	fsd	ft2,632(sp)
    8000262c:	28113027          	fsd	ft1,640(sp)
    80002630:	23398bd3          	fmv.d	fs7,fs3
    80002634:	233980d3          	fmv.d	ft1,fs3
    80002638:	000b9b63          	bnez	s7,8000264e <bilateral_core+0x2f6>
    8000263c:	33013503          	ld	a0,816(sp)
    80002640:	954a                	add	a0,a0,s2
    80002642:	050e                	slli	a0,a0,0x3
    80002644:	954e                	add	a0,a0,s3
    80002646:	00053b87          	fld	fs7,0(a0)
    8000264a:	038d3087          	fld	ft1,56(s10)
    8000264e:	24113827          	fsd	ft1,592(sp)
    80002652:	b602                	fsd	ft0,296(sp)
    80002654:	0bb07053          	fsub.d	ft0,ft0,fs11
    80002658:	220010d3          	fneg.d	ft1,ft0
    8000265c:	12107053          	fmul.d	ft0,ft0,ft1
    80002660:	12907553          	fmul.d	fa0,ft0,fs1
    80002664:	635110ef          	jal	80014498 <exp>
    80002668:	0bbaf053          	fsub.d	ft0,fs5,fs11
    8000266c:	220010d3          	fneg.d	ft1,ft0
    80002670:	12107053          	fmul.d	ft0,ft0,ft1
    80002674:	12907053          	fmul.d	ft0,ft0,fs1
    80002678:	22a13c27          	fsd	fa0,568(sp)
    8000267c:	22000553          	fmv.d	fa0,ft0
    80002680:	619110ef          	jal	80014498 <exp>
    80002684:	0bbb7053          	fsub.d	ft0,fs6,fs11
    80002688:	220010d3          	fneg.d	ft1,ft0
    8000268c:	12107053          	fmul.d	ft0,ft0,ft1
    80002690:	12907053          	fmul.d	ft0,ft0,fs1
    80002694:	22a13827          	fsd	fa0,560(sp)
    80002698:	22000553          	fmv.d	fa0,ft0
    8000269c:	5fd110ef          	jal	80014498 <exp>
    800026a0:	0bbbf053          	fsub.d	ft0,fs7,fs11
    800026a4:	220010d3          	fneg.d	ft1,ft0
    800026a8:	12107053          	fmul.d	ft0,ft0,ft1
    800026ac:	12907053          	fmul.d	ft0,ft0,fs1
    800026b0:	22a13427          	fsd	fa0,552(sp)
    800026b4:	22000553          	fmv.d	fa0,ft0
    800026b8:	5e1110ef          	jal	80014498 <exp>
    800026bc:	22a13027          	fsd	fa0,544(sp)
    800026c0:	233980d3          	fmv.d	ft1,fs3
    800026c4:	23398053          	fmv.d	ft0,fs3
    800026c8:	23398cd3          	fmv.d	fs9,fs3
    800026cc:	23398153          	fmv.d	ft2,fs3
    800026d0:	020b9c63          	bnez	s7,80002708 <bilateral_core+0x3b0>
    800026d4:	00196513          	ori	a0,s2,1
    800026d8:	35013603          	ld	a2,848(sp)
    800026dc:	9532                	add	a0,a0,a2
    800026de:	0f1a8593          	addi	a1,s5,241
    800026e2:	8d6d                	and	a0,a0,a1
    800026e4:	050e                	slli	a0,a0,0x3
    800026e6:	954e                	add	a0,a0,s3
    800026e8:	00053007          	fld	ft0,0(a0)
    800026ec:	040d3087          	fld	ft1,64(s10)
    800026f0:	00296513          	ori	a0,s2,2
    800026f4:	9532                	add	a0,a0,a2
    800026f6:	0f2a8593          	addi	a1,s5,242
    800026fa:	8d6d                	and	a0,a0,a1
    800026fc:	050e                	slli	a0,a0,0x3
    800026fe:	954e                	add	a0,a0,s3
    80002700:	00053c87          	fld	fs9,0(a0)
    80002704:	048d3107          	fld	ft2,72(s10)
    80002708:	b256                	fsd	fs5,288(sp)
    8000270a:	20213827          	fsd	ft2,528(sp)
    8000270e:	20113c27          	fsd	ft1,536(sp)
    80002712:	ba52                	fsd	fs4,304(sp)
    80002714:	23398153          	fmv.d	ft2,fs3
    80002718:	23398d53          	fmv.d	fs10,fs3
    8000271c:	23398ad3          	fmv.d	fs5,fs3
    80002720:	233981d3          	fmv.d	ft3,fs3
    80002724:	02090963          	beqz	s2,80002756 <bilateral_core+0x3fe>
    80002728:	01648533          	add	a0,s1,s6
    8000272c:	0fea8593          	addi	a1,s5,254
    80002730:	8d6d                	and	a0,a0,a1
    80002732:	050e                	slli	a0,a0,0x3
    80002734:	954e                	add	a0,a0,s3
    80002736:	00053d07          	fld	fs10,0(a0)
    8000273a:	050d3107          	fld	ft2,80(s10)
    8000273e:	0ffa8513          	addi	a0,s5,255
    80002742:	00a905b3          	add	a1,s2,a0
    80002746:	95a6                	add	a1,a1,s1
    80002748:	8d6d                	and	a0,a0,a1
    8000274a:	050e                	slli	a0,a0,0x3
    8000274c:	954e                	add	a0,a0,s3
    8000274e:	00053a87          	fld	fs5,0(a0)
    80002752:	058d3187          	fld	ft3,88(s10)
    80002756:	ae5a                	fsd	fs6,280(sp)
    80002758:	20313027          	fsd	ft3,512(sp)
    8000275c:	20213427          	fsd	ft2,520(sp)
    80002760:	be4a                	fsd	fs2,312(sp)
    80002762:	a602                	fsd	ft0,264(sp)
    80002764:	0bb07053          	fsub.d	ft0,ft0,fs11
    80002768:	220010d3          	fneg.d	ft1,ft0
    8000276c:	12107053          	fmul.d	ft0,ft0,ft1
    80002770:	12907553          	fmul.d	fa0,ft0,fs1
    80002774:	525110ef          	jal	80014498 <exp>
    80002778:	0bbcf053          	fsub.d	ft0,fs9,fs11
    8000277c:	220010d3          	fneg.d	ft1,ft0
    80002780:	12107053          	fmul.d	ft0,ft0,ft1
    80002784:	12907053          	fmul.d	ft0,ft0,fs1
    80002788:	bfaa                	fsd	fa0,504(sp)
    8000278a:	22000553          	fmv.d	fa0,ft0
    8000278e:	50b110ef          	jal	80014498 <exp>
    80002792:	0bbd7053          	fsub.d	ft0,fs10,fs11
    80002796:	220010d3          	fneg.d	ft1,ft0
    8000279a:	12107053          	fmul.d	ft0,ft0,ft1
    8000279e:	12907053          	fmul.d	ft0,ft0,fs1
    800027a2:	bbaa                	fsd	fa0,496(sp)
    800027a4:	22000553          	fmv.d	fa0,ft0
    800027a8:	4f1110ef          	jal	80014498 <exp>
    800027ac:	b9d6                	fsd	fs5,240(sp)
    800027ae:	0bbaf053          	fsub.d	ft0,fs5,fs11
    800027b2:	220010d3          	fneg.d	ft1,ft0
    800027b6:	12107053          	fmul.d	ft0,ft0,ft1
    800027ba:	12907053          	fmul.d	ft0,ft0,fs1
    800027be:	b7aa                	fsd	fa0,488(sp)
    800027c0:	22000553          	fmv.d	fa0,ft0
    800027c4:	4d5110ef          	jal	80014498 <exp>
    800027c8:	b3aa                	fsd	fa0,480(sp)
    800027ca:	24813503          	ld	a0,584(sp)
    800027ce:	00053007          	fld	ft0,0(a0)
    800027d2:	060d3087          	fld	ft1,96(s10)
    800027d6:	af86                	fsd	ft1,472(sp)
    800027d8:	00196513          	ori	a0,s2,1
    800027dc:	30a13823          	sd	a0,784(sp)
    800027e0:	9526                	add	a0,a0,s1
    800027e2:	2aa13423          	sd	a0,680(sp)
    800027e6:	050e                	slli	a0,a0,0x3
    800027e8:	2ea13823          	sd	a0,752(sp)
    800027ec:	00a98bb3          	add	s7,s3,a0
    800027f0:	000bbc07          	fld	fs8,0(s7)
    800027f4:	068d3087          	fld	ft1,104(s10)
    800027f8:	ab86                	fsd	ft1,464(sp)
    800027fa:	00296513          	ori	a0,s2,2
    800027fe:	32a13023          	sd	a0,800(sp)
    80002802:	9526                	add	a0,a0,s1
    80002804:	2ca13023          	sd	a0,704(sp)
    80002808:	050e                	slli	a0,a0,0x3
    8000280a:	2ca13823          	sd	a0,720(sp)
    8000280e:	954e                	add	a0,a0,s3
    80002810:	2aa13823          	sd	a0,688(sp)
    80002814:	00053087          	fld	ft1,0(a0)
    80002818:	30113c27          	fsd	ft1,792(sp)
    8000281c:	070d3087          	fld	ft1,112(s10)
    80002820:	a786                	fsd	ft1,456(sp)
    80002822:	23398953          	fmv.d	fs2,fs3
    80002826:	23398153          	fmv.d	ft2,fs3
    8000282a:	00090b63          	beqz	s2,80002840 <bilateral_core+0x4e8>
    8000282e:	36813503          	ld	a0,872(sp)
    80002832:	955a                	add	a0,a0,s6
    80002834:	050e                	slli	a0,a0,0x3
    80002836:	954e                	add	a0,a0,s3
    80002838:	00053907          	fld	fs2,0(a0)
    8000283c:	078d3107          	fld	ft2,120(s10)
    80002840:	a38a                	fsd	ft2,448(sp)
    80002842:	22840b53          	fmv.d	fs6,fs0
    80002846:	b582                	fsd	ft0,232(sp)
    80002848:	0bb07053          	fsub.d	ft0,ft0,fs11
    8000284c:	220010d3          	fneg.d	ft1,ft0
    80002850:	12107053          	fmul.d	ft0,ft0,ft1
    80002854:	12907553          	fmul.d	fa0,ft0,fs1
    80002858:	441110ef          	jal	80014498 <exp>
    8000285c:	0bbc7053          	fsub.d	ft0,fs8,fs11
    80002860:	220010d3          	fneg.d	ft1,ft0
    80002864:	12107053          	fmul.d	ft0,ft0,ft1
    80002868:	12907053          	fmul.d	ft0,ft0,fs1
    8000286c:	bf2a                	fsd	fa0,440(sp)
    8000286e:	22000553          	fmv.d	fa0,ft0
    80002872:	427110ef          	jal	80014498 <exp>
    80002876:	31813007          	fld	ft0,792(sp)
    8000287a:	0bb07053          	fsub.d	ft0,ft0,fs11
    8000287e:	220010d3          	fneg.d	ft1,ft0
    80002882:	12107053          	fmul.d	ft0,ft0,ft1
    80002886:	12907053          	fmul.d	ft0,ft0,fs1
    8000288a:	bb2a                	fsd	fa0,432(sp)
    8000288c:	22000553          	fmv.d	fa0,ft0
    80002890:	409110ef          	jal	80014498 <exp>
    80002894:	adca                	fsd	fs2,216(sp)
    80002896:	0bb97053          	fsub.d	ft0,fs2,fs11
    8000289a:	220010d3          	fneg.d	ft1,ft0
    8000289e:	12107053          	fmul.d	ft0,ft0,ft1
    800028a2:	12907053          	fmul.d	ft0,ft0,fs1
    800028a6:	b32a                	fsd	fa0,416(sp)
    800028a8:	22000553          	fmv.d	fa0,ft0
    800028ac:	3ed110ef          	jal	80014498 <exp>
    800028b0:	b72a                	fsd	fa0,424(sp)
    800028b2:	23398053          	fmv.d	ft0,fs3
    800028b6:	233980d3          	fmv.d	ft1,fs3
    800028ba:	36813583          	ld	a1,872(sp)
    800028be:	39013403          	ld	s0,912(sp)
    800028c2:	00090a63          	beqz	s2,800028d6 <bilateral_core+0x57e>
    800028c6:	00b90533          	add	a0,s2,a1
    800028ca:	050e                	slli	a0,a0,0x3
    800028cc:	954e                	add	a0,a0,s3
    800028ce:	ff853007          	fld	ft0,-8(a0)
    800028d2:	080d3087          	fld	ft1,128(s10)
    800028d6:	af06                	fsd	ft1,408(sp)
    800028d8:	a982                	fsd	ft0,208(sp)
    800028da:	0bb07053          	fsub.d	ft0,ft0,fs11
    800028de:	220010d3          	fneg.d	ft1,ft0
    800028e2:	01258533          	add	a0,a1,s2
    800028e6:	050e                	slli	a0,a0,0x3
    800028e8:	954e                	add	a0,a0,s3
    800028ea:	26a13823          	sd	a0,624(sp)
    800028ee:	00053907          	fld	fs2,0(a0)
    800028f2:	12107053          	fmul.d	ft0,ft0,ft1
    800028f6:	088d3087          	fld	ft1,136(s10)
    800028fa:	a706                	fsd	ft1,392(sp)
    800028fc:	31013503          	ld	a0,784(sp)
    80002900:	952e                	add	a0,a0,a1
    80002902:	050e                	slli	a0,a0,0x3
    80002904:	954e                	add	a0,a0,s3
    80002906:	2ca13423          	sd	a0,712(sp)
    8000290a:	2100                	fld	fs0,0(a0)
    8000290c:	090d3087          	fld	ft1,144(s10)
    80002910:	ab06                	fsd	ft1,400(sp)
    80002912:	12907553          	fmul.d	fa0,ft0,fs1
    80002916:	32013503          	ld	a0,800(sp)
    8000291a:	952e                	add	a0,a0,a1
    8000291c:	050e                	slli	a0,a0,0x3
    8000291e:	954e                	add	a0,a0,s3
    80002920:	2ea13c23          	sd	a0,760(sp)
    80002924:	00053a07          	fld	fs4,0(a0)
    80002928:	098d3007          	fld	ft0,152(s10)
    8000292c:	a302                	fsd	ft0,384(sp)
    8000292e:	0fe43493          	sltiu	s1,s0,254
    80002932:	367110ef          	jal	80014498 <exp>
    80002936:	a5ca                	fsd	fs2,200(sp)
    80002938:	0bb97053          	fsub.d	ft0,fs2,fs11
    8000293c:	220010d3          	fneg.d	ft1,ft0
    80002940:	12107053          	fmul.d	ft0,ft0,ft1
    80002944:	12907053          	fmul.d	ft0,ft0,fs1
    80002948:	beaa                	fsd	fa0,376(sp)
    8000294a:	22000553          	fmv.d	fa0,ft0
    8000294e:	34b110ef          	jal	80014498 <exp>
    80002952:	a1a2                	fsd	fs0,192(sp)
    80002954:	0bb47053          	fsub.d	ft0,fs0,fs11
    80002958:	220010d3          	fneg.d	ft1,ft0
    8000295c:	12107053          	fmul.d	ft0,ft0,ft1
    80002960:	12907053          	fmul.d	ft0,ft0,fs1
    80002964:	baaa                	fsd	fa0,368(sp)
    80002966:	22000553          	fmv.d	fa0,ft0
    8000296a:	32f110ef          	jal	80014498 <exp>
    8000296e:	bd52                	fsd	fs4,184(sp)
    80002970:	0bba7053          	fsub.d	ft0,fs4,fs11
    80002974:	220010d3          	fneg.d	ft1,ft0
    80002978:	12107053          	fmul.d	ft0,ft0,ft1
    8000297c:	12907053          	fmul.d	ft0,ft0,fs1
    80002980:	b6aa                	fsd	fa0,360(sp)
    80002982:	22000553          	fmv.d	fa0,ft0
    80002986:	313110ef          	jal	80014498 <exp>
    8000298a:	b2aa                	fsd	fa0,352(sp)
    8000298c:	26913423          	sd	s1,616(sp)
    80002990:	0194fcb3          	and	s9,s1,s9
    80002994:	23398053          	fmv.d	ft0,fs3
    80002998:	233980d3          	fmv.d	ft1,fs3
    8000299c:	34813583          	ld	a1,840(sp)
    800029a0:	000c8a63          	beqz	s9,800029b4 <bilateral_core+0x65c>
    800029a4:	01658533          	add	a0,a1,s6
    800029a8:	050e                	slli	a0,a0,0x3
    800029aa:	954e                	add	a0,a0,s3
    800029ac:	00053007          	fld	ft0,0(a0)
    800029b0:	0a0d3087          	fld	ft1,160(s10)
    800029b4:	237b81d3          	fmv.d	ft3,fs7
    800029b8:	23398453          	fmv.d	fs0,fs3
    800029bc:	23398153          	fmv.d	ft2,fs3
    800029c0:	000c8a63          	beqz	s9,800029d4 <bilateral_core+0x67c>
    800029c4:	00b90533          	add	a0,s2,a1
    800029c8:	050e                	slli	a0,a0,0x3
    800029ca:	954e                	add	a0,a0,s3
    800029cc:	ff853407          	fld	fs0,-8(a0)
    800029d0:	0a8d3107          	fld	ft2,168(s10)
    800029d4:	ae8a                	fsd	ft2,344(sp)
    800029d6:	22108bd3          	fmv.d	fs7,ft1
    800029da:	bdea                	fsd	fs10,248(sp)
    800029dc:	a266                	fsd	fs9,256(sp)
    800029de:	aa0e                	fsd	ft3,272(sp)
    800029e0:	a2da                	fsd	fs6,320(sp)
    800029e2:	23398ad3          	fmv.d	fs5,fs3
    800029e6:	23398953          	fmv.d	fs2,fs3
    800029ea:	23398a53          	fmv.d	fs4,fs3
    800029ee:	23398153          	fmv.d	ft2,fs3
    800029f2:	0fd00b13          	li	s6,253
    800029f6:	39013483          	ld	s1,912(sp)
    800029fa:	34013403          	ld	s0,832(sp)
    800029fe:	029b6363          	bltu	s6,s1,80002a24 <bilateral_core+0x6cc>
    80002a02:	01258533          	add	a0,a1,s2
    80002a06:	050e                	slli	a0,a0,0x3
    80002a08:	954e                	add	a0,a0,s3
    80002a0a:	00053907          	fld	fs2,0(a0)
    80002a0e:	0b0d3a87          	fld	fs5,176(s10)
    80002a12:	31013503          	ld	a0,784(sp)
    80002a16:	952e                	add	a0,a0,a1
    80002a18:	050e                	slli	a0,a0,0x3
    80002a1a:	954e                	add	a0,a0,s3
    80002a1c:	00053a07          	fld	fs4,0(a0)
    80002a20:	0b8d3107          	fld	ft2,184(s10)
    80002a24:	aa8a                	fsd	ft2,336(sp)
    80002a26:	b1e2                	fsd	fs8,224(sp)
    80002a28:	b902                	fsd	ft0,176(sp)
    80002a2a:	0bb07053          	fsub.d	ft0,ft0,fs11
    80002a2e:	220010d3          	fneg.d	ft1,ft0
    80002a32:	12107053          	fmul.d	ft0,ft0,ft1
    80002a36:	12907553          	fmul.d	fa0,ft0,fs1
    80002a3a:	25f110ef          	jal	80014498 <exp>
    80002a3e:	b522                	fsd	fs0,168(sp)
    80002a40:	0bb47053          	fsub.d	ft0,fs0,fs11
    80002a44:	220010d3          	fneg.d	ft1,ft0
    80002a48:	12107053          	fmul.d	ft0,ft0,ft1
    80002a4c:	12907053          	fmul.d	ft0,ft0,fs1
    80002a50:	22a50c53          	fmv.d	fs8,fa0
    80002a54:	22000553          	fmv.d	fa0,ft0
    80002a58:	241110ef          	jal	80014498 <exp>
    80002a5c:	b14a                	fsd	fs2,160(sp)
    80002a5e:	0bb97053          	fsub.d	ft0,fs2,fs11
    80002a62:	220010d3          	fneg.d	ft1,ft0
    80002a66:	12107053          	fmul.d	ft0,ft0,ft1
    80002a6a:	12907053          	fmul.d	ft0,ft0,fs1
    80002a6e:	22a50cd3          	fmv.d	fs9,fa0
    80002a72:	22000553          	fmv.d	fa0,ft0
    80002a76:	223110ef          	jal	80014498 <exp>
    80002a7a:	ad52                	fsd	fs4,152(sp)
    80002a7c:	0bba7053          	fsub.d	ft0,fs4,fs11
    80002a80:	220010d3          	fneg.d	ft1,ft0
    80002a84:	12107053          	fmul.d	ft0,ft0,ft1
    80002a88:	12907053          	fmul.d	ft0,ft0,fs1
    80002a8c:	22a50d53          	fmv.d	fs10,fa0
    80002a90:	22000553          	fmv.d	fa0,ft0
    80002a94:	205110ef          	jal	80014498 <exp>
    80002a98:	23398353          	fmv.d	ft6,fs3
    80002a9c:	23398453          	fmv.d	fs0,fs3
    80002aa0:	009b6c63          	bltu	s6,s1,80002ab8 <bilateral_core+0x760>
    80002aa4:	32813503          	ld	a0,808(sp)
    80002aa8:	20250513          	addi	a0,a0,514
    80002aac:	050e                	slli	a0,a0,0x3
    80002aae:	954e                	add	a0,a0,s3
    80002ab0:	00053307          	fld	ft6,0(a0)
    80002ab4:	0c0d3407          	fld	fs0,192(s10)
    80002ab8:	2b813007          	fld	ft0,696(sp)
    80002abc:	28813087          	fld	ft1,648(sp)
    80002ac0:	1200f153          	fmul.d	ft2,ft1,ft0
    80002ac4:	37813007          	fld	ft0,888(sp)
    80002ac8:	2a013087          	fld	ft1,672(sp)
    80002acc:	121071d3          	fmul.d	ft3,ft0,ft1
    80002ad0:	28013007          	fld	ft0,640(sp)
    80002ad4:	23813087          	fld	ft1,568(sp)
    80002ad8:	121072d3          	fmul.d	ft5,ft0,ft1
    80002adc:	2a213027          	fsd	ft2,672(sp)
    80002ae0:	03317053          	fadd.d	ft0,ft2,fs3
    80002ae4:	2e813087          	fld	ft1,744(sp)
    80002ae8:	29813107          	fld	ft2,664(sp)
    80002aec:	1220f253          	fmul.d	ft4,ft1,ft2
    80002af0:	27813087          	fld	ft1,632(sp)
    80002af4:	23013107          	fld	ft2,560(sp)
    80002af8:	1220f3d3          	fmul.d	ft7,ft1,ft2
    80002afc:	21813087          	fld	ft1,536(sp)
    80002b00:	317e                	fld	ft2,504(sp)
    80002b02:	1220f653          	fmul.d	fa2,ft1,ft2
    80002b06:	2a313c27          	fsd	ft3,696(sp)
    80002b0a:	02307053          	fadd.d	ft0,ft0,ft3
    80002b0e:	28513427          	fsd	ft5,648(sp)
    80002b12:	0332f0d3          	fadd.d	ft1,ft5,fs3
    80002b16:	2d813107          	fld	ft2,728(sp)
    80002b1a:	29013187          	fld	ft3,656(sp)
    80002b1e:	123172d3          	fmul.d	ft5,ft2,ft3
    80002b22:	25813107          	fld	ft2,600(sp)
    80002b26:	22813187          	fld	ft3,552(sp)
    80002b2a:	123175d3          	fmul.d	fa1,ft2,ft3
    80002b2e:	21013107          	fld	ft2,528(sp)
    80002b32:	31de                	fld	ft3,496(sp)
    80002b34:	123176d3          	fmul.d	fa3,ft2,ft3
    80002b38:	2c413c27          	fsd	ft4,728(sp)
    80002b3c:	02407053          	fadd.d	ft0,ft0,ft4
    80002b40:	28713827          	fsd	ft7,656(sp)
    80002b44:	0270f0d3          	fadd.d	ft1,ft1,ft7
    80002b48:	24c13c27          	fsd	fa2,600(sp)
    80002b4c:	03367153          	fadd.d	ft2,fa2,fs3
    80002b50:	25013187          	fld	ft3,592(sp)
    80002b54:	22013207          	fld	ft4,544(sp)
    80002b58:	1241f3d3          	fmul.d	ft7,ft3,ft4
    80002b5c:	20813187          	fld	ft3,520(sp)
    80002b60:	323e                	fld	ft4,488(sp)
    80002b62:	1241f653          	fmul.d	fa2,ft3,ft4
    80002b66:	28513c27          	fsd	ft5,664(sp)
    80002b6a:	02507053          	fadd.d	ft0,ft0,ft5
    80002b6e:	28b13027          	fsd	fa1,640(sp)
    80002b72:	02b0f0d3          	fadd.d	ft1,ft1,fa1
    80002b76:	24d13827          	fsd	fa3,592(sp)
    80002b7a:	02d17153          	fadd.d	ft2,ft2,fa3
    80002b7e:	21fe                	fld	ft3,472(sp)
    80002b80:	327a                	fld	ft4,440(sp)
    80002b82:	1241f2d3          	fmul.d	ft5,ft3,ft4
    80002b86:	20013187          	fld	ft3,512(sp)
    80002b8a:	321e                	fld	ft4,480(sp)
    80002b8c:	1241f5d3          	fmul.d	fa1,ft3,ft4
    80002b90:	03307053          	fadd.d	ft0,ft0,fs3
    80002b94:	26713c27          	fsd	ft7,632(sp)
    80002b98:	0270f0d3          	fadd.d	ft1,ft1,ft7
    80002b9c:	22c13c27          	fsd	fa2,568(sp)
    80002ba0:	02c17153          	fadd.d	ft2,ft2,fa2
    80002ba4:	21de                	fld	ft3,464(sp)
    80002ba6:	325a                	fld	ft4,432(sp)
    80002ba8:	1241f3d3          	fmul.d	ft7,ft3,ft4
    80002bac:	20513c27          	fsd	ft5,536(sp)
    80002bb0:	0332f1d3          	fadd.d	ft3,ft5,fs3
    80002bb4:	227a                	fld	ft4,408(sp)
    80002bb6:	32f6                	fld	ft5,376(sp)
    80002bb8:	12527953          	fmul.d	fs2,ft4,ft5
    80002bbc:	02107053          	fadd.d	ft0,ft0,ft1
    80002bc0:	22b13827          	fsd	fa1,560(sp)
    80002bc4:	02b170d3          	fadd.d	ft1,ft2,fa1
    80002bc8:	213e                	fld	ft2,456(sp)
    80002bca:	321a                	fld	ft4,416(sp)
    80002bcc:	124172d3          	fmul.d	ft5,ft2,ft4
    80002bd0:	20713827          	fsd	ft7,528(sp)
    80002bd4:	0271f153          	fadd.d	ft2,ft3,ft7
    80002bd8:	21ba                	fld	ft3,392(sp)
    80002bda:	3256                	fld	ft4,368(sp)
    80002bdc:	1241f5d3          	fmul.d	fa1,ft3,ft4
    80002be0:	033971d3          	fadd.d	ft3,fs2,fs3
    80002be4:	138bfb53          	fmul.d	fs6,fs7,fs8
    80002be8:	02107053          	fadd.d	ft0,ft0,ft1
    80002bec:	209e                	fld	ft1,448(sp)
    80002bee:	323a                	fld	ft4,424(sp)
    80002bf0:	1240f3d3          	fmul.d	ft7,ft1,ft4
    80002bf4:	22513427          	fsd	ft5,552(sp)
    80002bf8:	025170d3          	fadd.d	ft1,ft2,ft5
    80002bfc:	215a                	fld	ft2,400(sp)
    80002bfe:	3236                	fld	ft4,360(sp)
    80002c00:	12417653          	fmul.d	fa2,ft2,ft4
    80002c04:	20b13027          	fsd	fa1,512(sp)
    80002c08:	02b1f153          	fadd.d	ft2,ft3,fa1
    80002c0c:	21f6                	fld	ft3,344(sp)
    80002c0e:	1391fbd3          	fmul.d	fs7,ft3,fs9
    80002c12:	033b71d3          	fadd.d	ft3,fs6,fs3
    80002c16:	221a                	fld	ft4,384(sp)
    80002c18:	3296                	fld	ft5,352(sp)
    80002c1a:	125272d3          	fmul.d	ft5,ft4,ft5
    80002c1e:	22713027          	fsd	ft7,544(sp)
    80002c22:	0270f0d3          	fadd.d	ft1,ft1,ft7
    80002c26:	13aafd53          	fmul.d	fs10,fs5,fs10
    80002c2a:	2e613427          	fsd	ft6,744(sp)
    80002c2e:	0bb37253          	fsub.d	ft4,ft6,fs11
    80002c32:	bfb2                	fsd	fa2,504(sp)
    80002c34:	02c17153          	fadd.d	ft2,ft2,fa2
    80002c38:	0371f1d3          	fadd.d	ft3,ft3,fs7
    80002c3c:	02107053          	fadd.d	ft0,ft0,ft1
    80002c40:	20d6                	fld	ft1,336(sp)
    80002c42:	12a0fc53          	fmul.d	fs8,ft1,fa0
    80002c46:	224210d3          	fneg.d	ft1,ft4
    80002c4a:	20513427          	fsd	ft5,520(sp)
    80002c4e:	02517153          	fadd.d	ft2,ft2,ft5
    80002c52:	03a1f1d3          	fadd.d	ft3,ft3,fs10
    80002c56:	121270d3          	fmul.d	ft1,ft4,ft1
    80002c5a:	02207053          	fadd.d	ft0,ft0,ft2
    80002c5e:	0381f153          	fadd.d	ft2,ft3,fs8
    80002c62:	1290f553          	fmul.d	fa0,ft1,fs1
    80002c66:	02207cd3          	fadd.d	fs9,ft0,ft2
    80002c6a:	02f110ef          	jal	80014498 <exp>
    80002c6e:	0bb9f053          	fsub.d	ft0,fs3,fs11
    80002c72:	220010d3          	fneg.d	ft1,ft0
    80002c76:	12107053          	fmul.d	ft0,ft0,ft1
    80002c7a:	12a47dd3          	fmul.d	fs11,fs0,fa0
    80002c7e:	12907453          	fmul.d	fs0,ft0,fs1
    80002c82:	033dfad3          	fadd.d	fs5,fs11,fs3
    80002c86:	22840553          	fmv.d	fa0,fs0
    80002c8a:	00f110ef          	jal	80014498 <exp>
    80002c8e:	133574d3          	fmul.d	fs1,fa0,fs3
    80002c92:	029afa53          	fadd.d	fs4,fs5,fs1
    80002c96:	22840553          	fmv.d	fa0,fs0
    80002c9a:	7fe110ef          	jal	80014498 <exp>
    80002c9e:	13357ad3          	fmul.d	fs5,fa0,fs3
    80002ca2:	035a7a53          	fadd.d	fs4,fs4,fs5
    80002ca6:	22840553          	fmv.d	fa0,fs0
    80002caa:	7ee110ef          	jal	80014498 <exp>
    80002cae:	133570d3          	fmul.d	ft1,fa0,fs3
    80002cb2:	021a7053          	fadd.d	ft0,fs4,ft1
    80002cb6:	020cf053          	fadd.d	ft0,fs9,ft0
    80002cba:	8d818513          	addi	a0,gp,-1832 # 80014b38 <halF+0xe8>
    80002cbe:	00053107          	fld	ft2,0(a0)
    80002cc2:	36213c27          	fsd	ft2,888(sp)
    80002cc6:	a2011553          	flt.d	a0,ft2,ft0
    80002cca:	12050063          	beqz	a0,80002dea <bilateral_core+0xa92>
    80002cce:	24013387          	fld	ft7,576(sp)
    80002cd2:	2136                	fld	ft2,328(sp)
    80002cd4:	2a013187          	fld	ft3,672(sp)
    80002cd8:	3a317143          	fmadd.d	ft2,ft2,ft3,ft7
    80002cdc:	31b2                	fld	ft3,296(sp)
    80002cde:	28813207          	fld	ft4,648(sp)
    80002ce2:	3a41f1c3          	fmadd.d	ft3,ft3,ft4,ft7
    80002ce6:	2216                	fld	ft4,320(sp)
    80002ce8:	2b813287          	fld	ft5,696(sp)
    80002cec:	12527143          	fmadd.d	ft2,ft4,ft5,ft2
    80002cf0:	2232                	fld	ft4,264(sp)
    80002cf2:	25813287          	fld	ft5,600(sp)
    80002cf6:	3a527243          	fmadd.d	ft4,ft4,ft5,ft7
    80002cfa:	3292                	fld	ft5,288(sp)
    80002cfc:	29013307          	fld	ft6,656(sp)
    80002d00:	1a62f1c3          	fmadd.d	ft3,ft5,ft6,ft3
    80002d04:	32f2                	fld	ft5,312(sp)
    80002d06:	2d813307          	fld	ft6,728(sp)
    80002d0a:	1262f143          	fmadd.d	ft2,ft5,ft6,ft2
    80002d0e:	2292                	fld	ft5,256(sp)
    80002d10:	25013307          	fld	ft6,592(sp)
    80002d14:	2262f243          	fmadd.d	ft4,ft5,ft6,ft4
    80002d18:	32ae                	fld	ft5,232(sp)
    80002d1a:	21813307          	fld	ft6,536(sp)
    80002d1e:	3a62f2c3          	fmadd.d	ft5,ft5,ft6,ft7
    80002d22:	2372                	fld	ft6,280(sp)
    80002d24:	28013507          	fld	fa0,640(sp)
    80002d28:	1aa371c3          	fmadd.d	ft3,ft6,fa0,ft3
    80002d2c:	3352                	fld	ft6,304(sp)
    80002d2e:	29813507          	fld	fa0,664(sp)
    80002d32:	12a37143          	fmadd.d	ft2,ft6,fa0,ft2
    80002d36:	336e                	fld	ft6,248(sp)
    80002d38:	23813507          	fld	fa0,568(sp)
    80002d3c:	22a37243          	fmadd.d	ft4,ft6,fa0,ft4
    80002d40:	234e                	fld	ft6,208(sp)
    80002d42:	3b237343          	fmadd.d	ft6,ft6,fs2,ft7
    80002d46:	350e                	fld	fa0,224(sp)
    80002d48:	21013587          	fld	fa1,528(sp)
    80002d4c:	2ab572c3          	fmadd.d	ft5,fa0,fa1,ft5
    80002d50:	2552                	fld	fa0,272(sp)
    80002d52:	27813587          	fld	fa1,632(sp)
    80002d56:	1ab571c3          	fmadd.d	ft3,fa0,fa1,ft3
    80002d5a:	02717153          	fadd.d	ft2,ft2,ft7
    80002d5e:	354e                	fld	fa0,240(sp)
    80002d60:	23013587          	fld	fa1,560(sp)
    80002d64:	22b57243          	fmadd.d	ft4,fa0,fa1,ft4
    80002d68:	354a                	fld	fa0,176(sp)
    80002d6a:	3b6573c3          	fmadd.d	ft7,fa0,fs6,ft7
    80002d6e:	252e                	fld	fa0,200(sp)
    80002d70:	20013587          	fld	fa1,512(sp)
    80002d74:	32b57343          	fmadd.d	ft6,fa0,fa1,ft6
    80002d78:	31813507          	fld	fa0,792(sp)
    80002d7c:	22813587          	fld	fa1,552(sp)
    80002d80:	2ab572c3          	fmadd.d	ft5,fa0,fa1,ft5
    80002d84:	02317153          	fadd.d	ft2,ft2,ft3
    80002d88:	f20001d3          	fmv.d.x	ft3,zero
    80002d8c:	2e813507          	fld	fa0,744(sp)
    80002d90:	1bb57543          	fmadd.d	fa0,fa0,fs11,ft3
    80002d94:	35aa                	fld	fa1,168(sp)
    80002d96:	3b75f3c3          	fmadd.d	ft7,fa1,fs7,ft7
    80002d9a:	258e                	fld	fa1,192(sp)
    80002d9c:	367e                	fld	fa2,504(sp)
    80002d9e:	32c5f343          	fmadd.d	ft6,fa1,fa2,ft6
    80002da2:	25ee                	fld	fa1,216(sp)
    80002da4:	22013607          	fld	fa2,544(sp)
    80002da8:	2ac5f2c3          	fmadd.d	ft5,fa1,fa2,ft5
    80002dac:	02417153          	fadd.d	ft2,ft2,ft4
    80002db0:	5234f243          	fmadd.d	ft4,fs1,ft3,fa0
    80002db4:	350a                	fld	fa0,160(sp)
    80002db6:	3ba573c3          	fmadd.d	ft7,fa0,fs10,ft7
    80002dba:	356a                	fld	fa0,184(sp)
    80002dbc:	20813587          	fld	fa1,520(sp)
    80002dc0:	32b57343          	fmadd.d	ft6,fa0,fa1,ft6
    80002dc4:	02517153          	fadd.d	ft2,ft2,ft5
    80002dc8:	223af243          	fmadd.d	ft4,fs5,ft3,ft4
    80002dcc:	22ea                	fld	ft5,152(sp)
    80002dce:	3b82f2c3          	fmadd.d	ft5,ft5,fs8,ft7
    80002dd2:	02617153          	fadd.d	ft2,ft2,ft6
    80002dd6:	2230f0c3          	fmadd.d	ft1,ft1,ft3,ft4
    80002dda:	02517153          	fadd.d	ft2,ft2,ft5
    80002dde:	021170d3          	fadd.d	ft1,ft2,ft1
    80002de2:	1a00f053          	fdiv.d	ft0,ft1,ft0
    80002de6:	e2000a53          	fmv.x.d	s4,ft0
    80002dea:	38813503          	ld	a0,904(sp)
    80002dee:	30013583          	ld	a1,768(sp)
    80002df2:	952e                	add	a0,a0,a1
    80002df4:	01453023          	sd	s4,0(a0)
    80002df8:	000bba03          	ld	s4,0(s7)
    80002dfc:	fff90b13          	addi	s6,s2,-1
    80002e00:	012b3533          	sltu	a0,s6,s2
    80002e04:	f2000dd3          	fmv.d.x	fs11,zero
    80002e08:	26013583          	ld	a1,608(sp)
    80002e0c:	8d6d                	and	a0,a0,a1
    80002e0e:	23bd8053          	fmv.d	ft0,fs11
    80002e12:	23bd80d3          	fmv.d	ft1,fs11
    80002e16:	cd19                	beqz	a0,80002e34 <bilateral_core+0xadc>
    80002e18:	33813503          	ld	a0,824(sp)
    80002e1c:	955a                	add	a0,a0,s6
    80002e1e:	37013583          	ld	a1,880(sp)
    80002e22:	0ff58593          	addi	a1,a1,255
    80002e26:	8d6d                	and	a0,a0,a1
    80002e28:	050e                	slli	a0,a0,0x3
    80002e2a:	954e                	add	a0,a0,s3
    80002e2c:	00053007          	fld	ft0,0(a0)
    80002e30:	000d3087          	fld	ft1,0(s10)
    80002e34:	22113c27          	fsd	ft1,568(sp)
    80002e38:	23bd80d3          	fmv.d	ft1,fs11
    80002e3c:	23bd8953          	fmv.d	fs2,fs11
    80002e40:	23bd84d3          	fmv.d	fs1,fs11
    80002e44:	23bd8153          	fmv.d	ft2,fs11
    80002e48:	23bd89d3          	fmv.d	fs3,fs11
    80002e4c:	23bd81d3          	fmv.d	ft3,fs11
    80002e50:	38013a87          	fld	fs5,896(sp)
    80002e54:	e431                	bnez	s0,80002ea0 <bilateral_core+0xb48>
    80002e56:	33813683          	ld	a3,824(sp)
    80002e5a:	01268533          	add	a0,a3,s2
    80002e5e:	37013603          	ld	a2,880(sp)
    80002e62:	0f060593          	addi	a1,a2,240
    80002e66:	8d6d                	and	a0,a0,a1
    80002e68:	050e                	slli	a0,a0,0x3
    80002e6a:	954e                	add	a0,a0,s3
    80002e6c:	2104                	fld	fs1,0(a0)
    80002e6e:	008d3107          	fld	ft2,8(s10)
    80002e72:	30813503          	ld	a0,776(sp)
    80002e76:	31013583          	ld	a1,784(sp)
    80002e7a:	952e                	add	a0,a0,a1
    80002e7c:	050e                	slli	a0,a0,0x3
    80002e7e:	954e                	add	a0,a0,s3
    80002e80:	00053907          	fld	fs2,0(a0)
    80002e84:	010d3087          	fld	ft1,16(s10)
    80002e88:	32013503          	ld	a0,800(sp)
    80002e8c:	9536                	add	a0,a0,a3
    80002e8e:	0f260593          	addi	a1,a2,242
    80002e92:	8d6d                	and	a0,a0,a1
    80002e94:	050e                	slli	a0,a0,0x3
    80002e96:	954e                	add	a0,a0,s3
    80002e98:	00053987          	fld	fs3,0(a0)
    80002e9c:	018d3187          	fld	ft3,24(s10)
    80002ea0:	28313427          	fsd	ft3,648(sp)
    80002ea4:	28213c27          	fsd	ft2,664(sp)
    80002ea8:	2a113027          	fsd	ft1,672(sp)
    80002eac:	f20a0453          	fmv.d.x	fs0,s4
    80002eb0:	ae02                	fsd	ft0,280(sp)
    80002eb2:	0a807053          	fsub.d	ft0,ft0,fs0
    80002eb6:	220010d3          	fneg.d	ft1,ft0
    80002eba:	12107053          	fmul.d	ft0,ft0,ft1
    80002ebe:	13507553          	fmul.d	fa0,ft0,fs5
    80002ec2:	5d6110ef          	jal	80014498 <exp>
    80002ec6:	0a84f053          	fsub.d	ft0,fs1,fs0
    80002eca:	220010d3          	fneg.d	ft1,ft0
    80002ece:	12107053          	fmul.d	ft0,ft0,ft1
    80002ed2:	13507053          	fmul.d	ft0,ft0,fs5
    80002ed6:	28a13027          	fsd	fa0,640(sp)
    80002eda:	22000553          	fmv.d	fa0,ft0
    80002ede:	5ba110ef          	jal	80014498 <exp>
    80002ee2:	0a897053          	fsub.d	ft0,fs2,fs0
    80002ee6:	220010d3          	fneg.d	ft1,ft0
    80002eea:	12107053          	fmul.d	ft0,ft0,ft1
    80002eee:	13507053          	fmul.d	ft0,ft0,fs5
    80002ef2:	26a13c27          	fsd	fa0,632(sp)
    80002ef6:	22000553          	fmv.d	fa0,ft0
    80002efa:	59e110ef          	jal	80014498 <exp>
    80002efe:	0a89f053          	fsub.d	ft0,fs3,fs0
    80002f02:	220010d3          	fneg.d	ft1,ft0
    80002f06:	12107053          	fmul.d	ft0,ft0,ft1
    80002f0a:	13507053          	fmul.d	ft0,ft0,fs5
    80002f0e:	24a13c27          	fsd	fa0,600(sp)
    80002f12:	22000553          	fmv.d	fa0,ft0
    80002f16:	582110ef          	jal	80014498 <exp>
    80002f1a:	24a13827          	fsd	fa0,592(sp)
    80002f1e:	23bd8053          	fmv.d	ft0,fs11
    80002f22:	23bd80d3          	fmv.d	ft1,fs11
    80002f26:	e00d                	bnez	s0,80002f48 <bilateral_core+0xbf0>
    80002f28:	00396513          	ori	a0,s2,3
    80002f2c:	33813583          	ld	a1,824(sp)
    80002f30:	952e                	add	a0,a0,a1
    80002f32:	37013583          	ld	a1,880(sp)
    80002f36:	0f358593          	addi	a1,a1,243
    80002f3a:	8d6d                	and	a0,a0,a1
    80002f3c:	050e                	slli	a0,a0,0x3
    80002f3e:	954e                	add	a0,a0,s3
    80002f40:	00053007          	fld	ft0,0(a0)
    80002f44:	020d3087          	fld	ft1,32(s10)
    80002f48:	23bd8c53          	fmv.d	fs8,fs11
    80002f4c:	23bd8153          	fmv.d	ft2,fs11
    80002f50:	020c0063          	beqz	s8,80002f70 <bilateral_core+0xc18>
    80002f54:	35013503          	ld	a0,848(sp)
    80002f58:	955a                	add	a0,a0,s6
    80002f5a:	37013583          	ld	a1,880(sp)
    80002f5e:	0ff58593          	addi	a1,a1,255
    80002f62:	8d6d                	and	a0,a0,a1
    80002f64:	050e                	slli	a0,a0,0x3
    80002f66:	954e                	add	a0,a0,s3
    80002f68:	00053c07          	fld	fs8,0(a0)
    80002f6c:	028d3107          	fld	ft2,40(s10)
    80002f70:	22213427          	fsd	ft2,552(sp)
    80002f74:	22113827          	fsd	ft1,560(sp)
    80002f78:	23bd80d3          	fmv.d	ft1,fs11
    80002f7c:	23bd8b53          	fmv.d	fs6,fs11
    80002f80:	23bd8bd3          	fmv.d	fs7,fs11
    80002f84:	23bd8153          	fmv.d	ft2,fs11
    80002f88:	35813483          	ld	s1,856(sp)
    80002f8c:	e895                	bnez	s1,80002fc0 <bilateral_core+0xc68>
    80002f8e:	35013503          	ld	a0,848(sp)
    80002f92:	954a                	add	a0,a0,s2
    80002f94:	37013583          	ld	a1,880(sp)
    80002f98:	0f058593          	addi	a1,a1,240
    80002f9c:	8d6d                	and	a0,a0,a1
    80002f9e:	050e                	slli	a0,a0,0x3
    80002fa0:	954e                	add	a0,a0,s3
    80002fa2:	00053b07          	fld	fs6,0(a0)
    80002fa6:	030d3087          	fld	ft1,48(s10)
    80002faa:	33013503          	ld	a0,816(sp)
    80002fae:	31013583          	ld	a1,784(sp)
    80002fb2:	952e                	add	a0,a0,a1
    80002fb4:	050e                	slli	a0,a0,0x3
    80002fb6:	954e                	add	a0,a0,s3
    80002fb8:	00053b87          	fld	fs7,0(a0)
    80002fbc:	038d3107          	fld	ft2,56(s10)
    80002fc0:	20213c27          	fsd	ft2,536(sp)
    80002fc4:	22113027          	fsd	ft1,544(sp)
    80002fc8:	bd82                	fsd	ft0,248(sp)
    80002fca:	0a807053          	fsub.d	ft0,ft0,fs0
    80002fce:	220010d3          	fneg.d	ft1,ft0
    80002fd2:	12107053          	fmul.d	ft0,ft0,ft1
    80002fd6:	13507553          	fmul.d	fa0,ft0,fs5
    80002fda:	4be110ef          	jal	80014498 <exp>
    80002fde:	0a8c7053          	fsub.d	ft0,fs8,fs0
    80002fe2:	220010d3          	fneg.d	ft1,ft0
    80002fe6:	12107053          	fmul.d	ft0,ft0,ft1
    80002fea:	13507053          	fmul.d	ft0,ft0,fs5
    80002fee:	20a13827          	fsd	fa0,528(sp)
    80002ff2:	22000553          	fmv.d	fa0,ft0
    80002ff6:	4a2110ef          	jal	80014498 <exp>
    80002ffa:	0a8b7053          	fsub.d	ft0,fs6,fs0
    80002ffe:	220010d3          	fneg.d	ft1,ft0
    80003002:	12107053          	fmul.d	ft0,ft0,ft1
    80003006:	13507053          	fmul.d	ft0,ft0,fs5
    8000300a:	20a13427          	fsd	fa0,520(sp)
    8000300e:	22000553          	fmv.d	fa0,ft0
    80003012:	486110ef          	jal	80014498 <exp>
    80003016:	0a8bf053          	fsub.d	ft0,fs7,fs0
    8000301a:	220010d3          	fneg.d	ft1,ft0
    8000301e:	12107053          	fmul.d	ft0,ft0,ft1
    80003022:	13507053          	fmul.d	ft0,ft0,fs5
    80003026:	20a13027          	fsd	fa0,512(sp)
    8000302a:	22000553          	fmv.d	fa0,ft0
    8000302e:	46a110ef          	jal	80014498 <exp>
    80003032:	bfaa                	fsd	fa0,504(sp)
    80003034:	23bd80d3          	fmv.d	ft1,fs11
    80003038:	23bd8053          	fmv.d	ft0,fs11
    8000303c:	23bd8cd3          	fmv.d	fs9,fs11
    80003040:	23bd8153          	fmv.d	ft2,fs11
    80003044:	ec8d                	bnez	s1,8000307e <bilateral_core+0xd26>
    80003046:	35013683          	ld	a3,848(sp)
    8000304a:	32013503          	ld	a0,800(sp)
    8000304e:	9536                	add	a0,a0,a3
    80003050:	37013603          	ld	a2,880(sp)
    80003054:	0f260593          	addi	a1,a2,242
    80003058:	8d6d                	and	a0,a0,a1
    8000305a:	050e                	slli	a0,a0,0x3
    8000305c:	954e                	add	a0,a0,s3
    8000305e:	00053007          	fld	ft0,0(a0)
    80003062:	040d3087          	fld	ft1,64(s10)
    80003066:	00396513          	ori	a0,s2,3
    8000306a:	9536                	add	a0,a0,a3
    8000306c:	0f360593          	addi	a1,a2,243
    80003070:	8d6d                	and	a0,a0,a1
    80003072:	050e                	slli	a0,a0,0x3
    80003074:	954e                	add	a0,a0,s3
    80003076:	00053c87          	fld	fs9,0(a0)
    8000307a:	048d3107          	fld	ft2,72(s10)
    8000307e:	b5da                	fsd	fs6,232(sp)
    80003080:	b78a                	fsd	ft2,488(sp)
    80003082:	bb86                	fsd	ft1,496(sp)
    80003084:	a24e                	fsd	fs3,256(sp)
    80003086:	23bd8d53          	fmv.d	fs10,fs11
    8000308a:	23bd80d3          	fmv.d	ft1,fs11
    8000308e:	37013603          	ld	a2,880(sp)
    80003092:	36013d83          	ld	s11,864(sp)
    80003096:	00090d63          	beqz	s2,800030b0 <bilateral_core+0xd58>
    8000309a:	016d8533          	add	a0,s11,s6
    8000309e:	0ff60593          	addi	a1,a2,255
    800030a2:	8d6d                	and	a0,a0,a1
    800030a4:	050e                	slli	a0,a0,0x3
    800030a6:	954e                	add	a0,a0,s3
    800030a8:	00053d07          	fld	fs10,0(a0)
    800030ac:	050d3087          	fld	ft1,80(s10)
    800030b0:	aa26                	fsd	fs1,272(sp)
    800030b2:	b386                	fsd	ft1,480(sp)
    800030b4:	a64a                	fsd	fs2,264(sp)
    800030b6:	ad82                	fsd	ft0,216(sp)
    800030b8:	0a807053          	fsub.d	ft0,ft0,fs0
    800030bc:	220010d3          	fneg.d	ft1,ft0
    800030c0:	12107053          	fmul.d	ft0,ft0,ft1
    800030c4:	0f060513          	addi	a0,a2,240
    800030c8:	13507553          	fmul.d	fa0,ft0,fs5
    800030cc:	2ea13423          	sd	a0,744(sp)
    800030d0:	32813583          	ld	a1,808(sp)
    800030d4:	8d6d                	and	a0,a0,a1
    800030d6:	050e                	slli	a0,a0,0x3
    800030d8:	00a98ab3          	add	s5,s3,a0
    800030dc:	000abb07          	fld	fs6,0(s5)
    800030e0:	058d3007          	fld	ft0,88(s10)
    800030e4:	af82                	fsd	ft0,472(sp)
    800030e6:	3b2110ef          	jal	80014498 <exp>
    800030ea:	0a8cf053          	fsub.d	ft0,fs9,fs0
    800030ee:	220010d3          	fneg.d	ft1,ft0
    800030f2:	12107053          	fmul.d	ft0,ft0,ft1
    800030f6:	13507053          	fmul.d	ft0,ft0,fs5
    800030fa:	abaa                	fsd	fa0,464(sp)
    800030fc:	22000553          	fmv.d	fa0,ft0
    80003100:	398110ef          	jal	80014498 <exp>
    80003104:	0a8d7053          	fsub.d	ft0,fs10,fs0
    80003108:	220010d3          	fneg.d	ft1,ft0
    8000310c:	12107053          	fmul.d	ft0,ft0,ft1
    80003110:	13507053          	fmul.d	ft0,ft0,fs5
    80003114:	a7aa                	fsd	fa0,456(sp)
    80003116:	22000553          	fmv.d	fa0,ft0
    8000311a:	37e110ef          	jal	80014498 <exp>
    8000311e:	a1da                	fsd	fs6,192(sp)
    80003120:	0a8b7053          	fsub.d	ft0,fs6,fs0
    80003124:	220010d3          	fneg.d	ft1,ft0
    80003128:	12107053          	fmul.d	ft0,ft0,ft1
    8000312c:	13507053          	fmul.d	ft0,ft0,fs5
    80003130:	bf2a                	fsd	fa0,440(sp)
    80003132:	22000553          	fmv.d	fa0,ft0
    80003136:	362110ef          	jal	80014498 <exp>
    8000313a:	bb2a                	fsd	fa0,432(sp)
    8000313c:	000bb087          	fld	ft1,0(s7)
    80003140:	060d3007          	fld	ft0,96(s10)
    80003144:	af02                	fsd	ft0,408(sp)
    80003146:	2b013403          	ld	s0,688(sp)
    8000314a:	00043b07          	fld	fs6,0(s0)
    8000314e:	068d3007          	fld	ft0,104(s10)
    80003152:	a382                	fsd	ft0,448(sp)
    80003154:	00396513          	ori	a0,s2,3
    80003158:	30a13c23          	sd	a0,792(sp)
    8000315c:	956e                	add	a0,a0,s11
    8000315e:	2aa13c23          	sd	a0,696(sp)
    80003162:	050e                	slli	a0,a0,0x3
    80003164:	28a13823          	sd	a0,656(sp)
    80003168:	00a98c33          	add	s8,s3,a0
    8000316c:	000c3007          	fld	ft0,0(s8)
    80003170:	30013027          	fsd	ft0,768(sp)
    80003174:	070d3007          	fld	ft0,112(s10)
    80003178:	b702                	fsd	ft0,424(sp)
    8000317a:	23bd8953          	fmv.d	fs2,fs11
    8000317e:	23bd8153          	fmv.d	ft2,fs11
    80003182:	36813483          	ld	s1,872(sp)
    80003186:	00090a63          	beqz	s2,8000319a <bilateral_core+0xe42>
    8000318a:	01648533          	add	a0,s1,s6
    8000318e:	050e                	slli	a0,a0,0x3
    80003190:	954e                	add	a0,a0,s3
    80003192:	00053907          	fld	fs2,0(a0)
    80003196:	078d3107          	fld	ft2,120(s10)
    8000319a:	b30a                	fsd	ft2,416(sp)
    8000319c:	b506                	fsd	ft1,168(sp)
    8000319e:	0a80f053          	fsub.d	ft0,ft1,fs0
    800031a2:	220010d3          	fneg.d	ft1,ft0
    800031a6:	12107053          	fmul.d	ft0,ft0,ft1
    800031aa:	13507553          	fmul.d	fa0,ft0,fs5
    800031ae:	2ea110ef          	jal	80014498 <exp>
    800031b2:	0a8b7053          	fsub.d	ft0,fs6,fs0
    800031b6:	220010d3          	fneg.d	ft1,ft0
    800031ba:	12107053          	fmul.d	ft0,ft0,ft1
    800031be:	13507053          	fmul.d	ft0,ft0,fs5
    800031c2:	ab2a                	fsd	fa0,400(sp)
    800031c4:	22000553          	fmv.d	fa0,ft0
    800031c8:	2d0110ef          	jal	80014498 <exp>
    800031cc:	30013007          	fld	ft0,768(sp)
    800031d0:	0a807053          	fsub.d	ft0,ft0,fs0
    800031d4:	220010d3          	fneg.d	ft1,ft0
    800031d8:	12107053          	fmul.d	ft0,ft0,ft1
    800031dc:	13507053          	fmul.d	ft0,ft0,fs5
    800031e0:	a72a                	fsd	fa0,392(sp)
    800031e2:	22000553          	fmv.d	fa0,ft0
    800031e6:	2b2110ef          	jal	80014498 <exp>
    800031ea:	b94a                	fsd	fs2,176(sp)
    800031ec:	0a897053          	fsub.d	ft0,fs2,fs0
    800031f0:	220010d3          	fneg.d	ft1,ft0
    800031f4:	12107053          	fmul.d	ft0,ft0,ft1
    800031f8:	13507053          	fmul.d	ft0,ft0,fs5
    800031fc:	a32a                	fsd	fa0,384(sp)
    800031fe:	22000553          	fmv.d	fa0,ft0
    80003202:	296110ef          	jal	80014498 <exp>
    80003206:	27013503          	ld	a0,624(sp)
    8000320a:	00053007          	fld	ft0,0(a0)
    8000320e:	a502                	fsd	ft0,136(sp)
    80003210:	0a807053          	fsub.d	ft0,ft0,fs0
    80003214:	220010d3          	fneg.d	ft1,ft0
    80003218:	12107053          	fmul.d	ft0,ft0,ft1
    8000321c:	080d3087          	fld	ft1,128(s10)
    80003220:	b286                	fsd	ft1,352(sp)
    80003222:	2c813503          	ld	a0,712(sp)
    80003226:	00053987          	fld	fs3,0(a0)
    8000322a:	088d3087          	fld	ft1,136(s10)
    8000322e:	b686                	fsd	ft1,360(sp)
    80003230:	2f813503          	ld	a0,760(sp)
    80003234:	00053907          	fld	fs2,0(a0)
    80003238:	090d3087          	fld	ft1,144(s10)
    8000323c:	be86                	fsd	ft1,376(sp)
    8000323e:	13507053          	fmul.d	ft0,ft0,fs5
    80003242:	31813503          	ld	a0,792(sp)
    80003246:	9526                	add	a0,a0,s1
    80003248:	050e                	slli	a0,a0,0x3
    8000324a:	954e                	add	a0,a0,s3
    8000324c:	2ca13c23          	sd	a0,728(sp)
    80003250:	2104                	fld	fs1,0(a0)
    80003252:	098d3087          	fld	ft1,152(s10)
    80003256:	ba86                	fsd	ft1,368(sp)
    80003258:	aeaa                	fsd	fa0,344(sp)
    8000325a:	22000553          	fmv.d	fa0,ft0
    8000325e:	23a110ef          	jal	80014498 <exp>
    80003262:	a94e                	fsd	fs3,144(sp)
    80003264:	0a89f053          	fsub.d	ft0,fs3,fs0
    80003268:	220010d3          	fneg.d	ft1,ft0
    8000326c:	12107053          	fmul.d	ft0,ft0,ft1
    80003270:	13507053          	fmul.d	ft0,ft0,fs5
    80003274:	aaaa                	fsd	fa0,336(sp)
    80003276:	22000553          	fmv.d	fa0,ft0
    8000327a:	21e110ef          	jal	80014498 <exp>
    8000327e:	b14a                	fsd	fs2,160(sp)
    80003280:	0a897053          	fsub.d	ft0,fs2,fs0
    80003284:	220010d3          	fneg.d	ft1,ft0
    80003288:	12107053          	fmul.d	ft0,ft0,ft1
    8000328c:	13507053          	fmul.d	ft0,ft0,fs5
    80003290:	a6aa                	fsd	fa0,328(sp)
    80003292:	22000553          	fmv.d	fa0,ft0
    80003296:	202110ef          	jal	80014498 <exp>
    8000329a:	ad26                	fsd	fs1,152(sp)
    8000329c:	0a84f053          	fsub.d	ft0,fs1,fs0
    800032a0:	220010d3          	fneg.d	ft1,ft0
    800032a4:	12107053          	fmul.d	ft0,ft0,ft1
    800032a8:	13507053          	fmul.d	ft0,ft0,fs5
    800032ac:	a2aa                	fsd	fa0,320(sp)
    800032ae:	22000553          	fmv.d	fa0,ft0
    800032b2:	1e6110ef          	jal	80014498 <exp>
    800032b6:	be2a                	fsd	fa0,312(sp)
    800032b8:	23bd8053          	fmv.d	ft0,fs11
    800032bc:	23bd80d3          	fmv.d	ft1,fs11
    800032c0:	34813583          	ld	a1,840(sp)
    800032c4:	000c8a63          	beqz	s9,800032d8 <bilateral_core+0xf80>
    800032c8:	01658533          	add	a0,a1,s6
    800032cc:	050e                	slli	a0,a0,0x3
    800032ce:	954e                	add	a0,a0,s3
    800032d0:	00053007          	fld	ft0,0(a0)
    800032d4:	0a0d3087          	fld	ft1,160(s10)
    800032d8:	ba06                	fsd	ft1,304(sp)
    800032da:	a5ea                	fsd	fs10,200(sp)
    800032dc:	a9e6                	fsd	fs9,208(sp)
    800032de:	b1de                	fsd	fs7,224(sp)
    800032e0:	23bd80d3          	fmv.d	ft1,fs11
    800032e4:	23bd84d3          	fmv.d	fs1,fs11
    800032e8:	23bd8953          	fmv.d	fs2,fs11
    800032ec:	23bd8a53          	fmv.d	fs4,fs11
    800032f0:	23bd89d3          	fmv.d	fs3,fs11
    800032f4:	23bd81d3          	fmv.d	ft3,fs11
    800032f8:	0fd00b13          	li	s6,253
    800032fc:	39013483          	ld	s1,912(sp)
    80003300:	029b6b63          	bltu	s6,s1,80003336 <bilateral_core+0xfde>
    80003304:	01258533          	add	a0,a1,s2
    80003308:	050e                	slli	a0,a0,0x3
    8000330a:	954e                	add	a0,a0,s3
    8000330c:	00053907          	fld	fs2,0(a0)
    80003310:	0a8d3a07          	fld	fs4,168(s10)
    80003314:	31013503          	ld	a0,784(sp)
    80003318:	952e                	add	a0,a0,a1
    8000331a:	050e                	slli	a0,a0,0x3
    8000331c:	954e                	add	a0,a0,s3
    8000331e:	2104                	fld	fs1,0(a0)
    80003320:	0b0d3087          	fld	ft1,176(s10)
    80003324:	32013503          	ld	a0,800(sp)
    80003328:	952e                	add	a0,a0,a1
    8000332a:	050e                	slli	a0,a0,0x3
    8000332c:	954e                	add	a0,a0,s3
    8000332e:	00053987          	fld	fs3,0(a0)
    80003332:	0b8d3187          	fld	ft3,184(s10)
    80003336:	b20e                	fsd	ft3,288(sp)
    80003338:	b606                	fsd	ft1,296(sp)
    8000333a:	bd5a                	fsd	fs6,184(sp)
    8000333c:	b9e2                	fsd	fs8,240(sp)
    8000333e:	a102                	fsd	ft0,128(sp)
    80003340:	0a807053          	fsub.d	ft0,ft0,fs0
    80003344:	220010d3          	fneg.d	ft1,ft0
    80003348:	12107053          	fmul.d	ft0,ft0,ft1
    8000334c:	13507553          	fmul.d	fa0,ft0,fs5
    80003350:	148110ef          	jal	80014498 <exp>
    80003354:	b8ca                	fsd	fs2,112(sp)
    80003356:	0a897053          	fsub.d	ft0,fs2,fs0
    8000335a:	220010d3          	fneg.d	ft1,ft0
    8000335e:	12107053          	fmul.d	ft0,ft0,ft1
    80003362:	13507053          	fmul.d	ft0,ft0,fs5
    80003366:	22a50c53          	fmv.d	fs8,fa0
    8000336a:	22000553          	fmv.d	fa0,ft0
    8000336e:	12a110ef          	jal	80014498 <exp>
    80003372:	bca6                	fsd	fs1,120(sp)
    80003374:	0a84f053          	fsub.d	ft0,fs1,fs0
    80003378:	220010d3          	fneg.d	ft1,ft0
    8000337c:	12107053          	fmul.d	ft0,ft0,ft1
    80003380:	13507053          	fmul.d	ft0,ft0,fs5
    80003384:	22a50cd3          	fmv.d	fs9,fa0
    80003388:	22000553          	fmv.d	fa0,ft0
    8000338c:	10c110ef          	jal	80014498 <exp>
    80003390:	b4ce                	fsd	fs3,104(sp)
    80003392:	0a89f053          	fsub.d	ft0,fs3,fs0
    80003396:	220010d3          	fneg.d	ft1,ft0
    8000339a:	12107053          	fmul.d	ft0,ft0,ft1
    8000339e:	13507053          	fmul.d	ft0,ft0,fs5
    800033a2:	22a50d53          	fmv.d	fs10,fa0
    800033a6:	22000553          	fmv.d	fa0,ft0
    800033aa:	0ee110ef          	jal	80014498 <exp>
    800033ae:	23bd8353          	fmv.d	ft6,fs11
    800033b2:	23bd84d3          	fmv.d	fs1,fs11
    800033b6:	009b6c63          	bltu	s6,s1,800033ce <bilateral_core+0x1076>
    800033ba:	32813503          	ld	a0,808(sp)
    800033be:	20350513          	addi	a0,a0,515
    800033c2:	050e                	slli	a0,a0,0x3
    800033c4:	954e                	add	a0,a0,s3
    800033c6:	00053307          	fld	ft6,0(a0)
    800033ca:	0c0d3487          	fld	fs1,192(s10)
    800033ce:	28013007          	fld	ft0,640(sp)
    800033d2:	23813087          	fld	ft1,568(sp)
    800033d6:	1200f153          	fmul.d	ft2,ft1,ft0
    800033da:	29813007          	fld	ft0,664(sp)
    800033de:	27813087          	fld	ft1,632(sp)
    800033e2:	121071d3          	fmul.d	ft3,ft0,ft1
    800033e6:	23013007          	fld	ft0,560(sp)
    800033ea:	21013087          	fld	ft1,528(sp)
    800033ee:	121072d3          	fmul.d	ft5,ft0,ft1
    800033f2:	28213027          	fsd	ft2,640(sp)
    800033f6:	03b17053          	fadd.d	ft0,ft2,fs11
    800033fa:	2a013087          	fld	ft1,672(sp)
    800033fe:	25813107          	fld	ft2,600(sp)
    80003402:	1220f253          	fmul.d	ft4,ft1,ft2
    80003406:	22813087          	fld	ft1,552(sp)
    8000340a:	20813107          	fld	ft2,520(sp)
    8000340e:	1220f3d3          	fmul.d	ft7,ft1,ft2
    80003412:	30de                	fld	ft1,496(sp)
    80003414:	215e                	fld	ft2,464(sp)
    80003416:	1220f653          	fmul.d	fa2,ft1,ft2
    8000341a:	28313c27          	fsd	ft3,664(sp)
    8000341e:	02307053          	fadd.d	ft0,ft0,ft3
    80003422:	24513c27          	fsd	ft5,600(sp)
    80003426:	03b2f0d3          	fadd.d	ft1,ft5,fs11
    8000342a:	28813107          	fld	ft2,648(sp)
    8000342e:	25013187          	fld	ft3,592(sp)
    80003432:	123172d3          	fmul.d	ft5,ft2,ft3
    80003436:	22013107          	fld	ft2,544(sp)
    8000343a:	20013187          	fld	ft3,512(sp)
    8000343e:	123175d3          	fmul.d	fa1,ft2,ft3
    80003442:	313e                	fld	ft2,488(sp)
    80003444:	21be                	fld	ft3,456(sp)
    80003446:	123176d3          	fmul.d	fa3,ft2,ft3
    8000344a:	28413427          	fsd	ft4,648(sp)
    8000344e:	02407053          	fadd.d	ft0,ft0,ft4
    80003452:	24713827          	fsd	ft7,592(sp)
    80003456:	0270f0d3          	fadd.d	ft1,ft1,ft7
    8000345a:	22c13427          	fsd	fa2,552(sp)
    8000345e:	03b67153          	fadd.d	ft2,fa2,fs11
    80003462:	21813187          	fld	ft3,536(sp)
    80003466:	327e                	fld	ft4,504(sp)
    80003468:	1241f3d3          	fmul.d	ft7,ft3,ft4
    8000346c:	319e                	fld	ft3,480(sp)
    8000346e:	327a                	fld	ft4,440(sp)
    80003470:	1241f653          	fmul.d	fa2,ft3,ft4
    80003474:	26513c27          	fsd	ft5,632(sp)
    80003478:	02507053          	fadd.d	ft0,ft0,ft5
    8000347c:	22b13c27          	fsd	fa1,568(sp)
    80003480:	02b0f0d3          	fadd.d	ft1,ft1,fa1
    80003484:	22d13027          	fsd	fa3,544(sp)
    80003488:	02d17153          	fadd.d	ft2,ft2,fa3
    8000348c:	21fa                	fld	ft3,408(sp)
    8000348e:	225a                	fld	ft4,400(sp)
    80003490:	1241f2d3          	fmul.d	ft5,ft3,ft4
    80003494:	21fe                	fld	ft3,472(sp)
    80003496:	325a                	fld	ft4,432(sp)
    80003498:	1241f5d3          	fmul.d	fa1,ft3,ft4
    8000349c:	03b07053          	fadd.d	ft0,ft0,fs11
    800034a0:	22713827          	fsd	ft7,560(sp)
    800034a4:	0270f0d3          	fadd.d	ft1,ft1,ft7
    800034a8:	20c13c27          	fsd	fa2,536(sp)
    800034ac:	02c17153          	fadd.d	ft2,ft2,fa2
    800034b0:	219e                	fld	ft3,448(sp)
    800034b2:	223a                	fld	ft4,392(sp)
    800034b4:	1241f3d3          	fmul.d	ft7,ft3,ft4
    800034b8:	bf96                	fsd	ft5,504(sp)
    800034ba:	03b2f1d3          	fadd.d	ft3,ft5,fs11
    800034be:	3216                	fld	ft4,352(sp)
    800034c0:	22d6                	fld	ft5,336(sp)
    800034c2:	12527953          	fmul.d	fs2,ft4,ft5
    800034c6:	02107053          	fadd.d	ft0,ft0,ft1
    800034ca:	20b13827          	fsd	fa1,528(sp)
    800034ce:	02b170d3          	fadd.d	ft1,ft2,fa1
    800034d2:	313a                	fld	ft2,424(sp)
    800034d4:	221a                	fld	ft4,384(sp)
    800034d6:	124172d3          	fmul.d	ft5,ft2,ft4
    800034da:	bb9e                	fsd	ft7,496(sp)
    800034dc:	0271f153          	fadd.d	ft2,ft3,ft7
    800034e0:	31b6                	fld	ft3,360(sp)
    800034e2:	2236                	fld	ft4,328(sp)
    800034e4:	1241f5d3          	fmul.d	fa1,ft3,ft4
    800034e8:	03b971d3          	fadd.d	ft3,fs2,fs11
    800034ec:	3252                	fld	ft4,304(sp)
    800034ee:	13827bd3          	fmul.d	fs7,ft4,fs8
    800034f2:	02107053          	fadd.d	ft0,ft0,ft1
    800034f6:	309a                	fld	ft1,416(sp)
    800034f8:	2276                	fld	ft4,344(sp)
    800034fa:	1240f3d3          	fmul.d	ft7,ft1,ft4
    800034fe:	20513427          	fsd	ft5,520(sp)
    80003502:	025170d3          	fadd.d	ft1,ft2,ft5
    80003506:	3176                	fld	ft2,376(sp)
    80003508:	2216                	fld	ft4,320(sp)
    8000350a:	12417653          	fmul.d	fa2,ft2,ft4
    8000350e:	b3ae                	fsd	fa1,480(sp)
    80003510:	02b1f153          	fadd.d	ft2,ft3,fa1
    80003514:	139a79d3          	fmul.d	fs3,fs4,fs9
    80003518:	03bbf1d3          	fadd.d	ft3,fs7,fs11
    8000351c:	3256                	fld	ft4,368(sp)
    8000351e:	32f2                	fld	ft5,312(sp)
    80003520:	125272d3          	fmul.d	ft5,ft4,ft5
    80003524:	20713027          	fsd	ft7,512(sp)
    80003528:	0270f0d3          	fadd.d	ft1,ft1,ft7
    8000352c:	3232                	fld	ft4,296(sp)
    8000352e:	13a27d53          	fmul.d	fs10,ft4,fs10
    80003532:	2a613027          	fsd	ft6,672(sp)
    80003536:	0a837253          	fsub.d	ft4,ft6,fs0
    8000353a:	afb2                	fsd	fa2,472(sp)
    8000353c:	02c17153          	fadd.d	ft2,ft2,fa2
    80003540:	0331f1d3          	fadd.d	ft3,ft3,fs3
    80003544:	02107053          	fadd.d	ft0,ft0,ft1
    80003548:	3092                	fld	ft1,288(sp)
    8000354a:	12a0fc53          	fmul.d	fs8,ft1,fa0
    8000354e:	224210d3          	fneg.d	ft1,ft4
    80003552:	b796                	fsd	ft5,488(sp)
    80003554:	02517153          	fadd.d	ft2,ft2,ft5
    80003558:	03a1f1d3          	fadd.d	ft3,ft3,fs10
    8000355c:	121270d3          	fmul.d	ft1,ft4,ft1
    80003560:	02207053          	fadd.d	ft0,ft0,ft2
    80003564:	0381f153          	fadd.d	ft2,ft3,fs8
    80003568:	1350f553          	fmul.d	fa0,ft1,fs5
    8000356c:	02207a53          	fadd.d	fs4,ft0,ft2
    80003570:	729100ef          	jal	80014498 <exp>
    80003574:	0a8df053          	fsub.d	ft0,fs11,fs0
    80003578:	220010d3          	fneg.d	ft1,ft0
    8000357c:	12107053          	fmul.d	ft0,ft0,ft1
    80003580:	12a4f4d3          	fmul.d	fs1,fs1,fa0
    80003584:	13507453          	fmul.d	fs0,ft0,fs5
    80003588:	03b4fcd3          	fadd.d	fs9,fs1,fs11
    8000358c:	22840553          	fmv.d	fa0,fs0
    80003590:	709100ef          	jal	80014498 <exp>
    80003594:	13b57ad3          	fmul.d	fs5,fa0,fs11
    80003598:	035cfb53          	fadd.d	fs6,fs9,fs5
    8000359c:	22840553          	fmv.d	fa0,fs0
    800035a0:	6f9100ef          	jal	80014498 <exp>
    800035a4:	13b57cd3          	fmul.d	fs9,fa0,fs11
    800035a8:	039b7b53          	fadd.d	fs6,fs6,fs9
    800035ac:	22840553          	fmv.d	fa0,fs0
    800035b0:	6e9100ef          	jal	80014498 <exp>
    800035b4:	13b570d3          	fmul.d	ft1,fa0,fs11
    800035b8:	021b7053          	fadd.d	ft0,fs6,ft1
    800035bc:	020a7053          	fadd.d	ft0,fs4,ft0
    800035c0:	37813107          	fld	ft2,888(sp)
    800035c4:	a2011553          	flt.d	a0,ft2,ft0
    800035c8:	10050a63          	beqz	a0,800036dc <bilateral_core+0x1384>
    800035cc:	2172                	fld	ft2,280(sp)
    800035ce:	28013187          	fld	ft3,640(sp)
    800035d2:	da317143          	fmadd.d	ft2,ft2,ft3,fs11
    800035d6:	31ee                	fld	ft3,248(sp)
    800035d8:	25813207          	fld	ft4,600(sp)
    800035dc:	da41f1c3          	fmadd.d	ft3,ft3,ft4,fs11
    800035e0:	2252                	fld	ft4,272(sp)
    800035e2:	29813287          	fld	ft5,664(sp)
    800035e6:	12527143          	fmadd.d	ft2,ft4,ft5,ft2
    800035ea:	226e                	fld	ft4,216(sp)
    800035ec:	22813287          	fld	ft5,552(sp)
    800035f0:	da527243          	fmadd.d	ft4,ft4,ft5,fs11
    800035f4:	32ce                	fld	ft5,240(sp)
    800035f6:	25013307          	fld	ft6,592(sp)
    800035fa:	1a62f1c3          	fmadd.d	ft3,ft5,ft6,ft3
    800035fe:	22b2                	fld	ft5,264(sp)
    80003600:	28813307          	fld	ft6,648(sp)
    80003604:	1262f143          	fmadd.d	ft2,ft5,ft6,ft2
    80003608:	22ce                	fld	ft5,208(sp)
    8000360a:	22013307          	fld	ft6,544(sp)
    8000360e:	2262f243          	fmadd.d	ft4,ft5,ft6,ft4
    80003612:	32aa                	fld	ft5,168(sp)
    80003614:	337e                	fld	ft6,504(sp)
    80003616:	da62f2c3          	fmadd.d	ft5,ft5,ft6,fs11
    8000361a:	332e                	fld	ft6,232(sp)
    8000361c:	23813387          	fld	ft7,568(sp)
    80003620:	1a7371c3          	fmadd.d	ft3,ft6,ft7,ft3
    80003624:	2312                	fld	ft6,256(sp)
    80003626:	27813387          	fld	ft7,632(sp)
    8000362a:	12737143          	fmadd.d	ft2,ft6,ft7,ft2
    8000362e:	232e                	fld	ft6,200(sp)
    80003630:	21813387          	fld	ft7,536(sp)
    80003634:	22737243          	fmadd.d	ft4,ft6,ft7,ft4
    80003638:	232a                	fld	ft6,136(sp)
    8000363a:	db237343          	fmadd.d	ft6,ft6,fs2,fs11
    8000363e:	33ea                	fld	ft7,184(sp)
    80003640:	355e                	fld	fa0,496(sp)
    80003642:	2aa3f2c3          	fmadd.d	ft5,ft7,fa0,ft5
    80003646:	338e                	fld	ft7,224(sp)
    80003648:	23013507          	fld	fa0,560(sp)
    8000364c:	1aa3f1c3          	fmadd.d	ft3,ft7,fa0,ft3
    80003650:	03b17153          	fadd.d	ft2,ft2,fs11
    80003654:	238e                	fld	ft7,192(sp)
    80003656:	21013507          	fld	fa0,528(sp)
    8000365a:	22a3f243          	fmadd.d	ft4,ft7,fa0,ft4
    8000365e:	238a                	fld	ft7,128(sp)
    80003660:	db73f3c3          	fmadd.d	ft7,ft7,fs7,fs11
    80003664:	254a                	fld	fa0,144(sp)
    80003666:	359e                	fld	fa1,480(sp)
    80003668:	32b57343          	fmadd.d	ft6,fa0,fa1,ft6
    8000366c:	30013507          	fld	fa0,768(sp)
    80003670:	20813587          	fld	fa1,520(sp)
    80003674:	2ab572c3          	fmadd.d	ft5,fa0,fa1,ft5
    80003678:	02317153          	fadd.d	ft2,ft2,ft3
    8000367c:	f20001d3          	fmv.d.x	ft3,zero
    80003680:	2a013507          	fld	fa0,672(sp)
    80003684:	1a957543          	fmadd.d	fa0,fa0,fs1,ft3
    80003688:	35c6                	fld	fa1,112(sp)
    8000368a:	3b35f3c3          	fmadd.d	ft7,fa1,fs3,ft7
    8000368e:	358a                	fld	fa1,160(sp)
    80003690:	267e                	fld	fa2,472(sp)
    80003692:	32c5f343          	fmadd.d	ft6,fa1,fa2,ft6
    80003696:	35ca                	fld	fa1,176(sp)
    80003698:	20013607          	fld	fa2,512(sp)
    8000369c:	2ac5f2c3          	fmadd.d	ft5,fa1,fa2,ft5
    800036a0:	02417153          	fadd.d	ft2,ft2,ft4
    800036a4:	523af243          	fmadd.d	ft4,fs5,ft3,fa0
    800036a8:	3566                	fld	fa0,120(sp)
    800036aa:	3ba573c3          	fmadd.d	ft7,fa0,fs10,ft7
    800036ae:	256a                	fld	fa0,152(sp)
    800036b0:	35be                	fld	fa1,488(sp)
    800036b2:	32b57343          	fmadd.d	ft6,fa0,fa1,ft6
    800036b6:	02517153          	fadd.d	ft2,ft2,ft5
    800036ba:	223cf243          	fmadd.d	ft4,fs9,ft3,ft4
    800036be:	32a6                	fld	ft5,104(sp)
    800036c0:	3b82f2c3          	fmadd.d	ft5,ft5,fs8,ft7
    800036c4:	02617153          	fadd.d	ft2,ft2,ft6
    800036c8:	2230f0c3          	fmadd.d	ft1,ft1,ft3,ft4
    800036cc:	02517153          	fadd.d	ft2,ft2,ft5
    800036d0:	021170d3          	fadd.d	ft1,ft2,ft1
    800036d4:	1a00f053          	fdiv.d	ft0,ft1,ft0
    800036d8:	e2000a53          	fmv.x.d	s4,ft0
    800036dc:	38813503          	ld	a0,904(sp)
    800036e0:	2f013583          	ld	a1,752(sp)
    800036e4:	952e                	add	a0,a0,a1
    800036e6:	01453023          	sd	s4,0(a0)
    800036ea:	f2000dd3          	fmv.d.x	fs11,zero
    800036ee:	00043b03          	ld	s6,0(s0)
    800036f2:	23bd8153          	fmv.d	ft2,fs11
    800036f6:	23bd84d3          	fmv.d	fs1,fs11
    800036fa:	23bd80d3          	fmv.d	ft1,fs11
    800036fe:	23bd8053          	fmv.d	ft0,fs11
    80003702:	23bd8953          	fmv.d	fs2,fs11
    80003706:	23bd81d3          	fmv.d	ft3,fs11
    8000370a:	23bd89d3          	fmv.d	fs3,fs11
    8000370e:	23bd8253          	fmv.d	ft4,fs11
    80003712:	34013483          	ld	s1,832(sp)
    80003716:	e0b5                	bnez	s1,8000377a <bilateral_core+0x1422>
    80003718:	33813683          	ld	a3,824(sp)
    8000371c:	01268533          	add	a0,a3,s2
    80003720:	2e813583          	ld	a1,744(sp)
    80003724:	8d6d                	and	a0,a0,a1
    80003726:	050e                	slli	a0,a0,0x3
    80003728:	954e                	add	a0,a0,s3
    8000372a:	00053007          	fld	ft0,0(a0)
    8000372e:	000d3087          	fld	ft1,0(s10)
    80003732:	31013503          	ld	a0,784(sp)
    80003736:	9536                	add	a0,a0,a3
    80003738:	37013603          	ld	a2,880(sp)
    8000373c:	0f160593          	addi	a1,a2,241
    80003740:	8d6d                	and	a0,a0,a1
    80003742:	050e                	slli	a0,a0,0x3
    80003744:	954e                	add	a0,a0,s3
    80003746:	00053907          	fld	fs2,0(a0)
    8000374a:	008d3187          	fld	ft3,8(s10)
    8000374e:	30813503          	ld	a0,776(sp)
    80003752:	32013583          	ld	a1,800(sp)
    80003756:	952e                	add	a0,a0,a1
    80003758:	050e                	slli	a0,a0,0x3
    8000375a:	954e                	add	a0,a0,s3
    8000375c:	2104                	fld	fs1,0(a0)
    8000375e:	010d3107          	fld	ft2,16(s10)
    80003762:	31813503          	ld	a0,792(sp)
    80003766:	9536                	add	a0,a0,a3
    80003768:	0f360593          	addi	a1,a2,243
    8000376c:	8d6d                	and	a0,a0,a1
    8000376e:	050e                	slli	a0,a0,0x3
    80003770:	954e                	add	a0,a0,s3
    80003772:	00053987          	fld	fs3,0(a0)
    80003776:	018d3207          	fld	ft4,24(s10)
    8000377a:	24413c27          	fsd	ft4,600(sp)
    8000377e:	26313c27          	fsd	ft3,632(sp)
    80003782:	28213027          	fsd	ft2,640(sp)
    80003786:	28113c27          	fsd	ft1,664(sp)
    8000378a:	f20b0453          	fmv.d.x	fs0,s6
    8000378e:	b202                	fsd	ft0,288(sp)
    80003790:	0a807053          	fsub.d	ft0,ft0,fs0
    80003794:	220010d3          	fneg.d	ft1,ft0
    80003798:	12107053          	fmul.d	ft0,ft0,ft1
    8000379c:	38013a87          	fld	fs5,896(sp)
    800037a0:	13507553          	fmul.d	fa0,ft0,fs5
    800037a4:	4f5100ef          	jal	80014498 <exp>
    800037a8:	aa4a                	fsd	fs2,272(sp)
    800037aa:	0a897053          	fsub.d	ft0,fs2,fs0
    800037ae:	220010d3          	fneg.d	ft1,ft0
    800037b2:	12107053          	fmul.d	ft0,ft0,ft1
    800037b6:	13507053          	fmul.d	ft0,ft0,fs5
    800037ba:	24a13827          	fsd	fa0,592(sp)
    800037be:	22000553          	fmv.d	fa0,ft0
    800037c2:	4d7100ef          	jal	80014498 <exp>
    800037c6:	ae26                	fsd	fs1,280(sp)
    800037c8:	0a84f053          	fsub.d	ft0,fs1,fs0
    800037cc:	220010d3          	fneg.d	ft1,ft0
    800037d0:	12107053          	fmul.d	ft0,ft0,ft1
    800037d4:	13507053          	fmul.d	ft0,ft0,fs5
    800037d8:	22a13c27          	fsd	fa0,568(sp)
    800037dc:	22000553          	fmv.d	fa0,ft0
    800037e0:	4b9100ef          	jal	80014498 <exp>
    800037e4:	0a89f053          	fsub.d	ft0,fs3,fs0
    800037e8:	220010d3          	fneg.d	ft1,ft0
    800037ec:	12107053          	fmul.d	ft0,ft0,ft1
    800037f0:	13507053          	fmul.d	ft0,ft0,fs5
    800037f4:	22a13827          	fsd	fa0,560(sp)
    800037f8:	22000553          	fmv.d	fa0,ft0
    800037fc:	49d100ef          	jal	80014498 <exp>
    80003800:	22a13427          	fsd	fa0,552(sp)
    80003804:	23bd8053          	fmv.d	ft0,fs11
    80003808:	23bd80d3          	fmv.d	ft1,fs11
    8000380c:	e08d                	bnez	s1,8000382e <bilateral_core+0x14d6>
    8000380e:	00496513          	ori	a0,s2,4
    80003812:	33813583          	ld	a1,824(sp)
    80003816:	952e                	add	a0,a0,a1
    80003818:	37013583          	ld	a1,880(sp)
    8000381c:	0f458593          	addi	a1,a1,244
    80003820:	8d6d                	and	a0,a0,a1
    80003822:	050e                	slli	a0,a0,0x3
    80003824:	954e                	add	a0,a0,s3
    80003826:	00053007          	fld	ft0,0(a0)
    8000382a:	020d3087          	fld	ft1,32(s10)
    8000382e:	22113027          	fsd	ft1,544(sp)
    80003832:	23bd80d3          	fmv.d	ft1,fs11
    80003836:	23bd84d3          	fmv.d	fs1,fs11
    8000383a:	23bd8953          	fmv.d	fs2,fs11
    8000383e:	23bd8153          	fmv.d	ft2,fs11
    80003842:	23bd8bd3          	fmv.d	fs7,fs11
    80003846:	23bd81d3          	fmv.d	ft3,fs11
    8000384a:	35813483          	ld	s1,856(sp)
    8000384e:	e4b1                	bnez	s1,8000389a <bilateral_core+0x1542>
    80003850:	35013583          	ld	a1,848(sp)
    80003854:	01258533          	add	a0,a1,s2
    80003858:	2e813603          	ld	a2,744(sp)
    8000385c:	8d71                	and	a0,a0,a2
    8000385e:	050e                	slli	a0,a0,0x3
    80003860:	954e                	add	a0,a0,s3
    80003862:	00053907          	fld	fs2,0(a0)
    80003866:	028d3107          	fld	ft2,40(s10)
    8000386a:	31013503          	ld	a0,784(sp)
    8000386e:	952e                	add	a0,a0,a1
    80003870:	37013583          	ld	a1,880(sp)
    80003874:	0f158593          	addi	a1,a1,241
    80003878:	8d6d                	and	a0,a0,a1
    8000387a:	050e                	slli	a0,a0,0x3
    8000387c:	954e                	add	a0,a0,s3
    8000387e:	2104                	fld	fs1,0(a0)
    80003880:	030d3087          	fld	ft1,48(s10)
    80003884:	33013503          	ld	a0,816(sp)
    80003888:	32013583          	ld	a1,800(sp)
    8000388c:	952e                	add	a0,a0,a1
    8000388e:	050e                	slli	a0,a0,0x3
    80003890:	954e                	add	a0,a0,s3
    80003892:	00053b87          	fld	fs7,0(a0)
    80003896:	038d3187          	fld	ft3,56(s10)
    8000389a:	20313427          	fsd	ft3,520(sp)
    8000389e:	20213827          	fsd	ft2,528(sp)
    800038a2:	20113c27          	fsd	ft1,536(sp)
    800038a6:	a202                	fsd	ft0,256(sp)
    800038a8:	0a807053          	fsub.d	ft0,ft0,fs0
    800038ac:	220010d3          	fneg.d	ft1,ft0
    800038b0:	12107053          	fmul.d	ft0,ft0,ft1
    800038b4:	13507553          	fmul.d	fa0,ft0,fs5
    800038b8:	3e1100ef          	jal	80014498 <exp>
    800038bc:	0a897053          	fsub.d	ft0,fs2,fs0
    800038c0:	220010d3          	fneg.d	ft1,ft0
    800038c4:	12107053          	fmul.d	ft0,ft0,ft1
    800038c8:	13507053          	fmul.d	ft0,ft0,fs5
    800038cc:	20a13027          	fsd	fa0,512(sp)
    800038d0:	22000553          	fmv.d	fa0,ft0
    800038d4:	3c5100ef          	jal	80014498 <exp>
    800038d8:	0a84f053          	fsub.d	ft0,fs1,fs0
    800038dc:	220010d3          	fneg.d	ft1,ft0
    800038e0:	12107053          	fmul.d	ft0,ft0,ft1
    800038e4:	13507053          	fmul.d	ft0,ft0,fs5
    800038e8:	bfaa                	fsd	fa0,504(sp)
    800038ea:	22000553          	fmv.d	fa0,ft0
    800038ee:	3ab100ef          	jal	80014498 <exp>
    800038f2:	0a8bf053          	fsub.d	ft0,fs7,fs0
    800038f6:	220010d3          	fneg.d	ft1,ft0
    800038fa:	12107053          	fmul.d	ft0,ft0,ft1
    800038fe:	13507053          	fmul.d	ft0,ft0,fs5
    80003902:	bbaa                	fsd	fa0,496(sp)
    80003904:	22000553          	fmv.d	fa0,ft0
    80003908:	391100ef          	jal	80014498 <exp>
    8000390c:	b7aa                	fsd	fa0,488(sp)
    8000390e:	23bd80d3          	fmv.d	ft1,fs11
    80003912:	23bd8053          	fmv.d	ft0,fs11
    80003916:	23bd8c53          	fmv.d	fs8,fs11
    8000391a:	23bd8153          	fmv.d	ft2,fs11
    8000391e:	ec8d                	bnez	s1,80003958 <bilateral_core+0x1600>
    80003920:	35013683          	ld	a3,848(sp)
    80003924:	31813503          	ld	a0,792(sp)
    80003928:	9536                	add	a0,a0,a3
    8000392a:	37013603          	ld	a2,880(sp)
    8000392e:	0f360593          	addi	a1,a2,243
    80003932:	8d6d                	and	a0,a0,a1
    80003934:	050e                	slli	a0,a0,0x3
    80003936:	954e                	add	a0,a0,s3
    80003938:	00053007          	fld	ft0,0(a0)
    8000393c:	040d3087          	fld	ft1,64(s10)
    80003940:	00496513          	ori	a0,s2,4
    80003944:	9536                	add	a0,a0,a3
    80003946:	0f460593          	addi	a1,a2,244
    8000394a:	8d6d                	and	a0,a0,a1
    8000394c:	050e                	slli	a0,a0,0x3
    8000394e:	954e                	add	a0,a0,s3
    80003950:	00053c07          	fld	fs8,0(a0)
    80003954:	048d3107          	fld	ft2,72(s10)
    80003958:	bdca                	fsd	fs2,248(sp)
    8000395a:	af8a                	fsd	ft2,472(sp)
    8000395c:	b386                	fsd	ft1,480(sp)
    8000395e:	a64e                	fsd	fs3,264(sp)
    80003960:	b182                	fsd	ft0,224(sp)
    80003962:	0a807053          	fsub.d	ft0,ft0,fs0
    80003966:	220010d3          	fneg.d	ft1,ft0
    8000396a:	12107053          	fmul.d	ft0,ft0,ft1
    8000396e:	000ab987          	fld	fs3,0(s5)
    80003972:	050d3087          	fld	ft1,80(s10)
    80003976:	ab86                	fsd	ft1,464(sp)
    80003978:	37013503          	ld	a0,880(sp)
    8000397c:	0f150513          	addi	a0,a0,241
    80003980:	13507553          	fmul.d	fa0,ft0,fs5
    80003984:	2ea13823          	sd	a0,752(sp)
    80003988:	2a813583          	ld	a1,680(sp)
    8000398c:	8d6d                	and	a0,a0,a1
    8000398e:	050e                	slli	a0,a0,0x3
    80003990:	00a98a33          	add	s4,s3,a0
    80003994:	000a3c87          	fld	fs9,0(s4)
    80003998:	058d3007          	fld	ft0,88(s10)
    8000399c:	2a013427          	fsd	ft0,680(sp)
    800039a0:	2f9100ef          	jal	80014498 <exp>
    800039a4:	ade2                	fsd	fs8,216(sp)
    800039a6:	0a8c7053          	fsub.d	ft0,fs8,fs0
    800039aa:	220010d3          	fneg.d	ft1,ft0
    800039ae:	12107053          	fmul.d	ft0,ft0,ft1
    800039b2:	13507053          	fmul.d	ft0,ft0,fs5
    800039b6:	a7aa                	fsd	fa0,456(sp)
    800039b8:	22000553          	fmv.d	fa0,ft0
    800039bc:	2dd100ef          	jal	80014498 <exp>
    800039c0:	a9ce                	fsd	fs3,208(sp)
    800039c2:	0a89f053          	fsub.d	ft0,fs3,fs0
    800039c6:	220010d3          	fneg.d	ft1,ft0
    800039ca:	12107053          	fmul.d	ft0,ft0,ft1
    800039ce:	13507053          	fmul.d	ft0,ft0,fs5
    800039d2:	a3aa                	fsd	fa0,448(sp)
    800039d4:	22000553          	fmv.d	fa0,ft0
    800039d8:	2c1100ef          	jal	80014498 <exp>
    800039dc:	a5e6                	fsd	fs9,200(sp)
    800039de:	0a8cf053          	fsub.d	ft0,fs9,fs0
    800039e2:	220010d3          	fneg.d	ft1,ft0
    800039e6:	12107053          	fmul.d	ft0,ft0,ft1
    800039ea:	13507053          	fmul.d	ft0,ft0,fs5
    800039ee:	bf2a                	fsd	fa0,440(sp)
    800039f0:	22000553          	fmv.d	fa0,ft0
    800039f4:	2a5100ef          	jal	80014498 <exp>
    800039f8:	00043007          	fld	ft0,0(s0)
    800039fc:	bd02                	fsd	ft0,184(sp)
    800039fe:	0a807053          	fsub.d	ft0,ft0,fs0
    80003a02:	220010d3          	fneg.d	ft1,ft0
    80003a06:	12107053          	fmul.d	ft0,ft0,ft1
    80003a0a:	060d3087          	fld	ft1,96(s10)
    80003a0e:	af06                	fsd	ft1,408(sp)
    80003a10:	000c3c07          	fld	fs8,0(s8)
    80003a14:	068d3087          	fld	ft1,104(s10)
    80003a18:	b706                	fsd	ft1,424(sp)
    80003a1a:	00496493          	ori	s1,s2,4
    80003a1e:	009d8533          	add	a0,s11,s1
    80003a22:	2aa13023          	sd	a0,672(sp)
    80003a26:	050e                	slli	a0,a0,0x3
    80003a28:	13507053          	fmul.d	ft0,ft0,fs5
    80003a2c:	28a13423          	sd	a0,648(sp)
    80003a30:	00a98cb3          	add	s9,s3,a0
    80003a34:	000cbc87          	fld	fs9,0(s9)
    80003a38:	070d3087          	fld	ft1,112(s10)
    80003a3c:	b306                	fsd	ft1,416(sp)
    80003a3e:	27013503          	ld	a0,624(sp)
    80003a42:	00053987          	fld	fs3,0(a0)
    80003a46:	078d3087          	fld	ft1,120(s10)
    80003a4a:	bb06                	fsd	ft1,432(sp)
    80003a4c:	ab2a                	fsd	fa0,400(sp)
    80003a4e:	22000553          	fmv.d	fa0,ft0
    80003a52:	247100ef          	jal	80014498 <exp>
    80003a56:	b962                	fsd	fs8,176(sp)
    80003a58:	0a8c7053          	fsub.d	ft0,fs8,fs0
    80003a5c:	220010d3          	fneg.d	ft1,ft0
    80003a60:	12107053          	fmul.d	ft0,ft0,ft1
    80003a64:	13507053          	fmul.d	ft0,ft0,fs5
    80003a68:	a72a                	fsd	fa0,392(sp)
    80003a6a:	22000553          	fmv.d	fa0,ft0
    80003a6e:	22b100ef          	jal	80014498 <exp>
    80003a72:	b566                	fsd	fs9,168(sp)
    80003a74:	0a8cf053          	fsub.d	ft0,fs9,fs0
    80003a78:	220010d3          	fneg.d	ft1,ft0
    80003a7c:	12107053          	fmul.d	ft0,ft0,ft1
    80003a80:	13507053          	fmul.d	ft0,ft0,fs5
    80003a84:	a32a                	fsd	fa0,384(sp)
    80003a86:	22000553          	fmv.d	fa0,ft0
    80003a8a:	20f100ef          	jal	80014498 <exp>
    80003a8e:	a1ce                	fsd	fs3,192(sp)
    80003a90:	0a89f053          	fsub.d	ft0,fs3,fs0
    80003a94:	220010d3          	fneg.d	ft1,ft0
    80003a98:	12107053          	fmul.d	ft0,ft0,ft1
    80003a9c:	13507053          	fmul.d	ft0,ft0,fs5
    80003aa0:	beaa                	fsd	fa0,376(sp)
    80003aa2:	22000553          	fmv.d	fa0,ft0
    80003aa6:	1f3100ef          	jal	80014498 <exp>
    80003aaa:	2c813503          	ld	a0,712(sp)
    80003aae:	00053007          	fld	ft0,0(a0)
    80003ab2:	a502                	fsd	ft0,136(sp)
    80003ab4:	0a807053          	fsub.d	ft0,ft0,fs0
    80003ab8:	220010d3          	fneg.d	ft1,ft0
    80003abc:	12107053          	fmul.d	ft0,ft0,ft1
    80003ac0:	080d3087          	fld	ft1,128(s10)
    80003ac4:	ae86                	fsd	ft1,344(sp)
    80003ac6:	2f813503          	ld	a0,760(sp)
    80003aca:	00053c87          	fld	fs9,0(a0)
    80003ace:	088d3087          	fld	ft1,136(s10)
    80003ad2:	b286                	fsd	ft1,352(sp)
    80003ad4:	2d813503          	ld	a0,728(sp)
    80003ad8:	00053987          	fld	fs3,0(a0)
    80003adc:	090d3087          	fld	ft1,144(s10)
    80003ae0:	ba86                	fsd	ft1,368(sp)
    80003ae2:	13507053          	fmul.d	ft0,ft0,fs5
    80003ae6:	30913023          	sd	s1,768(sp)
    80003aea:	36813503          	ld	a0,872(sp)
    80003aee:	9526                	add	a0,a0,s1
    80003af0:	050e                	slli	a0,a0,0x3
    80003af2:	954e                	add	a0,a0,s3
    80003af4:	2aa13823          	sd	a0,688(sp)
    80003af8:	00053c07          	fld	fs8,0(a0)
    80003afc:	098d3087          	fld	ft1,152(s10)
    80003b00:	b686                	fsd	ft1,360(sp)
    80003b02:	aaaa                	fsd	fa0,336(sp)
    80003b04:	22000553          	fmv.d	fa0,ft0
    80003b08:	191100ef          	jal	80014498 <exp>
    80003b0c:	a966                	fsd	fs9,144(sp)
    80003b0e:	0a8cf053          	fsub.d	ft0,fs9,fs0
    80003b12:	220010d3          	fneg.d	ft1,ft0
    80003b16:	12107053          	fmul.d	ft0,ft0,ft1
    80003b1a:	13507053          	fmul.d	ft0,ft0,fs5
    80003b1e:	a6aa                	fsd	fa0,328(sp)
    80003b20:	22000553          	fmv.d	fa0,ft0
    80003b24:	175100ef          	jal	80014498 <exp>
    80003b28:	b14e                	fsd	fs3,160(sp)
    80003b2a:	0a89f053          	fsub.d	ft0,fs3,fs0
    80003b2e:	220010d3          	fneg.d	ft1,ft0
    80003b32:	12107053          	fmul.d	ft0,ft0,ft1
    80003b36:	13507053          	fmul.d	ft0,ft0,fs5
    80003b3a:	a2aa                	fsd	fa0,320(sp)
    80003b3c:	22000553          	fmv.d	fa0,ft0
    80003b40:	159100ef          	jal	80014498 <exp>
    80003b44:	ad62                	fsd	fs8,152(sp)
    80003b46:	0a8c7053          	fsub.d	ft0,fs8,fs0
    80003b4a:	220010d3          	fneg.d	ft1,ft0
    80003b4e:	12107053          	fmul.d	ft0,ft0,ft1
    80003b52:	13507053          	fmul.d	ft0,ft0,fs5
    80003b56:	be2a                	fsd	fa0,312(sp)
    80003b58:	22000553          	fmv.d	fa0,ft0
    80003b5c:	13d100ef          	jal	80014498 <exp>
    80003b60:	ba2a                	fsd	fa0,304(sp)
    80003b62:	23bd8a53          	fmv.d	fs4,fs11
    80003b66:	23bd89d3          	fmv.d	fs3,fs11
    80003b6a:	23bd8953          	fmv.d	fs2,fs11
    80003b6e:	23bd8053          	fmv.d	ft0,fs11
    80003b72:	23bd8c53          	fmv.d	fs8,fs11
    80003b76:	23bd8b53          	fmv.d	fs6,fs11
    80003b7a:	23bd8d53          	fmv.d	fs10,fs11
    80003b7e:	23bd8253          	fmv.d	ft4,fs11
    80003b82:	0fd00a93          	li	s5,253
    80003b86:	39013483          	ld	s1,912(sp)
    80003b8a:	049ae763          	bltu	s5,s1,80003bd8 <bilateral_core+0x1880>
    80003b8e:	34813583          	ld	a1,840(sp)
    80003b92:	01258533          	add	a0,a1,s2
    80003b96:	050e                	slli	a0,a0,0x3
    80003b98:	954e                	add	a0,a0,s3
    80003b9a:	00053007          	fld	ft0,0(a0)
    80003b9e:	0a0d3907          	fld	fs2,160(s10)
    80003ba2:	31013503          	ld	a0,784(sp)
    80003ba6:	952e                	add	a0,a0,a1
    80003ba8:	050e                	slli	a0,a0,0x3
    80003baa:	954e                	add	a0,a0,s3
    80003bac:	00053c07          	fld	fs8,0(a0)
    80003bb0:	0a8d3b07          	fld	fs6,168(s10)
    80003bb4:	32013503          	ld	a0,800(sp)
    80003bb8:	952e                	add	a0,a0,a1
    80003bba:	050e                	slli	a0,a0,0x3
    80003bbc:	954e                	add	a0,a0,s3
    80003bbe:	00053987          	fld	fs3,0(a0)
    80003bc2:	0b0d3a07          	fld	fs4,176(s10)
    80003bc6:	31813503          	ld	a0,792(sp)
    80003bca:	952e                	add	a0,a0,a1
    80003bcc:	050e                	slli	a0,a0,0x3
    80003bce:	954e                	add	a0,a0,s3
    80003bd0:	00053d07          	fld	fs10,0(a0)
    80003bd4:	0b8d3207          	fld	ft4,184(s10)
    80003bd8:	b612                	fsd	ft4,296(sp)
    80003bda:	b5de                	fsd	fs7,232(sp)
    80003bdc:	b9a6                	fsd	fs1,240(sp)
    80003bde:	bc82                	fsd	ft0,120(sp)
    80003be0:	0a807053          	fsub.d	ft0,ft0,fs0
    80003be4:	220010d3          	fneg.d	ft1,ft0
    80003be8:	12107053          	fmul.d	ft0,ft0,ft1
    80003bec:	13507553          	fmul.d	fa0,ft0,fs5
    80003bf0:	0a9100ef          	jal	80014498 <exp>
    80003bf4:	b8e2                	fsd	fs8,112(sp)
    80003bf6:	0a8c7053          	fsub.d	ft0,fs8,fs0
    80003bfa:	220010d3          	fneg.d	ft1,ft0
    80003bfe:	12107053          	fmul.d	ft0,ft0,ft1
    80003c02:	13507053          	fmul.d	ft0,ft0,fs5
    80003c06:	22a50c53          	fmv.d	fs8,fa0
    80003c0a:	22000553          	fmv.d	fa0,ft0
    80003c0e:	08b100ef          	jal	80014498 <exp>
    80003c12:	a14e                	fsd	fs3,128(sp)
    80003c14:	0a89f053          	fsub.d	ft0,fs3,fs0
    80003c18:	220010d3          	fneg.d	ft1,ft0
    80003c1c:	12107053          	fmul.d	ft0,ft0,ft1
    80003c20:	13507053          	fmul.d	ft0,ft0,fs5
    80003c24:	22a50cd3          	fmv.d	fs9,fa0
    80003c28:	22000553          	fmv.d	fa0,ft0
    80003c2c:	06d100ef          	jal	80014498 <exp>
    80003c30:	b4ea                	fsd	fs10,104(sp)
    80003c32:	0a8d7053          	fsub.d	ft0,fs10,fs0
    80003c36:	220010d3          	fneg.d	ft1,ft0
    80003c3a:	12107053          	fmul.d	ft0,ft0,ft1
    80003c3e:	13507053          	fmul.d	ft0,ft0,fs5
    80003c42:	22a50d53          	fmv.d	fs10,fa0
    80003c46:	22000553          	fmv.d	fa0,ft0
    80003c4a:	04f100ef          	jal	80014498 <exp>
    80003c4e:	23bd8353          	fmv.d	ft6,fs11
    80003c52:	23bd89d3          	fmv.d	fs3,fs11
    80003c56:	35813b83          	ld	s7,856(sp)
    80003c5a:	34013403          	ld	s0,832(sp)
    80003c5e:	009aec63          	bltu	s5,s1,80003c76 <bilateral_core+0x191e>
    80003c62:	32813503          	ld	a0,808(sp)
    80003c66:	20450513          	addi	a0,a0,516
    80003c6a:	050e                	slli	a0,a0,0x3
    80003c6c:	954e                	add	a0,a0,s3
    80003c6e:	00053307          	fld	ft6,0(a0)
    80003c72:	0c0d3987          	fld	fs3,192(s10)
    80003c76:	29813007          	fld	ft0,664(sp)
    80003c7a:	25013087          	fld	ft1,592(sp)
    80003c7e:	12107153          	fmul.d	ft2,ft0,ft1
    80003c82:	27813007          	fld	ft0,632(sp)
    80003c86:	23813087          	fld	ft1,568(sp)
    80003c8a:	121071d3          	fmul.d	ft3,ft0,ft1
    80003c8e:	22013007          	fld	ft0,544(sp)
    80003c92:	20013087          	fld	ft1,512(sp)
    80003c96:	121072d3          	fmul.d	ft5,ft0,ft1
    80003c9a:	26213c27          	fsd	ft2,632(sp)
    80003c9e:	03b17053          	fadd.d	ft0,ft2,fs11
    80003ca2:	28013087          	fld	ft1,640(sp)
    80003ca6:	23013107          	fld	ft2,560(sp)
    80003caa:	1220f253          	fmul.d	ft4,ft1,ft2
    80003cae:	21013087          	fld	ft1,528(sp)
    80003cb2:	317e                	fld	ft2,504(sp)
    80003cb4:	1220f3d3          	fmul.d	ft7,ft1,ft2
    80003cb8:	309e                	fld	ft1,480(sp)
    80003cba:	213e                	fld	ft2,456(sp)
    80003cbc:	1220f653          	fmul.d	fa2,ft1,ft2
    80003cc0:	28313c27          	fsd	ft3,664(sp)
    80003cc4:	02307053          	fadd.d	ft0,ft0,ft3
    80003cc8:	24513827          	fsd	ft5,592(sp)
    80003ccc:	03b2f0d3          	fadd.d	ft1,ft5,fs11
    80003cd0:	25813107          	fld	ft2,600(sp)
    80003cd4:	22813187          	fld	ft3,552(sp)
    80003cd8:	123172d3          	fmul.d	ft5,ft2,ft3
    80003cdc:	21813107          	fld	ft2,536(sp)
    80003ce0:	31de                	fld	ft3,496(sp)
    80003ce2:	123175d3          	fmul.d	fa1,ft2,ft3
    80003ce6:	217e                	fld	ft2,472(sp)
    80003ce8:	219e                	fld	ft3,448(sp)
    80003cea:	123176d3          	fmul.d	fa3,ft2,ft3
    80003cee:	28413027          	fsd	ft4,640(sp)
    80003cf2:	02407053          	fadd.d	ft0,ft0,ft4
    80003cf6:	22713c27          	fsd	ft7,568(sp)
    80003cfa:	0270f0d3          	fadd.d	ft1,ft1,ft7
    80003cfe:	22c13027          	fsd	fa2,544(sp)
    80003d02:	03b67153          	fadd.d	ft2,fa2,fs11
    80003d06:	20813187          	fld	ft3,520(sp)
    80003d0a:	323e                	fld	ft4,488(sp)
    80003d0c:	1241f3d3          	fmul.d	ft7,ft3,ft4
    80003d10:	21de                	fld	ft3,464(sp)
    80003d12:	327a                	fld	ft4,440(sp)
    80003d14:	1241f653          	fmul.d	fa2,ft3,ft4
    80003d18:	24513c27          	fsd	ft5,600(sp)
    80003d1c:	02507053          	fadd.d	ft0,ft0,ft5
    80003d20:	22b13827          	fsd	fa1,560(sp)
    80003d24:	02b0f0d3          	fadd.d	ft1,ft1,fa1
    80003d28:	20d13c27          	fsd	fa3,536(sp)
    80003d2c:	02d17153          	fadd.d	ft2,ft2,fa3
    80003d30:	21fa                	fld	ft3,408(sp)
    80003d32:	223a                	fld	ft4,392(sp)
    80003d34:	1241f2d3          	fmul.d	ft5,ft3,ft4
    80003d38:	2a813187          	fld	ft3,680(sp)
    80003d3c:	225a                	fld	ft4,400(sp)
    80003d3e:	1241f5d3          	fmul.d	fa1,ft3,ft4
    80003d42:	03b07053          	fadd.d	ft0,ft0,fs11
    80003d46:	22713427          	fsd	ft7,552(sp)
    80003d4a:	0270f0d3          	fadd.d	ft1,ft1,ft7
    80003d4e:	20c13827          	fsd	fa2,528(sp)
    80003d52:	02c17153          	fadd.d	ft2,ft2,fa2
    80003d56:	31ba                	fld	ft3,424(sp)
    80003d58:	221a                	fld	ft4,384(sp)
    80003d5a:	1241f3d3          	fmul.d	ft7,ft3,ft4
    80003d5e:	bb96                	fsd	ft5,496(sp)
    80003d60:	03b2f1d3          	fadd.d	ft3,ft5,fs11
    80003d64:	2276                	fld	ft4,344(sp)
    80003d66:	22b6                	fld	ft5,328(sp)
    80003d68:	125274d3          	fmul.d	fs1,ft4,ft5
    80003d6c:	02107053          	fadd.d	ft0,ft0,ft1
    80003d70:	20b13427          	fsd	fa1,520(sp)
    80003d74:	02b170d3          	fadd.d	ft1,ft2,fa1
    80003d78:	311a                	fld	ft2,416(sp)
    80003d7a:	3276                	fld	ft4,376(sp)
    80003d7c:	124172d3          	fmul.d	ft5,ft2,ft4
    80003d80:	b79e                	fsd	ft7,488(sp)
    80003d82:	0271f153          	fadd.d	ft2,ft3,ft7
    80003d86:	3196                	fld	ft3,352(sp)
    80003d88:	2216                	fld	ft4,320(sp)
    80003d8a:	1241f5d3          	fmul.d	fa1,ft3,ft4
    80003d8e:	03b4f1d3          	fadd.d	ft3,fs1,fs11
    80003d92:	13897bd3          	fmul.d	fs7,fs2,fs8
    80003d96:	02107053          	fadd.d	ft0,ft0,ft1
    80003d9a:	30da                	fld	ft1,432(sp)
    80003d9c:	2256                	fld	ft4,336(sp)
    80003d9e:	1240f3d3          	fmul.d	ft7,ft1,ft4
    80003da2:	20513027          	fsd	ft5,512(sp)
    80003da6:	025170d3          	fadd.d	ft1,ft2,ft5
    80003daa:	3156                	fld	ft2,368(sp)
    80003dac:	3272                	fld	ft4,312(sp)
    80003dae:	12417653          	fmul.d	fa2,ft2,ft4
    80003db2:	afae                	fsd	fa1,472(sp)
    80003db4:	02b1f153          	fadd.d	ft2,ft3,fa1
    80003db8:	139b7953          	fmul.d	fs2,fs6,fs9
    80003dbc:	03bbf1d3          	fadd.d	ft3,fs7,fs11
    80003dc0:	3236                	fld	ft4,360(sp)
    80003dc2:	32d2                	fld	ft5,304(sp)
    80003dc4:	125272d3          	fmul.d	ft5,ft4,ft5
    80003dc8:	bf9e                	fsd	ft7,504(sp)
    80003dca:	0270f0d3          	fadd.d	ft1,ft1,ft7
    80003dce:	13aa7d53          	fmul.d	fs10,fs4,fs10
    80003dd2:	2a613427          	fsd	ft6,680(sp)
    80003dd6:	0a837253          	fsub.d	ft4,ft6,fs0
    80003dda:	abb2                	fsd	fa2,464(sp)
    80003ddc:	02c17153          	fadd.d	ft2,ft2,fa2
    80003de0:	0321f1d3          	fadd.d	ft3,ft3,fs2
    80003de4:	02107053          	fadd.d	ft0,ft0,ft1
    80003de8:	30b2                	fld	ft1,296(sp)
    80003dea:	12a0fc53          	fmul.d	fs8,ft1,fa0
    80003dee:	224210d3          	fneg.d	ft1,ft4
    80003df2:	b396                	fsd	ft5,480(sp)
    80003df4:	02517153          	fadd.d	ft2,ft2,ft5
    80003df8:	03a1f1d3          	fadd.d	ft3,ft3,fs10
    80003dfc:	121270d3          	fmul.d	ft1,ft4,ft1
    80003e00:	02207053          	fadd.d	ft0,ft0,ft2
    80003e04:	0381f153          	fadd.d	ft2,ft3,fs8
    80003e08:	1350f553          	fmul.d	fa0,ft1,fs5
    80003e0c:	02207a53          	fadd.d	fs4,ft0,ft2
    80003e10:	688100ef          	jal	80014498 <exp>
    80003e14:	0a8df053          	fsub.d	ft0,fs11,fs0
    80003e18:	220010d3          	fneg.d	ft1,ft0
    80003e1c:	12107053          	fmul.d	ft0,ft0,ft1
    80003e20:	12a9f9d3          	fmul.d	fs3,fs3,fa0
    80003e24:	13507453          	fmul.d	fs0,ft0,fs5
    80003e28:	03b9fcd3          	fadd.d	fs9,fs3,fs11
    80003e2c:	22840553          	fmv.d	fa0,fs0
    80003e30:	668100ef          	jal	80014498 <exp>
    80003e34:	13b57ad3          	fmul.d	fs5,fa0,fs11
    80003e38:	035cfb53          	fadd.d	fs6,fs9,fs5
    80003e3c:	22840553          	fmv.d	fa0,fs0
    80003e40:	658100ef          	jal	80014498 <exp>
    80003e44:	13b57cd3          	fmul.d	fs9,fa0,fs11
    80003e48:	039b7b53          	fadd.d	fs6,fs6,fs9
    80003e4c:	22840553          	fmv.d	fa0,fs0
    80003e50:	648100ef          	jal	80014498 <exp>
    80003e54:	13b570d3          	fmul.d	ft1,fa0,fs11
    80003e58:	021b7053          	fadd.d	ft0,fs6,ft1
    80003e5c:	020a7053          	fadd.d	ft0,fs4,ft0
    80003e60:	37813107          	fld	ft2,888(sp)
    80003e64:	a2011553          	flt.d	a0,ft2,ft0
    80003e68:	10050863          	beqz	a0,80003f78 <bilateral_core+0x1c20>
    80003e6c:	3112                	fld	ft2,288(sp)
    80003e6e:	27813187          	fld	ft3,632(sp)
    80003e72:	da317143          	fmadd.d	ft2,ft2,ft3,fs11
    80003e76:	2192                	fld	ft3,256(sp)
    80003e78:	25013207          	fld	ft4,592(sp)
    80003e7c:	da41f1c3          	fmadd.d	ft3,ft3,ft4,fs11
    80003e80:	2252                	fld	ft4,272(sp)
    80003e82:	29813287          	fld	ft5,664(sp)
    80003e86:	12527143          	fmadd.d	ft2,ft4,ft5,ft2
    80003e8a:	320e                	fld	ft4,224(sp)
    80003e8c:	22013287          	fld	ft5,544(sp)
    80003e90:	da527243          	fmadd.d	ft4,ft4,ft5,fs11
    80003e94:	32ee                	fld	ft5,248(sp)
    80003e96:	23813307          	fld	ft6,568(sp)
    80003e9a:	1a62f1c3          	fmadd.d	ft3,ft5,ft6,ft3
    80003e9e:	22f2                	fld	ft5,280(sp)
    80003ea0:	28013307          	fld	ft6,640(sp)
    80003ea4:	1262f143          	fmadd.d	ft2,ft5,ft6,ft2
    80003ea8:	22ee                	fld	ft5,216(sp)
    80003eaa:	21813307          	fld	ft6,536(sp)
    80003eae:	2262f243          	fmadd.d	ft4,ft5,ft6,ft4
    80003eb2:	32ea                	fld	ft5,184(sp)
    80003eb4:	335e                	fld	ft6,496(sp)
    80003eb6:	da62f2c3          	fmadd.d	ft5,ft5,ft6,fs11
    80003eba:	334e                	fld	ft6,240(sp)
    80003ebc:	23013387          	fld	ft7,560(sp)
    80003ec0:	1a7371c3          	fmadd.d	ft3,ft6,ft7,ft3
    80003ec4:	2332                	fld	ft6,264(sp)
    80003ec6:	25813387          	fld	ft7,600(sp)
    80003eca:	12737143          	fmadd.d	ft2,ft6,ft7,ft2
    80003ece:	234e                	fld	ft6,208(sp)
    80003ed0:	21013387          	fld	ft7,528(sp)
    80003ed4:	22737243          	fmadd.d	ft4,ft6,ft7,ft4
    80003ed8:	232a                	fld	ft6,136(sp)
    80003eda:	da937343          	fmadd.d	ft6,ft6,fs1,fs11
    80003ede:	33ca                	fld	ft7,176(sp)
    80003ee0:	353e                	fld	fa0,488(sp)
    80003ee2:	2aa3f2c3          	fmadd.d	ft5,ft7,fa0,ft5
    80003ee6:	33ae                	fld	ft7,232(sp)
    80003ee8:	22813507          	fld	fa0,552(sp)
    80003eec:	1aa3f1c3          	fmadd.d	ft3,ft7,fa0,ft3
    80003ef0:	03b17153          	fadd.d	ft2,ft2,fs11
    80003ef4:	23ae                	fld	ft7,200(sp)
    80003ef6:	20813507          	fld	fa0,520(sp)
    80003efa:	22a3f243          	fmadd.d	ft4,ft7,fa0,ft4
    80003efe:	33e6                	fld	ft7,120(sp)
    80003f00:	db73f3c3          	fmadd.d	ft7,ft7,fs7,fs11
    80003f04:	254a                	fld	fa0,144(sp)
    80003f06:	25fe                	fld	fa1,472(sp)
    80003f08:	32b57343          	fmadd.d	ft6,fa0,fa1,ft6
    80003f0c:	352a                	fld	fa0,168(sp)
    80003f0e:	20013587          	fld	fa1,512(sp)
    80003f12:	2ab572c3          	fmadd.d	ft5,fa0,fa1,ft5
    80003f16:	02317153          	fadd.d	ft2,ft2,ft3
    80003f1a:	f20001d3          	fmv.d.x	ft3,zero
    80003f1e:	2a813507          	fld	fa0,680(sp)
    80003f22:	1b357543          	fmadd.d	fa0,fa0,fs3,ft3
    80003f26:	35c6                	fld	fa1,112(sp)
    80003f28:	3b25f3c3          	fmadd.d	ft7,fa1,fs2,ft7
    80003f2c:	358a                	fld	fa1,160(sp)
    80003f2e:	265e                	fld	fa2,464(sp)
    80003f30:	32c5f343          	fmadd.d	ft6,fa1,fa2,ft6
    80003f34:	258e                	fld	fa1,192(sp)
    80003f36:	367e                	fld	fa2,504(sp)
    80003f38:	2ac5f2c3          	fmadd.d	ft5,fa1,fa2,ft5
    80003f3c:	02417153          	fadd.d	ft2,ft2,ft4
    80003f40:	523af243          	fmadd.d	ft4,fs5,ft3,fa0
    80003f44:	250a                	fld	fa0,128(sp)
    80003f46:	3ba573c3          	fmadd.d	ft7,fa0,fs10,ft7
    80003f4a:	256a                	fld	fa0,152(sp)
    80003f4c:	359e                	fld	fa1,480(sp)
    80003f4e:	32b57343          	fmadd.d	ft6,fa0,fa1,ft6
    80003f52:	02517153          	fadd.d	ft2,ft2,ft5
    80003f56:	223cf243          	fmadd.d	ft4,fs9,ft3,ft4
    80003f5a:	32a6                	fld	ft5,104(sp)
    80003f5c:	3b82f2c3          	fmadd.d	ft5,ft5,fs8,ft7
    80003f60:	02617153          	fadd.d	ft2,ft2,ft6
    80003f64:	2230f0c3          	fmadd.d	ft1,ft1,ft3,ft4
    80003f68:	02517153          	fadd.d	ft2,ft2,ft5
    80003f6c:	021170d3          	fadd.d	ft1,ft2,ft1
    80003f70:	1a00f053          	fdiv.d	ft0,ft1,ft0
    80003f74:	e2000b53          	fmv.x.d	s6,ft0
    80003f78:	38813503          	ld	a0,904(sp)
    80003f7c:	2d013583          	ld	a1,720(sp)
    80003f80:	952e                	add	a0,a0,a1
    80003f82:	01653023          	sd	s6,0(a0)
    80003f86:	f2000dd3          	fmv.d.x	fs11,zero
    80003f8a:	000c3a83          	ld	s5,0(s8)
    80003f8e:	23bd8153          	fmv.d	ft2,fs11
    80003f92:	23bd84d3          	fmv.d	fs1,fs11
    80003f96:	23bd80d3          	fmv.d	ft1,fs11
    80003f9a:	23bd8053          	fmv.d	ft0,fs11
    80003f9e:	23bd8953          	fmv.d	fs2,fs11
    80003fa2:	23bd81d3          	fmv.d	ft3,fs11
    80003fa6:	23bd89d3          	fmv.d	fs3,fs11
    80003faa:	23bd8253          	fmv.d	ft4,fs11
    80003fae:	e03d                	bnez	s0,80004014 <bilateral_core+0x1cbc>
    80003fb0:	33813683          	ld	a3,824(sp)
    80003fb4:	31013503          	ld	a0,784(sp)
    80003fb8:	9536                	add	a0,a0,a3
    80003fba:	2f013583          	ld	a1,752(sp)
    80003fbe:	8d6d                	and	a0,a0,a1
    80003fc0:	050e                	slli	a0,a0,0x3
    80003fc2:	954e                	add	a0,a0,s3
    80003fc4:	00053007          	fld	ft0,0(a0)
    80003fc8:	000d3087          	fld	ft1,0(s10)
    80003fcc:	32013503          	ld	a0,800(sp)
    80003fd0:	9536                	add	a0,a0,a3
    80003fd2:	37013603          	ld	a2,880(sp)
    80003fd6:	0f260593          	addi	a1,a2,242
    80003fda:	8d6d                	and	a0,a0,a1
    80003fdc:	050e                	slli	a0,a0,0x3
    80003fde:	954e                	add	a0,a0,s3
    80003fe0:	00053907          	fld	fs2,0(a0)
    80003fe4:	008d3187          	fld	ft3,8(s10)
    80003fe8:	30813503          	ld	a0,776(sp)
    80003fec:	31813583          	ld	a1,792(sp)
    80003ff0:	952e                	add	a0,a0,a1
    80003ff2:	050e                	slli	a0,a0,0x3
    80003ff4:	954e                	add	a0,a0,s3
    80003ff6:	2104                	fld	fs1,0(a0)
    80003ff8:	010d3107          	fld	ft2,16(s10)
    80003ffc:	30013503          	ld	a0,768(sp)
    80004000:	9536                	add	a0,a0,a3
    80004002:	0f460593          	addi	a1,a2,244
    80004006:	8d6d                	and	a0,a0,a1
    80004008:	050e                	slli	a0,a0,0x3
    8000400a:	954e                	add	a0,a0,s3
    8000400c:	00053987          	fld	fs3,0(a0)
    80004010:	018d3207          	fld	ft4,24(s10)
    80004014:	22413c27          	fsd	ft4,568(sp)
    80004018:	24313827          	fsd	ft3,592(sp)
    8000401c:	24213c27          	fsd	ft2,600(sp)
    80004020:	26113c27          	fsd	ft1,632(sp)
    80004024:	f20a8453          	fmv.d.x	fs0,s5
    80004028:	b202                	fsd	ft0,288(sp)
    8000402a:	0a807053          	fsub.d	ft0,ft0,fs0
    8000402e:	220010d3          	fneg.d	ft1,ft0
    80004032:	12107053          	fmul.d	ft0,ft0,ft1
    80004036:	38013a87          	fld	fs5,896(sp)
    8000403a:	13507553          	fmul.d	fa0,ft0,fs5
    8000403e:	45a100ef          	jal	80014498 <exp>
    80004042:	aa4a                	fsd	fs2,272(sp)
    80004044:	0a897053          	fsub.d	ft0,fs2,fs0
    80004048:	220010d3          	fneg.d	ft1,ft0
    8000404c:	12107053          	fmul.d	ft0,ft0,ft1
    80004050:	13507053          	fmul.d	ft0,ft0,fs5
    80004054:	22a13827          	fsd	fa0,560(sp)
    80004058:	22000553          	fmv.d	fa0,ft0
    8000405c:	43c100ef          	jal	80014498 <exp>
    80004060:	ae26                	fsd	fs1,280(sp)
    80004062:	0a84f053          	fsub.d	ft0,fs1,fs0
    80004066:	220010d3          	fneg.d	ft1,ft0
    8000406a:	12107053          	fmul.d	ft0,ft0,ft1
    8000406e:	13507053          	fmul.d	ft0,ft0,fs5
    80004072:	22a13427          	fsd	fa0,552(sp)
    80004076:	22000553          	fmv.d	fa0,ft0
    8000407a:	41e100ef          	jal	80014498 <exp>
    8000407e:	0a89f053          	fsub.d	ft0,fs3,fs0
    80004082:	220010d3          	fneg.d	ft1,ft0
    80004086:	12107053          	fmul.d	ft0,ft0,ft1
    8000408a:	13507053          	fmul.d	ft0,ft0,fs5
    8000408e:	22a13027          	fsd	fa0,544(sp)
    80004092:	22000553          	fmv.d	fa0,ft0
    80004096:	402100ef          	jal	80014498 <exp>
    8000409a:	20a13c27          	fsd	fa0,536(sp)
    8000409e:	23bd8053          	fmv.d	ft0,fs11
    800040a2:	23bd80d3          	fmv.d	ft1,fs11
    800040a6:	e00d                	bnez	s0,800040c8 <bilateral_core+0x1d70>
    800040a8:	00596513          	ori	a0,s2,5
    800040ac:	33813583          	ld	a1,824(sp)
    800040b0:	952e                	add	a0,a0,a1
    800040b2:	37013583          	ld	a1,880(sp)
    800040b6:	0f558593          	addi	a1,a1,245
    800040ba:	8d6d                	and	a0,a0,a1
    800040bc:	050e                	slli	a0,a0,0x3
    800040be:	954e                	add	a0,a0,s3
    800040c0:	00053007          	fld	ft0,0(a0)
    800040c4:	020d3087          	fld	ft1,32(s10)
    800040c8:	20113827          	fsd	ft1,528(sp)
    800040cc:	23bd80d3          	fmv.d	ft1,fs11
    800040d0:	23bd84d3          	fmv.d	fs1,fs11
    800040d4:	23bd8953          	fmv.d	fs2,fs11
    800040d8:	23bd8153          	fmv.d	ft2,fs11
    800040dc:	23bd8bd3          	fmv.d	fs7,fs11
    800040e0:	23bd81d3          	fmv.d	ft3,fs11
    800040e4:	040b9863          	bnez	s7,80004134 <bilateral_core+0x1ddc>
    800040e8:	35013583          	ld	a1,848(sp)
    800040ec:	31013503          	ld	a0,784(sp)
    800040f0:	952e                	add	a0,a0,a1
    800040f2:	2f013603          	ld	a2,752(sp)
    800040f6:	8d71                	and	a0,a0,a2
    800040f8:	050e                	slli	a0,a0,0x3
    800040fa:	954e                	add	a0,a0,s3
    800040fc:	00053907          	fld	fs2,0(a0)
    80004100:	028d3107          	fld	ft2,40(s10)
    80004104:	32013503          	ld	a0,800(sp)
    80004108:	952e                	add	a0,a0,a1
    8000410a:	37013583          	ld	a1,880(sp)
    8000410e:	0f258593          	addi	a1,a1,242
    80004112:	8d6d                	and	a0,a0,a1
    80004114:	050e                	slli	a0,a0,0x3
    80004116:	954e                	add	a0,a0,s3
    80004118:	2104                	fld	fs1,0(a0)
    8000411a:	030d3087          	fld	ft1,48(s10)
    8000411e:	33013503          	ld	a0,816(sp)
    80004122:	31813583          	ld	a1,792(sp)
    80004126:	952e                	add	a0,a0,a1
    80004128:	050e                	slli	a0,a0,0x3
    8000412a:	954e                	add	a0,a0,s3
    8000412c:	00053b87          	fld	fs7,0(a0)
    80004130:	038d3187          	fld	ft3,56(s10)
    80004134:	bf8e                	fsd	ft3,504(sp)
    80004136:	20213027          	fsd	ft2,512(sp)
    8000413a:	20113427          	fsd	ft1,520(sp)
    8000413e:	a202                	fsd	ft0,256(sp)
    80004140:	0a807053          	fsub.d	ft0,ft0,fs0
    80004144:	220010d3          	fneg.d	ft1,ft0
    80004148:	12107053          	fmul.d	ft0,ft0,ft1
    8000414c:	13507553          	fmul.d	fa0,ft0,fs5
    80004150:	348100ef          	jal	80014498 <exp>
    80004154:	0a897053          	fsub.d	ft0,fs2,fs0
    80004158:	220010d3          	fneg.d	ft1,ft0
    8000415c:	12107053          	fmul.d	ft0,ft0,ft1
    80004160:	13507053          	fmul.d	ft0,ft0,fs5
    80004164:	bbaa                	fsd	fa0,496(sp)
    80004166:	22000553          	fmv.d	fa0,ft0
    8000416a:	32e100ef          	jal	80014498 <exp>
    8000416e:	0a84f053          	fsub.d	ft0,fs1,fs0
    80004172:	220010d3          	fneg.d	ft1,ft0
    80004176:	12107053          	fmul.d	ft0,ft0,ft1
    8000417a:	13507053          	fmul.d	ft0,ft0,fs5
    8000417e:	b7aa                	fsd	fa0,488(sp)
    80004180:	22000553          	fmv.d	fa0,ft0
    80004184:	314100ef          	jal	80014498 <exp>
    80004188:	0a8bf053          	fsub.d	ft0,fs7,fs0
    8000418c:	220010d3          	fneg.d	ft1,ft0
    80004190:	12107053          	fmul.d	ft0,ft0,ft1
    80004194:	13507053          	fmul.d	ft0,ft0,fs5
    80004198:	b3aa                	fsd	fa0,480(sp)
    8000419a:	22000553          	fmv.d	fa0,ft0
    8000419e:	2fa100ef          	jal	80014498 <exp>
    800041a2:	afaa                	fsd	fa0,472(sp)
    800041a4:	23bd80d3          	fmv.d	ft1,fs11
    800041a8:	23bd8053          	fmv.d	ft0,fs11
    800041ac:	23bd8c53          	fmv.d	fs8,fs11
    800041b0:	23bd8153          	fmv.d	ft2,fs11
    800041b4:	020b9e63          	bnez	s7,800041f0 <bilateral_core+0x1e98>
    800041b8:	35013683          	ld	a3,848(sp)
    800041bc:	30013503          	ld	a0,768(sp)
    800041c0:	9536                	add	a0,a0,a3
    800041c2:	37013603          	ld	a2,880(sp)
    800041c6:	0f460593          	addi	a1,a2,244
    800041ca:	8d6d                	and	a0,a0,a1
    800041cc:	050e                	slli	a0,a0,0x3
    800041ce:	954e                	add	a0,a0,s3
    800041d0:	00053007          	fld	ft0,0(a0)
    800041d4:	040d3087          	fld	ft1,64(s10)
    800041d8:	00596513          	ori	a0,s2,5
    800041dc:	9536                	add	a0,a0,a3
    800041de:	0f560593          	addi	a1,a2,245
    800041e2:	8d6d                	and	a0,a0,a1
    800041e4:	050e                	slli	a0,a0,0x3
    800041e6:	954e                	add	a0,a0,s3
    800041e8:	00053c07          	fld	fs8,0(a0)
    800041ec:	048d3107          	fld	ft2,72(s10)
    800041f0:	bdca                	fsd	fs2,248(sp)
    800041f2:	a78a                	fsd	ft2,456(sp)
    800041f4:	ab86                	fsd	ft1,464(sp)
    800041f6:	a64e                	fsd	fs3,264(sp)
    800041f8:	b182                	fsd	ft0,224(sp)
    800041fa:	0a807053          	fsub.d	ft0,ft0,fs0
    800041fe:	220010d3          	fneg.d	ft1,ft0
    80004202:	12107053          	fmul.d	ft0,ft0,ft1
    80004206:	000a3987          	fld	fs3,0(s4)
    8000420a:	050d3087          	fld	ft1,80(s10)
    8000420e:	a386                	fsd	ft1,448(sp)
    80004210:	37013503          	ld	a0,880(sp)
    80004214:	0f250513          	addi	a0,a0,242
    80004218:	13507553          	fmul.d	fa0,ft0,fs5
    8000421c:	2ca13823          	sd	a0,720(sp)
    80004220:	2c013583          	ld	a1,704(sp)
    80004224:	8d6d                	and	a0,a0,a1
    80004226:	050e                	slli	a0,a0,0x3
    80004228:	00a98a33          	add	s4,s3,a0
    8000422c:	000a3c87          	fld	fs9,0(s4)
    80004230:	058d3007          	fld	ft0,88(s10)
    80004234:	2c013027          	fsd	ft0,704(sp)
    80004238:	260100ef          	jal	80014498 <exp>
    8000423c:	ade2                	fsd	fs8,216(sp)
    8000423e:	0a8c7053          	fsub.d	ft0,fs8,fs0
    80004242:	220010d3          	fneg.d	ft1,ft0
    80004246:	12107053          	fmul.d	ft0,ft0,ft1
    8000424a:	13507053          	fmul.d	ft0,ft0,fs5
    8000424e:	bf2a                	fsd	fa0,440(sp)
    80004250:	22000553          	fmv.d	fa0,ft0
    80004254:	244100ef          	jal	80014498 <exp>
    80004258:	a9ce                	fsd	fs3,208(sp)
    8000425a:	0a89f053          	fsub.d	ft0,fs3,fs0
    8000425e:	220010d3          	fneg.d	ft1,ft0
    80004262:	12107053          	fmul.d	ft0,ft0,ft1
    80004266:	13507053          	fmul.d	ft0,ft0,fs5
    8000426a:	bb2a                	fsd	fa0,432(sp)
    8000426c:	22000553          	fmv.d	fa0,ft0
    80004270:	228100ef          	jal	80014498 <exp>
    80004274:	a5e6                	fsd	fs9,200(sp)
    80004276:	0a8cf053          	fsub.d	ft0,fs9,fs0
    8000427a:	220010d3          	fneg.d	ft1,ft0
    8000427e:	12107053          	fmul.d	ft0,ft0,ft1
    80004282:	13507053          	fmul.d	ft0,ft0,fs5
    80004286:	b72a                	fsd	fa0,424(sp)
    80004288:	22000553          	fmv.d	fa0,ft0
    8000428c:	20c100ef          	jal	80014498 <exp>
    80004290:	000c3007          	fld	ft0,0(s8)
    80004294:	bd02                	fsd	ft0,184(sp)
    80004296:	0a807053          	fsub.d	ft0,ft0,fs0
    8000429a:	220010d3          	fneg.d	ft1,ft0
    8000429e:	12107053          	fmul.d	ft0,ft0,ft1
    800042a2:	060d3087          	fld	ft1,96(s10)
    800042a6:	ab06                	fsd	ft1,400(sp)
    800042a8:	000cbc07          	fld	fs8,0(s9)
    800042ac:	068d3087          	fld	ft1,104(s10)
    800042b0:	b306                	fsd	ft1,416(sp)
    800042b2:	00596c13          	ori	s8,s2,5
    800042b6:	018d8533          	add	a0,s11,s8
    800042ba:	28a13c23          	sd	a0,664(sp)
    800042be:	050e                	slli	a0,a0,0x3
    800042c0:	13507053          	fmul.d	ft0,ft0,fs5
    800042c4:	28a13023          	sd	a0,640(sp)
    800042c8:	00a98433          	add	s0,s3,a0
    800042cc:	00043c87          	fld	fs9,0(s0)
    800042d0:	070d3087          	fld	ft1,112(s10)
    800042d4:	af06                	fsd	ft1,408(sp)
    800042d6:	2c813503          	ld	a0,712(sp)
    800042da:	00053987          	fld	fs3,0(a0)
    800042de:	078d3087          	fld	ft1,120(s10)
    800042e2:	2c113427          	fsd	ft1,712(sp)
    800042e6:	a72a                	fsd	fa0,392(sp)
    800042e8:	22000553          	fmv.d	fa0,ft0
    800042ec:	1ac100ef          	jal	80014498 <exp>
    800042f0:	b962                	fsd	fs8,176(sp)
    800042f2:	0a8c7053          	fsub.d	ft0,fs8,fs0
    800042f6:	220010d3          	fneg.d	ft1,ft0
    800042fa:	12107053          	fmul.d	ft0,ft0,ft1
    800042fe:	13507053          	fmul.d	ft0,ft0,fs5
    80004302:	a32a                	fsd	fa0,384(sp)
    80004304:	22000553          	fmv.d	fa0,ft0
    80004308:	190100ef          	jal	80014498 <exp>
    8000430c:	b566                	fsd	fs9,168(sp)
    8000430e:	0a8cf053          	fsub.d	ft0,fs9,fs0
    80004312:	220010d3          	fneg.d	ft1,ft0
    80004316:	12107053          	fmul.d	ft0,ft0,ft1
    8000431a:	13507053          	fmul.d	ft0,ft0,fs5
    8000431e:	beaa                	fsd	fa0,376(sp)
    80004320:	22000553          	fmv.d	fa0,ft0
    80004324:	174100ef          	jal	80014498 <exp>
    80004328:	a1ce                	fsd	fs3,192(sp)
    8000432a:	0a89f053          	fsub.d	ft0,fs3,fs0
    8000432e:	220010d3          	fneg.d	ft1,ft0
    80004332:	12107053          	fmul.d	ft0,ft0,ft1
    80004336:	13507053          	fmul.d	ft0,ft0,fs5
    8000433a:	baaa                	fsd	fa0,368(sp)
    8000433c:	22000553          	fmv.d	fa0,ft0
    80004340:	158100ef          	jal	80014498 <exp>
    80004344:	2f813503          	ld	a0,760(sp)
    80004348:	00053007          	fld	ft0,0(a0)
    8000434c:	a502                	fsd	ft0,136(sp)
    8000434e:	0a807053          	fsub.d	ft0,ft0,fs0
    80004352:	220010d3          	fneg.d	ft1,ft0
    80004356:	12107053          	fmul.d	ft0,ft0,ft1
    8000435a:	080d3087          	fld	ft1,128(s10)
    8000435e:	aa86                	fsd	ft1,336(sp)
    80004360:	2d813503          	ld	a0,728(sp)
    80004364:	00053c87          	fld	fs9,0(a0)
    80004368:	088d3087          	fld	ft1,136(s10)
    8000436c:	ae86                	fsd	ft1,344(sp)
    8000436e:	2b013503          	ld	a0,688(sp)
    80004372:	00053987          	fld	fs3,0(a0)
    80004376:	090d3087          	fld	ft1,144(s10)
    8000437a:	b686                	fsd	ft1,360(sp)
    8000437c:	13507053          	fmul.d	ft0,ft0,fs5
    80004380:	36813503          	ld	a0,872(sp)
    80004384:	9562                	add	a0,a0,s8
    80004386:	050e                	slli	a0,a0,0x3
    80004388:	954e                	add	a0,a0,s3
    8000438a:	2aa13423          	sd	a0,680(sp)
    8000438e:	00053c07          	fld	fs8,0(a0)
    80004392:	098d3087          	fld	ft1,152(s10)
    80004396:	b286                	fsd	ft1,352(sp)
    80004398:	a6aa                	fsd	fa0,328(sp)
    8000439a:	22000553          	fmv.d	fa0,ft0
    8000439e:	0fa100ef          	jal	80014498 <exp>
    800043a2:	a966                	fsd	fs9,144(sp)
    800043a4:	0a8cf053          	fsub.d	ft0,fs9,fs0
    800043a8:	220010d3          	fneg.d	ft1,ft0
    800043ac:	12107053          	fmul.d	ft0,ft0,ft1
    800043b0:	13507053          	fmul.d	ft0,ft0,fs5
    800043b4:	a2aa                	fsd	fa0,320(sp)
    800043b6:	22000553          	fmv.d	fa0,ft0
    800043ba:	0de100ef          	jal	80014498 <exp>
    800043be:	b14e                	fsd	fs3,160(sp)
    800043c0:	0a89f053          	fsub.d	ft0,fs3,fs0
    800043c4:	220010d3          	fneg.d	ft1,ft0
    800043c8:	12107053          	fmul.d	ft0,ft0,ft1
    800043cc:	13507053          	fmul.d	ft0,ft0,fs5
    800043d0:	be2a                	fsd	fa0,312(sp)
    800043d2:	22000553          	fmv.d	fa0,ft0
    800043d6:	0c2100ef          	jal	80014498 <exp>
    800043da:	ad62                	fsd	fs8,152(sp)
    800043dc:	0a8c7053          	fsub.d	ft0,fs8,fs0
    800043e0:	220010d3          	fneg.d	ft1,ft0
    800043e4:	12107053          	fmul.d	ft0,ft0,ft1
    800043e8:	13507053          	fmul.d	ft0,ft0,fs5
    800043ec:	ba2a                	fsd	fa0,304(sp)
    800043ee:	22000553          	fmv.d	fa0,ft0
    800043f2:	0a6100ef          	jal	80014498 <exp>
    800043f6:	b62a                	fsd	fa0,296(sp)
    800043f8:	23bd8a53          	fmv.d	fs4,fs11
    800043fc:	23bd89d3          	fmv.d	fs3,fs11
    80004400:	23bd8953          	fmv.d	fs2,fs11
    80004404:	23bd8053          	fmv.d	ft0,fs11
    80004408:	23bd8c53          	fmv.d	fs8,fs11
    8000440c:	23bd8b53          	fmv.d	fs6,fs11
    80004410:	23bd8d53          	fmv.d	fs10,fs11
    80004414:	23bd8253          	fmv.d	ft4,fs11
    80004418:	0fd00513          	li	a0,253
    8000441c:	39013483          	ld	s1,912(sp)
    80004420:	04956863          	bltu	a0,s1,80004470 <bilateral_core+0x2118>
    80004424:	34813583          	ld	a1,840(sp)
    80004428:	31013503          	ld	a0,784(sp)
    8000442c:	952e                	add	a0,a0,a1
    8000442e:	050e                	slli	a0,a0,0x3
    80004430:	954e                	add	a0,a0,s3
    80004432:	00053007          	fld	ft0,0(a0)
    80004436:	0a0d3907          	fld	fs2,160(s10)
    8000443a:	32013503          	ld	a0,800(sp)
    8000443e:	952e                	add	a0,a0,a1
    80004440:	050e                	slli	a0,a0,0x3
    80004442:	954e                	add	a0,a0,s3
    80004444:	00053c07          	fld	fs8,0(a0)
    80004448:	0a8d3b07          	fld	fs6,168(s10)
    8000444c:	31813503          	ld	a0,792(sp)
    80004450:	952e                	add	a0,a0,a1
    80004452:	050e                	slli	a0,a0,0x3
    80004454:	954e                	add	a0,a0,s3
    80004456:	00053987          	fld	fs3,0(a0)
    8000445a:	0b0d3a07          	fld	fs4,176(s10)
    8000445e:	30013503          	ld	a0,768(sp)
    80004462:	952e                	add	a0,a0,a1
    80004464:	050e                	slli	a0,a0,0x3
    80004466:	954e                	add	a0,a0,s3
    80004468:	00053d07          	fld	fs10,0(a0)
    8000446c:	0b8d3207          	fld	ft4,184(s10)
    80004470:	30413827          	fsd	ft4,784(sp)
    80004474:	b5de                	fsd	fs7,232(sp)
    80004476:	b9a6                	fsd	fs1,240(sp)
    80004478:	bc82                	fsd	ft0,120(sp)
    8000447a:	0a807053          	fsub.d	ft0,ft0,fs0
    8000447e:	220010d3          	fneg.d	ft1,ft0
    80004482:	12107053          	fmul.d	ft0,ft0,ft1
    80004486:	13507553          	fmul.d	fa0,ft0,fs5
    8000448a:	00e100ef          	jal	80014498 <exp>
    8000448e:	b8e2                	fsd	fs8,112(sp)
    80004490:	0a8c7053          	fsub.d	ft0,fs8,fs0
    80004494:	220010d3          	fneg.d	ft1,ft0
    80004498:	12107053          	fmul.d	ft0,ft0,ft1
    8000449c:	13507053          	fmul.d	ft0,ft0,fs5
    800044a0:	22a50c53          	fmv.d	fs8,fa0
    800044a4:	22000553          	fmv.d	fa0,ft0
    800044a8:	7f10f0ef          	jal	80014498 <exp>
    800044ac:	a14e                	fsd	fs3,128(sp)
    800044ae:	0a89f053          	fsub.d	ft0,fs3,fs0
    800044b2:	220010d3          	fneg.d	ft1,ft0
    800044b6:	12107053          	fmul.d	ft0,ft0,ft1
    800044ba:	13507053          	fmul.d	ft0,ft0,fs5
    800044be:	22a50cd3          	fmv.d	fs9,fa0
    800044c2:	22000553          	fmv.d	fa0,ft0
    800044c6:	7d30f0ef          	jal	80014498 <exp>
    800044ca:	b4ea                	fsd	fs10,104(sp)
    800044cc:	0a8d7053          	fsub.d	ft0,fs10,fs0
    800044d0:	220010d3          	fneg.d	ft1,ft0
    800044d4:	12107053          	fmul.d	ft0,ft0,ft1
    800044d8:	13507053          	fmul.d	ft0,ft0,fs5
    800044dc:	22a50d53          	fmv.d	fs10,fa0
    800044e0:	22000553          	fmv.d	fa0,ft0
    800044e4:	7b50f0ef          	jal	80014498 <exp>
    800044e8:	23bd8353          	fmv.d	ft6,fs11
    800044ec:	23bd89d3          	fmv.d	fs3,fs11
    800044f0:	0fd00513          	li	a0,253
    800044f4:	00956c63          	bltu	a0,s1,8000450c <bilateral_core+0x21b4>
    800044f8:	32813503          	ld	a0,808(sp)
    800044fc:	20550513          	addi	a0,a0,517
    80004500:	050e                	slli	a0,a0,0x3
    80004502:	954e                	add	a0,a0,s3
    80004504:	00053307          	fld	ft6,0(a0)
    80004508:	0c0d3987          	fld	fs3,192(s10)
    8000450c:	27813007          	fld	ft0,632(sp)
    80004510:	23013087          	fld	ft1,560(sp)
    80004514:	12107153          	fmul.d	ft2,ft0,ft1
    80004518:	25013007          	fld	ft0,592(sp)
    8000451c:	22813087          	fld	ft1,552(sp)
    80004520:	121071d3          	fmul.d	ft3,ft0,ft1
    80004524:	21013007          	fld	ft0,528(sp)
    80004528:	30de                	fld	ft1,496(sp)
    8000452a:	121072d3          	fmul.d	ft5,ft0,ft1
    8000452e:	24213827          	fsd	ft2,592(sp)
    80004532:	03b17053          	fadd.d	ft0,ft2,fs11
    80004536:	25813087          	fld	ft1,600(sp)
    8000453a:	22013107          	fld	ft2,544(sp)
    8000453e:	1220f253          	fmul.d	ft4,ft1,ft2
    80004542:	20013087          	fld	ft1,512(sp)
    80004546:	313e                	fld	ft2,488(sp)
    80004548:	1220f3d3          	fmul.d	ft7,ft1,ft2
    8000454c:	20de                	fld	ft1,464(sp)
    8000454e:	317a                	fld	ft2,440(sp)
    80004550:	1220f653          	fmul.d	fa2,ft1,ft2
    80004554:	26313c27          	fsd	ft3,632(sp)
    80004558:	02307053          	fadd.d	ft0,ft0,ft3
    8000455c:	22513827          	fsd	ft5,560(sp)
    80004560:	03b2f0d3          	fadd.d	ft1,ft5,fs11
    80004564:	23813107          	fld	ft2,568(sp)
    80004568:	21813187          	fld	ft3,536(sp)
    8000456c:	123172d3          	fmul.d	ft5,ft2,ft3
    80004570:	20813107          	fld	ft2,520(sp)
    80004574:	319e                	fld	ft3,480(sp)
    80004576:	123175d3          	fmul.d	fa1,ft2,ft3
    8000457a:	213e                	fld	ft2,456(sp)
    8000457c:	31da                	fld	ft3,432(sp)
    8000457e:	123176d3          	fmul.d	fa3,ft2,ft3
    80004582:	24413c27          	fsd	ft4,600(sp)
    80004586:	02407053          	fadd.d	ft0,ft0,ft4
    8000458a:	22713427          	fsd	ft7,552(sp)
    8000458e:	0270f0d3          	fadd.d	ft1,ft1,ft7
    80004592:	20c13c27          	fsd	fa2,536(sp)
    80004596:	03b67153          	fadd.d	ft2,fa2,fs11
    8000459a:	31fe                	fld	ft3,504(sp)
    8000459c:	227e                	fld	ft4,472(sp)
    8000459e:	1241f3d3          	fmul.d	ft7,ft3,ft4
    800045a2:	219e                	fld	ft3,448(sp)
    800045a4:	323a                	fld	ft4,424(sp)
    800045a6:	1241f653          	fmul.d	fa2,ft3,ft4
    800045aa:	22513c27          	fsd	ft5,568(sp)
    800045ae:	02507053          	fadd.d	ft0,ft0,ft5
    800045b2:	22b13027          	fsd	fa1,544(sp)
    800045b6:	02b0f0d3          	fadd.d	ft1,ft1,fa1
    800045ba:	20d13827          	fsd	fa3,528(sp)
    800045be:	02d17153          	fadd.d	ft2,ft2,fa3
    800045c2:	21da                	fld	ft3,400(sp)
    800045c4:	221a                	fld	ft4,384(sp)
    800045c6:	1241f2d3          	fmul.d	ft5,ft3,ft4
    800045ca:	2c013187          	fld	ft3,704(sp)
    800045ce:	223a                	fld	ft4,392(sp)
    800045d0:	1241f5d3          	fmul.d	fa1,ft3,ft4
    800045d4:	03b07053          	fadd.d	ft0,ft0,fs11
    800045d8:	2c713027          	fsd	ft7,704(sp)
    800045dc:	0270f0d3          	fadd.d	ft1,ft1,ft7
    800045e0:	20c13427          	fsd	fa2,520(sp)
    800045e4:	02c17153          	fadd.d	ft2,ft2,fa2
    800045e8:	319a                	fld	ft3,416(sp)
    800045ea:	3276                	fld	ft4,376(sp)
    800045ec:	1241f3d3          	fmul.d	ft7,ft3,ft4
    800045f0:	b796                	fsd	ft5,488(sp)
    800045f2:	03b2f1d3          	fadd.d	ft3,ft5,fs11
    800045f6:	2256                	fld	ft4,336(sp)
    800045f8:	2296                	fld	ft5,320(sp)
    800045fa:	125274d3          	fmul.d	fs1,ft4,ft5
    800045fe:	02107053          	fadd.d	ft0,ft0,ft1
    80004602:	20b13027          	fsd	fa1,512(sp)
    80004606:	02b170d3          	fadd.d	ft1,ft2,fa1
    8000460a:	217a                	fld	ft2,408(sp)
    8000460c:	3256                	fld	ft4,368(sp)
    8000460e:	124172d3          	fmul.d	ft5,ft2,ft4
    80004612:	b39e                	fsd	ft7,480(sp)
    80004614:	0271f153          	fadd.d	ft2,ft3,ft7
    80004618:	21f6                	fld	ft3,344(sp)
    8000461a:	3272                	fld	ft4,312(sp)
    8000461c:	1241f5d3          	fmul.d	fa1,ft3,ft4
    80004620:	03b4f1d3          	fadd.d	ft3,fs1,fs11
    80004624:	13897bd3          	fmul.d	fs7,fs2,fs8
    80004628:	02107053          	fadd.d	ft0,ft0,ft1
    8000462c:	2c813087          	fld	ft1,712(sp)
    80004630:	2236                	fld	ft4,328(sp)
    80004632:	1240f3d3          	fmul.d	ft7,ft1,ft4
    80004636:	bf96                	fsd	ft5,504(sp)
    80004638:	025170d3          	fadd.d	ft1,ft2,ft5
    8000463c:	3136                	fld	ft2,360(sp)
    8000463e:	3252                	fld	ft4,304(sp)
    80004640:	12417653          	fmul.d	fa2,ft2,ft4
    80004644:	afae                	fsd	fa1,472(sp)
    80004646:	02b1f153          	fadd.d	ft2,ft3,fa1
    8000464a:	139b7953          	fmul.d	fs2,fs6,fs9
    8000464e:	03bbf1d3          	fadd.d	ft3,fs7,fs11
    80004652:	3216                	fld	ft4,352(sp)
    80004654:	32b2                	fld	ft5,296(sp)
    80004656:	125272d3          	fmul.d	ft5,ft4,ft5
    8000465a:	bb9e                	fsd	ft7,496(sp)
    8000465c:	0270f0d3          	fadd.d	ft1,ft1,ft7
    80004660:	13aa7d53          	fmul.d	fs10,fs4,fs10
    80004664:	2c613427          	fsd	ft6,712(sp)
    80004668:	0a837253          	fsub.d	ft4,ft6,fs0
    8000466c:	abb2                	fsd	fa2,464(sp)
    8000466e:	02c17153          	fadd.d	ft2,ft2,fa2
    80004672:	0321f1d3          	fadd.d	ft3,ft3,fs2
    80004676:	02107053          	fadd.d	ft0,ft0,ft1
    8000467a:	31013087          	fld	ft1,784(sp)
    8000467e:	12a0fc53          	fmul.d	fs8,ft1,fa0
    80004682:	224210d3          	fneg.d	ft1,ft4
    80004686:	30513827          	fsd	ft5,784(sp)
    8000468a:	02517153          	fadd.d	ft2,ft2,ft5
    8000468e:	03a1f1d3          	fadd.d	ft3,ft3,fs10
    80004692:	121270d3          	fmul.d	ft1,ft4,ft1
    80004696:	02207053          	fadd.d	ft0,ft0,ft2
    8000469a:	0381f153          	fadd.d	ft2,ft3,fs8
    8000469e:	1350f553          	fmul.d	fa0,ft1,fs5
    800046a2:	02207a53          	fadd.d	fs4,ft0,ft2
    800046a6:	5f30f0ef          	jal	80014498 <exp>
    800046aa:	0a8df053          	fsub.d	ft0,fs11,fs0
    800046ae:	220010d3          	fneg.d	ft1,ft0
    800046b2:	12107053          	fmul.d	ft0,ft0,ft1
    800046b6:	12a9f9d3          	fmul.d	fs3,fs3,fa0
    800046ba:	13507453          	fmul.d	fs0,ft0,fs5
    800046be:	03b9fcd3          	fadd.d	fs9,fs3,fs11
    800046c2:	22840553          	fmv.d	fa0,fs0
    800046c6:	5d30f0ef          	jal	80014498 <exp>
    800046ca:	13b57ad3          	fmul.d	fs5,fa0,fs11
    800046ce:	035cfb53          	fadd.d	fs6,fs9,fs5
    800046d2:	22840553          	fmv.d	fa0,fs0
    800046d6:	5c30f0ef          	jal	80014498 <exp>
    800046da:	13b57cd3          	fmul.d	fs9,fa0,fs11
    800046de:	039b7b53          	fadd.d	fs6,fs6,fs9
    800046e2:	22840553          	fmv.d	fa0,fs0
    800046e6:	5b30f0ef          	jal	80014498 <exp>
    800046ea:	13b570d3          	fmul.d	ft1,fa0,fs11
    800046ee:	021b7053          	fadd.d	ft0,fs6,ft1
    800046f2:	020a7053          	fadd.d	ft0,fs4,ft0
    800046f6:	37813107          	fld	ft2,888(sp)
    800046fa:	a2011553          	flt.d	a0,ft2,ft0
    800046fe:	37013b03          	ld	s6,880(sp)
    80004702:	10050863          	beqz	a0,80004812 <bilateral_core+0x24ba>
    80004706:	3112                	fld	ft2,288(sp)
    80004708:	25013187          	fld	ft3,592(sp)
    8000470c:	da317143          	fmadd.d	ft2,ft2,ft3,fs11
    80004710:	2192                	fld	ft3,256(sp)
    80004712:	23013207          	fld	ft4,560(sp)
    80004716:	da41f1c3          	fmadd.d	ft3,ft3,ft4,fs11
    8000471a:	2252                	fld	ft4,272(sp)
    8000471c:	27813287          	fld	ft5,632(sp)
    80004720:	12527143          	fmadd.d	ft2,ft4,ft5,ft2
    80004724:	320e                	fld	ft4,224(sp)
    80004726:	21813287          	fld	ft5,536(sp)
    8000472a:	da527243          	fmadd.d	ft4,ft4,ft5,fs11
    8000472e:	32ee                	fld	ft5,248(sp)
    80004730:	22813307          	fld	ft6,552(sp)
    80004734:	1a62f1c3          	fmadd.d	ft3,ft5,ft6,ft3
    80004738:	22f2                	fld	ft5,280(sp)
    8000473a:	25813307          	fld	ft6,600(sp)
    8000473e:	1262f143          	fmadd.d	ft2,ft5,ft6,ft2
    80004742:	22ee                	fld	ft5,216(sp)
    80004744:	21013307          	fld	ft6,528(sp)
    80004748:	2262f243          	fmadd.d	ft4,ft5,ft6,ft4
    8000474c:	32ea                	fld	ft5,184(sp)
    8000474e:	333e                	fld	ft6,488(sp)
    80004750:	da62f2c3          	fmadd.d	ft5,ft5,ft6,fs11
    80004754:	334e                	fld	ft6,240(sp)
    80004756:	22013387          	fld	ft7,544(sp)
    8000475a:	1a7371c3          	fmadd.d	ft3,ft6,ft7,ft3
    8000475e:	2332                	fld	ft6,264(sp)
    80004760:	23813387          	fld	ft7,568(sp)
    80004764:	12737143          	fmadd.d	ft2,ft6,ft7,ft2
    80004768:	234e                	fld	ft6,208(sp)
    8000476a:	20813387          	fld	ft7,520(sp)
    8000476e:	22737243          	fmadd.d	ft4,ft6,ft7,ft4
    80004772:	232a                	fld	ft6,136(sp)
    80004774:	da937343          	fmadd.d	ft6,ft6,fs1,fs11
    80004778:	33ca                	fld	ft7,176(sp)
    8000477a:	351e                	fld	fa0,480(sp)
    8000477c:	2aa3f2c3          	fmadd.d	ft5,ft7,fa0,ft5
    80004780:	33ae                	fld	ft7,232(sp)
    80004782:	2c013507          	fld	fa0,704(sp)
    80004786:	1aa3f1c3          	fmadd.d	ft3,ft7,fa0,ft3
    8000478a:	03b17153          	fadd.d	ft2,ft2,fs11
    8000478e:	23ae                	fld	ft7,200(sp)
    80004790:	20013507          	fld	fa0,512(sp)
    80004794:	22a3f243          	fmadd.d	ft4,ft7,fa0,ft4
    80004798:	33e6                	fld	ft7,120(sp)
    8000479a:	db73f3c3          	fmadd.d	ft7,ft7,fs7,fs11
    8000479e:	254a                	fld	fa0,144(sp)
    800047a0:	25fe                	fld	fa1,472(sp)
    800047a2:	32b57343          	fmadd.d	ft6,fa0,fa1,ft6
    800047a6:	352a                	fld	fa0,168(sp)
    800047a8:	35fe                	fld	fa1,504(sp)
    800047aa:	2ab572c3          	fmadd.d	ft5,fa0,fa1,ft5
    800047ae:	02317153          	fadd.d	ft2,ft2,ft3
    800047b2:	f20001d3          	fmv.d.x	ft3,zero
    800047b6:	2c813507          	fld	fa0,712(sp)
    800047ba:	1b357543          	fmadd.d	fa0,fa0,fs3,ft3
    800047be:	35c6                	fld	fa1,112(sp)
    800047c0:	3b25f3c3          	fmadd.d	ft7,fa1,fs2,ft7
    800047c4:	358a                	fld	fa1,160(sp)
    800047c6:	265e                	fld	fa2,464(sp)
    800047c8:	32c5f343          	fmadd.d	ft6,fa1,fa2,ft6
    800047cc:	258e                	fld	fa1,192(sp)
    800047ce:	365e                	fld	fa2,496(sp)
    800047d0:	2ac5f2c3          	fmadd.d	ft5,fa1,fa2,ft5
    800047d4:	02417153          	fadd.d	ft2,ft2,ft4
    800047d8:	523af243          	fmadd.d	ft4,fs5,ft3,fa0
    800047dc:	250a                	fld	fa0,128(sp)
    800047de:	3ba573c3          	fmadd.d	ft7,fa0,fs10,ft7
    800047e2:	256a                	fld	fa0,152(sp)
    800047e4:	31013587          	fld	fa1,784(sp)
    800047e8:	32b57343          	fmadd.d	ft6,fa0,fa1,ft6
    800047ec:	02517153          	fadd.d	ft2,ft2,ft5
    800047f0:	223cf243          	fmadd.d	ft4,fs9,ft3,ft4
    800047f4:	32a6                	fld	ft5,104(sp)
    800047f6:	3b82f2c3          	fmadd.d	ft5,ft5,fs8,ft7
    800047fa:	02617153          	fadd.d	ft2,ft2,ft6
    800047fe:	2230f0c3          	fmadd.d	ft1,ft1,ft3,ft4
    80004802:	02517153          	fadd.d	ft2,ft2,ft5
    80004806:	021170d3          	fadd.d	ft1,ft2,ft1
    8000480a:	1a00f053          	fdiv.d	ft0,ft1,ft0
    8000480e:	e2000ad3          	fmv.x.d	s5,ft0
    80004812:	38813503          	ld	a0,904(sp)
    80004816:	29013583          	ld	a1,656(sp)
    8000481a:	952e                	add	a0,a0,a1
    8000481c:	01553023          	sd	s5,0(a0)
    80004820:	f2000dd3          	fmv.d.x	fs11,zero
    80004824:	000cba83          	ld	s5,0(s9)
    80004828:	23bd8153          	fmv.d	ft2,fs11
    8000482c:	23bd84d3          	fmv.d	fs1,fs11
    80004830:	23bd80d3          	fmv.d	ft1,fs11
    80004834:	23bd8053          	fmv.d	ft0,fs11
    80004838:	23bd8953          	fmv.d	fs2,fs11
    8000483c:	23bd81d3          	fmv.d	ft3,fs11
    80004840:	23bd89d3          	fmv.d	fs3,fs11
    80004844:	23bd8253          	fmv.d	ft4,fs11
    80004848:	34013483          	ld	s1,832(sp)
    8000484c:	e0a5                	bnez	s1,800048ac <bilateral_core+0x2554>
    8000484e:	33813603          	ld	a2,824(sp)
    80004852:	32013503          	ld	a0,800(sp)
    80004856:	9532                	add	a0,a0,a2
    80004858:	2d013583          	ld	a1,720(sp)
    8000485c:	8d6d                	and	a0,a0,a1
    8000485e:	050e                	slli	a0,a0,0x3
    80004860:	954e                	add	a0,a0,s3
    80004862:	00053007          	fld	ft0,0(a0)
    80004866:	000d3087          	fld	ft1,0(s10)
    8000486a:	31813503          	ld	a0,792(sp)
    8000486e:	9532                	add	a0,a0,a2
    80004870:	0f3b0593          	addi	a1,s6,243
    80004874:	8d6d                	and	a0,a0,a1
    80004876:	050e                	slli	a0,a0,0x3
    80004878:	954e                	add	a0,a0,s3
    8000487a:	00053907          	fld	fs2,0(a0)
    8000487e:	008d3187          	fld	ft3,8(s10)
    80004882:	30813503          	ld	a0,776(sp)
    80004886:	30013583          	ld	a1,768(sp)
    8000488a:	952e                	add	a0,a0,a1
    8000488c:	050e                	slli	a0,a0,0x3
    8000488e:	954e                	add	a0,a0,s3
    80004890:	2104                	fld	fs1,0(a0)
    80004892:	010d3107          	fld	ft2,16(s10)
    80004896:	01860533          	add	a0,a2,s8
    8000489a:	0f5b0593          	addi	a1,s6,245
    8000489e:	8d6d                	and	a0,a0,a1
    800048a0:	050e                	slli	a0,a0,0x3
    800048a2:	954e                	add	a0,a0,s3
    800048a4:	00053987          	fld	fs3,0(a0)
    800048a8:	018d3207          	fld	ft4,24(s10)
    800048ac:	24413827          	fsd	ft4,592(sp)
    800048b0:	24313c27          	fsd	ft3,600(sp)
    800048b4:	28213827          	fsd	ft2,656(sp)
    800048b8:	2c113027          	fsd	ft1,704(sp)
    800048bc:	f20a8453          	fmv.d.x	fs0,s5
    800048c0:	b202                	fsd	ft0,288(sp)
    800048c2:	0a807053          	fsub.d	ft0,ft0,fs0
    800048c6:	220010d3          	fneg.d	ft1,ft0
    800048ca:	12107053          	fmul.d	ft0,ft0,ft1
    800048ce:	38013a87          	fld	fs5,896(sp)
    800048d2:	13507553          	fmul.d	fa0,ft0,fs5
    800048d6:	3c30f0ef          	jal	80014498 <exp>
    800048da:	aa4a                	fsd	fs2,272(sp)
    800048dc:	0a897053          	fsub.d	ft0,fs2,fs0
    800048e0:	220010d3          	fneg.d	ft1,ft0
    800048e4:	12107053          	fmul.d	ft0,ft0,ft1
    800048e8:	13507053          	fmul.d	ft0,ft0,fs5
    800048ec:	22a13c27          	fsd	fa0,568(sp)
    800048f0:	22000553          	fmv.d	fa0,ft0
    800048f4:	3a50f0ef          	jal	80014498 <exp>
    800048f8:	ae26                	fsd	fs1,280(sp)
    800048fa:	0a84f053          	fsub.d	ft0,fs1,fs0
    800048fe:	220010d3          	fneg.d	ft1,ft0
    80004902:	12107053          	fmul.d	ft0,ft0,ft1
    80004906:	13507053          	fmul.d	ft0,ft0,fs5
    8000490a:	22a13827          	fsd	fa0,560(sp)
    8000490e:	22000553          	fmv.d	fa0,ft0
    80004912:	3870f0ef          	jal	80014498 <exp>
    80004916:	0a89f053          	fsub.d	ft0,fs3,fs0
    8000491a:	220010d3          	fneg.d	ft1,ft0
    8000491e:	12107053          	fmul.d	ft0,ft0,ft1
    80004922:	13507053          	fmul.d	ft0,ft0,fs5
    80004926:	22a13427          	fsd	fa0,552(sp)
    8000492a:	22000553          	fmv.d	fa0,ft0
    8000492e:	36b0f0ef          	jal	80014498 <exp>
    80004932:	22a13027          	fsd	fa0,544(sp)
    80004936:	23bd8053          	fmv.d	ft0,fs11
    8000493a:	23bd80d3          	fmv.d	ft1,fs11
    8000493e:	ec99                	bnez	s1,8000495c <bilateral_core+0x2604>
    80004940:	00696513          	ori	a0,s2,6
    80004944:	33813583          	ld	a1,824(sp)
    80004948:	952e                	add	a0,a0,a1
    8000494a:	0f6b0593          	addi	a1,s6,246
    8000494e:	8d6d                	and	a0,a0,a1
    80004950:	050e                	slli	a0,a0,0x3
    80004952:	954e                	add	a0,a0,s3
    80004954:	00053007          	fld	ft0,0(a0)
    80004958:	020d3087          	fld	ft1,32(s10)
    8000495c:	20113c27          	fsd	ft1,536(sp)
    80004960:	23bd80d3          	fmv.d	ft1,fs11
    80004964:	23bd84d3          	fmv.d	fs1,fs11
    80004968:	23bd8953          	fmv.d	fs2,fs11
    8000496c:	23bd8153          	fmv.d	ft2,fs11
    80004970:	23bd8bd3          	fmv.d	fs7,fs11
    80004974:	23bd81d3          	fmv.d	ft3,fs11
    80004978:	040b9663          	bnez	s7,800049c4 <bilateral_core+0x266c>
    8000497c:	35013583          	ld	a1,848(sp)
    80004980:	32013503          	ld	a0,800(sp)
    80004984:	952e                	add	a0,a0,a1
    80004986:	2d013603          	ld	a2,720(sp)
    8000498a:	8d71                	and	a0,a0,a2
    8000498c:	050e                	slli	a0,a0,0x3
    8000498e:	954e                	add	a0,a0,s3
    80004990:	00053907          	fld	fs2,0(a0)
    80004994:	028d3107          	fld	ft2,40(s10)
    80004998:	31813503          	ld	a0,792(sp)
    8000499c:	952e                	add	a0,a0,a1
    8000499e:	0f3b0593          	addi	a1,s6,243
    800049a2:	8d6d                	and	a0,a0,a1
    800049a4:	050e                	slli	a0,a0,0x3
    800049a6:	954e                	add	a0,a0,s3
    800049a8:	2104                	fld	fs1,0(a0)
    800049aa:	030d3087          	fld	ft1,48(s10)
    800049ae:	33013503          	ld	a0,816(sp)
    800049b2:	30013583          	ld	a1,768(sp)
    800049b6:	952e                	add	a0,a0,a1
    800049b8:	050e                	slli	a0,a0,0x3
    800049ba:	954e                	add	a0,a0,s3
    800049bc:	00053b87          	fld	fs7,0(a0)
    800049c0:	038d3187          	fld	ft3,56(s10)
    800049c4:	20313027          	fsd	ft3,512(sp)
    800049c8:	20213427          	fsd	ft2,520(sp)
    800049cc:	20113827          	fsd	ft1,528(sp)
    800049d0:	a202                	fsd	ft0,256(sp)
    800049d2:	0a807053          	fsub.d	ft0,ft0,fs0
    800049d6:	220010d3          	fneg.d	ft1,ft0
    800049da:	12107053          	fmul.d	ft0,ft0,ft1
    800049de:	13507553          	fmul.d	fa0,ft0,fs5
    800049e2:	2b70f0ef          	jal	80014498 <exp>
    800049e6:	0a897053          	fsub.d	ft0,fs2,fs0
    800049ea:	220010d3          	fneg.d	ft1,ft0
    800049ee:	12107053          	fmul.d	ft0,ft0,ft1
    800049f2:	13507053          	fmul.d	ft0,ft0,fs5
    800049f6:	bfaa                	fsd	fa0,504(sp)
    800049f8:	22000553          	fmv.d	fa0,ft0
    800049fc:	29d0f0ef          	jal	80014498 <exp>
    80004a00:	0a84f053          	fsub.d	ft0,fs1,fs0
    80004a04:	220010d3          	fneg.d	ft1,ft0
    80004a08:	12107053          	fmul.d	ft0,ft0,ft1
    80004a0c:	13507053          	fmul.d	ft0,ft0,fs5
    80004a10:	bbaa                	fsd	fa0,496(sp)
    80004a12:	22000553          	fmv.d	fa0,ft0
    80004a16:	2830f0ef          	jal	80014498 <exp>
    80004a1a:	0a8bf053          	fsub.d	ft0,fs7,fs0
    80004a1e:	220010d3          	fneg.d	ft1,ft0
    80004a22:	12107053          	fmul.d	ft0,ft0,ft1
    80004a26:	13507053          	fmul.d	ft0,ft0,fs5
    80004a2a:	b7aa                	fsd	fa0,488(sp)
    80004a2c:	22000553          	fmv.d	fa0,ft0
    80004a30:	2690f0ef          	jal	80014498 <exp>
    80004a34:	b3aa                	fsd	fa0,480(sp)
    80004a36:	23bd80d3          	fmv.d	ft1,fs11
    80004a3a:	23bd8053          	fmv.d	ft0,fs11
    80004a3e:	23bd8c53          	fmv.d	fs8,fs11
    80004a42:	23bd8153          	fmv.d	ft2,fs11
    80004a46:	020b9b63          	bnez	s7,80004a7c <bilateral_core+0x2724>
    80004a4a:	35013603          	ld	a2,848(sp)
    80004a4e:	01860533          	add	a0,a2,s8
    80004a52:	0f5b0593          	addi	a1,s6,245
    80004a56:	8d6d                	and	a0,a0,a1
    80004a58:	050e                	slli	a0,a0,0x3
    80004a5a:	954e                	add	a0,a0,s3
    80004a5c:	00053007          	fld	ft0,0(a0)
    80004a60:	040d3087          	fld	ft1,64(s10)
    80004a64:	00696513          	ori	a0,s2,6
    80004a68:	9532                	add	a0,a0,a2
    80004a6a:	0f6b0593          	addi	a1,s6,246
    80004a6e:	8d6d                	and	a0,a0,a1
    80004a70:	050e                	slli	a0,a0,0x3
    80004a72:	954e                	add	a0,a0,s3
    80004a74:	00053c07          	fld	fs8,0(a0)
    80004a78:	048d3107          	fld	ft2,72(s10)
    80004a7c:	bdca                	fsd	fs2,248(sp)
    80004a7e:	ab8a                	fsd	ft2,464(sp)
    80004a80:	af86                	fsd	ft1,472(sp)
    80004a82:	a64e                	fsd	fs3,264(sp)
    80004a84:	b182                	fsd	ft0,224(sp)
    80004a86:	0a807053          	fsub.d	ft0,ft0,fs0
    80004a8a:	220010d3          	fneg.d	ft1,ft0
    80004a8e:	12107053          	fmul.d	ft0,ft0,ft1
    80004a92:	000a3987          	fld	fs3,0(s4)
    80004a96:	050d3087          	fld	ft1,80(s10)
    80004a9a:	a786                	fsd	ft1,456(sp)
    80004a9c:	0f3b0513          	addi	a0,s6,243
    80004aa0:	13507553          	fmul.d	fa0,ft0,fs5
    80004aa4:	2ca13423          	sd	a0,712(sp)
    80004aa8:	2b813583          	ld	a1,696(sp)
    80004aac:	8d6d                	and	a0,a0,a1
    80004aae:	050e                	slli	a0,a0,0x3
    80004ab0:	00a98a33          	add	s4,s3,a0
    80004ab4:	000a3c87          	fld	fs9,0(s4)
    80004ab8:	058d3007          	fld	ft0,88(s10)
    80004abc:	2a013c27          	fsd	ft0,696(sp)
    80004ac0:	1d90f0ef          	jal	80014498 <exp>
    80004ac4:	ade2                	fsd	fs8,216(sp)
    80004ac6:	0a8c7053          	fsub.d	ft0,fs8,fs0
    80004aca:	220010d3          	fneg.d	ft1,ft0
    80004ace:	12107053          	fmul.d	ft0,ft0,ft1
    80004ad2:	13507053          	fmul.d	ft0,ft0,fs5
    80004ad6:	a3aa                	fsd	fa0,448(sp)
    80004ad8:	22000553          	fmv.d	fa0,ft0
    80004adc:	1bd0f0ef          	jal	80014498 <exp>
    80004ae0:	a9ce                	fsd	fs3,208(sp)
    80004ae2:	0a89f053          	fsub.d	ft0,fs3,fs0
    80004ae6:	220010d3          	fneg.d	ft1,ft0
    80004aea:	12107053          	fmul.d	ft0,ft0,ft1
    80004aee:	13507053          	fmul.d	ft0,ft0,fs5
    80004af2:	bf2a                	fsd	fa0,440(sp)
    80004af4:	22000553          	fmv.d	fa0,ft0
    80004af8:	1a10f0ef          	jal	80014498 <exp>
    80004afc:	a5e6                	fsd	fs9,200(sp)
    80004afe:	0a8cf053          	fsub.d	ft0,fs9,fs0
    80004b02:	220010d3          	fneg.d	ft1,ft0
    80004b06:	12107053          	fmul.d	ft0,ft0,ft1
    80004b0a:	13507053          	fmul.d	ft0,ft0,fs5
    80004b0e:	bb2a                	fsd	fa0,432(sp)
    80004b10:	22000553          	fmv.d	fa0,ft0
    80004b14:	1850f0ef          	jal	80014498 <exp>
    80004b18:	000cb007          	fld	ft0,0(s9)
    80004b1c:	bd02                	fsd	ft0,184(sp)
    80004b1e:	0a807053          	fsub.d	ft0,ft0,fs0
    80004b22:	220010d3          	fneg.d	ft1,ft0
    80004b26:	12107053          	fmul.d	ft0,ft0,ft1
    80004b2a:	060d3087          	fld	ft1,96(s10)
    80004b2e:	ab06                	fsd	ft1,400(sp)
    80004b30:	00043c07          	fld	fs8,0(s0)
    80004b34:	068d3087          	fld	ft1,104(s10)
    80004b38:	b306                	fsd	ft1,416(sp)
    80004b3a:	00696d93          	ori	s11,s2,6
    80004b3e:	36013503          	ld	a0,864(sp)
    80004b42:	956e                	add	a0,a0,s11
    80004b44:	30a13823          	sd	a0,784(sp)
    80004b48:	050e                	slli	a0,a0,0x3
    80004b4a:	13507053          	fmul.d	ft0,ft0,fs5
    80004b4e:	26a13c23          	sd	a0,632(sp)
    80004b52:	00a98cb3          	add	s9,s3,a0
    80004b56:	000cbc87          	fld	fs9,0(s9)
    80004b5a:	070d3087          	fld	ft1,112(s10)
    80004b5e:	af06                	fsd	ft1,408(sp)
    80004b60:	2f813503          	ld	a0,760(sp)
    80004b64:	00053987          	fld	fs3,0(a0)
    80004b68:	078d3087          	fld	ft1,120(s10)
    80004b6c:	b706                	fsd	ft1,424(sp)
    80004b6e:	a72a                	fsd	fa0,392(sp)
    80004b70:	22000553          	fmv.d	fa0,ft0
    80004b74:	1250f0ef          	jal	80014498 <exp>
    80004b78:	b962                	fsd	fs8,176(sp)
    80004b7a:	0a8c7053          	fsub.d	ft0,fs8,fs0
    80004b7e:	220010d3          	fneg.d	ft1,ft0
    80004b82:	12107053          	fmul.d	ft0,ft0,ft1
    80004b86:	13507053          	fmul.d	ft0,ft0,fs5
    80004b8a:	a32a                	fsd	fa0,384(sp)
    80004b8c:	22000553          	fmv.d	fa0,ft0
    80004b90:	1090f0ef          	jal	80014498 <exp>
    80004b94:	b566                	fsd	fs9,168(sp)
    80004b96:	0a8cf053          	fsub.d	ft0,fs9,fs0
    80004b9a:	220010d3          	fneg.d	ft1,ft0
    80004b9e:	12107053          	fmul.d	ft0,ft0,ft1
    80004ba2:	13507053          	fmul.d	ft0,ft0,fs5
    80004ba6:	beaa                	fsd	fa0,376(sp)
    80004ba8:	22000553          	fmv.d	fa0,ft0
    80004bac:	0ed0f0ef          	jal	80014498 <exp>
    80004bb0:	a1ce                	fsd	fs3,192(sp)
    80004bb2:	0a89f053          	fsub.d	ft0,fs3,fs0
    80004bb6:	220010d3          	fneg.d	ft1,ft0
    80004bba:	12107053          	fmul.d	ft0,ft0,ft1
    80004bbe:	13507053          	fmul.d	ft0,ft0,fs5
    80004bc2:	baaa                	fsd	fa0,368(sp)
    80004bc4:	22000553          	fmv.d	fa0,ft0
    80004bc8:	0d10f0ef          	jal	80014498 <exp>
    80004bcc:	2d813503          	ld	a0,728(sp)
    80004bd0:	00053007          	fld	ft0,0(a0)
    80004bd4:	a502                	fsd	ft0,136(sp)
    80004bd6:	0a807053          	fsub.d	ft0,ft0,fs0
    80004bda:	220010d3          	fneg.d	ft1,ft0
    80004bde:	12107053          	fmul.d	ft0,ft0,ft1
    80004be2:	080d3087          	fld	ft1,128(s10)
    80004be6:	aa86                	fsd	ft1,336(sp)
    80004be8:	2b013503          	ld	a0,688(sp)
    80004bec:	00053c87          	fld	fs9,0(a0)
    80004bf0:	088d3087          	fld	ft1,136(s10)
    80004bf4:	ae86                	fsd	ft1,344(sp)
    80004bf6:	2a813503          	ld	a0,680(sp)
    80004bfa:	00053987          	fld	fs3,0(a0)
    80004bfe:	090d3087          	fld	ft1,144(s10)
    80004c02:	b686                	fsd	ft1,360(sp)
    80004c04:	13507053          	fmul.d	ft0,ft0,fs5
    80004c08:	36813503          	ld	a0,872(sp)
    80004c0c:	956e                	add	a0,a0,s11
    80004c0e:	050e                	slli	a0,a0,0x3
    80004c10:	954e                	add	a0,a0,s3
    80004c12:	2ea13c23          	sd	a0,760(sp)
    80004c16:	00053c07          	fld	fs8,0(a0)
    80004c1a:	098d3087          	fld	ft1,152(s10)
    80004c1e:	b286                	fsd	ft1,352(sp)
    80004c20:	a6aa                	fsd	fa0,328(sp)
    80004c22:	22000553          	fmv.d	fa0,ft0
    80004c26:	0730f0ef          	jal	80014498 <exp>
    80004c2a:	a966                	fsd	fs9,144(sp)
    80004c2c:	0a8cf053          	fsub.d	ft0,fs9,fs0
    80004c30:	220010d3          	fneg.d	ft1,ft0
    80004c34:	12107053          	fmul.d	ft0,ft0,ft1
    80004c38:	13507053          	fmul.d	ft0,ft0,fs5
    80004c3c:	a2aa                	fsd	fa0,320(sp)
    80004c3e:	22000553          	fmv.d	fa0,ft0
    80004c42:	0570f0ef          	jal	80014498 <exp>
    80004c46:	b14e                	fsd	fs3,160(sp)
    80004c48:	0a89f053          	fsub.d	ft0,fs3,fs0
    80004c4c:	220010d3          	fneg.d	ft1,ft0
    80004c50:	12107053          	fmul.d	ft0,ft0,ft1
    80004c54:	13507053          	fmul.d	ft0,ft0,fs5
    80004c58:	be2a                	fsd	fa0,312(sp)
    80004c5a:	22000553          	fmv.d	fa0,ft0
    80004c5e:	03b0f0ef          	jal	80014498 <exp>
    80004c62:	ad62                	fsd	fs8,152(sp)
    80004c64:	0a8c7053          	fsub.d	ft0,fs8,fs0
    80004c68:	220010d3          	fneg.d	ft1,ft0
    80004c6c:	12107053          	fmul.d	ft0,ft0,ft1
    80004c70:	13507053          	fmul.d	ft0,ft0,fs5
    80004c74:	ba2a                	fsd	fa0,304(sp)
    80004c76:	22000553          	fmv.d	fa0,ft0
    80004c7a:	01f0f0ef          	jal	80014498 <exp>
    80004c7e:	b62a                	fsd	fa0,296(sp)
    80004c80:	23bd8a53          	fmv.d	fs4,fs11
    80004c84:	23bd89d3          	fmv.d	fs3,fs11
    80004c88:	23bd8953          	fmv.d	fs2,fs11
    80004c8c:	23bd8053          	fmv.d	ft0,fs11
    80004c90:	23bd8c53          	fmv.d	fs8,fs11
    80004c94:	23bd8b53          	fmv.d	fs6,fs11
    80004c98:	23bd8d53          	fmv.d	fs10,fs11
    80004c9c:	23bd8253          	fmv.d	ft4,fs11
    80004ca0:	0fd00b13          	li	s6,253
    80004ca4:	39013483          	ld	s1,912(sp)
    80004ca8:	049b6763          	bltu	s6,s1,80004cf6 <bilateral_core+0x299e>
    80004cac:	34813583          	ld	a1,840(sp)
    80004cb0:	32013503          	ld	a0,800(sp)
    80004cb4:	952e                	add	a0,a0,a1
    80004cb6:	050e                	slli	a0,a0,0x3
    80004cb8:	954e                	add	a0,a0,s3
    80004cba:	00053007          	fld	ft0,0(a0)
    80004cbe:	0a0d3907          	fld	fs2,160(s10)
    80004cc2:	31813503          	ld	a0,792(sp)
    80004cc6:	952e                	add	a0,a0,a1
    80004cc8:	050e                	slli	a0,a0,0x3
    80004cca:	954e                	add	a0,a0,s3
    80004ccc:	00053c07          	fld	fs8,0(a0)
    80004cd0:	0a8d3b07          	fld	fs6,168(s10)
    80004cd4:	30013503          	ld	a0,768(sp)
    80004cd8:	952e                	add	a0,a0,a1
    80004cda:	050e                	slli	a0,a0,0x3
    80004cdc:	954e                	add	a0,a0,s3
    80004cde:	00053987          	fld	fs3,0(a0)
    80004ce2:	0b0d3a07          	fld	fs4,176(s10)
    80004ce6:	01858533          	add	a0,a1,s8
    80004cea:	050e                	slli	a0,a0,0x3
    80004cec:	954e                	add	a0,a0,s3
    80004cee:	00053d07          	fld	fs10,0(a0)
    80004cf2:	0b8d3207          	fld	ft4,184(s10)
    80004cf6:	32413027          	fsd	ft4,800(sp)
    80004cfa:	b5de                	fsd	fs7,232(sp)
    80004cfc:	b9a6                	fsd	fs1,240(sp)
    80004cfe:	bc82                	fsd	ft0,120(sp)
    80004d00:	0a807053          	fsub.d	ft0,ft0,fs0
    80004d04:	220010d3          	fneg.d	ft1,ft0
    80004d08:	12107053          	fmul.d	ft0,ft0,ft1
    80004d0c:	13507553          	fmul.d	fa0,ft0,fs5
    80004d10:	7880f0ef          	jal	80014498 <exp>
    80004d14:	b8e2                	fsd	fs8,112(sp)
    80004d16:	0a8c7053          	fsub.d	ft0,fs8,fs0
    80004d1a:	220010d3          	fneg.d	ft1,ft0
    80004d1e:	12107053          	fmul.d	ft0,ft0,ft1
    80004d22:	13507053          	fmul.d	ft0,ft0,fs5
    80004d26:	22a50c53          	fmv.d	fs8,fa0
    80004d2a:	22000553          	fmv.d	fa0,ft0
    80004d2e:	76a0f0ef          	jal	80014498 <exp>
    80004d32:	a14e                	fsd	fs3,128(sp)
    80004d34:	0a89f053          	fsub.d	ft0,fs3,fs0
    80004d38:	220010d3          	fneg.d	ft1,ft0
    80004d3c:	12107053          	fmul.d	ft0,ft0,ft1
    80004d40:	13507053          	fmul.d	ft0,ft0,fs5
    80004d44:	22a50cd3          	fmv.d	fs9,fa0
    80004d48:	22000553          	fmv.d	fa0,ft0
    80004d4c:	74c0f0ef          	jal	80014498 <exp>
    80004d50:	b4ea                	fsd	fs10,104(sp)
    80004d52:	0a8d7053          	fsub.d	ft0,fs10,fs0
    80004d56:	220010d3          	fneg.d	ft1,ft0
    80004d5a:	12107053          	fmul.d	ft0,ft0,ft1
    80004d5e:	13507053          	fmul.d	ft0,ft0,fs5
    80004d62:	22a50d53          	fmv.d	fs10,fa0
    80004d66:	22000553          	fmv.d	fa0,ft0
    80004d6a:	72e0f0ef          	jal	80014498 <exp>
    80004d6e:	23bd8353          	fmv.d	ft6,fs11
    80004d72:	23bd89d3          	fmv.d	fs3,fs11
    80004d76:	009b6c63          	bltu	s6,s1,80004d8e <bilateral_core+0x2a36>
    80004d7a:	32813503          	ld	a0,808(sp)
    80004d7e:	20650513          	addi	a0,a0,518
    80004d82:	050e                	slli	a0,a0,0x3
    80004d84:	954e                	add	a0,a0,s3
    80004d86:	00053307          	fld	ft6,0(a0)
    80004d8a:	0c0d3987          	fld	fs3,192(s10)
    80004d8e:	2c013007          	fld	ft0,704(sp)
    80004d92:	23813087          	fld	ft1,568(sp)
    80004d96:	12107153          	fmul.d	ft2,ft0,ft1
    80004d9a:	25813007          	fld	ft0,600(sp)
    80004d9e:	23013087          	fld	ft1,560(sp)
    80004da2:	121071d3          	fmul.d	ft3,ft0,ft1
    80004da6:	21813007          	fld	ft0,536(sp)
    80004daa:	30fe                	fld	ft1,504(sp)
    80004dac:	121072d3          	fmul.d	ft5,ft0,ft1
    80004db0:	22213c27          	fsd	ft2,568(sp)
    80004db4:	03b17053          	fadd.d	ft0,ft2,fs11
    80004db8:	29013087          	fld	ft1,656(sp)
    80004dbc:	22813107          	fld	ft2,552(sp)
    80004dc0:	1220f253          	fmul.d	ft4,ft1,ft2
    80004dc4:	20813087          	fld	ft1,520(sp)
    80004dc8:	315e                	fld	ft2,496(sp)
    80004dca:	1220f3d3          	fmul.d	ft7,ft1,ft2
    80004dce:	20fe                	fld	ft1,472(sp)
    80004dd0:	211e                	fld	ft2,448(sp)
    80004dd2:	1220f653          	fmul.d	fa2,ft1,ft2
    80004dd6:	28313827          	fsd	ft3,656(sp)
    80004dda:	02307053          	fadd.d	ft0,ft0,ft3
    80004dde:	22513827          	fsd	ft5,560(sp)
    80004de2:	03b2f0d3          	fadd.d	ft1,ft5,fs11
    80004de6:	25013107          	fld	ft2,592(sp)
    80004dea:	22013187          	fld	ft3,544(sp)
    80004dee:	123172d3          	fmul.d	ft5,ft2,ft3
    80004df2:	21013107          	fld	ft2,528(sp)
    80004df6:	31be                	fld	ft3,488(sp)
    80004df8:	123175d3          	fmul.d	fa1,ft2,ft3
    80004dfc:	215e                	fld	ft2,464(sp)
    80004dfe:	31fa                	fld	ft3,440(sp)
    80004e00:	123176d3          	fmul.d	fa3,ft2,ft3
    80004e04:	24413c27          	fsd	ft4,600(sp)
    80004e08:	02407053          	fadd.d	ft0,ft0,ft4
    80004e0c:	22713427          	fsd	ft7,552(sp)
    80004e10:	0270f0d3          	fadd.d	ft1,ft1,ft7
    80004e14:	20c13c27          	fsd	fa2,536(sp)
    80004e18:	03b67153          	fadd.d	ft2,fa2,fs11
    80004e1c:	20013187          	fld	ft3,512(sp)
    80004e20:	321e                	fld	ft4,480(sp)
    80004e22:	1241f3d3          	fmul.d	ft7,ft3,ft4
    80004e26:	21be                	fld	ft3,456(sp)
    80004e28:	325a                	fld	ft4,432(sp)
    80004e2a:	1241f653          	fmul.d	fa2,ft3,ft4
    80004e2e:	24513827          	fsd	ft5,592(sp)
    80004e32:	02507053          	fadd.d	ft0,ft0,ft5
    80004e36:	22b13027          	fsd	fa1,544(sp)
    80004e3a:	02b0f0d3          	fadd.d	ft1,ft1,fa1
    80004e3e:	20d13827          	fsd	fa3,528(sp)
    80004e42:	02d17153          	fadd.d	ft2,ft2,fa3
    80004e46:	21da                	fld	ft3,400(sp)
    80004e48:	221a                	fld	ft4,384(sp)
    80004e4a:	1241f2d3          	fmul.d	ft5,ft3,ft4
    80004e4e:	2b813187          	fld	ft3,696(sp)
    80004e52:	223a                	fld	ft4,392(sp)
    80004e54:	1241f5d3          	fmul.d	fa1,ft3,ft4
    80004e58:	03b07053          	fadd.d	ft0,ft0,fs11
    80004e5c:	2a713c27          	fsd	ft7,696(sp)
    80004e60:	0270f0d3          	fadd.d	ft1,ft1,ft7
    80004e64:	20c13427          	fsd	fa2,520(sp)
    80004e68:	02c17153          	fadd.d	ft2,ft2,fa2
    80004e6c:	319a                	fld	ft3,416(sp)
    80004e6e:	3276                	fld	ft4,376(sp)
    80004e70:	1241f3d3          	fmul.d	ft7,ft3,ft4
    80004e74:	b796                	fsd	ft5,488(sp)
    80004e76:	03b2f1d3          	fadd.d	ft3,ft5,fs11
    80004e7a:	2256                	fld	ft4,336(sp)
    80004e7c:	2296                	fld	ft5,320(sp)
    80004e7e:	125274d3          	fmul.d	fs1,ft4,ft5
    80004e82:	02107053          	fadd.d	ft0,ft0,ft1
    80004e86:	20b13027          	fsd	fa1,512(sp)
    80004e8a:	02b170d3          	fadd.d	ft1,ft2,fa1
    80004e8e:	217a                	fld	ft2,408(sp)
    80004e90:	3256                	fld	ft4,368(sp)
    80004e92:	124172d3          	fmul.d	ft5,ft2,ft4
    80004e96:	b39e                	fsd	ft7,480(sp)
    80004e98:	0271f153          	fadd.d	ft2,ft3,ft7
    80004e9c:	21f6                	fld	ft3,344(sp)
    80004e9e:	3272                	fld	ft4,312(sp)
    80004ea0:	1241f5d3          	fmul.d	fa1,ft3,ft4
    80004ea4:	03b4f1d3          	fadd.d	ft3,fs1,fs11
    80004ea8:	13897bd3          	fmul.d	fs7,fs2,fs8
    80004eac:	02107053          	fadd.d	ft0,ft0,ft1
    80004eb0:	30ba                	fld	ft1,424(sp)
    80004eb2:	2236                	fld	ft4,328(sp)
    80004eb4:	1240f3d3          	fmul.d	ft7,ft1,ft4
    80004eb8:	bf96                	fsd	ft5,504(sp)
    80004eba:	025170d3          	fadd.d	ft1,ft2,ft5
    80004ebe:	3136                	fld	ft2,360(sp)
    80004ec0:	3252                	fld	ft4,304(sp)
    80004ec2:	12417653          	fmul.d	fa2,ft2,ft4
    80004ec6:	afae                	fsd	fa1,472(sp)
    80004ec8:	02b1f153          	fadd.d	ft2,ft3,fa1
    80004ecc:	139b7953          	fmul.d	fs2,fs6,fs9
    80004ed0:	03bbf1d3          	fadd.d	ft3,fs7,fs11
    80004ed4:	3216                	fld	ft4,352(sp)
    80004ed6:	32b2                	fld	ft5,296(sp)
    80004ed8:	125272d3          	fmul.d	ft5,ft4,ft5
    80004edc:	bb9e                	fsd	ft7,496(sp)
    80004ede:	0270f0d3          	fadd.d	ft1,ft1,ft7
    80004ee2:	13aa7d53          	fmul.d	fs10,fs4,fs10
    80004ee6:	2c613027          	fsd	ft6,704(sp)
    80004eea:	0a837253          	fsub.d	ft4,ft6,fs0
    80004eee:	abb2                	fsd	fa2,464(sp)
    80004ef0:	02c17153          	fadd.d	ft2,ft2,fa2
    80004ef4:	0321f1d3          	fadd.d	ft3,ft3,fs2
    80004ef8:	02107053          	fadd.d	ft0,ft0,ft1
    80004efc:	32013087          	fld	ft1,800(sp)
    80004f00:	12a0fc53          	fmul.d	fs8,ft1,fa0
    80004f04:	224210d3          	fneg.d	ft1,ft4
    80004f08:	32513027          	fsd	ft5,800(sp)
    80004f0c:	02517153          	fadd.d	ft2,ft2,ft5
    80004f10:	03a1f1d3          	fadd.d	ft3,ft3,fs10
    80004f14:	121270d3          	fmul.d	ft1,ft4,ft1
    80004f18:	02207053          	fadd.d	ft0,ft0,ft2
    80004f1c:	0381f153          	fadd.d	ft2,ft3,fs8
    80004f20:	1350f553          	fmul.d	fa0,ft1,fs5
    80004f24:	02207a53          	fadd.d	fs4,ft0,ft2
    80004f28:	5700f0ef          	jal	80014498 <exp>
    80004f2c:	0a8df053          	fsub.d	ft0,fs11,fs0
    80004f30:	220010d3          	fneg.d	ft1,ft0
    80004f34:	12107053          	fmul.d	ft0,ft0,ft1
    80004f38:	12a9f9d3          	fmul.d	fs3,fs3,fa0
    80004f3c:	13507453          	fmul.d	fs0,ft0,fs5
    80004f40:	03b9fcd3          	fadd.d	fs9,fs3,fs11
    80004f44:	22840553          	fmv.d	fa0,fs0
    80004f48:	5500f0ef          	jal	80014498 <exp>
    80004f4c:	13b57ad3          	fmul.d	fs5,fa0,fs11
    80004f50:	035cfb53          	fadd.d	fs6,fs9,fs5
    80004f54:	22840553          	fmv.d	fa0,fs0
    80004f58:	5400f0ef          	jal	80014498 <exp>
    80004f5c:	13b57cd3          	fmul.d	fs9,fa0,fs11
    80004f60:	039b7b53          	fadd.d	fs6,fs6,fs9
    80004f64:	22840553          	fmv.d	fa0,fs0
    80004f68:	5300f0ef          	jal	80014498 <exp>
    80004f6c:	13b570d3          	fmul.d	ft1,fa0,fs11
    80004f70:	021b7053          	fadd.d	ft0,fs6,ft1
    80004f74:	020a7053          	fadd.d	ft0,fs4,ft0
    80004f78:	37813107          	fld	ft2,888(sp)
    80004f7c:	a2011553          	flt.d	a0,ft2,ft0
    80004f80:	10050863          	beqz	a0,80005090 <bilateral_core+0x2d38>
    80004f84:	3112                	fld	ft2,288(sp)
    80004f86:	23813187          	fld	ft3,568(sp)
    80004f8a:	da317143          	fmadd.d	ft2,ft2,ft3,fs11
    80004f8e:	2192                	fld	ft3,256(sp)
    80004f90:	23013207          	fld	ft4,560(sp)
    80004f94:	da41f1c3          	fmadd.d	ft3,ft3,ft4,fs11
    80004f98:	2252                	fld	ft4,272(sp)
    80004f9a:	29013287          	fld	ft5,656(sp)
    80004f9e:	12527143          	fmadd.d	ft2,ft4,ft5,ft2
    80004fa2:	320e                	fld	ft4,224(sp)
    80004fa4:	21813287          	fld	ft5,536(sp)
    80004fa8:	da527243          	fmadd.d	ft4,ft4,ft5,fs11
    80004fac:	32ee                	fld	ft5,248(sp)
    80004fae:	22813307          	fld	ft6,552(sp)
    80004fb2:	1a62f1c3          	fmadd.d	ft3,ft5,ft6,ft3
    80004fb6:	22f2                	fld	ft5,280(sp)
    80004fb8:	25813307          	fld	ft6,600(sp)
    80004fbc:	1262f143          	fmadd.d	ft2,ft5,ft6,ft2
    80004fc0:	22ee                	fld	ft5,216(sp)
    80004fc2:	21013307          	fld	ft6,528(sp)
    80004fc6:	2262f243          	fmadd.d	ft4,ft5,ft6,ft4
    80004fca:	32ea                	fld	ft5,184(sp)
    80004fcc:	333e                	fld	ft6,488(sp)
    80004fce:	da62f2c3          	fmadd.d	ft5,ft5,ft6,fs11
    80004fd2:	334e                	fld	ft6,240(sp)
    80004fd4:	22013387          	fld	ft7,544(sp)
    80004fd8:	1a7371c3          	fmadd.d	ft3,ft6,ft7,ft3
    80004fdc:	2332                	fld	ft6,264(sp)
    80004fde:	25013387          	fld	ft7,592(sp)
    80004fe2:	12737143          	fmadd.d	ft2,ft6,ft7,ft2
    80004fe6:	234e                	fld	ft6,208(sp)
    80004fe8:	20813387          	fld	ft7,520(sp)
    80004fec:	22737243          	fmadd.d	ft4,ft6,ft7,ft4
    80004ff0:	232a                	fld	ft6,136(sp)
    80004ff2:	da937343          	fmadd.d	ft6,ft6,fs1,fs11
    80004ff6:	33ca                	fld	ft7,176(sp)
    80004ff8:	351e                	fld	fa0,480(sp)
    80004ffa:	2aa3f2c3          	fmadd.d	ft5,ft7,fa0,ft5
    80004ffe:	33ae                	fld	ft7,232(sp)
    80005000:	2b813507          	fld	fa0,696(sp)
    80005004:	1aa3f1c3          	fmadd.d	ft3,ft7,fa0,ft3
    80005008:	03b17153          	fadd.d	ft2,ft2,fs11
    8000500c:	23ae                	fld	ft7,200(sp)
    8000500e:	20013507          	fld	fa0,512(sp)
    80005012:	22a3f243          	fmadd.d	ft4,ft7,fa0,ft4
    80005016:	33e6                	fld	ft7,120(sp)
    80005018:	db73f3c3          	fmadd.d	ft7,ft7,fs7,fs11
    8000501c:	254a                	fld	fa0,144(sp)
    8000501e:	25fe                	fld	fa1,472(sp)
    80005020:	32b57343          	fmadd.d	ft6,fa0,fa1,ft6
    80005024:	352a                	fld	fa0,168(sp)
    80005026:	35fe                	fld	fa1,504(sp)
    80005028:	2ab572c3          	fmadd.d	ft5,fa0,fa1,ft5
    8000502c:	02317153          	fadd.d	ft2,ft2,ft3
    80005030:	f20001d3          	fmv.d.x	ft3,zero
    80005034:	2c013507          	fld	fa0,704(sp)
    80005038:	1b357543          	fmadd.d	fa0,fa0,fs3,ft3
    8000503c:	35c6                	fld	fa1,112(sp)
    8000503e:	3b25f3c3          	fmadd.d	ft7,fa1,fs2,ft7
    80005042:	358a                	fld	fa1,160(sp)
    80005044:	265e                	fld	fa2,464(sp)
    80005046:	32c5f343          	fmadd.d	ft6,fa1,fa2,ft6
    8000504a:	258e                	fld	fa1,192(sp)
    8000504c:	365e                	fld	fa2,496(sp)
    8000504e:	2ac5f2c3          	fmadd.d	ft5,fa1,fa2,ft5
    80005052:	02417153          	fadd.d	ft2,ft2,ft4
    80005056:	523af243          	fmadd.d	ft4,fs5,ft3,fa0
    8000505a:	250a                	fld	fa0,128(sp)
    8000505c:	3ba573c3          	fmadd.d	ft7,fa0,fs10,ft7
    80005060:	256a                	fld	fa0,152(sp)
    80005062:	32013587          	fld	fa1,800(sp)
    80005066:	32b57343          	fmadd.d	ft6,fa0,fa1,ft6
    8000506a:	02517153          	fadd.d	ft2,ft2,ft5
    8000506e:	223cf243          	fmadd.d	ft4,fs9,ft3,ft4
    80005072:	32a6                	fld	ft5,104(sp)
    80005074:	3b82f2c3          	fmadd.d	ft5,ft5,fs8,ft7
    80005078:	02617153          	fadd.d	ft2,ft2,ft6
    8000507c:	2230f0c3          	fmadd.d	ft1,ft1,ft3,ft4
    80005080:	02517153          	fadd.d	ft2,ft2,ft5
    80005084:	021170d3          	fadd.d	ft1,ft2,ft1
    80005088:	1a00f053          	fdiv.d	ft0,ft1,ft0
    8000508c:	e2000ad3          	fmv.x.d	s5,ft0
    80005090:	38813503          	ld	a0,904(sp)
    80005094:	28813583          	ld	a1,648(sp)
    80005098:	952e                	add	a0,a0,a1
    8000509a:	01553023          	sd	s5,0(a0)
    8000509e:	f2000dd3          	fmv.d.x	fs11,zero
    800050a2:	00043b03          	ld	s6,0(s0)
    800050a6:	23bd8153          	fmv.d	ft2,fs11
    800050aa:	23bd84d3          	fmv.d	fs1,fs11
    800050ae:	23bd80d3          	fmv.d	ft1,fs11
    800050b2:	23bd8053          	fmv.d	ft0,fs11
    800050b6:	23bd8953          	fmv.d	fs2,fs11
    800050ba:	23bd81d3          	fmv.d	ft3,fs11
    800050be:	23bd89d3          	fmv.d	fs3,fs11
    800050c2:	23bd8253          	fmv.d	ft4,fs11
    800050c6:	34013483          	ld	s1,832(sp)
    800050ca:	e0a5                	bnez	s1,8000512a <bilateral_core+0x2dd2>
    800050cc:	33813683          	ld	a3,824(sp)
    800050d0:	31813503          	ld	a0,792(sp)
    800050d4:	9536                	add	a0,a0,a3
    800050d6:	2c813583          	ld	a1,712(sp)
    800050da:	8d6d                	and	a0,a0,a1
    800050dc:	050e                	slli	a0,a0,0x3
    800050de:	954e                	add	a0,a0,s3
    800050e0:	00053007          	fld	ft0,0(a0)
    800050e4:	000d3087          	fld	ft1,0(s10)
    800050e8:	30013503          	ld	a0,768(sp)
    800050ec:	9536                	add	a0,a0,a3
    800050ee:	37013603          	ld	a2,880(sp)
    800050f2:	0f460593          	addi	a1,a2,244
    800050f6:	8d6d                	and	a0,a0,a1
    800050f8:	050e                	slli	a0,a0,0x3
    800050fa:	954e                	add	a0,a0,s3
    800050fc:	00053907          	fld	fs2,0(a0)
    80005100:	008d3187          	fld	ft3,8(s10)
    80005104:	30813503          	ld	a0,776(sp)
    80005108:	9562                	add	a0,a0,s8
    8000510a:	050e                	slli	a0,a0,0x3
    8000510c:	954e                	add	a0,a0,s3
    8000510e:	2104                	fld	fs1,0(a0)
    80005110:	010d3107          	fld	ft2,16(s10)
    80005114:	01b68533          	add	a0,a3,s11
    80005118:	0f660593          	addi	a1,a2,246
    8000511c:	8d6d                	and	a0,a0,a1
    8000511e:	050e                	slli	a0,a0,0x3
    80005120:	954e                	add	a0,a0,s3
    80005122:	00053987          	fld	fs3,0(a0)
    80005126:	018d3207          	fld	ft4,24(s10)
    8000512a:	24413c27          	fsd	ft4,600(sp)
    8000512e:	28313427          	fsd	ft3,648(sp)
    80005132:	28213827          	fsd	ft2,656(sp)
    80005136:	2a113c27          	fsd	ft1,696(sp)
    8000513a:	f20b0453          	fmv.d.x	fs0,s6
    8000513e:	ae02                	fsd	ft0,280(sp)
    80005140:	0a807053          	fsub.d	ft0,ft0,fs0
    80005144:	220010d3          	fneg.d	ft1,ft0
    80005148:	12107053          	fmul.d	ft0,ft0,ft1
    8000514c:	38013a87          	fld	fs5,896(sp)
    80005150:	13507553          	fmul.d	fa0,ft0,fs5
    80005154:	3440f0ef          	jal	80014498 <exp>
    80005158:	a64a                	fsd	fs2,264(sp)
    8000515a:	0a897053          	fsub.d	ft0,fs2,fs0
    8000515e:	220010d3          	fneg.d	ft1,ft0
    80005162:	12107053          	fmul.d	ft0,ft0,ft1
    80005166:	13507053          	fmul.d	ft0,ft0,fs5
    8000516a:	22a13c27          	fsd	fa0,568(sp)
    8000516e:	22000553          	fmv.d	fa0,ft0
    80005172:	3260f0ef          	jal	80014498 <exp>
    80005176:	aa26                	fsd	fs1,272(sp)
    80005178:	0a84f053          	fsub.d	ft0,fs1,fs0
    8000517c:	220010d3          	fneg.d	ft1,ft0
    80005180:	12107053          	fmul.d	ft0,ft0,ft1
    80005184:	13507053          	fmul.d	ft0,ft0,fs5
    80005188:	22a13827          	fsd	fa0,560(sp)
    8000518c:	22000553          	fmv.d	fa0,ft0
    80005190:	3080f0ef          	jal	80014498 <exp>
    80005194:	0a89f053          	fsub.d	ft0,fs3,fs0
    80005198:	220010d3          	fneg.d	ft1,ft0
    8000519c:	12107053          	fmul.d	ft0,ft0,ft1
    800051a0:	13507053          	fmul.d	ft0,ft0,fs5
    800051a4:	22a13427          	fsd	fa0,552(sp)
    800051a8:	22000553          	fmv.d	fa0,ft0
    800051ac:	2ec0f0ef          	jal	80014498 <exp>
    800051b0:	22a13027          	fsd	fa0,544(sp)
    800051b4:	23bd8053          	fmv.d	ft0,fs11
    800051b8:	23bd80d3          	fmv.d	ft1,fs11
    800051bc:	e08d                	bnez	s1,800051de <bilateral_core+0x2e86>
    800051be:	00796513          	ori	a0,s2,7
    800051c2:	33813583          	ld	a1,824(sp)
    800051c6:	952e                	add	a0,a0,a1
    800051c8:	37013583          	ld	a1,880(sp)
    800051cc:	0f758593          	addi	a1,a1,247
    800051d0:	8d6d                	and	a0,a0,a1
    800051d2:	050e                	slli	a0,a0,0x3
    800051d4:	954e                	add	a0,a0,s3
    800051d6:	00053007          	fld	ft0,0(a0)
    800051da:	020d3087          	fld	ft1,32(s10)
    800051de:	20113c27          	fsd	ft1,536(sp)
    800051e2:	23bd80d3          	fmv.d	ft1,fs11
    800051e6:	23bd84d3          	fmv.d	fs1,fs11
    800051ea:	23bd8953          	fmv.d	fs2,fs11
    800051ee:	23bd8153          	fmv.d	ft2,fs11
    800051f2:	23bd8bd3          	fmv.d	fs7,fs11
    800051f6:	23bd81d3          	fmv.d	ft3,fs11
    800051fa:	040b9663          	bnez	s7,80005246 <bilateral_core+0x2eee>
    800051fe:	35013583          	ld	a1,848(sp)
    80005202:	31813503          	ld	a0,792(sp)
    80005206:	952e                	add	a0,a0,a1
    80005208:	2c813603          	ld	a2,712(sp)
    8000520c:	8d71                	and	a0,a0,a2
    8000520e:	050e                	slli	a0,a0,0x3
    80005210:	954e                	add	a0,a0,s3
    80005212:	00053907          	fld	fs2,0(a0)
    80005216:	028d3107          	fld	ft2,40(s10)
    8000521a:	30013503          	ld	a0,768(sp)
    8000521e:	952e                	add	a0,a0,a1
    80005220:	37013583          	ld	a1,880(sp)
    80005224:	0f458593          	addi	a1,a1,244
    80005228:	8d6d                	and	a0,a0,a1
    8000522a:	050e                	slli	a0,a0,0x3
    8000522c:	954e                	add	a0,a0,s3
    8000522e:	2104                	fld	fs1,0(a0)
    80005230:	030d3087          	fld	ft1,48(s10)
    80005234:	33013503          	ld	a0,816(sp)
    80005238:	9562                	add	a0,a0,s8
    8000523a:	050e                	slli	a0,a0,0x3
    8000523c:	954e                	add	a0,a0,s3
    8000523e:	00053b87          	fld	fs7,0(a0)
    80005242:	038d3187          	fld	ft3,56(s10)
    80005246:	20313027          	fsd	ft3,512(sp)
    8000524a:	20213427          	fsd	ft2,520(sp)
    8000524e:	20113827          	fsd	ft1,528(sp)
    80005252:	bd82                	fsd	ft0,248(sp)
    80005254:	0a807053          	fsub.d	ft0,ft0,fs0
    80005258:	220010d3          	fneg.d	ft1,ft0
    8000525c:	12107053          	fmul.d	ft0,ft0,ft1
    80005260:	13507553          	fmul.d	fa0,ft0,fs5
    80005264:	2340f0ef          	jal	80014498 <exp>
    80005268:	0a897053          	fsub.d	ft0,fs2,fs0
    8000526c:	220010d3          	fneg.d	ft1,ft0
    80005270:	12107053          	fmul.d	ft0,ft0,ft1
    80005274:	13507053          	fmul.d	ft0,ft0,fs5
    80005278:	bfaa                	fsd	fa0,504(sp)
    8000527a:	22000553          	fmv.d	fa0,ft0
    8000527e:	21a0f0ef          	jal	80014498 <exp>
    80005282:	0a84f053          	fsub.d	ft0,fs1,fs0
    80005286:	220010d3          	fneg.d	ft1,ft0
    8000528a:	12107053          	fmul.d	ft0,ft0,ft1
    8000528e:	13507053          	fmul.d	ft0,ft0,fs5
    80005292:	bbaa                	fsd	fa0,496(sp)
    80005294:	22000553          	fmv.d	fa0,ft0
    80005298:	2000f0ef          	jal	80014498 <exp>
    8000529c:	0a8bf053          	fsub.d	ft0,fs7,fs0
    800052a0:	220010d3          	fneg.d	ft1,ft0
    800052a4:	12107053          	fmul.d	ft0,ft0,ft1
    800052a8:	13507053          	fmul.d	ft0,ft0,fs5
    800052ac:	b7aa                	fsd	fa0,488(sp)
    800052ae:	22000553          	fmv.d	fa0,ft0
    800052b2:	1e60f0ef          	jal	80014498 <exp>
    800052b6:	b3aa                	fsd	fa0,480(sp)
    800052b8:	23bd80d3          	fmv.d	ft1,fs11
    800052bc:	23bd8053          	fmv.d	ft0,fs11
    800052c0:	23bd8c53          	fmv.d	fs8,fs11
    800052c4:	23bd8153          	fmv.d	ft2,fs11
    800052c8:	020b9d63          	bnez	s7,80005302 <bilateral_core+0x2faa>
    800052cc:	35013683          	ld	a3,848(sp)
    800052d0:	01b68533          	add	a0,a3,s11
    800052d4:	37013603          	ld	a2,880(sp)
    800052d8:	0f660593          	addi	a1,a2,246
    800052dc:	8d6d                	and	a0,a0,a1
    800052de:	050e                	slli	a0,a0,0x3
    800052e0:	954e                	add	a0,a0,s3
    800052e2:	00053007          	fld	ft0,0(a0)
    800052e6:	040d3087          	fld	ft1,64(s10)
    800052ea:	00796513          	ori	a0,s2,7
    800052ee:	9536                	add	a0,a0,a3
    800052f0:	0f760593          	addi	a1,a2,247
    800052f4:	8d6d                	and	a0,a0,a1
    800052f6:	050e                	slli	a0,a0,0x3
    800052f8:	954e                	add	a0,a0,s3
    800052fa:	00053c07          	fld	fs8,0(a0)
    800052fe:	048d3107          	fld	ft2,72(s10)
    80005302:	b9ca                	fsd	fs2,240(sp)
    80005304:	ab8a                	fsd	ft2,464(sp)
    80005306:	af86                	fsd	ft1,472(sp)
    80005308:	a24e                	fsd	fs3,256(sp)
    8000530a:	ad82                	fsd	ft0,216(sp)
    8000530c:	0a807053          	fsub.d	ft0,ft0,fs0
    80005310:	220010d3          	fneg.d	ft1,ft0
    80005314:	12107053          	fmul.d	ft0,ft0,ft1
    80005318:	000a3987          	fld	fs3,0(s4)
    8000531c:	050d3087          	fld	ft1,80(s10)
    80005320:	a786                	fsd	ft1,456(sp)
    80005322:	37013503          	ld	a0,880(sp)
    80005326:	0f450513          	addi	a0,a0,244
    8000532a:	13507553          	fmul.d	fa0,ft0,fs5
    8000532e:	2ca13023          	sd	a0,704(sp)
    80005332:	2a013583          	ld	a1,672(sp)
    80005336:	8d6d                	and	a0,a0,a1
    80005338:	050e                	slli	a0,a0,0x3
    8000533a:	00a98a33          	add	s4,s3,a0
    8000533e:	000a3c87          	fld	fs9,0(s4)
    80005342:	058d3007          	fld	ft0,88(s10)
    80005346:	a382                	fsd	ft0,448(sp)
    80005348:	1500f0ef          	jal	80014498 <exp>
    8000534c:	a9e2                	fsd	fs8,208(sp)
    8000534e:	0a8c7053          	fsub.d	ft0,fs8,fs0
    80005352:	220010d3          	fneg.d	ft1,ft0
    80005356:	12107053          	fmul.d	ft0,ft0,ft1
    8000535a:	13507053          	fmul.d	ft0,ft0,fs5
    8000535e:	bf2a                	fsd	fa0,440(sp)
    80005360:	22000553          	fmv.d	fa0,ft0
    80005364:	1340f0ef          	jal	80014498 <exp>
    80005368:	a5ce                	fsd	fs3,200(sp)
    8000536a:	0a89f053          	fsub.d	ft0,fs3,fs0
    8000536e:	220010d3          	fneg.d	ft1,ft0
    80005372:	12107053          	fmul.d	ft0,ft0,ft1
    80005376:	13507053          	fmul.d	ft0,ft0,fs5
    8000537a:	bb2a                	fsd	fa0,432(sp)
    8000537c:	22000553          	fmv.d	fa0,ft0
    80005380:	1180f0ef          	jal	80014498 <exp>
    80005384:	a1e6                	fsd	fs9,192(sp)
    80005386:	0a8cf053          	fsub.d	ft0,fs9,fs0
    8000538a:	220010d3          	fneg.d	ft1,ft0
    8000538e:	12107053          	fmul.d	ft0,ft0,ft1
    80005392:	13507053          	fmul.d	ft0,ft0,fs5
    80005396:	b72a                	fsd	fa0,424(sp)
    80005398:	22000553          	fmv.d	fa0,ft0
    8000539c:	0fc0f0ef          	jal	80014498 <exp>
    800053a0:	00043007          	fld	ft0,0(s0)
    800053a4:	b902                	fsd	ft0,176(sp)
    800053a6:	0a807053          	fsub.d	ft0,ft0,fs0
    800053aa:	220010d3          	fneg.d	ft1,ft0
    800053ae:	12107053          	fmul.d	ft0,ft0,ft1
    800053b2:	060d3087          	fld	ft1,96(s10)
    800053b6:	a706                	fsd	ft1,392(sp)
    800053b8:	000cbc07          	fld	fs8,0(s9)
    800053bc:	068d3087          	fld	ft1,104(s10)
    800053c0:	af06                	fsd	ft1,408(sp)
    800053c2:	00796413          	ori	s0,s2,7
    800053c6:	36013503          	ld	a0,864(sp)
    800053ca:	9522                	add	a0,a0,s0
    800053cc:	2aa13023          	sd	a0,672(sp)
    800053d0:	050e                	slli	a0,a0,0x3
    800053d2:	13507053          	fmul.d	ft0,ft0,fs5
    800053d6:	24a13823          	sd	a0,592(sp)
    800053da:	00a98ab3          	add	s5,s3,a0
    800053de:	000abc87          	fld	fs9,0(s5)
    800053e2:	070d3087          	fld	ft1,112(s10)
    800053e6:	ab06                	fsd	ft1,400(sp)
    800053e8:	2d813503          	ld	a0,728(sp)
    800053ec:	00053987          	fld	fs3,0(a0)
    800053f0:	078d3087          	fld	ft1,120(s10)
    800053f4:	b306                	fsd	ft1,416(sp)
    800053f6:	a32a                	fsd	fa0,384(sp)
    800053f8:	22000553          	fmv.d	fa0,ft0
    800053fc:	09c0f0ef          	jal	80014498 <exp>
    80005400:	b562                	fsd	fs8,168(sp)
    80005402:	0a8c7053          	fsub.d	ft0,fs8,fs0
    80005406:	220010d3          	fneg.d	ft1,ft0
    8000540a:	12107053          	fmul.d	ft0,ft0,ft1
    8000540e:	13507053          	fmul.d	ft0,ft0,fs5
    80005412:	beaa                	fsd	fa0,376(sp)
    80005414:	22000553          	fmv.d	fa0,ft0
    80005418:	0800f0ef          	jal	80014498 <exp>
    8000541c:	b166                	fsd	fs9,160(sp)
    8000541e:	0a8cf053          	fsub.d	ft0,fs9,fs0
    80005422:	220010d3          	fneg.d	ft1,ft0
    80005426:	12107053          	fmul.d	ft0,ft0,ft1
    8000542a:	13507053          	fmul.d	ft0,ft0,fs5
    8000542e:	baaa                	fsd	fa0,368(sp)
    80005430:	22000553          	fmv.d	fa0,ft0
    80005434:	0640f0ef          	jal	80014498 <exp>
    80005438:	bd4e                	fsd	fs3,184(sp)
    8000543a:	0a89f053          	fsub.d	ft0,fs3,fs0
    8000543e:	220010d3          	fneg.d	ft1,ft0
    80005442:	12107053          	fmul.d	ft0,ft0,ft1
    80005446:	13507053          	fmul.d	ft0,ft0,fs5
    8000544a:	b6aa                	fsd	fa0,360(sp)
    8000544c:	22000553          	fmv.d	fa0,ft0
    80005450:	0480f0ef          	jal	80014498 <exp>
    80005454:	2b013503          	ld	a0,688(sp)
    80005458:	00053007          	fld	ft0,0(a0)
    8000545c:	a102                	fsd	ft0,128(sp)
    8000545e:	0a807053          	fsub.d	ft0,ft0,fs0
    80005462:	220010d3          	fneg.d	ft1,ft0
    80005466:	12107053          	fmul.d	ft0,ft0,ft1
    8000546a:	080d3087          	fld	ft1,128(s10)
    8000546e:	a686                	fsd	ft1,328(sp)
    80005470:	2a813503          	ld	a0,680(sp)
    80005474:	00053c87          	fld	fs9,0(a0)
    80005478:	088d3087          	fld	ft1,136(s10)
    8000547c:	aa86                	fsd	ft1,336(sp)
    8000547e:	2f813503          	ld	a0,760(sp)
    80005482:	00053987          	fld	fs3,0(a0)
    80005486:	090d3087          	fld	ft1,144(s10)
    8000548a:	b286                	fsd	ft1,352(sp)
    8000548c:	13507053          	fmul.d	ft0,ft0,fs5
    80005490:	32813023          	sd	s0,800(sp)
    80005494:	36813503          	ld	a0,872(sp)
    80005498:	9522                	add	a0,a0,s0
    8000549a:	050e                	slli	a0,a0,0x3
    8000549c:	954e                	add	a0,a0,s3
    8000549e:	2ca13c23          	sd	a0,728(sp)
    800054a2:	00053c07          	fld	fs8,0(a0)
    800054a6:	098d3087          	fld	ft1,152(s10)
    800054aa:	ae86                	fsd	ft1,344(sp)
    800054ac:	a2aa                	fsd	fa0,320(sp)
    800054ae:	22000553          	fmv.d	fa0,ft0
    800054b2:	7e70e0ef          	jal	80014498 <exp>
    800054b6:	a566                	fsd	fs9,136(sp)
    800054b8:	0a8cf053          	fsub.d	ft0,fs9,fs0
    800054bc:	220010d3          	fneg.d	ft1,ft0
    800054c0:	12107053          	fmul.d	ft0,ft0,ft1
    800054c4:	13507053          	fmul.d	ft0,ft0,fs5
    800054c8:	be2a                	fsd	fa0,312(sp)
    800054ca:	22000553          	fmv.d	fa0,ft0
    800054ce:	7cb0e0ef          	jal	80014498 <exp>
    800054d2:	ad4e                	fsd	fs3,152(sp)
    800054d4:	0a89f053          	fsub.d	ft0,fs3,fs0
    800054d8:	220010d3          	fneg.d	ft1,ft0
    800054dc:	12107053          	fmul.d	ft0,ft0,ft1
    800054e0:	13507053          	fmul.d	ft0,ft0,fs5
    800054e4:	ba2a                	fsd	fa0,304(sp)
    800054e6:	22000553          	fmv.d	fa0,ft0
    800054ea:	7af0e0ef          	jal	80014498 <exp>
    800054ee:	a962                	fsd	fs8,144(sp)
    800054f0:	0a8c7053          	fsub.d	ft0,fs8,fs0
    800054f4:	220010d3          	fneg.d	ft1,ft0
    800054f8:	12107053          	fmul.d	ft0,ft0,ft1
    800054fc:	13507053          	fmul.d	ft0,ft0,fs5
    80005500:	b62a                	fsd	fa0,296(sp)
    80005502:	22000553          	fmv.d	fa0,ft0
    80005506:	7930e0ef          	jal	80014498 <exp>
    8000550a:	b22a                	fsd	fa0,288(sp)
    8000550c:	23bd8a53          	fmv.d	fs4,fs11
    80005510:	23bd89d3          	fmv.d	fs3,fs11
    80005514:	23bd8953          	fmv.d	fs2,fs11
    80005518:	23bd8053          	fmv.d	ft0,fs11
    8000551c:	23bd8c53          	fmv.d	fs8,fs11
    80005520:	23bd8b53          	fmv.d	fs6,fs11
    80005524:	23bd8d53          	fmv.d	fs10,fs11
    80005528:	23bd8253          	fmv.d	ft4,fs11
    8000552c:	0fd00413          	li	s0,253
    80005530:	39013483          	ld	s1,912(sp)
    80005534:	04946663          	bltu	s0,s1,80005580 <bilateral_core+0x3228>
    80005538:	34813583          	ld	a1,840(sp)
    8000553c:	31813503          	ld	a0,792(sp)
    80005540:	952e                	add	a0,a0,a1
    80005542:	050e                	slli	a0,a0,0x3
    80005544:	954e                	add	a0,a0,s3
    80005546:	00053007          	fld	ft0,0(a0)
    8000554a:	0a0d3907          	fld	fs2,160(s10)
    8000554e:	30013503          	ld	a0,768(sp)
    80005552:	952e                	add	a0,a0,a1
    80005554:	050e                	slli	a0,a0,0x3
    80005556:	954e                	add	a0,a0,s3
    80005558:	00053c07          	fld	fs8,0(a0)
    8000555c:	0a8d3b07          	fld	fs6,168(s10)
    80005560:	01858533          	add	a0,a1,s8
    80005564:	050e                	slli	a0,a0,0x3
    80005566:	954e                	add	a0,a0,s3
    80005568:	00053987          	fld	fs3,0(a0)
    8000556c:	0b0d3a07          	fld	fs4,176(s10)
    80005570:	01b58533          	add	a0,a1,s11
    80005574:	050e                	slli	a0,a0,0x3
    80005576:	954e                	add	a0,a0,s3
    80005578:	00053d07          	fld	fs10,0(a0)
    8000557c:	0b8d3207          	fld	ft4,184(s10)
    80005580:	30413c27          	fsd	ft4,792(sp)
    80005584:	b1de                	fsd	fs7,224(sp)
    80005586:	b5a6                	fsd	fs1,232(sp)
    80005588:	b882                	fsd	ft0,112(sp)
    8000558a:	0a807053          	fsub.d	ft0,ft0,fs0
    8000558e:	220010d3          	fneg.d	ft1,ft0
    80005592:	12107053          	fmul.d	ft0,ft0,ft1
    80005596:	13507553          	fmul.d	fa0,ft0,fs5
    8000559a:	6ff0e0ef          	jal	80014498 <exp>
    8000559e:	b4e2                	fsd	fs8,104(sp)
    800055a0:	0a8c7053          	fsub.d	ft0,fs8,fs0
    800055a4:	220010d3          	fneg.d	ft1,ft0
    800055a8:	12107053          	fmul.d	ft0,ft0,ft1
    800055ac:	13507053          	fmul.d	ft0,ft0,fs5
    800055b0:	22a50c53          	fmv.d	fs8,fa0
    800055b4:	22000553          	fmv.d	fa0,ft0
    800055b8:	6e10e0ef          	jal	80014498 <exp>
    800055bc:	bcce                	fsd	fs3,120(sp)
    800055be:	0a89f053          	fsub.d	ft0,fs3,fs0
    800055c2:	220010d3          	fneg.d	ft1,ft0
    800055c6:	12107053          	fmul.d	ft0,ft0,ft1
    800055ca:	13507053          	fmul.d	ft0,ft0,fs5
    800055ce:	22a50cd3          	fmv.d	fs9,fa0
    800055d2:	22000553          	fmv.d	fa0,ft0
    800055d6:	6c30e0ef          	jal	80014498 <exp>
    800055da:	b0ea                	fsd	fs10,96(sp)
    800055dc:	0a8d7053          	fsub.d	ft0,fs10,fs0
    800055e0:	220010d3          	fneg.d	ft1,ft0
    800055e4:	12107053          	fmul.d	ft0,ft0,ft1
    800055e8:	13507053          	fmul.d	ft0,ft0,fs5
    800055ec:	22a50d53          	fmv.d	fs10,fa0
    800055f0:	22000553          	fmv.d	fa0,ft0
    800055f4:	6a50e0ef          	jal	80014498 <exp>
    800055f8:	23bd8353          	fmv.d	ft6,fs11
    800055fc:	23bd89d3          	fmv.d	fs3,fs11
    80005600:	00946c63          	bltu	s0,s1,80005618 <bilateral_core+0x32c0>
    80005604:	32813503          	ld	a0,808(sp)
    80005608:	20750513          	addi	a0,a0,519
    8000560c:	050e                	slli	a0,a0,0x3
    8000560e:	954e                	add	a0,a0,s3
    80005610:	00053307          	fld	ft6,0(a0)
    80005614:	0c0d3987          	fld	fs3,192(s10)
    80005618:	2b813007          	fld	ft0,696(sp)
    8000561c:	23813087          	fld	ft1,568(sp)
    80005620:	12107153          	fmul.d	ft2,ft0,ft1
    80005624:	28813007          	fld	ft0,648(sp)
    80005628:	23013087          	fld	ft1,560(sp)
    8000562c:	121071d3          	fmul.d	ft3,ft0,ft1
    80005630:	21813007          	fld	ft0,536(sp)
    80005634:	30fe                	fld	ft1,504(sp)
    80005636:	121072d3          	fmul.d	ft5,ft0,ft1
    8000563a:	22213c27          	fsd	ft2,568(sp)
    8000563e:	03b17053          	fadd.d	ft0,ft2,fs11
    80005642:	29013087          	fld	ft1,656(sp)
    80005646:	22813107          	fld	ft2,552(sp)
    8000564a:	1220f253          	fmul.d	ft4,ft1,ft2
    8000564e:	20813087          	fld	ft1,520(sp)
    80005652:	315e                	fld	ft2,496(sp)
    80005654:	1220f3d3          	fmul.d	ft7,ft1,ft2
    80005658:	20fe                	fld	ft1,472(sp)
    8000565a:	317a                	fld	ft2,440(sp)
    8000565c:	1220f653          	fmul.d	fa2,ft1,ft2
    80005660:	28313827          	fsd	ft3,656(sp)
    80005664:	02307053          	fadd.d	ft0,ft0,ft3
    80005668:	22513827          	fsd	ft5,560(sp)
    8000566c:	03b2f0d3          	fadd.d	ft1,ft5,fs11
    80005670:	25813107          	fld	ft2,600(sp)
    80005674:	22013187          	fld	ft3,544(sp)
    80005678:	123172d3          	fmul.d	ft5,ft2,ft3
    8000567c:	21013107          	fld	ft2,528(sp)
    80005680:	31be                	fld	ft3,488(sp)
    80005682:	123175d3          	fmul.d	fa1,ft2,ft3
    80005686:	215e                	fld	ft2,464(sp)
    80005688:	31da                	fld	ft3,432(sp)
    8000568a:	123176d3          	fmul.d	fa3,ft2,ft3
    8000568e:	28413427          	fsd	ft4,648(sp)
    80005692:	02407053          	fadd.d	ft0,ft0,ft4
    80005696:	22713427          	fsd	ft7,552(sp)
    8000569a:	0270f0d3          	fadd.d	ft1,ft1,ft7
    8000569e:	20c13827          	fsd	fa2,528(sp)
    800056a2:	03b67153          	fadd.d	ft2,fa2,fs11
    800056a6:	20013187          	fld	ft3,512(sp)
    800056aa:	321e                	fld	ft4,480(sp)
    800056ac:	1241f3d3          	fmul.d	ft7,ft3,ft4
    800056b0:	21be                	fld	ft3,456(sp)
    800056b2:	323a                	fld	ft4,424(sp)
    800056b4:	1241f653          	fmul.d	fa2,ft3,ft4
    800056b8:	24513c27          	fsd	ft5,600(sp)
    800056bc:	02507053          	fadd.d	ft0,ft0,ft5
    800056c0:	22b13027          	fsd	fa1,544(sp)
    800056c4:	02b0f0d3          	fadd.d	ft1,ft1,fa1
    800056c8:	20d13427          	fsd	fa3,520(sp)
    800056cc:	02d17153          	fadd.d	ft2,ft2,fa3
    800056d0:	21ba                	fld	ft3,392(sp)
    800056d2:	3276                	fld	ft4,376(sp)
    800056d4:	1241f2d3          	fmul.d	ft5,ft3,ft4
    800056d8:	219e                	fld	ft3,448(sp)
    800056da:	221a                	fld	ft4,384(sp)
    800056dc:	1241f5d3          	fmul.d	fa1,ft3,ft4
    800056e0:	03b07053          	fadd.d	ft0,ft0,fs11
    800056e4:	20713c27          	fsd	ft7,536(sp)
    800056e8:	0270f0d3          	fadd.d	ft1,ft1,ft7
    800056ec:	20c13027          	fsd	fa2,512(sp)
    800056f0:	02c17153          	fadd.d	ft2,ft2,fa2
    800056f4:	21fa                	fld	ft3,408(sp)
    800056f6:	3256                	fld	ft4,368(sp)
    800056f8:	1241f3d3          	fmul.d	ft7,ft3,ft4
    800056fc:	b396                	fsd	ft5,480(sp)
    800056fe:	03b2f1d3          	fadd.d	ft3,ft5,fs11
    80005702:	2236                	fld	ft4,328(sp)
    80005704:	32f2                	fld	ft5,312(sp)
    80005706:	125274d3          	fmul.d	fs1,ft4,ft5
    8000570a:	02107053          	fadd.d	ft0,ft0,ft1
    8000570e:	bfae                	fsd	fa1,504(sp)
    80005710:	02b170d3          	fadd.d	ft1,ft2,fa1
    80005714:	215a                	fld	ft2,400(sp)
    80005716:	3236                	fld	ft4,360(sp)
    80005718:	124172d3          	fmul.d	ft5,ft2,ft4
    8000571c:	af9e                	fsd	ft7,472(sp)
    8000571e:	0271f153          	fadd.d	ft2,ft3,ft7
    80005722:	21d6                	fld	ft3,336(sp)
    80005724:	3252                	fld	ft4,304(sp)
    80005726:	1241f5d3          	fmul.d	fa1,ft3,ft4
    8000572a:	03b4f1d3          	fadd.d	ft3,fs1,fs11
    8000572e:	13897bd3          	fmul.d	fs7,fs2,fs8
    80005732:	02107053          	fadd.d	ft0,ft0,ft1
    80005736:	309a                	fld	ft1,416(sp)
    80005738:	2216                	fld	ft4,320(sp)
    8000573a:	1240f3d3          	fmul.d	ft7,ft1,ft4
    8000573e:	bb96                	fsd	ft5,496(sp)
    80005740:	025170d3          	fadd.d	ft1,ft2,ft5
    80005744:	3116                	fld	ft2,352(sp)
    80005746:	3232                	fld	ft4,296(sp)
    80005748:	12417653          	fmul.d	fa2,ft2,ft4
    8000574c:	abae                	fsd	fa1,464(sp)
    8000574e:	02b1f153          	fadd.d	ft2,ft3,fa1
    80005752:	139b7953          	fmul.d	fs2,fs6,fs9
    80005756:	03bbf1d3          	fadd.d	ft3,fs7,fs11
    8000575a:	2276                	fld	ft4,344(sp)
    8000575c:	3292                	fld	ft5,288(sp)
    8000575e:	125272d3          	fmul.d	ft5,ft4,ft5
    80005762:	b79e                	fsd	ft7,488(sp)
    80005764:	0270f0d3          	fadd.d	ft1,ft1,ft7
    80005768:	13aa7d53          	fmul.d	fs10,fs4,fs10
    8000576c:	2a613c27          	fsd	ft6,696(sp)
    80005770:	0a837253          	fsub.d	ft4,ft6,fs0
    80005774:	a7b2                	fsd	fa2,456(sp)
    80005776:	02c17153          	fadd.d	ft2,ft2,fa2
    8000577a:	0321f1d3          	fadd.d	ft3,ft3,fs2
    8000577e:	02107053          	fadd.d	ft0,ft0,ft1
    80005782:	31813087          	fld	ft1,792(sp)
    80005786:	12a0fc53          	fmul.d	fs8,ft1,fa0
    8000578a:	224210d3          	fneg.d	ft1,ft4
    8000578e:	30513c27          	fsd	ft5,792(sp)
    80005792:	02517153          	fadd.d	ft2,ft2,ft5
    80005796:	03a1f1d3          	fadd.d	ft3,ft3,fs10
    8000579a:	121270d3          	fmul.d	ft1,ft4,ft1
    8000579e:	02207053          	fadd.d	ft0,ft0,ft2
    800057a2:	0381f153          	fadd.d	ft2,ft3,fs8
    800057a6:	1350f553          	fmul.d	fa0,ft1,fs5
    800057aa:	02207a53          	fadd.d	fs4,ft0,ft2
    800057ae:	4eb0e0ef          	jal	80014498 <exp>
    800057b2:	0a8df053          	fsub.d	ft0,fs11,fs0
    800057b6:	220010d3          	fneg.d	ft1,ft0
    800057ba:	12107053          	fmul.d	ft0,ft0,ft1
    800057be:	12a9f9d3          	fmul.d	fs3,fs3,fa0
    800057c2:	13507453          	fmul.d	fs0,ft0,fs5
    800057c6:	03b9fcd3          	fadd.d	fs9,fs3,fs11
    800057ca:	22840553          	fmv.d	fa0,fs0
    800057ce:	4cb0e0ef          	jal	80014498 <exp>
    800057d2:	13b57ad3          	fmul.d	fs5,fa0,fs11
    800057d6:	035cfb53          	fadd.d	fs6,fs9,fs5
    800057da:	22840553          	fmv.d	fa0,fs0
    800057de:	4bb0e0ef          	jal	80014498 <exp>
    800057e2:	13b57cd3          	fmul.d	fs9,fa0,fs11
    800057e6:	039b7b53          	fadd.d	fs6,fs6,fs9
    800057ea:	22840553          	fmv.d	fa0,fs0
    800057ee:	4ab0e0ef          	jal	80014498 <exp>
    800057f2:	13b570d3          	fmul.d	ft1,fa0,fs11
    800057f6:	021b7053          	fadd.d	ft0,fs6,ft1
    800057fa:	020a7053          	fadd.d	ft0,fs4,ft0
    800057fe:	37813107          	fld	ft2,888(sp)
    80005802:	a2011553          	flt.d	a0,ft2,ft0
    80005806:	10050763          	beqz	a0,80005914 <bilateral_core+0x35bc>
    8000580a:	2172                	fld	ft2,280(sp)
    8000580c:	23813187          	fld	ft3,568(sp)
    80005810:	da317143          	fmadd.d	ft2,ft2,ft3,fs11
    80005814:	31ee                	fld	ft3,248(sp)
    80005816:	23013207          	fld	ft4,560(sp)
    8000581a:	da41f1c3          	fmadd.d	ft3,ft3,ft4,fs11
    8000581e:	2232                	fld	ft4,264(sp)
    80005820:	29013287          	fld	ft5,656(sp)
    80005824:	12527143          	fmadd.d	ft2,ft4,ft5,ft2
    80005828:	226e                	fld	ft4,216(sp)
    8000582a:	21013287          	fld	ft5,528(sp)
    8000582e:	da527243          	fmadd.d	ft4,ft4,ft5,fs11
    80005832:	32ce                	fld	ft5,240(sp)
    80005834:	22813307          	fld	ft6,552(sp)
    80005838:	1a62f1c3          	fmadd.d	ft3,ft5,ft6,ft3
    8000583c:	22d2                	fld	ft5,272(sp)
    8000583e:	28813307          	fld	ft6,648(sp)
    80005842:	1262f143          	fmadd.d	ft2,ft5,ft6,ft2
    80005846:	22ce                	fld	ft5,208(sp)
    80005848:	20813307          	fld	ft6,520(sp)
    8000584c:	2262f243          	fmadd.d	ft4,ft5,ft6,ft4
    80005850:	32ca                	fld	ft5,176(sp)
    80005852:	331e                	fld	ft6,480(sp)
    80005854:	da62f2c3          	fmadd.d	ft5,ft5,ft6,fs11
    80005858:	332e                	fld	ft6,232(sp)
    8000585a:	22013387          	fld	ft7,544(sp)
    8000585e:	1a7371c3          	fmadd.d	ft3,ft6,ft7,ft3
    80005862:	2312                	fld	ft6,256(sp)
    80005864:	25813387          	fld	ft7,600(sp)
    80005868:	12737143          	fmadd.d	ft2,ft6,ft7,ft2
    8000586c:	232e                	fld	ft6,200(sp)
    8000586e:	20013387          	fld	ft7,512(sp)
    80005872:	22737243          	fmadd.d	ft4,ft6,ft7,ft4
    80005876:	230a                	fld	ft6,128(sp)
    80005878:	da937343          	fmadd.d	ft6,ft6,fs1,fs11
    8000587c:	33aa                	fld	ft7,168(sp)
    8000587e:	257e                	fld	fa0,472(sp)
    80005880:	2aa3f2c3          	fmadd.d	ft5,ft7,fa0,ft5
    80005884:	338e                	fld	ft7,224(sp)
    80005886:	21813507          	fld	fa0,536(sp)
    8000588a:	1aa3f1c3          	fmadd.d	ft3,ft7,fa0,ft3
    8000588e:	03b17153          	fadd.d	ft2,ft2,fs11
    80005892:	238e                	fld	ft7,192(sp)
    80005894:	357e                	fld	fa0,504(sp)
    80005896:	22a3f243          	fmadd.d	ft4,ft7,fa0,ft4
    8000589a:	33c6                	fld	ft7,112(sp)
    8000589c:	db73f3c3          	fmadd.d	ft7,ft7,fs7,fs11
    800058a0:	252a                	fld	fa0,136(sp)
    800058a2:	25de                	fld	fa1,464(sp)
    800058a4:	32b57343          	fmadd.d	ft6,fa0,fa1,ft6
    800058a8:	350a                	fld	fa0,160(sp)
    800058aa:	35de                	fld	fa1,496(sp)
    800058ac:	2ab572c3          	fmadd.d	ft5,fa0,fa1,ft5
    800058b0:	02317153          	fadd.d	ft2,ft2,ft3
    800058b4:	f20001d3          	fmv.d.x	ft3,zero
    800058b8:	2b813507          	fld	fa0,696(sp)
    800058bc:	1b357543          	fmadd.d	fa0,fa0,fs3,ft3
    800058c0:	35a6                	fld	fa1,104(sp)
    800058c2:	3b25f3c3          	fmadd.d	ft7,fa1,fs2,ft7
    800058c6:	25ea                	fld	fa1,152(sp)
    800058c8:	263e                	fld	fa2,456(sp)
    800058ca:	32c5f343          	fmadd.d	ft6,fa1,fa2,ft6
    800058ce:	35ea                	fld	fa1,184(sp)
    800058d0:	363e                	fld	fa2,488(sp)
    800058d2:	2ac5f2c3          	fmadd.d	ft5,fa1,fa2,ft5
    800058d6:	02417153          	fadd.d	ft2,ft2,ft4
    800058da:	523af243          	fmadd.d	ft4,fs5,ft3,fa0
    800058de:	3566                	fld	fa0,120(sp)
    800058e0:	3ba573c3          	fmadd.d	ft7,fa0,fs10,ft7
    800058e4:	254a                	fld	fa0,144(sp)
    800058e6:	31813587          	fld	fa1,792(sp)
    800058ea:	32b57343          	fmadd.d	ft6,fa0,fa1,ft6
    800058ee:	02517153          	fadd.d	ft2,ft2,ft5
    800058f2:	223cf243          	fmadd.d	ft4,fs9,ft3,ft4
    800058f6:	3286                	fld	ft5,96(sp)
    800058f8:	3b82f2c3          	fmadd.d	ft5,ft5,fs8,ft7
    800058fc:	02617153          	fadd.d	ft2,ft2,ft6
    80005900:	2230f0c3          	fmadd.d	ft1,ft1,ft3,ft4
    80005904:	02517153          	fadd.d	ft2,ft2,ft5
    80005908:	021170d3          	fadd.d	ft1,ft2,ft1
    8000590c:	1a00f053          	fdiv.d	ft0,ft1,ft0
    80005910:	e2000b53          	fmv.x.d	s6,ft0
    80005914:	38813503          	ld	a0,904(sp)
    80005918:	28013583          	ld	a1,640(sp)
    8000591c:	952e                	add	a0,a0,a1
    8000591e:	01653023          	sd	s6,0(a0)
    80005922:	f2000dd3          	fmv.d.x	fs11,zero
    80005926:	000cbb03          	ld	s6,0(s9)
    8000592a:	23bd8153          	fmv.d	ft2,fs11
    8000592e:	23bd84d3          	fmv.d	fs1,fs11
    80005932:	23bd80d3          	fmv.d	ft1,fs11
    80005936:	23bd8053          	fmv.d	ft0,fs11
    8000593a:	23bd8953          	fmv.d	fs2,fs11
    8000593e:	23bd81d3          	fmv.d	ft3,fs11
    80005942:	23bd89d3          	fmv.d	fs3,fs11
    80005946:	23bd8253          	fmv.d	ft4,fs11
    8000594a:	34013403          	ld	s0,832(sp)
    8000594e:	e025                	bnez	s0,800059ae <bilateral_core+0x3656>
    80005950:	33813683          	ld	a3,824(sp)
    80005954:	30013503          	ld	a0,768(sp)
    80005958:	9536                	add	a0,a0,a3
    8000595a:	2c013583          	ld	a1,704(sp)
    8000595e:	8d6d                	and	a0,a0,a1
    80005960:	050e                	slli	a0,a0,0x3
    80005962:	954e                	add	a0,a0,s3
    80005964:	00053007          	fld	ft0,0(a0)
    80005968:	000d3087          	fld	ft1,0(s10)
    8000596c:	01868533          	add	a0,a3,s8
    80005970:	37013603          	ld	a2,880(sp)
    80005974:	0f560593          	addi	a1,a2,245
    80005978:	8d6d                	and	a0,a0,a1
    8000597a:	050e                	slli	a0,a0,0x3
    8000597c:	954e                	add	a0,a0,s3
    8000597e:	00053907          	fld	fs2,0(a0)
    80005982:	008d3187          	fld	ft3,8(s10)
    80005986:	30813503          	ld	a0,776(sp)
    8000598a:	956e                	add	a0,a0,s11
    8000598c:	050e                	slli	a0,a0,0x3
    8000598e:	954e                	add	a0,a0,s3
    80005990:	2104                	fld	fs1,0(a0)
    80005992:	010d3107          	fld	ft2,16(s10)
    80005996:	32013503          	ld	a0,800(sp)
    8000599a:	9536                	add	a0,a0,a3
    8000599c:	0f760593          	addi	a1,a2,247
    800059a0:	8d6d                	and	a0,a0,a1
    800059a2:	050e                	slli	a0,a0,0x3
    800059a4:	954e                	add	a0,a0,s3
    800059a6:	00053987          	fld	fs3,0(a0)
    800059aa:	018d3207          	fld	ft4,24(s10)
    800059ae:	22413827          	fsd	ft4,560(sp)
    800059b2:	24313c27          	fsd	ft3,600(sp)
    800059b6:	28213027          	fsd	ft2,640(sp)
    800059ba:	28113427          	fsd	ft1,648(sp)
    800059be:	f20b0453          	fmv.d.x	fs0,s6
    800059c2:	aa02                	fsd	ft0,272(sp)
    800059c4:	0a807053          	fsub.d	ft0,ft0,fs0
    800059c8:	220010d3          	fneg.d	ft1,ft0
    800059cc:	12107053          	fmul.d	ft0,ft0,ft1
    800059d0:	38013a87          	fld	fs5,896(sp)
    800059d4:	13507553          	fmul.d	fa0,ft0,fs5
    800059d8:	2c10e0ef          	jal	80014498 <exp>
    800059dc:	a24a                	fsd	fs2,256(sp)
    800059de:	0a897053          	fsub.d	ft0,fs2,fs0
    800059e2:	220010d3          	fneg.d	ft1,ft0
    800059e6:	12107053          	fmul.d	ft0,ft0,ft1
    800059ea:	13507053          	fmul.d	ft0,ft0,fs5
    800059ee:	22a13427          	fsd	fa0,552(sp)
    800059f2:	22000553          	fmv.d	fa0,ft0
    800059f6:	2a30e0ef          	jal	80014498 <exp>
    800059fa:	a626                	fsd	fs1,264(sp)
    800059fc:	0a84f053          	fsub.d	ft0,fs1,fs0
    80005a00:	220010d3          	fneg.d	ft1,ft0
    80005a04:	12107053          	fmul.d	ft0,ft0,ft1
    80005a08:	13507053          	fmul.d	ft0,ft0,fs5
    80005a0c:	22a13027          	fsd	fa0,544(sp)
    80005a10:	22000553          	fmv.d	fa0,ft0
    80005a14:	2850e0ef          	jal	80014498 <exp>
    80005a18:	0a89f053          	fsub.d	ft0,fs3,fs0
    80005a1c:	220010d3          	fneg.d	ft1,ft0
    80005a20:	12107053          	fmul.d	ft0,ft0,ft1
    80005a24:	13507053          	fmul.d	ft0,ft0,fs5
    80005a28:	20a13c27          	fsd	fa0,536(sp)
    80005a2c:	22000553          	fmv.d	fa0,ft0
    80005a30:	2690e0ef          	jal	80014498 <exp>
    80005a34:	20a13827          	fsd	fa0,528(sp)
    80005a38:	23bd8053          	fmv.d	ft0,fs11
    80005a3c:	23bd80d3          	fmv.d	ft1,fs11
    80005a40:	e00d                	bnez	s0,80005a62 <bilateral_core+0x370a>
    80005a42:	00896513          	ori	a0,s2,8
    80005a46:	33813583          	ld	a1,824(sp)
    80005a4a:	952e                	add	a0,a0,a1
    80005a4c:	37013583          	ld	a1,880(sp)
    80005a50:	0f858593          	addi	a1,a1,248
    80005a54:	8d6d                	and	a0,a0,a1
    80005a56:	050e                	slli	a0,a0,0x3
    80005a58:	954e                	add	a0,a0,s3
    80005a5a:	00053007          	fld	ft0,0(a0)
    80005a5e:	020d3087          	fld	ft1,32(s10)
    80005a62:	20113427          	fsd	ft1,520(sp)
    80005a66:	23bd80d3          	fmv.d	ft1,fs11
    80005a6a:	23bd84d3          	fmv.d	fs1,fs11
    80005a6e:	23bd8953          	fmv.d	fs2,fs11
    80005a72:	23bd8153          	fmv.d	ft2,fs11
    80005a76:	23bd8bd3          	fmv.d	fs7,fs11
    80005a7a:	23bd81d3          	fmv.d	ft3,fs11
    80005a7e:	040b9563          	bnez	s7,80005ac8 <bilateral_core+0x3770>
    80005a82:	35013583          	ld	a1,848(sp)
    80005a86:	30013503          	ld	a0,768(sp)
    80005a8a:	952e                	add	a0,a0,a1
    80005a8c:	2c013603          	ld	a2,704(sp)
    80005a90:	8d71                	and	a0,a0,a2
    80005a92:	050e                	slli	a0,a0,0x3
    80005a94:	954e                	add	a0,a0,s3
    80005a96:	00053907          	fld	fs2,0(a0)
    80005a9a:	028d3107          	fld	ft2,40(s10)
    80005a9e:	01858533          	add	a0,a1,s8
    80005aa2:	37013583          	ld	a1,880(sp)
    80005aa6:	0f558593          	addi	a1,a1,245
    80005aaa:	8d6d                	and	a0,a0,a1
    80005aac:	050e                	slli	a0,a0,0x3
    80005aae:	954e                	add	a0,a0,s3
    80005ab0:	2104                	fld	fs1,0(a0)
    80005ab2:	030d3087          	fld	ft1,48(s10)
    80005ab6:	33013503          	ld	a0,816(sp)
    80005aba:	956e                	add	a0,a0,s11
    80005abc:	050e                	slli	a0,a0,0x3
    80005abe:	954e                	add	a0,a0,s3
    80005ac0:	00053b87          	fld	fs7,0(a0)
    80005ac4:	038d3187          	fld	ft3,56(s10)
    80005ac8:	bb8e                	fsd	ft3,496(sp)
    80005aca:	bf8a                	fsd	ft2,504(sp)
    80005acc:	20113027          	fsd	ft1,512(sp)
    80005ad0:	b982                	fsd	ft0,240(sp)
    80005ad2:	0a807053          	fsub.d	ft0,ft0,fs0
    80005ad6:	220010d3          	fneg.d	ft1,ft0
    80005ada:	12107053          	fmul.d	ft0,ft0,ft1
    80005ade:	13507553          	fmul.d	fa0,ft0,fs5
    80005ae2:	1b70e0ef          	jal	80014498 <exp>
    80005ae6:	0a897053          	fsub.d	ft0,fs2,fs0
    80005aea:	220010d3          	fneg.d	ft1,ft0
    80005aee:	12107053          	fmul.d	ft0,ft0,ft1
    80005af2:	13507053          	fmul.d	ft0,ft0,fs5
    80005af6:	b7aa                	fsd	fa0,488(sp)
    80005af8:	22000553          	fmv.d	fa0,ft0
    80005afc:	19d0e0ef          	jal	80014498 <exp>
    80005b00:	0a84f053          	fsub.d	ft0,fs1,fs0
    80005b04:	220010d3          	fneg.d	ft1,ft0
    80005b08:	12107053          	fmul.d	ft0,ft0,ft1
    80005b0c:	13507053          	fmul.d	ft0,ft0,fs5
    80005b10:	b3aa                	fsd	fa0,480(sp)
    80005b12:	22000553          	fmv.d	fa0,ft0
    80005b16:	1830e0ef          	jal	80014498 <exp>
    80005b1a:	0a8bf053          	fsub.d	ft0,fs7,fs0
    80005b1e:	220010d3          	fneg.d	ft1,ft0
    80005b22:	12107053          	fmul.d	ft0,ft0,ft1
    80005b26:	13507053          	fmul.d	ft0,ft0,fs5
    80005b2a:	afaa                	fsd	fa0,472(sp)
    80005b2c:	22000553          	fmv.d	fa0,ft0
    80005b30:	1690e0ef          	jal	80014498 <exp>
    80005b34:	abaa                	fsd	fa0,464(sp)
    80005b36:	23bd80d3          	fmv.d	ft1,fs11
    80005b3a:	23bd8053          	fmv.d	ft0,fs11
    80005b3e:	23bd8c53          	fmv.d	fs8,fs11
    80005b42:	23bd8153          	fmv.d	ft2,fs11
    80005b46:	020b9e63          	bnez	s7,80005b82 <bilateral_core+0x382a>
    80005b4a:	35013683          	ld	a3,848(sp)
    80005b4e:	32013503          	ld	a0,800(sp)
    80005b52:	9536                	add	a0,a0,a3
    80005b54:	37013603          	ld	a2,880(sp)
    80005b58:	0f760593          	addi	a1,a2,247
    80005b5c:	8d6d                	and	a0,a0,a1
    80005b5e:	050e                	slli	a0,a0,0x3
    80005b60:	954e                	add	a0,a0,s3
    80005b62:	00053007          	fld	ft0,0(a0)
    80005b66:	040d3087          	fld	ft1,64(s10)
    80005b6a:	00896513          	ori	a0,s2,8
    80005b6e:	9536                	add	a0,a0,a3
    80005b70:	0f860593          	addi	a1,a2,248
    80005b74:	8d6d                	and	a0,a0,a1
    80005b76:	050e                	slli	a0,a0,0x3
    80005b78:	954e                	add	a0,a0,s3
    80005b7a:	00053c07          	fld	fs8,0(a0)
    80005b7e:	048d3107          	fld	ft2,72(s10)
    80005b82:	b5ca                	fsd	fs2,232(sp)
    80005b84:	a38a                	fsd	ft2,448(sp)
    80005b86:	a786                	fsd	ft1,456(sp)
    80005b88:	bdce                	fsd	fs3,248(sp)
    80005b8a:	a982                	fsd	ft0,208(sp)
    80005b8c:	0a807053          	fsub.d	ft0,ft0,fs0
    80005b90:	220010d3          	fneg.d	ft1,ft0
    80005b94:	12107053          	fmul.d	ft0,ft0,ft1
    80005b98:	000a3987          	fld	fs3,0(s4)
    80005b9c:	050d3087          	fld	ft1,80(s10)
    80005ba0:	bf06                	fsd	ft1,440(sp)
    80005ba2:	37013503          	ld	a0,880(sp)
    80005ba6:	0f550513          	addi	a0,a0,245
    80005baa:	13507553          	fmul.d	fa0,ft0,fs5
    80005bae:	2aa13c23          	sd	a0,696(sp)
    80005bb2:	29813583          	ld	a1,664(sp)
    80005bb6:	8d6d                	and	a0,a0,a1
    80005bb8:	050e                	slli	a0,a0,0x3
    80005bba:	00a98a33          	add	s4,s3,a0
    80005bbe:	000a3c87          	fld	fs9,0(s4)
    80005bc2:	058d3007          	fld	ft0,88(s10)
    80005bc6:	bb02                	fsd	ft0,432(sp)
    80005bc8:	0d10e0ef          	jal	80014498 <exp>
    80005bcc:	a5e2                	fsd	fs8,200(sp)
    80005bce:	0a8c7053          	fsub.d	ft0,fs8,fs0
    80005bd2:	220010d3          	fneg.d	ft1,ft0
    80005bd6:	12107053          	fmul.d	ft0,ft0,ft1
    80005bda:	13507053          	fmul.d	ft0,ft0,fs5
    80005bde:	b72a                	fsd	fa0,424(sp)
    80005be0:	22000553          	fmv.d	fa0,ft0
    80005be4:	0b50e0ef          	jal	80014498 <exp>
    80005be8:	a1ce                	fsd	fs3,192(sp)
    80005bea:	0a89f053          	fsub.d	ft0,fs3,fs0
    80005bee:	220010d3          	fneg.d	ft1,ft0
    80005bf2:	12107053          	fmul.d	ft0,ft0,ft1
    80005bf6:	13507053          	fmul.d	ft0,ft0,fs5
    80005bfa:	b32a                	fsd	fa0,416(sp)
    80005bfc:	22000553          	fmv.d	fa0,ft0
    80005c00:	0990e0ef          	jal	80014498 <exp>
    80005c04:	bd66                	fsd	fs9,184(sp)
    80005c06:	0a8cf053          	fsub.d	ft0,fs9,fs0
    80005c0a:	220010d3          	fneg.d	ft1,ft0
    80005c0e:	12107053          	fmul.d	ft0,ft0,ft1
    80005c12:	13507053          	fmul.d	ft0,ft0,fs5
    80005c16:	af2a                	fsd	fa0,408(sp)
    80005c18:	22000553          	fmv.d	fa0,ft0
    80005c1c:	07d0e0ef          	jal	80014498 <exp>
    80005c20:	000cb007          	fld	ft0,0(s9)
    80005c24:	b502                	fsd	ft0,168(sp)
    80005c26:	0a807053          	fsub.d	ft0,ft0,fs0
    80005c2a:	220010d3          	fneg.d	ft1,ft0
    80005c2e:	12107053          	fmul.d	ft0,ft0,ft1
    80005c32:	060d3087          	fld	ft1,96(s10)
    80005c36:	a306                	fsd	ft1,384(sp)
    80005c38:	000abc07          	fld	fs8,0(s5)
    80005c3c:	068d3087          	fld	ft1,104(s10)
    80005c40:	ab06                	fsd	ft1,400(sp)
    80005c42:	00896413          	ori	s0,s2,8
    80005c46:	36013503          	ld	a0,864(sp)
    80005c4a:	9522                	add	a0,a0,s0
    80005c4c:	28a13c23          	sd	a0,664(sp)
    80005c50:	050e                	slli	a0,a0,0x3
    80005c52:	13507053          	fmul.d	ft0,ft0,fs5
    80005c56:	22a13c23          	sd	a0,568(sp)
    80005c5a:	00a98cb3          	add	s9,s3,a0
    80005c5e:	000cbc87          	fld	fs9,0(s9)
    80005c62:	070d3087          	fld	ft1,112(s10)
    80005c66:	a706                	fsd	ft1,392(sp)
    80005c68:	2b013503          	ld	a0,688(sp)
    80005c6c:	00053987          	fld	fs3,0(a0)
    80005c70:	078d3087          	fld	ft1,120(s10)
    80005c74:	2a113827          	fsd	ft1,688(sp)
    80005c78:	beaa                	fsd	fa0,376(sp)
    80005c7a:	22000553          	fmv.d	fa0,ft0
    80005c7e:	01b0e0ef          	jal	80014498 <exp>
    80005c82:	b162                	fsd	fs8,160(sp)
    80005c84:	0a8c7053          	fsub.d	ft0,fs8,fs0
    80005c88:	220010d3          	fneg.d	ft1,ft0
    80005c8c:	12107053          	fmul.d	ft0,ft0,ft1
    80005c90:	13507053          	fmul.d	ft0,ft0,fs5
    80005c94:	baaa                	fsd	fa0,368(sp)
    80005c96:	22000553          	fmv.d	fa0,ft0
    80005c9a:	7fe0e0ef          	jal	80014498 <exp>
    80005c9e:	ad66                	fsd	fs9,152(sp)
    80005ca0:	0a8cf053          	fsub.d	ft0,fs9,fs0
    80005ca4:	220010d3          	fneg.d	ft1,ft0
    80005ca8:	12107053          	fmul.d	ft0,ft0,ft1
    80005cac:	13507053          	fmul.d	ft0,ft0,fs5
    80005cb0:	b6aa                	fsd	fa0,360(sp)
    80005cb2:	22000553          	fmv.d	fa0,ft0
    80005cb6:	7e20e0ef          	jal	80014498 <exp>
    80005cba:	b94e                	fsd	fs3,176(sp)
    80005cbc:	0a89f053          	fsub.d	ft0,fs3,fs0
    80005cc0:	220010d3          	fneg.d	ft1,ft0
    80005cc4:	12107053          	fmul.d	ft0,ft0,ft1
    80005cc8:	13507053          	fmul.d	ft0,ft0,fs5
    80005ccc:	b2aa                	fsd	fa0,352(sp)
    80005cce:	22000553          	fmv.d	fa0,ft0
    80005cd2:	7c60e0ef          	jal	80014498 <exp>
    80005cd6:	2a813503          	ld	a0,680(sp)
    80005cda:	00053007          	fld	ft0,0(a0)
    80005cde:	bc82                	fsd	ft0,120(sp)
    80005ce0:	0a807053          	fsub.d	ft0,ft0,fs0
    80005ce4:	220010d3          	fneg.d	ft1,ft0
    80005ce8:	12107053          	fmul.d	ft0,ft0,ft1
    80005cec:	080d3087          	fld	ft1,128(s10)
    80005cf0:	a286                	fsd	ft1,320(sp)
    80005cf2:	2f813503          	ld	a0,760(sp)
    80005cf6:	00053c87          	fld	fs9,0(a0)
    80005cfa:	088d3087          	fld	ft1,136(s10)
    80005cfe:	a686                	fsd	ft1,328(sp)
    80005d00:	2d813503          	ld	a0,728(sp)
    80005d04:	00053987          	fld	fs3,0(a0)
    80005d08:	090d3087          	fld	ft1,144(s10)
    80005d0c:	ae86                	fsd	ft1,344(sp)
    80005d0e:	13507053          	fmul.d	ft0,ft0,fs5
    80005d12:	30813c23          	sd	s0,792(sp)
    80005d16:	36813503          	ld	a0,872(sp)
    80005d1a:	9522                	add	a0,a0,s0
    80005d1c:	050e                	slli	a0,a0,0x3
    80005d1e:	954e                	add	a0,a0,s3
    80005d20:	28a13823          	sd	a0,656(sp)
    80005d24:	00053c07          	fld	fs8,0(a0)
    80005d28:	098d3087          	fld	ft1,152(s10)
    80005d2c:	aa86                	fsd	ft1,336(sp)
    80005d2e:	be2a                	fsd	fa0,312(sp)
    80005d30:	22000553          	fmv.d	fa0,ft0
    80005d34:	7640e0ef          	jal	80014498 <exp>
    80005d38:	a166                	fsd	fs9,128(sp)
    80005d3a:	0a8cf053          	fsub.d	ft0,fs9,fs0
    80005d3e:	220010d3          	fneg.d	ft1,ft0
    80005d42:	12107053          	fmul.d	ft0,ft0,ft1
    80005d46:	13507053          	fmul.d	ft0,ft0,fs5
    80005d4a:	ba2a                	fsd	fa0,304(sp)
    80005d4c:	22000553          	fmv.d	fa0,ft0
    80005d50:	7480e0ef          	jal	80014498 <exp>
    80005d54:	a94e                	fsd	fs3,144(sp)
    80005d56:	0a89f053          	fsub.d	ft0,fs3,fs0
    80005d5a:	220010d3          	fneg.d	ft1,ft0
    80005d5e:	12107053          	fmul.d	ft0,ft0,ft1
    80005d62:	13507053          	fmul.d	ft0,ft0,fs5
    80005d66:	b62a                	fsd	fa0,296(sp)
    80005d68:	22000553          	fmv.d	fa0,ft0
    80005d6c:	72c0e0ef          	jal	80014498 <exp>
    80005d70:	a562                	fsd	fs8,136(sp)
    80005d72:	0a8c7053          	fsub.d	ft0,fs8,fs0
    80005d76:	220010d3          	fneg.d	ft1,ft0
    80005d7a:	12107053          	fmul.d	ft0,ft0,ft1
    80005d7e:	13507053          	fmul.d	ft0,ft0,fs5
    80005d82:	b22a                	fsd	fa0,288(sp)
    80005d84:	22000553          	fmv.d	fa0,ft0
    80005d88:	7100e0ef          	jal	80014498 <exp>
    80005d8c:	ae2a                	fsd	fa0,280(sp)
    80005d8e:	23bd8a53          	fmv.d	fs4,fs11
    80005d92:	23bd89d3          	fmv.d	fs3,fs11
    80005d96:	23bd8953          	fmv.d	fs2,fs11
    80005d9a:	23bd8053          	fmv.d	ft0,fs11
    80005d9e:	23bd8c53          	fmv.d	fs8,fs11
    80005da2:	23bd8b53          	fmv.d	fs6,fs11
    80005da6:	23bd8d53          	fmv.d	fs10,fs11
    80005daa:	23bd8253          	fmv.d	ft4,fs11
    80005dae:	0fd00b93          	li	s7,253
    80005db2:	39013483          	ld	s1,912(sp)
    80005db6:	049be663          	bltu	s7,s1,80005e02 <bilateral_core+0x3aaa>
    80005dba:	34813583          	ld	a1,840(sp)
    80005dbe:	30013503          	ld	a0,768(sp)
    80005dc2:	952e                	add	a0,a0,a1
    80005dc4:	050e                	slli	a0,a0,0x3
    80005dc6:	954e                	add	a0,a0,s3
    80005dc8:	00053007          	fld	ft0,0(a0)
    80005dcc:	0a0d3907          	fld	fs2,160(s10)
    80005dd0:	01858533          	add	a0,a1,s8
    80005dd4:	050e                	slli	a0,a0,0x3
    80005dd6:	954e                	add	a0,a0,s3
    80005dd8:	00053c07          	fld	fs8,0(a0)
    80005ddc:	0a8d3b07          	fld	fs6,168(s10)
    80005de0:	01b58533          	add	a0,a1,s11
    80005de4:	050e                	slli	a0,a0,0x3
    80005de6:	954e                	add	a0,a0,s3
    80005de8:	00053987          	fld	fs3,0(a0)
    80005dec:	0b0d3a07          	fld	fs4,176(s10)
    80005df0:	32013503          	ld	a0,800(sp)
    80005df4:	952e                	add	a0,a0,a1
    80005df6:	050e                	slli	a0,a0,0x3
    80005df8:	954e                	add	a0,a0,s3
    80005dfa:	00053d07          	fld	fs10,0(a0)
    80005dfe:	0b8d3207          	fld	ft4,184(s10)
    80005e02:	30413027          	fsd	ft4,768(sp)
    80005e06:	adde                	fsd	fs7,216(sp)
    80005e08:	b1a6                	fsd	fs1,224(sp)
    80005e0a:	b482                	fsd	ft0,104(sp)
    80005e0c:	0a807053          	fsub.d	ft0,ft0,fs0
    80005e10:	220010d3          	fneg.d	ft1,ft0
    80005e14:	12107053          	fmul.d	ft0,ft0,ft1
    80005e18:	13507553          	fmul.d	fa0,ft0,fs5
    80005e1c:	67c0e0ef          	jal	80014498 <exp>
    80005e20:	b0e2                	fsd	fs8,96(sp)
    80005e22:	0a8c7053          	fsub.d	ft0,fs8,fs0
    80005e26:	220010d3          	fneg.d	ft1,ft0
    80005e2a:	12107053          	fmul.d	ft0,ft0,ft1
    80005e2e:	13507053          	fmul.d	ft0,ft0,fs5
    80005e32:	22a50c53          	fmv.d	fs8,fa0
    80005e36:	22000553          	fmv.d	fa0,ft0
    80005e3a:	65e0e0ef          	jal	80014498 <exp>
    80005e3e:	b8ce                	fsd	fs3,112(sp)
    80005e40:	0a89f053          	fsub.d	ft0,fs3,fs0
    80005e44:	220010d3          	fneg.d	ft1,ft0
    80005e48:	12107053          	fmul.d	ft0,ft0,ft1
    80005e4c:	13507053          	fmul.d	ft0,ft0,fs5
    80005e50:	22a50cd3          	fmv.d	fs9,fa0
    80005e54:	22000553          	fmv.d	fa0,ft0
    80005e58:	6400e0ef          	jal	80014498 <exp>
    80005e5c:	acea                	fsd	fs10,88(sp)
    80005e5e:	0a8d7053          	fsub.d	ft0,fs10,fs0
    80005e62:	220010d3          	fneg.d	ft1,ft0
    80005e66:	12107053          	fmul.d	ft0,ft0,ft1
    80005e6a:	13507053          	fmul.d	ft0,ft0,fs5
    80005e6e:	22a50d53          	fmv.d	fs10,fa0
    80005e72:	22000553          	fmv.d	fa0,ft0
    80005e76:	6220e0ef          	jal	80014498 <exp>
    80005e7a:	23bd8353          	fmv.d	ft6,fs11
    80005e7e:	23bd89d3          	fmv.d	fs3,fs11
    80005e82:	009bec63          	bltu	s7,s1,80005e9a <bilateral_core+0x3b42>
    80005e86:	32813503          	ld	a0,808(sp)
    80005e8a:	20850513          	addi	a0,a0,520
    80005e8e:	050e                	slli	a0,a0,0x3
    80005e90:	954e                	add	a0,a0,s3
    80005e92:	00053307          	fld	ft6,0(a0)
    80005e96:	0c0d3987          	fld	fs3,192(s10)
    80005e9a:	28813007          	fld	ft0,648(sp)
    80005e9e:	22813087          	fld	ft1,552(sp)
    80005ea2:	12107153          	fmul.d	ft2,ft0,ft1
    80005ea6:	25813007          	fld	ft0,600(sp)
    80005eaa:	22013087          	fld	ft1,544(sp)
    80005eae:	121071d3          	fmul.d	ft3,ft0,ft1
    80005eb2:	20813007          	fld	ft0,520(sp)
    80005eb6:	30be                	fld	ft1,488(sp)
    80005eb8:	121072d3          	fmul.d	ft5,ft0,ft1
    80005ebc:	24213c27          	fsd	ft2,600(sp)
    80005ec0:	03b17053          	fadd.d	ft0,ft2,fs11
    80005ec4:	28013087          	fld	ft1,640(sp)
    80005ec8:	21813107          	fld	ft2,536(sp)
    80005ecc:	1220f253          	fmul.d	ft4,ft1,ft2
    80005ed0:	30fe                	fld	ft1,504(sp)
    80005ed2:	311e                	fld	ft2,480(sp)
    80005ed4:	1220f3d3          	fmul.d	ft7,ft1,ft2
    80005ed8:	20be                	fld	ft1,456(sp)
    80005eda:	313a                	fld	ft2,424(sp)
    80005edc:	1220f653          	fmul.d	fa2,ft1,ft2
    80005ee0:	28313427          	fsd	ft3,648(sp)
    80005ee4:	02307053          	fadd.d	ft0,ft0,ft3
    80005ee8:	22513427          	fsd	ft5,552(sp)
    80005eec:	03b2f0d3          	fadd.d	ft1,ft5,fs11
    80005ef0:	23013107          	fld	ft2,560(sp)
    80005ef4:	21013187          	fld	ft3,528(sp)
    80005ef8:	123172d3          	fmul.d	ft5,ft2,ft3
    80005efc:	20013107          	fld	ft2,512(sp)
    80005f00:	21fe                	fld	ft3,472(sp)
    80005f02:	123175d3          	fmul.d	fa1,ft2,ft3
    80005f06:	211e                	fld	ft2,448(sp)
    80005f08:	319a                	fld	ft3,416(sp)
    80005f0a:	123176d3          	fmul.d	fa3,ft2,ft3
    80005f0e:	28413027          	fsd	ft4,640(sp)
    80005f12:	02407053          	fadd.d	ft0,ft0,ft4
    80005f16:	22713027          	fsd	ft7,544(sp)
    80005f1a:	0270f0d3          	fadd.d	ft1,ft1,ft7
    80005f1e:	20c13427          	fsd	fa2,520(sp)
    80005f22:	03b67153          	fadd.d	ft2,fa2,fs11
    80005f26:	31de                	fld	ft3,496(sp)
    80005f28:	225e                	fld	ft4,464(sp)
    80005f2a:	1241f3d3          	fmul.d	ft7,ft3,ft4
    80005f2e:	31fa                	fld	ft3,440(sp)
    80005f30:	227a                	fld	ft4,408(sp)
    80005f32:	1241f653          	fmul.d	fa2,ft3,ft4
    80005f36:	22513827          	fsd	ft5,560(sp)
    80005f3a:	02507053          	fadd.d	ft0,ft0,ft5
    80005f3e:	20b13c27          	fsd	fa1,536(sp)
    80005f42:	02b0f0d3          	fadd.d	ft1,ft1,fa1
    80005f46:	20d13027          	fsd	fa3,512(sp)
    80005f4a:	02d17153          	fadd.d	ft2,ft2,fa3
    80005f4e:	219a                	fld	ft3,384(sp)
    80005f50:	3256                	fld	ft4,368(sp)
    80005f52:	1241f2d3          	fmul.d	ft5,ft3,ft4
    80005f56:	31da                	fld	ft3,432(sp)
    80005f58:	3276                	fld	ft4,376(sp)
    80005f5a:	1241f5d3          	fmul.d	fa1,ft3,ft4
    80005f5e:	03b07053          	fadd.d	ft0,ft0,fs11
    80005f62:	20713827          	fsd	ft7,528(sp)
    80005f66:	0270f0d3          	fadd.d	ft1,ft1,ft7
    80005f6a:	bfb2                	fsd	fa2,504(sp)
    80005f6c:	02c17153          	fadd.d	ft2,ft2,fa2
    80005f70:	21da                	fld	ft3,400(sp)
    80005f72:	3236                	fld	ft4,360(sp)
    80005f74:	1241f3d3          	fmul.d	ft7,ft3,ft4
    80005f78:	af96                	fsd	ft5,472(sp)
    80005f7a:	03b2f1d3          	fadd.d	ft3,ft5,fs11
    80005f7e:	2216                	fld	ft4,320(sp)
    80005f80:	32d2                	fld	ft5,304(sp)
    80005f82:	125274d3          	fmul.d	fs1,ft4,ft5
    80005f86:	02107053          	fadd.d	ft0,ft0,ft1
    80005f8a:	bbae                	fsd	fa1,496(sp)
    80005f8c:	02b170d3          	fadd.d	ft1,ft2,fa1
    80005f90:	213a                	fld	ft2,392(sp)
    80005f92:	3216                	fld	ft4,352(sp)
    80005f94:	124172d3          	fmul.d	ft5,ft2,ft4
    80005f98:	ab9e                	fsd	ft7,464(sp)
    80005f9a:	0271f153          	fadd.d	ft2,ft3,ft7
    80005f9e:	21b6                	fld	ft3,328(sp)
    80005fa0:	3232                	fld	ft4,296(sp)
    80005fa2:	1241f5d3          	fmul.d	fa1,ft3,ft4
    80005fa6:	03b4f1d3          	fadd.d	ft3,fs1,fs11
    80005faa:	13897bd3          	fmul.d	fs7,fs2,fs8
    80005fae:	02107053          	fadd.d	ft0,ft0,ft1
    80005fb2:	2b013087          	fld	ft1,688(sp)
    80005fb6:	3272                	fld	ft4,312(sp)
    80005fb8:	1240f3d3          	fmul.d	ft7,ft1,ft4
    80005fbc:	b796                	fsd	ft5,488(sp)
    80005fbe:	025170d3          	fadd.d	ft1,ft2,ft5
    80005fc2:	2176                	fld	ft2,344(sp)
    80005fc4:	3212                	fld	ft4,288(sp)
    80005fc6:	12417653          	fmul.d	fa2,ft2,ft4
    80005fca:	a7ae                	fsd	fa1,456(sp)
    80005fcc:	02b1f153          	fadd.d	ft2,ft3,fa1
    80005fd0:	139b7953          	fmul.d	fs2,fs6,fs9
    80005fd4:	03bbf1d3          	fadd.d	ft3,fs7,fs11
    80005fd8:	2256                	fld	ft4,336(sp)
    80005fda:	22f2                	fld	ft5,280(sp)
    80005fdc:	125272d3          	fmul.d	ft5,ft4,ft5
    80005fe0:	b39e                	fsd	ft7,480(sp)
    80005fe2:	0270f0d3          	fadd.d	ft1,ft1,ft7
    80005fe6:	13aa7d53          	fmul.d	fs10,fs4,fs10
    80005fea:	2a613827          	fsd	ft6,688(sp)
    80005fee:	0a837253          	fsub.d	ft4,ft6,fs0
    80005ff2:	a3b2                	fsd	fa2,448(sp)
    80005ff4:	02c17153          	fadd.d	ft2,ft2,fa2
    80005ff8:	0321f1d3          	fadd.d	ft3,ft3,fs2
    80005ffc:	02107053          	fadd.d	ft0,ft0,ft1
    80006000:	30013087          	fld	ft1,768(sp)
    80006004:	12a0fc53          	fmul.d	fs8,ft1,fa0
    80006008:	224210d3          	fneg.d	ft1,ft4
    8000600c:	30513027          	fsd	ft5,768(sp)
    80006010:	02517153          	fadd.d	ft2,ft2,ft5
    80006014:	03a1f1d3          	fadd.d	ft3,ft3,fs10
    80006018:	121270d3          	fmul.d	ft1,ft4,ft1
    8000601c:	02207053          	fadd.d	ft0,ft0,ft2
    80006020:	0381f153          	fadd.d	ft2,ft3,fs8
    80006024:	1350f553          	fmul.d	fa0,ft1,fs5
    80006028:	02207a53          	fadd.d	fs4,ft0,ft2
    8000602c:	46c0e0ef          	jal	80014498 <exp>
    80006030:	0a8df053          	fsub.d	ft0,fs11,fs0
    80006034:	220010d3          	fneg.d	ft1,ft0
    80006038:	12107053          	fmul.d	ft0,ft0,ft1
    8000603c:	12a9f9d3          	fmul.d	fs3,fs3,fa0
    80006040:	13507453          	fmul.d	fs0,ft0,fs5
    80006044:	03b9fcd3          	fadd.d	fs9,fs3,fs11
    80006048:	22840553          	fmv.d	fa0,fs0
    8000604c:	44c0e0ef          	jal	80014498 <exp>
    80006050:	13b57ad3          	fmul.d	fs5,fa0,fs11
    80006054:	035cfb53          	fadd.d	fs6,fs9,fs5
    80006058:	22840553          	fmv.d	fa0,fs0
    8000605c:	43c0e0ef          	jal	80014498 <exp>
    80006060:	13b57cd3          	fmul.d	fs9,fa0,fs11
    80006064:	039b7b53          	fadd.d	fs6,fs6,fs9
    80006068:	22840553          	fmv.d	fa0,fs0
    8000606c:	42c0e0ef          	jal	80014498 <exp>
