
mainop-rocc_BASELINE_O2U4_YN.riscv:     file format elf64-littleriscv


Disassembly of section .text.init:

0000000080000000 <_start>:
    80000000:	4081                	li	ra,0
    80000002:	4101                	li	sp,0
    80000004:	4181                	li	gp,0
    80000006:	4201                	li	tp,0
    80000008:	4281                	li	t0,0
    8000000a:	4301                	li	t1,0
    8000000c:	4381                	li	t2,0
    8000000e:	4401                	li	s0,0
    80000010:	4481                	li	s1,0
    80000012:	4501                	li	a0,0
    80000014:	4581                	li	a1,0
    80000016:	4601                	li	a2,0
    80000018:	4681                	li	a3,0
    8000001a:	4701                	li	a4,0
    8000001c:	4781                	li	a5,0
    8000001e:	4801                	li	a6,0
    80000020:	4881                	li	a7,0
    80000022:	4901                	li	s2,0
    80000024:	4981                	li	s3,0
    80000026:	4a01                	li	s4,0
    80000028:	4a81                	li	s5,0
    8000002a:	4b01                	li	s6,0
    8000002c:	4b81                	li	s7,0
    8000002e:	4c01                	li	s8,0
    80000030:	4c81                	li	s9,0
    80000032:	4d01                	li	s10,0
    80000034:	4d81                	li	s11,0
    80000036:	4e01                	li	t3,0
    80000038:	4e81                	li	t4,0
    8000003a:	4f01                	li	t5,0
    8000003c:	4f81                	li	t6,0
    8000003e:	62f9                	lui	t0,0x1e
    80000040:	3002a073          	csrs	mstatus,t0
    80000044:	4285                	li	t0,1
    80000046:	02fe                	slli	t0,t0,0x1f
    80000048:	0002d863          	bgez	t0,80000058 <_start+0x58>
    8000004c:	4505                	li	a0,1
    8000004e:	00001297          	auipc	t0,0x1
    80000052:	faa2a923          	sw	a0,-78(t0) # 80001000 <tohost>
    80000056:	bfdd                	j	8000004c <_start+0x4c>
    80000058:	00000297          	auipc	t0,0x0
    8000005c:	09028293          	addi	t0,t0,144 # 800000e8 <_start+0xe8>
    80000060:	30529073          	csrw	mtvec,t0
    80000064:	00301073          	fscsr	zero
    80000068:	f0000053          	fmv.w.x	ft0,zero
    8000006c:	f00000d3          	fmv.w.x	ft1,zero
    80000070:	f0000153          	fmv.w.x	ft2,zero
    80000074:	f00001d3          	fmv.w.x	ft3,zero
    80000078:	f0000253          	fmv.w.x	ft4,zero
    8000007c:	f00002d3          	fmv.w.x	ft5,zero
    80000080:	f0000353          	fmv.w.x	ft6,zero
    80000084:	f00003d3          	fmv.w.x	ft7,zero
    80000088:	f0000453          	fmv.w.x	fs0,zero
    8000008c:	f00004d3          	fmv.w.x	fs1,zero
    80000090:	f0000553          	fmv.w.x	fa0,zero
    80000094:	f00005d3          	fmv.w.x	fa1,zero
    80000098:	f0000653          	fmv.w.x	fa2,zero
    8000009c:	f00006d3          	fmv.w.x	fa3,zero
    800000a0:	f0000753          	fmv.w.x	fa4,zero
    800000a4:	f00007d3          	fmv.w.x	fa5,zero
    800000a8:	f0000853          	fmv.w.x	fa6,zero
    800000ac:	f00008d3          	fmv.w.x	fa7,zero
    800000b0:	f0000953          	fmv.w.x	fs2,zero
    800000b4:	f00009d3          	fmv.w.x	fs3,zero
    800000b8:	f0000a53          	fmv.w.x	fs4,zero
    800000bc:	f0000ad3          	fmv.w.x	fs5,zero
    800000c0:	f0000b53          	fmv.w.x	fs6,zero
    800000c4:	f0000bd3          	fmv.w.x	fs7,zero
    800000c8:	f0000c53          	fmv.w.x	fs8,zero
    800000cc:	f0000cd3          	fmv.w.x	fs9,zero
    800000d0:	f0000d53          	fmv.w.x	fs10,zero
    800000d4:	f0000dd3          	fmv.w.x	fs11,zero
    800000d8:	f0000e53          	fmv.w.x	ft8,zero
    800000dc:	f0000ed3          	fmv.w.x	ft9,zero
    800000e0:	f0000f53          	fmv.w.x	ft10,zero
    800000e4:	f0000fd3          	fmv.w.x	ft11,zero
    800000e8:	00000297          	auipc	t0,0x0
    800000ec:	03c28293          	addi	t0,t0,60 # 80000124 <trap_entry>
    800000f0:	30529073          	csrw	mtvec,t0
    800000f4:	00004197          	auipc	gp,0x4
    800000f8:	25418193          	addi	gp,gp,596 # 80004348 <__global_pointer$>
    800000fc:	0000a217          	auipc	tp,0xa
    80000100:	8c320213          	addi	tp,tp,-1853 # 800099bf <_end+0x3f>
    80000104:	fc027213          	andi	tp,tp,-64
    80000108:	f1402573          	csrr	a0,mhartid
    8000010c:	4585                	li	a1,1
    8000010e:	00b57063          	bgeu	a0,a1,8000010e <_start+0x10e>
    80000112:	00150113          	addi	sp,a0,1
    80000116:	0146                	slli	sp,sp,0x11
    80000118:	9112                	add	sp,sp,tp
    8000011a:	01151613          	slli	a2,a0,0x11
    8000011e:	9232                	add	tp,tp,a2
    80000120:	1d40306f          	j	800032f4 <_init>

0000000080000124 <trap_entry>:
    80000124:	716d                	addi	sp,sp,-272
    80000126:	e406                	sd	ra,8(sp)
    80000128:	e80a                	sd	sp,16(sp)
    8000012a:	ec0e                	sd	gp,24(sp)
    8000012c:	f012                	sd	tp,32(sp)
    8000012e:	f416                	sd	t0,40(sp)
    80000130:	f81a                	sd	t1,48(sp)
    80000132:	fc1e                	sd	t2,56(sp)
    80000134:	e0a2                	sd	s0,64(sp)
    80000136:	e4a6                	sd	s1,72(sp)
    80000138:	e8aa                	sd	a0,80(sp)
    8000013a:	ecae                	sd	a1,88(sp)
    8000013c:	f0b2                	sd	a2,96(sp)
    8000013e:	f4b6                	sd	a3,104(sp)
    80000140:	f8ba                	sd	a4,112(sp)
    80000142:	fcbe                	sd	a5,120(sp)
    80000144:	e142                	sd	a6,128(sp)
    80000146:	e546                	sd	a7,136(sp)
    80000148:	e94a                	sd	s2,144(sp)
    8000014a:	ed4e                	sd	s3,152(sp)
    8000014c:	f152                	sd	s4,160(sp)
    8000014e:	f556                	sd	s5,168(sp)
    80000150:	f95a                	sd	s6,176(sp)
    80000152:	fd5e                	sd	s7,184(sp)
    80000154:	e1e2                	sd	s8,192(sp)
    80000156:	e5e6                	sd	s9,200(sp)
    80000158:	e9ea                	sd	s10,208(sp)
    8000015a:	edee                	sd	s11,216(sp)
    8000015c:	f1f2                	sd	t3,224(sp)
    8000015e:	f5f6                	sd	t4,232(sp)
    80000160:	f9fa                	sd	t5,240(sp)
    80000162:	fdfe                	sd	t6,248(sp)
    80000164:	34202573          	csrr	a0,mcause
    80000168:	341025f3          	csrr	a1,mepc
    8000016c:	860a                	mv	a2,sp
    8000016e:	7bf020ef          	jal	8000312c <handle_trap>
    80000172:	34151073          	csrw	mepc,a0
    80000176:	6289                	lui	t0,0x2
    80000178:	8002829b          	addiw	t0,t0,-2048 # 1800 <buflen.1+0x17c0>
    8000017c:	3002a073          	csrs	mstatus,t0
    80000180:	60a2                	ld	ra,8(sp)
    80000182:	6142                	ld	sp,16(sp)
    80000184:	61e2                	ld	gp,24(sp)
    80000186:	7202                	ld	tp,32(sp)
    80000188:	72a2                	ld	t0,40(sp)
    8000018a:	7342                	ld	t1,48(sp)
    8000018c:	73e2                	ld	t2,56(sp)
    8000018e:	6406                	ld	s0,64(sp)
    80000190:	64a6                	ld	s1,72(sp)
    80000192:	6546                	ld	a0,80(sp)
    80000194:	65e6                	ld	a1,88(sp)
    80000196:	7606                	ld	a2,96(sp)
    80000198:	76a6                	ld	a3,104(sp)
    8000019a:	7746                	ld	a4,112(sp)
    8000019c:	77e6                	ld	a5,120(sp)
    8000019e:	680a                	ld	a6,128(sp)
    800001a0:	68aa                	ld	a7,136(sp)
    800001a2:	694a                	ld	s2,144(sp)
    800001a4:	69ea                	ld	s3,152(sp)
    800001a6:	7a0a                	ld	s4,160(sp)
    800001a8:	7aaa                	ld	s5,168(sp)
    800001aa:	7b4a                	ld	s6,176(sp)
    800001ac:	7bea                	ld	s7,184(sp)
    800001ae:	6c0e                	ld	s8,192(sp)
    800001b0:	6cae                	ld	s9,200(sp)
    800001b2:	6d4e                	ld	s10,208(sp)
    800001b4:	6dee                	ld	s11,216(sp)
    800001b6:	7e0e                	ld	t3,224(sp)
    800001b8:	7eae                	ld	t4,232(sp)
    800001ba:	7f4e                	ld	t5,240(sp)
    800001bc:	7fee                	ld	t6,248(sp)
    800001be:	6151                	addi	sp,sp,272
    800001c0:	30200073          	mret
    800001c4:	0000                	unimp

Disassembly of section .text:

0000000080002000 <d2ull>:
    80002000:	e2050553          	fmv.x.d	a0,fa0
    80002004:	8082                	ret

0000000080002006 <ull2d>:
    80002006:	f2050553          	fmv.d.x	fa0,a0
    8000200a:	8082                	ret

000000008000200c <PickResult>:
    8000200c:	0000000b          	.insn	4, 0x000b
    80002010:	058e                	slli	a1,a1,0x3
    80002012:	952e                	add	a0,a0,a1
    80002014:	6108                	ld	a0,0(a0)
    80002016:	000005ab          	.insn	4, 0x05ab
    8000201a:	8d4d                	or	a0,a0,a1
    8000201c:	8082                	ret

000000008000201e <Impl_conv1d>:
    8000201e:	4601                	li	a2,0
    80002020:	4281                	li	t0,0
    80002022:	04053883          	ld	a7,64(a0)
    80002026:	06050793          	addi	a5,a0,96
    8000202a:	4821                	li	a6,8
    8000202c:	00c886bb          	addw	a3,a7,a2
    80002030:	0076f713          	andi	a4,a3,7
    80002034:	070e                	slli	a4,a4,0x3
    80002036:	972a                	add	a4,a4,a0
    80002038:	00073303          	ld	t1,0(a4)
    8000203c:	fe87b383          	ld	t2,-24(a5)
    80002040:	0016871b          	addiw	a4,a3,1
    80002044:	8b1d                	andi	a4,a4,7
    80002046:	070e                	slli	a4,a4,0x3
    80002048:	972a                	add	a4,a4,a0
    8000204a:	00073e03          	ld	t3,0(a4)
    8000204e:	ff07b703          	ld	a4,-16(a5)
    80002052:	02638333          	mul	t1,t2,t1
    80002056:	03c703b3          	mul	t2,a4,t3
    8000205a:	0026871b          	addiw	a4,a3,2
    8000205e:	8b1d                	andi	a4,a4,7
    80002060:	070e                	slli	a4,a4,0x3
    80002062:	972a                	add	a4,a4,a0
    80002064:	00073e03          	ld	t3,0(a4)
    80002068:	ff87be83          	ld	t4,-8(a5)
    8000206c:	268d                	addiw	a3,a3,3
    8000206e:	8a9d                	andi	a3,a3,7
    80002070:	068e                	slli	a3,a3,0x3
    80002072:	96aa                	add	a3,a3,a0
    80002074:	6294                	ld	a3,0(a3)
    80002076:	6398                	ld	a4,0(a5)
    80002078:	03ce8e33          	mul	t3,t4,t3
    8000207c:	02d706b3          	mul	a3,a4,a3
    80002080:	00530733          	add	a4,t1,t0
    80002084:	971e                	add	a4,a4,t2
    80002086:	9772                	add	a4,a4,t3
    80002088:	00e682b3          	add	t0,a3,a4
    8000208c:	0611                	addi	a2,a2,4
    8000208e:	02078793          	addi	a5,a5,32
    80002092:	f9061de3          	bne	a2,a6,8000202c <Impl_conv1d+0xe>
    80002096:	0055b023          	sd	t0,0(a1)
    8000209a:	8082                	ret

000000008000209c <OP_conv1d>:
    8000209c:	7131                	addi	sp,sp,-192
    8000209e:	fd22                	sd	s0,184(sp)
    800020a0:	f926                	sd	s1,176(sp)
    800020a2:	f54a                	sd	s2,168(sp)
    800020a4:	f14e                	sd	s3,160(sp)
    800020a6:	ed52                	sd	s4,152(sp)
    800020a8:	e956                	sd	s5,144(sp)
    800020aa:	4281                	li	t0,0
    800020ac:	4301                	li	t1,0
    800020ae:	63b2                	ld	t2,264(sp)
    800020b0:	6e12                	ld	t3,256(sp)
    800020b2:	7eee                	ld	t4,248(sp)
    800020b4:	7f4e                	ld	t5,240(sp)
    800020b6:	7fae                	ld	t6,232(sp)
    800020b8:	790e                	ld	s2,224(sp)
    800020ba:	69ee                	ld	s3,216(sp)
    800020bc:	6a4e                	ld	s4,208(sp)
    800020be:	6aae                	ld	s5,200(sp)
    800020c0:	0000000b          	.insn	4, 0x000b
    800020c4:	0000042b          	.insn	4, 0x042b
    800020c8:	8dc1                	or	a1,a1,s0
    800020ca:	e42e                	sd	a1,8(sp)
    800020cc:	648e                	ld	s1,192(sp)
    800020ce:	00c465b3          	or	a1,s0,a2
    800020d2:	e82e                	sd	a1,16(sp)
    800020d4:	10ac                	addi	a1,sp,104
    800020d6:	00d46633          	or	a2,s0,a3
    800020da:	ec32                	sd	a2,24(sp)
    800020dc:	00e46633          	or	a2,s0,a4
    800020e0:	f032                	sd	a2,32(sp)
    800020e2:	00f46633          	or	a2,s0,a5
    800020e6:	f432                	sd	a2,40(sp)
    800020e8:	01046633          	or	a2,s0,a6
    800020ec:	f832                	sd	a2,48(sp)
    800020ee:	01146633          	or	a2,s0,a7
    800020f2:	fc32                	sd	a2,56(sp)
    800020f4:	00946633          	or	a2,s0,s1
    800020f8:	e0b2                	sd	a2,64(sp)
    800020fa:	015468b3          	or	a7,s0,s5
    800020fe:	e4c6                	sd	a7,72(sp)
    80002100:	014466b3          	or	a3,s0,s4
    80002104:	e8b6                	sd	a3,80(sp)
    80002106:	013466b3          	or	a3,s0,s3
    8000210a:	ecb6                	sd	a3,88(sp)
    8000210c:	012466b3          	or	a3,s0,s2
    80002110:	f0b6                	sd	a3,96(sp)
    80002112:	01f466b3          	or	a3,s0,t6
    80002116:	f4b6                	sd	a3,104(sp)
    80002118:	01e466b3          	or	a3,s0,t5
    8000211c:	f8b6                	sd	a3,112(sp)
    8000211e:	01d466b3          	or	a3,s0,t4
    80002122:	fcb6                	sd	a3,120(sp)
    80002124:	01c466b3          	or	a3,s0,t3
    80002128:	e136                	sd	a3,128(sp)
    8000212a:	007466b3          	or	a3,s0,t2
    8000212e:	e536                	sd	a3,136(sp)
    80002130:	00810393          	addi	t2,sp,8
    80002134:	4821                	li	a6,8
    80002136:	005887bb          	addw	a5,a7,t0
    8000213a:	0077f493          	andi	s1,a5,7
    8000213e:	048e                	slli	s1,s1,0x3
    80002140:	949e                	add	s1,s1,t2
    80002142:	6084                	ld	s1,0(s1)
    80002144:	fe85b403          	ld	s0,-24(a1)
    80002148:	0017871b          	addiw	a4,a5,1
    8000214c:	8b1d                	andi	a4,a4,7
    8000214e:	070e                	slli	a4,a4,0x3
    80002150:	971e                	add	a4,a4,t2
    80002152:	6318                	ld	a4,0(a4)
    80002154:	ff05b603          	ld	a2,-16(a1)
    80002158:	029404b3          	mul	s1,s0,s1
    8000215c:	02e60633          	mul	a2,a2,a4
    80002160:	0027871b          	addiw	a4,a5,2
    80002164:	8b1d                	andi	a4,a4,7
    80002166:	070e                	slli	a4,a4,0x3
    80002168:	971e                	add	a4,a4,t2
    8000216a:	6318                	ld	a4,0(a4)
    8000216c:	ff85b403          	ld	s0,-8(a1)
    80002170:	278d                	addiw	a5,a5,3
    80002172:	8b9d                	andi	a5,a5,7
    80002174:	078e                	slli	a5,a5,0x3
    80002176:	979e                	add	a5,a5,t2
    80002178:	639c                	ld	a5,0(a5)
    8000217a:	6194                	ld	a3,0(a1)
    8000217c:	02e40733          	mul	a4,s0,a4
    80002180:	02f686b3          	mul	a3,a3,a5
    80002184:	006487b3          	add	a5,s1,t1
    80002188:	963e                	add	a2,a2,a5
    8000218a:	963a                	add	a2,a2,a4
    8000218c:	00d60333          	add	t1,a2,a3
    80002190:	0291                	addi	t0,t0,4
    80002192:	02058593          	addi	a1,a1,32
    80002196:	fb0290e3          	bne	t0,a6,80002136 <OP_conv1d+0x9a>
    8000219a:	000005ab          	.insn	4, 0x05ab
    8000219e:	0065e5b3          	or	a1,a1,t1
    800021a2:	e10c                	sd	a1,0(a0)
    800021a4:	746a                	ld	s0,184(sp)
    800021a6:	74ca                	ld	s1,176(sp)
    800021a8:	792a                	ld	s2,168(sp)
    800021aa:	798a                	ld	s3,160(sp)
    800021ac:	6a6a                	ld	s4,152(sp)
    800021ae:	6aca                	ld	s5,144(sp)
    800021b0:	6129                	addi	sp,sp,192
    800021b2:	8082                	ret

00000000800021b4 <conv1d>:
    800021b4:	ba010113          	addi	sp,sp,-1120
    800021b8:	44113c23          	sd	ra,1112(sp)
    800021bc:	44813823          	sd	s0,1104(sp)
    800021c0:	44913423          	sd	s1,1096(sp)
    800021c4:	45213023          	sd	s2,1088(sp)
    800021c8:	43313c23          	sd	s3,1080(sp)
    800021cc:	43413823          	sd	s4,1072(sp)
    800021d0:	43513423          	sd	s5,1064(sp)
    800021d4:	43613023          	sd	s6,1056(sp)
    800021d8:	41713c23          	sd	s7,1048(sp)
    800021dc:	41813823          	sd	s8,1040(sp)
    800021e0:	41913423          	sd	s9,1032(sp)
    800021e4:	41a13023          	sd	s10,1024(sp)
    800021e8:	3fb13c23          	sd	s11,1016(sp)
    800021ec:	f0aa                	sd	a0,96(sp)
    800021ee:	48050363          	beqz	a0,80002674 <conv1d+0x4c0>
    800021f2:	4601                	li	a2,0
    800021f4:	00005517          	auipc	a0,0x5
    800021f8:	9d450513          	addi	a0,a0,-1580 # 80006bc8 <output>
    800021fc:	02050513          	addi	a0,a0,32
    80002200:	f4aa                	sd	a0,104(sp)
    80002202:	80000537          	lui	a0,0x80000
    80002206:	ff85069b          	addiw	a3,a0,-8 # 7ffffff8 <buflen.1+0x7fffffb8>
    8000220a:	00002717          	auipc	a4,0x2
    8000220e:	97e70713          	addi	a4,a4,-1666 # 80003b88 <input>
    80002212:	00005497          	auipc	s1,0x5
    80002216:	97648493          	addi	s1,s1,-1674 # 80006b88 <kernel>
    8000221a:	e12e                	sd	a1,128(sp)
    8000221c:	fcb6                	sd	a3,120(sp)
    8000221e:	f8ba                	sd	a4,112(sp)
    80002220:	a809                	j	80002232 <conv1d+0x7e>
    80002222:	0605                	addi	a2,a2,1
    80002224:	7526                	ld	a0,104(sp)
    80002226:	3c850513          	addi	a0,a0,968
    8000222a:	f4aa                	sd	a0,104(sp)
    8000222c:	7506                	ld	a0,96(sp)
    8000222e:	44a60363          	beq	a2,a0,80002674 <conv1d+0x4c0>
    80002232:	4521                	li	a0,8
    80002234:	fea5e7e3          	bltu	a1,a0,80002222 <conv1d+0x6e>
    80002238:	451d                	li	a0,7
    8000223a:	7ca6                	ld	s9,104(sp)
    8000223c:	e532                	sd	a2,136(sp)
    8000223e:	e9aa                	sd	a0,208(sp)
    80002240:	654e                	ld	a0,208(sp)
    80002242:	1565                	addi	a0,a0,-7
    80002244:	8d75                	and	a0,a0,a3
    80002246:	00a61593          	slli	a1,a2,0xa
    8000224a:	00b70d33          	add	s10,a4,a1
    8000224e:	00351413          	slli	s0,a0,0x3
    80002252:	008d0533          	add	a0,s10,s0
    80002256:	610c                	ld	a1,0(a0)
    80002258:	00846513          	ori	a0,s0,8
    8000225c:	00ad0b33          	add	s6,s10,a0
    80002260:	000b3603          	ld	a2,0(s6)
    80002264:	01046513          	ori	a0,s0,16
    80002268:	956a                	add	a0,a0,s10
    8000226a:	6114                	ld	a3,0(a0)
    8000226c:	8daa                	mv	s11,a0
    8000226e:	f92a                	sd	a0,176(sp)
    80002270:	01846513          	ori	a0,s0,24
    80002274:	956a                	add	a0,a0,s10
    80002276:	e5aa                	sd	a0,200(sp)
    80002278:	6118                	ld	a4,0(a0)
    8000227a:	02046513          	ori	a0,s0,32
    8000227e:	00ad0bb3          	add	s7,s10,a0
    80002282:	000bb783          	ld	a5,0(s7)
    80002286:	02846513          	ori	a0,s0,40
    8000228a:	00ad0a33          	add	s4,s10,a0
    8000228e:	000a3803          	ld	a6,0(s4)
    80002292:	03046513          	ori	a0,s0,48
    80002296:	956a                	add	a0,a0,s10
    80002298:	00053883          	ld	a7,0(a0)
    8000229c:	892a                	mv	s2,a0
    8000229e:	03846513          	ori	a0,s0,56
    800022a2:	00ad0ab3          	add	s5,s10,a0
    800022a6:	000ab283          	ld	t0,0(s5)
    800022aa:	0004b303          	ld	t1,0(s1)
    800022ae:	0084b383          	ld	t2,8(s1)
    800022b2:	0104be03          	ld	t3,16(s1)
    800022b6:	0184be83          	ld	t4,24(s1)
    800022ba:	0204bf03          	ld	t5,32(s1)
    800022be:	0284bf83          	ld	t6,40(s1)
    800022c2:	0304b983          	ld	s3,48(s1)
    800022c6:	7c88                	ld	a0,56(s1)
    800022c8:	e4aa                	sd	a0,72(sp)
    800022ca:	e0ce                	sd	s3,64(sp)
    800022cc:	fc7e                	sd	t6,56(sp)
    800022ce:	f87a                	sd	t5,48(sp)
    800022d0:	f476                	sd	t4,40(sp)
    800022d2:	f072                	sd	t3,32(sp)
    800022d4:	ec1e                	sd	t2,24(sp)
    800022d6:	e81a                	sd	t1,16(sp)
    800022d8:	e402                	sd	zero,8(sp)
    800022da:	09a8                	addi	a0,sp,216
    800022dc:	e016                	sd	t0,0(sp)
    800022de:	00000097          	auipc	ra,0x0
    800022e2:	dbe080e7          	jalr	-578(ra) # 8000209c <OP_conv1d>
    800022e6:	656e                	ld	a0,216(sp)
    800022e8:	0000000b          	.insn	4, 0x000b
    800022ec:	000005ab          	.insn	4, 0x05ab
    800022f0:	00a5e333          	or	t1,a1,a0
    800022f4:	04040993          	addi	s3,s0,64
    800022f8:	013d0c33          	add	s8,s10,s3
    800022fc:	e1ce                	sd	s3,192(sp)
    800022fe:	000c3583          	ld	a1,0(s8)
    80002302:	000b3603          	ld	a2,0(s6)
    80002306:	000db683          	ld	a3,0(s11)
    8000230a:	6dae                	ld	s11,200(sp)
    8000230c:	000db703          	ld	a4,0(s11)
    80002310:	000bb783          	ld	a5,0(s7)
    80002314:	000a3803          	ld	a6,0(s4)
    80002318:	fd4a                	sd	s2,184(sp)
    8000231a:	00093883          	ld	a7,0(s2)
    8000231e:	000ab283          	ld	t0,0(s5)
    80002322:	0004b383          	ld	t2,0(s1)
    80002326:	0084be03          	ld	t3,8(s1)
    8000232a:	0104be83          	ld	t4,16(s1)
    8000232e:	0184bf03          	ld	t5,24(s1)
    80002332:	0204bf83          	ld	t6,32(s1)
    80002336:	0284bb03          	ld	s6,40(s1)
    8000233a:	7880                	ld	s0,48(s1)
    8000233c:	7c88                	ld	a0,56(s1)
    8000233e:	fe6cb023          	sd	t1,-32(s9)
    80002342:	e4aa                	sd	a0,72(sp)
    80002344:	e0a2                	sd	s0,64(sp)
    80002346:	fc5a                	sd	s6,56(sp)
    80002348:	f87e                	sd	t6,48(sp)
    8000234a:	f47a                	sd	t5,40(sp)
    8000234c:	f076                	sd	t4,32(sp)
    8000234e:	ec72                	sd	t3,24(sp)
    80002350:	e81e                	sd	t2,16(sp)
    80002352:	4505                	li	a0,1
    80002354:	e42a                	sd	a0,8(sp)
    80002356:	09a8                	addi	a0,sp,216
    80002358:	e016                	sd	t0,0(sp)
    8000235a:	00000097          	auipc	ra,0x0
    8000235e:	d42080e7          	jalr	-702(ra) # 8000209c <OP_conv1d>
    80002362:	656e                	ld	a0,216(sp)
    80002364:	0000000b          	.insn	4, 0x000b
    80002368:	000005ab          	.insn	4, 0x05ab
    8000236c:	00a5e333          	or	t1,a1,a0
    80002370:	000c3583          	ld	a1,0(s8)
    80002374:	0089e613          	ori	a2,s3,8
    80002378:	00cd0533          	add	a0,s10,a2
    8000237c:	6110                	ld	a2,0(a0)
    8000237e:	8b2a                	mv	s6,a0
    80002380:	754a                	ld	a0,176(sp)
    80002382:	6114                	ld	a3,0(a0)
    80002384:	000db703          	ld	a4,0(s11)
    80002388:	f15e                	sd	s7,160(sp)
    8000238a:	000bb783          	ld	a5,0(s7)
    8000238e:	000a3803          	ld	a6,0(s4)
    80002392:	00093883          	ld	a7,0(s2)
    80002396:	000ab283          	ld	t0,0(s5)
    8000239a:	8956                	mv	s2,s5
    8000239c:	e956                	sd	s5,144(sp)
    8000239e:	0004b383          	ld	t2,0(s1)
    800023a2:	0084be03          	ld	t3,8(s1)
    800023a6:	0104be83          	ld	t4,16(s1)
    800023aa:	0184bf03          	ld	t5,24(s1)
    800023ae:	0204bf83          	ld	t6,32(s1)
    800023b2:	0284bd83          	ld	s11,40(s1)
    800023b6:	7880                	ld	s0,48(s1)
    800023b8:	7c88                	ld	a0,56(s1)
    800023ba:	fe6cb423          	sd	t1,-24(s9)
    800023be:	e4aa                	sd	a0,72(sp)
    800023c0:	e0a2                	sd	s0,64(sp)
    800023c2:	fc6e                	sd	s11,56(sp)
    800023c4:	f87e                	sd	t6,48(sp)
    800023c6:	f47a                	sd	t5,40(sp)
    800023c8:	f076                	sd	t4,32(sp)
    800023ca:	ec72                	sd	t3,24(sp)
    800023cc:	e81e                	sd	t2,16(sp)
    800023ce:	4509                	li	a0,2
    800023d0:	e42a                	sd	a0,8(sp)
    800023d2:	09a8                	addi	a0,sp,216
    800023d4:	e016                	sd	t0,0(sp)
    800023d6:	00000097          	auipc	ra,0x0
    800023da:	cc6080e7          	jalr	-826(ra) # 8000209c <OP_conv1d>
    800023de:	656e                	ld	a0,216(sp)
    800023e0:	0000000b          	.insn	4, 0x000b
    800023e4:	000005ab          	.insn	4, 0x05ab
    800023e8:	00a5e333          	or	t1,a1,a0
    800023ec:	89e2                	mv	s3,s8
    800023ee:	ed62                	sd	s8,152(sp)
    800023f0:	000c3583          	ld	a1,0(s8)
    800023f4:	000b3603          	ld	a2,0(s6)
    800023f8:	6a8e                	ld	s5,192(sp)
    800023fa:	010ae693          	ori	a3,s5,16
    800023fe:	00dd0533          	add	a0,s10,a3
    80002402:	6114                	ld	a3,0(a0)
    80002404:	8daa                	mv	s11,a0
    80002406:	652e                	ld	a0,200(sp)
    80002408:	6118                	ld	a4,0(a0)
    8000240a:	000bb783          	ld	a5,0(s7)
    8000240e:	000a3803          	ld	a6,0(s4)
    80002412:	7bea                	ld	s7,184(sp)
    80002414:	000bb883          	ld	a7,0(s7)
    80002418:	00093283          	ld	t0,0(s2)
    8000241c:	0004b383          	ld	t2,0(s1)
    80002420:	0084be03          	ld	t3,8(s1)
    80002424:	0104be83          	ld	t4,16(s1)
    80002428:	0184bf03          	ld	t5,24(s1)
    8000242c:	0204bf83          	ld	t6,32(s1)
    80002430:	0284bc03          	ld	s8,40(s1)
    80002434:	7880                	ld	s0,48(s1)
    80002436:	7c88                	ld	a0,56(s1)
    80002438:	fe6cb823          	sd	t1,-16(s9)
    8000243c:	e4aa                	sd	a0,72(sp)
    8000243e:	e0a2                	sd	s0,64(sp)
    80002440:	fc62                	sd	s8,56(sp)
    80002442:	f87e                	sd	t6,48(sp)
    80002444:	f47a                	sd	t5,40(sp)
    80002446:	f076                	sd	t4,32(sp)
    80002448:	ec72                	sd	t3,24(sp)
    8000244a:	e81e                	sd	t2,16(sp)
    8000244c:	450d                	li	a0,3
    8000244e:	e42a                	sd	a0,8(sp)
    80002450:	09a8                	addi	a0,sp,216
    80002452:	e016                	sd	t0,0(sp)
    80002454:	00000097          	auipc	ra,0x0
    80002458:	c48080e7          	jalr	-952(ra) # 8000209c <OP_conv1d>
    8000245c:	656e                	ld	a0,216(sp)
    8000245e:	0000000b          	.insn	4, 0x000b
    80002462:	000005ab          	.insn	4, 0x05ab
    80002466:	00a5e333          	or	t1,a1,a0
    8000246a:	0009b583          	ld	a1,0(s3)
    8000246e:	000b3603          	ld	a2,0(s6)
    80002472:	895a                	mv	s2,s6
    80002474:	000db683          	ld	a3,0(s11)
    80002478:	018ae713          	ori	a4,s5,24
    8000247c:	00ed0533          	add	a0,s10,a4
    80002480:	6118                	ld	a4,0(a0)
    80002482:	8c2a                	mv	s8,a0
    80002484:	e5aa                	sd	a0,200(sp)
    80002486:	750a                	ld	a0,160(sp)
    80002488:	611c                	ld	a5,0(a0)
    8000248a:	000a3803          	ld	a6,0(s4)
    8000248e:	89de                	mv	s3,s7
    80002490:	000bb883          	ld	a7,0(s7)
    80002494:	6aca                	ld	s5,144(sp)
    80002496:	000ab283          	ld	t0,0(s5)
    8000249a:	0004b383          	ld	t2,0(s1)
    8000249e:	0084be03          	ld	t3,8(s1)
    800024a2:	0104be83          	ld	t4,16(s1)
    800024a6:	0184bf03          	ld	t5,24(s1)
    800024aa:	0204bf83          	ld	t6,32(s1)
    800024ae:	0284bb83          	ld	s7,40(s1)
    800024b2:	7880                	ld	s0,48(s1)
    800024b4:	7c88                	ld	a0,56(s1)
    800024b6:	fe6cbc23          	sd	t1,-8(s9)
    800024ba:	e4aa                	sd	a0,72(sp)
    800024bc:	e0a2                	sd	s0,64(sp)
    800024be:	fc5e                	sd	s7,56(sp)
    800024c0:	f87e                	sd	t6,48(sp)
    800024c2:	f47a                	sd	t5,40(sp)
    800024c4:	f076                	sd	t4,32(sp)
    800024c6:	ec72                	sd	t3,24(sp)
    800024c8:	e81e                	sd	t2,16(sp)
    800024ca:	4511                	li	a0,4
    800024cc:	e42a                	sd	a0,8(sp)
    800024ce:	09a8                	addi	a0,sp,216
    800024d0:	e016                	sd	t0,0(sp)
    800024d2:	00000097          	auipc	ra,0x0
    800024d6:	bca080e7          	jalr	-1078(ra) # 8000209c <OP_conv1d>
    800024da:	656e                	ld	a0,216(sp)
    800024dc:	0000000b          	.insn	4, 0x000b
    800024e0:	000005ab          	.insn	4, 0x05ab
    800024e4:	00a5e333          	or	t1,a1,a0
    800024e8:	6b6a                	ld	s6,152(sp)
    800024ea:	000b3583          	ld	a1,0(s6)
    800024ee:	f54a                	sd	s2,168(sp)
    800024f0:	00093603          	ld	a2,0(s2)
    800024f4:	000db683          	ld	a3,0(s11)
    800024f8:	8bee                	mv	s7,s11
    800024fa:	000c3703          	ld	a4,0(s8)
    800024fe:	6d8e                	ld	s11,192(sp)
    80002500:	020de793          	ori	a5,s11,32
    80002504:	00fd0533          	add	a0,s10,a5
    80002508:	f92a                	sd	a0,176(sp)
    8000250a:	611c                	ld	a5,0(a0)
    8000250c:	000a3803          	ld	a6,0(s4)
    80002510:	0009b883          	ld	a7,0(s3)
    80002514:	000ab283          	ld	t0,0(s5)
    80002518:	0004b383          	ld	t2,0(s1)
    8000251c:	0084be03          	ld	t3,8(s1)
    80002520:	0104be83          	ld	t4,16(s1)
    80002524:	0184bf03          	ld	t5,24(s1)
    80002528:	0204bf83          	ld	t6,32(s1)
    8000252c:	0284ba03          	ld	s4,40(s1)
    80002530:	7880                	ld	s0,48(s1)
    80002532:	7c88                	ld	a0,56(s1)
    80002534:	006cb023          	sd	t1,0(s9)
    80002538:	e4aa                	sd	a0,72(sp)
    8000253a:	e0a2                	sd	s0,64(sp)
    8000253c:	fc52                	sd	s4,56(sp)
    8000253e:	f87e                	sd	t6,48(sp)
    80002540:	f47a                	sd	t5,40(sp)
    80002542:	f076                	sd	t4,32(sp)
    80002544:	ec72                	sd	t3,24(sp)
    80002546:	e81e                	sd	t2,16(sp)
    80002548:	4515                	li	a0,5
    8000254a:	e42a                	sd	a0,8(sp)
    8000254c:	09a8                	addi	a0,sp,216
    8000254e:	e016                	sd	t0,0(sp)
    80002550:	00000097          	auipc	ra,0x0
    80002554:	b4c080e7          	jalr	-1204(ra) # 8000209c <OP_conv1d>
    80002558:	656e                	ld	a0,216(sp)
    8000255a:	0000000b          	.insn	4, 0x000b
    8000255e:	000005ab          	.insn	4, 0x05ab
    80002562:	00a5e333          	or	t1,a1,a0
    80002566:	000b3583          	ld	a1,0(s6)
    8000256a:	00093603          	ld	a2,0(s2)
    8000256e:	8c5e                	mv	s8,s7
    80002570:	000bb683          	ld	a3,0(s7)
    80002574:	89e6                	mv	s3,s9
    80002576:	6cae                	ld	s9,200(sp)
    80002578:	000cb703          	ld	a4,0(s9)
    8000257c:	7bca                	ld	s7,176(sp)
    8000257e:	000bb783          	ld	a5,0(s7)
    80002582:	028de413          	ori	s0,s11,40
    80002586:	008d0a33          	add	s4,s10,s0
    8000258a:	000a3803          	ld	a6,0(s4)
    8000258e:	756a                	ld	a0,184(sp)
    80002590:	00053883          	ld	a7,0(a0)
    80002594:	000ab283          	ld	t0,0(s5)
    80002598:	0004b383          	ld	t2,0(s1)
    8000259c:	0084be03          	ld	t3,8(s1)
    800025a0:	0104be83          	ld	t4,16(s1)
    800025a4:	0184bf03          	ld	t5,24(s1)
    800025a8:	0204bf83          	ld	t6,32(s1)
    800025ac:	0284b903          	ld	s2,40(s1)
    800025b0:	7880                	ld	s0,48(s1)
    800025b2:	7c88                	ld	a0,56(s1)
    800025b4:	0069b423          	sd	t1,8(s3)
    800025b8:	e4aa                	sd	a0,72(sp)
    800025ba:	e0a2                	sd	s0,64(sp)
    800025bc:	fc4a                	sd	s2,56(sp)
    800025be:	f87e                	sd	t6,48(sp)
    800025c0:	f47a                	sd	t5,40(sp)
    800025c2:	f076                	sd	t4,32(sp)
    800025c4:	ec72                	sd	t3,24(sp)
    800025c6:	e81e                	sd	t2,16(sp)
    800025c8:	4519                	li	a0,6
    800025ca:	e42a                	sd	a0,8(sp)
    800025cc:	09a8                	addi	a0,sp,216
    800025ce:	e016                	sd	t0,0(sp)
    800025d0:	00000097          	auipc	ra,0x0
    800025d4:	acc080e7          	jalr	-1332(ra) # 8000209c <OP_conv1d>
    800025d8:	656e                	ld	a0,216(sp)
    800025da:	0000000b          	.insn	4, 0x000b
    800025de:	000005ab          	.insn	4, 0x05ab
    800025e2:	00a5e333          	or	t1,a1,a0
    800025e6:	000b3583          	ld	a1,0(s6)
    800025ea:	752a                	ld	a0,168(sp)
    800025ec:	6110                	ld	a2,0(a0)
    800025ee:	000c3683          	ld	a3,0(s8)
    800025f2:	000cb703          	ld	a4,0(s9)
    800025f6:	8cce                	mv	s9,s3
    800025f8:	000bb783          	ld	a5,0(s7)
    800025fc:	000a3803          	ld	a6,0(s4)
    80002600:	030de413          	ori	s0,s11,48
    80002604:	946a                	add	s0,s0,s10
    80002606:	00043883          	ld	a7,0(s0)
    8000260a:	000ab283          	ld	t0,0(s5)
    8000260e:	0004b383          	ld	t2,0(s1)
    80002612:	0084be03          	ld	t3,8(s1)
    80002616:	0104be83          	ld	t4,16(s1)
    8000261a:	0184bf03          	ld	t5,24(s1)
    8000261e:	0204bf83          	ld	t6,32(s1)
    80002622:	0284b903          	ld	s2,40(s1)
    80002626:	7880                	ld	s0,48(s1)
    80002628:	7c88                	ld	a0,56(s1)
    8000262a:	0069b823          	sd	t1,16(s3)
    8000262e:	e4aa                	sd	a0,72(sp)
    80002630:	e0a2                	sd	s0,64(sp)
    80002632:	451d                	li	a0,7
    80002634:	fc4a                	sd	s2,56(sp)
    80002636:	f87e                	sd	t6,48(sp)
    80002638:	f47a                	sd	t5,40(sp)
    8000263a:	f076                	sd	t4,32(sp)
    8000263c:	ec72                	sd	t3,24(sp)
    8000263e:	e81e                	sd	t2,16(sp)
    80002640:	e42a                	sd	a0,8(sp)
    80002642:	09a8                	addi	a0,sp,216
    80002644:	e016                	sd	t0,0(sp)
    80002646:	00000097          	auipc	ra,0x0
    8000264a:	a56080e7          	jalr	-1450(ra) # 8000209c <OP_conv1d>
    8000264e:	7746                	ld	a4,112(sp)
    80002650:	76e6                	ld	a3,120(sp)
    80002652:	662a                	ld	a2,136(sp)
    80002654:	656e                	ld	a0,216(sp)
    80002656:	0000000b          	.insn	4, 0x000b
    8000265a:	000005ab          	.insn	4, 0x05ab
    8000265e:	8d4d                	or	a0,a0,a1
    80002660:	658a                	ld	a1,128(sp)
    80002662:	00a9bc23          	sd	a0,24(s3)
    80002666:	654e                	ld	a0,208(sp)
    80002668:	0521                	addi	a0,a0,8
    8000266a:	04098c93          	addi	s9,s3,64
    8000266e:	bcb568e3          	bltu	a0,a1,8000223e <conv1d+0x8a>
    80002672:	be45                	j	80002222 <conv1d+0x6e>
    80002674:	45813083          	ld	ra,1112(sp)
    80002678:	45013403          	ld	s0,1104(sp)
    8000267c:	44813483          	ld	s1,1096(sp)
    80002680:	44013903          	ld	s2,1088(sp)
    80002684:	43813983          	ld	s3,1080(sp)
    80002688:	43013a03          	ld	s4,1072(sp)
    8000268c:	42813a83          	ld	s5,1064(sp)
    80002690:	42013b03          	ld	s6,1056(sp)
    80002694:	41813b83          	ld	s7,1048(sp)
    80002698:	41013c03          	ld	s8,1040(sp)
    8000269c:	40813c83          	ld	s9,1032(sp)
    800026a0:	40013d03          	ld	s10,1024(sp)
    800026a4:	3f813d83          	ld	s11,1016(sp)
    800026a8:	46010113          	addi	sp,sp,1120
    800026ac:	8082                	ret

00000000800026ae <main>:
    800026ae:	1141                	addi	sp,sp,-16
    800026b0:	e406                	sd	ra,8(sp)
    800026b2:	e022                	sd	s0,0(sp)
    800026b4:	4781                	li	a5,0
    800026b6:	00001517          	auipc	a0,0x1
    800026ba:	4b250513          	addi	a0,a0,1202 # 80003b68 <gen2+0x1d0>
    800026be:	610c                	ld	a1,0(a0)
    800026c0:	00001817          	auipc	a6,0x1
    800026c4:	4b880813          	addi	a6,a6,1208 # 80003b78 <gen1>
    800026c8:	00083703          	ld	a4,0(a6)
    800026cc:	00001297          	auipc	t0,0x1
    800026d0:	4bc28293          	addi	t0,t0,1212 # 80003b88 <input>
    800026d4:	00001517          	auipc	a0,0x1
    800026d8:	49c50513          	addi	a0,a0,1180 # 80003b70 <gen2+0x1d8>
    800026dc:	00053f83          	ld	t6,0(a0)
    800026e0:	3b9ad537          	lui	a0,0x3b9ad
    800026e4:	a075031b          	addiw	t1,a0,-1529 # 3b9aca07 <buflen.1+0x3b9ac9c7>
    800026e8:	40000893          	li	a7,1024
    800026ec:	02b70633          	mul	a2,a4,a1
    800026f0:	03f636b3          	mulhu	a3,a2,t6
    800026f4:	82f5                	srli	a3,a3,0x1d
    800026f6:	026686b3          	mul	a3,a3,t1
    800026fa:	40d603b3          	sub	t2,a2,a3
    800026fe:	02b386b3          	mul	a3,t2,a1
    80002702:	03f6b533          	mulhu	a0,a3,t6
    80002706:	8175                	srli	a0,a0,0x1d
    80002708:	02650533          	mul	a0,a0,t1
    8000270c:	40a68533          	sub	a0,a3,a0
    80002710:	02b506b3          	mul	a3,a0,a1
    80002714:	03f6b633          	mulhu	a2,a3,t6
    80002718:	8275                	srli	a2,a2,0x1d
    8000271a:	02660633          	mul	a2,a2,t1
    8000271e:	00b70e33          	add	t3,a4,a1
    80002722:	40c68633          	sub	a2,a3,a2
    80002726:	02b606b3          	mul	a3,a2,a1
    8000272a:	00f28733          	add	a4,t0,a5
    8000272e:	01c73023          	sd	t3,0(a4)
    80002732:	93ae                	add	t2,t2,a1
    80002734:	03f6be33          	mulhu	t3,a3,t6
    80002738:	00773423          	sd	t2,8(a4)
    8000273c:	952e                	add	a0,a0,a1
    8000273e:	eb08                	sd	a0,16(a4)
    80002740:	01de5513          	srli	a0,t3,0x1d
    80002744:	02650533          	mul	a0,a0,t1
    80002748:	962e                	add	a2,a2,a1
    8000274a:	ef10                	sd	a2,24(a4)
    8000274c:	02078793          	addi	a5,a5,32
    80002750:	40a68733          	sub	a4,a3,a0
    80002754:	f9179ce3          	bne	a5,a7,800026ec <main+0x3e>
    80002758:	4781                	li	a5,0
    8000275a:	3b9ad537          	lui	a0,0x3b9ad
    8000275e:	a075031b          	addiw	t1,a0,-1529 # 3b9aca07 <buflen.1+0x3b9ac9c7>
    80002762:	40000893          	li	a7,1024
    80002766:	02b706b3          	mul	a3,a4,a1
    8000276a:	03f6b533          	mulhu	a0,a3,t6
    8000276e:	8175                	srli	a0,a0,0x1d
    80002770:	02650533          	mul	a0,a0,t1
    80002774:	40a683b3          	sub	t2,a3,a0
    80002778:	02b386b3          	mul	a3,t2,a1
    8000277c:	03f6b533          	mulhu	a0,a3,t6
    80002780:	8175                	srli	a0,a0,0x1d
    80002782:	02650533          	mul	a0,a0,t1
    80002786:	40a68e33          	sub	t3,a3,a0
    8000278a:	02be06b3          	mul	a3,t3,a1
    8000278e:	03f6b533          	mulhu	a0,a3,t6
    80002792:	8175                	srli	a0,a0,0x1d
    80002794:	02650533          	mul	a0,a0,t1
    80002798:	00b70eb3          	add	t4,a4,a1
    8000279c:	40a68533          	sub	a0,a3,a0
    800027a0:	02b50f33          	mul	t5,a0,a1
    800027a4:	00f28733          	add	a4,t0,a5
    800027a8:	41d73023          	sd	t4,1024(a4)
    800027ac:	93ae                	add	t2,t2,a1
    800027ae:	03ff3eb3          	mulhu	t4,t5,t6
    800027b2:	40773423          	sd	t2,1032(a4)
    800027b6:	00be06b3          	add	a3,t3,a1
    800027ba:	40d73823          	sd	a3,1040(a4)
    800027be:	01ded693          	srli	a3,t4,0x1d
    800027c2:	026686b3          	mul	a3,a3,t1
    800027c6:	952e                	add	a0,a0,a1
    800027c8:	40a73c23          	sd	a0,1048(a4)
    800027cc:	02078793          	addi	a5,a5,32
    800027d0:	40df0733          	sub	a4,t5,a3
    800027d4:	f91799e3          	bne	a5,a7,80002766 <main+0xb8>
    800027d8:	7ff28893          	addi	a7,t0,2047
    800027dc:	01988513          	addi	a0,a7,25
    800027e0:	08000793          	li	a5,128
    800027e4:	3b9ad6b7          	lui	a3,0x3b9ad
    800027e8:	a076831b          	addiw	t1,a3,-1529 # 3b9aca07 <buflen.1+0x3b9ac9c7>
    800027ec:	02b706b3          	mul	a3,a4,a1
    800027f0:	03f6b633          	mulhu	a2,a3,t6
    800027f4:	8275                	srli	a2,a2,0x1d
    800027f6:	02660633          	mul	a2,a2,t1
    800027fa:	40c683b3          	sub	t2,a3,a2
    800027fe:	02b386b3          	mul	a3,t2,a1
    80002802:	03f6b633          	mulhu	a2,a3,t6
    80002806:	8275                	srli	a2,a2,0x1d
    80002808:	02660633          	mul	a2,a2,t1
    8000280c:	40c68e33          	sub	t3,a3,a2
    80002810:	02be06b3          	mul	a3,t3,a1
    80002814:	03f6b633          	mulhu	a2,a3,t6
    80002818:	8275                	srli	a2,a2,0x1d
    8000281a:	02660633          	mul	a2,a2,t1
    8000281e:	40c68633          	sub	a2,a3,a2
    80002822:	02b606b3          	mul	a3,a2,a1
    80002826:	972e                	add	a4,a4,a1
    80002828:	fee53423          	sd	a4,-24(a0)
    8000282c:	03f6beb3          	mulhu	t4,a3,t6
    80002830:	00b38733          	add	a4,t2,a1
    80002834:	fee53823          	sd	a4,-16(a0)
    80002838:	00be03b3          	add	t2,t3,a1
    8000283c:	01ded713          	srli	a4,t4,0x1d
    80002840:	02670733          	mul	a4,a4,t1
    80002844:	fe753c23          	sd	t2,-8(a0)
    80002848:	962e                	add	a2,a2,a1
    8000284a:	e110                	sd	a2,0(a0)
    8000284c:	40e68733          	sub	a4,a3,a4
    80002850:	17f1                	addi	a5,a5,-4
    80002852:	02050513          	addi	a0,a0,32
    80002856:	fbd9                	bnez	a5,800027ec <main+0x13e>
    80002858:	41988513          	addi	a0,a7,1049
    8000285c:	08000793          	li	a5,128
    80002860:	3b9ad637          	lui	a2,0x3b9ad
    80002864:	a076089b          	addiw	a7,a2,-1529 # 3b9aca07 <buflen.1+0x3b9ac9c7>
    80002868:	02b70633          	mul	a2,a4,a1
    8000286c:	03f636b3          	mulhu	a3,a2,t6
    80002870:	82f5                	srli	a3,a3,0x1d
    80002872:	031686b3          	mul	a3,a3,a7
    80002876:	40d60333          	sub	t1,a2,a3
    8000287a:	02b306b3          	mul	a3,t1,a1
    8000287e:	03f6b633          	mulhu	a2,a3,t6
    80002882:	8275                	srli	a2,a2,0x1d
    80002884:	03160633          	mul	a2,a2,a7
    80002888:	40c683b3          	sub	t2,a3,a2
    8000288c:	02b386b3          	mul	a3,t2,a1
    80002890:	03f6b633          	mulhu	a2,a3,t6
    80002894:	8275                	srli	a2,a2,0x1d
    80002896:	03160633          	mul	a2,a2,a7
    8000289a:	40c68633          	sub	a2,a3,a2
    8000289e:	02b606b3          	mul	a3,a2,a1
    800028a2:	972e                	add	a4,a4,a1
    800028a4:	fee53423          	sd	a4,-24(a0)
    800028a8:	03f6be33          	mulhu	t3,a3,t6
    800028ac:	00b30733          	add	a4,t1,a1
    800028b0:	fee53823          	sd	a4,-16(a0)
    800028b4:	00b38333          	add	t1,t2,a1
    800028b8:	01de5713          	srli	a4,t3,0x1d
    800028bc:	03170733          	mul	a4,a4,a7
    800028c0:	fe653c23          	sd	t1,-8(a0)
    800028c4:	962e                	add	a2,a2,a1
    800028c6:	e110                	sd	a2,0(a0)
    800028c8:	40e68733          	sub	a4,a3,a4
    800028cc:	17f1                	addi	a5,a5,-4
    800028ce:	02050513          	addi	a0,a0,32
    800028d2:	fbd9                	bnez	a5,80002868 <main+0x1ba>
    800028d4:	6505                	lui	a0,0x1
    800028d6:	2561                	addiw	a0,a0,24 # 1018 <buflen.1+0xfd8>
    800028d8:	9516                	add	a0,a0,t0
    800028da:	08000793          	li	a5,128
    800028de:	3b9ad637          	lui	a2,0x3b9ad
    800028e2:	a076089b          	addiw	a7,a2,-1529 # 3b9aca07 <buflen.1+0x3b9ac9c7>
    800028e6:	02b70633          	mul	a2,a4,a1
    800028ea:	03f636b3          	mulhu	a3,a2,t6
    800028ee:	82f5                	srli	a3,a3,0x1d
    800028f0:	031686b3          	mul	a3,a3,a7
    800028f4:	40d60333          	sub	t1,a2,a3
    800028f8:	02b306b3          	mul	a3,t1,a1
    800028fc:	03f6b633          	mulhu	a2,a3,t6
    80002900:	8275                	srli	a2,a2,0x1d
    80002902:	03160633          	mul	a2,a2,a7
    80002906:	40c683b3          	sub	t2,a3,a2
    8000290a:	02b386b3          	mul	a3,t2,a1
    8000290e:	03f6b633          	mulhu	a2,a3,t6
    80002912:	8275                	srli	a2,a2,0x1d
    80002914:	03160633          	mul	a2,a2,a7
    80002918:	40c68633          	sub	a2,a3,a2
    8000291c:	02b606b3          	mul	a3,a2,a1
    80002920:	972e                	add	a4,a4,a1
    80002922:	fee53423          	sd	a4,-24(a0)
    80002926:	03f6be33          	mulhu	t3,a3,t6
    8000292a:	00b30733          	add	a4,t1,a1
    8000292e:	fee53823          	sd	a4,-16(a0)
    80002932:	00b38333          	add	t1,t2,a1
    80002936:	01de5713          	srli	a4,t3,0x1d
    8000293a:	03170733          	mul	a4,a4,a7
    8000293e:	fe653c23          	sd	t1,-8(a0)
    80002942:	962e                	add	a2,a2,a1
    80002944:	e110                	sd	a2,0(a0)
    80002946:	40e68733          	sub	a4,a3,a4
    8000294a:	17f1                	addi	a5,a5,-4
    8000294c:	02050513          	addi	a0,a0,32
    80002950:	fbd9                	bnez	a5,800028e6 <main+0x238>
    80002952:	6505                	lui	a0,0x1
    80002954:	4185051b          	addiw	a0,a0,1048 # 1418 <buflen.1+0x13d8>
    80002958:	9516                	add	a0,a0,t0
    8000295a:	08000793          	li	a5,128
    8000295e:	3b9ad637          	lui	a2,0x3b9ad
    80002962:	a076089b          	addiw	a7,a2,-1529 # 3b9aca07 <buflen.1+0x3b9ac9c7>
    80002966:	02b70633          	mul	a2,a4,a1
    8000296a:	03f636b3          	mulhu	a3,a2,t6
    8000296e:	82f5                	srli	a3,a3,0x1d
    80002970:	031686b3          	mul	a3,a3,a7
    80002974:	40d60333          	sub	t1,a2,a3
    80002978:	02b306b3          	mul	a3,t1,a1
    8000297c:	03f6b633          	mulhu	a2,a3,t6
    80002980:	8275                	srli	a2,a2,0x1d
    80002982:	03160633          	mul	a2,a2,a7
    80002986:	40c683b3          	sub	t2,a3,a2
    8000298a:	02b386b3          	mul	a3,t2,a1
    8000298e:	03f6b633          	mulhu	a2,a3,t6
    80002992:	8275                	srli	a2,a2,0x1d
    80002994:	03160633          	mul	a2,a2,a7
    80002998:	40c68633          	sub	a2,a3,a2
    8000299c:	02b606b3          	mul	a3,a2,a1
    800029a0:	972e                	add	a4,a4,a1
    800029a2:	fee53423          	sd	a4,-24(a0)
    800029a6:	03f6be33          	mulhu	t3,a3,t6
    800029aa:	00b30733          	add	a4,t1,a1
    800029ae:	fee53823          	sd	a4,-16(a0)
    800029b2:	00b38333          	add	t1,t2,a1
    800029b6:	01de5713          	srli	a4,t3,0x1d
    800029ba:	03170733          	mul	a4,a4,a7
    800029be:	fe653c23          	sd	t1,-8(a0)
    800029c2:	962e                	add	a2,a2,a1
    800029c4:	e110                	sd	a2,0(a0)
    800029c6:	40e68733          	sub	a4,a3,a4
    800029ca:	17f1                	addi	a5,a5,-4
    800029cc:	02050513          	addi	a0,a0,32
    800029d0:	fbd9                	bnez	a5,80002966 <main+0x2b8>
    800029d2:	6509                	lui	a0,0x2
    800029d4:	8185051b          	addiw	a0,a0,-2024 # 1818 <buflen.1+0x17d8>
    800029d8:	9516                	add	a0,a0,t0
    800029da:	08000793          	li	a5,128
    800029de:	3b9ad637          	lui	a2,0x3b9ad
    800029e2:	a076089b          	addiw	a7,a2,-1529 # 3b9aca07 <buflen.1+0x3b9ac9c7>
    800029e6:	02b70633          	mul	a2,a4,a1
    800029ea:	03f636b3          	mulhu	a3,a2,t6
    800029ee:	82f5                	srli	a3,a3,0x1d
    800029f0:	031686b3          	mul	a3,a3,a7
    800029f4:	40d60333          	sub	t1,a2,a3
    800029f8:	02b306b3          	mul	a3,t1,a1
    800029fc:	03f6b633          	mulhu	a2,a3,t6
    80002a00:	8275                	srli	a2,a2,0x1d
    80002a02:	03160633          	mul	a2,a2,a7
    80002a06:	40c683b3          	sub	t2,a3,a2
    80002a0a:	02b386b3          	mul	a3,t2,a1
    80002a0e:	03f6b633          	mulhu	a2,a3,t6
    80002a12:	8275                	srli	a2,a2,0x1d
    80002a14:	03160633          	mul	a2,a2,a7
    80002a18:	40c68633          	sub	a2,a3,a2
    80002a1c:	02b606b3          	mul	a3,a2,a1
    80002a20:	972e                	add	a4,a4,a1
    80002a22:	fee53423          	sd	a4,-24(a0)
    80002a26:	03f6be33          	mulhu	t3,a3,t6
    80002a2a:	00b30733          	add	a4,t1,a1
    80002a2e:	fee53823          	sd	a4,-16(a0)
    80002a32:	00b38333          	add	t1,t2,a1
    80002a36:	01de5713          	srli	a4,t3,0x1d
    80002a3a:	03170733          	mul	a4,a4,a7
    80002a3e:	fe653c23          	sd	t1,-8(a0)
    80002a42:	962e                	add	a2,a2,a1
    80002a44:	e110                	sd	a2,0(a0)
    80002a46:	40e68733          	sub	a4,a3,a4
    80002a4a:	17f1                	addi	a5,a5,-4
    80002a4c:	02050513          	addi	a0,a0,32
    80002a50:	fbd9                	bnez	a5,800029e6 <main+0x338>
    80002a52:	6509                	lui	a0,0x2
    80002a54:	c185051b          	addiw	a0,a0,-1000 # 1c18 <buflen.1+0x1bd8>
    80002a58:	9516                	add	a0,a0,t0
    80002a5a:	08000793          	li	a5,128
    80002a5e:	3b9ad637          	lui	a2,0x3b9ad
    80002a62:	a076089b          	addiw	a7,a2,-1529 # 3b9aca07 <buflen.1+0x3b9ac9c7>
    80002a66:	02b70633          	mul	a2,a4,a1
    80002a6a:	03f636b3          	mulhu	a3,a2,t6
    80002a6e:	82f5                	srli	a3,a3,0x1d
    80002a70:	031686b3          	mul	a3,a3,a7
    80002a74:	40d60333          	sub	t1,a2,a3
    80002a78:	02b306b3          	mul	a3,t1,a1
    80002a7c:	03f6b633          	mulhu	a2,a3,t6
    80002a80:	8275                	srli	a2,a2,0x1d
    80002a82:	03160633          	mul	a2,a2,a7
    80002a86:	40c683b3          	sub	t2,a3,a2
    80002a8a:	02b386b3          	mul	a3,t2,a1
    80002a8e:	03f6b633          	mulhu	a2,a3,t6
    80002a92:	8275                	srli	a2,a2,0x1d
    80002a94:	03160633          	mul	a2,a2,a7
    80002a98:	40c68633          	sub	a2,a3,a2
    80002a9c:	02b606b3          	mul	a3,a2,a1
    80002aa0:	972e                	add	a4,a4,a1
    80002aa2:	fee53423          	sd	a4,-24(a0)
    80002aa6:	03f6be33          	mulhu	t3,a3,t6
    80002aaa:	00b30733          	add	a4,t1,a1
    80002aae:	fee53823          	sd	a4,-16(a0)
    80002ab2:	00b38333          	add	t1,t2,a1
    80002ab6:	01de5713          	srli	a4,t3,0x1d
    80002aba:	03170733          	mul	a4,a4,a7
    80002abe:	fe653c23          	sd	t1,-8(a0)
    80002ac2:	962e                	add	a2,a2,a1
    80002ac4:	e110                	sd	a2,0(a0)
    80002ac6:	40e68733          	sub	a4,a3,a4
    80002aca:	17f1                	addi	a5,a5,-4
    80002acc:	02050513          	addi	a0,a0,32
    80002ad0:	fbd9                	bnez	a5,80002a66 <main+0x3b8>
    80002ad2:	6509                	lui	a0,0x2
    80002ad4:	2561                	addiw	a0,a0,24 # 2018 <buflen.1+0x1fd8>
    80002ad6:	9516                	add	a0,a0,t0
    80002ad8:	08000793          	li	a5,128
    80002adc:	3b9ad637          	lui	a2,0x3b9ad
    80002ae0:	a076089b          	addiw	a7,a2,-1529 # 3b9aca07 <buflen.1+0x3b9ac9c7>
    80002ae4:	02b70633          	mul	a2,a4,a1
    80002ae8:	03f636b3          	mulhu	a3,a2,t6
    80002aec:	82f5                	srli	a3,a3,0x1d
    80002aee:	031686b3          	mul	a3,a3,a7
    80002af2:	40d60333          	sub	t1,a2,a3
    80002af6:	02b306b3          	mul	a3,t1,a1
    80002afa:	03f6b633          	mulhu	a2,a3,t6
    80002afe:	8275                	srli	a2,a2,0x1d
    80002b00:	03160633          	mul	a2,a2,a7
    80002b04:	40c683b3          	sub	t2,a3,a2
    80002b08:	02b386b3          	mul	a3,t2,a1
    80002b0c:	03f6b633          	mulhu	a2,a3,t6
    80002b10:	8275                	srli	a2,a2,0x1d
    80002b12:	03160633          	mul	a2,a2,a7
    80002b16:	40c68633          	sub	a2,a3,a2
    80002b1a:	02b606b3          	mul	a3,a2,a1
    80002b1e:	972e                	add	a4,a4,a1
    80002b20:	fee53423          	sd	a4,-24(a0)
    80002b24:	03f6be33          	mulhu	t3,a3,t6
    80002b28:	00b30733          	add	a4,t1,a1
    80002b2c:	fee53823          	sd	a4,-16(a0)
    80002b30:	00b38333          	add	t1,t2,a1
    80002b34:	01de5713          	srli	a4,t3,0x1d
    80002b38:	03170733          	mul	a4,a4,a7
    80002b3c:	fe653c23          	sd	t1,-8(a0)
    80002b40:	962e                	add	a2,a2,a1
    80002b42:	e110                	sd	a2,0(a0)
    80002b44:	40e68733          	sub	a4,a3,a4
    80002b48:	17f1                	addi	a5,a5,-4
    80002b4a:	02050513          	addi	a0,a0,32
    80002b4e:	fbd9                	bnez	a5,80002ae4 <main+0x436>
    80002b50:	6509                	lui	a0,0x2
    80002b52:	4185051b          	addiw	a0,a0,1048 # 2418 <buflen.1+0x23d8>
    80002b56:	9516                	add	a0,a0,t0
    80002b58:	08000793          	li	a5,128
    80002b5c:	3b9ad637          	lui	a2,0x3b9ad
    80002b60:	a076089b          	addiw	a7,a2,-1529 # 3b9aca07 <buflen.1+0x3b9ac9c7>
    80002b64:	02b70633          	mul	a2,a4,a1
    80002b68:	03f636b3          	mulhu	a3,a2,t6
    80002b6c:	82f5                	srli	a3,a3,0x1d
    80002b6e:	031686b3          	mul	a3,a3,a7
    80002b72:	40d60333          	sub	t1,a2,a3
    80002b76:	02b306b3          	mul	a3,t1,a1
    80002b7a:	03f6b633          	mulhu	a2,a3,t6
    80002b7e:	8275                	srli	a2,a2,0x1d
    80002b80:	03160633          	mul	a2,a2,a7
    80002b84:	40c683b3          	sub	t2,a3,a2
    80002b88:	02b386b3          	mul	a3,t2,a1
    80002b8c:	03f6b633          	mulhu	a2,a3,t6
    80002b90:	8275                	srli	a2,a2,0x1d
    80002b92:	03160633          	mul	a2,a2,a7
    80002b96:	40c68633          	sub	a2,a3,a2
    80002b9a:	02b606b3          	mul	a3,a2,a1
    80002b9e:	972e                	add	a4,a4,a1
    80002ba0:	fee53423          	sd	a4,-24(a0)
    80002ba4:	03f6be33          	mulhu	t3,a3,t6
    80002ba8:	00b30733          	add	a4,t1,a1
    80002bac:	fee53823          	sd	a4,-16(a0)
    80002bb0:	00b38333          	add	t1,t2,a1
    80002bb4:	01de5713          	srli	a4,t3,0x1d
    80002bb8:	03170733          	mul	a4,a4,a7
    80002bbc:	fe653c23          	sd	t1,-8(a0)
    80002bc0:	962e                	add	a2,a2,a1
    80002bc2:	e110                	sd	a2,0(a0)
    80002bc4:	40e68733          	sub	a4,a3,a4
    80002bc8:	17f1                	addi	a5,a5,-4
    80002bca:	02050513          	addi	a0,a0,32
    80002bce:	fbd9                	bnez	a5,80002b64 <main+0x4b6>
    80002bd0:	650d                	lui	a0,0x3
    80002bd2:	8185051b          	addiw	a0,a0,-2024 # 2818 <buflen.1+0x27d8>
    80002bd6:	9516                	add	a0,a0,t0
    80002bd8:	08000793          	li	a5,128
    80002bdc:	3b9ad637          	lui	a2,0x3b9ad
    80002be0:	a076089b          	addiw	a7,a2,-1529 # 3b9aca07 <buflen.1+0x3b9ac9c7>
    80002be4:	02b70633          	mul	a2,a4,a1
    80002be8:	03f636b3          	mulhu	a3,a2,t6
    80002bec:	82f5                	srli	a3,a3,0x1d
    80002bee:	031686b3          	mul	a3,a3,a7
    80002bf2:	40d60333          	sub	t1,a2,a3
    80002bf6:	02b306b3          	mul	a3,t1,a1
    80002bfa:	03f6b633          	mulhu	a2,a3,t6
    80002bfe:	8275                	srli	a2,a2,0x1d
    80002c00:	03160633          	mul	a2,a2,a7
    80002c04:	40c683b3          	sub	t2,a3,a2
    80002c08:	02b386b3          	mul	a3,t2,a1
    80002c0c:	03f6b633          	mulhu	a2,a3,t6
    80002c10:	8275                	srli	a2,a2,0x1d
    80002c12:	03160633          	mul	a2,a2,a7
    80002c16:	40c68633          	sub	a2,a3,a2
    80002c1a:	02b606b3          	mul	a3,a2,a1
    80002c1e:	972e                	add	a4,a4,a1
    80002c20:	fee53423          	sd	a4,-24(a0)
    80002c24:	03f6be33          	mulhu	t3,a3,t6
    80002c28:	00b30733          	add	a4,t1,a1
    80002c2c:	fee53823          	sd	a4,-16(a0)
    80002c30:	00b38333          	add	t1,t2,a1
    80002c34:	01de5713          	srli	a4,t3,0x1d
    80002c38:	03170733          	mul	a4,a4,a7
    80002c3c:	fe653c23          	sd	t1,-8(a0)
    80002c40:	962e                	add	a2,a2,a1
    80002c42:	e110                	sd	a2,0(a0)
    80002c44:	40e68733          	sub	a4,a3,a4
    80002c48:	17f1                	addi	a5,a5,-4
    80002c4a:	02050513          	addi	a0,a0,32
    80002c4e:	fbd9                	bnez	a5,80002be4 <main+0x536>
    80002c50:	650d                	lui	a0,0x3
    80002c52:	c185051b          	addiw	a0,a0,-1000 # 2c18 <buflen.1+0x2bd8>
    80002c56:	9516                	add	a0,a0,t0
    80002c58:	08000693          	li	a3,128
    80002c5c:	3b9ad637          	lui	a2,0x3b9ad
    80002c60:	a076089b          	addiw	a7,a2,-1529 # 3b9aca07 <buflen.1+0x3b9ac9c7>
    80002c64:	02b70633          	mul	a2,a4,a1
    80002c68:	03f637b3          	mulhu	a5,a2,t6
    80002c6c:	83f5                	srli	a5,a5,0x1d
    80002c6e:	031787b3          	mul	a5,a5,a7
    80002c72:	40f602b3          	sub	t0,a2,a5
    80002c76:	02b287b3          	mul	a5,t0,a1
    80002c7a:	03f7b633          	mulhu	a2,a5,t6
    80002c7e:	8275                	srli	a2,a2,0x1d
    80002c80:	03160633          	mul	a2,a2,a7
    80002c84:	40c78333          	sub	t1,a5,a2
    80002c88:	02b307b3          	mul	a5,t1,a1
    80002c8c:	03f7b633          	mulhu	a2,a5,t6
    80002c90:	8275                	srli	a2,a2,0x1d
    80002c92:	03160633          	mul	a2,a2,a7
    80002c96:	40c78633          	sub	a2,a5,a2
    80002c9a:	02b607b3          	mul	a5,a2,a1
    80002c9e:	972e                	add	a4,a4,a1
    80002ca0:	fee53423          	sd	a4,-24(a0)
    80002ca4:	03f7b3b3          	mulhu	t2,a5,t6
    80002ca8:	00b28733          	add	a4,t0,a1
    80002cac:	fee53823          	sd	a4,-16(a0)
    80002cb0:	00b302b3          	add	t0,t1,a1
    80002cb4:	01d3d713          	srli	a4,t2,0x1d
    80002cb8:	03170733          	mul	a4,a4,a7
    80002cbc:	fe553c23          	sd	t0,-8(a0)
    80002cc0:	962e                	add	a2,a2,a1
    80002cc2:	e110                	sd	a2,0(a0)
    80002cc4:	40e78733          	sub	a4,a5,a4
    80002cc8:	16f1                	addi	a3,a3,-4
    80002cca:	02050513          	addi	a0,a0,32
    80002cce:	fad9                	bnez	a3,80002c64 <main+0x5b6>
    80002cd0:	00004297          	auipc	t0,0x4
    80002cd4:	eb828293          	addi	t0,t0,-328 # 80006b88 <kernel>
    80002cd8:	3b9ad537          	lui	a0,0x3b9ad
    80002cdc:	a075031b          	addiw	t1,a0,-1529 # 3b9aca07 <buflen.1+0x3b9ac9c7>
    80002ce0:	04000893          	li	a7,64
    80002ce4:	02b70633          	mul	a2,a4,a1
    80002ce8:	03f63433          	mulhu	s0,a2,t6
    80002cec:	8075                	srli	s0,s0,0x1d
    80002cee:	02640433          	mul	s0,s0,t1
    80002cf2:	8e01                	sub	a2,a2,s0
    80002cf4:	02b60433          	mul	s0,a2,a1
    80002cf8:	03f437b3          	mulhu	a5,s0,t6
    80002cfc:	83f5                	srli	a5,a5,0x1d
    80002cfe:	026787b3          	mul	a5,a5,t1
    80002d02:	40f407b3          	sub	a5,s0,a5
    80002d06:	02b78433          	mul	s0,a5,a1
    80002d0a:	03f43533          	mulhu	a0,s0,t6
    80002d0e:	8175                	srli	a0,a0,0x1d
    80002d10:	02650533          	mul	a0,a0,t1
    80002d14:	00b703b3          	add	t2,a4,a1
    80002d18:	40a40533          	sub	a0,s0,a0
    80002d1c:	02b50433          	mul	s0,a0,a1
    80002d20:	00d28733          	add	a4,t0,a3
    80002d24:	00773023          	sd	t2,0(a4)
    80002d28:	962e                	add	a2,a2,a1
    80002d2a:	03f433b3          	mulhu	t2,s0,t6
    80002d2e:	e710                	sd	a2,8(a4)
    80002d30:	00b78633          	add	a2,a5,a1
    80002d34:	eb10                	sd	a2,16(a4)
    80002d36:	01d3d613          	srli	a2,t2,0x1d
    80002d3a:	02660633          	mul	a2,a2,t1
    80002d3e:	952e                	add	a0,a0,a1
    80002d40:	ef08                	sd	a0,24(a4)
    80002d42:	02068693          	addi	a3,a3,32
    80002d46:	40c40733          	sub	a4,s0,a2
    80002d4a:	f9169de3          	bne	a3,a7,80002ce4 <main+0x636>
    80002d4e:	00e83023          	sd	a4,0(a6)
    80002d52:	b0002473          	csrr	s0,mcycle
    80002d56:	4531                	li	a0,12
    80002d58:	07900593          	li	a1,121
    80002d5c:	fffff097          	auipc	ra,0xfffff
    80002d60:	458080e7          	jalr	1112(ra) # 800021b4 <conv1d>
    80002d64:	b0002573          	csrr	a0,mcycle
    80002d68:	9d01                	subw	a0,a0,s0
    80002d6a:	60a2                	ld	ra,8(sp)
    80002d6c:	6402                	ld	s0,0(sp)
    80002d6e:	0141                	addi	sp,sp,16
    80002d70:	8082                	ret

0000000080002d72 <vprintfmt>:
    80002d72:	7149                	addi	sp,sp,-368
    80002d74:	f2a2                	sd	s0,352(sp)
    80002d76:	eea6                	sd	s1,344(sp)
    80002d78:	eaca                	sd	s2,336(sp)
    80002d7a:	e2d2                	sd	s4,320(sp)
    80002d7c:	fe56                	sd	s5,312(sp)
    80002d7e:	fa5a                	sd	s6,304(sp)
    80002d80:	f65e                	sd	s7,296(sp)
    80002d82:	f686                	sd	ra,360(sp)
    80002d84:	e6ce                	sd	s3,328(sp)
    80002d86:	f262                	sd	s8,288(sp)
    80002d88:	ee66                	sd	s9,280(sp)
    80002d8a:	e66e                	sd	s11,264(sp)
    80002d8c:	892a                	mv	s2,a0
    80002d8e:	84ae                	mv	s1,a1
    80002d90:	8432                	mv	s0,a2
    80002d92:	8bb6                	mv	s7,a3
    80002d94:	02500a13          	li	s4,37
    80002d98:	05500b13          	li	s6,85
    80002d9c:	00001a97          	auipc	s5,0x1
    80002da0:	c04a8a93          	addi	s5,s5,-1020 # 800039a0 <gen2+0x8>
    80002da4:	a029                	j	80002dae <vprintfmt+0x3c>
    80002da6:	cd1d                	beqz	a0,80002de4 <vprintfmt+0x72>
    80002da8:	85a6                	mv	a1,s1
    80002daa:	0405                	addi	s0,s0,1
    80002dac:	9902                	jalr	s2
    80002dae:	00044503          	lbu	a0,0(s0)
    80002db2:	ff451ae3          	bne	a0,s4,80002da6 <vprintfmt+0x34>
    80002db6:	00144683          	lbu	a3,1(s0)
    80002dba:	00140993          	addi	s3,s0,1
    80002dbe:	874e                	mv	a4,s3
    80002dc0:	02000c93          	li	s9,32
    80002dc4:	5c7d                	li	s8,-1
    80002dc6:	5dfd                	li	s11,-1
    80002dc8:	4581                	li	a1,0
    80002dca:	fdd6879b          	addiw	a5,a3,-35
    80002dce:	0ff7f793          	zext.b	a5,a5
    80002dd2:	00170413          	addi	s0,a4,1
    80002dd6:	04fb6163          	bltu	s6,a5,80002e18 <vprintfmt+0xa6>
    80002dda:	078a                	slli	a5,a5,0x2
    80002ddc:	97d6                	add	a5,a5,s5
    80002dde:	439c                	lw	a5,0(a5)
    80002de0:	97d6                	add	a5,a5,s5
    80002de2:	8782                	jr	a5
    80002de4:	70b6                	ld	ra,360(sp)
    80002de6:	7416                	ld	s0,352(sp)
    80002de8:	64f6                	ld	s1,344(sp)
    80002dea:	6956                	ld	s2,336(sp)
    80002dec:	69b6                	ld	s3,328(sp)
    80002dee:	6a16                	ld	s4,320(sp)
    80002df0:	7af2                	ld	s5,312(sp)
    80002df2:	7b52                	ld	s6,304(sp)
    80002df4:	7bb2                	ld	s7,296(sp)
    80002df6:	7c12                	ld	s8,288(sp)
    80002df8:	6cf2                	ld	s9,280(sp)
    80002dfa:	6db2                	ld	s11,264(sp)
    80002dfc:	6175                	addi	sp,sp,368
    80002dfe:	8082                	ret
    80002e00:	8cb6                	mv	s9,a3
    80002e02:	00174683          	lbu	a3,1(a4)
    80002e06:	8722                	mv	a4,s0
    80002e08:	00170413          	addi	s0,a4,1
    80002e0c:	fdd6879b          	addiw	a5,a3,-35
    80002e10:	0ff7f793          	zext.b	a5,a5
    80002e14:	fcfb73e3          	bgeu	s6,a5,80002dda <vprintfmt+0x68>
    80002e18:	85a6                	mv	a1,s1
    80002e1a:	02500513          	li	a0,37
    80002e1e:	9902                	jalr	s2
    80002e20:	844e                	mv	s0,s3
    80002e22:	b771                	j	80002dae <vprintfmt+0x3c>
    80002e24:	fd068c1b          	addiw	s8,a3,-48
    80002e28:	00174683          	lbu	a3,1(a4)
    80002e2c:	47a5                	li	a5,9
    80002e2e:	fd06871b          	addiw	a4,a3,-48
    80002e32:	0006861b          	sext.w	a2,a3
    80002e36:	20e7ef63          	bltu	a5,a4,80003054 <vprintfmt+0x2e2>
    80002e3a:	8722                	mv	a4,s0
    80002e3c:	4825                	li	a6,9
    80002e3e:	00174683          	lbu	a3,1(a4)
    80002e42:	002c179b          	slliw	a5,s8,0x2
    80002e46:	018787bb          	addw	a5,a5,s8
    80002e4a:	0017979b          	slliw	a5,a5,0x1
    80002e4e:	9fb1                	addw	a5,a5,a2
    80002e50:	fd06851b          	addiw	a0,a3,-48
    80002e54:	0705                	addi	a4,a4,1
    80002e56:	fd078c1b          	addiw	s8,a5,-48
    80002e5a:	0006861b          	sext.w	a2,a3
    80002e5e:	fea870e3          	bgeu	a6,a0,80002e3e <vprintfmt+0xcc>
    80002e62:	f60dd4e3          	bgez	s11,80002dca <vprintfmt+0x58>
    80002e66:	8de2                	mv	s11,s8
    80002e68:	5c7d                	li	s8,-1
    80002e6a:	b785                	j	80002dca <vprintfmt+0x58>
    80002e6c:	00174683          	lbu	a3,1(a4)
    80002e70:	8722                	mv	a4,s0
    80002e72:	bfa1                	j	80002dca <vprintfmt+0x58>
    80002e74:	85a6                	mv	a1,s1
    80002e76:	02500513          	li	a0,37
    80002e7a:	9902                	jalr	s2
    80002e7c:	bf0d                	j	80002dae <vprintfmt+0x3c>
    80002e7e:	000bac03          	lw	s8,0(s7)
    80002e82:	00174683          	lbu	a3,1(a4)
    80002e86:	0ba1                	addi	s7,s7,8
    80002e88:	8722                	mv	a4,s0
    80002e8a:	bfe1                	j	80002e62 <vprintfmt+0xf0>
    80002e8c:	85a6                	mv	a1,s1
    80002e8e:	03000513          	li	a0,48
    80002e92:	ea6a                	sd	s10,272(sp)
    80002e94:	9902                	jalr	s2
    80002e96:	85a6                	mv	a1,s1
    80002e98:	07800513          	li	a0,120
    80002e9c:	9902                	jalr	s2
    80002e9e:	4641                	li	a2,16
    80002ea0:	008b8713          	addi	a4,s7,8
    80002ea4:	000bb783          	ld	a5,0(s7)
    80002ea8:	8bba                	mv	s7,a4
    80002eaa:	02c7f5b3          	remu	a1,a5,a2
    80002eae:	000c899b          	sext.w	s3,s9
    80002eb2:	0054                	addi	a3,sp,4
    80002eb4:	4705                	li	a4,1
    80002eb6:	c02e                	sw	a1,0(sp)
    80002eb8:	16c7ea63          	bltu	a5,a2,8000302c <vprintfmt+0x2ba>
    80002ebc:	02c7d7b3          	divu	a5,a5,a2
    80002ec0:	0691                	addi	a3,a3,4
    80002ec2:	8c3a                	mv	s8,a4
    80002ec4:	2705                	addiw	a4,a4,1
    80002ec6:	02c7f5b3          	remu	a1,a5,a2
    80002eca:	feb6ae23          	sw	a1,-4(a3)
    80002ece:	fec7f7e3          	bgeu	a5,a2,80002ebc <vprintfmt+0x14a>
    80002ed2:	fffd8c9b          	addiw	s9,s11,-1
    80002ed6:	fff70d1b          	addiw	s10,a4,-1
    80002eda:	01b75863          	bge	a4,s11,80002eea <vprintfmt+0x178>
    80002ede:	85a6                	mv	a1,s1
    80002ee0:	854e                	mv	a0,s3
    80002ee2:	3cfd                	addiw	s9,s9,-1
    80002ee4:	9902                	jalr	s2
    80002ee6:	ffac9ce3          	bne	s9,s10,80002ede <vprintfmt+0x16c>
    80002eea:	0c0a                	slli	s8,s8,0x2
    80002eec:	018109b3          	add	s3,sp,s8
    80002ef0:	ffc10c93          	addi	s9,sp,-4
    80002ef4:	4c25                	li	s8,9
    80002ef6:	0009a783          	lw	a5,0(s3)
    80002efa:	03000513          	li	a0,48
    80002efe:	00fc7463          	bgeu	s8,a5,80002f06 <vprintfmt+0x194>
    80002f02:	05700513          	li	a0,87
    80002f06:	85a6                	mv	a1,s1
    80002f08:	9d3d                	addw	a0,a0,a5
    80002f0a:	19f1                	addi	s3,s3,-4
    80002f0c:	9902                	jalr	s2
    80002f0e:	ff9994e3          	bne	s3,s9,80002ef6 <vprintfmt+0x184>
    80002f12:	6d52                	ld	s10,272(sp)
    80002f14:	bd69                	j	80002dae <vprintfmt+0x3c>
    80002f16:	ea6a                	sd	s10,272(sp)
    80002f18:	4785                	li	a5,1
    80002f1a:	008b8c13          	addi	s8,s7,8
    80002f1e:	00b7c463          	blt	a5,a1,80002f26 <vprintfmt+0x1b4>
    80002f22:	10058763          	beqz	a1,80003030 <vprintfmt+0x2be>
    80002f26:	000bb983          	ld	s3,0(s7)
    80002f2a:	1009cc63          	bltz	s3,80003042 <vprintfmt+0x2d0>
    80002f2e:	87ce                	mv	a5,s3
    80002f30:	8be2                	mv	s7,s8
    80002f32:	4629                	li	a2,10
    80002f34:	bf9d                	j	80002eaa <vprintfmt+0x138>
    80002f36:	00174683          	lbu	a3,1(a4)
    80002f3a:	2585                	addiw	a1,a1,1
    80002f3c:	8722                	mv	a4,s0
    80002f3e:	b571                	j	80002dca <vprintfmt+0x58>
    80002f40:	ea6a                	sd	s10,272(sp)
    80002f42:	4641                	li	a2,16
    80002f44:	4785                	li	a5,1
    80002f46:	008b8713          	addi	a4,s7,8
    80002f4a:	f4b7cde3          	blt	a5,a1,80002ea4 <vprintfmt+0x132>
    80002f4e:	f9b9                	bnez	a1,80002ea4 <vprintfmt+0x132>
    80002f50:	000be783          	lwu	a5,0(s7)
    80002f54:	8bba                	mv	s7,a4
    80002f56:	bf91                	j	80002eaa <vprintfmt+0x138>
    80002f58:	ea6a                	sd	s10,272(sp)
    80002f5a:	000bbd03          	ld	s10,0(s7)
    80002f5e:	0ba1                	addi	s7,s7,8
    80002f60:	040d0363          	beqz	s10,80002fa6 <vprintfmt+0x234>
    80002f64:	09b05e63          	blez	s11,80003000 <vprintfmt+0x28e>
    80002f68:	02d00793          	li	a5,45
    80002f6c:	04fc9f63          	bne	s9,a5,80002fca <vprintfmt+0x258>
    80002f70:	000d4503          	lbu	a0,0(s10)
    80002f74:	c105                	beqz	a0,80002f94 <vprintfmt+0x222>
    80002f76:	59fd                	li	s3,-1
    80002f78:	000c4563          	bltz	s8,80002f82 <vprintfmt+0x210>
    80002f7c:	3c7d                	addiw	s8,s8,-1
    80002f7e:	013c0963          	beq	s8,s3,80002f90 <vprintfmt+0x21e>
    80002f82:	85a6                	mv	a1,s1
    80002f84:	9902                	jalr	s2
    80002f86:	001d4503          	lbu	a0,1(s10)
    80002f8a:	3dfd                	addiw	s11,s11,-1
    80002f8c:	0d05                	addi	s10,s10,1
    80002f8e:	f56d                	bnez	a0,80002f78 <vprintfmt+0x206>
    80002f90:	f9b051e3          	blez	s11,80002f12 <vprintfmt+0x1a0>
    80002f94:	85a6                	mv	a1,s1
    80002f96:	02000513          	li	a0,32
    80002f9a:	3dfd                	addiw	s11,s11,-1
    80002f9c:	9902                	jalr	s2
    80002f9e:	fe0d9be3          	bnez	s11,80002f94 <vprintfmt+0x222>
    80002fa2:	6d52                	ld	s10,272(sp)
    80002fa4:	b529                	j	80002dae <vprintfmt+0x3c>
    80002fa6:	00001d17          	auipc	s10,0x1
    80002faa:	b52d0d13          	addi	s10,s10,-1198 # 80003af8 <gen2+0x160>
    80002fae:	02800513          	li	a0,40
    80002fb2:	fdb052e3          	blez	s11,80002f76 <vprintfmt+0x204>
    80002fb6:	02d00793          	li	a5,45
    80002fba:	00001d17          	auipc	s10,0x1
    80002fbe:	b3ed0d13          	addi	s10,s10,-1218 # 80003af8 <gen2+0x160>
    80002fc2:	02800513          	li	a0,40
    80002fc6:	fafc88e3          	beq	s9,a5,80002f76 <vprintfmt+0x204>
    80002fca:	000d861b          	sext.w	a2,s11
    80002fce:	87ea                	mv	a5,s10
    80002fd0:	018d06b3          	add	a3,s10,s8
    80002fd4:	000c1663          	bnez	s8,80002fe0 <vprintfmt+0x26e>
    80002fd8:	a829                	j	80002ff2 <vprintfmt+0x280>
    80002fda:	0785                	addi	a5,a5,1
    80002fdc:	00d78563          	beq	a5,a3,80002fe6 <vprintfmt+0x274>
    80002fe0:	0007c703          	lbu	a4,0(a5)
    80002fe4:	fb7d                	bnez	a4,80002fda <vprintfmt+0x268>
    80002fe6:	41a787b3          	sub	a5,a5,s10
    80002fea:	40f60dbb          	subw	s11,a2,a5
    80002fee:	01b05963          	blez	s11,80003000 <vprintfmt+0x28e>
    80002ff2:	2c81                	sext.w	s9,s9
    80002ff4:	85a6                	mv	a1,s1
    80002ff6:	8566                	mv	a0,s9
    80002ff8:	3dfd                	addiw	s11,s11,-1
    80002ffa:	9902                	jalr	s2
    80002ffc:	fe0d9ce3          	bnez	s11,80002ff4 <vprintfmt+0x282>
    80003000:	000d4503          	lbu	a0,0(s10)
    80003004:	d519                	beqz	a0,80002f12 <vprintfmt+0x1a0>
    80003006:	59fd                	li	s3,-1
    80003008:	bf85                	j	80002f78 <vprintfmt+0x206>
    8000300a:	fffdc793          	not	a5,s11
    8000300e:	97fd                	srai	a5,a5,0x3f
    80003010:	00fdf7b3          	and	a5,s11,a5
    80003014:	00174683          	lbu	a3,1(a4)
    80003018:	00078d9b          	sext.w	s11,a5
    8000301c:	8722                	mv	a4,s0
    8000301e:	b375                	j	80002dca <vprintfmt+0x58>
    80003020:	000ba503          	lw	a0,0(s7)
    80003024:	85a6                	mv	a1,s1
    80003026:	0ba1                	addi	s7,s7,8
    80003028:	9902                	jalr	s2
    8000302a:	b351                	j	80002dae <vprintfmt+0x3c>
    8000302c:	4c01                	li	s8,0
    8000302e:	b555                	j	80002ed2 <vprintfmt+0x160>
    80003030:	000ba983          	lw	s3,0(s7)
    80003034:	bddd                	j	80002f2a <vprintfmt+0x1b8>
    80003036:	ea6a                	sd	s10,272(sp)
    80003038:	4629                	li	a2,10
    8000303a:	b729                	j	80002f44 <vprintfmt+0x1d2>
    8000303c:	ea6a                	sd	s10,272(sp)
    8000303e:	4621                	li	a2,8
    80003040:	b711                	j	80002f44 <vprintfmt+0x1d2>
    80003042:	85a6                	mv	a1,s1
    80003044:	02d00513          	li	a0,45
    80003048:	9902                	jalr	s2
    8000304a:	413007b3          	neg	a5,s3
    8000304e:	8be2                	mv	s7,s8
    80003050:	4629                	li	a2,10
    80003052:	bda1                	j	80002eaa <vprintfmt+0x138>
    80003054:	8722                	mv	a4,s0
    80003056:	b531                	j	80002e62 <vprintfmt+0xf0>

0000000080003058 <sprintf_putch.0>:
    80003058:	619c                	ld	a5,0(a1)
    8000305a:	00a78023          	sb	a0,0(a5)
    8000305e:	619c                	ld	a5,0(a1)
    80003060:	0785                	addi	a5,a5,1
    80003062:	e19c                	sd	a5,0(a1)
    80003064:	8082                	ret

0000000080003066 <putchar>:
    80003066:	04022803          	lw	a6,64(tp) # 40 <buflen.1>
    8000306a:	00020793          	mv	a5,tp
    8000306e:	97c2                	add	a5,a5,a6
    80003070:	7159                	addi	sp,sp,-112
    80003072:	0018069b          	addiw	a3,a6,1
    80003076:	04d22023          	sw	a3,64(tp) # 40 <buflen.1>
    8000307a:	00a78023          	sb	a0,0(a5)
    8000307e:	03f10713          	addi	a4,sp,63
    80003082:	47a9                	li	a5,10
    80003084:	fc077713          	andi	a4,a4,-64
    80003088:	00f50963          	beq	a0,a5,8000309a <putchar+0x34>
    8000308c:	04000793          	li	a5,64
    80003090:	00f68563          	beq	a3,a5,8000309a <putchar+0x34>
    80003094:	4501                	li	a0,0
    80003096:	6165                	addi	sp,sp,112
    80003098:	8082                	ret
    8000309a:	04000793          	li	a5,64
    8000309e:	e31c                	sd	a5,0(a4)
    800030a0:	4785                	li	a5,1
    800030a2:	e71c                	sd	a5,8(a4)
    800030a4:	00020613          	mv	a2,tp
    800030a8:	eb10                	sd	a2,16(a4)
    800030aa:	ef14                	sd	a3,24(a4)
    800030ac:	0ff0000f          	fence
    800030b0:	ffffe697          	auipc	a3,0xffffe
    800030b4:	f9068693          	addi	a3,a3,-112 # 80001040 <fromhost>
    800030b8:	ffffe797          	auipc	a5,0xffffe
    800030bc:	f4e7b423          	sd	a4,-184(a5) # 80001000 <tohost>
    800030c0:	629c                	ld	a5,0(a3)
    800030c2:	dffd                	beqz	a5,800030c0 <putchar+0x5a>
    800030c4:	ffffe797          	auipc	a5,0xffffe
    800030c8:	f607be23          	sd	zero,-132(a5) # 80001040 <fromhost>
    800030cc:	0ff0000f          	fence
    800030d0:	04022023          	sw	zero,64(tp) # 40 <buflen.1>
    800030d4:	631c                	ld	a5,0(a4)
    800030d6:	4501                	li	a0,0
    800030d8:	6165                	addi	sp,sp,112
    800030da:	8082                	ret

00000000800030dc <setStats>:
    800030dc:	b0002773          	csrr	a4,mcycle
    800030e0:	00007797          	auipc	a5,0x7
    800030e4:	84878793          	addi	a5,a5,-1976 # 80009928 <counters>
    800030e8:	c511                	beqz	a0,800030f4 <setStats+0x18>
    800030ea:	e398                	sd	a4,0(a5)
    800030ec:	b0202773          	csrr	a4,minstret
    800030f0:	e798                	sd	a4,8(a5)
    800030f2:	8082                	ret
    800030f4:	6394                	ld	a3,0(a5)
    800030f6:	00001617          	auipc	a2,0x1
    800030fa:	a1260613          	addi	a2,a2,-1518 # 80003b08 <gen2+0x170>
    800030fe:	eb90                	sd	a2,16(a5)
    80003100:	8f15                	sub	a4,a4,a3
    80003102:	e398                	sd	a4,0(a5)
    80003104:	b0202773          	csrr	a4,minstret
    80003108:	6794                	ld	a3,8(a5)
    8000310a:	00001617          	auipc	a2,0x1
    8000310e:	a0660613          	addi	a2,a2,-1530 # 80003b10 <gen2+0x178>
    80003112:	ef90                	sd	a2,24(a5)
    80003114:	8f15                	sub	a4,a4,a3
    80003116:	e798                	sd	a4,8(a5)
    80003118:	8082                	ret

000000008000311a <tohost_exit>:
    8000311a:	00151793          	slli	a5,a0,0x1
    8000311e:	0017e793          	ori	a5,a5,1
    80003122:	ffffe717          	auipc	a4,0xffffe
    80003126:	ecf73f23          	sd	a5,-290(a4) # 80001000 <tohost>
    8000312a:	a001                	j	8000312a <tohost_exit+0x10>

000000008000312c <handle_trap>:
    8000312c:	6785                	lui	a5,0x1
    8000312e:	a7378793          	addi	a5,a5,-1421 # a73 <buflen.1+0xa33>
    80003132:	ffffe717          	auipc	a4,0xffffe
    80003136:	ecf73723          	sd	a5,-306(a4) # 80001000 <tohost>
    8000313a:	a001                	j	8000313a <handle_trap+0xe>

000000008000313c <exit>:
    8000313c:	1141                	addi	sp,sp,-16
    8000313e:	e406                	sd	ra,8(sp)
    80003140:	fdbff0ef          	jal	8000311a <tohost_exit>

0000000080003144 <abort>:
    80003144:	10d00793          	li	a5,269
    80003148:	ffffe717          	auipc	a4,0xffffe
    8000314c:	eaf73c23          	sd	a5,-328(a4) # 80001000 <tohost>
    80003150:	a001                	j	80003150 <abort+0xc>

0000000080003152 <printstr>:
    80003152:	00054783          	lbu	a5,0(a0)
    80003156:	7159                	addi	sp,sp,-112
    80003158:	03f10693          	addi	a3,sp,63
    8000315c:	fc06f693          	andi	a3,a3,-64
    80003160:	c3b9                	beqz	a5,800031a6 <printstr+0x54>
    80003162:	87aa                	mv	a5,a0
    80003164:	0017c703          	lbu	a4,1(a5)
    80003168:	0785                	addi	a5,a5,1
    8000316a:	ff6d                	bnez	a4,80003164 <printstr+0x12>
    8000316c:	8f89                	sub	a5,a5,a0
    8000316e:	04000713          	li	a4,64
    80003172:	e298                	sd	a4,0(a3)
    80003174:	4705                	li	a4,1
    80003176:	e698                	sd	a4,8(a3)
    80003178:	ea88                	sd	a0,16(a3)
    8000317a:	ee9c                	sd	a5,24(a3)
    8000317c:	0ff0000f          	fence
    80003180:	ffffe717          	auipc	a4,0xffffe
    80003184:	ec070713          	addi	a4,a4,-320 # 80001040 <fromhost>
    80003188:	ffffe797          	auipc	a5,0xffffe
    8000318c:	e6d7bc23          	sd	a3,-392(a5) # 80001000 <tohost>
    80003190:	631c                	ld	a5,0(a4)
    80003192:	dffd                	beqz	a5,80003190 <printstr+0x3e>
    80003194:	ffffe797          	auipc	a5,0xffffe
    80003198:	ea07b623          	sd	zero,-340(a5) # 80001040 <fromhost>
    8000319c:	0ff0000f          	fence
    800031a0:	629c                	ld	a5,0(a3)
    800031a2:	6165                	addi	sp,sp,112
    800031a4:	8082                	ret
    800031a6:	4781                	li	a5,0
    800031a8:	b7d9                	j	8000316e <printstr+0x1c>

00000000800031aa <thread_entry>:
    800031aa:	c111                	beqz	a0,800031ae <thread_entry+0x4>
    800031ac:	a001                	j	800031ac <thread_entry+0x2>
    800031ae:	8082                	ret

00000000800031b0 <printhex>:
    800031b0:	7179                	addi	sp,sp,-48
    800031b2:	87aa                	mv	a5,a0
    800031b4:	f406                	sd	ra,40(sp)
    800031b6:	0028                	addi	a0,sp,8
    800031b8:	01710713          	addi	a4,sp,23
    800031bc:	4825                	li	a6,9
    800031be:	a011                	j	800031c2 <printhex+0x12>
    800031c0:	8736                	mv	a4,a3
    800031c2:	00f7f613          	andi	a2,a5,15
    800031c6:	86b2                	mv	a3,a2
    800031c8:	03000593          	li	a1,48
    800031cc:	00c87463          	bgeu	a6,a2,800031d4 <printhex+0x24>
    800031d0:	05700593          	li	a1,87
    800031d4:	9ead                	addw	a3,a3,a1
    800031d6:	00d70023          	sb	a3,0(a4)
    800031da:	8391                	srli	a5,a5,0x4
    800031dc:	fff70693          	addi	a3,a4,-1
    800031e0:	fee510e3          	bne	a0,a4,800031c0 <printhex+0x10>
    800031e4:	00010c23          	sb	zero,24(sp)
    800031e8:	f6bff0ef          	jal	80003152 <printstr>
    800031ec:	70a2                	ld	ra,40(sp)
    800031ee:	6145                	addi	sp,sp,48
    800031f0:	8082                	ret

00000000800031f2 <printf>:
    800031f2:	711d                	addi	sp,sp,-96
    800031f4:	02810313          	addi	t1,sp,40
    800031f8:	f42e                	sd	a1,40(sp)
    800031fa:	f832                	sd	a2,48(sp)
    800031fc:	fc36                	sd	a3,56(sp)
    800031fe:	862a                	mv	a2,a0
    80003200:	869a                	mv	a3,t1
    80003202:	00000517          	auipc	a0,0x0
    80003206:	e6450513          	addi	a0,a0,-412 # 80003066 <putchar>
    8000320a:	4581                	li	a1,0
    8000320c:	ec06                	sd	ra,24(sp)
    8000320e:	e0ba                	sd	a4,64(sp)
    80003210:	e4be                	sd	a5,72(sp)
    80003212:	e8c2                	sd	a6,80(sp)
    80003214:	ecc6                	sd	a7,88(sp)
    80003216:	e41a                	sd	t1,8(sp)
    80003218:	b5bff0ef          	jal	80002d72 <vprintfmt>
    8000321c:	60e2                	ld	ra,24(sp)
    8000321e:	4501                	li	a0,0
    80003220:	6125                	addi	sp,sp,96
    80003222:	8082                	ret

0000000080003224 <sprintf>:
    80003224:	711d                	addi	sp,sp,-96
    80003226:	03010e13          	addi	t3,sp,48
    8000322a:	f022                	sd	s0,32(sp)
    8000322c:	e42a                	sd	a0,8(sp)
    8000322e:	842a                	mv	s0,a0
    80003230:	f832                	sd	a2,48(sp)
    80003232:	fc36                	sd	a3,56(sp)
    80003234:	862e                	mv	a2,a1
    80003236:	00000517          	auipc	a0,0x0
    8000323a:	e2250513          	addi	a0,a0,-478 # 80003058 <sprintf_putch.0>
    8000323e:	002c                	addi	a1,sp,8
    80003240:	86f2                	mv	a3,t3
    80003242:	f406                	sd	ra,40(sp)
    80003244:	e4be                	sd	a5,72(sp)
    80003246:	e0ba                	sd	a4,64(sp)
    80003248:	e8c2                	sd	a6,80(sp)
    8000324a:	ecc6                	sd	a7,88(sp)
    8000324c:	ec72                	sd	t3,24(sp)
    8000324e:	b25ff0ef          	jal	80002d72 <vprintfmt>
    80003252:	67a2                	ld	a5,8(sp)
    80003254:	00078023          	sb	zero,0(a5)
    80003258:	6522                	ld	a0,8(sp)
    8000325a:	70a2                	ld	ra,40(sp)
    8000325c:	9d01                	subw	a0,a0,s0
    8000325e:	7402                	ld	s0,32(sp)
    80003260:	6125                	addi	sp,sp,96
    80003262:	8082                	ret

0000000080003264 <memcpy>:
    80003264:	00c5e7b3          	or	a5,a1,a2
    80003268:	8fc9                	or	a5,a5,a0
    8000326a:	8b9d                	andi	a5,a5,7
    8000326c:	00c506b3          	add	a3,a0,a2
    80003270:	cf91                	beqz	a5,8000328c <memcpy+0x28>
    80003272:	962e                	add	a2,a2,a1
    80003274:	87aa                	mv	a5,a0
    80003276:	02d57663          	bgeu	a0,a3,800032a2 <memcpy+0x3e>
    8000327a:	0005c703          	lbu	a4,0(a1)
    8000327e:	0585                	addi	a1,a1,1
    80003280:	0785                	addi	a5,a5,1
    80003282:	fee78fa3          	sb	a4,-1(a5)
    80003286:	feb61ae3          	bne	a2,a1,8000327a <memcpy+0x16>
    8000328a:	8082                	ret
    8000328c:	fed57fe3          	bgeu	a0,a3,8000328a <memcpy+0x26>
    80003290:	87aa                	mv	a5,a0
    80003292:	6198                	ld	a4,0(a1)
    80003294:	07a1                	addi	a5,a5,8
    80003296:	05a1                	addi	a1,a1,8
    80003298:	fee7bc23          	sd	a4,-8(a5)
    8000329c:	fed7ebe3          	bltu	a5,a3,80003292 <memcpy+0x2e>
    800032a0:	8082                	ret
    800032a2:	8082                	ret

00000000800032a4 <memset>:
    800032a4:	00c567b3          	or	a5,a0,a2
    800032a8:	8b9d                	andi	a5,a5,7
    800032aa:	962a                	add	a2,a2,a0
    800032ac:	cf81                	beqz	a5,800032c4 <memset+0x20>
    800032ae:	0ff5f713          	zext.b	a4,a1
    800032b2:	87aa                	mv	a5,a0
    800032b4:	02c57f63          	bgeu	a0,a2,800032f2 <memset+0x4e>
    800032b8:	0785                	addi	a5,a5,1
    800032ba:	fee78fa3          	sb	a4,-1(a5)
    800032be:	fec79de3          	bne	a5,a2,800032b8 <memset+0x14>
    800032c2:	8082                	ret
    800032c4:	010107b7          	lui	a5,0x1010
    800032c8:	10178793          	addi	a5,a5,257 # 1010101 <buflen.1+0x10100c1>
    800032cc:	07c2                	slli	a5,a5,0x10
    800032ce:	10178793          	addi	a5,a5,257
    800032d2:	07c2                	slli	a5,a5,0x10
    800032d4:	0ff5f713          	zext.b	a4,a1
    800032d8:	10178793          	addi	a5,a5,257
    800032dc:	02f70733          	mul	a4,a4,a5
    800032e0:	fec571e3          	bgeu	a0,a2,800032c2 <memset+0x1e>
    800032e4:	87aa                	mv	a5,a0
    800032e6:	07a1                	addi	a5,a5,8
    800032e8:	fee7bc23          	sd	a4,-8(a5)
    800032ec:	fec7ede3          	bltu	a5,a2,800032e6 <memset+0x42>
    800032f0:	8082                	ret
    800032f2:	8082                	ret

00000000800032f4 <_init>:
    800032f4:	7171                	addi	sp,sp,-176
    800032f6:	00006797          	auipc	a5,0x6
    800032fa:	65278793          	addi	a5,a5,1618 # 80009948 <_tdata_begin>
    800032fe:	e152                	sd	s4,128(sp)
    80003300:	00006a17          	auipc	s4,0x6
    80003304:	648a0a13          	addi	s4,s4,1608 # 80009948 <_tdata_begin>
    80003308:	e54e                	sd	s3,136(sp)
    8000330a:	40fa09b3          	sub	s3,s4,a5
    8000330e:	ed26                	sd	s1,152(sp)
    80003310:	e94a                	sd	s2,144(sp)
    80003312:	84aa                	mv	s1,a0
    80003314:	892e                	mv	s2,a1
    80003316:	8512                	mv	a0,tp
    80003318:	85be                	mv	a1,a5
    8000331a:	864e                	mv	a2,s3
    8000331c:	f506                	sd	ra,168(sp)
    8000331e:	f122                	sd	s0,160(sp)
    80003320:	fcd6                	sd	s5,120(sp)
    80003322:	8a92                	mv	s5,tp
    80003324:	f41ff0ef          	jal	80003264 <memcpy>
    80003328:	00006617          	auipc	a2,0x6
    8000332c:	69c60613          	addi	a2,a2,1692 # 800099c4 <_tbss_end>
    80003330:	41460633          	sub	a2,a2,s4
    80003334:	4581                	li	a1,0
    80003336:	013a8533          	add	a0,s5,s3
    8000333a:	f6bff0ef          	jal	800032a4 <memset>
    8000333e:	85ca                	mv	a1,s2
    80003340:	8526                	mv	a0,s1
    80003342:	e69ff0ef          	jal	800031aa <thread_entry>
    80003346:	4581                	li	a1,0
    80003348:	4501                	li	a0,0
    8000334a:	b64ff0ef          	jal	800026ae <main>
    8000334e:	00006917          	auipc	s2,0x6
    80003352:	5da90913          	addi	s2,s2,1498 # 80009928 <counters>
    80003356:	00093683          	ld	a3,0(s2)
    8000335a:	03f10413          	addi	s0,sp,63
    8000335e:	fc047413          	andi	s0,s0,-64
    80003362:	84aa                	mv	s1,a0
    80003364:	ea85                	bnez	a3,80003394 <_init+0xa0>
    80003366:	00893683          	ld	a3,8(s2)
    8000336a:	e681                	bnez	a3,80003372 <_init+0x7e>
    8000336c:	8526                	mv	a0,s1
    8000336e:	dadff0ef          	jal	8000311a <tohost_exit>
    80003372:	89a2                	mv	s3,s0
    80003374:	01893603          	ld	a2,24(s2)
    80003378:	854e                	mv	a0,s3
    8000337a:	00000597          	auipc	a1,0x0
    8000337e:	7be58593          	addi	a1,a1,1982 # 80003b38 <gen2+0x1a0>
    80003382:	ea3ff0ef          	jal	80003224 <sprintf>
    80003386:	99aa                	add	s3,s3,a0
    80003388:	ff3402e3          	beq	s0,s3,8000336c <_init+0x78>
    8000338c:	8522                	mv	a0,s0
    8000338e:	dc5ff0ef          	jal	80003152 <printstr>
    80003392:	bfe9                	j	8000336c <_init+0x78>
    80003394:	01093603          	ld	a2,16(s2)
    80003398:	00000597          	auipc	a1,0x0
    8000339c:	7a058593          	addi	a1,a1,1952 # 80003b38 <gen2+0x1a0>
    800033a0:	8522                	mv	a0,s0
    800033a2:	e83ff0ef          	jal	80003224 <sprintf>
    800033a6:	00893683          	ld	a3,8(s2)
    800033aa:	00a409b3          	add	s3,s0,a0
    800033ae:	dee9                	beqz	a3,80003388 <_init+0x94>
    800033b0:	b7d1                	j	80003374 <_init+0x80>

00000000800033b2 <strlen>:
    800033b2:	00054783          	lbu	a5,0(a0)
    800033b6:	cb89                	beqz	a5,800033c8 <strlen+0x16>
    800033b8:	87aa                	mv	a5,a0
    800033ba:	0017c703          	lbu	a4,1(a5)
    800033be:	0785                	addi	a5,a5,1
    800033c0:	ff6d                	bnez	a4,800033ba <strlen+0x8>
    800033c2:	40a78533          	sub	a0,a5,a0
    800033c6:	8082                	ret
    800033c8:	4501                	li	a0,0
    800033ca:	8082                	ret

00000000800033cc <strnlen>:
    800033cc:	00b506b3          	add	a3,a0,a1
    800033d0:	87aa                	mv	a5,a0
    800033d2:	e589                	bnez	a1,800033dc <strnlen+0x10>
    800033d4:	a829                	j	800033ee <strnlen+0x22>
    800033d6:	0785                	addi	a5,a5,1
    800033d8:	00f68863          	beq	a3,a5,800033e8 <strnlen+0x1c>
    800033dc:	0007c703          	lbu	a4,0(a5)
    800033e0:	fb7d                	bnez	a4,800033d6 <strnlen+0xa>
    800033e2:	40a78533          	sub	a0,a5,a0
    800033e6:	8082                	ret
    800033e8:	40a68533          	sub	a0,a3,a0
    800033ec:	8082                	ret
    800033ee:	4501                	li	a0,0
    800033f0:	8082                	ret

00000000800033f2 <strcmp>:
    800033f2:	00054783          	lbu	a5,0(a0)
    800033f6:	0585                	addi	a1,a1,1
    800033f8:	0505                	addi	a0,a0,1
    800033fa:	fff5c703          	lbu	a4,-1(a1)
    800033fe:	c799                	beqz	a5,8000340c <strcmp+0x1a>
    80003400:	fee789e3          	beq	a5,a4,800033f2 <strcmp>
    80003404:	0007851b          	sext.w	a0,a5
    80003408:	9d19                	subw	a0,a0,a4
    8000340a:	8082                	ret
    8000340c:	4501                	li	a0,0
    8000340e:	bfed                	j	80003408 <strcmp+0x16>

0000000080003410 <strcpy>:
    80003410:	87aa                	mv	a5,a0
    80003412:	0005c703          	lbu	a4,0(a1)
    80003416:	0785                	addi	a5,a5,1
    80003418:	0585                	addi	a1,a1,1
    8000341a:	fee78fa3          	sb	a4,-1(a5)
    8000341e:	fb75                	bnez	a4,80003412 <strcpy+0x2>
    80003420:	8082                	ret

0000000080003422 <atol>:
    80003422:	00054703          	lbu	a4,0(a0)
    80003426:	02000693          	li	a3,32
    8000342a:	87aa                	mv	a5,a0
    8000342c:	00d71763          	bne	a4,a3,8000343a <atol+0x18>
    80003430:	0017c703          	lbu	a4,1(a5)
    80003434:	0785                	addi	a5,a5,1
    80003436:	fed70de3          	beq	a4,a3,80003430 <atol+0xe>
    8000343a:	02d00693          	li	a3,45
    8000343e:	04d70163          	beq	a4,a3,80003480 <atol+0x5e>
    80003442:	02b00693          	li	a3,43
    80003446:	02d70763          	beq	a4,a3,80003474 <atol+0x52>
    8000344a:	0007c683          	lbu	a3,0(a5)
    8000344e:	4581                	li	a1,0
    80003450:	ce8d                	beqz	a3,8000348a <atol+0x68>
    80003452:	4501                	li	a0,0
    80003454:	0785                	addi	a5,a5,1
    80003456:	00251713          	slli	a4,a0,0x2
    8000345a:	fd06861b          	addiw	a2,a3,-48
    8000345e:	0007c683          	lbu	a3,0(a5)
    80003462:	972a                	add	a4,a4,a0
    80003464:	0706                	slli	a4,a4,0x1
    80003466:	00e60533          	add	a0,a2,a4
    8000346a:	f6ed                	bnez	a3,80003454 <atol+0x32>
    8000346c:	c185                	beqz	a1,8000348c <atol+0x6a>
    8000346e:	40a00533          	neg	a0,a0
    80003472:	8082                	ret
    80003474:	0017c683          	lbu	a3,1(a5)
    80003478:	0785                	addi	a5,a5,1
    8000347a:	ca81                	beqz	a3,8000348a <atol+0x68>
    8000347c:	4581                	li	a1,0
    8000347e:	bfd1                	j	80003452 <atol+0x30>
    80003480:	0017c683          	lbu	a3,1(a5)
    80003484:	4585                	li	a1,1
    80003486:	0785                	addi	a5,a5,1
    80003488:	f6e9                	bnez	a3,80003452 <atol+0x30>
    8000348a:	4501                	li	a0,0
    8000348c:	8082                	ret

000000008000348e <__errno>:
    8000348e:	83818513          	addi	a0,gp,-1992 # 80003b80 <__errno_location>
    80003492:	8082                	ret

0000000080003494 <atoi>:
    80003494:	cd41                	beqz	a0,8000352c <atoi+0x98>
    80003496:	02000693          	li	a3,32
    8000349a:	4611                	li	a2,4
    8000349c:	00054783          	lbu	a5,0(a0)
    800034a0:	ff77871b          	addiw	a4,a5,-9
    800034a4:	0ff77713          	zext.b	a4,a4
    800034a8:	06d78863          	beq	a5,a3,80003518 <atoi+0x84>
    800034ac:	06e67663          	bgeu	a2,a4,80003518 <atoi+0x84>
    800034b0:	02b00713          	li	a4,43
    800034b4:	06e78763          	beq	a5,a4,80003522 <atoi+0x8e>
    800034b8:	02d00713          	li	a4,45
    800034bc:	4305                	li	t1,1
    800034be:	06e78963          	beq	a5,a4,80003530 <atoi+0x9c>
    800034c2:	fd07879b          	addiw	a5,a5,-48
    800034c6:	0ff7f693          	zext.b	a3,a5
    800034ca:	4725                	li	a4,9
    800034cc:	06d76063          	bltu	a4,a3,8000352c <atoi+0x98>
    800034d0:	800005b7          	lui	a1,0x80000
    800034d4:	4681                	li	a3,0
    800034d6:	35fd                	addiw	a1,a1,-1 # 7fffffff <buflen.1+0x7fffffbf>
    800034d8:	4829                	li	a6,10
    800034da:	48a5                	li	a7,9
    800034dc:	a819                	j	800034f2 <atoi+0x5e>
    800034de:	00054783          	lbu	a5,0(a0)
    800034e2:	0007069b          	sext.w	a3,a4
    800034e6:	fd07879b          	addiw	a5,a5,-48
    800034ea:	0ff7f613          	zext.b	a2,a5
    800034ee:	02c8e763          	bltu	a7,a2,8000351c <atoi+0x88>
    800034f2:	40f5863b          	subw	a2,a1,a5
    800034f6:	0306463b          	divw	a2,a2,a6
    800034fa:	0026971b          	slliw	a4,a3,0x2
    800034fe:	9f35                	addw	a4,a4,a3
    80003500:	0017171b          	slliw	a4,a4,0x1
    80003504:	0505                	addi	a0,a0,1
    80003506:	9f3d                	addw	a4,a4,a5
    80003508:	fcd65be3          	bge	a2,a3,800034de <atoi+0x4a>
    8000350c:	4785                	li	a5,1
    8000350e:	80000537          	lui	a0,0x80000
    80003512:	02f30163          	beq	t1,a5,80003534 <atoi+0xa0>
    80003516:	8082                	ret
    80003518:	0505                	addi	a0,a0,1 # ffffffff80000001 <_tbss_end+0xfffffffeffff663d>
    8000351a:	b749                	j	8000349c <atoi+0x8>
    8000351c:	0267053b          	mulw	a0,a4,t1
    80003520:	8082                	ret
    80003522:	4305                	li	t1,1
    80003524:	00154783          	lbu	a5,1(a0)
    80003528:	0505                	addi	a0,a0,1
    8000352a:	bf61                	j	800034c2 <atoi+0x2e>
    8000352c:	4501                	li	a0,0
    8000352e:	8082                	ret
    80003530:	537d                	li	t1,-1
    80003532:	bfcd                	j	80003524 <atoi+0x90>
    80003534:	fff54513          	not	a0,a0
    80003538:	8082                	ret

000000008000353a <strtol>:
    8000353a:	872a                	mv	a4,a0
    8000353c:	4811                	li	a6,4
    8000353e:	02000513          	li	a0,32
    80003542:	00074683          	lbu	a3,0(a4)
    80003546:	ff76879b          	addiw	a5,a3,-9
    8000354a:	0ff7f793          	zext.b	a5,a5
    8000354e:	04a68b63          	beq	a3,a0,800035a4 <strtol+0x6a>
    80003552:	04f87963          	bgeu	a6,a5,800035a4 <strtol+0x6a>
    80003556:	02d00793          	li	a5,45
    8000355a:	08f68963          	beq	a3,a5,800035ec <strtol+0xb2>
    8000355e:	02b00793          	li	a5,43
    80003562:	4e01                	li	t3,0
    80003564:	08f68063          	beq	a3,a5,800035e4 <strtol+0xaa>
    80003568:	ee29                	bnez	a2,800035c2 <strtol+0x88>
    8000356a:	03000793          	li	a5,48
    8000356e:	4629                	li	a2,10
    80003570:	08f68363          	beq	a3,a5,800035f6 <strtol+0xbc>
    80003574:	4501                	li	a0,0
    80003576:	48a5                	li	a7,9
    80003578:	4365                	li	t1,25
    8000357a:	00074683          	lbu	a3,0(a4)
    8000357e:	fd06879b          	addiw	a5,a3,-48
    80003582:	f9f6881b          	addiw	a6,a3,-97
    80003586:	00f8f863          	bgeu	a7,a5,80003596 <strtol+0x5c>
    8000358a:	fbf6879b          	addiw	a5,a3,-65
    8000358e:	01036d63          	bltu	t1,a6,800035a8 <strtol+0x6e>
    80003592:	fa96879b          	addiw	a5,a3,-87
    80003596:	00c7df63          	bge	a5,a2,800035b4 <strtol+0x7a>
    8000359a:	02a60533          	mul	a0,a2,a0
    8000359e:	0705                	addi	a4,a4,1
    800035a0:	953e                	add	a0,a0,a5
    800035a2:	bfe1                	j	8000357a <strtol+0x40>
    800035a4:	0705                	addi	a4,a4,1
    800035a6:	bf71                	j	80003542 <strtol+0x8>
    800035a8:	00f36663          	bltu	t1,a5,800035b4 <strtol+0x7a>
    800035ac:	fc96879b          	addiw	a5,a3,-55
    800035b0:	fec7c5e3          	blt	a5,a2,8000359a <strtol+0x60>
    800035b4:	c191                	beqz	a1,800035b8 <strtol+0x7e>
    800035b6:	e198                	sd	a4,0(a1)
    800035b8:	000e0463          	beqz	t3,800035c0 <strtol+0x86>
    800035bc:	40a00533          	neg	a0,a0
    800035c0:	8082                	ret
    800035c2:	47c1                	li	a5,16
    800035c4:	faf618e3          	bne	a2,a5,80003574 <strtol+0x3a>
    800035c8:	03000793          	li	a5,48
    800035cc:	faf694e3          	bne	a3,a5,80003574 <strtol+0x3a>
    800035d0:	00174783          	lbu	a5,1(a4)
    800035d4:	05800693          	li	a3,88
    800035d8:	0df7f793          	andi	a5,a5,223
    800035dc:	f8d79ce3          	bne	a5,a3,80003574 <strtol+0x3a>
    800035e0:	0709                	addi	a4,a4,2
    800035e2:	bf49                	j	80003574 <strtol+0x3a>
    800035e4:	00174683          	lbu	a3,1(a4)
    800035e8:	0705                	addi	a4,a4,1
    800035ea:	bfbd                	j	80003568 <strtol+0x2e>
    800035ec:	00174683          	lbu	a3,1(a4)
    800035f0:	4e05                	li	t3,1
    800035f2:	0705                	addi	a4,a4,1
    800035f4:	bf95                	j	80003568 <strtol+0x2e>
    800035f6:	00174783          	lbu	a5,1(a4)
    800035fa:	05800693          	li	a3,88
    800035fe:	0df7f793          	andi	a5,a5,223
    80003602:	00d78563          	beq	a5,a3,8000360c <strtol+0xd2>
    80003606:	0705                	addi	a4,a4,1
    80003608:	4621                	li	a2,8
    8000360a:	b7ad                	j	80003574 <strtol+0x3a>
    8000360c:	0709                	addi	a4,a4,2
    8000360e:	4641                	li	a2,16
    80003610:	b795                	j	80003574 <strtol+0x3a>

0000000080003612 <my_isspace>:
    80003612:	02000793          	li	a5,32
    80003616:	00f50863          	beq	a0,a5,80003626 <my_isspace+0x14>
    8000361a:	355d                	addiw	a0,a0,-9
    8000361c:	0ff57513          	zext.b	a0,a0
    80003620:	00553513          	sltiu	a0,a0,5
    80003624:	8082                	ret
    80003626:	4505                	li	a0,1
    80003628:	8082                	ret

000000008000362a <my_isdigit>:
    8000362a:	fd05051b          	addiw	a0,a0,-48
    8000362e:	0ff57513          	zext.b	a0,a0
    80003632:	00a53513          	sltiu	a0,a0,10
    80003636:	8082                	ret

0000000080003638 <strtod>:
    80003638:	02000693          	li	a3,32
    8000363c:	4611                	li	a2,4
    8000363e:	00054783          	lbu	a5,0(a0)
    80003642:	ff77871b          	addiw	a4,a5,-9
    80003646:	0ff77713          	zext.b	a4,a4
    8000364a:	08d78263          	beq	a5,a3,800036ce <strtod+0x96>
    8000364e:	08e67063          	bgeu	a2,a4,800036ce <strtod+0x96>
    80003652:	02d00713          	li	a4,45
    80003656:	06e78e63          	beq	a5,a4,800036d2 <strtod+0x9a>
    8000365a:	02b00713          	li	a4,43
    8000365e:	08e78663          	beq	a5,a4,800036ea <strtod+0xb2>
    80003662:	00000717          	auipc	a4,0x0
    80003666:	4e673587          	fld	fa1,1254(a4) # 80003b48 <gen2+0x1b0>
    8000366a:	22b58553          	fmv.d	fa0,fa1
    8000366e:	fd07871b          	addiw	a4,a5,-48
    80003672:	0ff77613          	zext.b	a2,a4
    80003676:	46a5                	li	a3,9
    80003678:	f20007d3          	fmv.d.x	fa5,zero
    8000367c:	02c6e463          	bltu	a3,a2,800036a4 <strtod+0x6c>
    80003680:	00000797          	auipc	a5,0x0
    80003684:	4d87b687          	fld	fa3,1240(a5) # 80003b58 <gen2+0x1c0>
    80003688:	4625                	li	a2,9
    8000368a:	00154783          	lbu	a5,1(a0)
    8000368e:	d2070753          	fcvt.d.w	fa4,a4
    80003692:	0505                	addi	a0,a0,1
    80003694:	fd07871b          	addiw	a4,a5,-48
    80003698:	0ff77693          	zext.b	a3,a4
    8000369c:	72d7f7c3          	fmadd.d	fa5,fa5,fa3,fa4
    800036a0:	fed675e3          	bgeu	a2,a3,8000368a <strtod+0x52>
    800036a4:	02e00713          	li	a4,46
    800036a8:	0ce78363          	beq	a5,a4,8000376e <strtod+0x136>
    800036ac:	00054703          	lbu	a4,0(a0)
    800036b0:	0df77713          	andi	a4,a4,223
    800036b4:	04500793          	li	a5,69
    800036b8:	22b58753          	fmv.d	fa4,fa1
    800036bc:	04f70163          	beq	a4,a5,800036fe <strtod+0xc6>
    800036c0:	12a7f553          	fmul.d	fa0,fa5,fa0
    800036c4:	12e57553          	fmul.d	fa0,fa0,fa4
    800036c8:	c191                	beqz	a1,800036cc <strtod+0x94>
    800036ca:	e188                	sd	a0,0(a1)
    800036cc:	8082                	ret
    800036ce:	0505                	addi	a0,a0,1
    800036d0:	b7bd                	j	8000363e <strtod+0x6>
    800036d2:	00154783          	lbu	a5,1(a0)
    800036d6:	00000717          	auipc	a4,0x0
    800036da:	47a73507          	fld	fa0,1146(a4) # 80003b50 <gen2+0x1b8>
    800036de:	0505                	addi	a0,a0,1
    800036e0:	00000717          	auipc	a4,0x0
    800036e4:	46873587          	fld	fa1,1128(a4) # 80003b48 <gen2+0x1b0>
    800036e8:	b759                	j	8000366e <strtod+0x36>
    800036ea:	00000797          	auipc	a5,0x0
    800036ee:	45e7b587          	fld	fa1,1118(a5) # 80003b48 <gen2+0x1b0>
    800036f2:	00154783          	lbu	a5,1(a0)
    800036f6:	22b58553          	fmv.d	fa0,fa1
    800036fa:	0505                	addi	a0,a0,1
    800036fc:	bf8d                	j	8000366e <strtod+0x36>
    800036fe:	00154803          	lbu	a6,1(a0)
    80003702:	02d00793          	li	a5,45
    80003706:	0cf80363          	beq	a6,a5,800037cc <strtod+0x194>
    8000370a:	02b00793          	li	a5,43
    8000370e:	0ef80563          	beq	a6,a5,800037f8 <strtod+0x1c0>
    80003712:	0505                	addi	a0,a0,1
    80003714:	4705                	li	a4,1
    80003716:	fd08069b          	addiw	a3,a6,-48
    8000371a:	0ff6f613          	zext.b	a2,a3
    8000371e:	47a5                	li	a5,9
    80003720:	0ec7e163          	bltu	a5,a2,80003802 <strtod+0x1ca>
    80003724:	4601                	li	a2,0
    80003726:	48a5                	li	a7,9
    80003728:	00154803          	lbu	a6,1(a0)
    8000372c:	0026179b          	slliw	a5,a2,0x2
    80003730:	9fb1                	addw	a5,a5,a2
    80003732:	0017979b          	slliw	a5,a5,0x1
    80003736:	00f6863b          	addw	a2,a3,a5
    8000373a:	fd08069b          	addiw	a3,a6,-48
    8000373e:	0ff6f813          	zext.b	a6,a3
    80003742:	0505                	addi	a0,a0,1
    80003744:	ff08f2e3          	bgeu	a7,a6,80003728 <strtod+0xf0>
    80003748:	02c7073b          	mulw	a4,a4,a2
    8000374c:	08075563          	bgez	a4,800037d6 <strtod+0x19e>
    80003750:	22b58753          	fmv.d	fa4,fa1
    80003754:	0017079b          	addiw	a5,a4,1
    80003758:	00000717          	auipc	a4,0x0
    8000375c:	40873687          	fld	fa3,1032(a4) # 80003b60 <gen2+0x1c8>
    80003760:	4705                	li	a4,1
    80003762:	2785                	addiw	a5,a5,1
    80003764:	12d77753          	fmul.d	fa4,fa4,fa3
    80003768:	fee79de3          	bne	a5,a4,80003762 <strtod+0x12a>
    8000376c:	bf91                	j	800036c0 <strtod+0x88>
    8000376e:	00154703          	lbu	a4,1(a0)
    80003772:	46a5                	li	a3,9
    80003774:	0505                	addi	a0,a0,1
    80003776:	fd07079b          	addiw	a5,a4,-48
    8000377a:	0ff7f613          	zext.b	a2,a5
    8000377e:	f2c6e9e3          	bltu	a3,a2,800036b0 <strtod+0x78>
    80003782:	d2078753          	fcvt.d.w	fa4,a5
    80003786:	4325                	li	t1,9
    80003788:	4781                	li	a5,0
    8000378a:	00000717          	auipc	a4,0x0
    8000378e:	3d673687          	fld	fa3,982(a4) # 80003b60 <gen2+0x1c8>
    80003792:	4685                	li	a3,1
    80003794:	00154703          	lbu	a4,1(a0)
    80003798:	02e7f7d3          	fadd.d	fa5,fa5,fa4
    8000379c:	0505                	addi	a0,a0,1
    8000379e:	fd07061b          	addiw	a2,a4,-48
    800037a2:	0ff67813          	zext.b	a6,a2
    800037a6:	0017889b          	addiw	a7,a5,1
    800037aa:	f10363e3          	bltu	t1,a6,800036b0 <strtod+0x78>
    800037ae:	22b58753          	fmv.d	fa4,fa1
    800037b2:	40f007bb          	negw	a5,a5
    800037b6:	2785                	addiw	a5,a5,1
    800037b8:	12d77753          	fmul.d	fa4,fa4,fa3
    800037bc:	fed79de3          	bne	a5,a3,800037b6 <strtod+0x17e>
    800037c0:	d2060653          	fcvt.d.w	fa2,a2
    800037c4:	87c6                	mv	a5,a7
    800037c6:	12e67753          	fmul.d	fa4,fa2,fa4
    800037ca:	b7e9                	j	80003794 <strtod+0x15c>
    800037cc:	00254803          	lbu	a6,2(a0)
    800037d0:	577d                	li	a4,-1
    800037d2:	0509                	addi	a0,a0,2
    800037d4:	b789                	j	80003716 <strtod+0xde>
    800037d6:	22b58753          	fmv.d	fa4,fa1
    800037da:	fff7079b          	addiw	a5,a4,-1
    800037de:	ee0701e3          	beqz	a4,800036c0 <strtod+0x88>
    800037e2:	00000717          	auipc	a4,0x0
    800037e6:	37673687          	fld	fa3,886(a4) # 80003b58 <gen2+0x1c0>
    800037ea:	577d                	li	a4,-1
    800037ec:	37fd                	addiw	a5,a5,-1
    800037ee:	12d77753          	fmul.d	fa4,fa4,fa3
    800037f2:	fee79de3          	bne	a5,a4,800037ec <strtod+0x1b4>
    800037f6:	b5e9                	j	800036c0 <strtod+0x88>
    800037f8:	00254803          	lbu	a6,2(a0)
    800037fc:	4705                	li	a4,1
    800037fe:	0509                	addi	a0,a0,2
    80003800:	bf19                	j	80003716 <strtod+0xde>
    80003802:	22b58753          	fmv.d	fa4,fa1
    80003806:	bd6d                	j	800036c0 <strtod+0x88>

0000000080003808 <atof>:
    80003808:	4581                	li	a1,0
    8000380a:	b53d                	j	80003638 <strtod>

000000008000380c <strtoll>:
    8000380c:	872a                	mv	a4,a0
    8000380e:	4811                	li	a6,4
    80003810:	02000513          	li	a0,32
    80003814:	00074683          	lbu	a3,0(a4)
    80003818:	ff76879b          	addiw	a5,a3,-9
    8000381c:	0ff7f793          	zext.b	a5,a5
    80003820:	04a68963          	beq	a3,a0,80003872 <strtoll+0x66>
    80003824:	04f87763          	bgeu	a6,a5,80003872 <strtoll+0x66>
    80003828:	02d00793          	li	a5,45
    8000382c:	08f68663          	beq	a3,a5,800038b8 <strtoll+0xac>
    80003830:	02b00793          	li	a5,43
    80003834:	4e01                	li	t3,0
    80003836:	06f68d63          	beq	a3,a5,800038b0 <strtoll+0xa4>
    8000383a:	ca39                	beqz	a2,80003890 <strtoll+0x84>
    8000383c:	47c1                	li	a5,16
    8000383e:	08f60263          	beq	a2,a5,800038c2 <strtoll+0xb6>
    80003842:	4501                	li	a0,0
    80003844:	48a5                	li	a7,9
    80003846:	4365                	li	t1,25
    80003848:	00074683          	lbu	a3,0(a4)
    8000384c:	fd06879b          	addiw	a5,a3,-48
    80003850:	f9f6881b          	addiw	a6,a3,-97
    80003854:	00f8f863          	bgeu	a7,a5,80003864 <strtoll+0x58>
    80003858:	fbf6879b          	addiw	a5,a3,-65
    8000385c:	01036d63          	bltu	t1,a6,80003876 <strtoll+0x6a>
    80003860:	fa96879b          	addiw	a5,a3,-87
    80003864:	00c7df63          	bge	a5,a2,80003882 <strtoll+0x76>
    80003868:	02a60533          	mul	a0,a2,a0
    8000386c:	0705                	addi	a4,a4,1
    8000386e:	953e                	add	a0,a0,a5
    80003870:	bfe1                	j	80003848 <strtoll+0x3c>
    80003872:	0705                	addi	a4,a4,1
    80003874:	b745                	j	80003814 <strtoll+0x8>
    80003876:	00f36663          	bltu	t1,a5,80003882 <strtoll+0x76>
    8000387a:	fc96879b          	addiw	a5,a3,-55
    8000387e:	fec7c5e3          	blt	a5,a2,80003868 <strtoll+0x5c>
    80003882:	c191                	beqz	a1,80003886 <strtoll+0x7a>
    80003884:	e198                	sd	a4,0(a1)
    80003886:	000e0463          	beqz	t3,8000388e <strtoll+0x82>
    8000388a:	40a00533          	neg	a0,a0
    8000388e:	8082                	ret
    80003890:	03000793          	li	a5,48
    80003894:	4629                	li	a2,10
    80003896:	faf696e3          	bne	a3,a5,80003842 <strtoll+0x36>
    8000389a:	00174783          	lbu	a5,1(a4)
    8000389e:	05800693          	li	a3,88
    800038a2:	0df7f793          	andi	a5,a5,223
    800038a6:	02d78a63          	beq	a5,a3,800038da <strtoll+0xce>
    800038aa:	0705                	addi	a4,a4,1
    800038ac:	4621                	li	a2,8
    800038ae:	bf51                	j	80003842 <strtoll+0x36>
    800038b0:	00174683          	lbu	a3,1(a4)
    800038b4:	0705                	addi	a4,a4,1
    800038b6:	b751                	j	8000383a <strtoll+0x2e>
    800038b8:	00174683          	lbu	a3,1(a4)
    800038bc:	4e05                	li	t3,1
    800038be:	0705                	addi	a4,a4,1
    800038c0:	bfad                	j	8000383a <strtoll+0x2e>
    800038c2:	03000793          	li	a5,48
    800038c6:	f6f69ee3          	bne	a3,a5,80003842 <strtoll+0x36>
    800038ca:	00174783          	lbu	a5,1(a4)
    800038ce:	05800693          	li	a3,88
    800038d2:	0df7f793          	andi	a5,a5,223
    800038d6:	f6d796e3          	bne	a5,a3,80003842 <strtoll+0x36>
    800038da:	0709                	addi	a4,a4,2
    800038dc:	4641                	li	a2,16
    800038de:	b795                	j	80003842 <strtoll+0x36>

00000000800038e0 <atoll>:
    800038e0:	872a                	mv	a4,a0
    800038e2:	02000613          	li	a2,32
    800038e6:	4591                	li	a1,4
    800038e8:	00074683          	lbu	a3,0(a4)
    800038ec:	ff76879b          	addiw	a5,a3,-9
    800038f0:	0ff7f793          	zext.b	a5,a5
    800038f4:	04c68b63          	beq	a3,a2,8000394a <atoll+0x6a>
    800038f8:	04f5f963          	bgeu	a1,a5,8000394a <atoll+0x6a>
    800038fc:	02d00793          	li	a5,45
    80003900:	06f68363          	beq	a3,a5,80003966 <atoll+0x86>
    80003904:	02b00793          	li	a5,43
    80003908:	04f68363          	beq	a3,a5,8000394e <atoll+0x6e>
    8000390c:	fd06861b          	addiw	a2,a3,-48
    80003910:	0ff67693          	zext.b	a3,a2
    80003914:	47a5                	li	a5,9
    80003916:	4801                	li	a6,0
    80003918:	06d7e263          	bltu	a5,a3,8000397c <atoll+0x9c>
    8000391c:	4501                	li	a0,0
    8000391e:	45a5                	li	a1,9
    80003920:	00174683          	lbu	a3,1(a4)
    80003924:	00251793          	slli	a5,a0,0x2
    80003928:	97aa                	add	a5,a5,a0
    8000392a:	0006051b          	sext.w	a0,a2
    8000392e:	fd06861b          	addiw	a2,a3,-48
    80003932:	0786                	slli	a5,a5,0x1
    80003934:	0ff67693          	zext.b	a3,a2
    80003938:	0705                	addi	a4,a4,1
    8000393a:	953e                	add	a0,a0,a5
    8000393c:	fed5f2e3          	bgeu	a1,a3,80003920 <atoll+0x40>
    80003940:	02080f63          	beqz	a6,8000397e <atoll+0x9e>
    80003944:	40a00533          	neg	a0,a0
    80003948:	8082                	ret
    8000394a:	0705                	addi	a4,a4,1
    8000394c:	bf71                	j	800038e8 <atoll+0x8>
    8000394e:	00174683          	lbu	a3,1(a4)
    80003952:	47a5                	li	a5,9
    80003954:	0705                	addi	a4,a4,1
    80003956:	fd06861b          	addiw	a2,a3,-48
    8000395a:	0ff67693          	zext.b	a3,a2
    8000395e:	00d7ef63          	bltu	a5,a3,8000397c <atoll+0x9c>
    80003962:	4801                	li	a6,0
    80003964:	bf65                	j	8000391c <atoll+0x3c>
    80003966:	00174683          	lbu	a3,1(a4)
    8000396a:	47a5                	li	a5,9
    8000396c:	0705                	addi	a4,a4,1
    8000396e:	fd06861b          	addiw	a2,a3,-48
    80003972:	0ff67693          	zext.b	a3,a2
    80003976:	4805                	li	a6,1
    80003978:	fad7f2e3          	bgeu	a5,a3,8000391c <atoll+0x3c>
    8000397c:	4501                	li	a0,0
    8000397e:	8082                	ret

Disassembly of section .text.startup:

0000000080003980 <.text.startup>:
    80003980:	1141                	addi	sp,sp,-16
    80003982:	00000517          	auipc	a0,0x0
    80003986:	19e50513          	addi	a0,a0,414 # 80003b20 <gen2+0x188>
    8000398a:	e406                	sd	ra,8(sp)
    8000398c:	fc6ff0ef          	jal	80003152 <printstr>
    80003990:	60a2                	ld	ra,8(sp)
    80003992:	557d                	li	a0,-1
    80003994:	0141                	addi	sp,sp,16
    80003996:	8082                	ret
