
mainop_BASELINE_O2U4_YY.riscv:     file format elf64-littleriscv


Disassembly of section .text.init:

0000000080000000 <_start>:
    80000000:	4081                	li	ra,0
    80000002:	4101                	li	sp,0
    80000004:	4181                	li	gp,0
    80000006:	4201                	li	tp,0
    80000008:	4281                	li	t0,0
    8000000a:	4301                	li	t1,0
    8000000c:	4381                	li	t2,0
    8000000e:	4401                	li	s0,0
    80000010:	4481                	li	s1,0
    80000012:	4501                	li	a0,0
    80000014:	4581                	li	a1,0
    80000016:	4601                	li	a2,0
    80000018:	4681                	li	a3,0
    8000001a:	4701                	li	a4,0
    8000001c:	4781                	li	a5,0
    8000001e:	4801                	li	a6,0
    80000020:	4881                	li	a7,0
    80000022:	4901                	li	s2,0
    80000024:	4981                	li	s3,0
    80000026:	4a01                	li	s4,0
    80000028:	4a81                	li	s5,0
    8000002a:	4b01                	li	s6,0
    8000002c:	4b81                	li	s7,0
    8000002e:	4c01                	li	s8,0
    80000030:	4c81                	li	s9,0
    80000032:	4d01                	li	s10,0
    80000034:	4d81                	li	s11,0
    80000036:	4e01                	li	t3,0
    80000038:	4e81                	li	t4,0
    8000003a:	4f01                	li	t5,0
    8000003c:	4f81                	li	t6,0
    8000003e:	62f9                	lui	t0,0x1e
    80000040:	3002a073          	csrs	mstatus,t0
    80000044:	4285                	li	t0,1
    80000046:	02fe                	slli	t0,t0,0x1f
    80000048:	0002d863          	bgez	t0,80000058 <_start+0x58>
    8000004c:	4505                	li	a0,1
    8000004e:	00001297          	auipc	t0,0x1
    80000052:	faa2a923          	sw	a0,-78(t0) # 80001000 <tohost>
    80000056:	bfdd                	j	8000004c <_start+0x4c>
    80000058:	00000297          	auipc	t0,0x0
    8000005c:	09028293          	addi	t0,t0,144 # 800000e8 <_start+0xe8>
    80000060:	30529073          	csrw	mtvec,t0
    80000064:	00301073          	fscsr	zero
    80000068:	f0000053          	fmv.w.x	ft0,zero
    8000006c:	f00000d3          	fmv.w.x	ft1,zero
    80000070:	f0000153          	fmv.w.x	ft2,zero
    80000074:	f00001d3          	fmv.w.x	ft3,zero
    80000078:	f0000253          	fmv.w.x	ft4,zero
    8000007c:	f00002d3          	fmv.w.x	ft5,zero
    80000080:	f0000353          	fmv.w.x	ft6,zero
    80000084:	f00003d3          	fmv.w.x	ft7,zero
    80000088:	f0000453          	fmv.w.x	fs0,zero
    8000008c:	f00004d3          	fmv.w.x	fs1,zero
    80000090:	f0000553          	fmv.w.x	fa0,zero
    80000094:	f00005d3          	fmv.w.x	fa1,zero
    80000098:	f0000653          	fmv.w.x	fa2,zero
    8000009c:	f00006d3          	fmv.w.x	fa3,zero
    800000a0:	f0000753          	fmv.w.x	fa4,zero
    800000a4:	f00007d3          	fmv.w.x	fa5,zero
    800000a8:	f0000853          	fmv.w.x	fa6,zero
    800000ac:	f00008d3          	fmv.w.x	fa7,zero
    800000b0:	f0000953          	fmv.w.x	fs2,zero
    800000b4:	f00009d3          	fmv.w.x	fs3,zero
    800000b8:	f0000a53          	fmv.w.x	fs4,zero
    800000bc:	f0000ad3          	fmv.w.x	fs5,zero
    800000c0:	f0000b53          	fmv.w.x	fs6,zero
    800000c4:	f0000bd3          	fmv.w.x	fs7,zero
    800000c8:	f0000c53          	fmv.w.x	fs8,zero
    800000cc:	f0000cd3          	fmv.w.x	fs9,zero
    800000d0:	f0000d53          	fmv.w.x	fs10,zero
    800000d4:	f0000dd3          	fmv.w.x	fs11,zero
    800000d8:	f0000e53          	fmv.w.x	ft8,zero
    800000dc:	f0000ed3          	fmv.w.x	ft9,zero
    800000e0:	f0000f53          	fmv.w.x	ft10,zero
    800000e4:	f0000fd3          	fmv.w.x	ft11,zero
    800000e8:	00000297          	auipc	t0,0x0
    800000ec:	03c28293          	addi	t0,t0,60 # 80000124 <trap_entry>
    800000f0:	30529073          	csrw	mtvec,t0
    800000f4:	00004197          	auipc	gp,0x4
    800000f8:	3c418193          	addi	gp,gp,964 # 800044b8 <__global_pointer$>
    800000fc:	0000a217          	auipc	tp,0xa
    80000100:	a0320213          	addi	tp,tp,-1533 # 80009aff <_end+0x3f>
    80000104:	fc027213          	andi	tp,tp,-64
    80000108:	f1402573          	csrr	a0,mhartid
    8000010c:	4585                	li	a1,1
    8000010e:	00b57063          	bgeu	a0,a1,8000010e <_start+0x10e>
    80000112:	00150113          	addi	sp,a0,1
    80000116:	0146                	slli	sp,sp,0x11
    80000118:	9112                	add	sp,sp,tp
    8000011a:	01151613          	slli	a2,a0,0x11
    8000011e:	9232                	add	tp,tp,a2
    80000120:	3440306f          	j	80003464 <_init>

0000000080000124 <trap_entry>:
    80000124:	716d                	addi	sp,sp,-272
    80000126:	e406                	sd	ra,8(sp)
    80000128:	e80a                	sd	sp,16(sp)
    8000012a:	ec0e                	sd	gp,24(sp)
    8000012c:	f012                	sd	tp,32(sp)
    8000012e:	f416                	sd	t0,40(sp)
    80000130:	f81a                	sd	t1,48(sp)
    80000132:	fc1e                	sd	t2,56(sp)
    80000134:	e0a2                	sd	s0,64(sp)
    80000136:	e4a6                	sd	s1,72(sp)
    80000138:	e8aa                	sd	a0,80(sp)
    8000013a:	ecae                	sd	a1,88(sp)
    8000013c:	f0b2                	sd	a2,96(sp)
    8000013e:	f4b6                	sd	a3,104(sp)
    80000140:	f8ba                	sd	a4,112(sp)
    80000142:	fcbe                	sd	a5,120(sp)
    80000144:	e142                	sd	a6,128(sp)
    80000146:	e546                	sd	a7,136(sp)
    80000148:	e94a                	sd	s2,144(sp)
    8000014a:	ed4e                	sd	s3,152(sp)
    8000014c:	f152                	sd	s4,160(sp)
    8000014e:	f556                	sd	s5,168(sp)
    80000150:	f95a                	sd	s6,176(sp)
    80000152:	fd5e                	sd	s7,184(sp)
    80000154:	e1e2                	sd	s8,192(sp)
    80000156:	e5e6                	sd	s9,200(sp)
    80000158:	e9ea                	sd	s10,208(sp)
    8000015a:	edee                	sd	s11,216(sp)
    8000015c:	f1f2                	sd	t3,224(sp)
    8000015e:	f5f6                	sd	t4,232(sp)
    80000160:	f9fa                	sd	t5,240(sp)
    80000162:	fdfe                	sd	t6,248(sp)
    80000164:	34202573          	csrr	a0,mcause
    80000168:	341025f3          	csrr	a1,mepc
    8000016c:	860a                	mv	a2,sp
    8000016e:	12e030ef          	jal	8000329c <handle_trap>
    80000172:	34151073          	csrw	mepc,a0
    80000176:	6289                	lui	t0,0x2
    80000178:	8002829b          	addiw	t0,t0,-2048 # 1800 <buflen.1+0x17c0>
    8000017c:	3002a073          	csrs	mstatus,t0
    80000180:	60a2                	ld	ra,8(sp)
    80000182:	6142                	ld	sp,16(sp)
    80000184:	61e2                	ld	gp,24(sp)
    80000186:	7202                	ld	tp,32(sp)
    80000188:	72a2                	ld	t0,40(sp)
    8000018a:	7342                	ld	t1,48(sp)
    8000018c:	73e2                	ld	t2,56(sp)
    8000018e:	6406                	ld	s0,64(sp)
    80000190:	64a6                	ld	s1,72(sp)
    80000192:	6546                	ld	a0,80(sp)
    80000194:	65e6                	ld	a1,88(sp)
    80000196:	7606                	ld	a2,96(sp)
    80000198:	76a6                	ld	a3,104(sp)
    8000019a:	7746                	ld	a4,112(sp)
    8000019c:	77e6                	ld	a5,120(sp)
    8000019e:	680a                	ld	a6,128(sp)
    800001a0:	68aa                	ld	a7,136(sp)
    800001a2:	694a                	ld	s2,144(sp)
    800001a4:	69ea                	ld	s3,152(sp)
    800001a6:	7a0a                	ld	s4,160(sp)
    800001a8:	7aaa                	ld	s5,168(sp)
    800001aa:	7b4a                	ld	s6,176(sp)
    800001ac:	7bea                	ld	s7,184(sp)
    800001ae:	6c0e                	ld	s8,192(sp)
    800001b0:	6cae                	ld	s9,200(sp)
    800001b2:	6d4e                	ld	s10,208(sp)
    800001b4:	6dee                	ld	s11,216(sp)
    800001b6:	7e0e                	ld	t3,224(sp)
    800001b8:	7eae                	ld	t4,232(sp)
    800001ba:	7f4e                	ld	t5,240(sp)
    800001bc:	7fee                	ld	t6,248(sp)
    800001be:	6151                	addi	sp,sp,272
    800001c0:	30200073          	mret
    800001c4:	0000                	unimp

Disassembly of section .text:

0000000080002000 <d2ull>:
    80002000:	e2050553          	fmv.x.d	a0,fa0
    80002004:	8082                	ret

0000000080002006 <ull2d>:
    80002006:	f2050553          	fmv.d.x	fa0,a0
    8000200a:	8082                	ret

000000008000200c <PickResult>:
    8000200c:	058e                	slli	a1,a1,0x3
    8000200e:	952e                	add	a0,a0,a1
    80002010:	6108                	ld	a0,0(a0)
    80002012:	8082                	ret

0000000080002014 <Impl_conv1d>:
    80002014:	4601                	li	a2,0
    80002016:	4281                	li	t0,0
    80002018:	04053883          	ld	a7,64(a0)
    8000201c:	06050793          	addi	a5,a0,96
    80002020:	4821                	li	a6,8
    80002022:	00c886bb          	addw	a3,a7,a2
    80002026:	0076f713          	andi	a4,a3,7
    8000202a:	070e                	slli	a4,a4,0x3
    8000202c:	972a                	add	a4,a4,a0
    8000202e:	00073303          	ld	t1,0(a4)
    80002032:	fe87b383          	ld	t2,-24(a5)
    80002036:	0016871b          	addiw	a4,a3,1
    8000203a:	8b1d                	andi	a4,a4,7
    8000203c:	070e                	slli	a4,a4,0x3
    8000203e:	972a                	add	a4,a4,a0
    80002040:	00073e03          	ld	t3,0(a4)
    80002044:	ff07b703          	ld	a4,-16(a5)
    80002048:	02638333          	mul	t1,t2,t1
    8000204c:	03c703b3          	mul	t2,a4,t3
    80002050:	0026871b          	addiw	a4,a3,2
    80002054:	8b1d                	andi	a4,a4,7
    80002056:	070e                	slli	a4,a4,0x3
    80002058:	972a                	add	a4,a4,a0
    8000205a:	00073e03          	ld	t3,0(a4)
    8000205e:	ff87be83          	ld	t4,-8(a5)
    80002062:	268d                	addiw	a3,a3,3
    80002064:	8a9d                	andi	a3,a3,7
    80002066:	068e                	slli	a3,a3,0x3
    80002068:	96aa                	add	a3,a3,a0
    8000206a:	6294                	ld	a3,0(a3)
    8000206c:	6398                	ld	a4,0(a5)
    8000206e:	03ce8e33          	mul	t3,t4,t3
    80002072:	02d706b3          	mul	a3,a4,a3
    80002076:	00530733          	add	a4,t1,t0
    8000207a:	971e                	add	a4,a4,t2
    8000207c:	9772                	add	a4,a4,t3
    8000207e:	00e682b3          	add	t0,a3,a4
    80002082:	0611                	addi	a2,a2,4
    80002084:	02078793          	addi	a5,a5,32
    80002088:	f9061de3          	bne	a2,a6,80002022 <Impl_conv1d+0xe>
    8000208c:	0055b023          	sd	t0,0(a1)
    80002090:	8082                	ret

0000000080002092 <OP_conv1d>:
    80002092:	7171                	addi	sp,sp,-176
    80002094:	f522                	sd	s0,168(sp)
    80002096:	f126                	sd	s1,160(sp)
    80002098:	ed4a                	sd	s2,152(sp)
    8000209a:	e94e                	sd	s3,144(sp)
    8000209c:	e552                	sd	s4,136(sp)
    8000209e:	4281                	li	t0,0
    800020a0:	4381                	li	t2,0
    800020a2:	736a                	ld	t1,184(sp)
    800020a4:	7e6e                	ld	t3,248(sp)
    800020a6:	7ece                	ld	t4,240(sp)
    800020a8:	7f2e                	ld	t5,232(sp)
    800020aa:	7f8e                	ld	t6,224(sp)
    800020ac:	696e                	ld	s2,216(sp)
    800020ae:	69ce                	ld	s3,208(sp)
    800020b0:	6a2e                	ld	s4,200(sp)
    800020b2:	648e                	ld	s1,192(sp)
    800020b4:	e02e                	sd	a1,0(sp)
    800020b6:	744a                	ld	s0,176(sp)
    800020b8:	e432                	sd	a2,8(sp)
    800020ba:	108c                	addi	a1,sp,96
    800020bc:	e836                	sd	a3,16(sp)
    800020be:	ec3a                	sd	a4,24(sp)
    800020c0:	f03e                	sd	a5,32(sp)
    800020c2:	f442                	sd	a6,40(sp)
    800020c4:	f846                	sd	a7,48(sp)
    800020c6:	fc22                	sd	s0,56(sp)
    800020c8:	e09a                	sd	t1,64(sp)
    800020ca:	e4a6                	sd	s1,72(sp)
    800020cc:	e8d2                	sd	s4,80(sp)
    800020ce:	ecce                	sd	s3,88(sp)
    800020d0:	f0ca                	sd	s2,96(sp)
    800020d2:	f4fe                	sd	t6,104(sp)
    800020d4:	f8fa                	sd	t5,112(sp)
    800020d6:	fcf6                	sd	t4,120(sp)
    800020d8:	e172                	sd	t3,128(sp)
    800020da:	888a                	mv	a7,sp
    800020dc:	4821                	li	a6,8
    800020de:	0053073b          	addw	a4,t1,t0
    800020e2:	00777793          	andi	a5,a4,7
    800020e6:	078e                	slli	a5,a5,0x3
    800020e8:	97c6                	add	a5,a5,a7
    800020ea:	639c                	ld	a5,0(a5)
    800020ec:	fe85b483          	ld	s1,-24(a1)
    800020f0:	0017041b          	addiw	s0,a4,1
    800020f4:	881d                	andi	s0,s0,7
    800020f6:	040e                	slli	s0,s0,0x3
    800020f8:	9446                	add	s0,s0,a7
    800020fa:	6000                	ld	s0,0(s0)
    800020fc:	ff05b683          	ld	a3,-16(a1)
    80002100:	02f487b3          	mul	a5,s1,a5
    80002104:	028686b3          	mul	a3,a3,s0
    80002108:	0027049b          	addiw	s1,a4,2
    8000210c:	889d                	andi	s1,s1,7
    8000210e:	048e                	slli	s1,s1,0x3
    80002110:	94c6                	add	s1,s1,a7
    80002112:	6084                	ld	s1,0(s1)
    80002114:	ff85b403          	ld	s0,-8(a1)
    80002118:	270d                	addiw	a4,a4,3
    8000211a:	8b1d                	andi	a4,a4,7
    8000211c:	070e                	slli	a4,a4,0x3
    8000211e:	9746                	add	a4,a4,a7
    80002120:	6318                	ld	a4,0(a4)
    80002122:	6190                	ld	a2,0(a1)
    80002124:	029404b3          	mul	s1,s0,s1
    80002128:	02e60633          	mul	a2,a2,a4
    8000212c:	00778733          	add	a4,a5,t2
    80002130:	96ba                	add	a3,a3,a4
    80002132:	96a6                	add	a3,a3,s1
    80002134:	00c683b3          	add	t2,a3,a2
    80002138:	0291                	addi	t0,t0,4
    8000213a:	02058593          	addi	a1,a1,32
    8000213e:	fb0290e3          	bne	t0,a6,800020de <OP_conv1d+0x4c>
    80002142:	00753023          	sd	t2,0(a0)
    80002146:	742a                	ld	s0,168(sp)
    80002148:	748a                	ld	s1,160(sp)
    8000214a:	696a                	ld	s2,152(sp)
    8000214c:	69ca                	ld	s3,144(sp)
    8000214e:	6a2a                	ld	s4,136(sp)
    80002150:	614d                	addi	sp,sp,176
    80002152:	8082                	ret

0000000080002154 <conv1d>:
    80002154:	7109                	addi	sp,sp,-384
    80002156:	fe86                	sd	ra,376(sp)
    80002158:	faa2                	sd	s0,368(sp)
    8000215a:	f6a6                	sd	s1,360(sp)
    8000215c:	f2ca                	sd	s2,352(sp)
    8000215e:	eece                	sd	s3,344(sp)
    80002160:	ead2                	sd	s4,336(sp)
    80002162:	e6d6                	sd	s5,328(sp)
    80002164:	e2da                	sd	s6,320(sp)
    80002166:	fe5e                	sd	s7,312(sp)
    80002168:	fa62                	sd	s8,304(sp)
    8000216a:	f666                	sd	s9,296(sp)
    8000216c:	f26a                	sd	s10,288(sp)
    8000216e:	ee6e                	sd	s11,280(sp)
    80002170:	f82e                	sd	a1,48(sp)
    80002172:	e42a                	sd	a0,8(sp)
    80002174:	68050663          	beqz	a0,80002800 <conv1d+0x6ac>
    80002178:	4d81                	li	s11,0
    8000217a:	80000537          	lui	a0,0x80000
    8000217e:	3561                	addiw	a0,a0,-8 # 7ffffff8 <buflen.1+0x7fffffb8>
    80002180:	f02a                	sd	a0,32(sp)
    80002182:	00005517          	auipc	a0,0x5
    80002186:	b7650513          	addi	a0,a0,-1162 # 80006cf8 <kernel>
    8000218a:	610c                	ld	a1,0(a0)
    8000218c:	e52e                	sd	a1,136(sp)
    8000218e:	650c                	ld	a1,8(a0)
    80002190:	e12e                	sd	a1,128(sp)
    80002192:	690c                	ld	a1,16(a0)
    80002194:	fcae                	sd	a1,120(sp)
    80002196:	6d0c                	ld	a1,24(a0)
    80002198:	f8ae                	sd	a1,112(sp)
    8000219a:	710c                	ld	a1,32(a0)
    8000219c:	f4ae                	sd	a1,104(sp)
    8000219e:	750c                	ld	a1,40(a0)
    800021a0:	f0ae                	sd	a1,96(sp)
    800021a2:	790c                	ld	a1,48(a0)
    800021a4:	ecae                	sd	a1,88(sp)
    800021a6:	7d08                	ld	a0,56(a0)
    800021a8:	e8aa                	sd	a0,80(sp)
    800021aa:	0f010b93          	addi	s7,sp,240
    800021ae:	0c810393          	addi	t2,sp,200
    800021b2:	4e21                	li	t3,8
    800021b4:	00002517          	auipc	a0,0x2
    800021b8:	b4450513          	addi	a0,a0,-1212 # 80003cf8 <input>
    800021bc:	ec2a                	sd	a0,24(sp)
    800021be:	09010c93          	addi	s9,sp,144
    800021c2:	00005517          	auipc	a0,0x5
    800021c6:	b7650513          	addi	a0,a0,-1162 # 80006d38 <output>
    800021ca:	e82a                	sd	a0,16(sp)
    800021cc:	5d21                	li	s10,-24
    800021ce:	5f01                	li	t5,-32
    800021d0:	fc000993          	li	s3,-64
    800021d4:	5ae1                	li	s5,-8
    800021d6:	a029                	j	800021e0 <conv1d+0x8c>
    800021d8:	0d85                	addi	s11,s11,1
    800021da:	6522                	ld	a0,8(sp)
    800021dc:	62ad8263          	beq	s11,a0,80002800 <conv1d+0x6ac>
    800021e0:	7542                	ld	a0,48(sp)
    800021e2:	ffc56be3          	bltu	a0,t3,800021d8 <conv1d+0x84>
    800021e6:	4b01                	li	s6,0
    800021e8:	f46e                	sd	s11,40(sp)
    800021ea:	4781                	li	a5,0
    800021ec:	7502                	ld	a0,32(sp)
    800021ee:	00ab7533          	and	a0,s6,a0
    800021f2:	00ad9593          	slli	a1,s11,0xa
    800021f6:	6662                	ld	a2,24(sp)
    800021f8:	00b60c33          	add	s8,a2,a1
    800021fc:	00351913          	slli	s2,a0,0x3
    80002200:	012c0833          	add	a6,s8,s2
    80002204:	00083283          	ld	t0,0(a6)
    80002208:	00896613          	ori	a2,s2,8
    8000220c:	00cc0eb3          	add	t4,s8,a2
    80002210:	000ebf83          	ld	t6,0(t4)
    80002214:	01096713          	ori	a4,s2,16
    80002218:	00ec08b3          	add	a7,s8,a4
    8000221c:	0008b703          	ld	a4,0(a7)
    80002220:	01896413          	ori	s0,s2,24
    80002224:	008c0333          	add	t1,s8,s0
    80002228:	00033403          	ld	s0,0(t1)
    8000222c:	02096593          	ori	a1,s2,32
    80002230:	00bc0a33          	add	s4,s8,a1
    80002234:	000a3583          	ld	a1,0(s4)
    80002238:	e916                	sd	t0,144(sp)
    8000223a:	02896613          	ori	a2,s2,40
    8000223e:	00cc02b3          	add	t0,s8,a2
    80002242:	ed7e                	sd	t6,152(sp)
    80002244:	0002b603          	ld	a2,0(t0)
    80002248:	f13a                	sd	a4,160(sp)
    8000224a:	03096713          	ori	a4,s2,48
    8000224e:	00ec0533          	add	a0,s8,a4
    80002252:	f522                	sd	s0,168(sp)
    80002254:	fc2a                	sd	a0,56(sp)
    80002256:	6118                	ld	a4,0(a0)
    80002258:	f92e                	sd	a1,176(sp)
    8000225a:	03896593          	ori	a1,s2,56
    8000225e:	00bc0533          	add	a0,s8,a1
    80002262:	fd32                	sd	a2,184(sp)
    80002264:	e0aa                	sd	a0,64(sp)
    80002266:	610c                	ld	a1,0(a0)
    80002268:	e1ba                	sd	a4,192(sp)
    8000226a:	e5ae                	sd	a1,200(sp)
    8000226c:	e982                	sd	zero,208(sp)
    8000226e:	652a                	ld	a0,136(sp)
    80002270:	edaa                	sd	a0,216(sp)
    80002272:	650a                	ld	a0,128(sp)
    80002274:	f1aa                	sd	a0,224(sp)
    80002276:	7566                	ld	a0,120(sp)
    80002278:	f5aa                	sd	a0,232(sp)
    8000227a:	7546                	ld	a0,112(sp)
    8000227c:	f9aa                	sd	a0,240(sp)
    8000227e:	7526                	ld	a0,104(sp)
    80002280:	fdaa                	sd	a0,248(sp)
    80002282:	7506                	ld	a0,96(sp)
    80002284:	e22a                	sd	a0,256(sp)
    80002286:	6566                	ld	a0,88(sp)
    80002288:	e62a                	sd	a0,264(sp)
    8000228a:	6546                	ld	a0,80(sp)
    8000228c:	ea2a                	sd	a0,272(sp)
    8000228e:	fc000593          	li	a1,-64
    80002292:	00bc8633          	add	a2,s9,a1
    80002296:	6238                	ld	a4,64(a2)
    80002298:	6640                	ld	s0,136(a2)
    8000229a:	02e40733          	mul	a4,s0,a4
    8000229e:	6620                	ld	s0,72(a2)
    800022a0:	6a54                	ld	a3,144(a2)
    800022a2:	6a28                	ld	a0,80(a2)
    800022a4:	6e44                	ld	s1,152(a2)
    800022a6:	028686b3          	mul	a3,a3,s0
    800022aa:	02a48533          	mul	a0,s1,a0
    800022ae:	6e24                	ld	s1,88(a2)
    800022b0:	7250                	ld	a2,160(a2)
    800022b2:	973e                	add	a4,a4,a5
    800022b4:	02960633          	mul	a2,a2,s1
    800022b8:	96ba                	add	a3,a3,a4
    800022ba:	9536                	add	a0,a0,a3
    800022bc:	02058593          	addi	a1,a1,32
    800022c0:	00c507b3          	add	a5,a0,a2
    800022c4:	f5f9                	bnez	a1,80002292 <conv1d+0x13e>
    800022c6:	3c800513          	li	a0,968
    800022ca:	02ad8533          	mul	a0,s11,a0
    800022ce:	4f81                	li	t6,0
    800022d0:	6642                	ld	a2,16(sp)
    800022d2:	962a                	add	a2,a2,a0
    800022d4:	003b1513          	slli	a0,s6,0x3
    800022d8:	e4b2                	sd	a2,72(sp)
    800022da:	9532                	add	a0,a0,a2
    800022dc:	e11c                	sd	a5,0(a0)
    800022de:	04083503          	ld	a0,64(a6)
    800022e2:	000eb703          	ld	a4,0(t4)
    800022e6:	e92a                	sd	a0,144(sp)
    800022e8:	0008b503          	ld	a0,0(a7)
    800022ec:	ed3a                	sd	a4,152(sp)
    800022ee:	00033703          	ld	a4,0(t1)
    800022f2:	f12a                	sd	a0,160(sp)
    800022f4:	000a3503          	ld	a0,0(s4)
    800022f8:	f53a                	sd	a4,168(sp)
    800022fa:	0002b703          	ld	a4,0(t0)
    800022fe:	f92a                	sd	a0,176(sp)
    80002300:	7562                	ld	a0,56(sp)
    80002302:	6108                	ld	a0,0(a0)
    80002304:	fd3a                	sd	a4,184(sp)
    80002306:	6606                	ld	a2,64(sp)
    80002308:	6218                	ld	a4,0(a2)
    8000230a:	e1aa                	sd	a0,192(sp)
    8000230c:	001b6813          	ori	a6,s6,1
    80002310:	e5ba                	sd	a4,200(sp)
    80002312:	4505                	li	a0,1
    80002314:	e9aa                	sd	a0,208(sp)
    80002316:	652a                	ld	a0,136(sp)
    80002318:	edaa                	sd	a0,216(sp)
    8000231a:	650a                	ld	a0,128(sp)
    8000231c:	f1aa                	sd	a0,224(sp)
    8000231e:	7566                	ld	a0,120(sp)
    80002320:	f5aa                	sd	a0,232(sp)
    80002322:	7546                	ld	a0,112(sp)
    80002324:	f9aa                	sd	a0,240(sp)
    80002326:	7526                	ld	a0,104(sp)
    80002328:	fdaa                	sd	a0,248(sp)
    8000232a:	7506                	ld	a0,96(sp)
    8000232c:	e22a                	sd	a0,256(sp)
    8000232e:	6566                	ld	a0,88(sp)
    80002330:	e62a                	sd	a0,264(sp)
    80002332:	6546                	ld	a0,80(sp)
    80002334:	ea2a                	sd	a0,272(sp)
    80002336:	09b8                	addi	a4,sp,216
    80002338:	fc073503          	ld	a0,-64(a4)
    8000233c:	631c                	ld	a5,0(a4)
    8000233e:	fc873483          	ld	s1,-56(a4)
    80002342:	6714                	ld	a3,8(a4)
    80002344:	02a78533          	mul	a0,a5,a0
    80002348:	029686b3          	mul	a3,a3,s1
    8000234c:	fd073783          	ld	a5,-48(a4)
    80002350:	6b04                	ld	s1,16(a4)
    80002352:	0045c413          	xori	s0,a1,4
    80002356:	040e                	slli	s0,s0,0x3
    80002358:	9466                	add	s0,s0,s9
    8000235a:	6000                	ld	s0,0(s0)
    8000235c:	6f10                	ld	a2,24(a4)
    8000235e:	02f487b3          	mul	a5,s1,a5
    80002362:	02860633          	mul	a2,a2,s0
    80002366:	957e                	add	a0,a0,t6
    80002368:	9536                	add	a0,a0,a3
    8000236a:	953e                	add	a0,a0,a5
    8000236c:	00c50fb3          	add	t6,a0,a2
    80002370:	0591                	addi	a1,a1,4
    80002372:	02070713          	addi	a4,a4,32
    80002376:	fdc591e3          	bne	a1,t3,80002338 <conv1d+0x1e4>
    8000237a:	4781                	li	a5,0
    8000237c:	4081                	li	ra,0
    8000237e:	00381513          	slli	a0,a6,0x3
    80002382:	65a6                	ld	a1,72(sp)
    80002384:	952e                	add	a0,a0,a1
    80002386:	01f53023          	sd	t6,0(a0)
    8000238a:	002b6f93          	ori	t6,s6,2
    8000238e:	04090813          	addi	a6,s2,64
    80002392:	010c0933          	add	s2,s8,a6
    80002396:	00093503          	ld	a0,0(s2)
    8000239a:	00886613          	ori	a2,a6,8
    8000239e:	00cc0eb3          	add	t4,s8,a2
    800023a2:	e92a                	sd	a0,144(sp)
    800023a4:	000eb503          	ld	a0,0(t4)
    800023a8:	0008b603          	ld	a2,0(a7)
    800023ac:	ed2a                	sd	a0,152(sp)
    800023ae:	00033503          	ld	a0,0(t1)
    800023b2:	f132                	sd	a2,160(sp)
    800023b4:	000a3603          	ld	a2,0(s4)
    800023b8:	f52a                	sd	a0,168(sp)
    800023ba:	0002b503          	ld	a0,0(t0)
    800023be:	f932                	sd	a2,176(sp)
    800023c0:	75e2                	ld	a1,56(sp)
    800023c2:	6190                	ld	a2,0(a1)
    800023c4:	fd2a                	sd	a0,184(sp)
    800023c6:	6506                	ld	a0,64(sp)
    800023c8:	6108                	ld	a0,0(a0)
    800023ca:	e1b2                	sd	a2,192(sp)
    800023cc:	e5aa                	sd	a0,200(sp)
    800023ce:	4509                	li	a0,2
    800023d0:	e9aa                	sd	a0,208(sp)
    800023d2:	652a                	ld	a0,136(sp)
    800023d4:	edaa                	sd	a0,216(sp)
    800023d6:	650a                	ld	a0,128(sp)
    800023d8:	f1aa                	sd	a0,224(sp)
    800023da:	7566                	ld	a0,120(sp)
    800023dc:	f5aa                	sd	a0,232(sp)
    800023de:	7546                	ld	a0,112(sp)
    800023e0:	f9aa                	sd	a0,240(sp)
    800023e2:	7526                	ld	a0,104(sp)
    800023e4:	fdaa                	sd	a0,248(sp)
    800023e6:	7506                	ld	a0,96(sp)
    800023e8:	e22a                	sd	a0,256(sp)
    800023ea:	6566                	ld	a0,88(sp)
    800023ec:	e62a                	sd	a0,264(sp)
    800023ee:	6546                	ld	a0,80(sp)
    800023f0:	ea2a                	sd	a0,272(sp)
    800023f2:	02800513          	li	a0,40
    800023f6:	09b0                	addi	a2,sp,216
    800023f8:	fc863683          	ld	a3,-56(a2)
    800023fc:	6218                	ld	a4,0(a2)
    800023fe:	fd063483          	ld	s1,-48(a2)
    80002402:	6600                	ld	s0,8(a2)
    80002404:	02d708b3          	mul	a7,a4,a3
    80002408:	02940733          	mul	a4,s0,s1
    8000240c:	0047c493          	xori	s1,a5,4
    80002410:	048e                	slli	s1,s1,0x3
    80002412:	94e6                	add	s1,s1,s9
    80002414:	6084                	ld	s1,0(s1)
    80002416:	6a00                	ld	s0,16(a2)
    80002418:	00ab85b3          	add	a1,s7,a0
    8000241c:	fa05b583          	ld	a1,-96(a1)
    80002420:	6e14                	ld	a3,24(a2)
    80002422:	02940433          	mul	s0,s0,s1
    80002426:	02b685b3          	mul	a1,a3,a1
    8000242a:	001886b3          	add	a3,a7,ra
    8000242e:	96ba                	add	a3,a3,a4
    80002430:	96a2                	add	a3,a3,s0
    80002432:	00b680b3          	add	ra,a3,a1
    80002436:	0791                	addi	a5,a5,4
    80002438:	1501                	addi	a0,a0,-32
    8000243a:	02060613          	addi	a2,a2,32
    8000243e:	fba51de3          	bne	a0,s10,800023f8 <conv1d+0x2a4>
    80002442:	4781                	li	a5,0
    80002444:	4d81                	li	s11,0
    80002446:	003f9593          	slli	a1,t6,0x3
    8000244a:	6526                	ld	a0,72(sp)
    8000244c:	95aa                	add	a1,a1,a0
    8000244e:	0015b023          	sd	ra,0(a1)
    80002452:	003b6f93          	ori	t6,s6,3
    80002456:	00093603          	ld	a2,0(s2)
    8000245a:	000eb683          	ld	a3,0(t4)
    8000245e:	e932                	sd	a2,144(sp)
    80002460:	01086613          	ori	a2,a6,16
    80002464:	00cc08b3          	add	a7,s8,a2
    80002468:	ed36                	sd	a3,152(sp)
    8000246a:	0008b603          	ld	a2,0(a7)
    8000246e:	00033683          	ld	a3,0(t1)
    80002472:	f132                	sd	a2,160(sp)
    80002474:	000a3603          	ld	a2,0(s4)
    80002478:	f536                	sd	a3,168(sp)
    8000247a:	0002b683          	ld	a3,0(t0)
    8000247e:	f932                	sd	a2,176(sp)
    80002480:	7562                	ld	a0,56(sp)
    80002482:	6110                	ld	a2,0(a0)
    80002484:	fd36                	sd	a3,184(sp)
    80002486:	6506                	ld	a0,64(sp)
    80002488:	6114                	ld	a3,0(a0)
    8000248a:	e1b2                	sd	a2,192(sp)
    8000248c:	e5b6                	sd	a3,200(sp)
    8000248e:	450d                	li	a0,3
    80002490:	e9aa                	sd	a0,208(sp)
    80002492:	652a                	ld	a0,136(sp)
    80002494:	edaa                	sd	a0,216(sp)
    80002496:	650a                	ld	a0,128(sp)
    80002498:	f1aa                	sd	a0,224(sp)
    8000249a:	7566                	ld	a0,120(sp)
    8000249c:	f5aa                	sd	a0,232(sp)
    8000249e:	7546                	ld	a0,112(sp)
    800024a0:	f9aa                	sd	a0,240(sp)
    800024a2:	7526                	ld	a0,104(sp)
    800024a4:	fdaa                	sd	a0,248(sp)
    800024a6:	7506                	ld	a0,96(sp)
    800024a8:	e22a                	sd	a0,256(sp)
    800024aa:	6566                	ld	a0,88(sp)
    800024ac:	e62a                	sd	a0,264(sp)
    800024ae:	6546                	ld	a0,80(sp)
    800024b0:	ea2a                	sd	a0,272(sp)
    800024b2:	02800613          	li	a2,40
    800024b6:	875e                	mv	a4,s7
    800024b8:	fb873683          	ld	a3,-72(a4)
    800024bc:	fe873483          	ld	s1,-24(a4)
    800024c0:	0047c413          	xori	s0,a5,4
    800024c4:	040e                	slli	s0,s0,0x3
    800024c6:	9466                	add	s0,s0,s9
    800024c8:	6000                	ld	s0,0(s0)
    800024ca:	ff073583          	ld	a1,-16(a4)
    800024ce:	02d486b3          	mul	a3,s1,a3
    800024d2:	02858333          	mul	t1,a1,s0
    800024d6:	00cb84b3          	add	s1,s7,a2
    800024da:	fa04b403          	ld	s0,-96(s1)
    800024de:	ff873503          	ld	a0,-8(a4)
    800024e2:	fa84b483          	ld	s1,-88(s1)
    800024e6:	630c                	ld	a1,0(a4)
    800024e8:	02850533          	mul	a0,a0,s0
    800024ec:	029585b3          	mul	a1,a1,s1
    800024f0:	96ee                	add	a3,a3,s11
    800024f2:	969a                	add	a3,a3,t1
    800024f4:	9536                	add	a0,a0,a3
    800024f6:	00b50db3          	add	s11,a0,a1
    800024fa:	0791                	addi	a5,a5,4
    800024fc:	1601                	addi	a2,a2,-32
    800024fe:	02070713          	addi	a4,a4,32
    80002502:	fba61be3          	bne	a2,s10,800024b8 <conv1d+0x364>
    80002506:	4081                	li	ra,0
    80002508:	003f9513          	slli	a0,t6,0x3
    8000250c:	65a6                	ld	a1,72(sp)
    8000250e:	952e                	add	a0,a0,a1
    80002510:	01b53023          	sd	s11,0(a0)
    80002514:	004b6313          	ori	t1,s6,4
    80002518:	00093583          	ld	a1,0(s2)
    8000251c:	000eb603          	ld	a2,0(t4)
    80002520:	e92e                	sd	a1,144(sp)
    80002522:	0008b583          	ld	a1,0(a7)
    80002526:	ed32                	sd	a2,152(sp)
    80002528:	01886613          	ori	a2,a6,24
    8000252c:	00cc0fb3          	add	t6,s8,a2
    80002530:	f12e                	sd	a1,160(sp)
    80002532:	000fb583          	ld	a1,0(t6)
    80002536:	000a3603          	ld	a2,0(s4)
    8000253a:	f52e                	sd	a1,168(sp)
    8000253c:	0002b583          	ld	a1,0(t0)
    80002540:	f932                	sd	a2,176(sp)
    80002542:	7562                	ld	a0,56(sp)
    80002544:	6110                	ld	a2,0(a0)
    80002546:	fd2e                	sd	a1,184(sp)
    80002548:	6506                	ld	a0,64(sp)
    8000254a:	610c                	ld	a1,0(a0)
    8000254c:	e1b2                	sd	a2,192(sp)
    8000254e:	e5ae                	sd	a1,200(sp)
    80002550:	4511                	li	a0,4
    80002552:	e9aa                	sd	a0,208(sp)
    80002554:	652a                	ld	a0,136(sp)
    80002556:	edaa                	sd	a0,216(sp)
    80002558:	650a                	ld	a0,128(sp)
    8000255a:	f1aa                	sd	a0,224(sp)
    8000255c:	7566                	ld	a0,120(sp)
    8000255e:	f5aa                	sd	a0,232(sp)
    80002560:	7546                	ld	a0,112(sp)
    80002562:	f9aa                	sd	a0,240(sp)
    80002564:	7526                	ld	a0,104(sp)
    80002566:	fdaa                	sd	a0,248(sp)
    80002568:	7506                	ld	a0,96(sp)
    8000256a:	e22a                	sd	a0,256(sp)
    8000256c:	6566                	ld	a0,88(sp)
    8000256e:	e62a                	sd	a0,264(sp)
    80002570:	6546                	ld	a0,80(sp)
    80002572:	ea2a                	sd	a0,272(sp)
    80002574:	02000593          	li	a1,32
    80002578:	865e                	mv	a2,s7
    8000257a:	00bb86b3          	add	a3,s7,a1
    8000257e:	fa06b703          	ld	a4,-96(a3)
    80002582:	fe863483          	ld	s1,-24(a2)
    80002586:	fa86b403          	ld	s0,-88(a3)
    8000258a:	ff063503          	ld	a0,-16(a2)
    8000258e:	02e48733          	mul	a4,s1,a4
    80002592:	02850533          	mul	a0,a0,s0
    80002596:	fb06b403          	ld	s0,-80(a3)
    8000259a:	ff863483          	ld	s1,-8(a2)
    8000259e:	fb86b683          	ld	a3,-72(a3)
    800025a2:	621c                	ld	a5,0(a2)
    800025a4:	02848433          	mul	s0,s1,s0
    800025a8:	02d786b3          	mul	a3,a5,a3
    800025ac:	9706                	add	a4,a4,ra
    800025ae:	953a                	add	a0,a0,a4
    800025b0:	9522                	add	a0,a0,s0
    800025b2:	00d500b3          	add	ra,a0,a3
    800025b6:	1581                	addi	a1,a1,-32
    800025b8:	02060613          	addi	a2,a2,32
    800025bc:	fbe59fe3          	bne	a1,t5,8000257a <conv1d+0x426>
    800025c0:	4d81                	li	s11,0
    800025c2:	00331513          	slli	a0,t1,0x3
    800025c6:	65a6                	ld	a1,72(sp)
    800025c8:	952e                	add	a0,a0,a1
    800025ca:	00153023          	sd	ra,0(a0)
    800025ce:	005b6313          	ori	t1,s6,5
    800025d2:	00093503          	ld	a0,0(s2)
    800025d6:	000eb583          	ld	a1,0(t4)
    800025da:	e92a                	sd	a0,144(sp)
    800025dc:	0008b503          	ld	a0,0(a7)
    800025e0:	ed2e                	sd	a1,152(sp)
    800025e2:	000fb583          	ld	a1,0(t6)
    800025e6:	f12a                	sd	a0,160(sp)
    800025e8:	02086513          	ori	a0,a6,32
    800025ec:	00ac0a33          	add	s4,s8,a0
    800025f0:	f52e                	sd	a1,168(sp)
    800025f2:	000a3503          	ld	a0,0(s4)
    800025f6:	0002b583          	ld	a1,0(t0)
    800025fa:	f92a                	sd	a0,176(sp)
    800025fc:	7562                	ld	a0,56(sp)
    800025fe:	6108                	ld	a0,0(a0)
    80002600:	fd2e                	sd	a1,184(sp)
    80002602:	6586                	ld	a1,64(sp)
    80002604:	618c                	ld	a1,0(a1)
    80002606:	e1aa                	sd	a0,192(sp)
    80002608:	e5ae                	sd	a1,200(sp)
    8000260a:	4515                	li	a0,5
    8000260c:	e9aa                	sd	a0,208(sp)
    8000260e:	652a                	ld	a0,136(sp)
    80002610:	edaa                	sd	a0,216(sp)
    80002612:	650a                	ld	a0,128(sp)
    80002614:	f1aa                	sd	a0,224(sp)
    80002616:	7566                	ld	a0,120(sp)
    80002618:	f5aa                	sd	a0,232(sp)
    8000261a:	7546                	ld	a0,112(sp)
    8000261c:	f9aa                	sd	a0,240(sp)
    8000261e:	7526                	ld	a0,104(sp)
    80002620:	fdaa                	sd	a0,248(sp)
    80002622:	7506                	ld	a0,96(sp)
    80002624:	e22a                	sd	a0,256(sp)
    80002626:	6566                	ld	a0,88(sp)
    80002628:	e62a                	sd	a0,264(sp)
    8000262a:	6546                	ld	a0,80(sp)
    8000262c:	ea2a                	sd	a0,272(sp)
    8000262e:	04000513          	li	a0,64
    80002632:	85de                	mv	a1,s7
    80002634:	00ab86b3          	add	a3,s7,a0
    80002638:	f886b703          	ld	a4,-120(a3)
    8000263c:	fe85b783          	ld	a5,-24(a1)
    80002640:	f906b483          	ld	s1,-112(a3)
    80002644:	ff05b403          	ld	s0,-16(a1)
    80002648:	02e78733          	mul	a4,a5,a4
    8000264c:	029407b3          	mul	a5,s0,s1
    80002650:	f986b683          	ld	a3,-104(a3)
    80002654:	ff85b483          	ld	s1,-8(a1)
    80002658:	fa05b403          	ld	s0,-96(a1)
    8000265c:	6190                	ld	a2,0(a1)
    8000265e:	02d486b3          	mul	a3,s1,a3
    80002662:	02860633          	mul	a2,a2,s0
    80002666:	976e                	add	a4,a4,s11
    80002668:	973e                	add	a4,a4,a5
    8000266a:	96ba                	add	a3,a3,a4
    8000266c:	00c68db3          	add	s11,a3,a2
    80002670:	1501                	addi	a0,a0,-32
    80002672:	02058593          	addi	a1,a1,32
    80002676:	fd5d                	bnez	a0,80002634 <conv1d+0x4e0>
    80002678:	4401                	li	s0,0
    8000267a:	4081                	li	ra,0
    8000267c:	00331513          	slli	a0,t1,0x3
    80002680:	65a6                	ld	a1,72(sp)
    80002682:	952e                	add	a0,a0,a1
    80002684:	01b53023          	sd	s11,0(a0)
    80002688:	00093503          	ld	a0,0(s2)
    8000268c:	000eb583          	ld	a1,0(t4)
    80002690:	e92a                	sd	a0,144(sp)
    80002692:	0008b503          	ld	a0,0(a7)
    80002696:	ed2e                	sd	a1,152(sp)
    80002698:	000fb583          	ld	a1,0(t6)
    8000269c:	f12a                	sd	a0,160(sp)
    8000269e:	000a3503          	ld	a0,0(s4)
    800026a2:	f52e                	sd	a1,168(sp)
    800026a4:	02886593          	ori	a1,a6,40
    800026a8:	00bc0333          	add	t1,s8,a1
    800026ac:	f92a                	sd	a0,176(sp)
    800026ae:	00033503          	ld	a0,0(t1)
    800026b2:	75e2                	ld	a1,56(sp)
    800026b4:	6190                	ld	a2,0(a1)
    800026b6:	fd2a                	sd	a0,184(sp)
    800026b8:	6506                	ld	a0,64(sp)
    800026ba:	6114                	ld	a3,0(a0)
    800026bc:	e1b2                	sd	a2,192(sp)
    800026be:	006b6293          	ori	t0,s6,6
    800026c2:	e5b6                	sd	a3,200(sp)
    800026c4:	4519                	li	a0,6
    800026c6:	e9aa                	sd	a0,208(sp)
    800026c8:	652a                	ld	a0,136(sp)
    800026ca:	edaa                	sd	a0,216(sp)
    800026cc:	650a                	ld	a0,128(sp)
    800026ce:	f1aa                	sd	a0,224(sp)
    800026d0:	7566                	ld	a0,120(sp)
    800026d2:	f5aa                	sd	a0,232(sp)
    800026d4:	7546                	ld	a0,112(sp)
    800026d6:	f9aa                	sd	a0,240(sp)
    800026d8:	7526                	ld	a0,104(sp)
    800026da:	fdaa                	sd	a0,248(sp)
    800026dc:	7506                	ld	a0,96(sp)
    800026de:	e22a                	sd	a0,256(sp)
    800026e0:	6566                	ld	a0,88(sp)
    800026e2:	e62a                	sd	a0,264(sp)
    800026e4:	6546                	ld	a0,80(sp)
    800026e6:	ea2a                	sd	a0,272(sp)
    800026e8:	865e                	mv	a2,s7
    800026ea:	008386b3          	add	a3,t2,s0
    800026ee:	ff86b703          	ld	a4,-8(a3)
    800026f2:	fe863483          	ld	s1,-24(a2)
    800026f6:	6294                	ld	a3,0(a3)
    800026f8:	ff063503          	ld	a0,-16(a2)
    800026fc:	02e48733          	mul	a4,s1,a4
    80002700:	02d50533          	mul	a0,a0,a3
    80002704:	fa063683          	ld	a3,-96(a2)
    80002708:	ff863483          	ld	s1,-8(a2)
    8000270c:	fa863583          	ld	a1,-88(a2)
    80002710:	621c                	ld	a5,0(a2)
    80002712:	02d486b3          	mul	a3,s1,a3
    80002716:	02b785b3          	mul	a1,a5,a1
    8000271a:	9706                	add	a4,a4,ra
    8000271c:	953a                	add	a0,a0,a4
    8000271e:	9536                	add	a0,a0,a3
    80002720:	00b500b3          	add	ra,a0,a1
    80002724:	1401                	addi	s0,s0,-32
    80002726:	02060613          	addi	a2,a2,32
    8000272a:	fd3410e3          	bne	s0,s3,800026ea <conv1d+0x596>
    8000272e:	4d81                	li	s11,0
    80002730:	00329513          	slli	a0,t0,0x3
    80002734:	65a6                	ld	a1,72(sp)
    80002736:	952e                	add	a0,a0,a1
    80002738:	00153023          	sd	ra,0(a0)
    8000273c:	007b6293          	ori	t0,s6,7
    80002740:	00093903          	ld	s2,0(s2)
    80002744:	000eb583          	ld	a1,0(t4)
    80002748:	0008b683          	ld	a3,0(a7)
    8000274c:	000fb703          	ld	a4,0(t6)
    80002750:	000a3483          	ld	s1,0(s4)
    80002754:	00033403          	ld	s0,0(t1)
    80002758:	03086793          	ori	a5,a6,48
    8000275c:	97e2                	add	a5,a5,s8
    8000275e:	639c                	ld	a5,0(a5)
    80002760:	6506                	ld	a0,64(sp)
    80002762:	6108                	ld	a0,0(a0)
    80002764:	e94a                	sd	s2,144(sp)
    80002766:	ed2e                	sd	a1,152(sp)
    80002768:	f136                	sd	a3,160(sp)
    8000276a:	f53a                	sd	a4,168(sp)
    8000276c:	f926                	sd	s1,176(sp)
    8000276e:	fd22                	sd	s0,184(sp)
    80002770:	e1be                	sd	a5,192(sp)
    80002772:	e5aa                	sd	a0,200(sp)
    80002774:	451d                	li	a0,7
    80002776:	e9aa                	sd	a0,208(sp)
    80002778:	652a                	ld	a0,136(sp)
    8000277a:	edaa                	sd	a0,216(sp)
    8000277c:	650a                	ld	a0,128(sp)
    8000277e:	f1aa                	sd	a0,224(sp)
    80002780:	7566                	ld	a0,120(sp)
    80002782:	f5aa                	sd	a0,232(sp)
    80002784:	7546                	ld	a0,112(sp)
    80002786:	f9aa                	sd	a0,240(sp)
    80002788:	7526                	ld	a0,104(sp)
    8000278a:	fdaa                	sd	a0,248(sp)
    8000278c:	7506                	ld	a0,96(sp)
    8000278e:	e22a                	sd	a0,256(sp)
    80002790:	6566                	ld	a0,88(sp)
    80002792:	e62a                	sd	a0,264(sp)
    80002794:	6546                	ld	a0,80(sp)
    80002796:	ea2a                	sd	a0,272(sp)
    80002798:	03800513          	li	a0,56
    8000279c:	85de                	mv	a1,s7
    8000279e:	00ab86b3          	add	a3,s7,a0
    800027a2:	fa06b683          	ld	a3,-96(a3)
    800027a6:	fe85b703          	ld	a4,-24(a1)
    800027aa:	fa05b783          	ld	a5,-96(a1)
    800027ae:	ff05b483          	ld	s1,-16(a1)
    800027b2:	02d706b3          	mul	a3,a4,a3
    800027b6:	02f48733          	mul	a4,s1,a5
    800027ba:	fa85b783          	ld	a5,-88(a1)
    800027be:	ff85b483          	ld	s1,-8(a1)
    800027c2:	fb05b403          	ld	s0,-80(a1)
    800027c6:	6190                	ld	a2,0(a1)
    800027c8:	02f487b3          	mul	a5,s1,a5
    800027cc:	02860633          	mul	a2,a2,s0
    800027d0:	96ee                	add	a3,a3,s11
    800027d2:	96ba                	add	a3,a3,a4
    800027d4:	96be                	add	a3,a3,a5
    800027d6:	00c68db3          	add	s11,a3,a2
    800027da:	1501                	addi	a0,a0,-32
    800027dc:	02058593          	addi	a1,a1,32
    800027e0:	fb551fe3          	bne	a0,s5,8000279e <conv1d+0x64a>
    800027e4:	00329513          	slli	a0,t0,0x3
    800027e8:	65a6                	ld	a1,72(sp)
    800027ea:	952e                	add	a0,a0,a1
    800027ec:	0b21                	addi	s6,s6,8
    800027ee:	007b6593          	ori	a1,s6,7
    800027f2:	01b53023          	sd	s11,0(a0)
    800027f6:	7542                	ld	a0,48(sp)
    800027f8:	7da2                	ld	s11,40(sp)
    800027fa:	9ea5e8e3          	bltu	a1,a0,800021ea <conv1d+0x96>
    800027fe:	bae9                	j	800021d8 <conv1d+0x84>
    80002800:	70f6                	ld	ra,376(sp)
    80002802:	7456                	ld	s0,368(sp)
    80002804:	74b6                	ld	s1,360(sp)
    80002806:	7916                	ld	s2,352(sp)
    80002808:	69f6                	ld	s3,344(sp)
    8000280a:	6a56                	ld	s4,336(sp)
    8000280c:	6ab6                	ld	s5,328(sp)
    8000280e:	6b16                	ld	s6,320(sp)
    80002810:	7bf2                	ld	s7,312(sp)
    80002812:	7c52                	ld	s8,304(sp)
    80002814:	7cb2                	ld	s9,296(sp)
    80002816:	7d12                	ld	s10,288(sp)
    80002818:	6df2                	ld	s11,280(sp)
    8000281a:	6119                	addi	sp,sp,384
    8000281c:	8082                	ret

000000008000281e <main>:
    8000281e:	1141                	addi	sp,sp,-16
    80002820:	e406                	sd	ra,8(sp)
    80002822:	e022                	sd	s0,0(sp)
    80002824:	4781                	li	a5,0
    80002826:	00001517          	auipc	a0,0x1
    8000282a:	4b250513          	addi	a0,a0,1202 # 80003cd8 <gen2+0x1d0>
    8000282e:	610c                	ld	a1,0(a0)
    80002830:	00001817          	auipc	a6,0x1
    80002834:	4b880813          	addi	a6,a6,1208 # 80003ce8 <gen1>
    80002838:	00083703          	ld	a4,0(a6)
    8000283c:	00001297          	auipc	t0,0x1
    80002840:	4bc28293          	addi	t0,t0,1212 # 80003cf8 <input>
    80002844:	00001517          	auipc	a0,0x1
    80002848:	49c50513          	addi	a0,a0,1180 # 80003ce0 <gen2+0x1d8>
    8000284c:	00053f83          	ld	t6,0(a0)
    80002850:	3b9ad537          	lui	a0,0x3b9ad
    80002854:	a075031b          	addiw	t1,a0,-1529 # 3b9aca07 <buflen.1+0x3b9ac9c7>
    80002858:	40000893          	li	a7,1024
    8000285c:	02b70633          	mul	a2,a4,a1
    80002860:	03f636b3          	mulhu	a3,a2,t6
    80002864:	82f5                	srli	a3,a3,0x1d
    80002866:	026686b3          	mul	a3,a3,t1
    8000286a:	40d603b3          	sub	t2,a2,a3
    8000286e:	02b386b3          	mul	a3,t2,a1
    80002872:	03f6b533          	mulhu	a0,a3,t6
    80002876:	8175                	srli	a0,a0,0x1d
    80002878:	02650533          	mul	a0,a0,t1
    8000287c:	40a68533          	sub	a0,a3,a0
    80002880:	02b506b3          	mul	a3,a0,a1
    80002884:	03f6b633          	mulhu	a2,a3,t6
    80002888:	8275                	srli	a2,a2,0x1d
    8000288a:	02660633          	mul	a2,a2,t1
    8000288e:	00b70e33          	add	t3,a4,a1
    80002892:	40c68633          	sub	a2,a3,a2
    80002896:	02b606b3          	mul	a3,a2,a1
    8000289a:	00f28733          	add	a4,t0,a5
    8000289e:	01c73023          	sd	t3,0(a4)
    800028a2:	93ae                	add	t2,t2,a1
    800028a4:	03f6be33          	mulhu	t3,a3,t6
    800028a8:	00773423          	sd	t2,8(a4)
    800028ac:	952e                	add	a0,a0,a1
    800028ae:	eb08                	sd	a0,16(a4)
    800028b0:	01de5513          	srli	a0,t3,0x1d
    800028b4:	02650533          	mul	a0,a0,t1
    800028b8:	962e                	add	a2,a2,a1
    800028ba:	ef10                	sd	a2,24(a4)
    800028bc:	02078793          	addi	a5,a5,32
    800028c0:	40a68733          	sub	a4,a3,a0
    800028c4:	f9179ce3          	bne	a5,a7,8000285c <main+0x3e>
    800028c8:	4781                	li	a5,0
    800028ca:	3b9ad537          	lui	a0,0x3b9ad
    800028ce:	a075031b          	addiw	t1,a0,-1529 # 3b9aca07 <buflen.1+0x3b9ac9c7>
    800028d2:	40000893          	li	a7,1024
    800028d6:	02b706b3          	mul	a3,a4,a1
    800028da:	03f6b533          	mulhu	a0,a3,t6
    800028de:	8175                	srli	a0,a0,0x1d
    800028e0:	02650533          	mul	a0,a0,t1
    800028e4:	40a683b3          	sub	t2,a3,a0
    800028e8:	02b386b3          	mul	a3,t2,a1
    800028ec:	03f6b533          	mulhu	a0,a3,t6
    800028f0:	8175                	srli	a0,a0,0x1d
    800028f2:	02650533          	mul	a0,a0,t1
    800028f6:	40a68e33          	sub	t3,a3,a0
    800028fa:	02be06b3          	mul	a3,t3,a1
    800028fe:	03f6b533          	mulhu	a0,a3,t6
    80002902:	8175                	srli	a0,a0,0x1d
    80002904:	02650533          	mul	a0,a0,t1
    80002908:	00b70eb3          	add	t4,a4,a1
    8000290c:	40a68533          	sub	a0,a3,a0
    80002910:	02b50f33          	mul	t5,a0,a1
    80002914:	00f28733          	add	a4,t0,a5
    80002918:	41d73023          	sd	t4,1024(a4)
    8000291c:	93ae                	add	t2,t2,a1
    8000291e:	03ff3eb3          	mulhu	t4,t5,t6
    80002922:	40773423          	sd	t2,1032(a4)
    80002926:	00be06b3          	add	a3,t3,a1
    8000292a:	40d73823          	sd	a3,1040(a4)
    8000292e:	01ded693          	srli	a3,t4,0x1d
    80002932:	026686b3          	mul	a3,a3,t1
    80002936:	952e                	add	a0,a0,a1
    80002938:	40a73c23          	sd	a0,1048(a4)
    8000293c:	02078793          	addi	a5,a5,32
    80002940:	40df0733          	sub	a4,t5,a3
    80002944:	f91799e3          	bne	a5,a7,800028d6 <main+0xb8>
    80002948:	7ff28893          	addi	a7,t0,2047
    8000294c:	01988513          	addi	a0,a7,25
    80002950:	08000793          	li	a5,128
    80002954:	3b9ad6b7          	lui	a3,0x3b9ad
    80002958:	a076831b          	addiw	t1,a3,-1529 # 3b9aca07 <buflen.1+0x3b9ac9c7>
    8000295c:	02b706b3          	mul	a3,a4,a1
    80002960:	03f6b633          	mulhu	a2,a3,t6
    80002964:	8275                	srli	a2,a2,0x1d
    80002966:	02660633          	mul	a2,a2,t1
    8000296a:	40c683b3          	sub	t2,a3,a2
    8000296e:	02b386b3          	mul	a3,t2,a1
    80002972:	03f6b633          	mulhu	a2,a3,t6
    80002976:	8275                	srli	a2,a2,0x1d
    80002978:	02660633          	mul	a2,a2,t1
    8000297c:	40c68e33          	sub	t3,a3,a2
    80002980:	02be06b3          	mul	a3,t3,a1
    80002984:	03f6b633          	mulhu	a2,a3,t6
    80002988:	8275                	srli	a2,a2,0x1d
    8000298a:	02660633          	mul	a2,a2,t1
    8000298e:	40c68633          	sub	a2,a3,a2
    80002992:	02b606b3          	mul	a3,a2,a1
    80002996:	972e                	add	a4,a4,a1
    80002998:	fee53423          	sd	a4,-24(a0)
    8000299c:	03f6beb3          	mulhu	t4,a3,t6
    800029a0:	00b38733          	add	a4,t2,a1
    800029a4:	fee53823          	sd	a4,-16(a0)
    800029a8:	00be03b3          	add	t2,t3,a1
    800029ac:	01ded713          	srli	a4,t4,0x1d
    800029b0:	02670733          	mul	a4,a4,t1
    800029b4:	fe753c23          	sd	t2,-8(a0)
    800029b8:	962e                	add	a2,a2,a1
    800029ba:	e110                	sd	a2,0(a0)
    800029bc:	40e68733          	sub	a4,a3,a4
    800029c0:	17f1                	addi	a5,a5,-4
    800029c2:	02050513          	addi	a0,a0,32
    800029c6:	fbd9                	bnez	a5,8000295c <main+0x13e>
    800029c8:	41988513          	addi	a0,a7,1049
    800029cc:	08000793          	li	a5,128
    800029d0:	3b9ad637          	lui	a2,0x3b9ad
    800029d4:	a076089b          	addiw	a7,a2,-1529 # 3b9aca07 <buflen.1+0x3b9ac9c7>
    800029d8:	02b70633          	mul	a2,a4,a1
    800029dc:	03f636b3          	mulhu	a3,a2,t6
    800029e0:	82f5                	srli	a3,a3,0x1d
    800029e2:	031686b3          	mul	a3,a3,a7
    800029e6:	40d60333          	sub	t1,a2,a3
    800029ea:	02b306b3          	mul	a3,t1,a1
    800029ee:	03f6b633          	mulhu	a2,a3,t6
    800029f2:	8275                	srli	a2,a2,0x1d
    800029f4:	03160633          	mul	a2,a2,a7
    800029f8:	40c683b3          	sub	t2,a3,a2
    800029fc:	02b386b3          	mul	a3,t2,a1
    80002a00:	03f6b633          	mulhu	a2,a3,t6
    80002a04:	8275                	srli	a2,a2,0x1d
    80002a06:	03160633          	mul	a2,a2,a7
    80002a0a:	40c68633          	sub	a2,a3,a2
    80002a0e:	02b606b3          	mul	a3,a2,a1
    80002a12:	972e                	add	a4,a4,a1
    80002a14:	fee53423          	sd	a4,-24(a0)
    80002a18:	03f6be33          	mulhu	t3,a3,t6
    80002a1c:	00b30733          	add	a4,t1,a1
    80002a20:	fee53823          	sd	a4,-16(a0)
    80002a24:	00b38333          	add	t1,t2,a1
    80002a28:	01de5713          	srli	a4,t3,0x1d
    80002a2c:	03170733          	mul	a4,a4,a7
    80002a30:	fe653c23          	sd	t1,-8(a0)
    80002a34:	962e                	add	a2,a2,a1
    80002a36:	e110                	sd	a2,0(a0)
    80002a38:	40e68733          	sub	a4,a3,a4
    80002a3c:	17f1                	addi	a5,a5,-4
    80002a3e:	02050513          	addi	a0,a0,32
    80002a42:	fbd9                	bnez	a5,800029d8 <main+0x1ba>
    80002a44:	6505                	lui	a0,0x1
    80002a46:	2561                	addiw	a0,a0,24 # 1018 <buflen.1+0xfd8>
    80002a48:	9516                	add	a0,a0,t0
    80002a4a:	08000793          	li	a5,128
    80002a4e:	3b9ad637          	lui	a2,0x3b9ad
    80002a52:	a076089b          	addiw	a7,a2,-1529 # 3b9aca07 <buflen.1+0x3b9ac9c7>
    80002a56:	02b70633          	mul	a2,a4,a1
    80002a5a:	03f636b3          	mulhu	a3,a2,t6
    80002a5e:	82f5                	srli	a3,a3,0x1d
    80002a60:	031686b3          	mul	a3,a3,a7
    80002a64:	40d60333          	sub	t1,a2,a3
    80002a68:	02b306b3          	mul	a3,t1,a1
    80002a6c:	03f6b633          	mulhu	a2,a3,t6
    80002a70:	8275                	srli	a2,a2,0x1d
    80002a72:	03160633          	mul	a2,a2,a7
    80002a76:	40c683b3          	sub	t2,a3,a2
    80002a7a:	02b386b3          	mul	a3,t2,a1
    80002a7e:	03f6b633          	mulhu	a2,a3,t6
    80002a82:	8275                	srli	a2,a2,0x1d
    80002a84:	03160633          	mul	a2,a2,a7
    80002a88:	40c68633          	sub	a2,a3,a2
    80002a8c:	02b606b3          	mul	a3,a2,a1
    80002a90:	972e                	add	a4,a4,a1
    80002a92:	fee53423          	sd	a4,-24(a0)
    80002a96:	03f6be33          	mulhu	t3,a3,t6
    80002a9a:	00b30733          	add	a4,t1,a1
    80002a9e:	fee53823          	sd	a4,-16(a0)
    80002aa2:	00b38333          	add	t1,t2,a1
    80002aa6:	01de5713          	srli	a4,t3,0x1d
    80002aaa:	03170733          	mul	a4,a4,a7
    80002aae:	fe653c23          	sd	t1,-8(a0)
    80002ab2:	962e                	add	a2,a2,a1
    80002ab4:	e110                	sd	a2,0(a0)
    80002ab6:	40e68733          	sub	a4,a3,a4
    80002aba:	17f1                	addi	a5,a5,-4
    80002abc:	02050513          	addi	a0,a0,32
    80002ac0:	fbd9                	bnez	a5,80002a56 <main+0x238>
    80002ac2:	6505                	lui	a0,0x1
    80002ac4:	4185051b          	addiw	a0,a0,1048 # 1418 <buflen.1+0x13d8>
    80002ac8:	9516                	add	a0,a0,t0
    80002aca:	08000793          	li	a5,128
    80002ace:	3b9ad637          	lui	a2,0x3b9ad
    80002ad2:	a076089b          	addiw	a7,a2,-1529 # 3b9aca07 <buflen.1+0x3b9ac9c7>
    80002ad6:	02b70633          	mul	a2,a4,a1
    80002ada:	03f636b3          	mulhu	a3,a2,t6
    80002ade:	82f5                	srli	a3,a3,0x1d
    80002ae0:	031686b3          	mul	a3,a3,a7
    80002ae4:	40d60333          	sub	t1,a2,a3
    80002ae8:	02b306b3          	mul	a3,t1,a1
    80002aec:	03f6b633          	mulhu	a2,a3,t6
    80002af0:	8275                	srli	a2,a2,0x1d
    80002af2:	03160633          	mul	a2,a2,a7
    80002af6:	40c683b3          	sub	t2,a3,a2
    80002afa:	02b386b3          	mul	a3,t2,a1
    80002afe:	03f6b633          	mulhu	a2,a3,t6
    80002b02:	8275                	srli	a2,a2,0x1d
    80002b04:	03160633          	mul	a2,a2,a7
    80002b08:	40c68633          	sub	a2,a3,a2
    80002b0c:	02b606b3          	mul	a3,a2,a1
    80002b10:	972e                	add	a4,a4,a1
    80002b12:	fee53423          	sd	a4,-24(a0)
    80002b16:	03f6be33          	mulhu	t3,a3,t6
    80002b1a:	00b30733          	add	a4,t1,a1
    80002b1e:	fee53823          	sd	a4,-16(a0)
    80002b22:	00b38333          	add	t1,t2,a1
    80002b26:	01de5713          	srli	a4,t3,0x1d
    80002b2a:	03170733          	mul	a4,a4,a7
    80002b2e:	fe653c23          	sd	t1,-8(a0)
    80002b32:	962e                	add	a2,a2,a1
    80002b34:	e110                	sd	a2,0(a0)
    80002b36:	40e68733          	sub	a4,a3,a4
    80002b3a:	17f1                	addi	a5,a5,-4
    80002b3c:	02050513          	addi	a0,a0,32
    80002b40:	fbd9                	bnez	a5,80002ad6 <main+0x2b8>
    80002b42:	6509                	lui	a0,0x2
    80002b44:	8185051b          	addiw	a0,a0,-2024 # 1818 <buflen.1+0x17d8>
    80002b48:	9516                	add	a0,a0,t0
    80002b4a:	08000793          	li	a5,128
    80002b4e:	3b9ad637          	lui	a2,0x3b9ad
    80002b52:	a076089b          	addiw	a7,a2,-1529 # 3b9aca07 <buflen.1+0x3b9ac9c7>
    80002b56:	02b70633          	mul	a2,a4,a1
    80002b5a:	03f636b3          	mulhu	a3,a2,t6
    80002b5e:	82f5                	srli	a3,a3,0x1d
    80002b60:	031686b3          	mul	a3,a3,a7
    80002b64:	40d60333          	sub	t1,a2,a3
    80002b68:	02b306b3          	mul	a3,t1,a1
    80002b6c:	03f6b633          	mulhu	a2,a3,t6
    80002b70:	8275                	srli	a2,a2,0x1d
    80002b72:	03160633          	mul	a2,a2,a7
    80002b76:	40c683b3          	sub	t2,a3,a2
    80002b7a:	02b386b3          	mul	a3,t2,a1
    80002b7e:	03f6b633          	mulhu	a2,a3,t6
    80002b82:	8275                	srli	a2,a2,0x1d
    80002b84:	03160633          	mul	a2,a2,a7
    80002b88:	40c68633          	sub	a2,a3,a2
    80002b8c:	02b606b3          	mul	a3,a2,a1
    80002b90:	972e                	add	a4,a4,a1
    80002b92:	fee53423          	sd	a4,-24(a0)
    80002b96:	03f6be33          	mulhu	t3,a3,t6
    80002b9a:	00b30733          	add	a4,t1,a1
    80002b9e:	fee53823          	sd	a4,-16(a0)
    80002ba2:	00b38333          	add	t1,t2,a1
    80002ba6:	01de5713          	srli	a4,t3,0x1d
    80002baa:	03170733          	mul	a4,a4,a7
    80002bae:	fe653c23          	sd	t1,-8(a0)
    80002bb2:	962e                	add	a2,a2,a1
    80002bb4:	e110                	sd	a2,0(a0)
    80002bb6:	40e68733          	sub	a4,a3,a4
    80002bba:	17f1                	addi	a5,a5,-4
    80002bbc:	02050513          	addi	a0,a0,32
    80002bc0:	fbd9                	bnez	a5,80002b56 <main+0x338>
    80002bc2:	6509                	lui	a0,0x2
    80002bc4:	c185051b          	addiw	a0,a0,-1000 # 1c18 <buflen.1+0x1bd8>
    80002bc8:	9516                	add	a0,a0,t0
    80002bca:	08000793          	li	a5,128
    80002bce:	3b9ad637          	lui	a2,0x3b9ad
    80002bd2:	a076089b          	addiw	a7,a2,-1529 # 3b9aca07 <buflen.1+0x3b9ac9c7>
    80002bd6:	02b70633          	mul	a2,a4,a1
    80002bda:	03f636b3          	mulhu	a3,a2,t6
    80002bde:	82f5                	srli	a3,a3,0x1d
    80002be0:	031686b3          	mul	a3,a3,a7
    80002be4:	40d60333          	sub	t1,a2,a3
    80002be8:	02b306b3          	mul	a3,t1,a1
    80002bec:	03f6b633          	mulhu	a2,a3,t6
    80002bf0:	8275                	srli	a2,a2,0x1d
    80002bf2:	03160633          	mul	a2,a2,a7
    80002bf6:	40c683b3          	sub	t2,a3,a2
    80002bfa:	02b386b3          	mul	a3,t2,a1
    80002bfe:	03f6b633          	mulhu	a2,a3,t6
    80002c02:	8275                	srli	a2,a2,0x1d
    80002c04:	03160633          	mul	a2,a2,a7
    80002c08:	40c68633          	sub	a2,a3,a2
    80002c0c:	02b606b3          	mul	a3,a2,a1
    80002c10:	972e                	add	a4,a4,a1
    80002c12:	fee53423          	sd	a4,-24(a0)
    80002c16:	03f6be33          	mulhu	t3,a3,t6
    80002c1a:	00b30733          	add	a4,t1,a1
    80002c1e:	fee53823          	sd	a4,-16(a0)
    80002c22:	00b38333          	add	t1,t2,a1
    80002c26:	01de5713          	srli	a4,t3,0x1d
    80002c2a:	03170733          	mul	a4,a4,a7
    80002c2e:	fe653c23          	sd	t1,-8(a0)
    80002c32:	962e                	add	a2,a2,a1
    80002c34:	e110                	sd	a2,0(a0)
    80002c36:	40e68733          	sub	a4,a3,a4
    80002c3a:	17f1                	addi	a5,a5,-4
    80002c3c:	02050513          	addi	a0,a0,32
    80002c40:	fbd9                	bnez	a5,80002bd6 <main+0x3b8>
    80002c42:	6509                	lui	a0,0x2
    80002c44:	2561                	addiw	a0,a0,24 # 2018 <buflen.1+0x1fd8>
    80002c46:	9516                	add	a0,a0,t0
    80002c48:	08000793          	li	a5,128
    80002c4c:	3b9ad637          	lui	a2,0x3b9ad
    80002c50:	a076089b          	addiw	a7,a2,-1529 # 3b9aca07 <buflen.1+0x3b9ac9c7>
    80002c54:	02b70633          	mul	a2,a4,a1
    80002c58:	03f636b3          	mulhu	a3,a2,t6
    80002c5c:	82f5                	srli	a3,a3,0x1d
    80002c5e:	031686b3          	mul	a3,a3,a7
    80002c62:	40d60333          	sub	t1,a2,a3
    80002c66:	02b306b3          	mul	a3,t1,a1
    80002c6a:	03f6b633          	mulhu	a2,a3,t6
    80002c6e:	8275                	srli	a2,a2,0x1d
    80002c70:	03160633          	mul	a2,a2,a7
    80002c74:	40c683b3          	sub	t2,a3,a2
    80002c78:	02b386b3          	mul	a3,t2,a1
    80002c7c:	03f6b633          	mulhu	a2,a3,t6
    80002c80:	8275                	srli	a2,a2,0x1d
    80002c82:	03160633          	mul	a2,a2,a7
    80002c86:	40c68633          	sub	a2,a3,a2
    80002c8a:	02b606b3          	mul	a3,a2,a1
    80002c8e:	972e                	add	a4,a4,a1
    80002c90:	fee53423          	sd	a4,-24(a0)
    80002c94:	03f6be33          	mulhu	t3,a3,t6
    80002c98:	00b30733          	add	a4,t1,a1
    80002c9c:	fee53823          	sd	a4,-16(a0)
    80002ca0:	00b38333          	add	t1,t2,a1
    80002ca4:	01de5713          	srli	a4,t3,0x1d
    80002ca8:	03170733          	mul	a4,a4,a7
    80002cac:	fe653c23          	sd	t1,-8(a0)
    80002cb0:	962e                	add	a2,a2,a1
    80002cb2:	e110                	sd	a2,0(a0)
    80002cb4:	40e68733          	sub	a4,a3,a4
    80002cb8:	17f1                	addi	a5,a5,-4
    80002cba:	02050513          	addi	a0,a0,32
    80002cbe:	fbd9                	bnez	a5,80002c54 <main+0x436>
    80002cc0:	6509                	lui	a0,0x2
    80002cc2:	4185051b          	addiw	a0,a0,1048 # 2418 <buflen.1+0x23d8>
    80002cc6:	9516                	add	a0,a0,t0
    80002cc8:	08000793          	li	a5,128
    80002ccc:	3b9ad637          	lui	a2,0x3b9ad
    80002cd0:	a076089b          	addiw	a7,a2,-1529 # 3b9aca07 <buflen.1+0x3b9ac9c7>
    80002cd4:	02b70633          	mul	a2,a4,a1
    80002cd8:	03f636b3          	mulhu	a3,a2,t6
    80002cdc:	82f5                	srli	a3,a3,0x1d
    80002cde:	031686b3          	mul	a3,a3,a7
    80002ce2:	40d60333          	sub	t1,a2,a3
    80002ce6:	02b306b3          	mul	a3,t1,a1
    80002cea:	03f6b633          	mulhu	a2,a3,t6
    80002cee:	8275                	srli	a2,a2,0x1d
    80002cf0:	03160633          	mul	a2,a2,a7
    80002cf4:	40c683b3          	sub	t2,a3,a2
    80002cf8:	02b386b3          	mul	a3,t2,a1
    80002cfc:	03f6b633          	mulhu	a2,a3,t6
    80002d00:	8275                	srli	a2,a2,0x1d
    80002d02:	03160633          	mul	a2,a2,a7
    80002d06:	40c68633          	sub	a2,a3,a2
    80002d0a:	02b606b3          	mul	a3,a2,a1
    80002d0e:	972e                	add	a4,a4,a1
    80002d10:	fee53423          	sd	a4,-24(a0)
    80002d14:	03f6be33          	mulhu	t3,a3,t6
    80002d18:	00b30733          	add	a4,t1,a1
    80002d1c:	fee53823          	sd	a4,-16(a0)
    80002d20:	00b38333          	add	t1,t2,a1
    80002d24:	01de5713          	srli	a4,t3,0x1d
    80002d28:	03170733          	mul	a4,a4,a7
    80002d2c:	fe653c23          	sd	t1,-8(a0)
    80002d30:	962e                	add	a2,a2,a1
    80002d32:	e110                	sd	a2,0(a0)
    80002d34:	40e68733          	sub	a4,a3,a4
    80002d38:	17f1                	addi	a5,a5,-4
    80002d3a:	02050513          	addi	a0,a0,32
    80002d3e:	fbd9                	bnez	a5,80002cd4 <main+0x4b6>
    80002d40:	650d                	lui	a0,0x3
    80002d42:	8185051b          	addiw	a0,a0,-2024 # 2818 <buflen.1+0x27d8>
    80002d46:	9516                	add	a0,a0,t0
    80002d48:	08000793          	li	a5,128
    80002d4c:	3b9ad637          	lui	a2,0x3b9ad
    80002d50:	a076089b          	addiw	a7,a2,-1529 # 3b9aca07 <buflen.1+0x3b9ac9c7>
    80002d54:	02b70633          	mul	a2,a4,a1
    80002d58:	03f636b3          	mulhu	a3,a2,t6
    80002d5c:	82f5                	srli	a3,a3,0x1d
    80002d5e:	031686b3          	mul	a3,a3,a7
    80002d62:	40d60333          	sub	t1,a2,a3
    80002d66:	02b306b3          	mul	a3,t1,a1
    80002d6a:	03f6b633          	mulhu	a2,a3,t6
    80002d6e:	8275                	srli	a2,a2,0x1d
    80002d70:	03160633          	mul	a2,a2,a7
    80002d74:	40c683b3          	sub	t2,a3,a2
    80002d78:	02b386b3          	mul	a3,t2,a1
    80002d7c:	03f6b633          	mulhu	a2,a3,t6
    80002d80:	8275                	srli	a2,a2,0x1d
    80002d82:	03160633          	mul	a2,a2,a7
    80002d86:	40c68633          	sub	a2,a3,a2
    80002d8a:	02b606b3          	mul	a3,a2,a1
    80002d8e:	972e                	add	a4,a4,a1
    80002d90:	fee53423          	sd	a4,-24(a0)
    80002d94:	03f6be33          	mulhu	t3,a3,t6
    80002d98:	00b30733          	add	a4,t1,a1
    80002d9c:	fee53823          	sd	a4,-16(a0)
    80002da0:	00b38333          	add	t1,t2,a1
    80002da4:	01de5713          	srli	a4,t3,0x1d
    80002da8:	03170733          	mul	a4,a4,a7
    80002dac:	fe653c23          	sd	t1,-8(a0)
    80002db0:	962e                	add	a2,a2,a1
    80002db2:	e110                	sd	a2,0(a0)
    80002db4:	40e68733          	sub	a4,a3,a4
    80002db8:	17f1                	addi	a5,a5,-4
    80002dba:	02050513          	addi	a0,a0,32
    80002dbe:	fbd9                	bnez	a5,80002d54 <main+0x536>
    80002dc0:	650d                	lui	a0,0x3
    80002dc2:	c185051b          	addiw	a0,a0,-1000 # 2c18 <buflen.1+0x2bd8>
    80002dc6:	9516                	add	a0,a0,t0
    80002dc8:	08000693          	li	a3,128
    80002dcc:	3b9ad637          	lui	a2,0x3b9ad
    80002dd0:	a076089b          	addiw	a7,a2,-1529 # 3b9aca07 <buflen.1+0x3b9ac9c7>
    80002dd4:	02b70633          	mul	a2,a4,a1
    80002dd8:	03f637b3          	mulhu	a5,a2,t6
    80002ddc:	83f5                	srli	a5,a5,0x1d
    80002dde:	031787b3          	mul	a5,a5,a7
    80002de2:	40f602b3          	sub	t0,a2,a5
    80002de6:	02b287b3          	mul	a5,t0,a1
    80002dea:	03f7b633          	mulhu	a2,a5,t6
    80002dee:	8275                	srli	a2,a2,0x1d
    80002df0:	03160633          	mul	a2,a2,a7
    80002df4:	40c78333          	sub	t1,a5,a2
    80002df8:	02b307b3          	mul	a5,t1,a1
    80002dfc:	03f7b633          	mulhu	a2,a5,t6
    80002e00:	8275                	srli	a2,a2,0x1d
    80002e02:	03160633          	mul	a2,a2,a7
    80002e06:	40c78633          	sub	a2,a5,a2
    80002e0a:	02b607b3          	mul	a5,a2,a1
    80002e0e:	972e                	add	a4,a4,a1
    80002e10:	fee53423          	sd	a4,-24(a0)
    80002e14:	03f7b3b3          	mulhu	t2,a5,t6
    80002e18:	00b28733          	add	a4,t0,a1
    80002e1c:	fee53823          	sd	a4,-16(a0)
    80002e20:	00b302b3          	add	t0,t1,a1
    80002e24:	01d3d713          	srli	a4,t2,0x1d
    80002e28:	03170733          	mul	a4,a4,a7
    80002e2c:	fe553c23          	sd	t0,-8(a0)
    80002e30:	962e                	add	a2,a2,a1
    80002e32:	e110                	sd	a2,0(a0)
    80002e34:	40e78733          	sub	a4,a5,a4
    80002e38:	16f1                	addi	a3,a3,-4
    80002e3a:	02050513          	addi	a0,a0,32
    80002e3e:	fad9                	bnez	a3,80002dd4 <main+0x5b6>
    80002e40:	00004297          	auipc	t0,0x4
    80002e44:	eb828293          	addi	t0,t0,-328 # 80006cf8 <kernel>
    80002e48:	3b9ad537          	lui	a0,0x3b9ad
    80002e4c:	a075031b          	addiw	t1,a0,-1529 # 3b9aca07 <buflen.1+0x3b9ac9c7>
    80002e50:	04000893          	li	a7,64
    80002e54:	02b70633          	mul	a2,a4,a1
    80002e58:	03f63433          	mulhu	s0,a2,t6
    80002e5c:	8075                	srli	s0,s0,0x1d
    80002e5e:	02640433          	mul	s0,s0,t1
    80002e62:	8e01                	sub	a2,a2,s0
    80002e64:	02b60433          	mul	s0,a2,a1
    80002e68:	03f437b3          	mulhu	a5,s0,t6
    80002e6c:	83f5                	srli	a5,a5,0x1d
    80002e6e:	026787b3          	mul	a5,a5,t1
    80002e72:	40f407b3          	sub	a5,s0,a5
    80002e76:	02b78433          	mul	s0,a5,a1
    80002e7a:	03f43533          	mulhu	a0,s0,t6
    80002e7e:	8175                	srli	a0,a0,0x1d
    80002e80:	02650533          	mul	a0,a0,t1
    80002e84:	00b703b3          	add	t2,a4,a1
    80002e88:	40a40533          	sub	a0,s0,a0
    80002e8c:	02b50433          	mul	s0,a0,a1
    80002e90:	00d28733          	add	a4,t0,a3
    80002e94:	00773023          	sd	t2,0(a4)
    80002e98:	962e                	add	a2,a2,a1
    80002e9a:	03f433b3          	mulhu	t2,s0,t6
    80002e9e:	e710                	sd	a2,8(a4)
    80002ea0:	00b78633          	add	a2,a5,a1
    80002ea4:	eb10                	sd	a2,16(a4)
    80002ea6:	01d3d613          	srli	a2,t2,0x1d
    80002eaa:	02660633          	mul	a2,a2,t1
    80002eae:	952e                	add	a0,a0,a1
    80002eb0:	ef08                	sd	a0,24(a4)
    80002eb2:	02068693          	addi	a3,a3,32
    80002eb6:	40c40733          	sub	a4,s0,a2
    80002eba:	f9169de3          	bne	a3,a7,80002e54 <main+0x636>
    80002ebe:	00e83023          	sd	a4,0(a6)
    80002ec2:	b0002473          	csrr	s0,mcycle
    80002ec6:	4531                	li	a0,12
    80002ec8:	07900593          	li	a1,121
    80002ecc:	fffff097          	auipc	ra,0xfffff
    80002ed0:	288080e7          	jalr	648(ra) # 80002154 <conv1d>
    80002ed4:	b0002573          	csrr	a0,mcycle
    80002ed8:	9d01                	subw	a0,a0,s0
    80002eda:	60a2                	ld	ra,8(sp)
    80002edc:	6402                	ld	s0,0(sp)
    80002ede:	0141                	addi	sp,sp,16
    80002ee0:	8082                	ret

0000000080002ee2 <vprintfmt>:
    80002ee2:	7149                	addi	sp,sp,-368
    80002ee4:	f2a2                	sd	s0,352(sp)
    80002ee6:	eea6                	sd	s1,344(sp)
    80002ee8:	eaca                	sd	s2,336(sp)
    80002eea:	e2d2                	sd	s4,320(sp)
    80002eec:	fe56                	sd	s5,312(sp)
    80002eee:	fa5a                	sd	s6,304(sp)
    80002ef0:	f65e                	sd	s7,296(sp)
    80002ef2:	f686                	sd	ra,360(sp)
    80002ef4:	e6ce                	sd	s3,328(sp)
    80002ef6:	f262                	sd	s8,288(sp)
    80002ef8:	ee66                	sd	s9,280(sp)
    80002efa:	e66e                	sd	s11,264(sp)
    80002efc:	892a                	mv	s2,a0
    80002efe:	84ae                	mv	s1,a1
    80002f00:	8432                	mv	s0,a2
    80002f02:	8bb6                	mv	s7,a3
    80002f04:	02500a13          	li	s4,37
    80002f08:	05500b13          	li	s6,85
    80002f0c:	00001a97          	auipc	s5,0x1
    80002f10:	c04a8a93          	addi	s5,s5,-1020 # 80003b10 <gen2+0x8>
    80002f14:	a029                	j	80002f1e <vprintfmt+0x3c>
    80002f16:	cd1d                	beqz	a0,80002f54 <vprintfmt+0x72>
    80002f18:	85a6                	mv	a1,s1
    80002f1a:	0405                	addi	s0,s0,1
    80002f1c:	9902                	jalr	s2
    80002f1e:	00044503          	lbu	a0,0(s0)
    80002f22:	ff451ae3          	bne	a0,s4,80002f16 <vprintfmt+0x34>
    80002f26:	00144683          	lbu	a3,1(s0)
    80002f2a:	00140993          	addi	s3,s0,1
    80002f2e:	874e                	mv	a4,s3
    80002f30:	02000c93          	li	s9,32
    80002f34:	5c7d                	li	s8,-1
    80002f36:	5dfd                	li	s11,-1
    80002f38:	4581                	li	a1,0
    80002f3a:	fdd6879b          	addiw	a5,a3,-35
    80002f3e:	0ff7f793          	zext.b	a5,a5
    80002f42:	00170413          	addi	s0,a4,1
    80002f46:	04fb6163          	bltu	s6,a5,80002f88 <vprintfmt+0xa6>
    80002f4a:	078a                	slli	a5,a5,0x2
    80002f4c:	97d6                	add	a5,a5,s5
    80002f4e:	439c                	lw	a5,0(a5)
    80002f50:	97d6                	add	a5,a5,s5
    80002f52:	8782                	jr	a5
    80002f54:	70b6                	ld	ra,360(sp)
    80002f56:	7416                	ld	s0,352(sp)
    80002f58:	64f6                	ld	s1,344(sp)
    80002f5a:	6956                	ld	s2,336(sp)
    80002f5c:	69b6                	ld	s3,328(sp)
    80002f5e:	6a16                	ld	s4,320(sp)
    80002f60:	7af2                	ld	s5,312(sp)
    80002f62:	7b52                	ld	s6,304(sp)
    80002f64:	7bb2                	ld	s7,296(sp)
    80002f66:	7c12                	ld	s8,288(sp)
    80002f68:	6cf2                	ld	s9,280(sp)
    80002f6a:	6db2                	ld	s11,264(sp)
    80002f6c:	6175                	addi	sp,sp,368
    80002f6e:	8082                	ret
    80002f70:	8cb6                	mv	s9,a3
    80002f72:	00174683          	lbu	a3,1(a4)
    80002f76:	8722                	mv	a4,s0
    80002f78:	00170413          	addi	s0,a4,1
    80002f7c:	fdd6879b          	addiw	a5,a3,-35
    80002f80:	0ff7f793          	zext.b	a5,a5
    80002f84:	fcfb73e3          	bgeu	s6,a5,80002f4a <vprintfmt+0x68>
    80002f88:	85a6                	mv	a1,s1
    80002f8a:	02500513          	li	a0,37
    80002f8e:	9902                	jalr	s2
    80002f90:	844e                	mv	s0,s3
    80002f92:	b771                	j	80002f1e <vprintfmt+0x3c>
    80002f94:	fd068c1b          	addiw	s8,a3,-48
    80002f98:	00174683          	lbu	a3,1(a4)
    80002f9c:	47a5                	li	a5,9
    80002f9e:	fd06871b          	addiw	a4,a3,-48
    80002fa2:	0006861b          	sext.w	a2,a3
    80002fa6:	20e7ef63          	bltu	a5,a4,800031c4 <vprintfmt+0x2e2>
    80002faa:	8722                	mv	a4,s0
    80002fac:	4825                	li	a6,9
    80002fae:	00174683          	lbu	a3,1(a4)
    80002fb2:	002c179b          	slliw	a5,s8,0x2
    80002fb6:	018787bb          	addw	a5,a5,s8
    80002fba:	0017979b          	slliw	a5,a5,0x1
    80002fbe:	9fb1                	addw	a5,a5,a2
    80002fc0:	fd06851b          	addiw	a0,a3,-48
    80002fc4:	0705                	addi	a4,a4,1
    80002fc6:	fd078c1b          	addiw	s8,a5,-48
    80002fca:	0006861b          	sext.w	a2,a3
    80002fce:	fea870e3          	bgeu	a6,a0,80002fae <vprintfmt+0xcc>
    80002fd2:	f60dd4e3          	bgez	s11,80002f3a <vprintfmt+0x58>
    80002fd6:	8de2                	mv	s11,s8
    80002fd8:	5c7d                	li	s8,-1
    80002fda:	b785                	j	80002f3a <vprintfmt+0x58>
    80002fdc:	00174683          	lbu	a3,1(a4)
    80002fe0:	8722                	mv	a4,s0
    80002fe2:	bfa1                	j	80002f3a <vprintfmt+0x58>
    80002fe4:	85a6                	mv	a1,s1
    80002fe6:	02500513          	li	a0,37
    80002fea:	9902                	jalr	s2
    80002fec:	bf0d                	j	80002f1e <vprintfmt+0x3c>
    80002fee:	000bac03          	lw	s8,0(s7)
    80002ff2:	00174683          	lbu	a3,1(a4)
    80002ff6:	0ba1                	addi	s7,s7,8
    80002ff8:	8722                	mv	a4,s0
    80002ffa:	bfe1                	j	80002fd2 <vprintfmt+0xf0>
    80002ffc:	85a6                	mv	a1,s1
    80002ffe:	03000513          	li	a0,48
    80003002:	ea6a                	sd	s10,272(sp)
    80003004:	9902                	jalr	s2
    80003006:	85a6                	mv	a1,s1
    80003008:	07800513          	li	a0,120
    8000300c:	9902                	jalr	s2
    8000300e:	4641                	li	a2,16
    80003010:	008b8713          	addi	a4,s7,8
    80003014:	000bb783          	ld	a5,0(s7)
    80003018:	8bba                	mv	s7,a4
    8000301a:	02c7f5b3          	remu	a1,a5,a2
    8000301e:	000c899b          	sext.w	s3,s9
    80003022:	0054                	addi	a3,sp,4
    80003024:	4705                	li	a4,1
    80003026:	c02e                	sw	a1,0(sp)
    80003028:	16c7ea63          	bltu	a5,a2,8000319c <vprintfmt+0x2ba>
    8000302c:	02c7d7b3          	divu	a5,a5,a2
    80003030:	0691                	addi	a3,a3,4
    80003032:	8c3a                	mv	s8,a4
    80003034:	2705                	addiw	a4,a4,1
    80003036:	02c7f5b3          	remu	a1,a5,a2
    8000303a:	feb6ae23          	sw	a1,-4(a3)
    8000303e:	fec7f7e3          	bgeu	a5,a2,8000302c <vprintfmt+0x14a>
    80003042:	fffd8c9b          	addiw	s9,s11,-1
    80003046:	fff70d1b          	addiw	s10,a4,-1
    8000304a:	01b75863          	bge	a4,s11,8000305a <vprintfmt+0x178>
    8000304e:	85a6                	mv	a1,s1
    80003050:	854e                	mv	a0,s3
    80003052:	3cfd                	addiw	s9,s9,-1
    80003054:	9902                	jalr	s2
    80003056:	ffac9ce3          	bne	s9,s10,8000304e <vprintfmt+0x16c>
    8000305a:	0c0a                	slli	s8,s8,0x2
    8000305c:	018109b3          	add	s3,sp,s8
    80003060:	ffc10c93          	addi	s9,sp,-4
    80003064:	4c25                	li	s8,9
    80003066:	0009a783          	lw	a5,0(s3)
    8000306a:	03000513          	li	a0,48
    8000306e:	00fc7463          	bgeu	s8,a5,80003076 <vprintfmt+0x194>
    80003072:	05700513          	li	a0,87
    80003076:	85a6                	mv	a1,s1
    80003078:	9d3d                	addw	a0,a0,a5
    8000307a:	19f1                	addi	s3,s3,-4
    8000307c:	9902                	jalr	s2
    8000307e:	ff9994e3          	bne	s3,s9,80003066 <vprintfmt+0x184>
    80003082:	6d52                	ld	s10,272(sp)
    80003084:	bd69                	j	80002f1e <vprintfmt+0x3c>
    80003086:	ea6a                	sd	s10,272(sp)
    80003088:	4785                	li	a5,1
    8000308a:	008b8c13          	addi	s8,s7,8
    8000308e:	00b7c463          	blt	a5,a1,80003096 <vprintfmt+0x1b4>
    80003092:	10058763          	beqz	a1,800031a0 <vprintfmt+0x2be>
    80003096:	000bb983          	ld	s3,0(s7)
    8000309a:	1009cc63          	bltz	s3,800031b2 <vprintfmt+0x2d0>
    8000309e:	87ce                	mv	a5,s3
    800030a0:	8be2                	mv	s7,s8
    800030a2:	4629                	li	a2,10
    800030a4:	bf9d                	j	8000301a <vprintfmt+0x138>
    800030a6:	00174683          	lbu	a3,1(a4)
    800030aa:	2585                	addiw	a1,a1,1
    800030ac:	8722                	mv	a4,s0
    800030ae:	b571                	j	80002f3a <vprintfmt+0x58>
    800030b0:	ea6a                	sd	s10,272(sp)
    800030b2:	4641                	li	a2,16
    800030b4:	4785                	li	a5,1
    800030b6:	008b8713          	addi	a4,s7,8
    800030ba:	f4b7cde3          	blt	a5,a1,80003014 <vprintfmt+0x132>
    800030be:	f9b9                	bnez	a1,80003014 <vprintfmt+0x132>
    800030c0:	000be783          	lwu	a5,0(s7)
    800030c4:	8bba                	mv	s7,a4
    800030c6:	bf91                	j	8000301a <vprintfmt+0x138>
    800030c8:	ea6a                	sd	s10,272(sp)
    800030ca:	000bbd03          	ld	s10,0(s7)
    800030ce:	0ba1                	addi	s7,s7,8
    800030d0:	040d0363          	beqz	s10,80003116 <vprintfmt+0x234>
    800030d4:	09b05e63          	blez	s11,80003170 <vprintfmt+0x28e>
    800030d8:	02d00793          	li	a5,45
    800030dc:	04fc9f63          	bne	s9,a5,8000313a <vprintfmt+0x258>
    800030e0:	000d4503          	lbu	a0,0(s10)
    800030e4:	c105                	beqz	a0,80003104 <vprintfmt+0x222>
    800030e6:	59fd                	li	s3,-1
    800030e8:	000c4563          	bltz	s8,800030f2 <vprintfmt+0x210>
    800030ec:	3c7d                	addiw	s8,s8,-1
    800030ee:	013c0963          	beq	s8,s3,80003100 <vprintfmt+0x21e>
    800030f2:	85a6                	mv	a1,s1
    800030f4:	9902                	jalr	s2
    800030f6:	001d4503          	lbu	a0,1(s10)
    800030fa:	3dfd                	addiw	s11,s11,-1
    800030fc:	0d05                	addi	s10,s10,1
    800030fe:	f56d                	bnez	a0,800030e8 <vprintfmt+0x206>
    80003100:	f9b051e3          	blez	s11,80003082 <vprintfmt+0x1a0>
    80003104:	85a6                	mv	a1,s1
    80003106:	02000513          	li	a0,32
    8000310a:	3dfd                	addiw	s11,s11,-1
    8000310c:	9902                	jalr	s2
    8000310e:	fe0d9be3          	bnez	s11,80003104 <vprintfmt+0x222>
    80003112:	6d52                	ld	s10,272(sp)
    80003114:	b529                	j	80002f1e <vprintfmt+0x3c>
    80003116:	00001d17          	auipc	s10,0x1
    8000311a:	b52d0d13          	addi	s10,s10,-1198 # 80003c68 <gen2+0x160>
    8000311e:	02800513          	li	a0,40
    80003122:	fdb052e3          	blez	s11,800030e6 <vprintfmt+0x204>
    80003126:	02d00793          	li	a5,45
    8000312a:	00001d17          	auipc	s10,0x1
    8000312e:	b3ed0d13          	addi	s10,s10,-1218 # 80003c68 <gen2+0x160>
    80003132:	02800513          	li	a0,40
    80003136:	fafc88e3          	beq	s9,a5,800030e6 <vprintfmt+0x204>
    8000313a:	000d861b          	sext.w	a2,s11
    8000313e:	87ea                	mv	a5,s10
    80003140:	018d06b3          	add	a3,s10,s8
    80003144:	000c1663          	bnez	s8,80003150 <vprintfmt+0x26e>
    80003148:	a829                	j	80003162 <vprintfmt+0x280>
    8000314a:	0785                	addi	a5,a5,1
    8000314c:	00d78563          	beq	a5,a3,80003156 <vprintfmt+0x274>
    80003150:	0007c703          	lbu	a4,0(a5)
    80003154:	fb7d                	bnez	a4,8000314a <vprintfmt+0x268>
    80003156:	41a787b3          	sub	a5,a5,s10
    8000315a:	40f60dbb          	subw	s11,a2,a5
    8000315e:	01b05963          	blez	s11,80003170 <vprintfmt+0x28e>
    80003162:	2c81                	sext.w	s9,s9
    80003164:	85a6                	mv	a1,s1
    80003166:	8566                	mv	a0,s9
    80003168:	3dfd                	addiw	s11,s11,-1
    8000316a:	9902                	jalr	s2
    8000316c:	fe0d9ce3          	bnez	s11,80003164 <vprintfmt+0x282>
    80003170:	000d4503          	lbu	a0,0(s10)
    80003174:	d519                	beqz	a0,80003082 <vprintfmt+0x1a0>
    80003176:	59fd                	li	s3,-1
    80003178:	bf85                	j	800030e8 <vprintfmt+0x206>
    8000317a:	fffdc793          	not	a5,s11
    8000317e:	97fd                	srai	a5,a5,0x3f
    80003180:	00fdf7b3          	and	a5,s11,a5
    80003184:	00174683          	lbu	a3,1(a4)
    80003188:	00078d9b          	sext.w	s11,a5
    8000318c:	8722                	mv	a4,s0
    8000318e:	b375                	j	80002f3a <vprintfmt+0x58>
    80003190:	000ba503          	lw	a0,0(s7)
    80003194:	85a6                	mv	a1,s1
    80003196:	0ba1                	addi	s7,s7,8
    80003198:	9902                	jalr	s2
    8000319a:	b351                	j	80002f1e <vprintfmt+0x3c>
    8000319c:	4c01                	li	s8,0
    8000319e:	b555                	j	80003042 <vprintfmt+0x160>
    800031a0:	000ba983          	lw	s3,0(s7)
    800031a4:	bddd                	j	8000309a <vprintfmt+0x1b8>
    800031a6:	ea6a                	sd	s10,272(sp)
    800031a8:	4629                	li	a2,10
    800031aa:	b729                	j	800030b4 <vprintfmt+0x1d2>
    800031ac:	ea6a                	sd	s10,272(sp)
    800031ae:	4621                	li	a2,8
    800031b0:	b711                	j	800030b4 <vprintfmt+0x1d2>
    800031b2:	85a6                	mv	a1,s1
    800031b4:	02d00513          	li	a0,45
    800031b8:	9902                	jalr	s2
    800031ba:	413007b3          	neg	a5,s3
    800031be:	8be2                	mv	s7,s8
    800031c0:	4629                	li	a2,10
    800031c2:	bda1                	j	8000301a <vprintfmt+0x138>
    800031c4:	8722                	mv	a4,s0
    800031c6:	b531                	j	80002fd2 <vprintfmt+0xf0>

00000000800031c8 <sprintf_putch.0>:
    800031c8:	619c                	ld	a5,0(a1)
    800031ca:	00a78023          	sb	a0,0(a5)
    800031ce:	619c                	ld	a5,0(a1)
    800031d0:	0785                	addi	a5,a5,1
    800031d2:	e19c                	sd	a5,0(a1)
    800031d4:	8082                	ret

00000000800031d6 <putchar>:
    800031d6:	04022803          	lw	a6,64(tp) # 40 <buflen.1>
    800031da:	00020793          	mv	a5,tp
    800031de:	97c2                	add	a5,a5,a6
    800031e0:	7159                	addi	sp,sp,-112
    800031e2:	0018069b          	addiw	a3,a6,1
    800031e6:	04d22023          	sw	a3,64(tp) # 40 <buflen.1>
    800031ea:	00a78023          	sb	a0,0(a5)
    800031ee:	03f10713          	addi	a4,sp,63
    800031f2:	47a9                	li	a5,10
    800031f4:	fc077713          	andi	a4,a4,-64
    800031f8:	00f50963          	beq	a0,a5,8000320a <putchar+0x34>
    800031fc:	04000793          	li	a5,64
    80003200:	00f68563          	beq	a3,a5,8000320a <putchar+0x34>
    80003204:	4501                	li	a0,0
    80003206:	6165                	addi	sp,sp,112
    80003208:	8082                	ret
    8000320a:	04000793          	li	a5,64
    8000320e:	e31c                	sd	a5,0(a4)
    80003210:	4785                	li	a5,1
    80003212:	e71c                	sd	a5,8(a4)
    80003214:	00020613          	mv	a2,tp
    80003218:	eb10                	sd	a2,16(a4)
    8000321a:	ef14                	sd	a3,24(a4)
    8000321c:	0ff0000f          	fence
    80003220:	ffffe697          	auipc	a3,0xffffe
    80003224:	e2068693          	addi	a3,a3,-480 # 80001040 <fromhost>
    80003228:	ffffe797          	auipc	a5,0xffffe
    8000322c:	dce7bc23          	sd	a4,-552(a5) # 80001000 <tohost>
    80003230:	629c                	ld	a5,0(a3)
    80003232:	dffd                	beqz	a5,80003230 <putchar+0x5a>
    80003234:	ffffe797          	auipc	a5,0xffffe
    80003238:	e007b623          	sd	zero,-500(a5) # 80001040 <fromhost>
    8000323c:	0ff0000f          	fence
    80003240:	04022023          	sw	zero,64(tp) # 40 <buflen.1>
    80003244:	631c                	ld	a5,0(a4)
    80003246:	4501                	li	a0,0
    80003248:	6165                	addi	sp,sp,112
    8000324a:	8082                	ret

000000008000324c <setStats>:
    8000324c:	b0002773          	csrr	a4,mcycle
    80003250:	00007797          	auipc	a5,0x7
    80003254:	84878793          	addi	a5,a5,-1976 # 80009a98 <counters>
    80003258:	c511                	beqz	a0,80003264 <setStats+0x18>
    8000325a:	e398                	sd	a4,0(a5)
    8000325c:	b0202773          	csrr	a4,minstret
    80003260:	e798                	sd	a4,8(a5)
    80003262:	8082                	ret
    80003264:	6394                	ld	a3,0(a5)
    80003266:	00001617          	auipc	a2,0x1
    8000326a:	a1260613          	addi	a2,a2,-1518 # 80003c78 <gen2+0x170>
    8000326e:	eb90                	sd	a2,16(a5)
    80003270:	8f15                	sub	a4,a4,a3
    80003272:	e398                	sd	a4,0(a5)
    80003274:	b0202773          	csrr	a4,minstret
    80003278:	6794                	ld	a3,8(a5)
    8000327a:	00001617          	auipc	a2,0x1
    8000327e:	a0660613          	addi	a2,a2,-1530 # 80003c80 <gen2+0x178>
    80003282:	ef90                	sd	a2,24(a5)
    80003284:	8f15                	sub	a4,a4,a3
    80003286:	e798                	sd	a4,8(a5)
    80003288:	8082                	ret

000000008000328a <tohost_exit>:
    8000328a:	00151793          	slli	a5,a0,0x1
    8000328e:	0017e793          	ori	a5,a5,1
    80003292:	ffffe717          	auipc	a4,0xffffe
    80003296:	d6f73723          	sd	a5,-658(a4) # 80001000 <tohost>
    8000329a:	a001                	j	8000329a <tohost_exit+0x10>

000000008000329c <handle_trap>:
    8000329c:	6785                	lui	a5,0x1
    8000329e:	a7378793          	addi	a5,a5,-1421 # a73 <buflen.1+0xa33>
    800032a2:	ffffe717          	auipc	a4,0xffffe
    800032a6:	d4f73f23          	sd	a5,-674(a4) # 80001000 <tohost>
    800032aa:	a001                	j	800032aa <handle_trap+0xe>

00000000800032ac <exit>:
    800032ac:	1141                	addi	sp,sp,-16
    800032ae:	e406                	sd	ra,8(sp)
    800032b0:	fdbff0ef          	jal	8000328a <tohost_exit>

00000000800032b4 <abort>:
    800032b4:	10d00793          	li	a5,269
    800032b8:	ffffe717          	auipc	a4,0xffffe
    800032bc:	d4f73423          	sd	a5,-696(a4) # 80001000 <tohost>
    800032c0:	a001                	j	800032c0 <abort+0xc>

00000000800032c2 <printstr>:
    800032c2:	00054783          	lbu	a5,0(a0)
    800032c6:	7159                	addi	sp,sp,-112
    800032c8:	03f10693          	addi	a3,sp,63
    800032cc:	fc06f693          	andi	a3,a3,-64
    800032d0:	c3b9                	beqz	a5,80003316 <printstr+0x54>
    800032d2:	87aa                	mv	a5,a0
    800032d4:	0017c703          	lbu	a4,1(a5)
    800032d8:	0785                	addi	a5,a5,1
    800032da:	ff6d                	bnez	a4,800032d4 <printstr+0x12>
    800032dc:	8f89                	sub	a5,a5,a0
    800032de:	04000713          	li	a4,64
    800032e2:	e298                	sd	a4,0(a3)
    800032e4:	4705                	li	a4,1
    800032e6:	e698                	sd	a4,8(a3)
    800032e8:	ea88                	sd	a0,16(a3)
    800032ea:	ee9c                	sd	a5,24(a3)
    800032ec:	0ff0000f          	fence
    800032f0:	ffffe717          	auipc	a4,0xffffe
    800032f4:	d5070713          	addi	a4,a4,-688 # 80001040 <fromhost>
    800032f8:	ffffe797          	auipc	a5,0xffffe
    800032fc:	d0d7b423          	sd	a3,-760(a5) # 80001000 <tohost>
    80003300:	631c                	ld	a5,0(a4)
    80003302:	dffd                	beqz	a5,80003300 <printstr+0x3e>
    80003304:	ffffe797          	auipc	a5,0xffffe
    80003308:	d207be23          	sd	zero,-708(a5) # 80001040 <fromhost>
    8000330c:	0ff0000f          	fence
    80003310:	629c                	ld	a5,0(a3)
    80003312:	6165                	addi	sp,sp,112
    80003314:	8082                	ret
    80003316:	4781                	li	a5,0
    80003318:	b7d9                	j	800032de <printstr+0x1c>

000000008000331a <thread_entry>:
    8000331a:	c111                	beqz	a0,8000331e <thread_entry+0x4>
    8000331c:	a001                	j	8000331c <thread_entry+0x2>
    8000331e:	8082                	ret

0000000080003320 <printhex>:
    80003320:	7179                	addi	sp,sp,-48
    80003322:	87aa                	mv	a5,a0
    80003324:	f406                	sd	ra,40(sp)
    80003326:	0028                	addi	a0,sp,8
    80003328:	01710713          	addi	a4,sp,23
    8000332c:	4825                	li	a6,9
    8000332e:	a011                	j	80003332 <printhex+0x12>
    80003330:	8736                	mv	a4,a3
    80003332:	00f7f613          	andi	a2,a5,15
    80003336:	86b2                	mv	a3,a2
    80003338:	03000593          	li	a1,48
    8000333c:	00c87463          	bgeu	a6,a2,80003344 <printhex+0x24>
    80003340:	05700593          	li	a1,87
    80003344:	9ead                	addw	a3,a3,a1
    80003346:	00d70023          	sb	a3,0(a4)
    8000334a:	8391                	srli	a5,a5,0x4
    8000334c:	fff70693          	addi	a3,a4,-1
    80003350:	fee510e3          	bne	a0,a4,80003330 <printhex+0x10>
    80003354:	00010c23          	sb	zero,24(sp)
    80003358:	f6bff0ef          	jal	800032c2 <printstr>
    8000335c:	70a2                	ld	ra,40(sp)
    8000335e:	6145                	addi	sp,sp,48
    80003360:	8082                	ret

0000000080003362 <printf>:
    80003362:	711d                	addi	sp,sp,-96
    80003364:	02810313          	addi	t1,sp,40
    80003368:	f42e                	sd	a1,40(sp)
    8000336a:	f832                	sd	a2,48(sp)
    8000336c:	fc36                	sd	a3,56(sp)
    8000336e:	862a                	mv	a2,a0
    80003370:	869a                	mv	a3,t1
    80003372:	00000517          	auipc	a0,0x0
    80003376:	e6450513          	addi	a0,a0,-412 # 800031d6 <putchar>
    8000337a:	4581                	li	a1,0
    8000337c:	ec06                	sd	ra,24(sp)
    8000337e:	e0ba                	sd	a4,64(sp)
    80003380:	e4be                	sd	a5,72(sp)
    80003382:	e8c2                	sd	a6,80(sp)
    80003384:	ecc6                	sd	a7,88(sp)
    80003386:	e41a                	sd	t1,8(sp)
    80003388:	b5bff0ef          	jal	80002ee2 <vprintfmt>
    8000338c:	60e2                	ld	ra,24(sp)
    8000338e:	4501                	li	a0,0
    80003390:	6125                	addi	sp,sp,96
    80003392:	8082                	ret

0000000080003394 <sprintf>:
    80003394:	711d                	addi	sp,sp,-96
    80003396:	03010e13          	addi	t3,sp,48
    8000339a:	f022                	sd	s0,32(sp)
    8000339c:	e42a                	sd	a0,8(sp)
    8000339e:	842a                	mv	s0,a0
    800033a0:	f832                	sd	a2,48(sp)
    800033a2:	fc36                	sd	a3,56(sp)
    800033a4:	862e                	mv	a2,a1
    800033a6:	00000517          	auipc	a0,0x0
    800033aa:	e2250513          	addi	a0,a0,-478 # 800031c8 <sprintf_putch.0>
    800033ae:	002c                	addi	a1,sp,8
    800033b0:	86f2                	mv	a3,t3
    800033b2:	f406                	sd	ra,40(sp)
    800033b4:	e4be                	sd	a5,72(sp)
    800033b6:	e0ba                	sd	a4,64(sp)
    800033b8:	e8c2                	sd	a6,80(sp)
    800033ba:	ecc6                	sd	a7,88(sp)
    800033bc:	ec72                	sd	t3,24(sp)
    800033be:	b25ff0ef          	jal	80002ee2 <vprintfmt>
    800033c2:	67a2                	ld	a5,8(sp)
    800033c4:	00078023          	sb	zero,0(a5)
    800033c8:	6522                	ld	a0,8(sp)
    800033ca:	70a2                	ld	ra,40(sp)
    800033cc:	9d01                	subw	a0,a0,s0
    800033ce:	7402                	ld	s0,32(sp)
    800033d0:	6125                	addi	sp,sp,96
    800033d2:	8082                	ret

00000000800033d4 <memcpy>:
    800033d4:	00c5e7b3          	or	a5,a1,a2
    800033d8:	8fc9                	or	a5,a5,a0
    800033da:	8b9d                	andi	a5,a5,7
    800033dc:	00c506b3          	add	a3,a0,a2
    800033e0:	cf91                	beqz	a5,800033fc <memcpy+0x28>
    800033e2:	962e                	add	a2,a2,a1
    800033e4:	87aa                	mv	a5,a0
    800033e6:	02d57663          	bgeu	a0,a3,80003412 <memcpy+0x3e>
    800033ea:	0005c703          	lbu	a4,0(a1)
    800033ee:	0585                	addi	a1,a1,1
    800033f0:	0785                	addi	a5,a5,1
    800033f2:	fee78fa3          	sb	a4,-1(a5)
    800033f6:	feb61ae3          	bne	a2,a1,800033ea <memcpy+0x16>
    800033fa:	8082                	ret
    800033fc:	fed57fe3          	bgeu	a0,a3,800033fa <memcpy+0x26>
    80003400:	87aa                	mv	a5,a0
    80003402:	6198                	ld	a4,0(a1)
    80003404:	07a1                	addi	a5,a5,8
    80003406:	05a1                	addi	a1,a1,8
    80003408:	fee7bc23          	sd	a4,-8(a5)
    8000340c:	fed7ebe3          	bltu	a5,a3,80003402 <memcpy+0x2e>
    80003410:	8082                	ret
    80003412:	8082                	ret

0000000080003414 <memset>:
    80003414:	00c567b3          	or	a5,a0,a2
    80003418:	8b9d                	andi	a5,a5,7
    8000341a:	962a                	add	a2,a2,a0
    8000341c:	cf81                	beqz	a5,80003434 <memset+0x20>
    8000341e:	0ff5f713          	zext.b	a4,a1
    80003422:	87aa                	mv	a5,a0
    80003424:	02c57f63          	bgeu	a0,a2,80003462 <memset+0x4e>
    80003428:	0785                	addi	a5,a5,1
    8000342a:	fee78fa3          	sb	a4,-1(a5)
    8000342e:	fec79de3          	bne	a5,a2,80003428 <memset+0x14>
    80003432:	8082                	ret
    80003434:	010107b7          	lui	a5,0x1010
    80003438:	10178793          	addi	a5,a5,257 # 1010101 <buflen.1+0x10100c1>
    8000343c:	07c2                	slli	a5,a5,0x10
    8000343e:	10178793          	addi	a5,a5,257
    80003442:	07c2                	slli	a5,a5,0x10
    80003444:	0ff5f713          	zext.b	a4,a1
    80003448:	10178793          	addi	a5,a5,257
    8000344c:	02f70733          	mul	a4,a4,a5
    80003450:	fec571e3          	bgeu	a0,a2,80003432 <memset+0x1e>
    80003454:	87aa                	mv	a5,a0
    80003456:	07a1                	addi	a5,a5,8
    80003458:	fee7bc23          	sd	a4,-8(a5)
    8000345c:	fec7ede3          	bltu	a5,a2,80003456 <memset+0x42>
    80003460:	8082                	ret
    80003462:	8082                	ret

0000000080003464 <_init>:
    80003464:	7171                	addi	sp,sp,-176
    80003466:	00006797          	auipc	a5,0x6
    8000346a:	65278793          	addi	a5,a5,1618 # 80009ab8 <_tdata_begin>
    8000346e:	e152                	sd	s4,128(sp)
    80003470:	00006a17          	auipc	s4,0x6
    80003474:	648a0a13          	addi	s4,s4,1608 # 80009ab8 <_tdata_begin>
    80003478:	e54e                	sd	s3,136(sp)
    8000347a:	40fa09b3          	sub	s3,s4,a5
    8000347e:	ed26                	sd	s1,152(sp)
    80003480:	e94a                	sd	s2,144(sp)
    80003482:	84aa                	mv	s1,a0
    80003484:	892e                	mv	s2,a1
    80003486:	8512                	mv	a0,tp
    80003488:	85be                	mv	a1,a5
    8000348a:	864e                	mv	a2,s3
    8000348c:	f506                	sd	ra,168(sp)
    8000348e:	f122                	sd	s0,160(sp)
    80003490:	fcd6                	sd	s5,120(sp)
    80003492:	8a92                	mv	s5,tp
    80003494:	f41ff0ef          	jal	800033d4 <memcpy>
    80003498:	00006617          	auipc	a2,0x6
    8000349c:	66c60613          	addi	a2,a2,1644 # 80009b04 <_tbss_end>
    800034a0:	41460633          	sub	a2,a2,s4
    800034a4:	4581                	li	a1,0
    800034a6:	013a8533          	add	a0,s5,s3
    800034aa:	f6bff0ef          	jal	80003414 <memset>
    800034ae:	85ca                	mv	a1,s2
    800034b0:	8526                	mv	a0,s1
    800034b2:	e69ff0ef          	jal	8000331a <thread_entry>
    800034b6:	4581                	li	a1,0
    800034b8:	4501                	li	a0,0
    800034ba:	b64ff0ef          	jal	8000281e <main>
    800034be:	00006917          	auipc	s2,0x6
    800034c2:	5da90913          	addi	s2,s2,1498 # 80009a98 <counters>
    800034c6:	00093683          	ld	a3,0(s2)
    800034ca:	03f10413          	addi	s0,sp,63
    800034ce:	fc047413          	andi	s0,s0,-64
    800034d2:	84aa                	mv	s1,a0
    800034d4:	ea85                	bnez	a3,80003504 <_init+0xa0>
    800034d6:	00893683          	ld	a3,8(s2)
    800034da:	e681                	bnez	a3,800034e2 <_init+0x7e>
    800034dc:	8526                	mv	a0,s1
    800034de:	dadff0ef          	jal	8000328a <tohost_exit>
    800034e2:	89a2                	mv	s3,s0
    800034e4:	01893603          	ld	a2,24(s2)
    800034e8:	854e                	mv	a0,s3
    800034ea:	00000597          	auipc	a1,0x0
    800034ee:	7be58593          	addi	a1,a1,1982 # 80003ca8 <gen2+0x1a0>
    800034f2:	ea3ff0ef          	jal	80003394 <sprintf>
    800034f6:	99aa                	add	s3,s3,a0
    800034f8:	ff3402e3          	beq	s0,s3,800034dc <_init+0x78>
    800034fc:	8522                	mv	a0,s0
    800034fe:	dc5ff0ef          	jal	800032c2 <printstr>
    80003502:	bfe9                	j	800034dc <_init+0x78>
    80003504:	01093603          	ld	a2,16(s2)
    80003508:	00000597          	auipc	a1,0x0
    8000350c:	7a058593          	addi	a1,a1,1952 # 80003ca8 <gen2+0x1a0>
    80003510:	8522                	mv	a0,s0
    80003512:	e83ff0ef          	jal	80003394 <sprintf>
    80003516:	00893683          	ld	a3,8(s2)
    8000351a:	00a409b3          	add	s3,s0,a0
    8000351e:	dee9                	beqz	a3,800034f8 <_init+0x94>
    80003520:	b7d1                	j	800034e4 <_init+0x80>

0000000080003522 <strlen>:
    80003522:	00054783          	lbu	a5,0(a0)
    80003526:	cb89                	beqz	a5,80003538 <strlen+0x16>
    80003528:	87aa                	mv	a5,a0
    8000352a:	0017c703          	lbu	a4,1(a5)
    8000352e:	0785                	addi	a5,a5,1
    80003530:	ff6d                	bnez	a4,8000352a <strlen+0x8>
    80003532:	40a78533          	sub	a0,a5,a0
    80003536:	8082                	ret
    80003538:	4501                	li	a0,0
    8000353a:	8082                	ret

000000008000353c <strnlen>:
    8000353c:	00b506b3          	add	a3,a0,a1
    80003540:	87aa                	mv	a5,a0
    80003542:	e589                	bnez	a1,8000354c <strnlen+0x10>
    80003544:	a829                	j	8000355e <strnlen+0x22>
    80003546:	0785                	addi	a5,a5,1
    80003548:	00f68863          	beq	a3,a5,80003558 <strnlen+0x1c>
    8000354c:	0007c703          	lbu	a4,0(a5)
    80003550:	fb7d                	bnez	a4,80003546 <strnlen+0xa>
    80003552:	40a78533          	sub	a0,a5,a0
    80003556:	8082                	ret
    80003558:	40a68533          	sub	a0,a3,a0
    8000355c:	8082                	ret
    8000355e:	4501                	li	a0,0
    80003560:	8082                	ret

0000000080003562 <strcmp>:
    80003562:	00054783          	lbu	a5,0(a0)
    80003566:	0585                	addi	a1,a1,1
    80003568:	0505                	addi	a0,a0,1
    8000356a:	fff5c703          	lbu	a4,-1(a1)
    8000356e:	c799                	beqz	a5,8000357c <strcmp+0x1a>
    80003570:	fee789e3          	beq	a5,a4,80003562 <strcmp>
    80003574:	0007851b          	sext.w	a0,a5
    80003578:	9d19                	subw	a0,a0,a4
    8000357a:	8082                	ret
    8000357c:	4501                	li	a0,0
    8000357e:	bfed                	j	80003578 <strcmp+0x16>

0000000080003580 <strcpy>:
    80003580:	87aa                	mv	a5,a0
    80003582:	0005c703          	lbu	a4,0(a1)
    80003586:	0785                	addi	a5,a5,1
    80003588:	0585                	addi	a1,a1,1
    8000358a:	fee78fa3          	sb	a4,-1(a5)
    8000358e:	fb75                	bnez	a4,80003582 <strcpy+0x2>
    80003590:	8082                	ret

0000000080003592 <atol>:
    80003592:	00054703          	lbu	a4,0(a0)
    80003596:	02000693          	li	a3,32
    8000359a:	87aa                	mv	a5,a0
    8000359c:	00d71763          	bne	a4,a3,800035aa <atol+0x18>
    800035a0:	0017c703          	lbu	a4,1(a5)
    800035a4:	0785                	addi	a5,a5,1
    800035a6:	fed70de3          	beq	a4,a3,800035a0 <atol+0xe>
    800035aa:	02d00693          	li	a3,45
    800035ae:	04d70163          	beq	a4,a3,800035f0 <atol+0x5e>
    800035b2:	02b00693          	li	a3,43
    800035b6:	02d70763          	beq	a4,a3,800035e4 <atol+0x52>
    800035ba:	0007c683          	lbu	a3,0(a5)
    800035be:	4581                	li	a1,0
    800035c0:	ce8d                	beqz	a3,800035fa <atol+0x68>
    800035c2:	4501                	li	a0,0
    800035c4:	0785                	addi	a5,a5,1
    800035c6:	00251713          	slli	a4,a0,0x2
    800035ca:	fd06861b          	addiw	a2,a3,-48
    800035ce:	0007c683          	lbu	a3,0(a5)
    800035d2:	972a                	add	a4,a4,a0
    800035d4:	0706                	slli	a4,a4,0x1
    800035d6:	00e60533          	add	a0,a2,a4
    800035da:	f6ed                	bnez	a3,800035c4 <atol+0x32>
    800035dc:	c185                	beqz	a1,800035fc <atol+0x6a>
    800035de:	40a00533          	neg	a0,a0
    800035e2:	8082                	ret
    800035e4:	0017c683          	lbu	a3,1(a5)
    800035e8:	0785                	addi	a5,a5,1
    800035ea:	ca81                	beqz	a3,800035fa <atol+0x68>
    800035ec:	4581                	li	a1,0
    800035ee:	bfd1                	j	800035c2 <atol+0x30>
    800035f0:	0017c683          	lbu	a3,1(a5)
    800035f4:	4585                	li	a1,1
    800035f6:	0785                	addi	a5,a5,1
    800035f8:	f6e9                	bnez	a3,800035c2 <atol+0x30>
    800035fa:	4501                	li	a0,0
    800035fc:	8082                	ret

00000000800035fe <__errno>:
    800035fe:	83818513          	addi	a0,gp,-1992 # 80003cf0 <__errno_location>
    80003602:	8082                	ret

0000000080003604 <atoi>:
    80003604:	cd41                	beqz	a0,8000369c <atoi+0x98>
    80003606:	02000693          	li	a3,32
    8000360a:	4611                	li	a2,4
    8000360c:	00054783          	lbu	a5,0(a0)
    80003610:	ff77871b          	addiw	a4,a5,-9
    80003614:	0ff77713          	zext.b	a4,a4
    80003618:	06d78863          	beq	a5,a3,80003688 <atoi+0x84>
    8000361c:	06e67663          	bgeu	a2,a4,80003688 <atoi+0x84>
    80003620:	02b00713          	li	a4,43
    80003624:	06e78763          	beq	a5,a4,80003692 <atoi+0x8e>
    80003628:	02d00713          	li	a4,45
    8000362c:	4305                	li	t1,1
    8000362e:	06e78963          	beq	a5,a4,800036a0 <atoi+0x9c>
    80003632:	fd07879b          	addiw	a5,a5,-48
    80003636:	0ff7f693          	zext.b	a3,a5
    8000363a:	4725                	li	a4,9
    8000363c:	06d76063          	bltu	a4,a3,8000369c <atoi+0x98>
    80003640:	800005b7          	lui	a1,0x80000
    80003644:	4681                	li	a3,0
    80003646:	35fd                	addiw	a1,a1,-1 # 7fffffff <buflen.1+0x7fffffbf>
    80003648:	4829                	li	a6,10
    8000364a:	48a5                	li	a7,9
    8000364c:	a819                	j	80003662 <atoi+0x5e>
    8000364e:	00054783          	lbu	a5,0(a0)
    80003652:	0007069b          	sext.w	a3,a4
    80003656:	fd07879b          	addiw	a5,a5,-48
    8000365a:	0ff7f613          	zext.b	a2,a5
    8000365e:	02c8e763          	bltu	a7,a2,8000368c <atoi+0x88>
    80003662:	40f5863b          	subw	a2,a1,a5
    80003666:	0306463b          	divw	a2,a2,a6
    8000366a:	0026971b          	slliw	a4,a3,0x2
    8000366e:	9f35                	addw	a4,a4,a3
    80003670:	0017171b          	slliw	a4,a4,0x1
    80003674:	0505                	addi	a0,a0,1
    80003676:	9f3d                	addw	a4,a4,a5
    80003678:	fcd65be3          	bge	a2,a3,8000364e <atoi+0x4a>
    8000367c:	4785                	li	a5,1
    8000367e:	80000537          	lui	a0,0x80000
    80003682:	02f30163          	beq	t1,a5,800036a4 <atoi+0xa0>
    80003686:	8082                	ret
    80003688:	0505                	addi	a0,a0,1 # ffffffff80000001 <_tbss_end+0xfffffffeffff64fd>
    8000368a:	b749                	j	8000360c <atoi+0x8>
    8000368c:	0267053b          	mulw	a0,a4,t1
    80003690:	8082                	ret
    80003692:	4305                	li	t1,1
    80003694:	00154783          	lbu	a5,1(a0)
    80003698:	0505                	addi	a0,a0,1
    8000369a:	bf61                	j	80003632 <atoi+0x2e>
    8000369c:	4501                	li	a0,0
    8000369e:	8082                	ret
    800036a0:	537d                	li	t1,-1
    800036a2:	bfcd                	j	80003694 <atoi+0x90>
    800036a4:	fff54513          	not	a0,a0
    800036a8:	8082                	ret

00000000800036aa <strtol>:
    800036aa:	872a                	mv	a4,a0
    800036ac:	4811                	li	a6,4
    800036ae:	02000513          	li	a0,32
    800036b2:	00074683          	lbu	a3,0(a4)
    800036b6:	ff76879b          	addiw	a5,a3,-9
    800036ba:	0ff7f793          	zext.b	a5,a5
    800036be:	04a68b63          	beq	a3,a0,80003714 <strtol+0x6a>
    800036c2:	04f87963          	bgeu	a6,a5,80003714 <strtol+0x6a>
    800036c6:	02d00793          	li	a5,45
    800036ca:	08f68963          	beq	a3,a5,8000375c <strtol+0xb2>
    800036ce:	02b00793          	li	a5,43
    800036d2:	4e01                	li	t3,0
    800036d4:	08f68063          	beq	a3,a5,80003754 <strtol+0xaa>
    800036d8:	ee29                	bnez	a2,80003732 <strtol+0x88>
    800036da:	03000793          	li	a5,48
    800036de:	4629                	li	a2,10
    800036e0:	08f68363          	beq	a3,a5,80003766 <strtol+0xbc>
    800036e4:	4501                	li	a0,0
    800036e6:	48a5                	li	a7,9
    800036e8:	4365                	li	t1,25
    800036ea:	00074683          	lbu	a3,0(a4)
    800036ee:	fd06879b          	addiw	a5,a3,-48
    800036f2:	f9f6881b          	addiw	a6,a3,-97
    800036f6:	00f8f863          	bgeu	a7,a5,80003706 <strtol+0x5c>
    800036fa:	fbf6879b          	addiw	a5,a3,-65
    800036fe:	01036d63          	bltu	t1,a6,80003718 <strtol+0x6e>
    80003702:	fa96879b          	addiw	a5,a3,-87
    80003706:	00c7df63          	bge	a5,a2,80003724 <strtol+0x7a>
    8000370a:	02a60533          	mul	a0,a2,a0
    8000370e:	0705                	addi	a4,a4,1
    80003710:	953e                	add	a0,a0,a5
    80003712:	bfe1                	j	800036ea <strtol+0x40>
    80003714:	0705                	addi	a4,a4,1
    80003716:	bf71                	j	800036b2 <strtol+0x8>
    80003718:	00f36663          	bltu	t1,a5,80003724 <strtol+0x7a>
    8000371c:	fc96879b          	addiw	a5,a3,-55
    80003720:	fec7c5e3          	blt	a5,a2,8000370a <strtol+0x60>
    80003724:	c191                	beqz	a1,80003728 <strtol+0x7e>
    80003726:	e198                	sd	a4,0(a1)
    80003728:	000e0463          	beqz	t3,80003730 <strtol+0x86>
    8000372c:	40a00533          	neg	a0,a0
    80003730:	8082                	ret
    80003732:	47c1                	li	a5,16
    80003734:	faf618e3          	bne	a2,a5,800036e4 <strtol+0x3a>
    80003738:	03000793          	li	a5,48
    8000373c:	faf694e3          	bne	a3,a5,800036e4 <strtol+0x3a>
    80003740:	00174783          	lbu	a5,1(a4)
    80003744:	05800693          	li	a3,88
    80003748:	0df7f793          	andi	a5,a5,223
    8000374c:	f8d79ce3          	bne	a5,a3,800036e4 <strtol+0x3a>
    80003750:	0709                	addi	a4,a4,2
    80003752:	bf49                	j	800036e4 <strtol+0x3a>
    80003754:	00174683          	lbu	a3,1(a4)
    80003758:	0705                	addi	a4,a4,1
    8000375a:	bfbd                	j	800036d8 <strtol+0x2e>
    8000375c:	00174683          	lbu	a3,1(a4)
    80003760:	4e05                	li	t3,1
    80003762:	0705                	addi	a4,a4,1
    80003764:	bf95                	j	800036d8 <strtol+0x2e>
    80003766:	00174783          	lbu	a5,1(a4)
    8000376a:	05800693          	li	a3,88
    8000376e:	0df7f793          	andi	a5,a5,223
    80003772:	00d78563          	beq	a5,a3,8000377c <strtol+0xd2>
    80003776:	0705                	addi	a4,a4,1
    80003778:	4621                	li	a2,8
    8000377a:	b7ad                	j	800036e4 <strtol+0x3a>
    8000377c:	0709                	addi	a4,a4,2
    8000377e:	4641                	li	a2,16
    80003780:	b795                	j	800036e4 <strtol+0x3a>

0000000080003782 <my_isspace>:
    80003782:	02000793          	li	a5,32
    80003786:	00f50863          	beq	a0,a5,80003796 <my_isspace+0x14>
    8000378a:	355d                	addiw	a0,a0,-9
    8000378c:	0ff57513          	zext.b	a0,a0
    80003790:	00553513          	sltiu	a0,a0,5
    80003794:	8082                	ret
    80003796:	4505                	li	a0,1
    80003798:	8082                	ret

000000008000379a <my_isdigit>:
    8000379a:	fd05051b          	addiw	a0,a0,-48
    8000379e:	0ff57513          	zext.b	a0,a0
    800037a2:	00a53513          	sltiu	a0,a0,10
    800037a6:	8082                	ret

00000000800037a8 <strtod>:
    800037a8:	02000693          	li	a3,32
    800037ac:	4611                	li	a2,4
    800037ae:	00054783          	lbu	a5,0(a0)
    800037b2:	ff77871b          	addiw	a4,a5,-9
    800037b6:	0ff77713          	zext.b	a4,a4
    800037ba:	08d78263          	beq	a5,a3,8000383e <strtod+0x96>
    800037be:	08e67063          	bgeu	a2,a4,8000383e <strtod+0x96>
    800037c2:	02d00713          	li	a4,45
    800037c6:	06e78e63          	beq	a5,a4,80003842 <strtod+0x9a>
    800037ca:	02b00713          	li	a4,43
    800037ce:	08e78663          	beq	a5,a4,8000385a <strtod+0xb2>
    800037d2:	00000717          	auipc	a4,0x0
    800037d6:	4e673587          	fld	fa1,1254(a4) # 80003cb8 <gen2+0x1b0>
    800037da:	22b58553          	fmv.d	fa0,fa1
    800037de:	fd07871b          	addiw	a4,a5,-48
    800037e2:	0ff77613          	zext.b	a2,a4
    800037e6:	46a5                	li	a3,9
    800037e8:	f20007d3          	fmv.d.x	fa5,zero
    800037ec:	02c6e463          	bltu	a3,a2,80003814 <strtod+0x6c>
    800037f0:	00000797          	auipc	a5,0x0
    800037f4:	4d87b687          	fld	fa3,1240(a5) # 80003cc8 <gen2+0x1c0>
    800037f8:	4625                	li	a2,9
    800037fa:	00154783          	lbu	a5,1(a0)
    800037fe:	d2070753          	fcvt.d.w	fa4,a4
    80003802:	0505                	addi	a0,a0,1
    80003804:	fd07871b          	addiw	a4,a5,-48
    80003808:	0ff77693          	zext.b	a3,a4
    8000380c:	72d7f7c3          	fmadd.d	fa5,fa5,fa3,fa4
    80003810:	fed675e3          	bgeu	a2,a3,800037fa <strtod+0x52>
    80003814:	02e00713          	li	a4,46
    80003818:	0ce78363          	beq	a5,a4,800038de <strtod+0x136>
    8000381c:	00054703          	lbu	a4,0(a0)
    80003820:	0df77713          	andi	a4,a4,223
    80003824:	04500793          	li	a5,69
    80003828:	22b58753          	fmv.d	fa4,fa1
    8000382c:	04f70163          	beq	a4,a5,8000386e <strtod+0xc6>
    80003830:	12a7f553          	fmul.d	fa0,fa5,fa0
    80003834:	12e57553          	fmul.d	fa0,fa0,fa4
    80003838:	c191                	beqz	a1,8000383c <strtod+0x94>
    8000383a:	e188                	sd	a0,0(a1)
    8000383c:	8082                	ret
    8000383e:	0505                	addi	a0,a0,1
    80003840:	b7bd                	j	800037ae <strtod+0x6>
    80003842:	00154783          	lbu	a5,1(a0)
    80003846:	00000717          	auipc	a4,0x0
    8000384a:	47a73507          	fld	fa0,1146(a4) # 80003cc0 <gen2+0x1b8>
    8000384e:	0505                	addi	a0,a0,1
    80003850:	00000717          	auipc	a4,0x0
    80003854:	46873587          	fld	fa1,1128(a4) # 80003cb8 <gen2+0x1b0>
    80003858:	b759                	j	800037de <strtod+0x36>
    8000385a:	00000797          	auipc	a5,0x0
    8000385e:	45e7b587          	fld	fa1,1118(a5) # 80003cb8 <gen2+0x1b0>
    80003862:	00154783          	lbu	a5,1(a0)
    80003866:	22b58553          	fmv.d	fa0,fa1
    8000386a:	0505                	addi	a0,a0,1
    8000386c:	bf8d                	j	800037de <strtod+0x36>
    8000386e:	00154803          	lbu	a6,1(a0)
    80003872:	02d00793          	li	a5,45
    80003876:	0cf80363          	beq	a6,a5,8000393c <strtod+0x194>
    8000387a:	02b00793          	li	a5,43
    8000387e:	0ef80563          	beq	a6,a5,80003968 <strtod+0x1c0>
    80003882:	0505                	addi	a0,a0,1
    80003884:	4705                	li	a4,1
    80003886:	fd08069b          	addiw	a3,a6,-48
    8000388a:	0ff6f613          	zext.b	a2,a3
    8000388e:	47a5                	li	a5,9
    80003890:	0ec7e163          	bltu	a5,a2,80003972 <strtod+0x1ca>
    80003894:	4601                	li	a2,0
    80003896:	48a5                	li	a7,9
    80003898:	00154803          	lbu	a6,1(a0)
    8000389c:	0026179b          	slliw	a5,a2,0x2
    800038a0:	9fb1                	addw	a5,a5,a2
    800038a2:	0017979b          	slliw	a5,a5,0x1
    800038a6:	00f6863b          	addw	a2,a3,a5
    800038aa:	fd08069b          	addiw	a3,a6,-48
    800038ae:	0ff6f813          	zext.b	a6,a3
    800038b2:	0505                	addi	a0,a0,1
    800038b4:	ff08f2e3          	bgeu	a7,a6,80003898 <strtod+0xf0>
    800038b8:	02c7073b          	mulw	a4,a4,a2
    800038bc:	08075563          	bgez	a4,80003946 <strtod+0x19e>
    800038c0:	22b58753          	fmv.d	fa4,fa1
    800038c4:	0017079b          	addiw	a5,a4,1
    800038c8:	00000717          	auipc	a4,0x0
    800038cc:	40873687          	fld	fa3,1032(a4) # 80003cd0 <gen2+0x1c8>
    800038d0:	4705                	li	a4,1
    800038d2:	2785                	addiw	a5,a5,1
    800038d4:	12d77753          	fmul.d	fa4,fa4,fa3
    800038d8:	fee79de3          	bne	a5,a4,800038d2 <strtod+0x12a>
    800038dc:	bf91                	j	80003830 <strtod+0x88>
    800038de:	00154703          	lbu	a4,1(a0)
    800038e2:	46a5                	li	a3,9
    800038e4:	0505                	addi	a0,a0,1
    800038e6:	fd07079b          	addiw	a5,a4,-48
    800038ea:	0ff7f613          	zext.b	a2,a5
    800038ee:	f2c6e9e3          	bltu	a3,a2,80003820 <strtod+0x78>
    800038f2:	d2078753          	fcvt.d.w	fa4,a5
    800038f6:	4325                	li	t1,9
    800038f8:	4781                	li	a5,0
    800038fa:	00000717          	auipc	a4,0x0
    800038fe:	3d673687          	fld	fa3,982(a4) # 80003cd0 <gen2+0x1c8>
    80003902:	4685                	li	a3,1
    80003904:	00154703          	lbu	a4,1(a0)
    80003908:	02e7f7d3          	fadd.d	fa5,fa5,fa4
    8000390c:	0505                	addi	a0,a0,1
    8000390e:	fd07061b          	addiw	a2,a4,-48
    80003912:	0ff67813          	zext.b	a6,a2
    80003916:	0017889b          	addiw	a7,a5,1
    8000391a:	f10363e3          	bltu	t1,a6,80003820 <strtod+0x78>
    8000391e:	22b58753          	fmv.d	fa4,fa1
    80003922:	40f007bb          	negw	a5,a5
    80003926:	2785                	addiw	a5,a5,1
    80003928:	12d77753          	fmul.d	fa4,fa4,fa3
    8000392c:	fed79de3          	bne	a5,a3,80003926 <strtod+0x17e>
    80003930:	d2060653          	fcvt.d.w	fa2,a2
    80003934:	87c6                	mv	a5,a7
    80003936:	12e67753          	fmul.d	fa4,fa2,fa4
    8000393a:	b7e9                	j	80003904 <strtod+0x15c>
    8000393c:	00254803          	lbu	a6,2(a0)
    80003940:	577d                	li	a4,-1
    80003942:	0509                	addi	a0,a0,2
    80003944:	b789                	j	80003886 <strtod+0xde>
    80003946:	22b58753          	fmv.d	fa4,fa1
    8000394a:	fff7079b          	addiw	a5,a4,-1
    8000394e:	ee0701e3          	beqz	a4,80003830 <strtod+0x88>
    80003952:	00000717          	auipc	a4,0x0
    80003956:	37673687          	fld	fa3,886(a4) # 80003cc8 <gen2+0x1c0>
    8000395a:	577d                	li	a4,-1
    8000395c:	37fd                	addiw	a5,a5,-1
    8000395e:	12d77753          	fmul.d	fa4,fa4,fa3
    80003962:	fee79de3          	bne	a5,a4,8000395c <strtod+0x1b4>
    80003966:	b5e9                	j	80003830 <strtod+0x88>
    80003968:	00254803          	lbu	a6,2(a0)
    8000396c:	4705                	li	a4,1
    8000396e:	0509                	addi	a0,a0,2
    80003970:	bf19                	j	80003886 <strtod+0xde>
    80003972:	22b58753          	fmv.d	fa4,fa1
    80003976:	bd6d                	j	80003830 <strtod+0x88>

0000000080003978 <atof>:
    80003978:	4581                	li	a1,0
    8000397a:	b53d                	j	800037a8 <strtod>

000000008000397c <strtoll>:
    8000397c:	872a                	mv	a4,a0
    8000397e:	4811                	li	a6,4
    80003980:	02000513          	li	a0,32
    80003984:	00074683          	lbu	a3,0(a4)
    80003988:	ff76879b          	addiw	a5,a3,-9
    8000398c:	0ff7f793          	zext.b	a5,a5
    80003990:	04a68963          	beq	a3,a0,800039e2 <strtoll+0x66>
    80003994:	04f87763          	bgeu	a6,a5,800039e2 <strtoll+0x66>
    80003998:	02d00793          	li	a5,45
    8000399c:	08f68663          	beq	a3,a5,80003a28 <strtoll+0xac>
    800039a0:	02b00793          	li	a5,43
    800039a4:	4e01                	li	t3,0
    800039a6:	06f68d63          	beq	a3,a5,80003a20 <strtoll+0xa4>
    800039aa:	ca39                	beqz	a2,80003a00 <strtoll+0x84>
    800039ac:	47c1                	li	a5,16
    800039ae:	08f60263          	beq	a2,a5,80003a32 <strtoll+0xb6>
    800039b2:	4501                	li	a0,0
    800039b4:	48a5                	li	a7,9
    800039b6:	4365                	li	t1,25
    800039b8:	00074683          	lbu	a3,0(a4)
    800039bc:	fd06879b          	addiw	a5,a3,-48
    800039c0:	f9f6881b          	addiw	a6,a3,-97
    800039c4:	00f8f863          	bgeu	a7,a5,800039d4 <strtoll+0x58>
    800039c8:	fbf6879b          	addiw	a5,a3,-65
    800039cc:	01036d63          	bltu	t1,a6,800039e6 <strtoll+0x6a>
    800039d0:	fa96879b          	addiw	a5,a3,-87
    800039d4:	00c7df63          	bge	a5,a2,800039f2 <strtoll+0x76>
    800039d8:	02a60533          	mul	a0,a2,a0
    800039dc:	0705                	addi	a4,a4,1
    800039de:	953e                	add	a0,a0,a5
    800039e0:	bfe1                	j	800039b8 <strtoll+0x3c>
    800039e2:	0705                	addi	a4,a4,1
    800039e4:	b745                	j	80003984 <strtoll+0x8>
    800039e6:	00f36663          	bltu	t1,a5,800039f2 <strtoll+0x76>
    800039ea:	fc96879b          	addiw	a5,a3,-55
    800039ee:	fec7c5e3          	blt	a5,a2,800039d8 <strtoll+0x5c>
    800039f2:	c191                	beqz	a1,800039f6 <strtoll+0x7a>
    800039f4:	e198                	sd	a4,0(a1)
    800039f6:	000e0463          	beqz	t3,800039fe <strtoll+0x82>
    800039fa:	40a00533          	neg	a0,a0
    800039fe:	8082                	ret
    80003a00:	03000793          	li	a5,48
    80003a04:	4629                	li	a2,10
    80003a06:	faf696e3          	bne	a3,a5,800039b2 <strtoll+0x36>
    80003a0a:	00174783          	lbu	a5,1(a4)
    80003a0e:	05800693          	li	a3,88
    80003a12:	0df7f793          	andi	a5,a5,223
    80003a16:	02d78a63          	beq	a5,a3,80003a4a <strtoll+0xce>
    80003a1a:	0705                	addi	a4,a4,1
    80003a1c:	4621                	li	a2,8
    80003a1e:	bf51                	j	800039b2 <strtoll+0x36>
    80003a20:	00174683          	lbu	a3,1(a4)
    80003a24:	0705                	addi	a4,a4,1
    80003a26:	b751                	j	800039aa <strtoll+0x2e>
    80003a28:	00174683          	lbu	a3,1(a4)
    80003a2c:	4e05                	li	t3,1
    80003a2e:	0705                	addi	a4,a4,1
    80003a30:	bfad                	j	800039aa <strtoll+0x2e>
    80003a32:	03000793          	li	a5,48
    80003a36:	f6f69ee3          	bne	a3,a5,800039b2 <strtoll+0x36>
    80003a3a:	00174783          	lbu	a5,1(a4)
    80003a3e:	05800693          	li	a3,88
    80003a42:	0df7f793          	andi	a5,a5,223
    80003a46:	f6d796e3          	bne	a5,a3,800039b2 <strtoll+0x36>
    80003a4a:	0709                	addi	a4,a4,2
    80003a4c:	4641                	li	a2,16
    80003a4e:	b795                	j	800039b2 <strtoll+0x36>

0000000080003a50 <atoll>:
    80003a50:	872a                	mv	a4,a0
    80003a52:	02000613          	li	a2,32
    80003a56:	4591                	li	a1,4
    80003a58:	00074683          	lbu	a3,0(a4)
    80003a5c:	ff76879b          	addiw	a5,a3,-9
    80003a60:	0ff7f793          	zext.b	a5,a5
    80003a64:	04c68b63          	beq	a3,a2,80003aba <atoll+0x6a>
    80003a68:	04f5f963          	bgeu	a1,a5,80003aba <atoll+0x6a>
    80003a6c:	02d00793          	li	a5,45
    80003a70:	06f68363          	beq	a3,a5,80003ad6 <atoll+0x86>
    80003a74:	02b00793          	li	a5,43
    80003a78:	04f68363          	beq	a3,a5,80003abe <atoll+0x6e>
    80003a7c:	fd06861b          	addiw	a2,a3,-48
    80003a80:	0ff67693          	zext.b	a3,a2
    80003a84:	47a5                	li	a5,9
    80003a86:	4801                	li	a6,0
    80003a88:	06d7e263          	bltu	a5,a3,80003aec <atoll+0x9c>
    80003a8c:	4501                	li	a0,0
    80003a8e:	45a5                	li	a1,9
    80003a90:	00174683          	lbu	a3,1(a4)
    80003a94:	00251793          	slli	a5,a0,0x2
    80003a98:	97aa                	add	a5,a5,a0
    80003a9a:	0006051b          	sext.w	a0,a2
    80003a9e:	fd06861b          	addiw	a2,a3,-48
    80003aa2:	0786                	slli	a5,a5,0x1
    80003aa4:	0ff67693          	zext.b	a3,a2
    80003aa8:	0705                	addi	a4,a4,1
    80003aaa:	953e                	add	a0,a0,a5
    80003aac:	fed5f2e3          	bgeu	a1,a3,80003a90 <atoll+0x40>
    80003ab0:	02080f63          	beqz	a6,80003aee <atoll+0x9e>
    80003ab4:	40a00533          	neg	a0,a0
    80003ab8:	8082                	ret
    80003aba:	0705                	addi	a4,a4,1
    80003abc:	bf71                	j	80003a58 <atoll+0x8>
    80003abe:	00174683          	lbu	a3,1(a4)
    80003ac2:	47a5                	li	a5,9
    80003ac4:	0705                	addi	a4,a4,1
    80003ac6:	fd06861b          	addiw	a2,a3,-48
    80003aca:	0ff67693          	zext.b	a3,a2
    80003ace:	00d7ef63          	bltu	a5,a3,80003aec <atoll+0x9c>
    80003ad2:	4801                	li	a6,0
    80003ad4:	bf65                	j	80003a8c <atoll+0x3c>
    80003ad6:	00174683          	lbu	a3,1(a4)
    80003ada:	47a5                	li	a5,9
    80003adc:	0705                	addi	a4,a4,1
    80003ade:	fd06861b          	addiw	a2,a3,-48
    80003ae2:	0ff67693          	zext.b	a3,a2
    80003ae6:	4805                	li	a6,1
    80003ae8:	fad7f2e3          	bgeu	a5,a3,80003a8c <atoll+0x3c>
    80003aec:	4501                	li	a0,0
    80003aee:	8082                	ret

Disassembly of section .text.startup:

0000000080003af0 <.text.startup>:
    80003af0:	1141                	addi	sp,sp,-16
    80003af2:	00000517          	auipc	a0,0x0
    80003af6:	19e50513          	addi	a0,a0,414 # 80003c90 <gen2+0x188>
    80003afa:	e406                	sd	ra,8(sp)
    80003afc:	fc6ff0ef          	jal	800032c2 <printstr>
    80003b00:	60a2                	ld	ra,8(sp)
    80003b02:	557d                	li	a0,-1
    80003b04:	0141                	addi	sp,sp,16
    80003b06:	8082                	ret
