
mainop_O2U4_YN.riscv:     file format elf64-littleriscv


Disassembly of section .text.init:

0000000080000000 <_start>:
    80000000:	4081                	li	ra,0
    80000002:	4101                	li	sp,0
    80000004:	4181                	li	gp,0
    80000006:	4201                	li	tp,0
    80000008:	4281                	li	t0,0
    8000000a:	4301                	li	t1,0
    8000000c:	4381                	li	t2,0
    8000000e:	4401                	li	s0,0
    80000010:	4481                	li	s1,0
    80000012:	4501                	li	a0,0
    80000014:	4581                	li	a1,0
    80000016:	4601                	li	a2,0
    80000018:	4681                	li	a3,0
    8000001a:	4701                	li	a4,0
    8000001c:	4781                	li	a5,0
    8000001e:	4801                	li	a6,0
    80000020:	4881                	li	a7,0
    80000022:	4901                	li	s2,0
    80000024:	4981                	li	s3,0
    80000026:	4a01                	li	s4,0
    80000028:	4a81                	li	s5,0
    8000002a:	4b01                	li	s6,0
    8000002c:	4b81                	li	s7,0
    8000002e:	4c01                	li	s8,0
    80000030:	4c81                	li	s9,0
    80000032:	4d01                	li	s10,0
    80000034:	4d81                	li	s11,0
    80000036:	4e01                	li	t3,0
    80000038:	4e81                	li	t4,0
    8000003a:	4f01                	li	t5,0
    8000003c:	4f81                	li	t6,0
    8000003e:	62f9                	lui	t0,0x1e
    80000040:	3002a073          	csrs	mstatus,t0
    80000044:	4285                	li	t0,1
    80000046:	02fe                	slli	t0,t0,0x1f
    80000048:	0002d863          	bgez	t0,80000058 <_start+0x58>
    8000004c:	4505                	li	a0,1
    8000004e:	00001297          	auipc	t0,0x1
    80000052:	faa2a923          	sw	a0,-78(t0) # 80001000 <tohost>
    80000056:	bfdd                	j	8000004c <_start+0x4c>
    80000058:	00000297          	auipc	t0,0x0
    8000005c:	09028293          	addi	t0,t0,144 # 800000e8 <_start+0xe8>
    80000060:	30529073          	csrw	mtvec,t0
    80000064:	00301073          	fscsr	zero
    80000068:	f0000053          	fmv.w.x	ft0,zero
    8000006c:	f00000d3          	fmv.w.x	ft1,zero
    80000070:	f0000153          	fmv.w.x	ft2,zero
    80000074:	f00001d3          	fmv.w.x	ft3,zero
    80000078:	f0000253          	fmv.w.x	ft4,zero
    8000007c:	f00002d3          	fmv.w.x	ft5,zero
    80000080:	f0000353          	fmv.w.x	ft6,zero
    80000084:	f00003d3          	fmv.w.x	ft7,zero
    80000088:	f0000453          	fmv.w.x	fs0,zero
    8000008c:	f00004d3          	fmv.w.x	fs1,zero
    80000090:	f0000553          	fmv.w.x	fa0,zero
    80000094:	f00005d3          	fmv.w.x	fa1,zero
    80000098:	f0000653          	fmv.w.x	fa2,zero
    8000009c:	f00006d3          	fmv.w.x	fa3,zero
    800000a0:	f0000753          	fmv.w.x	fa4,zero
    800000a4:	f00007d3          	fmv.w.x	fa5,zero
    800000a8:	f0000853          	fmv.w.x	fa6,zero
    800000ac:	f00008d3          	fmv.w.x	fa7,zero
    800000b0:	f0000953          	fmv.w.x	fs2,zero
    800000b4:	f00009d3          	fmv.w.x	fs3,zero
    800000b8:	f0000a53          	fmv.w.x	fs4,zero
    800000bc:	f0000ad3          	fmv.w.x	fs5,zero
    800000c0:	f0000b53          	fmv.w.x	fs6,zero
    800000c4:	f0000bd3          	fmv.w.x	fs7,zero
    800000c8:	f0000c53          	fmv.w.x	fs8,zero
    800000cc:	f0000cd3          	fmv.w.x	fs9,zero
    800000d0:	f0000d53          	fmv.w.x	fs10,zero
    800000d4:	f0000dd3          	fmv.w.x	fs11,zero
    800000d8:	f0000e53          	fmv.w.x	ft8,zero
    800000dc:	f0000ed3          	fmv.w.x	ft9,zero
    800000e0:	f0000f53          	fmv.w.x	ft10,zero
    800000e4:	f0000fd3          	fmv.w.x	ft11,zero
    800000e8:	00000297          	auipc	t0,0x0
    800000ec:	03c28293          	addi	t0,t0,60 # 80000124 <trap_entry>
    800000f0:	30529073          	csrw	mtvec,t0
    800000f4:	00008197          	auipc	gp,0x8
    800000f8:	dec18193          	addi	gp,gp,-532 # 80007ee0 <__global_pointer$>
    800000fc:	0000d217          	auipc	tp,0xd
    80000100:	44320213          	addi	tp,tp,1091 # 8000d53f <_end+0x3f>
    80000104:	fc027213          	andi	tp,tp,-64
    80000108:	f1402573          	csrr	a0,mhartid
    8000010c:	4585                	li	a1,1
    8000010e:	00b57063          	bgeu	a0,a1,8000010e <_start+0x10e>
    80000112:	00150113          	addi	sp,a0,1
    80000116:	0146                	slli	sp,sp,0x11
    80000118:	9112                	add	sp,sp,tp
    8000011a:	01151613          	slli	a2,a0,0x11
    8000011e:	9232                	add	tp,tp,a2
    80000120:	5690606f          	j	80006e88 <_init>

0000000080000124 <trap_entry>:
    80000124:	716d                	addi	sp,sp,-272
    80000126:	e406                	sd	ra,8(sp)
    80000128:	e80a                	sd	sp,16(sp)
    8000012a:	ec0e                	sd	gp,24(sp)
    8000012c:	f012                	sd	tp,32(sp)
    8000012e:	f416                	sd	t0,40(sp)
    80000130:	f81a                	sd	t1,48(sp)
    80000132:	fc1e                	sd	t2,56(sp)
    80000134:	e0a2                	sd	s0,64(sp)
    80000136:	e4a6                	sd	s1,72(sp)
    80000138:	e8aa                	sd	a0,80(sp)
    8000013a:	ecae                	sd	a1,88(sp)
    8000013c:	f0b2                	sd	a2,96(sp)
    8000013e:	f4b6                	sd	a3,104(sp)
    80000140:	f8ba                	sd	a4,112(sp)
    80000142:	fcbe                	sd	a5,120(sp)
    80000144:	e142                	sd	a6,128(sp)
    80000146:	e546                	sd	a7,136(sp)
    80000148:	e94a                	sd	s2,144(sp)
    8000014a:	ed4e                	sd	s3,152(sp)
    8000014c:	f152                	sd	s4,160(sp)
    8000014e:	f556                	sd	s5,168(sp)
    80000150:	f95a                	sd	s6,176(sp)
    80000152:	fd5e                	sd	s7,184(sp)
    80000154:	e1e2                	sd	s8,192(sp)
    80000156:	e5e6                	sd	s9,200(sp)
    80000158:	e9ea                	sd	s10,208(sp)
    8000015a:	edee                	sd	s11,216(sp)
    8000015c:	f1f2                	sd	t3,224(sp)
    8000015e:	f5f6                	sd	t4,232(sp)
    80000160:	f9fa                	sd	t5,240(sp)
    80000162:	fdfe                	sd	t6,248(sp)
    80000164:	34202573          	csrr	a0,mcause
    80000168:	341025f3          	csrr	a1,mepc
    8000016c:	860a                	mv	a2,sp
    8000016e:	353060ef          	jal	80006cc0 <handle_trap>
    80000172:	34151073          	csrw	mepc,a0
    80000176:	6289                	lui	t0,0x2
    80000178:	8002829b          	addiw	t0,t0,-2048 # 1800 <buflen.1+0x17c0>
    8000017c:	3002a073          	csrs	mstatus,t0
    80000180:	60a2                	ld	ra,8(sp)
    80000182:	6142                	ld	sp,16(sp)
    80000184:	61e2                	ld	gp,24(sp)
    80000186:	7202                	ld	tp,32(sp)
    80000188:	72a2                	ld	t0,40(sp)
    8000018a:	7342                	ld	t1,48(sp)
    8000018c:	73e2                	ld	t2,56(sp)
    8000018e:	6406                	ld	s0,64(sp)
    80000190:	64a6                	ld	s1,72(sp)
    80000192:	6546                	ld	a0,80(sp)
    80000194:	65e6                	ld	a1,88(sp)
    80000196:	7606                	ld	a2,96(sp)
    80000198:	76a6                	ld	a3,104(sp)
    8000019a:	7746                	ld	a4,112(sp)
    8000019c:	77e6                	ld	a5,120(sp)
    8000019e:	680a                	ld	a6,128(sp)
    800001a0:	68aa                	ld	a7,136(sp)
    800001a2:	694a                	ld	s2,144(sp)
    800001a4:	69ea                	ld	s3,152(sp)
    800001a6:	7a0a                	ld	s4,160(sp)
    800001a8:	7aaa                	ld	s5,168(sp)
    800001aa:	7b4a                	ld	s6,176(sp)
    800001ac:	7bea                	ld	s7,184(sp)
    800001ae:	6c0e                	ld	s8,192(sp)
    800001b0:	6cae                	ld	s9,200(sp)
    800001b2:	6d4e                	ld	s10,208(sp)
    800001b4:	6dee                	ld	s11,216(sp)
    800001b6:	7e0e                	ld	t3,224(sp)
    800001b8:	7eae                	ld	t4,232(sp)
    800001ba:	7f4e                	ld	t5,240(sp)
    800001bc:	7fee                	ld	t6,248(sp)
    800001be:	6151                	addi	sp,sp,272
    800001c0:	30200073          	mret
    800001c4:	0000                	unimp

Disassembly of section .text:

0000000080002000 <d2ull>:
    80002000:	e2050553          	fmv.x.d	a0,fa0
    80002004:	8082                	ret

0000000080002006 <ull2d>:
    80002006:	f2050553          	fmv.d.x	fa0,a0
    8000200a:	8082                	ret

000000008000200c <main>:
    8000200c:	7159                	addi	sp,sp,-112
    8000200e:	f486                	sd	ra,104(sp)
    80002010:	f0a2                	sd	s0,96(sp)
    80002012:	eca6                	sd	s1,88(sp)
    80002014:	e8ca                	sd	s2,80(sp)
    80002016:	e4ce                	sd	s3,72(sp)
    80002018:	e0d2                	sd	s4,64(sp)
    8000201a:	fc56                	sd	s5,56(sp)
    8000201c:	f85a                	sd	s6,48(sp)
    8000201e:	f45e                	sd	s7,40(sp)
    80002020:	f062                	sd	s8,32(sp)
    80002022:	ec66                	sd	s9,24(sp)
    80002024:	e86a                	sd	s10,16(sp)
    80002026:	e46e                	sd	s11,8(sp)
    80002028:	4701                	li	a4,0
    8000202a:	00005517          	auipc	a0,0x5
    8000202e:	6d650513          	addi	a0,a0,1750 # 80007700 <gen2+0x1d0>
    80002032:	610c                	ld	a1,0(a0)
    80002034:	00005817          	auipc	a6,0x5
    80002038:	6dc80813          	addi	a6,a6,1756 # 80007710 <gen1>
    8000203c:	00083683          	ld	a3,0(a6)
    80002040:	00005a17          	auipc	s4,0x5
    80002044:	6e0a0a13          	addi	s4,s4,1760 # 80007720 <input>
    80002048:	00005617          	auipc	a2,0x5
    8000204c:	6c060613          	addi	a2,a2,1728 # 80007708 <gen2+0x1d8>
    80002050:	6210                	ld	a2,0(a2)
    80002052:	3b9ad7b7          	lui	a5,0x3b9ad
    80002056:	a077829b          	addiw	t0,a5,-1529 # 3b9aca07 <buflen.1+0x3b9ac9c7>
    8000205a:	40000893          	li	a7,1024
    8000205e:	02b68533          	mul	a0,a3,a1
    80002062:	02c53433          	mulhu	s0,a0,a2
    80002066:	8075                	srli	s0,s0,0x1d
    80002068:	02540433          	mul	s0,s0,t0
    8000206c:	8d01                	sub	a0,a0,s0
    8000206e:	02b50433          	mul	s0,a0,a1
    80002072:	02c434b3          	mulhu	s1,s0,a2
    80002076:	80f5                	srli	s1,s1,0x1d
    80002078:	025484b3          	mul	s1,s1,t0
    8000207c:	409404b3          	sub	s1,s0,s1
    80002080:	02b48433          	mul	s0,s1,a1
    80002084:	02c437b3          	mulhu	a5,s0,a2
    80002088:	83f5                	srli	a5,a5,0x1d
    8000208a:	025787b3          	mul	a5,a5,t0
    8000208e:	00b68333          	add	t1,a3,a1
    80002092:	40f407b3          	sub	a5,s0,a5
    80002096:	02b78433          	mul	s0,a5,a1
    8000209a:	00ea06b3          	add	a3,s4,a4
    8000209e:	0066b023          	sd	t1,0(a3)
    800020a2:	952e                	add	a0,a0,a1
    800020a4:	02c43333          	mulhu	t1,s0,a2
    800020a8:	e688                	sd	a0,8(a3)
    800020aa:	00b48533          	add	a0,s1,a1
    800020ae:	ea88                	sd	a0,16(a3)
    800020b0:	01d35513          	srli	a0,t1,0x1d
    800020b4:	02550533          	mul	a0,a0,t0
    800020b8:	97ae                	add	a5,a5,a1
    800020ba:	ee9c                	sd	a5,24(a3)
    800020bc:	02070713          	addi	a4,a4,32
    800020c0:	40a406b3          	sub	a3,s0,a0
    800020c4:	f9171de3          	bne	a4,a7,8000205e <main+0x52>
    800020c8:	4701                	li	a4,0
    800020ca:	3b9ad537          	lui	a0,0x3b9ad
    800020ce:	a075029b          	addiw	t0,a0,-1529 # 3b9aca07 <buflen.1+0x3b9ac9c7>
    800020d2:	40000893          	li	a7,1024
    800020d6:	02b68433          	mul	s0,a3,a1
    800020da:	02c43533          	mulhu	a0,s0,a2
    800020de:	8175                	srli	a0,a0,0x1d
    800020e0:	02550533          	mul	a0,a0,t0
    800020e4:	40a40533          	sub	a0,s0,a0
    800020e8:	02b50433          	mul	s0,a0,a1
    800020ec:	02c434b3          	mulhu	s1,s0,a2
    800020f0:	80f5                	srli	s1,s1,0x1d
    800020f2:	025484b3          	mul	s1,s1,t0
    800020f6:	409404b3          	sub	s1,s0,s1
    800020fa:	02b48433          	mul	s0,s1,a1
    800020fe:	02c437b3          	mulhu	a5,s0,a2
    80002102:	83f5                	srli	a5,a5,0x1d
    80002104:	025787b3          	mul	a5,a5,t0
    80002108:	00b68333          	add	t1,a3,a1
    8000210c:	40f407b3          	sub	a5,s0,a5
    80002110:	02b78433          	mul	s0,a5,a1
    80002114:	00ea06b3          	add	a3,s4,a4
    80002118:	4066b023          	sd	t1,1024(a3)
    8000211c:	952e                	add	a0,a0,a1
    8000211e:	02c43333          	mulhu	t1,s0,a2
    80002122:	40a6b423          	sd	a0,1032(a3)
    80002126:	00b48533          	add	a0,s1,a1
    8000212a:	40a6b823          	sd	a0,1040(a3)
    8000212e:	01d35513          	srli	a0,t1,0x1d
    80002132:	02550533          	mul	a0,a0,t0
    80002136:	97ae                	add	a5,a5,a1
    80002138:	40f6bc23          	sd	a5,1048(a3)
    8000213c:	02070713          	addi	a4,a4,32
    80002140:	40a406b3          	sub	a3,s0,a0
    80002144:	f91719e3          	bne	a4,a7,800020d6 <main+0xca>
    80002148:	7ffa0893          	addi	a7,s4,2047
    8000214c:	01988793          	addi	a5,a7,25
    80002150:	08000493          	li	s1,128
    80002154:	3b9ad537          	lui	a0,0x3b9ad
    80002158:	a075029b          	addiw	t0,a0,-1529 # 3b9aca07 <buflen.1+0x3b9ac9c7>
    8000215c:	02b68533          	mul	a0,a3,a1
    80002160:	02c53733          	mulhu	a4,a0,a2
    80002164:	8375                	srli	a4,a4,0x1d
    80002166:	02570733          	mul	a4,a4,t0
    8000216a:	40e50333          	sub	t1,a0,a4
    8000216e:	02b30733          	mul	a4,t1,a1
    80002172:	02c73433          	mulhu	s0,a4,a2
    80002176:	8075                	srli	s0,s0,0x1d
    80002178:	02540433          	mul	s0,s0,t0
    8000217c:	8f01                	sub	a4,a4,s0
    8000217e:	02b70433          	mul	s0,a4,a1
    80002182:	02c43533          	mulhu	a0,s0,a2
    80002186:	8175                	srli	a0,a0,0x1d
    80002188:	02550533          	mul	a0,a0,t0
    8000218c:	40a40533          	sub	a0,s0,a0
    80002190:	02b50433          	mul	s0,a0,a1
    80002194:	96ae                	add	a3,a3,a1
    80002196:	fed7b423          	sd	a3,-24(a5)
    8000219a:	02c433b3          	mulhu	t2,s0,a2
    8000219e:	00b306b3          	add	a3,t1,a1
    800021a2:	fed7b823          	sd	a3,-16(a5)
    800021a6:	00b706b3          	add	a3,a4,a1
    800021aa:	01d3d713          	srli	a4,t2,0x1d
    800021ae:	02570733          	mul	a4,a4,t0
    800021b2:	fed7bc23          	sd	a3,-8(a5)
    800021b6:	952e                	add	a0,a0,a1
    800021b8:	e388                	sd	a0,0(a5)
    800021ba:	40e406b3          	sub	a3,s0,a4
    800021be:	14f1                	addi	s1,s1,-4
    800021c0:	02078793          	addi	a5,a5,32
    800021c4:	fcc1                	bnez	s1,8000215c <main+0x150>
    800021c6:	41988713          	addi	a4,a7,1049
    800021ca:	08000793          	li	a5,128
    800021ce:	3b9ad537          	lui	a0,0x3b9ad
    800021d2:	a075089b          	addiw	a7,a0,-1529 # 3b9aca07 <buflen.1+0x3b9ac9c7>
    800021d6:	02b68533          	mul	a0,a3,a1
    800021da:	02c53433          	mulhu	s0,a0,a2
    800021de:	8075                	srli	s0,s0,0x1d
    800021e0:	03140433          	mul	s0,s0,a7
    800021e4:	408502b3          	sub	t0,a0,s0
    800021e8:	02b28433          	mul	s0,t0,a1
    800021ec:	02c434b3          	mulhu	s1,s0,a2
    800021f0:	80f5                	srli	s1,s1,0x1d
    800021f2:	031484b3          	mul	s1,s1,a7
    800021f6:	409404b3          	sub	s1,s0,s1
    800021fa:	02b48433          	mul	s0,s1,a1
    800021fe:	02c43533          	mulhu	a0,s0,a2
    80002202:	8175                	srli	a0,a0,0x1d
    80002204:	03150533          	mul	a0,a0,a7
    80002208:	40a40533          	sub	a0,s0,a0
    8000220c:	02b50433          	mul	s0,a0,a1
    80002210:	96ae                	add	a3,a3,a1
    80002212:	fed73423          	sd	a3,-24(a4)
    80002216:	02c43333          	mulhu	t1,s0,a2
    8000221a:	00b286b3          	add	a3,t0,a1
    8000221e:	fed73823          	sd	a3,-16(a4)
    80002222:	00b486b3          	add	a3,s1,a1
    80002226:	01d35493          	srli	s1,t1,0x1d
    8000222a:	031484b3          	mul	s1,s1,a7
    8000222e:	fed73c23          	sd	a3,-8(a4)
    80002232:	952e                	add	a0,a0,a1
    80002234:	e308                	sd	a0,0(a4)
    80002236:	409406b3          	sub	a3,s0,s1
    8000223a:	17f1                	addi	a5,a5,-4
    8000223c:	02070713          	addi	a4,a4,32
    80002240:	fbd9                	bnez	a5,800021d6 <main+0x1ca>
    80002242:	6505                	lui	a0,0x1
    80002244:	2561                	addiw	a0,a0,24 # 1018 <buflen.1+0xfd8>
    80002246:	00aa0733          	add	a4,s4,a0
    8000224a:	08000793          	li	a5,128
    8000224e:	3b9ad537          	lui	a0,0x3b9ad
    80002252:	a075089b          	addiw	a7,a0,-1529 # 3b9aca07 <buflen.1+0x3b9ac9c7>
    80002256:	02b68533          	mul	a0,a3,a1
    8000225a:	02c53433          	mulhu	s0,a0,a2
    8000225e:	8075                	srli	s0,s0,0x1d
    80002260:	03140433          	mul	s0,s0,a7
    80002264:	408502b3          	sub	t0,a0,s0
    80002268:	02b28433          	mul	s0,t0,a1
    8000226c:	02c434b3          	mulhu	s1,s0,a2
    80002270:	80f5                	srli	s1,s1,0x1d
    80002272:	031484b3          	mul	s1,s1,a7
    80002276:	409404b3          	sub	s1,s0,s1
    8000227a:	02b48433          	mul	s0,s1,a1
    8000227e:	02c43533          	mulhu	a0,s0,a2
    80002282:	8175                	srli	a0,a0,0x1d
    80002284:	03150533          	mul	a0,a0,a7
    80002288:	40a40533          	sub	a0,s0,a0
    8000228c:	02b50433          	mul	s0,a0,a1
    80002290:	96ae                	add	a3,a3,a1
    80002292:	fed73423          	sd	a3,-24(a4)
    80002296:	02c43333          	mulhu	t1,s0,a2
    8000229a:	00b286b3          	add	a3,t0,a1
    8000229e:	fed73823          	sd	a3,-16(a4)
    800022a2:	00b486b3          	add	a3,s1,a1
    800022a6:	01d35493          	srli	s1,t1,0x1d
    800022aa:	031484b3          	mul	s1,s1,a7
    800022ae:	fed73c23          	sd	a3,-8(a4)
    800022b2:	952e                	add	a0,a0,a1
    800022b4:	e308                	sd	a0,0(a4)
    800022b6:	409406b3          	sub	a3,s0,s1
    800022ba:	17f1                	addi	a5,a5,-4
    800022bc:	02070713          	addi	a4,a4,32
    800022c0:	fbd9                	bnez	a5,80002256 <main+0x24a>
    800022c2:	6505                	lui	a0,0x1
    800022c4:	4185051b          	addiw	a0,a0,1048 # 1418 <buflen.1+0x13d8>
    800022c8:	00aa0733          	add	a4,s4,a0
    800022cc:	08000793          	li	a5,128
    800022d0:	3b9ad537          	lui	a0,0x3b9ad
    800022d4:	a075089b          	addiw	a7,a0,-1529 # 3b9aca07 <buflen.1+0x3b9ac9c7>
    800022d8:	02b68533          	mul	a0,a3,a1
    800022dc:	02c53433          	mulhu	s0,a0,a2
    800022e0:	8075                	srli	s0,s0,0x1d
    800022e2:	03140433          	mul	s0,s0,a7
    800022e6:	408502b3          	sub	t0,a0,s0
    800022ea:	02b28433          	mul	s0,t0,a1
    800022ee:	02c434b3          	mulhu	s1,s0,a2
    800022f2:	80f5                	srli	s1,s1,0x1d
    800022f4:	031484b3          	mul	s1,s1,a7
    800022f8:	409404b3          	sub	s1,s0,s1
    800022fc:	02b48433          	mul	s0,s1,a1
    80002300:	02c43533          	mulhu	a0,s0,a2
    80002304:	8175                	srli	a0,a0,0x1d
    80002306:	03150533          	mul	a0,a0,a7
    8000230a:	40a40533          	sub	a0,s0,a0
    8000230e:	02b50433          	mul	s0,a0,a1
    80002312:	96ae                	add	a3,a3,a1
    80002314:	fed73423          	sd	a3,-24(a4)
    80002318:	02c43333          	mulhu	t1,s0,a2
    8000231c:	00b286b3          	add	a3,t0,a1
    80002320:	fed73823          	sd	a3,-16(a4)
    80002324:	00b486b3          	add	a3,s1,a1
    80002328:	01d35493          	srli	s1,t1,0x1d
    8000232c:	031484b3          	mul	s1,s1,a7
    80002330:	fed73c23          	sd	a3,-8(a4)
    80002334:	952e                	add	a0,a0,a1
    80002336:	e308                	sd	a0,0(a4)
    80002338:	409406b3          	sub	a3,s0,s1
    8000233c:	17f1                	addi	a5,a5,-4
    8000233e:	02070713          	addi	a4,a4,32
    80002342:	fbd9                	bnez	a5,800022d8 <main+0x2cc>
    80002344:	6509                	lui	a0,0x2
    80002346:	8185051b          	addiw	a0,a0,-2024 # 1818 <buflen.1+0x17d8>
    8000234a:	00aa0733          	add	a4,s4,a0
    8000234e:	08000793          	li	a5,128
    80002352:	3b9ad537          	lui	a0,0x3b9ad
    80002356:	a075089b          	addiw	a7,a0,-1529 # 3b9aca07 <buflen.1+0x3b9ac9c7>
    8000235a:	02b68533          	mul	a0,a3,a1
    8000235e:	02c53433          	mulhu	s0,a0,a2
    80002362:	8075                	srli	s0,s0,0x1d
    80002364:	03140433          	mul	s0,s0,a7
    80002368:	408502b3          	sub	t0,a0,s0
    8000236c:	02b28433          	mul	s0,t0,a1
    80002370:	02c434b3          	mulhu	s1,s0,a2
    80002374:	80f5                	srli	s1,s1,0x1d
    80002376:	031484b3          	mul	s1,s1,a7
    8000237a:	409404b3          	sub	s1,s0,s1
    8000237e:	02b48433          	mul	s0,s1,a1
    80002382:	02c43533          	mulhu	a0,s0,a2
    80002386:	8175                	srli	a0,a0,0x1d
    80002388:	03150533          	mul	a0,a0,a7
    8000238c:	40a40533          	sub	a0,s0,a0
    80002390:	02b50433          	mul	s0,a0,a1
    80002394:	96ae                	add	a3,a3,a1
    80002396:	fed73423          	sd	a3,-24(a4)
    8000239a:	02c43333          	mulhu	t1,s0,a2
    8000239e:	00b286b3          	add	a3,t0,a1
    800023a2:	fed73823          	sd	a3,-16(a4)
    800023a6:	00b486b3          	add	a3,s1,a1
    800023aa:	01d35493          	srli	s1,t1,0x1d
    800023ae:	031484b3          	mul	s1,s1,a7
    800023b2:	fed73c23          	sd	a3,-8(a4)
    800023b6:	952e                	add	a0,a0,a1
    800023b8:	e308                	sd	a0,0(a4)
    800023ba:	409406b3          	sub	a3,s0,s1
    800023be:	17f1                	addi	a5,a5,-4
    800023c0:	02070713          	addi	a4,a4,32
    800023c4:	fbd9                	bnez	a5,8000235a <main+0x34e>
    800023c6:	6509                	lui	a0,0x2
    800023c8:	c185051b          	addiw	a0,a0,-1000 # 1c18 <buflen.1+0x1bd8>
    800023cc:	00aa0733          	add	a4,s4,a0
    800023d0:	08000793          	li	a5,128
    800023d4:	3b9ad537          	lui	a0,0x3b9ad
    800023d8:	a075089b          	addiw	a7,a0,-1529 # 3b9aca07 <buflen.1+0x3b9ac9c7>
    800023dc:	02b68533          	mul	a0,a3,a1
    800023e0:	02c53433          	mulhu	s0,a0,a2
    800023e4:	8075                	srli	s0,s0,0x1d
    800023e6:	03140433          	mul	s0,s0,a7
    800023ea:	408502b3          	sub	t0,a0,s0
    800023ee:	02b28433          	mul	s0,t0,a1
    800023f2:	02c434b3          	mulhu	s1,s0,a2
    800023f6:	80f5                	srli	s1,s1,0x1d
    800023f8:	031484b3          	mul	s1,s1,a7
    800023fc:	409404b3          	sub	s1,s0,s1
    80002400:	02b48433          	mul	s0,s1,a1
    80002404:	02c43533          	mulhu	a0,s0,a2
    80002408:	8175                	srli	a0,a0,0x1d
    8000240a:	03150533          	mul	a0,a0,a7
    8000240e:	40a40533          	sub	a0,s0,a0
    80002412:	02b50433          	mul	s0,a0,a1
    80002416:	96ae                	add	a3,a3,a1
    80002418:	fed73423          	sd	a3,-24(a4)
    8000241c:	02c43333          	mulhu	t1,s0,a2
    80002420:	00b286b3          	add	a3,t0,a1
    80002424:	fed73823          	sd	a3,-16(a4)
    80002428:	00b486b3          	add	a3,s1,a1
    8000242c:	01d35493          	srli	s1,t1,0x1d
    80002430:	031484b3          	mul	s1,s1,a7
    80002434:	fed73c23          	sd	a3,-8(a4)
    80002438:	952e                	add	a0,a0,a1
    8000243a:	e308                	sd	a0,0(a4)
    8000243c:	409406b3          	sub	a3,s0,s1
    80002440:	17f1                	addi	a5,a5,-4
    80002442:	02070713          	addi	a4,a4,32
    80002446:	fbd9                	bnez	a5,800023dc <main+0x3d0>
    80002448:	6509                	lui	a0,0x2
    8000244a:	2561                	addiw	a0,a0,24 # 2018 <buflen.1+0x1fd8>
    8000244c:	00aa0733          	add	a4,s4,a0
    80002450:	08000793          	li	a5,128
    80002454:	3b9ad537          	lui	a0,0x3b9ad
    80002458:	a075089b          	addiw	a7,a0,-1529 # 3b9aca07 <buflen.1+0x3b9ac9c7>
    8000245c:	02b68533          	mul	a0,a3,a1
    80002460:	02c53433          	mulhu	s0,a0,a2
    80002464:	8075                	srli	s0,s0,0x1d
    80002466:	03140433          	mul	s0,s0,a7
    8000246a:	408502b3          	sub	t0,a0,s0
    8000246e:	02b28433          	mul	s0,t0,a1
    80002472:	02c434b3          	mulhu	s1,s0,a2
    80002476:	80f5                	srli	s1,s1,0x1d
    80002478:	031484b3          	mul	s1,s1,a7
    8000247c:	409404b3          	sub	s1,s0,s1
    80002480:	02b48433          	mul	s0,s1,a1
    80002484:	02c43533          	mulhu	a0,s0,a2
    80002488:	8175                	srli	a0,a0,0x1d
    8000248a:	03150533          	mul	a0,a0,a7
    8000248e:	40a40533          	sub	a0,s0,a0
    80002492:	02b50433          	mul	s0,a0,a1
    80002496:	96ae                	add	a3,a3,a1
    80002498:	fed73423          	sd	a3,-24(a4)
    8000249c:	02c43333          	mulhu	t1,s0,a2
    800024a0:	00b286b3          	add	a3,t0,a1
    800024a4:	fed73823          	sd	a3,-16(a4)
    800024a8:	00b486b3          	add	a3,s1,a1
    800024ac:	01d35493          	srli	s1,t1,0x1d
    800024b0:	031484b3          	mul	s1,s1,a7
    800024b4:	fed73c23          	sd	a3,-8(a4)
    800024b8:	952e                	add	a0,a0,a1
    800024ba:	e308                	sd	a0,0(a4)
    800024bc:	409406b3          	sub	a3,s0,s1
    800024c0:	17f1                	addi	a5,a5,-4
    800024c2:	02070713          	addi	a4,a4,32
    800024c6:	fbd9                	bnez	a5,8000245c <main+0x450>
    800024c8:	6509                	lui	a0,0x2
    800024ca:	4185051b          	addiw	a0,a0,1048 # 2418 <buflen.1+0x23d8>
    800024ce:	00aa0733          	add	a4,s4,a0
    800024d2:	08000793          	li	a5,128
    800024d6:	3b9ad537          	lui	a0,0x3b9ad
    800024da:	a075089b          	addiw	a7,a0,-1529 # 3b9aca07 <buflen.1+0x3b9ac9c7>
    800024de:	02b68533          	mul	a0,a3,a1
    800024e2:	02c53433          	mulhu	s0,a0,a2
    800024e6:	8075                	srli	s0,s0,0x1d
    800024e8:	03140433          	mul	s0,s0,a7
    800024ec:	408502b3          	sub	t0,a0,s0
    800024f0:	02b28433          	mul	s0,t0,a1
    800024f4:	02c434b3          	mulhu	s1,s0,a2
    800024f8:	80f5                	srli	s1,s1,0x1d
    800024fa:	031484b3          	mul	s1,s1,a7
    800024fe:	409404b3          	sub	s1,s0,s1
    80002502:	02b48433          	mul	s0,s1,a1
    80002506:	02c43533          	mulhu	a0,s0,a2
    8000250a:	8175                	srli	a0,a0,0x1d
    8000250c:	03150533          	mul	a0,a0,a7
    80002510:	40a40533          	sub	a0,s0,a0
    80002514:	02b50433          	mul	s0,a0,a1
    80002518:	96ae                	add	a3,a3,a1
    8000251a:	fed73423          	sd	a3,-24(a4)
    8000251e:	02c43333          	mulhu	t1,s0,a2
    80002522:	00b286b3          	add	a3,t0,a1
    80002526:	fed73823          	sd	a3,-16(a4)
    8000252a:	00b486b3          	add	a3,s1,a1
    8000252e:	01d35493          	srli	s1,t1,0x1d
    80002532:	031484b3          	mul	s1,s1,a7
    80002536:	fed73c23          	sd	a3,-8(a4)
    8000253a:	952e                	add	a0,a0,a1
    8000253c:	e308                	sd	a0,0(a4)
    8000253e:	409406b3          	sub	a3,s0,s1
    80002542:	17f1                	addi	a5,a5,-4
    80002544:	02070713          	addi	a4,a4,32
    80002548:	fbd9                	bnez	a5,800024de <main+0x4d2>
    8000254a:	650d                	lui	a0,0x3
    8000254c:	8185051b          	addiw	a0,a0,-2024 # 2818 <buflen.1+0x27d8>
    80002550:	00aa0733          	add	a4,s4,a0
    80002554:	08000793          	li	a5,128
    80002558:	3b9ad537          	lui	a0,0x3b9ad
    8000255c:	a075089b          	addiw	a7,a0,-1529 # 3b9aca07 <buflen.1+0x3b9ac9c7>
    80002560:	02b68533          	mul	a0,a3,a1
    80002564:	02c53433          	mulhu	s0,a0,a2
    80002568:	8075                	srli	s0,s0,0x1d
    8000256a:	03140433          	mul	s0,s0,a7
    8000256e:	408502b3          	sub	t0,a0,s0
    80002572:	02b28433          	mul	s0,t0,a1
    80002576:	02c434b3          	mulhu	s1,s0,a2
    8000257a:	80f5                	srli	s1,s1,0x1d
    8000257c:	031484b3          	mul	s1,s1,a7
    80002580:	409404b3          	sub	s1,s0,s1
    80002584:	02b48433          	mul	s0,s1,a1
    80002588:	02c43533          	mulhu	a0,s0,a2
    8000258c:	8175                	srli	a0,a0,0x1d
    8000258e:	03150533          	mul	a0,a0,a7
    80002592:	40a40533          	sub	a0,s0,a0
    80002596:	02b50433          	mul	s0,a0,a1
    8000259a:	96ae                	add	a3,a3,a1
    8000259c:	fed73423          	sd	a3,-24(a4)
    800025a0:	02c43333          	mulhu	t1,s0,a2
    800025a4:	00b286b3          	add	a3,t0,a1
    800025a8:	fed73823          	sd	a3,-16(a4)
    800025ac:	00b486b3          	add	a3,s1,a1
    800025b0:	01d35493          	srli	s1,t1,0x1d
    800025b4:	031484b3          	mul	s1,s1,a7
    800025b8:	fed73c23          	sd	a3,-8(a4)
    800025bc:	952e                	add	a0,a0,a1
    800025be:	e308                	sd	a0,0(a4)
    800025c0:	409406b3          	sub	a3,s0,s1
    800025c4:	17f1                	addi	a5,a5,-4
    800025c6:	02070713          	addi	a4,a4,32
    800025ca:	fbd9                	bnez	a5,80002560 <main+0x554>
    800025cc:	650d                	lui	a0,0x3
    800025ce:	c185051b          	addiw	a0,a0,-1000 # 2c18 <buflen.1+0x2bd8>
    800025d2:	00aa0733          	add	a4,s4,a0
    800025d6:	08000793          	li	a5,128
    800025da:	3b9ad537          	lui	a0,0x3b9ad
    800025de:	a075089b          	addiw	a7,a0,-1529 # 3b9aca07 <buflen.1+0x3b9ac9c7>
    800025e2:	02b68533          	mul	a0,a3,a1
    800025e6:	02c53433          	mulhu	s0,a0,a2
    800025ea:	8075                	srli	s0,s0,0x1d
    800025ec:	03140433          	mul	s0,s0,a7
    800025f0:	408502b3          	sub	t0,a0,s0
    800025f4:	02b28433          	mul	s0,t0,a1
    800025f8:	02c434b3          	mulhu	s1,s0,a2
    800025fc:	80f5                	srli	s1,s1,0x1d
    800025fe:	031484b3          	mul	s1,s1,a7
    80002602:	409404b3          	sub	s1,s0,s1
    80002606:	02b48433          	mul	s0,s1,a1
    8000260a:	02c43533          	mulhu	a0,s0,a2
    8000260e:	8175                	srli	a0,a0,0x1d
    80002610:	03150533          	mul	a0,a0,a7
    80002614:	40a40533          	sub	a0,s0,a0
    80002618:	02b50433          	mul	s0,a0,a1
    8000261c:	96ae                	add	a3,a3,a1
    8000261e:	fed73423          	sd	a3,-24(a4)
    80002622:	02c43333          	mulhu	t1,s0,a2
    80002626:	00b286b3          	add	a3,t0,a1
    8000262a:	fed73823          	sd	a3,-16(a4)
    8000262e:	00b486b3          	add	a3,s1,a1
    80002632:	01d35493          	srli	s1,t1,0x1d
    80002636:	031484b3          	mul	s1,s1,a7
    8000263a:	fed73c23          	sd	a3,-8(a4)
    8000263e:	952e                	add	a0,a0,a1
    80002640:	e308                	sd	a0,0(a4)
    80002642:	409406b3          	sub	a3,s0,s1
    80002646:	17f1                	addi	a5,a5,-4
    80002648:	02070713          	addi	a4,a4,32
    8000264c:	fbd9                	bnez	a5,800025e2 <main+0x5d6>
    8000264e:	00008e17          	auipc	t3,0x8
    80002652:	0d2e0e13          	addi	t3,t3,210 # 8000a720 <kernel>
    80002656:	3b9ad537          	lui	a0,0x3b9ad
    8000265a:	a075029b          	addiw	t0,a0,-1529 # 3b9aca07 <buflen.1+0x3b9ac9c7>
    8000265e:	04000893          	li	a7,64
    80002662:	02b68533          	mul	a0,a3,a1
    80002666:	02c53433          	mulhu	s0,a0,a2
    8000266a:	8075                	srli	s0,s0,0x1d
    8000266c:	02540433          	mul	s0,s0,t0
    80002670:	8d01                	sub	a0,a0,s0
    80002672:	02b50433          	mul	s0,a0,a1
    80002676:	02c43733          	mulhu	a4,s0,a2
    8000267a:	8375                	srli	a4,a4,0x1d
    8000267c:	02570733          	mul	a4,a4,t0
    80002680:	40e40733          	sub	a4,s0,a4
    80002684:	02b70433          	mul	s0,a4,a1
    80002688:	02c434b3          	mulhu	s1,s0,a2
    8000268c:	80f5                	srli	s1,s1,0x1d
    8000268e:	025484b3          	mul	s1,s1,t0
    80002692:	00b68333          	add	t1,a3,a1
    80002696:	409404b3          	sub	s1,s0,s1
    8000269a:	02b48433          	mul	s0,s1,a1
    8000269e:	00fe06b3          	add	a3,t3,a5
    800026a2:	0066b023          	sd	t1,0(a3)
    800026a6:	952e                	add	a0,a0,a1
    800026a8:	02c43333          	mulhu	t1,s0,a2
    800026ac:	e688                	sd	a0,8(a3)
    800026ae:	00b70533          	add	a0,a4,a1
    800026b2:	ea88                	sd	a0,16(a3)
    800026b4:	01d35513          	srli	a0,t1,0x1d
    800026b8:	02550533          	mul	a0,a0,t0
    800026bc:	00b48733          	add	a4,s1,a1
    800026c0:	ee98                	sd	a4,24(a3)
    800026c2:	02078793          	addi	a5,a5,32
    800026c6:	40a406b3          	sub	a3,s0,a0
    800026ca:	f9179ce3          	bne	a5,a7,80002662 <main+0x656>
    800026ce:	4b81                	li	s7,0
    800026d0:	00d83023          	sd	a3,0(a6)
    800026d4:	b0002573          	csrr	a0,mcycle
    800026d8:	e02a                	sd	a0,0(sp)
    800026da:	000e3683          	ld	a3,0(t3)
    800026de:	008e3883          	ld	a7,8(t3)
    800026e2:	010e3283          	ld	t0,16(t3)
    800026e6:	018e3303          	ld	t1,24(t3)
    800026ea:	020e3383          	ld	t2,32(t3)
    800026ee:	028e3f03          	ld	t5,40(t3)
    800026f2:	030e3f83          	ld	t6,48(t3)
    800026f6:	038e3983          	ld	s3,56(t3)
    800026fa:	00008e97          	auipc	t4,0x8
    800026fe:	066e8e93          	addi	t4,t4,102 # 8000a760 <output>
    80002702:	4c85                	li	s9,1
    80002704:	4d09                	li	s10,2
    80002706:	4d8d                	li	s11,3
    80002708:	4095                	li	ra,5
    8000270a:	4819                	li	a6,6
    8000270c:	491d                	li	s2,7
    8000270e:	6585                	lui	a1,0x1
    80002710:	2e858a9b          	addiw	s5,a1,744 # 12e8 <buflen.1+0x12a8>
    80002714:	00ab9593          	slli	a1,s7,0xa
    80002718:	00ba07b3          	add	a5,s4,a1
    8000271c:	6398                	ld	a4,0(a5)
    8000271e:	0139858b          	.insn	4, 0x0139858b
    80002722:	e1ff058b          	.insn	4, 0xe1ff058b
    80002726:	c073058b          	.insn	4, 0xc073058b
    8000272a:	a058858b          	.insn	4, 0xa058858b
    8000272e:	80d0058b          	.insn	4, 0x80d0058b
    80002732:	60e7058b          	.insn	4, 0x60e7058b
    80002736:	40e7058b          	.insn	4, 0x40e7058b
    8000273a:	20e7058b          	.insn	4, 0x20e7058b
    8000273e:	00e7047b          	.insn	4, 0x00e7047b
    80002742:	3c800e13          	li	t3,968
    80002746:	03cb8633          	mul	a2,s7,t3
    8000274a:	63ac                	ld	a1,64(a5)
    8000274c:	84dc848b          	.insn	4, 0x84dc848b
    80002750:	a458848b          	.insn	4, 0xa458848b
    80002754:	c473048b          	.insn	4, 0xc473048b
    80002758:	e5ff048b          	.insn	4, 0xe5ff048b
    8000275c:	0539848b          	.insn	4, 0x0539848b
    80002760:	64e7048b          	.insn	4, 0x64e7048b
    80002764:	44e7048b          	.insn	4, 0x44e7048b
    80002768:	24e7048b          	.insn	4, 0x24e7048b
    8000276c:	40e584fb          	.insn	4, 0x40e584fb
    80002770:	9676                	add	a2,a2,t4
    80002772:	e200                	sd	s0,0(a2)
    80002774:	88dd040b          	.insn	4, 0x88dd040b
    80002778:	a858840b          	.insn	4, 0xa858840b
    8000277c:	c873040b          	.insn	4, 0xc873040b
    80002780:	e9ff040b          	.insn	4, 0xe9ff040b
    80002784:	0939840b          	.insn	4, 0x0939840b
    80002788:	68e7040b          	.insn	4, 0x68e7040b
    8000278c:	48e7040b          	.insn	4, 0x48e7040b
    80002790:	28e7040b          	.insn	4, 0x28e7040b
    80002794:	80b5847b          	.insn	4, 0x80b5847b
    80002798:	e604                	sd	s1,8(a2)
    8000279a:	8cdd848b          	.insn	4, 0x8cdd848b
    8000279e:	ac58848b          	.insn	4, 0xac58848b
    800027a2:	cc73048b          	.insn	4, 0xcc73048b
    800027a6:	edff048b          	.insn	4, 0xedff048b
    800027aa:	0d39848b          	.insn	4, 0x0d39848b
    800027ae:	6ce7048b          	.insn	4, 0x6ce7048b
    800027b2:	4ce7048b          	.insn	4, 0x4ce7048b
    800027b6:	2ce5848b          	.insn	4, 0x2ce5848b
    800027ba:	c0b584fb          	.insn	4, 0xc0b584fb
    800027be:	ea00                	sd	s0,16(a2)
    800027c0:	4511                	li	a0,4
    800027c2:	9cd5040b          	.insn	4, 0x9cd5040b
    800027c6:	bc58840b          	.insn	4, 0xbc58840b
    800027ca:	dc73040b          	.insn	4, 0xdc73040b
    800027ce:	fdff040b          	.insn	4, 0xfdff040b
    800027d2:	1d39840b          	.insn	4, 0x1d39840b
    800027d6:	7ce7040b          	.insn	4, 0x7ce7040b
    800027da:	5ce7040b          	.insn	4, 0x5ce7040b
    800027de:	3cb5840b          	.insn	4, 0x3cb5840b
    800027e2:	c0b5847b          	.insn	4, 0xc0b5847b
    800027e6:	ee04                	sd	s1,24(a2)
    800027e8:	9cd0848b          	.insn	4, 0x9cd0848b
    800027ec:	c8e584fb          	.insn	4, 0xc8e584fb
    800027f0:	f200                	sd	s0,32(a2)
    800027f2:	9cd8040b          	.insn	4, 0x9cd8040b
    800027f6:	c8b5847b          	.insn	4, 0xc8b5847b
    800027fa:	9cd9050b          	.insn	4, 0x9cd9050b
    800027fe:	7ce5850b          	.insn	4, 0x7ce5850b
    80002802:	c8b5857b          	.insn	4, 0xc8b5857b
    80002806:	f604                	sd	s1,40(a2)
    80002808:	fa00                	sd	s0,48(a2)
    8000280a:	7cb5870b          	.insn	4, 0x7cb5870b
    8000280e:	c8b5847b          	.insn	4, 0xc8b5847b
    80002812:	63d8                	ld	a4,128(a5)
    80002814:	fe08                	sd	a0,56(a2)
    80002816:	9cdc850b          	.insn	4, 0x9cdc850b
    8000281a:	7cb5850b          	.insn	4, 0x7cb5850b
    8000281e:	5cb5850b          	.insn	4, 0x5cb5850b
    80002822:	c0b7057b          	.insn	4, 0xc0b7057b
    80002826:	e220                	sd	s0,64(a2)
    80002828:	9cdd040b          	.insn	4, 0x9cdd040b
    8000282c:	7cb5840b          	.insn	4, 0x7cb5840b
    80002830:	5cb5840b          	.insn	4, 0x5cb5840b
    80002834:	c0e7047b          	.insn	4, 0xc0e7047b
    80002838:	e628                	sd	a0,72(a2)
    8000283a:	9cdd850b          	.insn	4, 0x9cdd850b
    8000283e:	7cb5850b          	.insn	4, 0x7cb5850b
    80002842:	5cb5850b          	.insn	4, 0x5cb5850b
    80002846:	3cb7050b          	.insn	4, 0x3cb7050b
    8000284a:	c0e7057b          	.insn	4, 0xc0e7057b
    8000284e:	ea20                	sd	s0,80(a2)
    80002850:	7cb5840b          	.insn	4, 0x7cb5840b
    80002854:	5cb5840b          	.insn	4, 0x5cb5840b
    80002858:	3ce7040b          	.insn	4, 0x3ce7040b
    8000285c:	c0e7047b          	.insn	4, 0xc0e7047b
    80002860:	ee28                	sd	a0,88(a2)
    80002862:	9cd0850b          	.insn	4, 0x9cd0850b
    80002866:	7cb5850b          	.insn	4, 0x7cb5850b
    8000286a:	5cb7050b          	.insn	4, 0x5cb7050b
    8000286e:	3ce7050b          	.insn	4, 0x3ce7050b
    80002872:	c0e7057b          	.insn	4, 0xc0e7057b
    80002876:	f220                	sd	s0,96(a2)
    80002878:	9cd8040b          	.insn	4, 0x9cd8040b
    8000287c:	7cb5840b          	.insn	4, 0x7cb5840b
    80002880:	5ce7040b          	.insn	4, 0x5ce7040b
    80002884:	3ce7040b          	.insn	4, 0x3ce7040b
    80002888:	c0e7047b          	.insn	4, 0xc0e7047b
    8000288c:	9cd9048b          	.insn	4, 0x9cd9048b
    80002890:	7cb7058b          	.insn	4, 0x7cb7058b
    80002894:	5ce7058b          	.insn	4, 0x5ce7058b
    80002898:	3ce7058b          	.insn	4, 0x3ce7058b
    8000289c:	c0e704fb          	.insn	4, 0xc0e704fb
    800028a0:	f628                	sd	a0,104(a2)
    800028a2:	fa20                	sd	s0,112(a2)
    800028a4:	7ce7050b          	.insn	4, 0x7ce7050b
    800028a8:	5ce7050b          	.insn	4, 0x5ce7050b
    800028ac:	3ce7050b          	.insn	4, 0x3ce7050b
    800028b0:	c0e7057b          	.insn	4, 0xc0e7057b
    800028b4:	63ec                	ld	a1,192(a5)
    800028b6:	fe24                	sd	s1,120(a2)
    800028b8:	9cdc840b          	.insn	4, 0x9cdc840b
    800028bc:	7ce7040b          	.insn	4, 0x7ce7040b
    800028c0:	5ce7040b          	.insn	4, 0x5ce7040b
    800028c4:	3ce7040b          	.insn	4, 0x3ce7040b
    800028c8:	c0e5847b          	.insn	4, 0xc0e5847b
    800028cc:	e248                	sd	a0,128(a2)
    800028ce:	9cdd050b          	.insn	4, 0x9cdd050b
    800028d2:	7ce7050b          	.insn	4, 0x7ce7050b
    800028d6:	5ce7050b          	.insn	4, 0x5ce7050b
    800028da:	3ce7050b          	.insn	4, 0x3ce7050b
    800028de:	c0b5857b          	.insn	4, 0xc0b5857b
    800028e2:	e640                	sd	s0,136(a2)
    800028e4:	9cdd840b          	.insn	4, 0x9cdd840b
    800028e8:	7ce7040b          	.insn	4, 0x7ce7040b
    800028ec:	5ce7040b          	.insn	4, 0x5ce7040b
    800028f0:	3ce5840b          	.insn	4, 0x3ce5840b
    800028f4:	c0b5847b          	.insn	4, 0xc0b5847b
    800028f8:	ea48                	sd	a0,144(a2)
    800028fa:	7ce7050b          	.insn	4, 0x7ce7050b
    800028fe:	5ce7050b          	.insn	4, 0x5ce7050b
    80002902:	3cb5850b          	.insn	4, 0x3cb5850b
    80002906:	c0b5857b          	.insn	4, 0xc0b5857b
    8000290a:	ee40                	sd	s0,152(a2)
    8000290c:	9cd0840b          	.insn	4, 0x9cd0840b
    80002910:	7ce7040b          	.insn	4, 0x7ce7040b
    80002914:	5ce5840b          	.insn	4, 0x5ce5840b
    80002918:	3cb5840b          	.insn	4, 0x3cb5840b
    8000291c:	c0b5847b          	.insn	4, 0xc0b5847b
    80002920:	f248                	sd	a0,160(a2)
    80002922:	9cd8050b          	.insn	4, 0x9cd8050b
    80002926:	7ce7050b          	.insn	4, 0x7ce7050b
    8000292a:	5cb5850b          	.insn	4, 0x5cb5850b
    8000292e:	3cb5850b          	.insn	4, 0x3cb5850b
    80002932:	c0b5857b          	.insn	4, 0xc0b5857b
    80002936:	9cd9048b          	.insn	4, 0x9cd9048b
    8000293a:	7ce5870b          	.insn	4, 0x7ce5870b
    8000293e:	5cb5870b          	.insn	4, 0x5cb5870b
    80002942:	3cb5870b          	.insn	4, 0x3cb5870b
    80002946:	c0b5877b          	.insn	4, 0xc0b5877b
    8000294a:	f640                	sd	s0,168(a2)
    8000294c:	fa48                	sd	a0,176(a2)
    8000294e:	7cb5850b          	.insn	4, 0x7cb5850b
    80002952:	5cb5850b          	.insn	4, 0x5cb5850b
    80002956:	3cb5850b          	.insn	4, 0x3cb5850b
    8000295a:	c0b5857b          	.insn	4, 0xc0b5857b
    8000295e:	1007b403          	ld	s0,256(a5)
    80002962:	fe58                	sd	a4,184(a2)
    80002964:	9cdc870b          	.insn	4, 0x9cdc870b
    80002968:	7cb5870b          	.insn	4, 0x7cb5870b
    8000296c:	5cb5870b          	.insn	4, 0x5cb5870b
    80002970:	3cb5870b          	.insn	4, 0x3cb5870b
    80002974:	c0b4077b          	.insn	4, 0xc0b4077b
    80002978:	e268                	sd	a0,192(a2)
    8000297a:	9cdd050b          	.insn	4, 0x9cdd050b
    8000297e:	7cb5850b          	.insn	4, 0x7cb5850b
    80002982:	5cb5850b          	.insn	4, 0x5cb5850b
    80002986:	3cb5850b          	.insn	4, 0x3cb5850b
    8000298a:	c084057b          	.insn	4, 0xc084057b
    8000298e:	e678                	sd	a4,200(a2)
    80002990:	9cdd870b          	.insn	4, 0x9cdd870b
    80002994:	7cb5870b          	.insn	4, 0x7cb5870b
    80002998:	5cb5870b          	.insn	4, 0x5cb5870b
    8000299c:	3cb4070b          	.insn	4, 0x3cb4070b
    800029a0:	c084077b          	.insn	4, 0xc084077b
    800029a4:	ea68                	sd	a0,208(a2)
    800029a6:	7cb5850b          	.insn	4, 0x7cb5850b
    800029aa:	5cb5850b          	.insn	4, 0x5cb5850b
    800029ae:	3c84050b          	.insn	4, 0x3c84050b
    800029b2:	c084057b          	.insn	4, 0xc084057b
    800029b6:	ee78                	sd	a4,216(a2)
    800029b8:	9cd0870b          	.insn	4, 0x9cd0870b
    800029bc:	7cb5870b          	.insn	4, 0x7cb5870b
    800029c0:	5cb4070b          	.insn	4, 0x5cb4070b
    800029c4:	3c84070b          	.insn	4, 0x3c84070b
    800029c8:	c084077b          	.insn	4, 0xc084077b
    800029cc:	f268                	sd	a0,224(a2)
    800029ce:	9cd8050b          	.insn	4, 0x9cd8050b
    800029d2:	7cb5850b          	.insn	4, 0x7cb5850b
    800029d6:	5c84050b          	.insn	4, 0x5c84050b
    800029da:	3c84050b          	.insn	4, 0x3c84050b
    800029de:	c084057b          	.insn	4, 0xc084057b
    800029e2:	9cd9048b          	.insn	4, 0x9cd9048b
    800029e6:	7cb4058b          	.insn	4, 0x7cb4058b
    800029ea:	5c84058b          	.insn	4, 0x5c84058b
    800029ee:	3c84058b          	.insn	4, 0x3c84058b
    800029f2:	c08404fb          	.insn	4, 0xc08404fb
    800029f6:	f678                	sd	a4,232(a2)
    800029f8:	fa68                	sd	a0,240(a2)
    800029fa:	7c84050b          	.insn	4, 0x7c84050b
    800029fe:	5c84050b          	.insn	4, 0x5c84050b
    80002a02:	3c84050b          	.insn	4, 0x3c84050b
    80002a06:	c084057b          	.insn	4, 0xc084057b
    80002a0a:	1407b583          	ld	a1,320(a5)
    80002a0e:	fe64                	sd	s1,248(a2)
    80002a10:	9cdc870b          	.insn	4, 0x9cdc870b
    80002a14:	7c84070b          	.insn	4, 0x7c84070b
    80002a18:	5c84070b          	.insn	4, 0x5c84070b
    80002a1c:	3c84070b          	.insn	4, 0x3c84070b
    80002a20:	c085877b          	.insn	4, 0xc085877b
    80002a24:	10a63023          	sd	a0,256(a2)
    80002a28:	9cdd050b          	.insn	4, 0x9cdd050b
    80002a2c:	7c84050b          	.insn	4, 0x7c84050b
    80002a30:	5c84050b          	.insn	4, 0x5c84050b
    80002a34:	3c84050b          	.insn	4, 0x3c84050b
    80002a38:	c0b5857b          	.insn	4, 0xc0b5857b
    80002a3c:	10e63423          	sd	a4,264(a2)
    80002a40:	9cdd870b          	.insn	4, 0x9cdd870b
    80002a44:	7c84070b          	.insn	4, 0x7c84070b
    80002a48:	5c84070b          	.insn	4, 0x5c84070b
    80002a4c:	3c85870b          	.insn	4, 0x3c85870b
    80002a50:	c0b5877b          	.insn	4, 0xc0b5877b
    80002a54:	10a63823          	sd	a0,272(a2)
    80002a58:	7c84050b          	.insn	4, 0x7c84050b
    80002a5c:	5c84050b          	.insn	4, 0x5c84050b
    80002a60:	3cb5850b          	.insn	4, 0x3cb5850b
    80002a64:	c0b5857b          	.insn	4, 0xc0b5857b
    80002a68:	10e63c23          	sd	a4,280(a2)
    80002a6c:	9cd0870b          	.insn	4, 0x9cd0870b
    80002a70:	7c84070b          	.insn	4, 0x7c84070b
    80002a74:	5c85870b          	.insn	4, 0x5c85870b
    80002a78:	3cb5870b          	.insn	4, 0x3cb5870b
    80002a7c:	c0b5877b          	.insn	4, 0xc0b5877b
    80002a80:	12a63023          	sd	a0,288(a2)
    80002a84:	9cd8050b          	.insn	4, 0x9cd8050b
    80002a88:	7c84050b          	.insn	4, 0x7c84050b
    80002a8c:	5cb5850b          	.insn	4, 0x5cb5850b
    80002a90:	3cb5850b          	.insn	4, 0x3cb5850b
    80002a94:	c0b5857b          	.insn	4, 0xc0b5857b
    80002a98:	9cd9048b          	.insn	4, 0x9cd9048b
    80002a9c:	7c85840b          	.insn	4, 0x7c85840b
    80002aa0:	5cb5840b          	.insn	4, 0x5cb5840b
    80002aa4:	3cb5840b          	.insn	4, 0x3cb5840b
    80002aa8:	c0b584fb          	.insn	4, 0xc0b584fb
    80002aac:	12e63423          	sd	a4,296(a2)
    80002ab0:	12a63823          	sd	a0,304(a2)
    80002ab4:	7cb5850b          	.insn	4, 0x7cb5850b
    80002ab8:	5cb5850b          	.insn	4, 0x5cb5850b
    80002abc:	3cb5850b          	.insn	4, 0x3cb5850b
    80002ac0:	c0b5857b          	.insn	4, 0xc0b5857b
    80002ac4:	1807b403          	ld	s0,384(a5)
    80002ac8:	12963c23          	sd	s1,312(a2)
    80002acc:	9cdc870b          	.insn	4, 0x9cdc870b
    80002ad0:	7cb5870b          	.insn	4, 0x7cb5870b
    80002ad4:	5cb5870b          	.insn	4, 0x5cb5870b
    80002ad8:	3cb5870b          	.insn	4, 0x3cb5870b
    80002adc:	c0b4077b          	.insn	4, 0xc0b4077b
    80002ae0:	14a63023          	sd	a0,320(a2)
    80002ae4:	9cdd050b          	.insn	4, 0x9cdd050b
    80002ae8:	7cb5850b          	.insn	4, 0x7cb5850b
    80002aec:	5cb5850b          	.insn	4, 0x5cb5850b
    80002af0:	3cb5850b          	.insn	4, 0x3cb5850b
    80002af4:	c084057b          	.insn	4, 0xc084057b
    80002af8:	14e63423          	sd	a4,328(a2)
    80002afc:	9cdd870b          	.insn	4, 0x9cdd870b
    80002b00:	7cb5870b          	.insn	4, 0x7cb5870b
    80002b04:	5cb5870b          	.insn	4, 0x5cb5870b
    80002b08:	3cb4070b          	.insn	4, 0x3cb4070b
    80002b0c:	c084077b          	.insn	4, 0xc084077b
    80002b10:	14a63823          	sd	a0,336(a2)
    80002b14:	7cb5850b          	.insn	4, 0x7cb5850b
    80002b18:	5cb5850b          	.insn	4, 0x5cb5850b
    80002b1c:	3c84050b          	.insn	4, 0x3c84050b
    80002b20:	c084057b          	.insn	4, 0xc084057b
    80002b24:	14e63c23          	sd	a4,344(a2)
    80002b28:	9cd0870b          	.insn	4, 0x9cd0870b
    80002b2c:	7cb5870b          	.insn	4, 0x7cb5870b
    80002b30:	5cb4070b          	.insn	4, 0x5cb4070b
    80002b34:	3c84070b          	.insn	4, 0x3c84070b
    80002b38:	c084077b          	.insn	4, 0xc084077b
    80002b3c:	16a63023          	sd	a0,352(a2)
    80002b40:	9cd8050b          	.insn	4, 0x9cd8050b
    80002b44:	7cb5850b          	.insn	4, 0x7cb5850b
    80002b48:	5c84050b          	.insn	4, 0x5c84050b
    80002b4c:	3c84050b          	.insn	4, 0x3c84050b
    80002b50:	c084057b          	.insn	4, 0xc084057b
    80002b54:	9cd9048b          	.insn	4, 0x9cd9048b
    80002b58:	7cb4058b          	.insn	4, 0x7cb4058b
    80002b5c:	5c84058b          	.insn	4, 0x5c84058b
    80002b60:	3c84058b          	.insn	4, 0x3c84058b
    80002b64:	c08404fb          	.insn	4, 0xc08404fb
    80002b68:	16e63423          	sd	a4,360(a2)
    80002b6c:	16a63823          	sd	a0,368(a2)
    80002b70:	7c84050b          	.insn	4, 0x7c84050b
    80002b74:	5c84050b          	.insn	4, 0x5c84050b
    80002b78:	3c84050b          	.insn	4, 0x3c84050b
    80002b7c:	c084057b          	.insn	4, 0xc084057b
    80002b80:	1c07b583          	ld	a1,448(a5)
    80002b84:	16963c23          	sd	s1,376(a2)
    80002b88:	9cdc870b          	.insn	4, 0x9cdc870b
    80002b8c:	7c84070b          	.insn	4, 0x7c84070b
    80002b90:	5c84070b          	.insn	4, 0x5c84070b
    80002b94:	3c84070b          	.insn	4, 0x3c84070b
    80002b98:	c085877b          	.insn	4, 0xc085877b
    80002b9c:	18a63023          	sd	a0,384(a2)
    80002ba0:	9cdd050b          	.insn	4, 0x9cdd050b
    80002ba4:	7c84050b          	.insn	4, 0x7c84050b
    80002ba8:	5c84050b          	.insn	4, 0x5c84050b
    80002bac:	3c84050b          	.insn	4, 0x3c84050b
    80002bb0:	c0b5857b          	.insn	4, 0xc0b5857b
    80002bb4:	18e63423          	sd	a4,392(a2)
    80002bb8:	9cdd870b          	.insn	4, 0x9cdd870b
    80002bbc:	7c84070b          	.insn	4, 0x7c84070b
    80002bc0:	5c84070b          	.insn	4, 0x5c84070b
    80002bc4:	3c85870b          	.insn	4, 0x3c85870b
    80002bc8:	c0b5877b          	.insn	4, 0xc0b5877b
    80002bcc:	18a63823          	sd	a0,400(a2)
    80002bd0:	7c84050b          	.insn	4, 0x7c84050b
    80002bd4:	5c84050b          	.insn	4, 0x5c84050b
    80002bd8:	3cb5850b          	.insn	4, 0x3cb5850b
    80002bdc:	c0b5857b          	.insn	4, 0xc0b5857b
    80002be0:	18e63c23          	sd	a4,408(a2)
    80002be4:	9cd0870b          	.insn	4, 0x9cd0870b
    80002be8:	7c84070b          	.insn	4, 0x7c84070b
    80002bec:	5c85870b          	.insn	4, 0x5c85870b
    80002bf0:	3cb5870b          	.insn	4, 0x3cb5870b
    80002bf4:	c0b5877b          	.insn	4, 0xc0b5877b
    80002bf8:	1aa63023          	sd	a0,416(a2)
    80002bfc:	9cd8050b          	.insn	4, 0x9cd8050b
    80002c00:	7c84050b          	.insn	4, 0x7c84050b
    80002c04:	5cb5850b          	.insn	4, 0x5cb5850b
    80002c08:	3cb5850b          	.insn	4, 0x3cb5850b
    80002c0c:	c0b5857b          	.insn	4, 0xc0b5857b
    80002c10:	9cd9048b          	.insn	4, 0x9cd9048b
    80002c14:	7c85840b          	.insn	4, 0x7c85840b
    80002c18:	5cb5840b          	.insn	4, 0x5cb5840b
    80002c1c:	3cb5840b          	.insn	4, 0x3cb5840b
    80002c20:	c0b584fb          	.insn	4, 0xc0b584fb
    80002c24:	1ae63423          	sd	a4,424(a2)
    80002c28:	1aa63823          	sd	a0,432(a2)
    80002c2c:	7cb5850b          	.insn	4, 0x7cb5850b
    80002c30:	5cb5850b          	.insn	4, 0x5cb5850b
    80002c34:	3cb5850b          	.insn	4, 0x3cb5850b
    80002c38:	c0b5857b          	.insn	4, 0xc0b5857b
    80002c3c:	2007b403          	ld	s0,512(a5)
    80002c40:	1a963c23          	sd	s1,440(a2)
    80002c44:	9cdc870b          	.insn	4, 0x9cdc870b
    80002c48:	7cb5870b          	.insn	4, 0x7cb5870b
    80002c4c:	5cb5870b          	.insn	4, 0x5cb5870b
    80002c50:	3cb5870b          	.insn	4, 0x3cb5870b
    80002c54:	c0b4077b          	.insn	4, 0xc0b4077b
    80002c58:	1ca63023          	sd	a0,448(a2)
    80002c5c:	9cdd050b          	.insn	4, 0x9cdd050b
    80002c60:	7cb5850b          	.insn	4, 0x7cb5850b
    80002c64:	5cb5850b          	.insn	4, 0x5cb5850b
    80002c68:	3cb5850b          	.insn	4, 0x3cb5850b
    80002c6c:	c084057b          	.insn	4, 0xc084057b
    80002c70:	1ce63423          	sd	a4,456(a2)
    80002c74:	9cdd870b          	.insn	4, 0x9cdd870b
    80002c78:	7cb5870b          	.insn	4, 0x7cb5870b
    80002c7c:	5cb5870b          	.insn	4, 0x5cb5870b
    80002c80:	3cb4070b          	.insn	4, 0x3cb4070b
    80002c84:	c084077b          	.insn	4, 0xc084077b
    80002c88:	1ca63823          	sd	a0,464(a2)
    80002c8c:	7cb5850b          	.insn	4, 0x7cb5850b
    80002c90:	5cb5850b          	.insn	4, 0x5cb5850b
    80002c94:	3c84050b          	.insn	4, 0x3c84050b
    80002c98:	c084057b          	.insn	4, 0xc084057b
    80002c9c:	1ce63c23          	sd	a4,472(a2)
    80002ca0:	9cd0870b          	.insn	4, 0x9cd0870b
    80002ca4:	7cb5870b          	.insn	4, 0x7cb5870b
    80002ca8:	5cb4070b          	.insn	4, 0x5cb4070b
    80002cac:	3c84070b          	.insn	4, 0x3c84070b
    80002cb0:	c084077b          	.insn	4, 0xc084077b
    80002cb4:	1ea63023          	sd	a0,480(a2)
    80002cb8:	9cd8050b          	.insn	4, 0x9cd8050b
    80002cbc:	7cb5850b          	.insn	4, 0x7cb5850b
    80002cc0:	5c84050b          	.insn	4, 0x5c84050b
    80002cc4:	3c84050b          	.insn	4, 0x3c84050b
    80002cc8:	c084057b          	.insn	4, 0xc084057b
    80002ccc:	9cd9048b          	.insn	4, 0x9cd9048b
    80002cd0:	7cb4058b          	.insn	4, 0x7cb4058b
    80002cd4:	5c84058b          	.insn	4, 0x5c84058b
    80002cd8:	3c84058b          	.insn	4, 0x3c84058b
    80002cdc:	c08404fb          	.insn	4, 0xc08404fb
    80002ce0:	1ee63423          	sd	a4,488(a2)
    80002ce4:	1ea63823          	sd	a0,496(a2)
    80002ce8:	7c84050b          	.insn	4, 0x7c84050b
    80002cec:	5c84050b          	.insn	4, 0x5c84050b
    80002cf0:	3c84050b          	.insn	4, 0x3c84050b
    80002cf4:	c084057b          	.insn	4, 0xc084057b
    80002cf8:	2407b583          	ld	a1,576(a5)
    80002cfc:	1e963c23          	sd	s1,504(a2)
    80002d00:	9cdc870b          	.insn	4, 0x9cdc870b
    80002d04:	7c84070b          	.insn	4, 0x7c84070b
    80002d08:	5c84070b          	.insn	4, 0x5c84070b
    80002d0c:	3c84070b          	.insn	4, 0x3c84070b
    80002d10:	c085877b          	.insn	4, 0xc085877b
    80002d14:	20a63023          	sd	a0,512(a2)
    80002d18:	9cdd050b          	.insn	4, 0x9cdd050b
    80002d1c:	7c84050b          	.insn	4, 0x7c84050b
    80002d20:	5c84050b          	.insn	4, 0x5c84050b
    80002d24:	3c84050b          	.insn	4, 0x3c84050b
    80002d28:	c0b5857b          	.insn	4, 0xc0b5857b
    80002d2c:	20e63423          	sd	a4,520(a2)
    80002d30:	9cdd870b          	.insn	4, 0x9cdd870b
    80002d34:	7c84070b          	.insn	4, 0x7c84070b
    80002d38:	5c84070b          	.insn	4, 0x5c84070b
    80002d3c:	3c85870b          	.insn	4, 0x3c85870b
    80002d40:	c0b5877b          	.insn	4, 0xc0b5877b
    80002d44:	20a63823          	sd	a0,528(a2)
    80002d48:	7c84050b          	.insn	4, 0x7c84050b
    80002d4c:	5c84050b          	.insn	4, 0x5c84050b
    80002d50:	3cb5850b          	.insn	4, 0x3cb5850b
    80002d54:	c0b5857b          	.insn	4, 0xc0b5857b
    80002d58:	20e63c23          	sd	a4,536(a2)
    80002d5c:	9cd0870b          	.insn	4, 0x9cd0870b
    80002d60:	7c84070b          	.insn	4, 0x7c84070b
    80002d64:	5c85870b          	.insn	4, 0x5c85870b
    80002d68:	3cb5870b          	.insn	4, 0x3cb5870b
    80002d6c:	c0b5877b          	.insn	4, 0xc0b5877b
    80002d70:	22a63023          	sd	a0,544(a2)
    80002d74:	9cd8050b          	.insn	4, 0x9cd8050b
    80002d78:	7c84050b          	.insn	4, 0x7c84050b
    80002d7c:	5cb5850b          	.insn	4, 0x5cb5850b
    80002d80:	3cb5850b          	.insn	4, 0x3cb5850b
    80002d84:	c0b5857b          	.insn	4, 0xc0b5857b
    80002d88:	9cd9048b          	.insn	4, 0x9cd9048b
    80002d8c:	7c85840b          	.insn	4, 0x7c85840b
    80002d90:	5cb5840b          	.insn	4, 0x5cb5840b
    80002d94:	3cb5840b          	.insn	4, 0x3cb5840b
    80002d98:	c0b584fb          	.insn	4, 0xc0b584fb
    80002d9c:	22e63423          	sd	a4,552(a2)
    80002da0:	22a63823          	sd	a0,560(a2)
    80002da4:	7cb5850b          	.insn	4, 0x7cb5850b
    80002da8:	5cb5850b          	.insn	4, 0x5cb5850b
    80002dac:	3cb5850b          	.insn	4, 0x3cb5850b
    80002db0:	c0b5857b          	.insn	4, 0xc0b5857b
    80002db4:	2807b403          	ld	s0,640(a5)
    80002db8:	22963c23          	sd	s1,568(a2)
    80002dbc:	9cdc870b          	.insn	4, 0x9cdc870b
    80002dc0:	7cb5870b          	.insn	4, 0x7cb5870b
    80002dc4:	5cb5870b          	.insn	4, 0x5cb5870b
    80002dc8:	3cb5870b          	.insn	4, 0x3cb5870b
    80002dcc:	c0b4077b          	.insn	4, 0xc0b4077b
    80002dd0:	24a63023          	sd	a0,576(a2)
    80002dd4:	9cdd050b          	.insn	4, 0x9cdd050b
    80002dd8:	7cb5850b          	.insn	4, 0x7cb5850b
    80002ddc:	5cb5850b          	.insn	4, 0x5cb5850b
    80002de0:	3cb5850b          	.insn	4, 0x3cb5850b
    80002de4:	c084057b          	.insn	4, 0xc084057b
    80002de8:	24e63423          	sd	a4,584(a2)
    80002dec:	9cdd870b          	.insn	4, 0x9cdd870b
    80002df0:	7cb5870b          	.insn	4, 0x7cb5870b
    80002df4:	5cb5870b          	.insn	4, 0x5cb5870b
    80002df8:	3cb4070b          	.insn	4, 0x3cb4070b
    80002dfc:	c084077b          	.insn	4, 0xc084077b
    80002e00:	24a63823          	sd	a0,592(a2)
    80002e04:	7cb5850b          	.insn	4, 0x7cb5850b
    80002e08:	5cb5850b          	.insn	4, 0x5cb5850b
    80002e0c:	3c84050b          	.insn	4, 0x3c84050b
    80002e10:	c084057b          	.insn	4, 0xc084057b
    80002e14:	24e63c23          	sd	a4,600(a2)
    80002e18:	9cd0870b          	.insn	4, 0x9cd0870b
    80002e1c:	7cb5870b          	.insn	4, 0x7cb5870b
    80002e20:	5cb4070b          	.insn	4, 0x5cb4070b
    80002e24:	3c84070b          	.insn	4, 0x3c84070b
    80002e28:	c084077b          	.insn	4, 0xc084077b
    80002e2c:	26a63023          	sd	a0,608(a2)
    80002e30:	9cd8050b          	.insn	4, 0x9cd8050b
    80002e34:	7cb5850b          	.insn	4, 0x7cb5850b
    80002e38:	5c84050b          	.insn	4, 0x5c84050b
    80002e3c:	3c84050b          	.insn	4, 0x3c84050b
    80002e40:	c084057b          	.insn	4, 0xc084057b
    80002e44:	9cd9048b          	.insn	4, 0x9cd9048b
    80002e48:	7cb4058b          	.insn	4, 0x7cb4058b
    80002e4c:	5c84058b          	.insn	4, 0x5c84058b
    80002e50:	3c84058b          	.insn	4, 0x3c84058b
    80002e54:	c08404fb          	.insn	4, 0xc08404fb
    80002e58:	26e63423          	sd	a4,616(a2)
    80002e5c:	26a63823          	sd	a0,624(a2)
    80002e60:	7c84050b          	.insn	4, 0x7c84050b
    80002e64:	5c84050b          	.insn	4, 0x5c84050b
    80002e68:	3c84050b          	.insn	4, 0x3c84050b
    80002e6c:	c084057b          	.insn	4, 0xc084057b
    80002e70:	2c07b583          	ld	a1,704(a5)
    80002e74:	26963c23          	sd	s1,632(a2)
    80002e78:	9cdc870b          	.insn	4, 0x9cdc870b
    80002e7c:	7c84070b          	.insn	4, 0x7c84070b
    80002e80:	5c84070b          	.insn	4, 0x5c84070b
    80002e84:	3c84070b          	.insn	4, 0x3c84070b
    80002e88:	c085877b          	.insn	4, 0xc085877b
    80002e8c:	28a63023          	sd	a0,640(a2)
    80002e90:	9cdd050b          	.insn	4, 0x9cdd050b
    80002e94:	7c84050b          	.insn	4, 0x7c84050b
    80002e98:	5c84050b          	.insn	4, 0x5c84050b
    80002e9c:	3c84050b          	.insn	4, 0x3c84050b
    80002ea0:	c0b5857b          	.insn	4, 0xc0b5857b
    80002ea4:	28e63423          	sd	a4,648(a2)
    80002ea8:	9cdd870b          	.insn	4, 0x9cdd870b
    80002eac:	7c84070b          	.insn	4, 0x7c84070b
    80002eb0:	5c84070b          	.insn	4, 0x5c84070b
    80002eb4:	3c85870b          	.insn	4, 0x3c85870b
    80002eb8:	c0b5877b          	.insn	4, 0xc0b5877b
    80002ebc:	28a63823          	sd	a0,656(a2)
    80002ec0:	7c84050b          	.insn	4, 0x7c84050b
    80002ec4:	5c84050b          	.insn	4, 0x5c84050b
    80002ec8:	3cb5850b          	.insn	4, 0x3cb5850b
    80002ecc:	c0b5857b          	.insn	4, 0xc0b5857b
    80002ed0:	28e63c23          	sd	a4,664(a2)
    80002ed4:	9cd0870b          	.insn	4, 0x9cd0870b
    80002ed8:	7c84070b          	.insn	4, 0x7c84070b
    80002edc:	5c85870b          	.insn	4, 0x5c85870b
    80002ee0:	3cb5870b          	.insn	4, 0x3cb5870b
    80002ee4:	c0b5877b          	.insn	4, 0xc0b5877b
    80002ee8:	2aa63023          	sd	a0,672(a2)
    80002eec:	9cd8050b          	.insn	4, 0x9cd8050b
    80002ef0:	7c84050b          	.insn	4, 0x7c84050b
    80002ef4:	5cb5850b          	.insn	4, 0x5cb5850b
    80002ef8:	3cb5850b          	.insn	4, 0x3cb5850b
    80002efc:	c0b5857b          	.insn	4, 0xc0b5857b
    80002f00:	9cd9048b          	.insn	4, 0x9cd9048b
    80002f04:	7c85840b          	.insn	4, 0x7c85840b
    80002f08:	5cb5840b          	.insn	4, 0x5cb5840b
    80002f0c:	3cb5840b          	.insn	4, 0x3cb5840b
    80002f10:	c0b584fb          	.insn	4, 0xc0b584fb
    80002f14:	2ae63423          	sd	a4,680(a2)
    80002f18:	2aa63823          	sd	a0,688(a2)
    80002f1c:	7cb5850b          	.insn	4, 0x7cb5850b
    80002f20:	5cb5850b          	.insn	4, 0x5cb5850b
    80002f24:	3cb5850b          	.insn	4, 0x3cb5850b
    80002f28:	c0b5857b          	.insn	4, 0xc0b5857b
    80002f2c:	3007b403          	ld	s0,768(a5)
    80002f30:	2a963c23          	sd	s1,696(a2)
    80002f34:	9cdc870b          	.insn	4, 0x9cdc870b
    80002f38:	7cb5870b          	.insn	4, 0x7cb5870b
    80002f3c:	5cb5870b          	.insn	4, 0x5cb5870b
    80002f40:	3cb5870b          	.insn	4, 0x3cb5870b
    80002f44:	c0b4077b          	.insn	4, 0xc0b4077b
    80002f48:	2ca63023          	sd	a0,704(a2)
    80002f4c:	9cdd050b          	.insn	4, 0x9cdd050b
    80002f50:	7cb5850b          	.insn	4, 0x7cb5850b
    80002f54:	5cb5850b          	.insn	4, 0x5cb5850b
    80002f58:	3cb5850b          	.insn	4, 0x3cb5850b
    80002f5c:	c084057b          	.insn	4, 0xc084057b
    80002f60:	2ce63423          	sd	a4,712(a2)
    80002f64:	9cdd870b          	.insn	4, 0x9cdd870b
    80002f68:	7cb5870b          	.insn	4, 0x7cb5870b
    80002f6c:	5cb5870b          	.insn	4, 0x5cb5870b
    80002f70:	3cb4070b          	.insn	4, 0x3cb4070b
    80002f74:	c084077b          	.insn	4, 0xc084077b
    80002f78:	2ca63823          	sd	a0,720(a2)
    80002f7c:	7cb5850b          	.insn	4, 0x7cb5850b
    80002f80:	5cb5850b          	.insn	4, 0x5cb5850b
    80002f84:	3c84050b          	.insn	4, 0x3c84050b
    80002f88:	c084057b          	.insn	4, 0xc084057b
    80002f8c:	2ce63c23          	sd	a4,728(a2)
    80002f90:	9cd0870b          	.insn	4, 0x9cd0870b
    80002f94:	7cb5870b          	.insn	4, 0x7cb5870b
    80002f98:	5cb4070b          	.insn	4, 0x5cb4070b
    80002f9c:	3c84070b          	.insn	4, 0x3c84070b
    80002fa0:	c084077b          	.insn	4, 0xc084077b
    80002fa4:	2ea63023          	sd	a0,736(a2)
    80002fa8:	9cd8050b          	.insn	4, 0x9cd8050b
    80002fac:	7cb5850b          	.insn	4, 0x7cb5850b
    80002fb0:	5c84050b          	.insn	4, 0x5c84050b
    80002fb4:	3c84050b          	.insn	4, 0x3c84050b
    80002fb8:	c084057b          	.insn	4, 0xc084057b
    80002fbc:	9cd9048b          	.insn	4, 0x9cd9048b
    80002fc0:	7cb4058b          	.insn	4, 0x7cb4058b
    80002fc4:	5c84058b          	.insn	4, 0x5c84058b
    80002fc8:	3c84058b          	.insn	4, 0x3c84058b
    80002fcc:	c08404fb          	.insn	4, 0xc08404fb
    80002fd0:	2ee63423          	sd	a4,744(a2)
    80002fd4:	2ea63823          	sd	a0,752(a2)
    80002fd8:	7c84050b          	.insn	4, 0x7c84050b
    80002fdc:	5c84050b          	.insn	4, 0x5c84050b
    80002fe0:	3c84050b          	.insn	4, 0x3c84050b
    80002fe4:	c084057b          	.insn	4, 0xc084057b
    80002fe8:	3407b583          	ld	a1,832(a5)
    80002fec:	2e963c23          	sd	s1,760(a2)
    80002ff0:	9cdc870b          	.insn	4, 0x9cdc870b
    80002ff4:	7c84070b          	.insn	4, 0x7c84070b
    80002ff8:	5c84070b          	.insn	4, 0x5c84070b
    80002ffc:	3c84070b          	.insn	4, 0x3c84070b
    80003000:	c085877b          	.insn	4, 0xc085877b
    80003004:	30a63023          	sd	a0,768(a2)
    80003008:	9cdd050b          	.insn	4, 0x9cdd050b
    8000300c:	7c84050b          	.insn	4, 0x7c84050b
    80003010:	5c84050b          	.insn	4, 0x5c84050b
    80003014:	3c84050b          	.insn	4, 0x3c84050b
    80003018:	c0b5857b          	.insn	4, 0xc0b5857b
    8000301c:	30e63423          	sd	a4,776(a2)
    80003020:	9cdd870b          	.insn	4, 0x9cdd870b
    80003024:	7c84070b          	.insn	4, 0x7c84070b
    80003028:	5c84070b          	.insn	4, 0x5c84070b
    8000302c:	3c85870b          	.insn	4, 0x3c85870b
    80003030:	c0b5877b          	.insn	4, 0xc0b5877b
    80003034:	30a63823          	sd	a0,784(a2)
    80003038:	7c84050b          	.insn	4, 0x7c84050b
    8000303c:	5c84050b          	.insn	4, 0x5c84050b
    80003040:	3cb5850b          	.insn	4, 0x3cb5850b
    80003044:	c0b5857b          	.insn	4, 0xc0b5857b
    80003048:	30e63c23          	sd	a4,792(a2)
    8000304c:	9cd0870b          	.insn	4, 0x9cd0870b
    80003050:	7c84070b          	.insn	4, 0x7c84070b
    80003054:	5c85870b          	.insn	4, 0x5c85870b
    80003058:	3cb5870b          	.insn	4, 0x3cb5870b
    8000305c:	c0b5877b          	.insn	4, 0xc0b5877b
    80003060:	32a63023          	sd	a0,800(a2)
    80003064:	9cd8050b          	.insn	4, 0x9cd8050b
    80003068:	7c84050b          	.insn	4, 0x7c84050b
    8000306c:	5cb5850b          	.insn	4, 0x5cb5850b
    80003070:	3cb5850b          	.insn	4, 0x3cb5850b
    80003074:	c0b5857b          	.insn	4, 0xc0b5857b
    80003078:	9cd9048b          	.insn	4, 0x9cd9048b
    8000307c:	7c85840b          	.insn	4, 0x7c85840b
    80003080:	5cb5840b          	.insn	4, 0x5cb5840b
    80003084:	3cb5840b          	.insn	4, 0x3cb5840b
    80003088:	c0b584fb          	.insn	4, 0xc0b584fb
    8000308c:	32e63423          	sd	a4,808(a2)
    80003090:	32a63823          	sd	a0,816(a2)
    80003094:	7cb5850b          	.insn	4, 0x7cb5850b
    80003098:	5cb5850b          	.insn	4, 0x5cb5850b
    8000309c:	3cb5850b          	.insn	4, 0x3cb5850b
    800030a0:	c0b5857b          	.insn	4, 0xc0b5857b
    800030a4:	3807b403          	ld	s0,896(a5)
    800030a8:	32963c23          	sd	s1,824(a2)
    800030ac:	9cdc870b          	.insn	4, 0x9cdc870b
    800030b0:	7cb5870b          	.insn	4, 0x7cb5870b
    800030b4:	5cb5870b          	.insn	4, 0x5cb5870b
    800030b8:	3cb5870b          	.insn	4, 0x3cb5870b
    800030bc:	c0b4077b          	.insn	4, 0xc0b4077b
    800030c0:	34a63023          	sd	a0,832(a2)
    800030c4:	9cdd050b          	.insn	4, 0x9cdd050b
    800030c8:	7cb5850b          	.insn	4, 0x7cb5850b
    800030cc:	5cb5850b          	.insn	4, 0x5cb5850b
    800030d0:	3cb5850b          	.insn	4, 0x3cb5850b
    800030d4:	c084057b          	.insn	4, 0xc084057b
    800030d8:	34e63423          	sd	a4,840(a2)
    800030dc:	9cdd870b          	.insn	4, 0x9cdd870b
    800030e0:	7cb5870b          	.insn	4, 0x7cb5870b
    800030e4:	5cb5870b          	.insn	4, 0x5cb5870b
    800030e8:	3cb4070b          	.insn	4, 0x3cb4070b
    800030ec:	c084077b          	.insn	4, 0xc084077b
    800030f0:	34a63823          	sd	a0,848(a2)
    800030f4:	7cb5850b          	.insn	4, 0x7cb5850b
    800030f8:	5cb5850b          	.insn	4, 0x5cb5850b
    800030fc:	3c84050b          	.insn	4, 0x3c84050b
    80003100:	c084057b          	.insn	4, 0xc084057b
    80003104:	34e63c23          	sd	a4,856(a2)
    80003108:	9cd0870b          	.insn	4, 0x9cd0870b
    8000310c:	7cb5870b          	.insn	4, 0x7cb5870b
    80003110:	5cb4070b          	.insn	4, 0x5cb4070b
    80003114:	3c84070b          	.insn	4, 0x3c84070b
    80003118:	c084077b          	.insn	4, 0xc084077b
    8000311c:	36a63023          	sd	a0,864(a2)
    80003120:	9cd8050b          	.insn	4, 0x9cd8050b
    80003124:	7cb5850b          	.insn	4, 0x7cb5850b
    80003128:	5c84050b          	.insn	4, 0x5c84050b
    8000312c:	3c84050b          	.insn	4, 0x3c84050b
    80003130:	c084057b          	.insn	4, 0xc084057b
    80003134:	9cd9048b          	.insn	4, 0x9cd9048b
    80003138:	7cb4058b          	.insn	4, 0x7cb4058b
    8000313c:	5c84058b          	.insn	4, 0x5c84058b
    80003140:	3c84058b          	.insn	4, 0x3c84058b
    80003144:	c08405fb          	.insn	4, 0xc08405fb
    80003148:	36e63423          	sd	a4,872(a2)
    8000314c:	36a63823          	sd	a0,880(a2)
    80003150:	7c84050b          	.insn	4, 0x7c84050b
    80003154:	5c84050b          	.insn	4, 0x5c84050b
    80003158:	3c84050b          	.insn	4, 0x3c84050b
    8000315c:	c084057b          	.insn	4, 0xc084057b
    80003160:	3c07b703          	ld	a4,960(a5)
    80003164:	36b63c23          	sd	a1,888(a2)
    80003168:	9cdc858b          	.insn	4, 0x9cdc858b
    8000316c:	7c84058b          	.insn	4, 0x7c84058b
    80003170:	5c84058b          	.insn	4, 0x5c84058b
    80003174:	3c84058b          	.insn	4, 0x3c84058b
    80003178:	c08705fb          	.insn	4, 0xc08705fb
    8000317c:	38a63023          	sd	a0,896(a2)
    80003180:	9cdd050b          	.insn	4, 0x9cdd050b
    80003184:	7c84050b          	.insn	4, 0x7c84050b
    80003188:	5c84050b          	.insn	4, 0x5c84050b
    8000318c:	3c84050b          	.insn	4, 0x3c84050b
    80003190:	c0e7057b          	.insn	4, 0xc0e7057b
    80003194:	38b63423          	sd	a1,904(a2)
    80003198:	9cdd858b          	.insn	4, 0x9cdd858b
    8000319c:	7c84058b          	.insn	4, 0x7c84058b
    800031a0:	5c84058b          	.insn	4, 0x5c84058b
    800031a4:	3c87058b          	.insn	4, 0x3c87058b
    800031a8:	c0e705fb          	.insn	4, 0xc0e705fb
    800031ac:	38a63823          	sd	a0,912(a2)
    800031b0:	7c84050b          	.insn	4, 0x7c84050b
    800031b4:	5c84050b          	.insn	4, 0x5c84050b
    800031b8:	3ce7050b          	.insn	4, 0x3ce7050b
    800031bc:	c0e7057b          	.insn	4, 0xc0e7057b
    800031c0:	38b63c23          	sd	a1,920(a2)
    800031c4:	9cd0858b          	.insn	4, 0x9cd0858b
    800031c8:	7c84058b          	.insn	4, 0x7c84058b
    800031cc:	5c87058b          	.insn	4, 0x5c87058b
    800031d0:	3ce7058b          	.insn	4, 0x3ce7058b
    800031d4:	c0e705fb          	.insn	4, 0xc0e705fb
    800031d8:	3aa63023          	sd	a0,928(a2)
    800031dc:	9cd8050b          	.insn	4, 0x9cd8050b
    800031e0:	7c84050b          	.insn	4, 0x7c84050b
    800031e4:	5ce7050b          	.insn	4, 0x5ce7050b
    800031e8:	3ce7050b          	.insn	4, 0x3ce7050b
    800031ec:	c0e7057b          	.insn	4, 0xc0e7057b
    800031f0:	9cd9078b          	.insn	4, 0x9cd9078b
    800031f4:	7c87078b          	.insn	4, 0x7c87078b
    800031f8:	5ce7078b          	.insn	4, 0x5ce7078b
    800031fc:	3ce7078b          	.insn	4, 0x3ce7078b
    80003200:	c0e707fb          	.insn	4, 0xc0e707fb
    80003204:	3ab63423          	sd	a1,936(a2)
    80003208:	3aa63823          	sd	a0,944(a2)
    8000320c:	3af63c23          	sd	a5,952(a2)
    80003210:	7ce7050b          	.insn	4, 0x7ce7050b
    80003214:	5ce7050b          	.insn	4, 0x5ce7050b
    80003218:	3ce7050b          	.insn	4, 0x3ce7050b
    8000321c:	c0e7057b          	.insn	4, 0xc0e7057b
    80003220:	001be713          	ori	a4,s7,1
    80003224:	00a71593          	slli	a1,a4,0xa
    80003228:	00ba0c33          	add	s8,s4,a1
    8000322c:	000c3483          	ld	s1,0(s8)
    80003230:	7c94878b          	.insn	4, 0x7c94878b
    80003234:	5c94878b          	.insn	4, 0x5c94878b
    80003238:	3c94878b          	.insn	4, 0x3c94878b
    8000323c:	c09485fb          	.insn	4, 0xc09485fb
    80003240:	3ca63023          	sd	a0,960(a2)
    80003244:	03c70533          	mul	a0,a4,t3
    80003248:	040c3403          	ld	s0,64(s8)
    8000324c:	9cdc870b          	.insn	4, 0x9cdc870b
    80003250:	7c94870b          	.insn	4, 0x7c94870b
    80003254:	5c94870b          	.insn	4, 0x5c94870b
    80003258:	3c94870b          	.insn	4, 0x3c94870b
    8000325c:	c094077b          	.insn	4, 0xc094077b
    80003260:	00ae87b3          	add	a5,t4,a0
    80003264:	e38c                	sd	a1,0(a5)
    80003266:	9cdd050b          	.insn	4, 0x9cdd050b
    8000326a:	7c94850b          	.insn	4, 0x7c94850b
    8000326e:	5c94850b          	.insn	4, 0x5c94850b
    80003272:	3c94850b          	.insn	4, 0x3c94850b
    80003276:	c084057b          	.insn	4, 0xc084057b
    8000327a:	e798                	sd	a4,8(a5)
    8000327c:	9cdd858b          	.insn	4, 0x9cdd858b
    80003280:	7c94858b          	.insn	4, 0x7c94858b
    80003284:	5c94858b          	.insn	4, 0x5c94858b
    80003288:	3c94058b          	.insn	4, 0x3c94058b
    8000328c:	c08405fb          	.insn	4, 0xc08405fb
    80003290:	eb88                	sd	a0,16(a5)
    80003292:	7c94850b          	.insn	4, 0x7c94850b
    80003296:	5c94850b          	.insn	4, 0x5c94850b
    8000329a:	3c84050b          	.insn	4, 0x3c84050b
    8000329e:	c084057b          	.insn	4, 0xc084057b
    800032a2:	ef8c                	sd	a1,24(a5)
    800032a4:	9cd0858b          	.insn	4, 0x9cd0858b
    800032a8:	7c94858b          	.insn	4, 0x7c94858b
    800032ac:	5c94058b          	.insn	4, 0x5c94058b
    800032b0:	3c84058b          	.insn	4, 0x3c84058b
    800032b4:	c08405fb          	.insn	4, 0xc08405fb
    800032b8:	f388                	sd	a0,32(a5)
    800032ba:	9cd8050b          	.insn	4, 0x9cd8050b
    800032be:	7c94850b          	.insn	4, 0x7c94850b
    800032c2:	5c84050b          	.insn	4, 0x5c84050b
    800032c6:	3c84050b          	.insn	4, 0x3c84050b
    800032ca:	c084057b          	.insn	4, 0xc084057b
    800032ce:	9cd9070b          	.insn	4, 0x9cd9070b
    800032d2:	7c94070b          	.insn	4, 0x7c94070b
    800032d6:	5c84070b          	.insn	4, 0x5c84070b
    800032da:	3c84070b          	.insn	4, 0x3c84070b
    800032de:	c084077b          	.insn	4, 0xc084077b
    800032e2:	f78c                	sd	a1,40(a5)
    800032e4:	fb88                	sd	a0,48(a5)
    800032e6:	7c84050b          	.insn	4, 0x7c84050b
    800032ea:	5c84050b          	.insn	4, 0x5c84050b
    800032ee:	3c84050b          	.insn	4, 0x3c84050b
    800032f2:	c084057b          	.insn	4, 0xc084057b
    800032f6:	080c3483          	ld	s1,128(s8)
    800032fa:	ff98                	sd	a4,56(a5)
    800032fc:	9cdc858b          	.insn	4, 0x9cdc858b
    80003300:	7c84058b          	.insn	4, 0x7c84058b
    80003304:	5c84058b          	.insn	4, 0x5c84058b
    80003308:	3c84058b          	.insn	4, 0x3c84058b
    8000330c:	c08485fb          	.insn	4, 0xc08485fb
    80003310:	e3a8                	sd	a0,64(a5)
    80003312:	9cdd050b          	.insn	4, 0x9cdd050b
    80003316:	7c84050b          	.insn	4, 0x7c84050b
    8000331a:	5c84050b          	.insn	4, 0x5c84050b
    8000331e:	3c84050b          	.insn	4, 0x3c84050b
    80003322:	c094857b          	.insn	4, 0xc094857b
    80003326:	e7ac                	sd	a1,72(a5)
    80003328:	9cdd858b          	.insn	4, 0x9cdd858b
    8000332c:	7c84058b          	.insn	4, 0x7c84058b
    80003330:	5c84058b          	.insn	4, 0x5c84058b
    80003334:	3c84858b          	.insn	4, 0x3c84858b
    80003338:	c09485fb          	.insn	4, 0xc09485fb
    8000333c:	eba8                	sd	a0,80(a5)
    8000333e:	7c84050b          	.insn	4, 0x7c84050b
    80003342:	5c84050b          	.insn	4, 0x5c84050b
    80003346:	3c94850b          	.insn	4, 0x3c94850b
    8000334a:	c094857b          	.insn	4, 0xc094857b
    8000334e:	efac                	sd	a1,88(a5)
    80003350:	9cd0858b          	.insn	4, 0x9cd0858b
    80003354:	7c84058b          	.insn	4, 0x7c84058b
    80003358:	5c84858b          	.insn	4, 0x5c84858b
    8000335c:	3c94858b          	.insn	4, 0x3c94858b
    80003360:	c09485fb          	.insn	4, 0xc09485fb
    80003364:	f3a8                	sd	a0,96(a5)
    80003366:	9cd8050b          	.insn	4, 0x9cd8050b
    8000336a:	7c84050b          	.insn	4, 0x7c84050b
    8000336e:	5c94850b          	.insn	4, 0x5c94850b
    80003372:	3c94850b          	.insn	4, 0x3c94850b
    80003376:	c094857b          	.insn	4, 0xc094857b
    8000337a:	9cd9070b          	.insn	4, 0x9cd9070b
    8000337e:	7c84870b          	.insn	4, 0x7c84870b
    80003382:	5c94870b          	.insn	4, 0x5c94870b
    80003386:	3c94870b          	.insn	4, 0x3c94870b
    8000338a:	c094877b          	.insn	4, 0xc094877b
    8000338e:	f7ac                	sd	a1,104(a5)
    80003390:	fba8                	sd	a0,112(a5)
    80003392:	7c94850b          	.insn	4, 0x7c94850b
    80003396:	5c94850b          	.insn	4, 0x5c94850b
    8000339a:	3c94850b          	.insn	4, 0x3c94850b
    8000339e:	c094857b          	.insn	4, 0xc094857b
    800033a2:	0c0c3403          	ld	s0,192(s8)
    800033a6:	ffb8                	sd	a4,120(a5)
    800033a8:	9cdc858b          	.insn	4, 0x9cdc858b
    800033ac:	7c94858b          	.insn	4, 0x7c94858b
    800033b0:	5c94858b          	.insn	4, 0x5c94858b
    800033b4:	3c94858b          	.insn	4, 0x3c94858b
    800033b8:	c09405fb          	.insn	4, 0xc09405fb
    800033bc:	e3c8                	sd	a0,128(a5)
    800033be:	9cdd050b          	.insn	4, 0x9cdd050b
    800033c2:	7c94850b          	.insn	4, 0x7c94850b
    800033c6:	5c94850b          	.insn	4, 0x5c94850b
    800033ca:	3c94850b          	.insn	4, 0x3c94850b
    800033ce:	c084057b          	.insn	4, 0xc084057b
    800033d2:	e7cc                	sd	a1,136(a5)
    800033d4:	9cdd858b          	.insn	4, 0x9cdd858b
    800033d8:	7c94858b          	.insn	4, 0x7c94858b
    800033dc:	5c94858b          	.insn	4, 0x5c94858b
    800033e0:	3c94058b          	.insn	4, 0x3c94058b
    800033e4:	c08405fb          	.insn	4, 0xc08405fb
    800033e8:	ebc8                	sd	a0,144(a5)
    800033ea:	7c94850b          	.insn	4, 0x7c94850b
    800033ee:	5c94850b          	.insn	4, 0x5c94850b
    800033f2:	3c84050b          	.insn	4, 0x3c84050b
    800033f6:	c084057b          	.insn	4, 0xc084057b
    800033fa:	efcc                	sd	a1,152(a5)
    800033fc:	9cd0858b          	.insn	4, 0x9cd0858b
    80003400:	7c94858b          	.insn	4, 0x7c94858b
    80003404:	5c94058b          	.insn	4, 0x5c94058b
    80003408:	3c84058b          	.insn	4, 0x3c84058b
    8000340c:	c08405fb          	.insn	4, 0xc08405fb
    80003410:	f3c8                	sd	a0,160(a5)
    80003412:	9cd8050b          	.insn	4, 0x9cd8050b
    80003416:	7c94850b          	.insn	4, 0x7c94850b
    8000341a:	5c84050b          	.insn	4, 0x5c84050b
    8000341e:	3c84050b          	.insn	4, 0x3c84050b
    80003422:	c084057b          	.insn	4, 0xc084057b
    80003426:	9cd9070b          	.insn	4, 0x9cd9070b
    8000342a:	7c94070b          	.insn	4, 0x7c94070b
    8000342e:	5c84070b          	.insn	4, 0x5c84070b
    80003432:	3c84070b          	.insn	4, 0x3c84070b
    80003436:	c084077b          	.insn	4, 0xc084077b
    8000343a:	f7cc                	sd	a1,168(a5)
    8000343c:	fbc8                	sd	a0,176(a5)
    8000343e:	7c84050b          	.insn	4, 0x7c84050b
    80003442:	5c84050b          	.insn	4, 0x5c84050b
    80003446:	3c84050b          	.insn	4, 0x3c84050b
    8000344a:	c084057b          	.insn	4, 0xc084057b
    8000344e:	100c3483          	ld	s1,256(s8)
    80003452:	ffd8                	sd	a4,184(a5)
    80003454:	9cdc858b          	.insn	4, 0x9cdc858b
    80003458:	7c84058b          	.insn	4, 0x7c84058b
    8000345c:	5c84058b          	.insn	4, 0x5c84058b
    80003460:	3c84058b          	.insn	4, 0x3c84058b
    80003464:	c08485fb          	.insn	4, 0xc08485fb
    80003468:	e3e8                	sd	a0,192(a5)
    8000346a:	9cdd050b          	.insn	4, 0x9cdd050b
    8000346e:	7c84050b          	.insn	4, 0x7c84050b
    80003472:	5c84050b          	.insn	4, 0x5c84050b
    80003476:	3c84050b          	.insn	4, 0x3c84050b
    8000347a:	c094857b          	.insn	4, 0xc094857b
    8000347e:	e7ec                	sd	a1,200(a5)
    80003480:	9cdd858b          	.insn	4, 0x9cdd858b
    80003484:	7c84058b          	.insn	4, 0x7c84058b
    80003488:	5c84058b          	.insn	4, 0x5c84058b
    8000348c:	3c84858b          	.insn	4, 0x3c84858b
    80003490:	c09485fb          	.insn	4, 0xc09485fb
    80003494:	ebe8                	sd	a0,208(a5)
    80003496:	7c84050b          	.insn	4, 0x7c84050b
    8000349a:	5c84050b          	.insn	4, 0x5c84050b
    8000349e:	3c94850b          	.insn	4, 0x3c94850b
    800034a2:	c094857b          	.insn	4, 0xc094857b
    800034a6:	efec                	sd	a1,216(a5)
    800034a8:	9cd0858b          	.insn	4, 0x9cd0858b
    800034ac:	7c84058b          	.insn	4, 0x7c84058b
    800034b0:	5c84858b          	.insn	4, 0x5c84858b
    800034b4:	3c94858b          	.insn	4, 0x3c94858b
    800034b8:	c09485fb          	.insn	4, 0xc09485fb
    800034bc:	f3e8                	sd	a0,224(a5)
    800034be:	9cd8050b          	.insn	4, 0x9cd8050b
    800034c2:	7c84050b          	.insn	4, 0x7c84050b
    800034c6:	5c94850b          	.insn	4, 0x5c94850b
    800034ca:	3c94850b          	.insn	4, 0x3c94850b
    800034ce:	c094857b          	.insn	4, 0xc094857b
    800034d2:	9cd9070b          	.insn	4, 0x9cd9070b
    800034d6:	7c84870b          	.insn	4, 0x7c84870b
    800034da:	5c94870b          	.insn	4, 0x5c94870b
    800034de:	3c94870b          	.insn	4, 0x3c94870b
    800034e2:	c094877b          	.insn	4, 0xc094877b
    800034e6:	f7ec                	sd	a1,232(a5)
    800034e8:	fbe8                	sd	a0,240(a5)
    800034ea:	7c94850b          	.insn	4, 0x7c94850b
    800034ee:	5c94850b          	.insn	4, 0x5c94850b
    800034f2:	3c94850b          	.insn	4, 0x3c94850b
    800034f6:	c094857b          	.insn	4, 0xc094857b
    800034fa:	140c3403          	ld	s0,320(s8)
    800034fe:	fff8                	sd	a4,248(a5)
    80003500:	9cdc858b          	.insn	4, 0x9cdc858b
    80003504:	7c94858b          	.insn	4, 0x7c94858b
    80003508:	5c94858b          	.insn	4, 0x5c94858b
    8000350c:	3c94858b          	.insn	4, 0x3c94858b
    80003510:	c09405fb          	.insn	4, 0xc09405fb
    80003514:	10a7b023          	sd	a0,256(a5)
    80003518:	9cdd050b          	.insn	4, 0x9cdd050b
    8000351c:	7c94850b          	.insn	4, 0x7c94850b
    80003520:	5c94850b          	.insn	4, 0x5c94850b
    80003524:	3c94850b          	.insn	4, 0x3c94850b
    80003528:	c084057b          	.insn	4, 0xc084057b
    8000352c:	10b7b423          	sd	a1,264(a5)
    80003530:	9cdd858b          	.insn	4, 0x9cdd858b
    80003534:	7c94858b          	.insn	4, 0x7c94858b
    80003538:	5c94858b          	.insn	4, 0x5c94858b
    8000353c:	3c94058b          	.insn	4, 0x3c94058b
    80003540:	c08405fb          	.insn	4, 0xc08405fb
    80003544:	10a7b823          	sd	a0,272(a5)
    80003548:	7c94850b          	.insn	4, 0x7c94850b
    8000354c:	5c94850b          	.insn	4, 0x5c94850b
    80003550:	3c84050b          	.insn	4, 0x3c84050b
    80003554:	c084057b          	.insn	4, 0xc084057b
    80003558:	10b7bc23          	sd	a1,280(a5)
    8000355c:	9cd0858b          	.insn	4, 0x9cd0858b
    80003560:	7c94858b          	.insn	4, 0x7c94858b
    80003564:	5c94058b          	.insn	4, 0x5c94058b
    80003568:	3c84058b          	.insn	4, 0x3c84058b
    8000356c:	c08405fb          	.insn	4, 0xc08405fb
    80003570:	12a7b023          	sd	a0,288(a5)
    80003574:	9cd8050b          	.insn	4, 0x9cd8050b
    80003578:	7c94850b          	.insn	4, 0x7c94850b
    8000357c:	5c84050b          	.insn	4, 0x5c84050b
    80003580:	3c84050b          	.insn	4, 0x3c84050b
    80003584:	c084057b          	.insn	4, 0xc084057b
    80003588:	9cd9070b          	.insn	4, 0x9cd9070b
    8000358c:	7c94070b          	.insn	4, 0x7c94070b
    80003590:	5c84070b          	.insn	4, 0x5c84070b
    80003594:	3c84070b          	.insn	4, 0x3c84070b
    80003598:	c084077b          	.insn	4, 0xc084077b
    8000359c:	12b7b423          	sd	a1,296(a5)
    800035a0:	12a7b823          	sd	a0,304(a5)
    800035a4:	7c84050b          	.insn	4, 0x7c84050b
    800035a8:	5c84050b          	.insn	4, 0x5c84050b
    800035ac:	3c84050b          	.insn	4, 0x3c84050b
    800035b0:	c084057b          	.insn	4, 0xc084057b
    800035b4:	180c3483          	ld	s1,384(s8)
    800035b8:	12e7bc23          	sd	a4,312(a5)
    800035bc:	9cdc858b          	.insn	4, 0x9cdc858b
    800035c0:	7c84058b          	.insn	4, 0x7c84058b
    800035c4:	5c84058b          	.insn	4, 0x5c84058b
    800035c8:	3c84058b          	.insn	4, 0x3c84058b
    800035cc:	c08485fb          	.insn	4, 0xc08485fb
    800035d0:	14a7b023          	sd	a0,320(a5)
    800035d4:	9cdd050b          	.insn	4, 0x9cdd050b
    800035d8:	7c84050b          	.insn	4, 0x7c84050b
    800035dc:	5c84050b          	.insn	4, 0x5c84050b
    800035e0:	3c84050b          	.insn	4, 0x3c84050b
    800035e4:	c094857b          	.insn	4, 0xc094857b
    800035e8:	14b7b423          	sd	a1,328(a5)
    800035ec:	9cdd858b          	.insn	4, 0x9cdd858b
    800035f0:	7c84058b          	.insn	4, 0x7c84058b
    800035f4:	5c84058b          	.insn	4, 0x5c84058b
    800035f8:	3c84858b          	.insn	4, 0x3c84858b
    800035fc:	c09485fb          	.insn	4, 0xc09485fb
    80003600:	14a7b823          	sd	a0,336(a5)
    80003604:	7c84050b          	.insn	4, 0x7c84050b
    80003608:	5c84050b          	.insn	4, 0x5c84050b
    8000360c:	3c94850b          	.insn	4, 0x3c94850b
    80003610:	c094857b          	.insn	4, 0xc094857b
    80003614:	14b7bc23          	sd	a1,344(a5)
    80003618:	9cd0858b          	.insn	4, 0x9cd0858b
    8000361c:	7c84058b          	.insn	4, 0x7c84058b
    80003620:	5c84858b          	.insn	4, 0x5c84858b
    80003624:	3c94858b          	.insn	4, 0x3c94858b
    80003628:	c09485fb          	.insn	4, 0xc09485fb
    8000362c:	16a7b023          	sd	a0,352(a5)
    80003630:	9cd8050b          	.insn	4, 0x9cd8050b
    80003634:	7c84050b          	.insn	4, 0x7c84050b
    80003638:	5c94850b          	.insn	4, 0x5c94850b
    8000363c:	3c94850b          	.insn	4, 0x3c94850b
    80003640:	c094857b          	.insn	4, 0xc094857b
    80003644:	9cd9070b          	.insn	4, 0x9cd9070b
    80003648:	7c84870b          	.insn	4, 0x7c84870b
    8000364c:	5c94870b          	.insn	4, 0x5c94870b
    80003650:	3c94870b          	.insn	4, 0x3c94870b
    80003654:	c094877b          	.insn	4, 0xc094877b
    80003658:	16b7b423          	sd	a1,360(a5)
    8000365c:	16a7b823          	sd	a0,368(a5)
    80003660:	7c94850b          	.insn	4, 0x7c94850b
    80003664:	5c94850b          	.insn	4, 0x5c94850b
    80003668:	3c94850b          	.insn	4, 0x3c94850b
    8000366c:	c094857b          	.insn	4, 0xc094857b
    80003670:	1c0c3403          	ld	s0,448(s8)
    80003674:	16e7bc23          	sd	a4,376(a5)
    80003678:	9cdc858b          	.insn	4, 0x9cdc858b
    8000367c:	7c94858b          	.insn	4, 0x7c94858b
    80003680:	5c94858b          	.insn	4, 0x5c94858b
    80003684:	3c94858b          	.insn	4, 0x3c94858b
    80003688:	c09405fb          	.insn	4, 0xc09405fb
    8000368c:	18a7b023          	sd	a0,384(a5)
    80003690:	9cdd050b          	.insn	4, 0x9cdd050b
    80003694:	7c94850b          	.insn	4, 0x7c94850b
    80003698:	5c94850b          	.insn	4, 0x5c94850b
    8000369c:	3c94850b          	.insn	4, 0x3c94850b
    800036a0:	c084057b          	.insn	4, 0xc084057b
    800036a4:	18b7b423          	sd	a1,392(a5)
    800036a8:	9cdd858b          	.insn	4, 0x9cdd858b
    800036ac:	7c94858b          	.insn	4, 0x7c94858b
    800036b0:	5c94858b          	.insn	4, 0x5c94858b
    800036b4:	3c94058b          	.insn	4, 0x3c94058b
    800036b8:	c08405fb          	.insn	4, 0xc08405fb
    800036bc:	18a7b823          	sd	a0,400(a5)
    800036c0:	7c94850b          	.insn	4, 0x7c94850b
    800036c4:	5c94850b          	.insn	4, 0x5c94850b
    800036c8:	3c84050b          	.insn	4, 0x3c84050b
    800036cc:	c084057b          	.insn	4, 0xc084057b
    800036d0:	18b7bc23          	sd	a1,408(a5)
    800036d4:	9cd0858b          	.insn	4, 0x9cd0858b
    800036d8:	7c94858b          	.insn	4, 0x7c94858b
    800036dc:	5c94058b          	.insn	4, 0x5c94058b
    800036e0:	3c84058b          	.insn	4, 0x3c84058b
    800036e4:	c08405fb          	.insn	4, 0xc08405fb
    800036e8:	1aa7b023          	sd	a0,416(a5)
    800036ec:	9cd8050b          	.insn	4, 0x9cd8050b
    800036f0:	7c94850b          	.insn	4, 0x7c94850b
    800036f4:	5c84050b          	.insn	4, 0x5c84050b
    800036f8:	3c84050b          	.insn	4, 0x3c84050b
    800036fc:	c084057b          	.insn	4, 0xc084057b
    80003700:	9cd9070b          	.insn	4, 0x9cd9070b
    80003704:	7c94070b          	.insn	4, 0x7c94070b
    80003708:	5c84070b          	.insn	4, 0x5c84070b
    8000370c:	3c84070b          	.insn	4, 0x3c84070b
    80003710:	c084077b          	.insn	4, 0xc084077b
    80003714:	1ab7b423          	sd	a1,424(a5)
    80003718:	1aa7b823          	sd	a0,432(a5)
    8000371c:	7c84050b          	.insn	4, 0x7c84050b
    80003720:	5c84050b          	.insn	4, 0x5c84050b
    80003724:	3c84050b          	.insn	4, 0x3c84050b
    80003728:	c084057b          	.insn	4, 0xc084057b
    8000372c:	200c3483          	ld	s1,512(s8)
    80003730:	1ae7bc23          	sd	a4,440(a5)
    80003734:	9cdc858b          	.insn	4, 0x9cdc858b
    80003738:	7c84058b          	.insn	4, 0x7c84058b
    8000373c:	5c84058b          	.insn	4, 0x5c84058b
    80003740:	3c84058b          	.insn	4, 0x3c84058b
    80003744:	c08485fb          	.insn	4, 0xc08485fb
    80003748:	1ca7b023          	sd	a0,448(a5)
    8000374c:	9cdd050b          	.insn	4, 0x9cdd050b
    80003750:	7c84050b          	.insn	4, 0x7c84050b
    80003754:	5c84050b          	.insn	4, 0x5c84050b
    80003758:	3c84050b          	.insn	4, 0x3c84050b
    8000375c:	c094857b          	.insn	4, 0xc094857b
    80003760:	1cb7b423          	sd	a1,456(a5)
    80003764:	9cdd858b          	.insn	4, 0x9cdd858b
    80003768:	7c84058b          	.insn	4, 0x7c84058b
    8000376c:	5c84058b          	.insn	4, 0x5c84058b
    80003770:	3c84858b          	.insn	4, 0x3c84858b
    80003774:	c09485fb          	.insn	4, 0xc09485fb
    80003778:	1ca7b823          	sd	a0,464(a5)
    8000377c:	7c84050b          	.insn	4, 0x7c84050b
    80003780:	5c84050b          	.insn	4, 0x5c84050b
    80003784:	3c94850b          	.insn	4, 0x3c94850b
    80003788:	c094857b          	.insn	4, 0xc094857b
    8000378c:	1cb7bc23          	sd	a1,472(a5)
    80003790:	9cd0858b          	.insn	4, 0x9cd0858b
    80003794:	7c84058b          	.insn	4, 0x7c84058b
    80003798:	5c84858b          	.insn	4, 0x5c84858b
    8000379c:	3c94858b          	.insn	4, 0x3c94858b
    800037a0:	c09485fb          	.insn	4, 0xc09485fb
    800037a4:	1ea7b023          	sd	a0,480(a5)
    800037a8:	9cd8050b          	.insn	4, 0x9cd8050b
    800037ac:	7c84050b          	.insn	4, 0x7c84050b
    800037b0:	5c94850b          	.insn	4, 0x5c94850b
    800037b4:	3c94850b          	.insn	4, 0x3c94850b
    800037b8:	c094857b          	.insn	4, 0xc094857b
    800037bc:	9cd9070b          	.insn	4, 0x9cd9070b
    800037c0:	7c84870b          	.insn	4, 0x7c84870b
    800037c4:	5c94870b          	.insn	4, 0x5c94870b
    800037c8:	3c94870b          	.insn	4, 0x3c94870b
    800037cc:	c094877b          	.insn	4, 0xc094877b
    800037d0:	1eb7b423          	sd	a1,488(a5)
    800037d4:	1ea7b823          	sd	a0,496(a5)
    800037d8:	7c94850b          	.insn	4, 0x7c94850b
    800037dc:	5c94850b          	.insn	4, 0x5c94850b
    800037e0:	3c94850b          	.insn	4, 0x3c94850b
    800037e4:	c094857b          	.insn	4, 0xc094857b
    800037e8:	240c3403          	ld	s0,576(s8)
    800037ec:	1ee7bc23          	sd	a4,504(a5)
    800037f0:	9cdc858b          	.insn	4, 0x9cdc858b
    800037f4:	7c94858b          	.insn	4, 0x7c94858b
    800037f8:	5c94858b          	.insn	4, 0x5c94858b
    800037fc:	3c94858b          	.insn	4, 0x3c94858b
    80003800:	c09405fb          	.insn	4, 0xc09405fb
    80003804:	20a7b023          	sd	a0,512(a5)
    80003808:	9cdd050b          	.insn	4, 0x9cdd050b
    8000380c:	7c94850b          	.insn	4, 0x7c94850b
    80003810:	5c94850b          	.insn	4, 0x5c94850b
    80003814:	3c94850b          	.insn	4, 0x3c94850b
    80003818:	c084057b          	.insn	4, 0xc084057b
    8000381c:	20b7b423          	sd	a1,520(a5)
    80003820:	9cdd858b          	.insn	4, 0x9cdd858b
    80003824:	7c94858b          	.insn	4, 0x7c94858b
    80003828:	5c94858b          	.insn	4, 0x5c94858b
    8000382c:	3c94058b          	.insn	4, 0x3c94058b
    80003830:	c08405fb          	.insn	4, 0xc08405fb
    80003834:	20a7b823          	sd	a0,528(a5)
    80003838:	7c94850b          	.insn	4, 0x7c94850b
    8000383c:	5c94850b          	.insn	4, 0x5c94850b
    80003840:	3c84050b          	.insn	4, 0x3c84050b
    80003844:	c084057b          	.insn	4, 0xc084057b
    80003848:	20b7bc23          	sd	a1,536(a5)
    8000384c:	9cd0858b          	.insn	4, 0x9cd0858b
    80003850:	7c94858b          	.insn	4, 0x7c94858b
    80003854:	5c94058b          	.insn	4, 0x5c94058b
    80003858:	3c84058b          	.insn	4, 0x3c84058b
    8000385c:	c08405fb          	.insn	4, 0xc08405fb
    80003860:	22a7b023          	sd	a0,544(a5)
    80003864:	9cd8050b          	.insn	4, 0x9cd8050b
    80003868:	7c94850b          	.insn	4, 0x7c94850b
    8000386c:	5c84050b          	.insn	4, 0x5c84050b
    80003870:	3c84050b          	.insn	4, 0x3c84050b
    80003874:	c084057b          	.insn	4, 0xc084057b
    80003878:	9cd9070b          	.insn	4, 0x9cd9070b
    8000387c:	7c94070b          	.insn	4, 0x7c94070b
    80003880:	5c84070b          	.insn	4, 0x5c84070b
    80003884:	3c84070b          	.insn	4, 0x3c84070b
    80003888:	c084077b          	.insn	4, 0xc084077b
    8000388c:	22b7b423          	sd	a1,552(a5)
    80003890:	22a7b823          	sd	a0,560(a5)
    80003894:	7c84050b          	.insn	4, 0x7c84050b
    80003898:	5c84050b          	.insn	4, 0x5c84050b
    8000389c:	3c84050b          	.insn	4, 0x3c84050b
    800038a0:	c084057b          	.insn	4, 0xc084057b
    800038a4:	280c3483          	ld	s1,640(s8)
    800038a8:	22e7bc23          	sd	a4,568(a5)
    800038ac:	9cdc858b          	.insn	4, 0x9cdc858b
    800038b0:	7c84058b          	.insn	4, 0x7c84058b
    800038b4:	5c84058b          	.insn	4, 0x5c84058b
    800038b8:	3c84058b          	.insn	4, 0x3c84058b
    800038bc:	c08485fb          	.insn	4, 0xc08485fb
    800038c0:	24a7b023          	sd	a0,576(a5)
    800038c4:	9cdd050b          	.insn	4, 0x9cdd050b
    800038c8:	7c84050b          	.insn	4, 0x7c84050b
    800038cc:	5c84050b          	.insn	4, 0x5c84050b
    800038d0:	3c84050b          	.insn	4, 0x3c84050b
    800038d4:	c094857b          	.insn	4, 0xc094857b
    800038d8:	24b7b423          	sd	a1,584(a5)
    800038dc:	9cdd858b          	.insn	4, 0x9cdd858b
    800038e0:	7c84058b          	.insn	4, 0x7c84058b
    800038e4:	5c84058b          	.insn	4, 0x5c84058b
    800038e8:	3c84858b          	.insn	4, 0x3c84858b
    800038ec:	c09485fb          	.insn	4, 0xc09485fb
    800038f0:	24a7b823          	sd	a0,592(a5)
    800038f4:	7c84050b          	.insn	4, 0x7c84050b
    800038f8:	5c84050b          	.insn	4, 0x5c84050b
    800038fc:	3c94850b          	.insn	4, 0x3c94850b
    80003900:	c094857b          	.insn	4, 0xc094857b
    80003904:	24b7bc23          	sd	a1,600(a5)
    80003908:	9cd0858b          	.insn	4, 0x9cd0858b
    8000390c:	7c84058b          	.insn	4, 0x7c84058b
    80003910:	5c84858b          	.insn	4, 0x5c84858b
    80003914:	3c94858b          	.insn	4, 0x3c94858b
    80003918:	c09485fb          	.insn	4, 0xc09485fb
    8000391c:	26a7b023          	sd	a0,608(a5)
    80003920:	9cd8050b          	.insn	4, 0x9cd8050b
    80003924:	7c84050b          	.insn	4, 0x7c84050b
    80003928:	5c94850b          	.insn	4, 0x5c94850b
    8000392c:	3c94850b          	.insn	4, 0x3c94850b
    80003930:	c094857b          	.insn	4, 0xc094857b
    80003934:	9cd9070b          	.insn	4, 0x9cd9070b
    80003938:	7c84870b          	.insn	4, 0x7c84870b
    8000393c:	5c94870b          	.insn	4, 0x5c94870b
    80003940:	3c94870b          	.insn	4, 0x3c94870b
    80003944:	c094877b          	.insn	4, 0xc094877b
    80003948:	26b7b423          	sd	a1,616(a5)
    8000394c:	26a7b823          	sd	a0,624(a5)
    80003950:	7c94850b          	.insn	4, 0x7c94850b
    80003954:	5c94850b          	.insn	4, 0x5c94850b
    80003958:	3c94850b          	.insn	4, 0x3c94850b
    8000395c:	c094857b          	.insn	4, 0xc094857b
    80003960:	2c0c3403          	ld	s0,704(s8)
    80003964:	26e7bc23          	sd	a4,632(a5)
    80003968:	9cdc858b          	.insn	4, 0x9cdc858b
    8000396c:	7c94858b          	.insn	4, 0x7c94858b
    80003970:	5c94858b          	.insn	4, 0x5c94858b
    80003974:	3c94858b          	.insn	4, 0x3c94858b
    80003978:	c09405fb          	.insn	4, 0xc09405fb
    8000397c:	28a7b023          	sd	a0,640(a5)
    80003980:	9cdd050b          	.insn	4, 0x9cdd050b
    80003984:	7c94850b          	.insn	4, 0x7c94850b
    80003988:	5c94850b          	.insn	4, 0x5c94850b
    8000398c:	3c94850b          	.insn	4, 0x3c94850b
    80003990:	c084057b          	.insn	4, 0xc084057b
    80003994:	28b7b423          	sd	a1,648(a5)
    80003998:	9cdd858b          	.insn	4, 0x9cdd858b
    8000399c:	7c94858b          	.insn	4, 0x7c94858b
    800039a0:	5c94858b          	.insn	4, 0x5c94858b
    800039a4:	3c94058b          	.insn	4, 0x3c94058b
    800039a8:	c08405fb          	.insn	4, 0xc08405fb
    800039ac:	28a7b823          	sd	a0,656(a5)
    800039b0:	7c94850b          	.insn	4, 0x7c94850b
    800039b4:	5c94850b          	.insn	4, 0x5c94850b
    800039b8:	3c84050b          	.insn	4, 0x3c84050b
    800039bc:	c084057b          	.insn	4, 0xc084057b
    800039c0:	28b7bc23          	sd	a1,664(a5)
    800039c4:	9cd0858b          	.insn	4, 0x9cd0858b
    800039c8:	7c94858b          	.insn	4, 0x7c94858b
    800039cc:	5c94058b          	.insn	4, 0x5c94058b
    800039d0:	3c84058b          	.insn	4, 0x3c84058b
    800039d4:	c08405fb          	.insn	4, 0xc08405fb
    800039d8:	2aa7b023          	sd	a0,672(a5)
    800039dc:	9cd8050b          	.insn	4, 0x9cd8050b
    800039e0:	7c94850b          	.insn	4, 0x7c94850b
    800039e4:	5c84050b          	.insn	4, 0x5c84050b
    800039e8:	3c84050b          	.insn	4, 0x3c84050b
    800039ec:	c084057b          	.insn	4, 0xc084057b
    800039f0:	9cd9070b          	.insn	4, 0x9cd9070b
    800039f4:	7c94070b          	.insn	4, 0x7c94070b
    800039f8:	5c84070b          	.insn	4, 0x5c84070b
    800039fc:	3c84070b          	.insn	4, 0x3c84070b
    80003a00:	c084077b          	.insn	4, 0xc084077b
    80003a04:	2ab7b423          	sd	a1,680(a5)
    80003a08:	2aa7b823          	sd	a0,688(a5)
    80003a0c:	7c84050b          	.insn	4, 0x7c84050b
    80003a10:	5c84050b          	.insn	4, 0x5c84050b
    80003a14:	3c84050b          	.insn	4, 0x3c84050b
    80003a18:	c084057b          	.insn	4, 0xc084057b
    80003a1c:	300c3483          	ld	s1,768(s8)
    80003a20:	2ae7bc23          	sd	a4,696(a5)
    80003a24:	9cdc858b          	.insn	4, 0x9cdc858b
    80003a28:	7c84058b          	.insn	4, 0x7c84058b
    80003a2c:	5c84058b          	.insn	4, 0x5c84058b
    80003a30:	3c84058b          	.insn	4, 0x3c84058b
    80003a34:	c08485fb          	.insn	4, 0xc08485fb
    80003a38:	2ca7b023          	sd	a0,704(a5)
    80003a3c:	9cdd050b          	.insn	4, 0x9cdd050b
    80003a40:	7c84050b          	.insn	4, 0x7c84050b
    80003a44:	5c84050b          	.insn	4, 0x5c84050b
    80003a48:	3c84050b          	.insn	4, 0x3c84050b
    80003a4c:	c094857b          	.insn	4, 0xc094857b
    80003a50:	2cb7b423          	sd	a1,712(a5)
    80003a54:	9cdd858b          	.insn	4, 0x9cdd858b
    80003a58:	7c84058b          	.insn	4, 0x7c84058b
    80003a5c:	5c84058b          	.insn	4, 0x5c84058b
    80003a60:	3c84858b          	.insn	4, 0x3c84858b
    80003a64:	c09485fb          	.insn	4, 0xc09485fb
    80003a68:	2ca7b823          	sd	a0,720(a5)
    80003a6c:	7c84050b          	.insn	4, 0x7c84050b
    80003a70:	5c84050b          	.insn	4, 0x5c84050b
    80003a74:	3c94850b          	.insn	4, 0x3c94850b
    80003a78:	c094857b          	.insn	4, 0xc094857b
    80003a7c:	2cb7bc23          	sd	a1,728(a5)
    80003a80:	9cd0858b          	.insn	4, 0x9cd0858b
    80003a84:	7c84058b          	.insn	4, 0x7c84058b
    80003a88:	5c84858b          	.insn	4, 0x5c84858b
    80003a8c:	3c94858b          	.insn	4, 0x3c94858b
    80003a90:	c09485fb          	.insn	4, 0xc09485fb
    80003a94:	2ea7b023          	sd	a0,736(a5)
    80003a98:	9cd8050b          	.insn	4, 0x9cd8050b
    80003a9c:	7c84050b          	.insn	4, 0x7c84050b
    80003aa0:	5c94850b          	.insn	4, 0x5c94850b
    80003aa4:	3c94850b          	.insn	4, 0x3c94850b
    80003aa8:	c094857b          	.insn	4, 0xc094857b
    80003aac:	9cd9070b          	.insn	4, 0x9cd9070b
    80003ab0:	7c84870b          	.insn	4, 0x7c84870b
    80003ab4:	5c94870b          	.insn	4, 0x5c94870b
    80003ab8:	3c94870b          	.insn	4, 0x3c94870b
    80003abc:	c094877b          	.insn	4, 0xc094877b
    80003ac0:	2eb7b423          	sd	a1,744(a5)
    80003ac4:	2ea7b823          	sd	a0,752(a5)
    80003ac8:	7c94850b          	.insn	4, 0x7c94850b
    80003acc:	5c94850b          	.insn	4, 0x5c94850b
    80003ad0:	3c94850b          	.insn	4, 0x3c94850b
    80003ad4:	c094857b          	.insn	4, 0xc094857b
    80003ad8:	340c3403          	ld	s0,832(s8)
    80003adc:	2ee7bc23          	sd	a4,760(a5)
    80003ae0:	9cdc858b          	.insn	4, 0x9cdc858b
    80003ae4:	7c94858b          	.insn	4, 0x7c94858b
    80003ae8:	5c94858b          	.insn	4, 0x5c94858b
    80003aec:	3c94858b          	.insn	4, 0x3c94858b
    80003af0:	c09405fb          	.insn	4, 0xc09405fb
    80003af4:	30a7b023          	sd	a0,768(a5)
    80003af8:	9cdd050b          	.insn	4, 0x9cdd050b
    80003afc:	7c94850b          	.insn	4, 0x7c94850b
    80003b00:	5c94850b          	.insn	4, 0x5c94850b
    80003b04:	3c94850b          	.insn	4, 0x3c94850b
    80003b08:	c084057b          	.insn	4, 0xc084057b
    80003b0c:	30b7b423          	sd	a1,776(a5)
    80003b10:	9cdd858b          	.insn	4, 0x9cdd858b
    80003b14:	7c94858b          	.insn	4, 0x7c94858b
    80003b18:	5c94858b          	.insn	4, 0x5c94858b
    80003b1c:	3c94058b          	.insn	4, 0x3c94058b
    80003b20:	c08405fb          	.insn	4, 0xc08405fb
    80003b24:	30a7b823          	sd	a0,784(a5)
    80003b28:	7c94850b          	.insn	4, 0x7c94850b
    80003b2c:	5c94850b          	.insn	4, 0x5c94850b
    80003b30:	3c84050b          	.insn	4, 0x3c84050b
    80003b34:	c084057b          	.insn	4, 0xc084057b
    80003b38:	30b7bc23          	sd	a1,792(a5)
    80003b3c:	9cd0858b          	.insn	4, 0x9cd0858b
    80003b40:	7c94858b          	.insn	4, 0x7c94858b
    80003b44:	5c94058b          	.insn	4, 0x5c94058b
    80003b48:	3c84058b          	.insn	4, 0x3c84058b
    80003b4c:	c08405fb          	.insn	4, 0xc08405fb
    80003b50:	32a7b023          	sd	a0,800(a5)
    80003b54:	9cd8050b          	.insn	4, 0x9cd8050b
    80003b58:	7c94850b          	.insn	4, 0x7c94850b
    80003b5c:	5c84050b          	.insn	4, 0x5c84050b
    80003b60:	3c84050b          	.insn	4, 0x3c84050b
    80003b64:	c084057b          	.insn	4, 0xc084057b
    80003b68:	9cd9070b          	.insn	4, 0x9cd9070b
    80003b6c:	7c94070b          	.insn	4, 0x7c94070b
    80003b70:	5c84070b          	.insn	4, 0x5c84070b
    80003b74:	3c84070b          	.insn	4, 0x3c84070b
    80003b78:	c084077b          	.insn	4, 0xc084077b
    80003b7c:	32b7b423          	sd	a1,808(a5)
    80003b80:	32a7b823          	sd	a0,816(a5)
    80003b84:	7c84050b          	.insn	4, 0x7c84050b
    80003b88:	5c84050b          	.insn	4, 0x5c84050b
    80003b8c:	3c84050b          	.insn	4, 0x3c84050b
    80003b90:	c084057b          	.insn	4, 0xc084057b
    80003b94:	380c3483          	ld	s1,896(s8)
    80003b98:	32e7bc23          	sd	a4,824(a5)
    80003b9c:	9cdc858b          	.insn	4, 0x9cdc858b
    80003ba0:	7c84058b          	.insn	4, 0x7c84058b
    80003ba4:	5c84058b          	.insn	4, 0x5c84058b
    80003ba8:	3c84058b          	.insn	4, 0x3c84058b
    80003bac:	c08485fb          	.insn	4, 0xc08485fb
    80003bb0:	34a7b023          	sd	a0,832(a5)
    80003bb4:	9cdd050b          	.insn	4, 0x9cdd050b
    80003bb8:	7c84050b          	.insn	4, 0x7c84050b
    80003bbc:	5c84050b          	.insn	4, 0x5c84050b
    80003bc0:	3c84050b          	.insn	4, 0x3c84050b
    80003bc4:	c094857b          	.insn	4, 0xc094857b
    80003bc8:	34b7b423          	sd	a1,840(a5)
    80003bcc:	9cdd858b          	.insn	4, 0x9cdd858b
    80003bd0:	7c84058b          	.insn	4, 0x7c84058b
    80003bd4:	5c84058b          	.insn	4, 0x5c84058b
    80003bd8:	3c84858b          	.insn	4, 0x3c84858b
    80003bdc:	c09485fb          	.insn	4, 0xc09485fb
    80003be0:	34a7b823          	sd	a0,848(a5)
    80003be4:	7c84050b          	.insn	4, 0x7c84050b
    80003be8:	5c84050b          	.insn	4, 0x5c84050b
    80003bec:	3c94850b          	.insn	4, 0x3c94850b
    80003bf0:	c094857b          	.insn	4, 0xc094857b
    80003bf4:	34b7bc23          	sd	a1,856(a5)
    80003bf8:	9cd0858b          	.insn	4, 0x9cd0858b
    80003bfc:	7c84058b          	.insn	4, 0x7c84058b
    80003c00:	5c84858b          	.insn	4, 0x5c84858b
    80003c04:	3c94858b          	.insn	4, 0x3c94858b
    80003c08:	c09485fb          	.insn	4, 0xc09485fb
    80003c0c:	36a7b023          	sd	a0,864(a5)
    80003c10:	9cd8050b          	.insn	4, 0x9cd8050b
    80003c14:	7c84050b          	.insn	4, 0x7c84050b
    80003c18:	5c94850b          	.insn	4, 0x5c94850b
    80003c1c:	3c94850b          	.insn	4, 0x3c94850b
    80003c20:	c094857b          	.insn	4, 0xc094857b
    80003c24:	9cd9070b          	.insn	4, 0x9cd9070b
    80003c28:	7c84870b          	.insn	4, 0x7c84870b
    80003c2c:	5c94870b          	.insn	4, 0x5c94870b
    80003c30:	3c94870b          	.insn	4, 0x3c94870b
    80003c34:	c094877b          	.insn	4, 0xc094877b
    80003c38:	36b7b423          	sd	a1,872(a5)
    80003c3c:	36a7b823          	sd	a0,880(a5)
    80003c40:	7c94850b          	.insn	4, 0x7c94850b
    80003c44:	5c94850b          	.insn	4, 0x5c94850b
    80003c48:	3c94850b          	.insn	4, 0x3c94850b
    80003c4c:	c094857b          	.insn	4, 0xc094857b
    80003c50:	3c0c3583          	ld	a1,960(s8)
    80003c54:	36e7bc23          	sd	a4,888(a5)
    80003c58:	9cdc870b          	.insn	4, 0x9cdc870b
    80003c5c:	7c94870b          	.insn	4, 0x7c94870b
    80003c60:	5c94870b          	.insn	4, 0x5c94870b
    80003c64:	3c94870b          	.insn	4, 0x3c94870b
    80003c68:	c095877b          	.insn	4, 0xc095877b
    80003c6c:	38a7b023          	sd	a0,896(a5)
    80003c70:	9cdd050b          	.insn	4, 0x9cdd050b
    80003c74:	7c94850b          	.insn	4, 0x7c94850b
    80003c78:	5c94850b          	.insn	4, 0x5c94850b
    80003c7c:	3c94850b          	.insn	4, 0x3c94850b
    80003c80:	c0b5857b          	.insn	4, 0xc0b5857b
    80003c84:	38e7b423          	sd	a4,904(a5)
    80003c88:	9cdd870b          	.insn	4, 0x9cdd870b
    80003c8c:	7c94870b          	.insn	4, 0x7c94870b
    80003c90:	5c94870b          	.insn	4, 0x5c94870b
    80003c94:	3c95870b          	.insn	4, 0x3c95870b
    80003c98:	c0b5877b          	.insn	4, 0xc0b5877b
    80003c9c:	38a7b823          	sd	a0,912(a5)
    80003ca0:	7c94850b          	.insn	4, 0x7c94850b
    80003ca4:	5c94850b          	.insn	4, 0x5c94850b
    80003ca8:	3cb5850b          	.insn	4, 0x3cb5850b
    80003cac:	c0b5857b          	.insn	4, 0xc0b5857b
    80003cb0:	38e7bc23          	sd	a4,920(a5)
    80003cb4:	9cd0870b          	.insn	4, 0x9cd0870b
    80003cb8:	7c94870b          	.insn	4, 0x7c94870b
    80003cbc:	5c95870b          	.insn	4, 0x5c95870b
    80003cc0:	3cb5870b          	.insn	4, 0x3cb5870b
    80003cc4:	c0b5877b          	.insn	4, 0xc0b5877b
    80003cc8:	3aa7b023          	sd	a0,928(a5)
    80003ccc:	9cd8050b          	.insn	4, 0x9cd8050b
    80003cd0:	7c94850b          	.insn	4, 0x7c94850b
    80003cd4:	5cb5850b          	.insn	4, 0x5cb5850b
    80003cd8:	3cb5850b          	.insn	4, 0x3cb5850b
    80003cdc:	c0b5857b          	.insn	4, 0xc0b5857b
    80003ce0:	9cd9040b          	.insn	4, 0x9cd9040b
    80003ce4:	7c95840b          	.insn	4, 0x7c95840b
    80003ce8:	5cb5840b          	.insn	4, 0x5cb5840b
    80003cec:	3cb5840b          	.insn	4, 0x3cb5840b
    80003cf0:	c0b5847b          	.insn	4, 0xc0b5847b
    80003cf4:	3ae7b423          	sd	a4,936(a5)
    80003cf8:	3aa7b823          	sd	a0,944(a5)
    80003cfc:	7cb5850b          	.insn	4, 0x7cb5850b
    80003d00:	5cb5850b          	.insn	4, 0x5cb5850b
    80003d04:	3cb5850b          	.insn	4, 0x3cb5850b
    80003d08:	c0b5857b          	.insn	4, 0xc0b5857b
    80003d0c:	002b8593          	addi	a1,s7,2
    80003d10:	05aa                	slli	a1,a1,0xa
    80003d12:	00ba0c33          	add	s8,s4,a1
    80003d16:	000c3703          	ld	a4,0(s8)
    80003d1a:	3a87bc23          	sd	s0,952(a5)
    80003d1e:	7ce7040b          	.insn	4, 0x7ce7040b
    80003d22:	5ce7040b          	.insn	4, 0x5ce7040b
    80003d26:	3ce7040b          	.insn	4, 0x3ce7040b
    80003d2a:	c0e704fb          	.insn	4, 0xc0e704fb
    80003d2e:	3ca7b023          	sd	a0,960(a5)
    80003d32:	040c3403          	ld	s0,64(s8)
    80003d36:	9cdc850b          	.insn	4, 0x9cdc850b
    80003d3a:	7ce7050b          	.insn	4, 0x7ce7050b
    80003d3e:	5ce7050b          	.insn	4, 0x5ce7050b
    80003d42:	3ce7050b          	.insn	4, 0x3ce7050b
    80003d46:	c0e4057b          	.insn	4, 0xc0e4057b
    80003d4a:	79060793          	addi	a5,a2,1936
    80003d4e:	78963823          	sd	s1,1936(a2)
    80003d52:	9cdd048b          	.insn	4, 0x9cdd048b
    80003d56:	7ce7048b          	.insn	4, 0x7ce7048b
    80003d5a:	5ce7048b          	.insn	4, 0x5ce7048b
    80003d5e:	3ce7048b          	.insn	4, 0x3ce7048b
    80003d62:	c08404fb          	.insn	4, 0xc08404fb
    80003d66:	78a63c23          	sd	a0,1944(a2)
    80003d6a:	9cdd850b          	.insn	4, 0x9cdd850b
    80003d6e:	7ce7050b          	.insn	4, 0x7ce7050b
    80003d72:	5ce7050b          	.insn	4, 0x5ce7050b
    80003d76:	3ce4050b          	.insn	4, 0x3ce4050b
    80003d7a:	c084057b          	.insn	4, 0xc084057b
    80003d7e:	7a963023          	sd	s1,1952(a2)
    80003d82:	7ce7048b          	.insn	4, 0x7ce7048b
    80003d86:	5ce7048b          	.insn	4, 0x5ce7048b
    80003d8a:	3c84048b          	.insn	4, 0x3c84048b
    80003d8e:	c08404fb          	.insn	4, 0xc08404fb
    80003d92:	7aa63423          	sd	a0,1960(a2)
    80003d96:	9cd0850b          	.insn	4, 0x9cd0850b
    80003d9a:	7ce7050b          	.insn	4, 0x7ce7050b
    80003d9e:	5ce4050b          	.insn	4, 0x5ce4050b
    80003da2:	3c84050b          	.insn	4, 0x3c84050b
    80003da6:	c084057b          	.insn	4, 0xc084057b
    80003daa:	7a963823          	sd	s1,1968(a2)
    80003dae:	9cd8048b          	.insn	4, 0x9cd8048b
    80003db2:	7ce7048b          	.insn	4, 0x7ce7048b
    80003db6:	5c84048b          	.insn	4, 0x5c84048b
    80003dba:	3c84048b          	.insn	4, 0x3c84048b
    80003dbe:	c08404fb          	.insn	4, 0xc08404fb
    80003dc2:	9cd9058b          	.insn	4, 0x9cd9058b
    80003dc6:	7ce4058b          	.insn	4, 0x7ce4058b
    80003dca:	5c84058b          	.insn	4, 0x5c84058b
    80003dce:	3c84058b          	.insn	4, 0x3c84058b
    80003dd2:	c08405fb          	.insn	4, 0xc08405fb
    80003dd6:	7aa63c23          	sd	a0,1976(a2)
    80003dda:	7c963023          	sd	s1,1984(a2)
    80003dde:	7c84050b          	.insn	4, 0x7c84050b
    80003de2:	5c84050b          	.insn	4, 0x5c84050b
    80003de6:	3c84050b          	.insn	4, 0x3c84050b
    80003dea:	c084057b          	.insn	4, 0xc084057b
    80003dee:	080c3483          	ld	s1,128(s8)
    80003df2:	7cb63423          	sd	a1,1992(a2)
    80003df6:	9cdc858b          	.insn	4, 0x9cdc858b
    80003dfa:	7c84058b          	.insn	4, 0x7c84058b
    80003dfe:	5c84058b          	.insn	4, 0x5c84058b
    80003e02:	3c84058b          	.insn	4, 0x3c84058b
    80003e06:	c08485fb          	.insn	4, 0xc08485fb
    80003e0a:	7ca63823          	sd	a0,2000(a2)
    80003e0e:	9cdd050b          	.insn	4, 0x9cdd050b
    80003e12:	7c84050b          	.insn	4, 0x7c84050b
    80003e16:	5c84050b          	.insn	4, 0x5c84050b
    80003e1a:	3c84050b          	.insn	4, 0x3c84050b
    80003e1e:	c094857b          	.insn	4, 0xc094857b
    80003e22:	7cb63c23          	sd	a1,2008(a2)
    80003e26:	9cdd858b          	.insn	4, 0x9cdd858b
    80003e2a:	7c84058b          	.insn	4, 0x7c84058b
    80003e2e:	5c84058b          	.insn	4, 0x5c84058b
    80003e32:	3c84858b          	.insn	4, 0x3c84858b
    80003e36:	c09485fb          	.insn	4, 0xc09485fb
    80003e3a:	7ea63023          	sd	a0,2016(a2)
    80003e3e:	7c84050b          	.insn	4, 0x7c84050b
    80003e42:	5c84050b          	.insn	4, 0x5c84050b
    80003e46:	3c94850b          	.insn	4, 0x3c94850b
    80003e4a:	c094857b          	.insn	4, 0xc094857b
    80003e4e:	7eb63423          	sd	a1,2024(a2)
    80003e52:	9cd0858b          	.insn	4, 0x9cd0858b
    80003e56:	7c84058b          	.insn	4, 0x7c84058b
    80003e5a:	5c84858b          	.insn	4, 0x5c84858b
    80003e5e:	3c94858b          	.insn	4, 0x3c94858b
    80003e62:	c09485fb          	.insn	4, 0xc09485fb
    80003e66:	7ea63823          	sd	a0,2032(a2)
    80003e6a:	9cd8050b          	.insn	4, 0x9cd8050b
    80003e6e:	7c84050b          	.insn	4, 0x7c84050b
    80003e72:	5c94850b          	.insn	4, 0x5c94850b
    80003e76:	3c94850b          	.insn	4, 0x3c94850b
    80003e7a:	c094857b          	.insn	4, 0xc094857b
    80003e7e:	9cd9070b          	.insn	4, 0x9cd9070b
    80003e82:	7c84870b          	.insn	4, 0x7c84870b
    80003e86:	5c94870b          	.insn	4, 0x5c94870b
    80003e8a:	3c94870b          	.insn	4, 0x3c94870b
    80003e8e:	c094877b          	.insn	4, 0xc094877b
    80003e92:	7eb63c23          	sd	a1,2040(a2)
    80003e96:	fba8                	sd	a0,112(a5)
    80003e98:	7c94850b          	.insn	4, 0x7c94850b
    80003e9c:	5c94850b          	.insn	4, 0x5c94850b
    80003ea0:	3c94850b          	.insn	4, 0x3c94850b
    80003ea4:	c094857b          	.insn	4, 0xc094857b
    80003ea8:	0c0c3403          	ld	s0,192(s8)
    80003eac:	ffb8                	sd	a4,120(a5)
    80003eae:	9cdc858b          	.insn	4, 0x9cdc858b
    80003eb2:	7c94858b          	.insn	4, 0x7c94858b
    80003eb6:	5c94858b          	.insn	4, 0x5c94858b
    80003eba:	3c94858b          	.insn	4, 0x3c94858b
    80003ebe:	c09405fb          	.insn	4, 0xc09405fb
    80003ec2:	e3c8                	sd	a0,128(a5)
    80003ec4:	9cdd050b          	.insn	4, 0x9cdd050b
    80003ec8:	7c94850b          	.insn	4, 0x7c94850b
    80003ecc:	5c94850b          	.insn	4, 0x5c94850b
    80003ed0:	3c94850b          	.insn	4, 0x3c94850b
    80003ed4:	c084057b          	.insn	4, 0xc084057b
    80003ed8:	e7cc                	sd	a1,136(a5)
    80003eda:	9cdd858b          	.insn	4, 0x9cdd858b
    80003ede:	7c94858b          	.insn	4, 0x7c94858b
    80003ee2:	5c94858b          	.insn	4, 0x5c94858b
    80003ee6:	3c94058b          	.insn	4, 0x3c94058b
    80003eea:	c08405fb          	.insn	4, 0xc08405fb
    80003eee:	ebc8                	sd	a0,144(a5)
    80003ef0:	7c94850b          	.insn	4, 0x7c94850b
    80003ef4:	5c94850b          	.insn	4, 0x5c94850b
    80003ef8:	3c84050b          	.insn	4, 0x3c84050b
    80003efc:	c084057b          	.insn	4, 0xc084057b
    80003f00:	efcc                	sd	a1,152(a5)
    80003f02:	9cd0858b          	.insn	4, 0x9cd0858b
    80003f06:	7c94858b          	.insn	4, 0x7c94858b
    80003f0a:	5c94058b          	.insn	4, 0x5c94058b
    80003f0e:	3c84058b          	.insn	4, 0x3c84058b
    80003f12:	c08405fb          	.insn	4, 0xc08405fb
    80003f16:	f3c8                	sd	a0,160(a5)
    80003f18:	9cd8050b          	.insn	4, 0x9cd8050b
    80003f1c:	7c94850b          	.insn	4, 0x7c94850b
    80003f20:	5c84050b          	.insn	4, 0x5c84050b
    80003f24:	3c84050b          	.insn	4, 0x3c84050b
    80003f28:	c084057b          	.insn	4, 0xc084057b
    80003f2c:	9cd9070b          	.insn	4, 0x9cd9070b
    80003f30:	7c94070b          	.insn	4, 0x7c94070b
    80003f34:	5c84070b          	.insn	4, 0x5c84070b
    80003f38:	3c84070b          	.insn	4, 0x3c84070b
    80003f3c:	c084077b          	.insn	4, 0xc084077b
    80003f40:	f7cc                	sd	a1,168(a5)
    80003f42:	fbc8                	sd	a0,176(a5)
    80003f44:	7c84050b          	.insn	4, 0x7c84050b
    80003f48:	5c84050b          	.insn	4, 0x5c84050b
    80003f4c:	3c84050b          	.insn	4, 0x3c84050b
    80003f50:	c084057b          	.insn	4, 0xc084057b
    80003f54:	100c3483          	ld	s1,256(s8)
    80003f58:	ffd8                	sd	a4,184(a5)
    80003f5a:	9cdc858b          	.insn	4, 0x9cdc858b
    80003f5e:	7c84058b          	.insn	4, 0x7c84058b
    80003f62:	5c84058b          	.insn	4, 0x5c84058b
    80003f66:	3c84058b          	.insn	4, 0x3c84058b
    80003f6a:	c08485fb          	.insn	4, 0xc08485fb
    80003f6e:	e3e8                	sd	a0,192(a5)
    80003f70:	9cdd050b          	.insn	4, 0x9cdd050b
    80003f74:	7c84050b          	.insn	4, 0x7c84050b
    80003f78:	5c84050b          	.insn	4, 0x5c84050b
    80003f7c:	3c84050b          	.insn	4, 0x3c84050b
    80003f80:	c094857b          	.insn	4, 0xc094857b
    80003f84:	e7ec                	sd	a1,200(a5)
    80003f86:	9cdd858b          	.insn	4, 0x9cdd858b
    80003f8a:	7c84058b          	.insn	4, 0x7c84058b
    80003f8e:	5c84058b          	.insn	4, 0x5c84058b
    80003f92:	3c84858b          	.insn	4, 0x3c84858b
    80003f96:	c09485fb          	.insn	4, 0xc09485fb
    80003f9a:	ebe8                	sd	a0,208(a5)
    80003f9c:	7c84050b          	.insn	4, 0x7c84050b
    80003fa0:	5c84050b          	.insn	4, 0x5c84050b
    80003fa4:	3c94850b          	.insn	4, 0x3c94850b
    80003fa8:	c094857b          	.insn	4, 0xc094857b
    80003fac:	efec                	sd	a1,216(a5)
    80003fae:	9cd0858b          	.insn	4, 0x9cd0858b
    80003fb2:	7c84058b          	.insn	4, 0x7c84058b
    80003fb6:	5c84858b          	.insn	4, 0x5c84858b
    80003fba:	3c94858b          	.insn	4, 0x3c94858b
    80003fbe:	c09485fb          	.insn	4, 0xc09485fb
    80003fc2:	f3e8                	sd	a0,224(a5)
    80003fc4:	9cd8050b          	.insn	4, 0x9cd8050b
    80003fc8:	7c84050b          	.insn	4, 0x7c84050b
    80003fcc:	5c94850b          	.insn	4, 0x5c94850b
    80003fd0:	3c94850b          	.insn	4, 0x3c94850b
    80003fd4:	c094857b          	.insn	4, 0xc094857b
    80003fd8:	9cd9070b          	.insn	4, 0x9cd9070b
    80003fdc:	7c84870b          	.insn	4, 0x7c84870b
    80003fe0:	5c94870b          	.insn	4, 0x5c94870b
    80003fe4:	3c94870b          	.insn	4, 0x3c94870b
    80003fe8:	c094877b          	.insn	4, 0xc094877b
    80003fec:	f7ec                	sd	a1,232(a5)
    80003fee:	fbe8                	sd	a0,240(a5)
    80003ff0:	7c94850b          	.insn	4, 0x7c94850b
    80003ff4:	5c94850b          	.insn	4, 0x5c94850b
    80003ff8:	3c94850b          	.insn	4, 0x3c94850b
    80003ffc:	c094857b          	.insn	4, 0xc094857b
    80004000:	140c3403          	ld	s0,320(s8)
    80004004:	fff8                	sd	a4,248(a5)
    80004006:	9cdc858b          	.insn	4, 0x9cdc858b
    8000400a:	7c94858b          	.insn	4, 0x7c94858b
    8000400e:	5c94858b          	.insn	4, 0x5c94858b
    80004012:	3c94858b          	.insn	4, 0x3c94858b
    80004016:	c09405fb          	.insn	4, 0xc09405fb
    8000401a:	10a7b023          	sd	a0,256(a5)
    8000401e:	9cdd050b          	.insn	4, 0x9cdd050b
    80004022:	7c94850b          	.insn	4, 0x7c94850b
    80004026:	5c94850b          	.insn	4, 0x5c94850b
    8000402a:	3c94850b          	.insn	4, 0x3c94850b
    8000402e:	c084057b          	.insn	4, 0xc084057b
    80004032:	10b7b423          	sd	a1,264(a5)
    80004036:	9cdd858b          	.insn	4, 0x9cdd858b
    8000403a:	7c94858b          	.insn	4, 0x7c94858b
    8000403e:	5c94858b          	.insn	4, 0x5c94858b
    80004042:	3c94058b          	.insn	4, 0x3c94058b
    80004046:	c08405fb          	.insn	4, 0xc08405fb
    8000404a:	10a7b823          	sd	a0,272(a5)
    8000404e:	7c94850b          	.insn	4, 0x7c94850b
    80004052:	5c94850b          	.insn	4, 0x5c94850b
    80004056:	3c84050b          	.insn	4, 0x3c84050b
    8000405a:	c084057b          	.insn	4, 0xc084057b
    8000405e:	10b7bc23          	sd	a1,280(a5)
    80004062:	9cd0858b          	.insn	4, 0x9cd0858b
    80004066:	7c94858b          	.insn	4, 0x7c94858b
    8000406a:	5c94058b          	.insn	4, 0x5c94058b
    8000406e:	3c84058b          	.insn	4, 0x3c84058b
    80004072:	c08405fb          	.insn	4, 0xc08405fb
    80004076:	12a7b023          	sd	a0,288(a5)
    8000407a:	9cd8050b          	.insn	4, 0x9cd8050b
    8000407e:	7c94850b          	.insn	4, 0x7c94850b
    80004082:	5c84050b          	.insn	4, 0x5c84050b
    80004086:	3c84050b          	.insn	4, 0x3c84050b
    8000408a:	c084057b          	.insn	4, 0xc084057b
    8000408e:	9cd9070b          	.insn	4, 0x9cd9070b
    80004092:	7c94070b          	.insn	4, 0x7c94070b
    80004096:	5c84070b          	.insn	4, 0x5c84070b
    8000409a:	3c84070b          	.insn	4, 0x3c84070b
    8000409e:	c084077b          	.insn	4, 0xc084077b
    800040a2:	12b7b423          	sd	a1,296(a5)
    800040a6:	12a7b823          	sd	a0,304(a5)
    800040aa:	7c84050b          	.insn	4, 0x7c84050b
    800040ae:	5c84050b          	.insn	4, 0x5c84050b
    800040b2:	3c84050b          	.insn	4, 0x3c84050b
    800040b6:	c084057b          	.insn	4, 0xc084057b
    800040ba:	180c3483          	ld	s1,384(s8)
    800040be:	12e7bc23          	sd	a4,312(a5)
    800040c2:	9cdc858b          	.insn	4, 0x9cdc858b
    800040c6:	7c84058b          	.insn	4, 0x7c84058b
    800040ca:	5c84058b          	.insn	4, 0x5c84058b
    800040ce:	3c84058b          	.insn	4, 0x3c84058b
    800040d2:	c08485fb          	.insn	4, 0xc08485fb
    800040d6:	14a7b023          	sd	a0,320(a5)
    800040da:	9cdd050b          	.insn	4, 0x9cdd050b
    800040de:	7c84050b          	.insn	4, 0x7c84050b
    800040e2:	5c84050b          	.insn	4, 0x5c84050b
    800040e6:	3c84050b          	.insn	4, 0x3c84050b
    800040ea:	c094857b          	.insn	4, 0xc094857b
    800040ee:	14b7b423          	sd	a1,328(a5)
    800040f2:	9cdd858b          	.insn	4, 0x9cdd858b
    800040f6:	7c84058b          	.insn	4, 0x7c84058b
    800040fa:	5c84058b          	.insn	4, 0x5c84058b
    800040fe:	3c84858b          	.insn	4, 0x3c84858b
    80004102:	c09485fb          	.insn	4, 0xc09485fb
    80004106:	14a7b823          	sd	a0,336(a5)
    8000410a:	7c84050b          	.insn	4, 0x7c84050b
    8000410e:	5c84050b          	.insn	4, 0x5c84050b
    80004112:	3c94850b          	.insn	4, 0x3c94850b
    80004116:	c094857b          	.insn	4, 0xc094857b
    8000411a:	14b7bc23          	sd	a1,344(a5)
    8000411e:	9cd0858b          	.insn	4, 0x9cd0858b
    80004122:	7c84058b          	.insn	4, 0x7c84058b
    80004126:	5c84858b          	.insn	4, 0x5c84858b
    8000412a:	3c94858b          	.insn	4, 0x3c94858b
    8000412e:	c09485fb          	.insn	4, 0xc09485fb
    80004132:	16a7b023          	sd	a0,352(a5)
    80004136:	9cd8050b          	.insn	4, 0x9cd8050b
    8000413a:	7c84050b          	.insn	4, 0x7c84050b
    8000413e:	5c94850b          	.insn	4, 0x5c94850b
    80004142:	3c94850b          	.insn	4, 0x3c94850b
    80004146:	c094857b          	.insn	4, 0xc094857b
    8000414a:	9cd9070b          	.insn	4, 0x9cd9070b
    8000414e:	7c84870b          	.insn	4, 0x7c84870b
    80004152:	5c94870b          	.insn	4, 0x5c94870b
    80004156:	3c94870b          	.insn	4, 0x3c94870b
    8000415a:	c094877b          	.insn	4, 0xc094877b
    8000415e:	16b7b423          	sd	a1,360(a5)
    80004162:	16a7b823          	sd	a0,368(a5)
    80004166:	7c94850b          	.insn	4, 0x7c94850b
    8000416a:	5c94850b          	.insn	4, 0x5c94850b
    8000416e:	3c94850b          	.insn	4, 0x3c94850b
    80004172:	c094857b          	.insn	4, 0xc094857b
    80004176:	1c0c3403          	ld	s0,448(s8)
    8000417a:	16e7bc23          	sd	a4,376(a5)
    8000417e:	9cdc858b          	.insn	4, 0x9cdc858b
    80004182:	7c94858b          	.insn	4, 0x7c94858b
    80004186:	5c94858b          	.insn	4, 0x5c94858b
    8000418a:	3c94858b          	.insn	4, 0x3c94858b
    8000418e:	c09405fb          	.insn	4, 0xc09405fb
    80004192:	18a7b023          	sd	a0,384(a5)
    80004196:	9cdd050b          	.insn	4, 0x9cdd050b
    8000419a:	7c94850b          	.insn	4, 0x7c94850b
    8000419e:	5c94850b          	.insn	4, 0x5c94850b
    800041a2:	3c94850b          	.insn	4, 0x3c94850b
    800041a6:	c084057b          	.insn	4, 0xc084057b
    800041aa:	18b7b423          	sd	a1,392(a5)
    800041ae:	9cdd858b          	.insn	4, 0x9cdd858b
    800041b2:	7c94858b          	.insn	4, 0x7c94858b
    800041b6:	5c94858b          	.insn	4, 0x5c94858b
    800041ba:	3c94058b          	.insn	4, 0x3c94058b
    800041be:	c08405fb          	.insn	4, 0xc08405fb
    800041c2:	18a7b823          	sd	a0,400(a5)
    800041c6:	7c94850b          	.insn	4, 0x7c94850b
    800041ca:	5c94850b          	.insn	4, 0x5c94850b
    800041ce:	3c84050b          	.insn	4, 0x3c84050b
    800041d2:	c084057b          	.insn	4, 0xc084057b
    800041d6:	18b7bc23          	sd	a1,408(a5)
    800041da:	9cd0858b          	.insn	4, 0x9cd0858b
    800041de:	7c94858b          	.insn	4, 0x7c94858b
    800041e2:	5c94058b          	.insn	4, 0x5c94058b
    800041e6:	3c84058b          	.insn	4, 0x3c84058b
    800041ea:	c08405fb          	.insn	4, 0xc08405fb
    800041ee:	1aa7b023          	sd	a0,416(a5)
    800041f2:	9cd8050b          	.insn	4, 0x9cd8050b
    800041f6:	7c94850b          	.insn	4, 0x7c94850b
    800041fa:	5c84050b          	.insn	4, 0x5c84050b
    800041fe:	3c84050b          	.insn	4, 0x3c84050b
    80004202:	c084057b          	.insn	4, 0xc084057b
    80004206:	9cd9070b          	.insn	4, 0x9cd9070b
    8000420a:	7c94070b          	.insn	4, 0x7c94070b
    8000420e:	5c84070b          	.insn	4, 0x5c84070b
    80004212:	3c84070b          	.insn	4, 0x3c84070b
    80004216:	c084077b          	.insn	4, 0xc084077b
    8000421a:	1ab7b423          	sd	a1,424(a5)
    8000421e:	1aa7b823          	sd	a0,432(a5)
    80004222:	7c84050b          	.insn	4, 0x7c84050b
    80004226:	5c84050b          	.insn	4, 0x5c84050b
    8000422a:	3c84050b          	.insn	4, 0x3c84050b
    8000422e:	c084057b          	.insn	4, 0xc084057b
    80004232:	200c3483          	ld	s1,512(s8)
    80004236:	1ae7bc23          	sd	a4,440(a5)
    8000423a:	9cdc858b          	.insn	4, 0x9cdc858b
    8000423e:	7c84058b          	.insn	4, 0x7c84058b
    80004242:	5c84058b          	.insn	4, 0x5c84058b
    80004246:	3c84058b          	.insn	4, 0x3c84058b
    8000424a:	c08485fb          	.insn	4, 0xc08485fb
    8000424e:	1ca7b023          	sd	a0,448(a5)
    80004252:	9cdd050b          	.insn	4, 0x9cdd050b
    80004256:	7c84050b          	.insn	4, 0x7c84050b
    8000425a:	5c84050b          	.insn	4, 0x5c84050b
    8000425e:	3c84050b          	.insn	4, 0x3c84050b
    80004262:	c094857b          	.insn	4, 0xc094857b
    80004266:	1cb7b423          	sd	a1,456(a5)
    8000426a:	9cdd858b          	.insn	4, 0x9cdd858b
    8000426e:	7c84058b          	.insn	4, 0x7c84058b
    80004272:	5c84058b          	.insn	4, 0x5c84058b
    80004276:	3c84858b          	.insn	4, 0x3c84858b
    8000427a:	c09485fb          	.insn	4, 0xc09485fb
    8000427e:	1ca7b823          	sd	a0,464(a5)
    80004282:	7c84050b          	.insn	4, 0x7c84050b
    80004286:	5c84050b          	.insn	4, 0x5c84050b
    8000428a:	3c94850b          	.insn	4, 0x3c94850b
    8000428e:	c094857b          	.insn	4, 0xc094857b
    80004292:	1cb7bc23          	sd	a1,472(a5)
    80004296:	9cd0858b          	.insn	4, 0x9cd0858b
    8000429a:	7c84058b          	.insn	4, 0x7c84058b
    8000429e:	5c84858b          	.insn	4, 0x5c84858b
    800042a2:	3c94858b          	.insn	4, 0x3c94858b
    800042a6:	c09485fb          	.insn	4, 0xc09485fb
    800042aa:	1ea7b023          	sd	a0,480(a5)
    800042ae:	9cd8050b          	.insn	4, 0x9cd8050b
    800042b2:	7c84050b          	.insn	4, 0x7c84050b
    800042b6:	5c94850b          	.insn	4, 0x5c94850b
    800042ba:	3c94850b          	.insn	4, 0x3c94850b
    800042be:	c094857b          	.insn	4, 0xc094857b
    800042c2:	9cd9070b          	.insn	4, 0x9cd9070b
    800042c6:	7c84870b          	.insn	4, 0x7c84870b
    800042ca:	5c94870b          	.insn	4, 0x5c94870b
    800042ce:	3c94870b          	.insn	4, 0x3c94870b
    800042d2:	c094877b          	.insn	4, 0xc094877b
    800042d6:	1eb7b423          	sd	a1,488(a5)
    800042da:	1ea7b823          	sd	a0,496(a5)
    800042de:	7c94850b          	.insn	4, 0x7c94850b
    800042e2:	5c94850b          	.insn	4, 0x5c94850b
    800042e6:	3c94850b          	.insn	4, 0x3c94850b
    800042ea:	c094857b          	.insn	4, 0xc094857b
    800042ee:	240c3403          	ld	s0,576(s8)
    800042f2:	1ee7bc23          	sd	a4,504(a5)
    800042f6:	9cdc858b          	.insn	4, 0x9cdc858b
    800042fa:	7c94858b          	.insn	4, 0x7c94858b
    800042fe:	5c94858b          	.insn	4, 0x5c94858b
    80004302:	3c94858b          	.insn	4, 0x3c94858b
    80004306:	c09405fb          	.insn	4, 0xc09405fb
    8000430a:	20a7b023          	sd	a0,512(a5)
    8000430e:	9cdd050b          	.insn	4, 0x9cdd050b
    80004312:	7c94850b          	.insn	4, 0x7c94850b
    80004316:	5c94850b          	.insn	4, 0x5c94850b
    8000431a:	3c94850b          	.insn	4, 0x3c94850b
    8000431e:	c084057b          	.insn	4, 0xc084057b
    80004322:	20b7b423          	sd	a1,520(a5)
    80004326:	9cdd858b          	.insn	4, 0x9cdd858b
    8000432a:	7c94858b          	.insn	4, 0x7c94858b
    8000432e:	5c94858b          	.insn	4, 0x5c94858b
    80004332:	3c94058b          	.insn	4, 0x3c94058b
    80004336:	c08405fb          	.insn	4, 0xc08405fb
    8000433a:	20a7b823          	sd	a0,528(a5)
    8000433e:	7c94850b          	.insn	4, 0x7c94850b
    80004342:	5c94850b          	.insn	4, 0x5c94850b
    80004346:	3c84050b          	.insn	4, 0x3c84050b
    8000434a:	c084057b          	.insn	4, 0xc084057b
    8000434e:	20b7bc23          	sd	a1,536(a5)
    80004352:	9cd0858b          	.insn	4, 0x9cd0858b
    80004356:	7c94858b          	.insn	4, 0x7c94858b
    8000435a:	5c94058b          	.insn	4, 0x5c94058b
    8000435e:	3c84058b          	.insn	4, 0x3c84058b
    80004362:	c08405fb          	.insn	4, 0xc08405fb
    80004366:	22a7b023          	sd	a0,544(a5)
    8000436a:	9cd8050b          	.insn	4, 0x9cd8050b
    8000436e:	7c94850b          	.insn	4, 0x7c94850b
    80004372:	5c84050b          	.insn	4, 0x5c84050b
    80004376:	3c84050b          	.insn	4, 0x3c84050b
    8000437a:	c084057b          	.insn	4, 0xc084057b
    8000437e:	9cd9070b          	.insn	4, 0x9cd9070b
    80004382:	7c94070b          	.insn	4, 0x7c94070b
    80004386:	5c84070b          	.insn	4, 0x5c84070b
    8000438a:	3c84070b          	.insn	4, 0x3c84070b
    8000438e:	c084077b          	.insn	4, 0xc084077b
    80004392:	22b7b423          	sd	a1,552(a5)
    80004396:	22a7b823          	sd	a0,560(a5)
    8000439a:	7c84050b          	.insn	4, 0x7c84050b
    8000439e:	5c84050b          	.insn	4, 0x5c84050b
    800043a2:	3c84050b          	.insn	4, 0x3c84050b
    800043a6:	c084057b          	.insn	4, 0xc084057b
    800043aa:	280c3483          	ld	s1,640(s8)
    800043ae:	22e7bc23          	sd	a4,568(a5)
    800043b2:	9cdc858b          	.insn	4, 0x9cdc858b
    800043b6:	7c84058b          	.insn	4, 0x7c84058b
    800043ba:	5c84058b          	.insn	4, 0x5c84058b
    800043be:	3c84058b          	.insn	4, 0x3c84058b
    800043c2:	c08485fb          	.insn	4, 0xc08485fb
    800043c6:	24a7b023          	sd	a0,576(a5)
    800043ca:	9cdd050b          	.insn	4, 0x9cdd050b
    800043ce:	7c84050b          	.insn	4, 0x7c84050b
    800043d2:	5c84050b          	.insn	4, 0x5c84050b
    800043d6:	3c84050b          	.insn	4, 0x3c84050b
    800043da:	c094857b          	.insn	4, 0xc094857b
    800043de:	24b7b423          	sd	a1,584(a5)
    800043e2:	9cdd858b          	.insn	4, 0x9cdd858b
    800043e6:	7c84058b          	.insn	4, 0x7c84058b
    800043ea:	5c84058b          	.insn	4, 0x5c84058b
    800043ee:	3c84858b          	.insn	4, 0x3c84858b
    800043f2:	c09485fb          	.insn	4, 0xc09485fb
    800043f6:	24a7b823          	sd	a0,592(a5)
    800043fa:	7c84050b          	.insn	4, 0x7c84050b
    800043fe:	5c84050b          	.insn	4, 0x5c84050b
    80004402:	3c94850b          	.insn	4, 0x3c94850b
    80004406:	c094857b          	.insn	4, 0xc094857b
    8000440a:	24b7bc23          	sd	a1,600(a5)
    8000440e:	9cd0858b          	.insn	4, 0x9cd0858b
    80004412:	7c84058b          	.insn	4, 0x7c84058b
    80004416:	5c84858b          	.insn	4, 0x5c84858b
    8000441a:	3c94858b          	.insn	4, 0x3c94858b
    8000441e:	c09485fb          	.insn	4, 0xc09485fb
    80004422:	26a7b023          	sd	a0,608(a5)
    80004426:	9cd8050b          	.insn	4, 0x9cd8050b
    8000442a:	7c84050b          	.insn	4, 0x7c84050b
    8000442e:	5c94850b          	.insn	4, 0x5c94850b
    80004432:	3c94850b          	.insn	4, 0x3c94850b
    80004436:	c094857b          	.insn	4, 0xc094857b
    8000443a:	9cd9070b          	.insn	4, 0x9cd9070b
    8000443e:	7c84870b          	.insn	4, 0x7c84870b
    80004442:	5c94870b          	.insn	4, 0x5c94870b
    80004446:	3c94870b          	.insn	4, 0x3c94870b
    8000444a:	c094877b          	.insn	4, 0xc094877b
    8000444e:	26b7b423          	sd	a1,616(a5)
    80004452:	26a7b823          	sd	a0,624(a5)
    80004456:	7c94850b          	.insn	4, 0x7c94850b
    8000445a:	5c94850b          	.insn	4, 0x5c94850b
    8000445e:	3c94850b          	.insn	4, 0x3c94850b
    80004462:	c094857b          	.insn	4, 0xc094857b
    80004466:	2c0c3403          	ld	s0,704(s8)
    8000446a:	26e7bc23          	sd	a4,632(a5)
    8000446e:	9cdc858b          	.insn	4, 0x9cdc858b
    80004472:	7c94858b          	.insn	4, 0x7c94858b
    80004476:	5c94858b          	.insn	4, 0x5c94858b
    8000447a:	3c94858b          	.insn	4, 0x3c94858b
    8000447e:	c09405fb          	.insn	4, 0xc09405fb
    80004482:	28a7b023          	sd	a0,640(a5)
    80004486:	9cdd050b          	.insn	4, 0x9cdd050b
    8000448a:	7c94850b          	.insn	4, 0x7c94850b
    8000448e:	5c94850b          	.insn	4, 0x5c94850b
    80004492:	3c94850b          	.insn	4, 0x3c94850b
    80004496:	c084057b          	.insn	4, 0xc084057b
    8000449a:	28b7b423          	sd	a1,648(a5)
    8000449e:	9cdd858b          	.insn	4, 0x9cdd858b
    800044a2:	7c94858b          	.insn	4, 0x7c94858b
    800044a6:	5c94858b          	.insn	4, 0x5c94858b
    800044aa:	3c94058b          	.insn	4, 0x3c94058b
    800044ae:	c08405fb          	.insn	4, 0xc08405fb
    800044b2:	28a7b823          	sd	a0,656(a5)
    800044b6:	7c94850b          	.insn	4, 0x7c94850b
    800044ba:	5c94850b          	.insn	4, 0x5c94850b
    800044be:	3c84050b          	.insn	4, 0x3c84050b
    800044c2:	c084057b          	.insn	4, 0xc084057b
    800044c6:	28b7bc23          	sd	a1,664(a5)
    800044ca:	9cd0858b          	.insn	4, 0x9cd0858b
    800044ce:	7c94858b          	.insn	4, 0x7c94858b
    800044d2:	5c94058b          	.insn	4, 0x5c94058b
    800044d6:	3c84058b          	.insn	4, 0x3c84058b
    800044da:	c08405fb          	.insn	4, 0xc08405fb
    800044de:	2aa7b023          	sd	a0,672(a5)
    800044e2:	9cd8050b          	.insn	4, 0x9cd8050b
    800044e6:	7c94850b          	.insn	4, 0x7c94850b
    800044ea:	5c84050b          	.insn	4, 0x5c84050b
    800044ee:	3c84050b          	.insn	4, 0x3c84050b
    800044f2:	c084057b          	.insn	4, 0xc084057b
    800044f6:	9cd9070b          	.insn	4, 0x9cd9070b
    800044fa:	7c94070b          	.insn	4, 0x7c94070b
    800044fe:	5c84070b          	.insn	4, 0x5c84070b
    80004502:	3c84070b          	.insn	4, 0x3c84070b
    80004506:	c084077b          	.insn	4, 0xc084077b
    8000450a:	2ab7b423          	sd	a1,680(a5)
    8000450e:	2aa7b823          	sd	a0,688(a5)
    80004512:	7c84050b          	.insn	4, 0x7c84050b
    80004516:	5c84050b          	.insn	4, 0x5c84050b
    8000451a:	3c84050b          	.insn	4, 0x3c84050b
    8000451e:	c084057b          	.insn	4, 0xc084057b
    80004522:	300c3483          	ld	s1,768(s8)
    80004526:	2ae7bc23          	sd	a4,696(a5)
    8000452a:	9cdc858b          	.insn	4, 0x9cdc858b
    8000452e:	7c84058b          	.insn	4, 0x7c84058b
    80004532:	5c84058b          	.insn	4, 0x5c84058b
    80004536:	3c84058b          	.insn	4, 0x3c84058b
    8000453a:	c08485fb          	.insn	4, 0xc08485fb
    8000453e:	2ca7b023          	sd	a0,704(a5)
    80004542:	9cdd050b          	.insn	4, 0x9cdd050b
    80004546:	7c84050b          	.insn	4, 0x7c84050b
    8000454a:	5c84050b          	.insn	4, 0x5c84050b
    8000454e:	3c84050b          	.insn	4, 0x3c84050b
    80004552:	c094857b          	.insn	4, 0xc094857b
    80004556:	2cb7b423          	sd	a1,712(a5)
    8000455a:	9cdd858b          	.insn	4, 0x9cdd858b
    8000455e:	7c84058b          	.insn	4, 0x7c84058b
    80004562:	5c84058b          	.insn	4, 0x5c84058b
    80004566:	3c84858b          	.insn	4, 0x3c84858b
    8000456a:	c09485fb          	.insn	4, 0xc09485fb
    8000456e:	2ca7b823          	sd	a0,720(a5)
    80004572:	7c84050b          	.insn	4, 0x7c84050b
    80004576:	5c84050b          	.insn	4, 0x5c84050b
    8000457a:	3c94850b          	.insn	4, 0x3c94850b
    8000457e:	c094857b          	.insn	4, 0xc094857b
    80004582:	2cb7bc23          	sd	a1,728(a5)
    80004586:	9cd0858b          	.insn	4, 0x9cd0858b
    8000458a:	7c84058b          	.insn	4, 0x7c84058b
    8000458e:	5c84858b          	.insn	4, 0x5c84858b
    80004592:	3c94858b          	.insn	4, 0x3c94858b
    80004596:	c09485fb          	.insn	4, 0xc09485fb
    8000459a:	2ea7b023          	sd	a0,736(a5)
    8000459e:	9cd8050b          	.insn	4, 0x9cd8050b
    800045a2:	7c84050b          	.insn	4, 0x7c84050b
    800045a6:	5c94850b          	.insn	4, 0x5c94850b
    800045aa:	3c94850b          	.insn	4, 0x3c94850b
    800045ae:	c094857b          	.insn	4, 0xc094857b
    800045b2:	9cd9070b          	.insn	4, 0x9cd9070b
    800045b6:	7c84870b          	.insn	4, 0x7c84870b
    800045ba:	5c94870b          	.insn	4, 0x5c94870b
    800045be:	3c94870b          	.insn	4, 0x3c94870b
    800045c2:	c094847b          	.insn	4, 0xc094847b
    800045c6:	2eb7b423          	sd	a1,744(a5)
    800045ca:	2ea7b823          	sd	a0,752(a5)
    800045ce:	7c94850b          	.insn	4, 0x7c94850b
    800045d2:	5c94850b          	.insn	4, 0x5c94850b
    800045d6:	3c94850b          	.insn	4, 0x3c94850b
    800045da:	c094857b          	.insn	4, 0xc094857b
    800045de:	340c3703          	ld	a4,832(s8)
    800045e2:	2e87bc23          	sd	s0,760(a5)
    800045e6:	9cdc858b          	.insn	4, 0x9cdc858b
    800045ea:	7c94858b          	.insn	4, 0x7c94858b
    800045ee:	5c94858b          	.insn	4, 0x5c94858b
    800045f2:	3c94858b          	.insn	4, 0x3c94858b
    800045f6:	c09705fb          	.insn	4, 0xc09705fb
    800045fa:	30a7b023          	sd	a0,768(a5)
    800045fe:	9cdd050b          	.insn	4, 0x9cdd050b
    80004602:	7c94850b          	.insn	4, 0x7c94850b
    80004606:	5c94850b          	.insn	4, 0x5c94850b
    8000460a:	3c94850b          	.insn	4, 0x3c94850b
    8000460e:	c0e7057b          	.insn	4, 0xc0e7057b
    80004612:	30b7b423          	sd	a1,776(a5)
    80004616:	9cdd858b          	.insn	4, 0x9cdd858b
    8000461a:	7c94858b          	.insn	4, 0x7c94858b
    8000461e:	5c94858b          	.insn	4, 0x5c94858b
    80004622:	3c97058b          	.insn	4, 0x3c97058b
    80004626:	c0e705fb          	.insn	4, 0xc0e705fb
    8000462a:	30a7b823          	sd	a0,784(a5)
    8000462e:	7c94850b          	.insn	4, 0x7c94850b
    80004632:	5c94850b          	.insn	4, 0x5c94850b
    80004636:	3ce7050b          	.insn	4, 0x3ce7050b
    8000463a:	c0e7057b          	.insn	4, 0xc0e7057b
    8000463e:	30b7bc23          	sd	a1,792(a5)
    80004642:	9cd0858b          	.insn	4, 0x9cd0858b
    80004646:	7c94858b          	.insn	4, 0x7c94858b
    8000464a:	5c97058b          	.insn	4, 0x5c97058b
    8000464e:	3ce7058b          	.insn	4, 0x3ce7058b
    80004652:	c0e705fb          	.insn	4, 0xc0e705fb
    80004656:	32a7b023          	sd	a0,800(a5)
    8000465a:	9cd8050b          	.insn	4, 0x9cd8050b
    8000465e:	7c94850b          	.insn	4, 0x7c94850b
    80004662:	5ce7050b          	.insn	4, 0x5ce7050b
    80004666:	3ce7050b          	.insn	4, 0x3ce7050b
    8000466a:	c0e7057b          	.insn	4, 0xc0e7057b
    8000466e:	9cd9040b          	.insn	4, 0x9cd9040b
    80004672:	7c97040b          	.insn	4, 0x7c97040b
    80004676:	5ce7040b          	.insn	4, 0x5ce7040b
    8000467a:	3ce7040b          	.insn	4, 0x3ce7040b
    8000467e:	c0e704fb          	.insn	4, 0xc0e704fb
    80004682:	32b7b423          	sd	a1,808(a5)
    80004686:	32a7b823          	sd	a0,816(a5)
    8000468a:	7ce7050b          	.insn	4, 0x7ce7050b
    8000468e:	5ce7050b          	.insn	4, 0x5ce7050b
    80004692:	3ce7050b          	.insn	4, 0x3ce7050b
    80004696:	c0e7057b          	.insn	4, 0xc0e7057b
    8000469a:	380c3403          	ld	s0,896(s8)
    8000469e:	3297bc23          	sd	s1,824(a5)
    800046a2:	9cdc858b          	.insn	4, 0x9cdc858b
    800046a6:	7ce7058b          	.insn	4, 0x7ce7058b
    800046aa:	5ce7058b          	.insn	4, 0x5ce7058b
    800046ae:	3ce7058b          	.insn	4, 0x3ce7058b
    800046b2:	c0e405fb          	.insn	4, 0xc0e405fb
    800046b6:	34a7b023          	sd	a0,832(a5)
    800046ba:	9cdd050b          	.insn	4, 0x9cdd050b
    800046be:	7ce7050b          	.insn	4, 0x7ce7050b
    800046c2:	5ce7050b          	.insn	4, 0x5ce7050b
    800046c6:	3ce7050b          	.insn	4, 0x3ce7050b
    800046ca:	c084057b          	.insn	4, 0xc084057b
    800046ce:	34b7b423          	sd	a1,840(a5)
    800046d2:	9cdd858b          	.insn	4, 0x9cdd858b
    800046d6:	7ce7058b          	.insn	4, 0x7ce7058b
    800046da:	5ce7058b          	.insn	4, 0x5ce7058b
    800046de:	3ce4058b          	.insn	4, 0x3ce4058b
    800046e2:	c08405fb          	.insn	4, 0xc08405fb
    800046e6:	34a7b823          	sd	a0,848(a5)
    800046ea:	7ce7050b          	.insn	4, 0x7ce7050b
    800046ee:	5ce7050b          	.insn	4, 0x5ce7050b
    800046f2:	3c84050b          	.insn	4, 0x3c84050b
    800046f6:	c084057b          	.insn	4, 0xc084057b
    800046fa:	34b7bc23          	sd	a1,856(a5)
    800046fe:	9cd0858b          	.insn	4, 0x9cd0858b
    80004702:	7ce7058b          	.insn	4, 0x7ce7058b
    80004706:	5ce4058b          	.insn	4, 0x5ce4058b
    8000470a:	3c84058b          	.insn	4, 0x3c84058b
    8000470e:	c08405fb          	.insn	4, 0xc08405fb
    80004712:	36a7b023          	sd	a0,864(a5)
    80004716:	9cd8050b          	.insn	4, 0x9cd8050b
    8000471a:	7ce7050b          	.insn	4, 0x7ce7050b
    8000471e:	5c84050b          	.insn	4, 0x5c84050b
    80004722:	3c84050b          	.insn	4, 0x3c84050b
    80004726:	c084057b          	.insn	4, 0xc084057b
    8000472a:	9cd9048b          	.insn	4, 0x9cd9048b
    8000472e:	7ce4070b          	.insn	4, 0x7ce4070b
    80004732:	5c84070b          	.insn	4, 0x5c84070b
    80004736:	3c84070b          	.insn	4, 0x3c84070b
    8000473a:	c084077b          	.insn	4, 0xc084077b
    8000473e:	36b7b423          	sd	a1,872(a5)
    80004742:	36a7b823          	sd	a0,880(a5)
    80004746:	7c84050b          	.insn	4, 0x7c84050b
    8000474a:	5c84050b          	.insn	4, 0x5c84050b
    8000474e:	3c84050b          	.insn	4, 0x3c84050b
    80004752:	c084057b          	.insn	4, 0xc084057b
    80004756:	3c0c3583          	ld	a1,960(s8)
    8000475a:	36e7bc23          	sd	a4,888(a5)
    8000475e:	9cdc870b          	.insn	4, 0x9cdc870b
    80004762:	7c84070b          	.insn	4, 0x7c84070b
    80004766:	5c84070b          	.insn	4, 0x5c84070b
    8000476a:	3c84070b          	.insn	4, 0x3c84070b
    8000476e:	c085877b          	.insn	4, 0xc085877b
    80004772:	38a7b023          	sd	a0,896(a5)
    80004776:	9cdd050b          	.insn	4, 0x9cdd050b
    8000477a:	7c84050b          	.insn	4, 0x7c84050b
    8000477e:	5c84050b          	.insn	4, 0x5c84050b
    80004782:	3c84050b          	.insn	4, 0x3c84050b
    80004786:	c0b5857b          	.insn	4, 0xc0b5857b
    8000478a:	38e7b423          	sd	a4,904(a5)
    8000478e:	9cdd870b          	.insn	4, 0x9cdd870b
    80004792:	7c84070b          	.insn	4, 0x7c84070b
    80004796:	5c84070b          	.insn	4, 0x5c84070b
    8000479a:	3c85870b          	.insn	4, 0x3c85870b
    8000479e:	c0b5877b          	.insn	4, 0xc0b5877b
    800047a2:	38a7b823          	sd	a0,912(a5)
    800047a6:	7c84050b          	.insn	4, 0x7c84050b
    800047aa:	5c84050b          	.insn	4, 0x5c84050b
    800047ae:	3cb5850b          	.insn	4, 0x3cb5850b
    800047b2:	c0b5857b          	.insn	4, 0xc0b5857b
    800047b6:	38e7bc23          	sd	a4,920(a5)
    800047ba:	9cd0870b          	.insn	4, 0x9cd0870b
    800047be:	7c84070b          	.insn	4, 0x7c84070b
    800047c2:	5c85870b          	.insn	4, 0x5c85870b
    800047c6:	3cb5870b          	.insn	4, 0x3cb5870b
    800047ca:	c0b5877b          	.insn	4, 0xc0b5877b
    800047ce:	9cd8048b          	.insn	4, 0x9cd8048b
    800047d2:	7c84048b          	.insn	4, 0x7c84048b
    800047d6:	5cb5848b          	.insn	4, 0x5cb5848b
    800047da:	3cb5848b          	.insn	4, 0x3cb5848b
    800047de:	c0b584fb          	.insn	4, 0xc0b584fb
    800047e2:	3aa7b023          	sd	a0,928(a5)
    800047e6:	3ae7b423          	sd	a4,936(a5)
    800047ea:	3a97b823          	sd	s1,944(a5)
    800047ee:	9cd9050b          	.insn	4, 0x9cd9050b
    800047f2:	7c85850b          	.insn	4, 0x7c85850b
    800047f6:	5cb5850b          	.insn	4, 0x5cb5850b
    800047fa:	3cb5850b          	.insn	4, 0x3cb5850b
    800047fe:	c0b5857b          	.insn	4, 0xc0b5857b
    80004802:	7cb5870b          	.insn	4, 0x7cb5870b
    80004806:	5cb5870b          	.insn	4, 0x5cb5870b
    8000480a:	3cb5870b          	.insn	4, 0x3cb5870b
    8000480e:	c0b5877b          	.insn	4, 0xc0b5877b
    80004812:	003b8593          	addi	a1,s7,3
    80004816:	05aa                	slli	a1,a1,0xa
    80004818:	00ba0e33          	add	t3,s4,a1
    8000481c:	000e3483          	ld	s1,0(t3)
    80004820:	7c94840b          	.insn	4, 0x7c94840b
    80004824:	5c94840b          	.insn	4, 0x5c94840b
    80004828:	3c94840b          	.insn	4, 0x3c94840b
    8000482c:	c0948b7b          	.insn	4, 0xc0948b7b
    80004830:	3aa7bc23          	sd	a0,952(a5)
    80004834:	3ce7b023          	sd	a4,960(a5)
    80004838:	040e3403          	ld	s0,64(t3)
    8000483c:	7ff60c13          	addi	s8,a2,2047
    80004840:	9cdc850b          	.insn	4, 0x9cdc850b
    80004844:	7c94850b          	.insn	4, 0x7c94850b
    80004848:	5c94850b          	.insn	4, 0x5c94850b
    8000484c:	3c94850b          	.insn	4, 0x3c94850b
    80004850:	c094057b          	.insn	4, 0xc094057b
    80004854:	359c0793          	addi	a5,s8,857
    80004858:	356c3ca3          	sd	s6,857(s8)
    8000485c:	9cdd070b          	.insn	4, 0x9cdd070b
    80004860:	7c94870b          	.insn	4, 0x7c94870b
    80004864:	5c94870b          	.insn	4, 0x5c94870b
    80004868:	3c94870b          	.insn	4, 0x3c94870b
    8000486c:	c084077b          	.insn	4, 0xc084077b
    80004870:	e788                	sd	a0,8(a5)
    80004872:	9cdd850b          	.insn	4, 0x9cdd850b
    80004876:	7c94850b          	.insn	4, 0x7c94850b
    8000487a:	5c94850b          	.insn	4, 0x5c94850b
    8000487e:	3c94050b          	.insn	4, 0x3c94050b
    80004882:	c084057b          	.insn	4, 0xc084057b
    80004886:	eb98                	sd	a4,16(a5)
    80004888:	7c94870b          	.insn	4, 0x7c94870b
    8000488c:	5c94870b          	.insn	4, 0x5c94870b
    80004890:	3c84070b          	.insn	4, 0x3c84070b
    80004894:	c084077b          	.insn	4, 0xc084077b
    80004898:	ef88                	sd	a0,24(a5)
    8000489a:	9cd0850b          	.insn	4, 0x9cd0850b
    8000489e:	7c94850b          	.insn	4, 0x7c94850b
    800048a2:	5c94050b          	.insn	4, 0x5c94050b
    800048a6:	3c84050b          	.insn	4, 0x3c84050b
    800048aa:	c084057b          	.insn	4, 0xc084057b
    800048ae:	f398                	sd	a4,32(a5)
    800048b0:	9cd8070b          	.insn	4, 0x9cd8070b
    800048b4:	7c94870b          	.insn	4, 0x7c94870b
    800048b8:	5c84070b          	.insn	4, 0x5c84070b
    800048bc:	3c84070b          	.insn	4, 0x3c84070b
    800048c0:	c084077b          	.insn	4, 0xc084077b
    800048c4:	9cd9058b          	.insn	4, 0x9cd9058b
    800048c8:	7c94058b          	.insn	4, 0x7c94058b
    800048cc:	5c84058b          	.insn	4, 0x5c84058b
    800048d0:	3c84058b          	.insn	4, 0x3c84058b
    800048d4:	c08405fb          	.insn	4, 0xc08405fb
    800048d8:	f788                	sd	a0,40(a5)
    800048da:	fb98                	sd	a4,48(a5)
    800048dc:	7c84050b          	.insn	4, 0x7c84050b
    800048e0:	5c84050b          	.insn	4, 0x5c84050b
    800048e4:	3c84050b          	.insn	4, 0x3c84050b
    800048e8:	c084057b          	.insn	4, 0xc084057b
    800048ec:	080e3703          	ld	a4,128(t3)
    800048f0:	ff8c                	sd	a1,56(a5)
    800048f2:	9cdc858b          	.insn	4, 0x9cdc858b
    800048f6:	7c84058b          	.insn	4, 0x7c84058b
    800048fa:	5c84058b          	.insn	4, 0x5c84058b
    800048fe:	3c84058b          	.insn	4, 0x3c84058b
    80004902:	c08705fb          	.insn	4, 0xc08705fb
    80004906:	e3a8                	sd	a0,64(a5)
    80004908:	9cdd050b          	.insn	4, 0x9cdd050b
    8000490c:	7c84050b          	.insn	4, 0x7c84050b
    80004910:	5c84050b          	.insn	4, 0x5c84050b
    80004914:	3c84050b          	.insn	4, 0x3c84050b
    80004918:	c0e7057b          	.insn	4, 0xc0e7057b
    8000491c:	e7ac                	sd	a1,72(a5)
    8000491e:	9cdd858b          	.insn	4, 0x9cdd858b
    80004922:	7c84058b          	.insn	4, 0x7c84058b
    80004926:	5c84058b          	.insn	4, 0x5c84058b
    8000492a:	3c87058b          	.insn	4, 0x3c87058b
    8000492e:	c0e705fb          	.insn	4, 0xc0e705fb
    80004932:	eba8                	sd	a0,80(a5)
    80004934:	7c84050b          	.insn	4, 0x7c84050b
    80004938:	5c84050b          	.insn	4, 0x5c84050b
    8000493c:	3ce7050b          	.insn	4, 0x3ce7050b
    80004940:	c0e7057b          	.insn	4, 0xc0e7057b
    80004944:	efac                	sd	a1,88(a5)
    80004946:	9cd0858b          	.insn	4, 0x9cd0858b
    8000494a:	7c84058b          	.insn	4, 0x7c84058b
    8000494e:	5c87058b          	.insn	4, 0x5c87058b
    80004952:	3ce7058b          	.insn	4, 0x3ce7058b
    80004956:	c0e705fb          	.insn	4, 0xc0e705fb
    8000495a:	f3a8                	sd	a0,96(a5)
    8000495c:	9cd8050b          	.insn	4, 0x9cd8050b
    80004960:	7c84050b          	.insn	4, 0x7c84050b
    80004964:	5ce7050b          	.insn	4, 0x5ce7050b
    80004968:	3ce7050b          	.insn	4, 0x3ce7050b
    8000496c:	c0e7057b          	.insn	4, 0xc0e7057b
    80004970:	9cd9048b          	.insn	4, 0x9cd9048b
    80004974:	7c87040b          	.insn	4, 0x7c87040b
    80004978:	5ce7040b          	.insn	4, 0x5ce7040b
    8000497c:	3ce7040b          	.insn	4, 0x3ce7040b
    80004980:	c0e704fb          	.insn	4, 0xc0e704fb
    80004984:	f7ac                	sd	a1,104(a5)
    80004986:	fba8                	sd	a0,112(a5)
    80004988:	7ce7050b          	.insn	4, 0x7ce7050b
    8000498c:	5ce7050b          	.insn	4, 0x5ce7050b
    80004990:	3ce7050b          	.insn	4, 0x3ce7050b
    80004994:	c0e7057b          	.insn	4, 0xc0e7057b
    80004998:	0c0e3403          	ld	s0,192(t3)
    8000499c:	ffa4                	sd	s1,120(a5)
    8000499e:	9cdc858b          	.insn	4, 0x9cdc858b
    800049a2:	7ce7058b          	.insn	4, 0x7ce7058b
    800049a6:	5ce7058b          	.insn	4, 0x5ce7058b
    800049aa:	3ce7058b          	.insn	4, 0x3ce7058b
    800049ae:	c0e405fb          	.insn	4, 0xc0e405fb
    800049b2:	e3c8                	sd	a0,128(a5)
    800049b4:	9cdd050b          	.insn	4, 0x9cdd050b
    800049b8:	7ce7050b          	.insn	4, 0x7ce7050b
    800049bc:	5ce7050b          	.insn	4, 0x5ce7050b
    800049c0:	3ce7050b          	.insn	4, 0x3ce7050b
    800049c4:	c084057b          	.insn	4, 0xc084057b
    800049c8:	e7cc                	sd	a1,136(a5)
    800049ca:	9cdd858b          	.insn	4, 0x9cdd858b
    800049ce:	7ce7058b          	.insn	4, 0x7ce7058b
    800049d2:	5ce7058b          	.insn	4, 0x5ce7058b
    800049d6:	3ce4058b          	.insn	4, 0x3ce4058b
    800049da:	c08405fb          	.insn	4, 0xc08405fb
    800049de:	ebc8                	sd	a0,144(a5)
    800049e0:	7ce7050b          	.insn	4, 0x7ce7050b
    800049e4:	5ce7050b          	.insn	4, 0x5ce7050b
    800049e8:	3c84050b          	.insn	4, 0x3c84050b
    800049ec:	c084057b          	.insn	4, 0xc084057b
    800049f0:	efcc                	sd	a1,152(a5)
    800049f2:	9cd0858b          	.insn	4, 0x9cd0858b
    800049f6:	7ce7058b          	.insn	4, 0x7ce7058b
    800049fa:	5ce4058b          	.insn	4, 0x5ce4058b
    800049fe:	3c84058b          	.insn	4, 0x3c84058b
    80004a02:	c08405fb          	.insn	4, 0xc08405fb
    80004a06:	f3c8                	sd	a0,160(a5)
    80004a08:	9cd8050b          	.insn	4, 0x9cd8050b
    80004a0c:	7ce7050b          	.insn	4, 0x7ce7050b
    80004a10:	5c84050b          	.insn	4, 0x5c84050b
    80004a14:	3c84050b          	.insn	4, 0x3c84050b
    80004a18:	c084057b          	.insn	4, 0xc084057b
    80004a1c:	9cd9048b          	.insn	4, 0x9cd9048b
    80004a20:	7ce4070b          	.insn	4, 0x7ce4070b
    80004a24:	5c84070b          	.insn	4, 0x5c84070b
    80004a28:	3c84070b          	.insn	4, 0x3c84070b
    80004a2c:	c08404fb          	.insn	4, 0xc08404fb
    80004a30:	f7cc                	sd	a1,168(a5)
    80004a32:	fbc8                	sd	a0,176(a5)
    80004a34:	7c84050b          	.insn	4, 0x7c84050b
    80004a38:	5c84050b          	.insn	4, 0x5c84050b
    80004a3c:	3c84050b          	.insn	4, 0x3c84050b
    80004a40:	c084057b          	.insn	4, 0xc084057b
    80004a44:	100e3703          	ld	a4,256(t3)
    80004a48:	ffc4                	sd	s1,184(a5)
    80004a4a:	9cdc858b          	.insn	4, 0x9cdc858b
    80004a4e:	7c84058b          	.insn	4, 0x7c84058b
    80004a52:	5c84058b          	.insn	4, 0x5c84058b
    80004a56:	3c84058b          	.insn	4, 0x3c84058b
    80004a5a:	c08705fb          	.insn	4, 0xc08705fb
    80004a5e:	e3e8                	sd	a0,192(a5)
    80004a60:	9cdd050b          	.insn	4, 0x9cdd050b
    80004a64:	7c84050b          	.insn	4, 0x7c84050b
    80004a68:	5c84050b          	.insn	4, 0x5c84050b
    80004a6c:	3c84050b          	.insn	4, 0x3c84050b
    80004a70:	c0e7057b          	.insn	4, 0xc0e7057b
    80004a74:	e7ec                	sd	a1,200(a5)
    80004a76:	9cdd858b          	.insn	4, 0x9cdd858b
    80004a7a:	7c84058b          	.insn	4, 0x7c84058b
    80004a7e:	5c84058b          	.insn	4, 0x5c84058b
    80004a82:	3c87058b          	.insn	4, 0x3c87058b
    80004a86:	c0e705fb          	.insn	4, 0xc0e705fb
    80004a8a:	ebe8                	sd	a0,208(a5)
    80004a8c:	7c84050b          	.insn	4, 0x7c84050b
    80004a90:	5c84050b          	.insn	4, 0x5c84050b
    80004a94:	3ce7050b          	.insn	4, 0x3ce7050b
    80004a98:	c0e7057b          	.insn	4, 0xc0e7057b
    80004a9c:	efec                	sd	a1,216(a5)
    80004a9e:	9cd0858b          	.insn	4, 0x9cd0858b
    80004aa2:	7c84058b          	.insn	4, 0x7c84058b
    80004aa6:	5c87058b          	.insn	4, 0x5c87058b
    80004aaa:	3ce7058b          	.insn	4, 0x3ce7058b
    80004aae:	c0e705fb          	.insn	4, 0xc0e705fb
    80004ab2:	f3e8                	sd	a0,224(a5)
    80004ab4:	9cd8050b          	.insn	4, 0x9cd8050b
    80004ab8:	7c84050b          	.insn	4, 0x7c84050b
    80004abc:	5ce7050b          	.insn	4, 0x5ce7050b
    80004ac0:	3ce7050b          	.insn	4, 0x3ce7050b
    80004ac4:	c0e7057b          	.insn	4, 0xc0e7057b
    80004ac8:	9cd9048b          	.insn	4, 0x9cd9048b
    80004acc:	7c87040b          	.insn	4, 0x7c87040b
    80004ad0:	5ce7040b          	.insn	4, 0x5ce7040b
    80004ad4:	3ce7040b          	.insn	4, 0x3ce7040b
    80004ad8:	c0e704fb          	.insn	4, 0xc0e704fb
    80004adc:	f7ec                	sd	a1,232(a5)
    80004ade:	fbe8                	sd	a0,240(a5)
    80004ae0:	7ce7050b          	.insn	4, 0x7ce7050b
    80004ae4:	5ce7050b          	.insn	4, 0x5ce7050b
    80004ae8:	3ce7050b          	.insn	4, 0x3ce7050b
    80004aec:	c0e7057b          	.insn	4, 0xc0e7057b
    80004af0:	140e3403          	ld	s0,320(t3)
    80004af4:	ffe4                	sd	s1,248(a5)
    80004af6:	9cdc858b          	.insn	4, 0x9cdc858b
    80004afa:	7ce7058b          	.insn	4, 0x7ce7058b
    80004afe:	5ce7058b          	.insn	4, 0x5ce7058b
    80004b02:	3ce7058b          	.insn	4, 0x3ce7058b
    80004b06:	c0e405fb          	.insn	4, 0xc0e405fb
    80004b0a:	10a7b023          	sd	a0,256(a5)
    80004b0e:	9cdd050b          	.insn	4, 0x9cdd050b
    80004b12:	7ce7050b          	.insn	4, 0x7ce7050b
    80004b16:	5ce7050b          	.insn	4, 0x5ce7050b
    80004b1a:	3ce7050b          	.insn	4, 0x3ce7050b
    80004b1e:	c084057b          	.insn	4, 0xc084057b
    80004b22:	10b7b423          	sd	a1,264(a5)
    80004b26:	9cdd858b          	.insn	4, 0x9cdd858b
    80004b2a:	7ce7058b          	.insn	4, 0x7ce7058b
    80004b2e:	5ce7058b          	.insn	4, 0x5ce7058b
    80004b32:	3ce4058b          	.insn	4, 0x3ce4058b
    80004b36:	c08405fb          	.insn	4, 0xc08405fb
    80004b3a:	10a7b823          	sd	a0,272(a5)
    80004b3e:	7ce7050b          	.insn	4, 0x7ce7050b
    80004b42:	5ce7050b          	.insn	4, 0x5ce7050b
    80004b46:	3c84050b          	.insn	4, 0x3c84050b
    80004b4a:	c084057b          	.insn	4, 0xc084057b
    80004b4e:	10b7bc23          	sd	a1,280(a5)
    80004b52:	9cd0858b          	.insn	4, 0x9cd0858b
    80004b56:	7ce7058b          	.insn	4, 0x7ce7058b
    80004b5a:	5ce4058b          	.insn	4, 0x5ce4058b
    80004b5e:	3c84058b          	.insn	4, 0x3c84058b
    80004b62:	c08405fb          	.insn	4, 0xc08405fb
    80004b66:	12a7b023          	sd	a0,288(a5)
    80004b6a:	9cd8050b          	.insn	4, 0x9cd8050b
    80004b6e:	7ce7050b          	.insn	4, 0x7ce7050b
    80004b72:	5c84050b          	.insn	4, 0x5c84050b
    80004b76:	3c84050b          	.insn	4, 0x3c84050b
    80004b7a:	c084057b          	.insn	4, 0xc084057b
    80004b7e:	9cd9048b          	.insn	4, 0x9cd9048b
    80004b82:	7ce4070b          	.insn	4, 0x7ce4070b
    80004b86:	5c84070b          	.insn	4, 0x5c84070b
    80004b8a:	3c84070b          	.insn	4, 0x3c84070b
    80004b8e:	c08404fb          	.insn	4, 0xc08404fb
    80004b92:	12b7b423          	sd	a1,296(a5)
    80004b96:	12a7b823          	sd	a0,304(a5)
    80004b9a:	7c84050b          	.insn	4, 0x7c84050b
    80004b9e:	5c84050b          	.insn	4, 0x5c84050b
    80004ba2:	3c84050b          	.insn	4, 0x3c84050b
    80004ba6:	c084057b          	.insn	4, 0xc084057b
    80004baa:	180e3703          	ld	a4,384(t3)
    80004bae:	1297bc23          	sd	s1,312(a5)
    80004bb2:	9cdc858b          	.insn	4, 0x9cdc858b
    80004bb6:	7c84058b          	.insn	4, 0x7c84058b
    80004bba:	5c84058b          	.insn	4, 0x5c84058b
    80004bbe:	3c84058b          	.insn	4, 0x3c84058b
    80004bc2:	c08705fb          	.insn	4, 0xc08705fb
    80004bc6:	14a7b023          	sd	a0,320(a5)
    80004bca:	9cdd050b          	.insn	4, 0x9cdd050b
    80004bce:	7c84050b          	.insn	4, 0x7c84050b
    80004bd2:	5c84050b          	.insn	4, 0x5c84050b
    80004bd6:	3c84050b          	.insn	4, 0x3c84050b
    80004bda:	c0e7057b          	.insn	4, 0xc0e7057b
    80004bde:	14b7b423          	sd	a1,328(a5)
    80004be2:	9cdd858b          	.insn	4, 0x9cdd858b
    80004be6:	7c84058b          	.insn	4, 0x7c84058b
    80004bea:	5c84058b          	.insn	4, 0x5c84058b
    80004bee:	3c87058b          	.insn	4, 0x3c87058b
    80004bf2:	c0e705fb          	.insn	4, 0xc0e705fb
    80004bf6:	14a7b823          	sd	a0,336(a5)
    80004bfa:	7c84050b          	.insn	4, 0x7c84050b
    80004bfe:	5c84050b          	.insn	4, 0x5c84050b
    80004c02:	3ce7050b          	.insn	4, 0x3ce7050b
    80004c06:	c0e7057b          	.insn	4, 0xc0e7057b
    80004c0a:	14b7bc23          	sd	a1,344(a5)
    80004c0e:	9cd0858b          	.insn	4, 0x9cd0858b
    80004c12:	7c84058b          	.insn	4, 0x7c84058b
    80004c16:	5c87058b          	.insn	4, 0x5c87058b
    80004c1a:	3ce7058b          	.insn	4, 0x3ce7058b
    80004c1e:	c0e705fb          	.insn	4, 0xc0e705fb
    80004c22:	16a7b023          	sd	a0,352(a5)
    80004c26:	9cd8050b          	.insn	4, 0x9cd8050b
    80004c2a:	7c84050b          	.insn	4, 0x7c84050b
    80004c2e:	5ce7050b          	.insn	4, 0x5ce7050b
    80004c32:	3ce7050b          	.insn	4, 0x3ce7050b
    80004c36:	c0e7057b          	.insn	4, 0xc0e7057b
    80004c3a:	9cd9048b          	.insn	4, 0x9cd9048b
    80004c3e:	7c87040b          	.insn	4, 0x7c87040b
    80004c42:	5ce7040b          	.insn	4, 0x5ce7040b
    80004c46:	3ce7040b          	.insn	4, 0x3ce7040b
    80004c4a:	c0e704fb          	.insn	4, 0xc0e704fb
    80004c4e:	16b7b423          	sd	a1,360(a5)
    80004c52:	16a7b823          	sd	a0,368(a5)
    80004c56:	7ce7050b          	.insn	4, 0x7ce7050b
    80004c5a:	5ce7050b          	.insn	4, 0x5ce7050b
    80004c5e:	3ce7050b          	.insn	4, 0x3ce7050b
    80004c62:	c0e7057b          	.insn	4, 0xc0e7057b
    80004c66:	1c0e3403          	ld	s0,448(t3)
    80004c6a:	1697bc23          	sd	s1,376(a5)
    80004c6e:	9cdc858b          	.insn	4, 0x9cdc858b
    80004c72:	7ce7058b          	.insn	4, 0x7ce7058b
    80004c76:	5ce7058b          	.insn	4, 0x5ce7058b
    80004c7a:	3ce7058b          	.insn	4, 0x3ce7058b
    80004c7e:	c0e405fb          	.insn	4, 0xc0e405fb
    80004c82:	18a7b023          	sd	a0,384(a5)
    80004c86:	9cdd050b          	.insn	4, 0x9cdd050b
    80004c8a:	7ce7050b          	.insn	4, 0x7ce7050b
    80004c8e:	5ce7050b          	.insn	4, 0x5ce7050b
    80004c92:	3ce7050b          	.insn	4, 0x3ce7050b
    80004c96:	c084057b          	.insn	4, 0xc084057b
    80004c9a:	18b7b423          	sd	a1,392(a5)
    80004c9e:	9cdd858b          	.insn	4, 0x9cdd858b
    80004ca2:	7ce7058b          	.insn	4, 0x7ce7058b
    80004ca6:	5ce7058b          	.insn	4, 0x5ce7058b
    80004caa:	3ce4058b          	.insn	4, 0x3ce4058b
    80004cae:	c08405fb          	.insn	4, 0xc08405fb
    80004cb2:	18a7b823          	sd	a0,400(a5)
    80004cb6:	7ce7050b          	.insn	4, 0x7ce7050b
    80004cba:	5ce7050b          	.insn	4, 0x5ce7050b
    80004cbe:	3c84050b          	.insn	4, 0x3c84050b
    80004cc2:	c084057b          	.insn	4, 0xc084057b
    80004cc6:	18b7bc23          	sd	a1,408(a5)
    80004cca:	9cd0858b          	.insn	4, 0x9cd0858b
    80004cce:	7ce7058b          	.insn	4, 0x7ce7058b
    80004cd2:	5ce4058b          	.insn	4, 0x5ce4058b
    80004cd6:	3c84058b          	.insn	4, 0x3c84058b
    80004cda:	c08405fb          	.insn	4, 0xc08405fb
    80004cde:	1aa7b023          	sd	a0,416(a5)
    80004ce2:	9cd8050b          	.insn	4, 0x9cd8050b
    80004ce6:	7ce7050b          	.insn	4, 0x7ce7050b
    80004cea:	5c84050b          	.insn	4, 0x5c84050b
    80004cee:	3c84050b          	.insn	4, 0x3c84050b
    80004cf2:	c084057b          	.insn	4, 0xc084057b
    80004cf6:	9cd9048b          	.insn	4, 0x9cd9048b
    80004cfa:	7ce4070b          	.insn	4, 0x7ce4070b
    80004cfe:	5c84070b          	.insn	4, 0x5c84070b
    80004d02:	3c84070b          	.insn	4, 0x3c84070b
    80004d06:	c08404fb          	.insn	4, 0xc08404fb
    80004d0a:	1ab7b423          	sd	a1,424(a5)
    80004d0e:	1aa7b823          	sd	a0,432(a5)
    80004d12:	7c84050b          	.insn	4, 0x7c84050b
    80004d16:	5c84050b          	.insn	4, 0x5c84050b
    80004d1a:	3c84050b          	.insn	4, 0x3c84050b
    80004d1e:	c084057b          	.insn	4, 0xc084057b
    80004d22:	200e3703          	ld	a4,512(t3)
    80004d26:	1a97bc23          	sd	s1,440(a5)
    80004d2a:	9cdc858b          	.insn	4, 0x9cdc858b
    80004d2e:	7c84058b          	.insn	4, 0x7c84058b
    80004d32:	5c84058b          	.insn	4, 0x5c84058b
    80004d36:	3c84058b          	.insn	4, 0x3c84058b
    80004d3a:	c08705fb          	.insn	4, 0xc08705fb
    80004d3e:	1ca7b023          	sd	a0,448(a5)
    80004d42:	9cdd050b          	.insn	4, 0x9cdd050b
    80004d46:	7c84050b          	.insn	4, 0x7c84050b
    80004d4a:	5c84050b          	.insn	4, 0x5c84050b
    80004d4e:	3c84050b          	.insn	4, 0x3c84050b
    80004d52:	c0e7057b          	.insn	4, 0xc0e7057b
    80004d56:	1cb7b423          	sd	a1,456(a5)
    80004d5a:	9cdd858b          	.insn	4, 0x9cdd858b
    80004d5e:	7c84058b          	.insn	4, 0x7c84058b
    80004d62:	5c84058b          	.insn	4, 0x5c84058b
    80004d66:	3c87058b          	.insn	4, 0x3c87058b
    80004d6a:	c0e705fb          	.insn	4, 0xc0e705fb
    80004d6e:	1ca7b823          	sd	a0,464(a5)
    80004d72:	7c84050b          	.insn	4, 0x7c84050b
    80004d76:	5c84050b          	.insn	4, 0x5c84050b
    80004d7a:	3ce7050b          	.insn	4, 0x3ce7050b
    80004d7e:	c0e7057b          	.insn	4, 0xc0e7057b
    80004d82:	1cb7bc23          	sd	a1,472(a5)
    80004d86:	9cd0858b          	.insn	4, 0x9cd0858b
    80004d8a:	7c84058b          	.insn	4, 0x7c84058b
    80004d8e:	5c87058b          	.insn	4, 0x5c87058b
    80004d92:	3ce7058b          	.insn	4, 0x3ce7058b
    80004d96:	c0e705fb          	.insn	4, 0xc0e705fb
    80004d9a:	1ea7b023          	sd	a0,480(a5)
    80004d9e:	9cd8050b          	.insn	4, 0x9cd8050b
    80004da2:	7c84050b          	.insn	4, 0x7c84050b
    80004da6:	5ce7050b          	.insn	4, 0x5ce7050b
    80004daa:	3ce7050b          	.insn	4, 0x3ce7050b
    80004dae:	c0e7057b          	.insn	4, 0xc0e7057b
    80004db2:	9cd9048b          	.insn	4, 0x9cd9048b
    80004db6:	7c87040b          	.insn	4, 0x7c87040b
    80004dba:	5ce7040b          	.insn	4, 0x5ce7040b
    80004dbe:	3ce7040b          	.insn	4, 0x3ce7040b
    80004dc2:	c0e704fb          	.insn	4, 0xc0e704fb
    80004dc6:	1eb7b423          	sd	a1,488(a5)
    80004dca:	1ea7b823          	sd	a0,496(a5)
    80004dce:	7ce7050b          	.insn	4, 0x7ce7050b
    80004dd2:	5ce7050b          	.insn	4, 0x5ce7050b
    80004dd6:	3ce7050b          	.insn	4, 0x3ce7050b
    80004dda:	c0e7057b          	.insn	4, 0xc0e7057b
    80004dde:	240e3403          	ld	s0,576(t3)
    80004de2:	1e97bc23          	sd	s1,504(a5)
    80004de6:	9cdc858b          	.insn	4, 0x9cdc858b
    80004dea:	7ce7058b          	.insn	4, 0x7ce7058b
    80004dee:	5ce7058b          	.insn	4, 0x5ce7058b
    80004df2:	3ce7058b          	.insn	4, 0x3ce7058b
    80004df6:	c0e405fb          	.insn	4, 0xc0e405fb
    80004dfa:	20a7b023          	sd	a0,512(a5)
    80004dfe:	9cdd050b          	.insn	4, 0x9cdd050b
    80004e02:	7ce7050b          	.insn	4, 0x7ce7050b
    80004e06:	5ce7050b          	.insn	4, 0x5ce7050b
    80004e0a:	3ce7050b          	.insn	4, 0x3ce7050b
    80004e0e:	c084057b          	.insn	4, 0xc084057b
    80004e12:	20b7b423          	sd	a1,520(a5)
    80004e16:	9cdd858b          	.insn	4, 0x9cdd858b
    80004e1a:	7ce7058b          	.insn	4, 0x7ce7058b
    80004e1e:	5ce7058b          	.insn	4, 0x5ce7058b
    80004e22:	3ce4058b          	.insn	4, 0x3ce4058b
    80004e26:	c08405fb          	.insn	4, 0xc08405fb
    80004e2a:	20a7b823          	sd	a0,528(a5)
    80004e2e:	7ce7050b          	.insn	4, 0x7ce7050b
    80004e32:	5ce7050b          	.insn	4, 0x5ce7050b
    80004e36:	3c84050b          	.insn	4, 0x3c84050b
    80004e3a:	c084057b          	.insn	4, 0xc084057b
    80004e3e:	20b7bc23          	sd	a1,536(a5)
    80004e42:	9cd0858b          	.insn	4, 0x9cd0858b
    80004e46:	7ce7058b          	.insn	4, 0x7ce7058b
    80004e4a:	5ce4058b          	.insn	4, 0x5ce4058b
    80004e4e:	3c84058b          	.insn	4, 0x3c84058b
    80004e52:	c08405fb          	.insn	4, 0xc08405fb
    80004e56:	22a7b023          	sd	a0,544(a5)
    80004e5a:	9cd8050b          	.insn	4, 0x9cd8050b
    80004e5e:	7ce7050b          	.insn	4, 0x7ce7050b
    80004e62:	5c84050b          	.insn	4, 0x5c84050b
    80004e66:	3c84050b          	.insn	4, 0x3c84050b
    80004e6a:	c084057b          	.insn	4, 0xc084057b
    80004e6e:	9cd9048b          	.insn	4, 0x9cd9048b
    80004e72:	7ce4070b          	.insn	4, 0x7ce4070b
    80004e76:	5c84070b          	.insn	4, 0x5c84070b
    80004e7a:	3c84070b          	.insn	4, 0x3c84070b
    80004e7e:	c08404fb          	.insn	4, 0xc08404fb
    80004e82:	22b7b423          	sd	a1,552(a5)
    80004e86:	22a7b823          	sd	a0,560(a5)
    80004e8a:	7c84050b          	.insn	4, 0x7c84050b
    80004e8e:	5c84050b          	.insn	4, 0x5c84050b
    80004e92:	3c84050b          	.insn	4, 0x3c84050b
    80004e96:	c084057b          	.insn	4, 0xc084057b
    80004e9a:	280e3703          	ld	a4,640(t3)
    80004e9e:	2297bc23          	sd	s1,568(a5)
    80004ea2:	9cdc858b          	.insn	4, 0x9cdc858b
    80004ea6:	7c84058b          	.insn	4, 0x7c84058b
    80004eaa:	5c84058b          	.insn	4, 0x5c84058b
    80004eae:	3c84058b          	.insn	4, 0x3c84058b
    80004eb2:	c08705fb          	.insn	4, 0xc08705fb
    80004eb6:	24a7b023          	sd	a0,576(a5)
    80004eba:	9cdd050b          	.insn	4, 0x9cdd050b
    80004ebe:	7c84050b          	.insn	4, 0x7c84050b
    80004ec2:	5c84050b          	.insn	4, 0x5c84050b
    80004ec6:	3c84050b          	.insn	4, 0x3c84050b
    80004eca:	c0e7057b          	.insn	4, 0xc0e7057b
    80004ece:	24b7b423          	sd	a1,584(a5)
    80004ed2:	9cdd858b          	.insn	4, 0x9cdd858b
    80004ed6:	7c84058b          	.insn	4, 0x7c84058b
    80004eda:	5c84058b          	.insn	4, 0x5c84058b
    80004ede:	3c87058b          	.insn	4, 0x3c87058b
    80004ee2:	c0e705fb          	.insn	4, 0xc0e705fb
    80004ee6:	24a7b823          	sd	a0,592(a5)
    80004eea:	7c84050b          	.insn	4, 0x7c84050b
    80004eee:	5c84050b          	.insn	4, 0x5c84050b
    80004ef2:	3ce7050b          	.insn	4, 0x3ce7050b
    80004ef6:	c0e7057b          	.insn	4, 0xc0e7057b
    80004efa:	24b7bc23          	sd	a1,600(a5)
    80004efe:	9cd0858b          	.insn	4, 0x9cd0858b
    80004f02:	7c84058b          	.insn	4, 0x7c84058b
    80004f06:	5c87058b          	.insn	4, 0x5c87058b
    80004f0a:	3ce7058b          	.insn	4, 0x3ce7058b
    80004f0e:	c0e705fb          	.insn	4, 0xc0e705fb
    80004f12:	26a7b023          	sd	a0,608(a5)
    80004f16:	9cd8050b          	.insn	4, 0x9cd8050b
    80004f1a:	7c84050b          	.insn	4, 0x7c84050b
    80004f1e:	5ce7050b          	.insn	4, 0x5ce7050b
    80004f22:	3ce7050b          	.insn	4, 0x3ce7050b
    80004f26:	c0e7057b          	.insn	4, 0xc0e7057b
    80004f2a:	9cd9048b          	.insn	4, 0x9cd9048b
    80004f2e:	7c87040b          	.insn	4, 0x7c87040b
    80004f32:	5ce7040b          	.insn	4, 0x5ce7040b
    80004f36:	3ce7040b          	.insn	4, 0x3ce7040b
    80004f3a:	c0e704fb          	.insn	4, 0xc0e704fb
    80004f3e:	26b7b423          	sd	a1,616(a5)
    80004f42:	26a7b823          	sd	a0,624(a5)
    80004f46:	7ce7050b          	.insn	4, 0x7ce7050b
    80004f4a:	5ce7050b          	.insn	4, 0x5ce7050b
    80004f4e:	3ce7050b          	.insn	4, 0x3ce7050b
    80004f52:	c0e7057b          	.insn	4, 0xc0e7057b
    80004f56:	2c0e3403          	ld	s0,704(t3)
    80004f5a:	2697bc23          	sd	s1,632(a5)
    80004f5e:	9cdc858b          	.insn	4, 0x9cdc858b
    80004f62:	7ce7058b          	.insn	4, 0x7ce7058b
    80004f66:	5ce7058b          	.insn	4, 0x5ce7058b
    80004f6a:	3ce7058b          	.insn	4, 0x3ce7058b
    80004f6e:	c0e405fb          	.insn	4, 0xc0e405fb
    80004f72:	28a7b023          	sd	a0,640(a5)
    80004f76:	9cdd050b          	.insn	4, 0x9cdd050b
    80004f7a:	7ce7050b          	.insn	4, 0x7ce7050b
    80004f7e:	5ce7050b          	.insn	4, 0x5ce7050b
    80004f82:	3ce7050b          	.insn	4, 0x3ce7050b
    80004f86:	c084057b          	.insn	4, 0xc084057b
    80004f8a:	28b7b423          	sd	a1,648(a5)
    80004f8e:	9cdd858b          	.insn	4, 0x9cdd858b
    80004f92:	7ce7058b          	.insn	4, 0x7ce7058b
    80004f96:	5ce7058b          	.insn	4, 0x5ce7058b
    80004f9a:	3ce4058b          	.insn	4, 0x3ce4058b
    80004f9e:	c08405fb          	.insn	4, 0xc08405fb
    80004fa2:	28a7b823          	sd	a0,656(a5)
    80004fa6:	7ce7050b          	.insn	4, 0x7ce7050b
    80004faa:	5ce7050b          	.insn	4, 0x5ce7050b
    80004fae:	3c84050b          	.insn	4, 0x3c84050b
    80004fb2:	c084057b          	.insn	4, 0xc084057b
    80004fb6:	28b7bc23          	sd	a1,664(a5)
    80004fba:	9cd0858b          	.insn	4, 0x9cd0858b
    80004fbe:	7ce7058b          	.insn	4, 0x7ce7058b
    80004fc2:	5ce4058b          	.insn	4, 0x5ce4058b
    80004fc6:	3c84058b          	.insn	4, 0x3c84058b
    80004fca:	c08405fb          	.insn	4, 0xc08405fb
    80004fce:	2aa7b023          	sd	a0,672(a5)
    80004fd2:	9cd8050b          	.insn	4, 0x9cd8050b
    80004fd6:	7ce7050b          	.insn	4, 0x7ce7050b
    80004fda:	5c84050b          	.insn	4, 0x5c84050b
    80004fde:	3c84050b          	.insn	4, 0x3c84050b
    80004fe2:	c084057b          	.insn	4, 0xc084057b
    80004fe6:	9cd9048b          	.insn	4, 0x9cd9048b
    80004fea:	7ce4070b          	.insn	4, 0x7ce4070b
    80004fee:	5c84070b          	.insn	4, 0x5c84070b
    80004ff2:	3c84070b          	.insn	4, 0x3c84070b
    80004ff6:	c08404fb          	.insn	4, 0xc08404fb
    80004ffa:	2ab7b423          	sd	a1,680(a5)
    80004ffe:	2aa7b823          	sd	a0,688(a5)
    80005002:	7c84050b          	.insn	4, 0x7c84050b
    80005006:	5c84050b          	.insn	4, 0x5c84050b
    8000500a:	3c84050b          	.insn	4, 0x3c84050b
    8000500e:	c084057b          	.insn	4, 0xc084057b
    80005012:	300e3703          	ld	a4,768(t3)
    80005016:	2a97bc23          	sd	s1,696(a5)
    8000501a:	9cdc858b          	.insn	4, 0x9cdc858b
    8000501e:	7c84058b          	.insn	4, 0x7c84058b
    80005022:	5c84058b          	.insn	4, 0x5c84058b
    80005026:	3c84058b          	.insn	4, 0x3c84058b
    8000502a:	c08705fb          	.insn	4, 0xc08705fb
    8000502e:	2ca7b023          	sd	a0,704(a5)
    80005032:	9cdd050b          	.insn	4, 0x9cdd050b
    80005036:	7c84050b          	.insn	4, 0x7c84050b
    8000503a:	5c84050b          	.insn	4, 0x5c84050b
    8000503e:	3c84050b          	.insn	4, 0x3c84050b
    80005042:	c0e7057b          	.insn	4, 0xc0e7057b
    80005046:	2cb7b423          	sd	a1,712(a5)
    8000504a:	9cdd858b          	.insn	4, 0x9cdd858b
    8000504e:	7c84058b          	.insn	4, 0x7c84058b
    80005052:	5c84058b          	.insn	4, 0x5c84058b
    80005056:	3c87058b          	.insn	4, 0x3c87058b
    8000505a:	c0e705fb          	.insn	4, 0xc0e705fb
    8000505e:	2ca7b823          	sd	a0,720(a5)
    80005062:	7c84050b          	.insn	4, 0x7c84050b
    80005066:	5c84050b          	.insn	4, 0x5c84050b
    8000506a:	3ce7050b          	.insn	4, 0x3ce7050b
    8000506e:	c0e7057b          	.insn	4, 0xc0e7057b
    80005072:	2cb7bc23          	sd	a1,728(a5)
    80005076:	9cd0858b          	.insn	4, 0x9cd0858b
    8000507a:	7c84058b          	.insn	4, 0x7c84058b
    8000507e:	5c87058b          	.insn	4, 0x5c87058b
    80005082:	3ce7058b          	.insn	4, 0x3ce7058b
    80005086:	c0e705fb          	.insn	4, 0xc0e705fb
    8000508a:	2ea7b023          	sd	a0,736(a5)
    8000508e:	9cd8050b          	.insn	4, 0x9cd8050b
    80005092:	7c84050b          	.insn	4, 0x7c84050b
    80005096:	5ce7050b          	.insn	4, 0x5ce7050b
    8000509a:	3ce7050b          	.insn	4, 0x3ce7050b
    8000509e:	c0e7057b          	.insn	4, 0xc0e7057b
    800050a2:	9cd9048b          	.insn	4, 0x9cd9048b
    800050a6:	7c87040b          	.insn	4, 0x7c87040b
    800050aa:	5ce7040b          	.insn	4, 0x5ce7040b
    800050ae:	3ce7040b          	.insn	4, 0x3ce7040b
    800050b2:	c0e704fb          	.insn	4, 0xc0e704fb
    800050b6:	2eb7b423          	sd	a1,744(a5)
    800050ba:	2ea7b823          	sd	a0,752(a5)
    800050be:	7ce7050b          	.insn	4, 0x7ce7050b
    800050c2:	5ce7050b          	.insn	4, 0x5ce7050b
    800050c6:	3ce7050b          	.insn	4, 0x3ce7050b
    800050ca:	c0e7057b          	.insn	4, 0xc0e7057b
    800050ce:	340e3403          	ld	s0,832(t3)
    800050d2:	2e97bc23          	sd	s1,760(a5)
    800050d6:	9cdc858b          	.insn	4, 0x9cdc858b
    800050da:	7ce7058b          	.insn	4, 0x7ce7058b
    800050de:	5ce7058b          	.insn	4, 0x5ce7058b
    800050e2:	3ce7058b          	.insn	4, 0x3ce7058b
    800050e6:	c0e405fb          	.insn	4, 0xc0e405fb
    800050ea:	30a7b023          	sd	a0,768(a5)
    800050ee:	9cdd050b          	.insn	4, 0x9cdd050b
    800050f2:	7ce7050b          	.insn	4, 0x7ce7050b
    800050f6:	5ce7050b          	.insn	4, 0x5ce7050b
    800050fa:	3ce7050b          	.insn	4, 0x3ce7050b
    800050fe:	c084057b          	.insn	4, 0xc084057b
    80005102:	30b7b423          	sd	a1,776(a5)
    80005106:	9cdd858b          	.insn	4, 0x9cdd858b
    8000510a:	7ce7058b          	.insn	4, 0x7ce7058b
    8000510e:	5ce7058b          	.insn	4, 0x5ce7058b
    80005112:	3ce4058b          	.insn	4, 0x3ce4058b
    80005116:	c08405fb          	.insn	4, 0xc08405fb
    8000511a:	30a7b823          	sd	a0,784(a5)
    8000511e:	7ce7050b          	.insn	4, 0x7ce7050b
    80005122:	5ce7050b          	.insn	4, 0x5ce7050b
    80005126:	3c84050b          	.insn	4, 0x3c84050b
    8000512a:	c084057b          	.insn	4, 0xc084057b
    8000512e:	30b7bc23          	sd	a1,792(a5)
    80005132:	9cd0858b          	.insn	4, 0x9cd0858b
    80005136:	7ce7058b          	.insn	4, 0x7ce7058b
    8000513a:	5ce4058b          	.insn	4, 0x5ce4058b
    8000513e:	3c84058b          	.insn	4, 0x3c84058b
    80005142:	c08405fb          	.insn	4, 0xc08405fb
    80005146:	32a7b023          	sd	a0,800(a5)
    8000514a:	9cd8050b          	.insn	4, 0x9cd8050b
    8000514e:	7ce7050b          	.insn	4, 0x7ce7050b
    80005152:	5c84050b          	.insn	4, 0x5c84050b
    80005156:	3c84050b          	.insn	4, 0x3c84050b
    8000515a:	c084057b          	.insn	4, 0xc084057b
    8000515e:	9cd9048b          	.insn	4, 0x9cd9048b
    80005162:	7ce4070b          	.insn	4, 0x7ce4070b
    80005166:	5c84070b          	.insn	4, 0x5c84070b
    8000516a:	3c84070b          	.insn	4, 0x3c84070b
    8000516e:	c08404fb          	.insn	4, 0xc08404fb
    80005172:	32b7b423          	sd	a1,808(a5)
    80005176:	32a7b823          	sd	a0,816(a5)
    8000517a:	7c84050b          	.insn	4, 0x7c84050b
    8000517e:	5c84050b          	.insn	4, 0x5c84050b
    80005182:	3c84050b          	.insn	4, 0x3c84050b
    80005186:	c084057b          	.insn	4, 0xc084057b
    8000518a:	380e3703          	ld	a4,896(t3)
    8000518e:	3297bc23          	sd	s1,824(a5)
    80005192:	9cdc858b          	.insn	4, 0x9cdc858b
    80005196:	7c84058b          	.insn	4, 0x7c84058b
    8000519a:	5c84058b          	.insn	4, 0x5c84058b
    8000519e:	3c84058b          	.insn	4, 0x3c84058b
    800051a2:	c08705fb          	.insn	4, 0xc08705fb
    800051a6:	34a7b023          	sd	a0,832(a5)
    800051aa:	9cdd050b          	.insn	4, 0x9cdd050b
    800051ae:	7c84050b          	.insn	4, 0x7c84050b
    800051b2:	5c84050b          	.insn	4, 0x5c84050b
    800051b6:	3c84050b          	.insn	4, 0x3c84050b
    800051ba:	c0e7057b          	.insn	4, 0xc0e7057b
    800051be:	34b7b423          	sd	a1,840(a5)
    800051c2:	9cdd858b          	.insn	4, 0x9cdd858b
    800051c6:	7c84058b          	.insn	4, 0x7c84058b
    800051ca:	5c84058b          	.insn	4, 0x5c84058b
    800051ce:	3c87058b          	.insn	4, 0x3c87058b
    800051d2:	c0e705fb          	.insn	4, 0xc0e705fb
    800051d6:	34a7b823          	sd	a0,848(a5)
    800051da:	7c84050b          	.insn	4, 0x7c84050b
    800051de:	5c84050b          	.insn	4, 0x5c84050b
    800051e2:	3ce7050b          	.insn	4, 0x3ce7050b
    800051e6:	c0e7057b          	.insn	4, 0xc0e7057b
    800051ea:	34b7bc23          	sd	a1,856(a5)
    800051ee:	9cd0858b          	.insn	4, 0x9cd0858b
    800051f2:	7c84058b          	.insn	4, 0x7c84058b
    800051f6:	5c87058b          	.insn	4, 0x5c87058b
    800051fa:	3ce7058b          	.insn	4, 0x3ce7058b
    800051fe:	c0e705fb          	.insn	4, 0xc0e705fb
    80005202:	36a7b023          	sd	a0,864(a5)
    80005206:	9cd8050b          	.insn	4, 0x9cd8050b
    8000520a:	7c84050b          	.insn	4, 0x7c84050b
    8000520e:	5ce7050b          	.insn	4, 0x5ce7050b
    80005212:	3ce7050b          	.insn	4, 0x3ce7050b
    80005216:	c0e7057b          	.insn	4, 0xc0e7057b
    8000521a:	9cd9048b          	.insn	4, 0x9cd9048b
    8000521e:	7c87040b          	.insn	4, 0x7c87040b
    80005222:	5ce7040b          	.insn	4, 0x5ce7040b
    80005226:	3ce7040b          	.insn	4, 0x3ce7040b
    8000522a:	c0e7047b          	.insn	4, 0xc0e7047b
    8000522e:	36b7b423          	sd	a1,872(a5)
    80005232:	36a7b823          	sd	a0,880(a5)
    80005236:	7ce7050b          	.insn	4, 0x7ce7050b
    8000523a:	5ce7050b          	.insn	4, 0x5ce7050b
    8000523e:	3ce7050b          	.insn	4, 0x3ce7050b
    80005242:	c0e7057b          	.insn	4, 0xc0e7057b
    80005246:	3c0e3583          	ld	a1,960(t3)
    8000524a:	3687bc23          	sd	s0,888(a5)
    8000524e:	9cdc848b          	.insn	4, 0x9cdc848b
    80005252:	7ce7048b          	.insn	4, 0x7ce7048b
    80005256:	5ce7048b          	.insn	4, 0x5ce7048b
    8000525a:	3ce7048b          	.insn	4, 0x3ce7048b
    8000525e:	c0e584fb          	.insn	4, 0xc0e584fb
    80005262:	38a7b023          	sd	a0,896(a5)
    80005266:	9cdd050b          	.insn	4, 0x9cdd050b
    8000526a:	7ce7050b          	.insn	4, 0x7ce7050b
    8000526e:	5ce7050b          	.insn	4, 0x5ce7050b
    80005272:	3ce7050b          	.insn	4, 0x3ce7050b
    80005276:	c0b5857b          	.insn	4, 0xc0b5857b
    8000527a:	3897b423          	sd	s1,904(a5)
    8000527e:	9cdd848b          	.insn	4, 0x9cdd848b
    80005282:	7ce7048b          	.insn	4, 0x7ce7048b
    80005286:	5ce7048b          	.insn	4, 0x5ce7048b
    8000528a:	3ce5848b          	.insn	4, 0x3ce5848b
    8000528e:	c0b584fb          	.insn	4, 0xc0b584fb
    80005292:	38a7b823          	sd	a0,912(a5)
    80005296:	7ce7050b          	.insn	4, 0x7ce7050b
    8000529a:	5ce7050b          	.insn	4, 0x5ce7050b
    8000529e:	3cb5850b          	.insn	4, 0x3cb5850b
    800052a2:	c0b5857b          	.insn	4, 0xc0b5857b
    800052a6:	3897bc23          	sd	s1,920(a5)
    800052aa:	9cd0848b          	.insn	4, 0x9cd0848b
    800052ae:	7ce7048b          	.insn	4, 0x7ce7048b
    800052b2:	5ce5848b          	.insn	4, 0x5ce5848b
    800052b6:	3cb5848b          	.insn	4, 0x3cb5848b
    800052ba:	c0b584fb          	.insn	4, 0xc0b584fb
    800052be:	3aa7b023          	sd	a0,928(a5)
    800052c2:	9cd8050b          	.insn	4, 0x9cd8050b
    800052c6:	7ce7050b          	.insn	4, 0x7ce7050b
    800052ca:	5cb5850b          	.insn	4, 0x5cb5850b
    800052ce:	3cb5850b          	.insn	4, 0x3cb5850b
    800052d2:	c0b5857b          	.insn	4, 0xc0b5857b
    800052d6:	9cd9040b          	.insn	4, 0x9cd9040b
    800052da:	7ce5870b          	.insn	4, 0x7ce5870b
    800052de:	5cb5870b          	.insn	4, 0x5cb5870b
    800052e2:	3cb5870b          	.insn	4, 0x3cb5870b
    800052e6:	c0b5877b          	.insn	4, 0xc0b5877b
    800052ea:	3a97b423          	sd	s1,936(a5)
    800052ee:	3aa7b823          	sd	a0,944(a5)
    800052f2:	7cb5850b          	.insn	4, 0x7cb5850b
    800052f6:	5cb5850b          	.insn	4, 0x5cb5850b
    800052fa:	3cb5850b          	.insn	4, 0x3cb5850b
    800052fe:	c0b5857b          	.insn	4, 0xc0b5857b
    80005302:	004b8593          	addi	a1,s7,4
    80005306:	05aa                	slli	a1,a1,0xa
    80005308:	00ba0e33          	add	t3,s4,a1
    8000530c:	000e3483          	ld	s1,0(t3)
    80005310:	3ae7bc23          	sd	a4,952(a5)
    80005314:	7c94870b          	.insn	4, 0x7c94870b
    80005318:	5c94870b          	.insn	4, 0x5c94870b
    8000531c:	3c94870b          	.insn	4, 0x3c94870b
    80005320:	c094847b          	.insn	4, 0xc094847b
    80005324:	3ca7b023          	sd	a0,960(a5)
    80005328:	040e3703          	ld	a4,64(t3)
    8000532c:	9cdc850b          	.insn	4, 0x9cdc850b
    80005330:	7c94850b          	.insn	4, 0x7c94850b
    80005334:	5c94850b          	.insn	4, 0x5c94850b
    80005338:	3c94850b          	.insn	4, 0x3c94850b
    8000533c:	c097057b          	.insn	4, 0xc097057b
    80005340:	728c30a3          	sd	s0,1825(s8)
    80005344:	721c0793          	addi	a5,s8,1825
    80005348:	9cdd040b          	.insn	4, 0x9cdd040b
    8000534c:	7c94840b          	.insn	4, 0x7c94840b
    80005350:	5c94840b          	.insn	4, 0x5c94840b
    80005354:	3c94840b          	.insn	4, 0x3c94840b
    80005358:	c0e7047b          	.insn	4, 0xc0e7047b
    8000535c:	e788                	sd	a0,8(a5)
    8000535e:	9cdd850b          	.insn	4, 0x9cdd850b
    80005362:	7c94850b          	.insn	4, 0x7c94850b
    80005366:	5c94850b          	.insn	4, 0x5c94850b
    8000536a:	3c97050b          	.insn	4, 0x3c97050b
    8000536e:	c0e7057b          	.insn	4, 0xc0e7057b
    80005372:	eb80                	sd	s0,16(a5)
    80005374:	7c94840b          	.insn	4, 0x7c94840b
    80005378:	5c94840b          	.insn	4, 0x5c94840b
    8000537c:	3ce7040b          	.insn	4, 0x3ce7040b
    80005380:	c0e7047b          	.insn	4, 0xc0e7047b
    80005384:	ef88                	sd	a0,24(a5)
    80005386:	9cd0850b          	.insn	4, 0x9cd0850b
    8000538a:	7c94850b          	.insn	4, 0x7c94850b
    8000538e:	5c97050b          	.insn	4, 0x5c97050b
    80005392:	3ce7050b          	.insn	4, 0x3ce7050b
    80005396:	c0e7057b          	.insn	4, 0xc0e7057b
    8000539a:	f380                	sd	s0,32(a5)
    8000539c:	9cd8040b          	.insn	4, 0x9cd8040b
    800053a0:	7c94840b          	.insn	4, 0x7c94840b
    800053a4:	5ce7040b          	.insn	4, 0x5ce7040b
    800053a8:	3ce7040b          	.insn	4, 0x3ce7040b
    800053ac:	c0e7047b          	.insn	4, 0xc0e7047b
    800053b0:	9cd9058b          	.insn	4, 0x9cd9058b
    800053b4:	7c97058b          	.insn	4, 0x7c97058b
    800053b8:	5ce7058b          	.insn	4, 0x5ce7058b
    800053bc:	3ce7058b          	.insn	4, 0x3ce7058b
    800053c0:	c0e705fb          	.insn	4, 0xc0e705fb
    800053c4:	f788                	sd	a0,40(a5)
    800053c6:	fb80                	sd	s0,48(a5)
    800053c8:	7ce7050b          	.insn	4, 0x7ce7050b
    800053cc:	5ce7050b          	.insn	4, 0x5ce7050b
    800053d0:	3ce7050b          	.insn	4, 0x3ce7050b
    800053d4:	c0e7057b          	.insn	4, 0xc0e7057b
    800053d8:	080e3403          	ld	s0,128(t3)
    800053dc:	ff8c                	sd	a1,56(a5)
    800053de:	9cdc858b          	.insn	4, 0x9cdc858b
    800053e2:	7ce7058b          	.insn	4, 0x7ce7058b
    800053e6:	5ce7058b          	.insn	4, 0x5ce7058b
    800053ea:	3ce7058b          	.insn	4, 0x3ce7058b
    800053ee:	c0e405fb          	.insn	4, 0xc0e405fb
    800053f2:	e3a8                	sd	a0,64(a5)
    800053f4:	9cdd050b          	.insn	4, 0x9cdd050b
    800053f8:	7ce7050b          	.insn	4, 0x7ce7050b
    800053fc:	5ce7050b          	.insn	4, 0x5ce7050b
    80005400:	3ce7050b          	.insn	4, 0x3ce7050b
    80005404:	c084057b          	.insn	4, 0xc084057b
    80005408:	e7ac                	sd	a1,72(a5)
    8000540a:	9cdd858b          	.insn	4, 0x9cdd858b
    8000540e:	7ce7058b          	.insn	4, 0x7ce7058b
    80005412:	5ce7058b          	.insn	4, 0x5ce7058b
    80005416:	3ce4058b          	.insn	4, 0x3ce4058b
    8000541a:	c08405fb          	.insn	4, 0xc08405fb
    8000541e:	eba8                	sd	a0,80(a5)
    80005420:	7ce7050b          	.insn	4, 0x7ce7050b
    80005424:	5ce7050b          	.insn	4, 0x5ce7050b
    80005428:	3c84050b          	.insn	4, 0x3c84050b
    8000542c:	c084057b          	.insn	4, 0xc084057b
    80005430:	efac                	sd	a1,88(a5)
    80005432:	9cd0858b          	.insn	4, 0x9cd0858b
    80005436:	7ce7058b          	.insn	4, 0x7ce7058b
    8000543a:	5ce4058b          	.insn	4, 0x5ce4058b
    8000543e:	3c84058b          	.insn	4, 0x3c84058b
    80005442:	c08405fb          	.insn	4, 0xc08405fb
    80005446:	f3a8                	sd	a0,96(a5)
    80005448:	9cd8050b          	.insn	4, 0x9cd8050b
    8000544c:	7ce7050b          	.insn	4, 0x7ce7050b
    80005450:	5c84050b          	.insn	4, 0x5c84050b
    80005454:	3c84050b          	.insn	4, 0x3c84050b
    80005458:	c084057b          	.insn	4, 0xc084057b
    8000545c:	9cd9048b          	.insn	4, 0x9cd9048b
    80005460:	7ce4070b          	.insn	4, 0x7ce4070b
    80005464:	5c84070b          	.insn	4, 0x5c84070b
    80005468:	3c84070b          	.insn	4, 0x3c84070b
    8000546c:	c08404fb          	.insn	4, 0xc08404fb
    80005470:	f7ac                	sd	a1,104(a5)
    80005472:	fba8                	sd	a0,112(a5)
    80005474:	7c84050b          	.insn	4, 0x7c84050b
    80005478:	5c84050b          	.insn	4, 0x5c84050b
    8000547c:	3c84050b          	.insn	4, 0x3c84050b
    80005480:	c084057b          	.insn	4, 0xc084057b
    80005484:	0c0e3703          	ld	a4,192(t3)
    80005488:	ffa4                	sd	s1,120(a5)
    8000548a:	9cdc858b          	.insn	4, 0x9cdc858b
    8000548e:	7c84058b          	.insn	4, 0x7c84058b
    80005492:	5c84058b          	.insn	4, 0x5c84058b
    80005496:	3c84058b          	.insn	4, 0x3c84058b
    8000549a:	c08705fb          	.insn	4, 0xc08705fb
    8000549e:	e3c8                	sd	a0,128(a5)
    800054a0:	9cdd050b          	.insn	4, 0x9cdd050b
    800054a4:	7c84050b          	.insn	4, 0x7c84050b
    800054a8:	5c84050b          	.insn	4, 0x5c84050b
    800054ac:	3c84050b          	.insn	4, 0x3c84050b
    800054b0:	c0e7057b          	.insn	4, 0xc0e7057b
    800054b4:	e7cc                	sd	a1,136(a5)
    800054b6:	9cdd858b          	.insn	4, 0x9cdd858b
    800054ba:	7c84058b          	.insn	4, 0x7c84058b
    800054be:	5c84058b          	.insn	4, 0x5c84058b
    800054c2:	3c87058b          	.insn	4, 0x3c87058b
    800054c6:	c0e705fb          	.insn	4, 0xc0e705fb
    800054ca:	ebc8                	sd	a0,144(a5)
    800054cc:	7c84050b          	.insn	4, 0x7c84050b
    800054d0:	5c84050b          	.insn	4, 0x5c84050b
    800054d4:	3ce7050b          	.insn	4, 0x3ce7050b
    800054d8:	c0e7057b          	.insn	4, 0xc0e7057b
    800054dc:	efcc                	sd	a1,152(a5)
    800054de:	9cd0858b          	.insn	4, 0x9cd0858b
    800054e2:	7c84058b          	.insn	4, 0x7c84058b
    800054e6:	5c87058b          	.insn	4, 0x5c87058b
    800054ea:	3ce7058b          	.insn	4, 0x3ce7058b
    800054ee:	c0e705fb          	.insn	4, 0xc0e705fb
    800054f2:	f3c8                	sd	a0,160(a5)
    800054f4:	9cd8050b          	.insn	4, 0x9cd8050b
    800054f8:	7c84050b          	.insn	4, 0x7c84050b
    800054fc:	5ce7050b          	.insn	4, 0x5ce7050b
    80005500:	3ce7050b          	.insn	4, 0x3ce7050b
    80005504:	c0e7057b          	.insn	4, 0xc0e7057b
    80005508:	9cd9048b          	.insn	4, 0x9cd9048b
    8000550c:	7c87040b          	.insn	4, 0x7c87040b
    80005510:	5ce7040b          	.insn	4, 0x5ce7040b
    80005514:	3ce7040b          	.insn	4, 0x3ce7040b
    80005518:	c0e704fb          	.insn	4, 0xc0e704fb
    8000551c:	f7cc                	sd	a1,168(a5)
    8000551e:	fbc8                	sd	a0,176(a5)
    80005520:	7ce7050b          	.insn	4, 0x7ce7050b
    80005524:	5ce7050b          	.insn	4, 0x5ce7050b
    80005528:	3ce7050b          	.insn	4, 0x3ce7050b
    8000552c:	c0e7057b          	.insn	4, 0xc0e7057b
    80005530:	100e3403          	ld	s0,256(t3)
    80005534:	ffc4                	sd	s1,184(a5)
    80005536:	9cdc858b          	.insn	4, 0x9cdc858b
    8000553a:	7ce7058b          	.insn	4, 0x7ce7058b
    8000553e:	5ce7058b          	.insn	4, 0x5ce7058b
    80005542:	3ce7058b          	.insn	4, 0x3ce7058b
    80005546:	c0e405fb          	.insn	4, 0xc0e405fb
    8000554a:	e3e8                	sd	a0,192(a5)
    8000554c:	9cdd050b          	.insn	4, 0x9cdd050b
    80005550:	7ce7050b          	.insn	4, 0x7ce7050b
    80005554:	5ce7050b          	.insn	4, 0x5ce7050b
    80005558:	3ce7050b          	.insn	4, 0x3ce7050b
    8000555c:	c084057b          	.insn	4, 0xc084057b
    80005560:	e7ec                	sd	a1,200(a5)
    80005562:	9cdd858b          	.insn	4, 0x9cdd858b
    80005566:	7ce7058b          	.insn	4, 0x7ce7058b
    8000556a:	5ce7058b          	.insn	4, 0x5ce7058b
    8000556e:	3ce4058b          	.insn	4, 0x3ce4058b
    80005572:	c08405fb          	.insn	4, 0xc08405fb
    80005576:	ebe8                	sd	a0,208(a5)
    80005578:	7ce7050b          	.insn	4, 0x7ce7050b
    8000557c:	5ce7050b          	.insn	4, 0x5ce7050b
    80005580:	3c84050b          	.insn	4, 0x3c84050b
    80005584:	c084057b          	.insn	4, 0xc084057b
    80005588:	efec                	sd	a1,216(a5)
    8000558a:	9cd0858b          	.insn	4, 0x9cd0858b
    8000558e:	7ce7058b          	.insn	4, 0x7ce7058b
    80005592:	5ce4058b          	.insn	4, 0x5ce4058b
    80005596:	3c84058b          	.insn	4, 0x3c84058b
    8000559a:	c08405fb          	.insn	4, 0xc08405fb
    8000559e:	f3e8                	sd	a0,224(a5)
    800055a0:	9cd8050b          	.insn	4, 0x9cd8050b
    800055a4:	7ce7050b          	.insn	4, 0x7ce7050b
    800055a8:	5c84050b          	.insn	4, 0x5c84050b
    800055ac:	3c84050b          	.insn	4, 0x3c84050b
    800055b0:	c084057b          	.insn	4, 0xc084057b
    800055b4:	9cd9048b          	.insn	4, 0x9cd9048b
    800055b8:	7ce4070b          	.insn	4, 0x7ce4070b
    800055bc:	5c84070b          	.insn	4, 0x5c84070b
    800055c0:	3c84070b          	.insn	4, 0x3c84070b
    800055c4:	c08404fb          	.insn	4, 0xc08404fb
    800055c8:	f7ec                	sd	a1,232(a5)
    800055ca:	fbe8                	sd	a0,240(a5)
    800055cc:	7c84050b          	.insn	4, 0x7c84050b
    800055d0:	5c84050b          	.insn	4, 0x5c84050b
    800055d4:	3c84050b          	.insn	4, 0x3c84050b
    800055d8:	c084057b          	.insn	4, 0xc084057b
    800055dc:	140e3703          	ld	a4,320(t3)
    800055e0:	ffe4                	sd	s1,248(a5)
    800055e2:	9cdc858b          	.insn	4, 0x9cdc858b
    800055e6:	7c84058b          	.insn	4, 0x7c84058b
    800055ea:	5c84058b          	.insn	4, 0x5c84058b
    800055ee:	3c84058b          	.insn	4, 0x3c84058b
    800055f2:	c08705fb          	.insn	4, 0xc08705fb
    800055f6:	10a7b023          	sd	a0,256(a5)
    800055fa:	9cdd050b          	.insn	4, 0x9cdd050b
    800055fe:	7c84050b          	.insn	4, 0x7c84050b
    80005602:	5c84050b          	.insn	4, 0x5c84050b
    80005606:	3c84050b          	.insn	4, 0x3c84050b
    8000560a:	c0e7057b          	.insn	4, 0xc0e7057b
    8000560e:	10b7b423          	sd	a1,264(a5)
    80005612:	9cdd858b          	.insn	4, 0x9cdd858b
    80005616:	7c84058b          	.insn	4, 0x7c84058b
    8000561a:	5c84058b          	.insn	4, 0x5c84058b
    8000561e:	3c87058b          	.insn	4, 0x3c87058b
    80005622:	c0e705fb          	.insn	4, 0xc0e705fb
    80005626:	10a7b823          	sd	a0,272(a5)
    8000562a:	7c84050b          	.insn	4, 0x7c84050b
    8000562e:	5c84050b          	.insn	4, 0x5c84050b
    80005632:	3ce7050b          	.insn	4, 0x3ce7050b
    80005636:	c0e7057b          	.insn	4, 0xc0e7057b
    8000563a:	10b7bc23          	sd	a1,280(a5)
    8000563e:	9cd0858b          	.insn	4, 0x9cd0858b
    80005642:	7c84058b          	.insn	4, 0x7c84058b
    80005646:	5c87058b          	.insn	4, 0x5c87058b
    8000564a:	3ce7058b          	.insn	4, 0x3ce7058b
    8000564e:	c0e705fb          	.insn	4, 0xc0e705fb
    80005652:	12a7b023          	sd	a0,288(a5)
    80005656:	9cd8050b          	.insn	4, 0x9cd8050b
    8000565a:	7c84050b          	.insn	4, 0x7c84050b
    8000565e:	5ce7050b          	.insn	4, 0x5ce7050b
    80005662:	3ce7050b          	.insn	4, 0x3ce7050b
    80005666:	c0e7057b          	.insn	4, 0xc0e7057b
    8000566a:	9cd9048b          	.insn	4, 0x9cd9048b
    8000566e:	7c87040b          	.insn	4, 0x7c87040b
    80005672:	5ce7040b          	.insn	4, 0x5ce7040b
    80005676:	3ce7040b          	.insn	4, 0x3ce7040b
    8000567a:	c0e704fb          	.insn	4, 0xc0e704fb
    8000567e:	12b7b423          	sd	a1,296(a5)
    80005682:	12a7b823          	sd	a0,304(a5)
    80005686:	7ce7050b          	.insn	4, 0x7ce7050b
    8000568a:	5ce7050b          	.insn	4, 0x5ce7050b
    8000568e:	3ce7050b          	.insn	4, 0x3ce7050b
    80005692:	c0e7057b          	.insn	4, 0xc0e7057b
    80005696:	180e3403          	ld	s0,384(t3)
    8000569a:	1297bc23          	sd	s1,312(a5)
    8000569e:	9cdc858b          	.insn	4, 0x9cdc858b
    800056a2:	7ce7058b          	.insn	4, 0x7ce7058b
    800056a6:	5ce7058b          	.insn	4, 0x5ce7058b
    800056aa:	3ce7058b          	.insn	4, 0x3ce7058b
    800056ae:	c0e405fb          	.insn	4, 0xc0e405fb
    800056b2:	14a7b023          	sd	a0,320(a5)
    800056b6:	9cdd050b          	.insn	4, 0x9cdd050b
    800056ba:	7ce7050b          	.insn	4, 0x7ce7050b
    800056be:	5ce7050b          	.insn	4, 0x5ce7050b
    800056c2:	3ce7050b          	.insn	4, 0x3ce7050b
    800056c6:	c084057b          	.insn	4, 0xc084057b
    800056ca:	14b7b423          	sd	a1,328(a5)
    800056ce:	9cdd858b          	.insn	4, 0x9cdd858b
    800056d2:	7ce7058b          	.insn	4, 0x7ce7058b
    800056d6:	5ce7058b          	.insn	4, 0x5ce7058b
    800056da:	3ce4058b          	.insn	4, 0x3ce4058b
    800056de:	c08405fb          	.insn	4, 0xc08405fb
    800056e2:	14a7b823          	sd	a0,336(a5)
    800056e6:	7ce7050b          	.insn	4, 0x7ce7050b
    800056ea:	5ce7050b          	.insn	4, 0x5ce7050b
    800056ee:	3c84050b          	.insn	4, 0x3c84050b
    800056f2:	c084057b          	.insn	4, 0xc084057b
    800056f6:	14b7bc23          	sd	a1,344(a5)
    800056fa:	9cd0858b          	.insn	4, 0x9cd0858b
    800056fe:	7ce7058b          	.insn	4, 0x7ce7058b
    80005702:	5ce4058b          	.insn	4, 0x5ce4058b
    80005706:	3c84058b          	.insn	4, 0x3c84058b
    8000570a:	c08405fb          	.insn	4, 0xc08405fb
    8000570e:	16a7b023          	sd	a0,352(a5)
    80005712:	9cd8050b          	.insn	4, 0x9cd8050b
    80005716:	7ce7050b          	.insn	4, 0x7ce7050b
    8000571a:	5c84050b          	.insn	4, 0x5c84050b
    8000571e:	3c84050b          	.insn	4, 0x3c84050b
    80005722:	c084057b          	.insn	4, 0xc084057b
    80005726:	9cd9048b          	.insn	4, 0x9cd9048b
    8000572a:	7ce4070b          	.insn	4, 0x7ce4070b
    8000572e:	5c84070b          	.insn	4, 0x5c84070b
    80005732:	3c84070b          	.insn	4, 0x3c84070b
    80005736:	c08404fb          	.insn	4, 0xc08404fb
    8000573a:	16b7b423          	sd	a1,360(a5)
    8000573e:	16a7b823          	sd	a0,368(a5)
    80005742:	7c84050b          	.insn	4, 0x7c84050b
    80005746:	5c84050b          	.insn	4, 0x5c84050b
    8000574a:	3c84050b          	.insn	4, 0x3c84050b
    8000574e:	c084057b          	.insn	4, 0xc084057b
    80005752:	1c0e3703          	ld	a4,448(t3)
    80005756:	1697bc23          	sd	s1,376(a5)
    8000575a:	9cdc858b          	.insn	4, 0x9cdc858b
    8000575e:	7c84058b          	.insn	4, 0x7c84058b
    80005762:	5c84058b          	.insn	4, 0x5c84058b
    80005766:	3c84058b          	.insn	4, 0x3c84058b
    8000576a:	c08705fb          	.insn	4, 0xc08705fb
    8000576e:	18a7b023          	sd	a0,384(a5)
    80005772:	9cdd050b          	.insn	4, 0x9cdd050b
    80005776:	7c84050b          	.insn	4, 0x7c84050b
    8000577a:	5c84050b          	.insn	4, 0x5c84050b
    8000577e:	3c84050b          	.insn	4, 0x3c84050b
    80005782:	c0e7057b          	.insn	4, 0xc0e7057b
    80005786:	18b7b423          	sd	a1,392(a5)
    8000578a:	9cdd858b          	.insn	4, 0x9cdd858b
    8000578e:	7c84058b          	.insn	4, 0x7c84058b
    80005792:	5c84058b          	.insn	4, 0x5c84058b
    80005796:	3c87058b          	.insn	4, 0x3c87058b
    8000579a:	c0e705fb          	.insn	4, 0xc0e705fb
    8000579e:	18a7b823          	sd	a0,400(a5)
    800057a2:	7c84050b          	.insn	4, 0x7c84050b
    800057a6:	5c84050b          	.insn	4, 0x5c84050b
    800057aa:	3ce7050b          	.insn	4, 0x3ce7050b
    800057ae:	c0e7057b          	.insn	4, 0xc0e7057b
    800057b2:	18b7bc23          	sd	a1,408(a5)
    800057b6:	9cd0858b          	.insn	4, 0x9cd0858b
    800057ba:	7c84058b          	.insn	4, 0x7c84058b
    800057be:	5c87058b          	.insn	4, 0x5c87058b
    800057c2:	3ce7058b          	.insn	4, 0x3ce7058b
    800057c6:	c0e705fb          	.insn	4, 0xc0e705fb
    800057ca:	1aa7b023          	sd	a0,416(a5)
    800057ce:	9cd8050b          	.insn	4, 0x9cd8050b
    800057d2:	7c84050b          	.insn	4, 0x7c84050b
    800057d6:	5ce7050b          	.insn	4, 0x5ce7050b
    800057da:	3ce7050b          	.insn	4, 0x3ce7050b
    800057de:	c0e7057b          	.insn	4, 0xc0e7057b
    800057e2:	9cd9048b          	.insn	4, 0x9cd9048b
    800057e6:	7c87040b          	.insn	4, 0x7c87040b
    800057ea:	5ce7040b          	.insn	4, 0x5ce7040b
    800057ee:	3ce7040b          	.insn	4, 0x3ce7040b
    800057f2:	c0e704fb          	.insn	4, 0xc0e704fb
    800057f6:	1ab7b423          	sd	a1,424(a5)
    800057fa:	1aa7b823          	sd	a0,432(a5)
    800057fe:	7ce7050b          	.insn	4, 0x7ce7050b
    80005802:	5ce7050b          	.insn	4, 0x5ce7050b
    80005806:	3ce7050b          	.insn	4, 0x3ce7050b
    8000580a:	c0e7057b          	.insn	4, 0xc0e7057b
    8000580e:	200e3403          	ld	s0,512(t3)
    80005812:	1a97bc23          	sd	s1,440(a5)
    80005816:	9cdc858b          	.insn	4, 0x9cdc858b
    8000581a:	7ce7058b          	.insn	4, 0x7ce7058b
    8000581e:	5ce7058b          	.insn	4, 0x5ce7058b
    80005822:	3ce7058b          	.insn	4, 0x3ce7058b
    80005826:	c0e405fb          	.insn	4, 0xc0e405fb
    8000582a:	1ca7b023          	sd	a0,448(a5)
    8000582e:	9cdd050b          	.insn	4, 0x9cdd050b
    80005832:	7ce7050b          	.insn	4, 0x7ce7050b
    80005836:	5ce7050b          	.insn	4, 0x5ce7050b
    8000583a:	3ce7050b          	.insn	4, 0x3ce7050b
    8000583e:	c084057b          	.insn	4, 0xc084057b
    80005842:	1cb7b423          	sd	a1,456(a5)
    80005846:	9cdd858b          	.insn	4, 0x9cdd858b
    8000584a:	7ce7058b          	.insn	4, 0x7ce7058b
    8000584e:	5ce7058b          	.insn	4, 0x5ce7058b
    80005852:	3ce4058b          	.insn	4, 0x3ce4058b
    80005856:	c08405fb          	.insn	4, 0xc08405fb
    8000585a:	1ca7b823          	sd	a0,464(a5)
    8000585e:	7ce7050b          	.insn	4, 0x7ce7050b
    80005862:	5ce7050b          	.insn	4, 0x5ce7050b
    80005866:	3c84050b          	.insn	4, 0x3c84050b
    8000586a:	c084057b          	.insn	4, 0xc084057b
    8000586e:	1cb7bc23          	sd	a1,472(a5)
    80005872:	9cd0858b          	.insn	4, 0x9cd0858b
    80005876:	7ce7058b          	.insn	4, 0x7ce7058b
    8000587a:	5ce4058b          	.insn	4, 0x5ce4058b
    8000587e:	3c84058b          	.insn	4, 0x3c84058b
    80005882:	c08405fb          	.insn	4, 0xc08405fb
    80005886:	1ea7b023          	sd	a0,480(a5)
    8000588a:	9cd8050b          	.insn	4, 0x9cd8050b
    8000588e:	7ce7050b          	.insn	4, 0x7ce7050b
    80005892:	5c84050b          	.insn	4, 0x5c84050b
    80005896:	3c84050b          	.insn	4, 0x3c84050b
    8000589a:	c084057b          	.insn	4, 0xc084057b
    8000589e:	9cd9048b          	.insn	4, 0x9cd9048b
    800058a2:	7ce4070b          	.insn	4, 0x7ce4070b
    800058a6:	5c84070b          	.insn	4, 0x5c84070b
    800058aa:	3c84070b          	.insn	4, 0x3c84070b
    800058ae:	c08404fb          	.insn	4, 0xc08404fb
    800058b2:	1eb7b423          	sd	a1,488(a5)
    800058b6:	1ea7b823          	sd	a0,496(a5)
    800058ba:	7c84050b          	.insn	4, 0x7c84050b
    800058be:	5c84050b          	.insn	4, 0x5c84050b
    800058c2:	3c84050b          	.insn	4, 0x3c84050b
    800058c6:	c084057b          	.insn	4, 0xc084057b
    800058ca:	240e3703          	ld	a4,576(t3)
    800058ce:	1e97bc23          	sd	s1,504(a5)
    800058d2:	9cdc858b          	.insn	4, 0x9cdc858b
    800058d6:	7c84058b          	.insn	4, 0x7c84058b
    800058da:	5c84058b          	.insn	4, 0x5c84058b
    800058de:	3c84058b          	.insn	4, 0x3c84058b
    800058e2:	c08705fb          	.insn	4, 0xc08705fb
    800058e6:	20a7b023          	sd	a0,512(a5)
    800058ea:	9cdd050b          	.insn	4, 0x9cdd050b
    800058ee:	7c84050b          	.insn	4, 0x7c84050b
    800058f2:	5c84050b          	.insn	4, 0x5c84050b
    800058f6:	3c84050b          	.insn	4, 0x3c84050b
    800058fa:	c0e7057b          	.insn	4, 0xc0e7057b
    800058fe:	20b7b423          	sd	a1,520(a5)
    80005902:	9cdd858b          	.insn	4, 0x9cdd858b
    80005906:	7c84058b          	.insn	4, 0x7c84058b
    8000590a:	5c84058b          	.insn	4, 0x5c84058b
    8000590e:	3c87058b          	.insn	4, 0x3c87058b
    80005912:	c0e705fb          	.insn	4, 0xc0e705fb
    80005916:	20a7b823          	sd	a0,528(a5)
    8000591a:	7c84050b          	.insn	4, 0x7c84050b
    8000591e:	5c84050b          	.insn	4, 0x5c84050b
    80005922:	3ce7050b          	.insn	4, 0x3ce7050b
    80005926:	c0e7057b          	.insn	4, 0xc0e7057b
    8000592a:	20b7bc23          	sd	a1,536(a5)
    8000592e:	9cd0858b          	.insn	4, 0x9cd0858b
    80005932:	7c84058b          	.insn	4, 0x7c84058b
    80005936:	5c87058b          	.insn	4, 0x5c87058b
    8000593a:	3ce7058b          	.insn	4, 0x3ce7058b
    8000593e:	c0e705fb          	.insn	4, 0xc0e705fb
    80005942:	22a7b023          	sd	a0,544(a5)
    80005946:	9cd8050b          	.insn	4, 0x9cd8050b
    8000594a:	7c84050b          	.insn	4, 0x7c84050b
    8000594e:	5ce7050b          	.insn	4, 0x5ce7050b
    80005952:	3ce7050b          	.insn	4, 0x3ce7050b
    80005956:	c0e7057b          	.insn	4, 0xc0e7057b
    8000595a:	9cd9048b          	.insn	4, 0x9cd9048b
    8000595e:	7c87040b          	.insn	4, 0x7c87040b
    80005962:	5ce7040b          	.insn	4, 0x5ce7040b
    80005966:	3ce7040b          	.insn	4, 0x3ce7040b
    8000596a:	c0e704fb          	.insn	4, 0xc0e704fb
    8000596e:	22b7b423          	sd	a1,552(a5)
    80005972:	22a7b823          	sd	a0,560(a5)
    80005976:	7ce7050b          	.insn	4, 0x7ce7050b
    8000597a:	5ce7050b          	.insn	4, 0x5ce7050b
    8000597e:	3ce7050b          	.insn	4, 0x3ce7050b
    80005982:	c0e7057b          	.insn	4, 0xc0e7057b
    80005986:	280e3403          	ld	s0,640(t3)
    8000598a:	2297bc23          	sd	s1,568(a5)
    8000598e:	9cdc858b          	.insn	4, 0x9cdc858b
    80005992:	7ce7058b          	.insn	4, 0x7ce7058b
    80005996:	5ce7058b          	.insn	4, 0x5ce7058b
    8000599a:	3ce7058b          	.insn	4, 0x3ce7058b
    8000599e:	c0e405fb          	.insn	4, 0xc0e405fb
    800059a2:	24a7b023          	sd	a0,576(a5)
    800059a6:	9cdd050b          	.insn	4, 0x9cdd050b
    800059aa:	7ce7050b          	.insn	4, 0x7ce7050b
    800059ae:	5ce7050b          	.insn	4, 0x5ce7050b
    800059b2:	3ce7050b          	.insn	4, 0x3ce7050b
    800059b6:	c084057b          	.insn	4, 0xc084057b
    800059ba:	24b7b423          	sd	a1,584(a5)
    800059be:	9cdd858b          	.insn	4, 0x9cdd858b
    800059c2:	7ce7058b          	.insn	4, 0x7ce7058b
    800059c6:	5ce7058b          	.insn	4, 0x5ce7058b
    800059ca:	3ce4058b          	.insn	4, 0x3ce4058b
    800059ce:	c08405fb          	.insn	4, 0xc08405fb
    800059d2:	24a7b823          	sd	a0,592(a5)
    800059d6:	7ce7050b          	.insn	4, 0x7ce7050b
    800059da:	5ce7050b          	.insn	4, 0x5ce7050b
    800059de:	3c84050b          	.insn	4, 0x3c84050b
    800059e2:	c084057b          	.insn	4, 0xc084057b
    800059e6:	24b7bc23          	sd	a1,600(a5)
    800059ea:	9cd0858b          	.insn	4, 0x9cd0858b
    800059ee:	7ce7058b          	.insn	4, 0x7ce7058b
    800059f2:	5ce4058b          	.insn	4, 0x5ce4058b
    800059f6:	3c84058b          	.insn	4, 0x3c84058b
    800059fa:	c08405fb          	.insn	4, 0xc08405fb
    800059fe:	26a7b023          	sd	a0,608(a5)
    80005a02:	9cd8050b          	.insn	4, 0x9cd8050b
    80005a06:	7ce7050b          	.insn	4, 0x7ce7050b
    80005a0a:	5c84050b          	.insn	4, 0x5c84050b
    80005a0e:	3c84050b          	.insn	4, 0x3c84050b
    80005a12:	c084057b          	.insn	4, 0xc084057b
    80005a16:	9cd9048b          	.insn	4, 0x9cd9048b
    80005a1a:	7ce4070b          	.insn	4, 0x7ce4070b
    80005a1e:	5c84070b          	.insn	4, 0x5c84070b
    80005a22:	3c84070b          	.insn	4, 0x3c84070b
    80005a26:	c08404fb          	.insn	4, 0xc08404fb
    80005a2a:	26b7b423          	sd	a1,616(a5)
    80005a2e:	26a7b823          	sd	a0,624(a5)
    80005a32:	7c84050b          	.insn	4, 0x7c84050b
    80005a36:	5c84050b          	.insn	4, 0x5c84050b
    80005a3a:	3c84050b          	.insn	4, 0x3c84050b
    80005a3e:	c084057b          	.insn	4, 0xc084057b
    80005a42:	2c0e3703          	ld	a4,704(t3)
    80005a46:	2697bc23          	sd	s1,632(a5)
    80005a4a:	9cdc858b          	.insn	4, 0x9cdc858b
    80005a4e:	7c84058b          	.insn	4, 0x7c84058b
    80005a52:	5c84058b          	.insn	4, 0x5c84058b
    80005a56:	3c84058b          	.insn	4, 0x3c84058b
    80005a5a:	c08705fb          	.insn	4, 0xc08705fb
    80005a5e:	28a7b023          	sd	a0,640(a5)
    80005a62:	9cdd050b          	.insn	4, 0x9cdd050b
    80005a66:	7c84050b          	.insn	4, 0x7c84050b
    80005a6a:	5c84050b          	.insn	4, 0x5c84050b
    80005a6e:	3c84050b          	.insn	4, 0x3c84050b
    80005a72:	c0e7057b          	.insn	4, 0xc0e7057b
    80005a76:	28b7b423          	sd	a1,648(a5)
    80005a7a:	9cdd858b          	.insn	4, 0x9cdd858b
    80005a7e:	7c84058b          	.insn	4, 0x7c84058b
    80005a82:	5c84058b          	.insn	4, 0x5c84058b
    80005a86:	3c87058b          	.insn	4, 0x3c87058b
    80005a8a:	c0e705fb          	.insn	4, 0xc0e705fb
    80005a8e:	28a7b823          	sd	a0,656(a5)
    80005a92:	7c84050b          	.insn	4, 0x7c84050b
    80005a96:	5c84050b          	.insn	4, 0x5c84050b
    80005a9a:	3ce7050b          	.insn	4, 0x3ce7050b
    80005a9e:	c0e7057b          	.insn	4, 0xc0e7057b
    80005aa2:	28b7bc23          	sd	a1,664(a5)
    80005aa6:	9cd0858b          	.insn	4, 0x9cd0858b
    80005aaa:	7c84058b          	.insn	4, 0x7c84058b
    80005aae:	5c87058b          	.insn	4, 0x5c87058b
    80005ab2:	3ce7058b          	.insn	4, 0x3ce7058b
    80005ab6:	c0e705fb          	.insn	4, 0xc0e705fb
    80005aba:	2aa7b023          	sd	a0,672(a5)
    80005abe:	9cd8050b          	.insn	4, 0x9cd8050b
    80005ac2:	7c84050b          	.insn	4, 0x7c84050b
    80005ac6:	5ce7050b          	.insn	4, 0x5ce7050b
    80005aca:	3ce7050b          	.insn	4, 0x3ce7050b
    80005ace:	c0e7057b          	.insn	4, 0xc0e7057b
    80005ad2:	9cd9048b          	.insn	4, 0x9cd9048b
    80005ad6:	7c87040b          	.insn	4, 0x7c87040b
    80005ada:	5ce7040b          	.insn	4, 0x5ce7040b
    80005ade:	3ce7040b          	.insn	4, 0x3ce7040b
    80005ae2:	c0e704fb          	.insn	4, 0xc0e704fb
    80005ae6:	2ab7b423          	sd	a1,680(a5)
    80005aea:	2aa7b823          	sd	a0,688(a5)
    80005aee:	7ce7050b          	.insn	4, 0x7ce7050b
    80005af2:	5ce7050b          	.insn	4, 0x5ce7050b
    80005af6:	3ce7050b          	.insn	4, 0x3ce7050b
    80005afa:	c0e7057b          	.insn	4, 0xc0e7057b
    80005afe:	300e3403          	ld	s0,768(t3)
    80005b02:	2a97bc23          	sd	s1,696(a5)
    80005b06:	9cdc858b          	.insn	4, 0x9cdc858b
    80005b0a:	7ce7058b          	.insn	4, 0x7ce7058b
    80005b0e:	5ce7058b          	.insn	4, 0x5ce7058b
    80005b12:	3ce7058b          	.insn	4, 0x3ce7058b
    80005b16:	c0e405fb          	.insn	4, 0xc0e405fb
    80005b1a:	2ca7b023          	sd	a0,704(a5)
    80005b1e:	9cdd050b          	.insn	4, 0x9cdd050b
    80005b22:	7ce7050b          	.insn	4, 0x7ce7050b
    80005b26:	5ce7050b          	.insn	4, 0x5ce7050b
    80005b2a:	3ce7050b          	.insn	4, 0x3ce7050b
    80005b2e:	c084057b          	.insn	4, 0xc084057b
    80005b32:	2cb7b423          	sd	a1,712(a5)
    80005b36:	9cdd858b          	.insn	4, 0x9cdd858b
    80005b3a:	7ce7058b          	.insn	4, 0x7ce7058b
    80005b3e:	5ce7058b          	.insn	4, 0x5ce7058b
    80005b42:	3ce4058b          	.insn	4, 0x3ce4058b
    80005b46:	c08405fb          	.insn	4, 0xc08405fb
    80005b4a:	2ca7b823          	sd	a0,720(a5)
    80005b4e:	7ce7050b          	.insn	4, 0x7ce7050b
    80005b52:	5ce7050b          	.insn	4, 0x5ce7050b
    80005b56:	3c84050b          	.insn	4, 0x3c84050b
    80005b5a:	c084057b          	.insn	4, 0xc084057b
    80005b5e:	2cb7bc23          	sd	a1,728(a5)
    80005b62:	9cd0858b          	.insn	4, 0x9cd0858b
    80005b66:	7ce7058b          	.insn	4, 0x7ce7058b
    80005b6a:	5ce4058b          	.insn	4, 0x5ce4058b
    80005b6e:	3c84058b          	.insn	4, 0x3c84058b
    80005b72:	c08405fb          	.insn	4, 0xc08405fb
    80005b76:	2ea7b023          	sd	a0,736(a5)
    80005b7a:	9cd8050b          	.insn	4, 0x9cd8050b
    80005b7e:	7ce7050b          	.insn	4, 0x7ce7050b
    80005b82:	5c84050b          	.insn	4, 0x5c84050b
    80005b86:	3c84050b          	.insn	4, 0x3c84050b
    80005b8a:	c084057b          	.insn	4, 0xc084057b
    80005b8e:	9cd9048b          	.insn	4, 0x9cd9048b
    80005b92:	7ce4070b          	.insn	4, 0x7ce4070b
    80005b96:	5c84070b          	.insn	4, 0x5c84070b
    80005b9a:	3c84070b          	.insn	4, 0x3c84070b
    80005b9e:	c08404fb          	.insn	4, 0xc08404fb
    80005ba2:	2eb7b423          	sd	a1,744(a5)
    80005ba6:	2ea7b823          	sd	a0,752(a5)
    80005baa:	7c84050b          	.insn	4, 0x7c84050b
    80005bae:	5c84050b          	.insn	4, 0x5c84050b
    80005bb2:	3c84050b          	.insn	4, 0x3c84050b
    80005bb6:	c084057b          	.insn	4, 0xc084057b
    80005bba:	340e3703          	ld	a4,832(t3)
    80005bbe:	2e97bc23          	sd	s1,760(a5)
    80005bc2:	9cdc858b          	.insn	4, 0x9cdc858b
    80005bc6:	7c84058b          	.insn	4, 0x7c84058b
    80005bca:	5c84058b          	.insn	4, 0x5c84058b
    80005bce:	3c84058b          	.insn	4, 0x3c84058b
    80005bd2:	c08705fb          	.insn	4, 0xc08705fb
    80005bd6:	30a7b023          	sd	a0,768(a5)
    80005bda:	9cdd050b          	.insn	4, 0x9cdd050b
    80005bde:	7c84050b          	.insn	4, 0x7c84050b
    80005be2:	5c84050b          	.insn	4, 0x5c84050b
    80005be6:	3c84050b          	.insn	4, 0x3c84050b
    80005bea:	c0e7057b          	.insn	4, 0xc0e7057b
    80005bee:	30b7b423          	sd	a1,776(a5)
    80005bf2:	9cdd858b          	.insn	4, 0x9cdd858b
    80005bf6:	7c84058b          	.insn	4, 0x7c84058b
    80005bfa:	5c84058b          	.insn	4, 0x5c84058b
    80005bfe:	3c87058b          	.insn	4, 0x3c87058b
    80005c02:	c0e705fb          	.insn	4, 0xc0e705fb
    80005c06:	30a7b823          	sd	a0,784(a5)
    80005c0a:	7c84050b          	.insn	4, 0x7c84050b
    80005c0e:	5c84050b          	.insn	4, 0x5c84050b
    80005c12:	3ce7050b          	.insn	4, 0x3ce7050b
    80005c16:	c0e7057b          	.insn	4, 0xc0e7057b
    80005c1a:	30b7bc23          	sd	a1,792(a5)
    80005c1e:	9cd0858b          	.insn	4, 0x9cd0858b
    80005c22:	7c84058b          	.insn	4, 0x7c84058b
    80005c26:	5c87058b          	.insn	4, 0x5c87058b
    80005c2a:	3ce7058b          	.insn	4, 0x3ce7058b
    80005c2e:	c0e705fb          	.insn	4, 0xc0e705fb
    80005c32:	32a7b023          	sd	a0,800(a5)
    80005c36:	9cd8050b          	.insn	4, 0x9cd8050b
    80005c3a:	7c84050b          	.insn	4, 0x7c84050b
    80005c3e:	5ce7050b          	.insn	4, 0x5ce7050b
    80005c42:	3ce7050b          	.insn	4, 0x3ce7050b
    80005c46:	c0e7057b          	.insn	4, 0xc0e7057b
    80005c4a:	9cd9048b          	.insn	4, 0x9cd9048b
    80005c4e:	7c87040b          	.insn	4, 0x7c87040b
    80005c52:	5ce7040b          	.insn	4, 0x5ce7040b
    80005c56:	3ce7040b          	.insn	4, 0x3ce7040b
    80005c5a:	c0e704fb          	.insn	4, 0xc0e704fb
    80005c5e:	32b7b423          	sd	a1,808(a5)
    80005c62:	32a7b823          	sd	a0,816(a5)
    80005c66:	7ce7050b          	.insn	4, 0x7ce7050b
    80005c6a:	5ce7050b          	.insn	4, 0x5ce7050b
    80005c6e:	3ce7050b          	.insn	4, 0x3ce7050b
    80005c72:	c0e7057b          	.insn	4, 0xc0e7057b
    80005c76:	380e3403          	ld	s0,896(t3)
    80005c7a:	3297bc23          	sd	s1,824(a5)
    80005c7e:	9cdc858b          	.insn	4, 0x9cdc858b
    80005c82:	7ce7058b          	.insn	4, 0x7ce7058b
    80005c86:	5ce7058b          	.insn	4, 0x5ce7058b
    80005c8a:	3ce7058b          	.insn	4, 0x3ce7058b
    80005c8e:	c0e405fb          	.insn	4, 0xc0e405fb
    80005c92:	34a7b023          	sd	a0,832(a5)
    80005c96:	9cdd050b          	.insn	4, 0x9cdd050b
    80005c9a:	7ce7050b          	.insn	4, 0x7ce7050b
    80005c9e:	5ce7050b          	.insn	4, 0x5ce7050b
    80005ca2:	3ce7050b          	.insn	4, 0x3ce7050b
    80005ca6:	c084057b          	.insn	4, 0xc084057b
    80005caa:	34b7b423          	sd	a1,840(a5)
    80005cae:	9cdd858b          	.insn	4, 0x9cdd858b
    80005cb2:	7ce7058b          	.insn	4, 0x7ce7058b
    80005cb6:	5ce7058b          	.insn	4, 0x5ce7058b
    80005cba:	3ce4058b          	.insn	4, 0x3ce4058b
    80005cbe:	c08405fb          	.insn	4, 0xc08405fb
    80005cc2:	34a7b823          	sd	a0,848(a5)
    80005cc6:	7ce7050b          	.insn	4, 0x7ce7050b
    80005cca:	5ce7050b          	.insn	4, 0x5ce7050b
    80005cce:	3c84050b          	.insn	4, 0x3c84050b
    80005cd2:	c084057b          	.insn	4, 0xc084057b
    80005cd6:	34b7bc23          	sd	a1,856(a5)
    80005cda:	9cd0858b          	.insn	4, 0x9cd0858b
    80005cde:	7ce7058b          	.insn	4, 0x7ce7058b
    80005ce2:	5ce4058b          	.insn	4, 0x5ce4058b
    80005ce6:	3c84058b          	.insn	4, 0x3c84058b
    80005cea:	c08405fb          	.insn	4, 0xc08405fb
    80005cee:	36a7b023          	sd	a0,864(a5)
    80005cf2:	9cd8050b          	.insn	4, 0x9cd8050b
    80005cf6:	7ce7050b          	.insn	4, 0x7ce7050b
    80005cfa:	5c84050b          	.insn	4, 0x5c84050b
    80005cfe:	3c84050b          	.insn	4, 0x3c84050b
    80005d02:	c084057b          	.insn	4, 0xc084057b
    80005d06:	9cd9048b          	.insn	4, 0x9cd9048b
    80005d0a:	7ce4070b          	.insn	4, 0x7ce4070b
    80005d0e:	5c84070b          	.insn	4, 0x5c84070b
    80005d12:	3c84070b          	.insn	4, 0x3c84070b
    80005d16:	c084077b          	.insn	4, 0xc084077b
    80005d1a:	36b7b423          	sd	a1,872(a5)
    80005d1e:	36a7b823          	sd	a0,880(a5)
    80005d22:	7c84050b          	.insn	4, 0x7c84050b
    80005d26:	5c84050b          	.insn	4, 0x5c84050b
    80005d2a:	3c84050b          	.insn	4, 0x3c84050b
    80005d2e:	c084057b          	.insn	4, 0xc084057b
    80005d32:	3c0e3583          	ld	a1,960(t3)
    80005d36:	36e7bc23          	sd	a4,888(a5)
    80005d3a:	9cdc870b          	.insn	4, 0x9cdc870b
    80005d3e:	7c84070b          	.insn	4, 0x7c84070b
    80005d42:	5c84070b          	.insn	4, 0x5c84070b
    80005d46:	3c84070b          	.insn	4, 0x3c84070b
    80005d4a:	c085877b          	.insn	4, 0xc085877b
    80005d4e:	38a7b023          	sd	a0,896(a5)
    80005d52:	9cdd050b          	.insn	4, 0x9cdd050b
    80005d56:	7c84050b          	.insn	4, 0x7c84050b
    80005d5a:	5c84050b          	.insn	4, 0x5c84050b
    80005d5e:	3c84050b          	.insn	4, 0x3c84050b
    80005d62:	c0b5857b          	.insn	4, 0xc0b5857b
    80005d66:	38e7b423          	sd	a4,904(a5)
    80005d6a:	9cdd870b          	.insn	4, 0x9cdd870b
    80005d6e:	7c84070b          	.insn	4, 0x7c84070b
    80005d72:	5c84070b          	.insn	4, 0x5c84070b
    80005d76:	3c85870b          	.insn	4, 0x3c85870b
    80005d7a:	c0b5877b          	.insn	4, 0xc0b5877b
    80005d7e:	38a7b823          	sd	a0,912(a5)
    80005d82:	7c84050b          	.insn	4, 0x7c84050b
    80005d86:	5c84050b          	.insn	4, 0x5c84050b
    80005d8a:	3cb5850b          	.insn	4, 0x3cb5850b
    80005d8e:	c0b5857b          	.insn	4, 0xc0b5857b
    80005d92:	38e7bc23          	sd	a4,920(a5)
    80005d96:	9cd0870b          	.insn	4, 0x9cd0870b
    80005d9a:	7c84070b          	.insn	4, 0x7c84070b
    80005d9e:	5c85870b          	.insn	4, 0x5c85870b
    80005da2:	3cb5870b          	.insn	4, 0x3cb5870b
    80005da6:	c0b5877b          	.insn	4, 0xc0b5877b
    80005daa:	3aa7b023          	sd	a0,928(a5)
    80005dae:	9cd8050b          	.insn	4, 0x9cd8050b
    80005db2:	7c84050b          	.insn	4, 0x7c84050b
    80005db6:	5cb5850b          	.insn	4, 0x5cb5850b
    80005dba:	3cb5850b          	.insn	4, 0x3cb5850b
    80005dbe:	c0b5857b          	.insn	4, 0xc0b5857b
    80005dc2:	9cd9048b          	.insn	4, 0x9cd9048b
    80005dc6:	7c85848b          	.insn	4, 0x7c85848b
    80005dca:	5cb5848b          	.insn	4, 0x5cb5848b
    80005dce:	3cb5848b          	.insn	4, 0x3cb5848b
    80005dd2:	c0b584fb          	.insn	4, 0xc0b584fb
    80005dd6:	3ae7b423          	sd	a4,936(a5)
    80005dda:	3aa7b823          	sd	a0,944(a5)
    80005dde:	7cb5850b          	.insn	4, 0x7cb5850b
    80005de2:	5cb5850b          	.insn	4, 0x5cb5850b
    80005de6:	3cb5850b          	.insn	4, 0x3cb5850b
    80005dea:	c0b5857b          	.insn	4, 0xc0b5857b
    80005dee:	005b8593          	addi	a1,s7,5
    80005df2:	05aa                	slli	a1,a1,0xa
    80005df4:	95d2                	add	a1,a1,s4
    80005df6:	6180                	ld	s0,0(a1)
    80005df8:	3a97bc23          	sd	s1,952(a5)
    80005dfc:	7c84070b          	.insn	4, 0x7c84070b
    80005e00:	5c84070b          	.insn	4, 0x5c84070b
    80005e04:	3c84070b          	.insn	4, 0x3c84070b
    80005e08:	c08404fb          	.insn	4, 0xc08404fb
    80005e0c:	3ca7b023          	sd	a0,960(a5)
    80005e10:	61b8                	ld	a4,64(a1)
    80005e12:	9cdc850b          	.insn	4, 0x9cdc850b
    80005e16:	7c84050b          	.insn	4, 0x7c84050b
    80005e1a:	5c84050b          	.insn	4, 0x5c84050b
    80005e1e:	3c84050b          	.insn	4, 0x3c84050b
    80005e22:	c087057b          	.insn	4, 0xc087057b
    80005e26:	9656                	add	a2,a2,s5
    80005e28:	e204                	sd	s1,0(a2)
    80005e2a:	9cdd078b          	.insn	4, 0x9cdd078b
    80005e2e:	7c84078b          	.insn	4, 0x7c84078b
    80005e32:	5c84078b          	.insn	4, 0x5c84078b
    80005e36:	3c84078b          	.insn	4, 0x3c84078b
    80005e3a:	c0e707fb          	.insn	4, 0xc0e707fb
    80005e3e:	e608                	sd	a0,8(a2)
    80005e40:	9cdd850b          	.insn	4, 0x9cdd850b
    80005e44:	7c84050b          	.insn	4, 0x7c84050b
    80005e48:	5c84050b          	.insn	4, 0x5c84050b
    80005e4c:	3c87050b          	.insn	4, 0x3c87050b
    80005e50:	c0e7057b          	.insn	4, 0xc0e7057b
    80005e54:	ea1c                	sd	a5,16(a2)
    80005e56:	7c84078b          	.insn	4, 0x7c84078b
    80005e5a:	5c84078b          	.insn	4, 0x5c84078b
    80005e5e:	3ce7078b          	.insn	4, 0x3ce7078b
    80005e62:	c0e707fb          	.insn	4, 0xc0e707fb
    80005e66:	ee08                	sd	a0,24(a2)
    80005e68:	9cd0850b          	.insn	4, 0x9cd0850b
    80005e6c:	7c84050b          	.insn	4, 0x7c84050b
    80005e70:	5c87050b          	.insn	4, 0x5c87050b
    80005e74:	3ce7050b          	.insn	4, 0x3ce7050b
    80005e78:	c0e7057b          	.insn	4, 0xc0e7057b
    80005e7c:	f21c                	sd	a5,32(a2)
    80005e7e:	9cd8078b          	.insn	4, 0x9cd8078b
    80005e82:	7c84078b          	.insn	4, 0x7c84078b
    80005e86:	5ce7078b          	.insn	4, 0x5ce7078b
    80005e8a:	3ce7078b          	.insn	4, 0x3ce7078b
    80005e8e:	c0e707fb          	.insn	4, 0xc0e707fb
    80005e92:	9cd9048b          	.insn	4, 0x9cd9048b
    80005e96:	7c87048b          	.insn	4, 0x7c87048b
    80005e9a:	5ce7048b          	.insn	4, 0x5ce7048b
    80005e9e:	3ce7048b          	.insn	4, 0x3ce7048b
    80005ea2:	c0e704fb          	.insn	4, 0xc0e704fb
    80005ea6:	f608                	sd	a0,40(a2)
    80005ea8:	fa1c                	sd	a5,48(a2)
    80005eaa:	7ce7050b          	.insn	4, 0x7ce7050b
    80005eae:	5ce7050b          	.insn	4, 0x5ce7050b
    80005eb2:	3ce7050b          	.insn	4, 0x3ce7050b
    80005eb6:	c0e7057b          	.insn	4, 0xc0e7057b
    80005eba:	61dc                	ld	a5,128(a1)
    80005ebc:	fe04                	sd	s1,56(a2)
    80005ebe:	9cdc848b          	.insn	4, 0x9cdc848b
    80005ec2:	7ce7048b          	.insn	4, 0x7ce7048b
    80005ec6:	5ce7048b          	.insn	4, 0x5ce7048b
    80005eca:	3ce7048b          	.insn	4, 0x3ce7048b
    80005ece:	c0e784fb          	.insn	4, 0xc0e784fb
    80005ed2:	e228                	sd	a0,64(a2)
    80005ed4:	9cdd050b          	.insn	4, 0x9cdd050b
    80005ed8:	7ce7050b          	.insn	4, 0x7ce7050b
    80005edc:	5ce7050b          	.insn	4, 0x5ce7050b
    80005ee0:	3ce7050b          	.insn	4, 0x3ce7050b
    80005ee4:	c0f7857b          	.insn	4, 0xc0f7857b
    80005ee8:	e624                	sd	s1,72(a2)
    80005eea:	9cdd848b          	.insn	4, 0x9cdd848b
    80005eee:	7ce7048b          	.insn	4, 0x7ce7048b
    80005ef2:	5ce7048b          	.insn	4, 0x5ce7048b
    80005ef6:	3ce7848b          	.insn	4, 0x3ce7848b
    80005efa:	c0f784fb          	.insn	4, 0xc0f784fb
    80005efe:	ea28                	sd	a0,80(a2)
    80005f00:	7ce7050b          	.insn	4, 0x7ce7050b
    80005f04:	5ce7050b          	.insn	4, 0x5ce7050b
    80005f08:	3cf7850b          	.insn	4, 0x3cf7850b
    80005f0c:	c0f7857b          	.insn	4, 0xc0f7857b
    80005f10:	ee24                	sd	s1,88(a2)
    80005f12:	9cd0848b          	.insn	4, 0x9cd0848b
    80005f16:	7ce7048b          	.insn	4, 0x7ce7048b
    80005f1a:	5ce7848b          	.insn	4, 0x5ce7848b
    80005f1e:	3cf7848b          	.insn	4, 0x3cf7848b
    80005f22:	c0f784fb          	.insn	4, 0xc0f784fb
    80005f26:	f228                	sd	a0,96(a2)
    80005f28:	9cd8050b          	.insn	4, 0x9cd8050b
    80005f2c:	7ce7050b          	.insn	4, 0x7ce7050b
    80005f30:	5cf7850b          	.insn	4, 0x5cf7850b
    80005f34:	3cf7850b          	.insn	4, 0x3cf7850b
    80005f38:	c0f7857b          	.insn	4, 0xc0f7857b
    80005f3c:	9cd9040b          	.insn	4, 0x9cd9040b
    80005f40:	7ce7870b          	.insn	4, 0x7ce7870b
    80005f44:	5cf7870b          	.insn	4, 0x5cf7870b
    80005f48:	3cf7870b          	.insn	4, 0x3cf7870b
    80005f4c:	c0f7847b          	.insn	4, 0xc0f7847b
    80005f50:	f624                	sd	s1,104(a2)
    80005f52:	fa28                	sd	a0,112(a2)
    80005f54:	7cf7850b          	.insn	4, 0x7cf7850b
    80005f58:	5cf7850b          	.insn	4, 0x5cf7850b
    80005f5c:	3cf7850b          	.insn	4, 0x3cf7850b
    80005f60:	c0f7857b          	.insn	4, 0xc0f7857b
    80005f64:	61f8                	ld	a4,192(a1)
    80005f66:	fe20                	sd	s0,120(a2)
    80005f68:	9cdc848b          	.insn	4, 0x9cdc848b
    80005f6c:	7cf7848b          	.insn	4, 0x7cf7848b
    80005f70:	5cf7848b          	.insn	4, 0x5cf7848b
    80005f74:	3cf7848b          	.insn	4, 0x3cf7848b
    80005f78:	c0f704fb          	.insn	4, 0xc0f704fb
    80005f7c:	e248                	sd	a0,128(a2)
    80005f7e:	9cdd050b          	.insn	4, 0x9cdd050b
    80005f82:	7cf7850b          	.insn	4, 0x7cf7850b
    80005f86:	5cf7850b          	.insn	4, 0x5cf7850b
    80005f8a:	3cf7850b          	.insn	4, 0x3cf7850b
    80005f8e:	c0e7057b          	.insn	4, 0xc0e7057b
    80005f92:	e644                	sd	s1,136(a2)
    80005f94:	9cdd848b          	.insn	4, 0x9cdd848b
    80005f98:	7cf7848b          	.insn	4, 0x7cf7848b
    80005f9c:	5cf7848b          	.insn	4, 0x5cf7848b
    80005fa0:	3cf7048b          	.insn	4, 0x3cf7048b
    80005fa4:	c0e704fb          	.insn	4, 0xc0e704fb
    80005fa8:	ea48                	sd	a0,144(a2)
    80005faa:	7cf7850b          	.insn	4, 0x7cf7850b
    80005fae:	5cf7850b          	.insn	4, 0x5cf7850b
    80005fb2:	3ce7050b          	.insn	4, 0x3ce7050b
    80005fb6:	c0e7057b          	.insn	4, 0xc0e7057b
    80005fba:	ee44                	sd	s1,152(a2)
    80005fbc:	9cd0848b          	.insn	4, 0x9cd0848b
    80005fc0:	7cf7848b          	.insn	4, 0x7cf7848b
    80005fc4:	5cf7048b          	.insn	4, 0x5cf7048b
    80005fc8:	3ce7048b          	.insn	4, 0x3ce7048b
    80005fcc:	c0e704fb          	.insn	4, 0xc0e704fb
    80005fd0:	f248                	sd	a0,160(a2)
    80005fd2:	9cd8050b          	.insn	4, 0x9cd8050b
    80005fd6:	7cf7850b          	.insn	4, 0x7cf7850b
    80005fda:	5ce7050b          	.insn	4, 0x5ce7050b
    80005fde:	3ce7050b          	.insn	4, 0x3ce7050b
    80005fe2:	c0e7057b          	.insn	4, 0xc0e7057b
    80005fe6:	9cd9040b          	.insn	4, 0x9cd9040b
    80005fea:	7cf7078b          	.insn	4, 0x7cf7078b
    80005fee:	5ce7078b          	.insn	4, 0x5ce7078b
    80005ff2:	3ce7078b          	.insn	4, 0x3ce7078b
    80005ff6:	c0e7047b          	.insn	4, 0xc0e7047b
    80005ffa:	f644                	sd	s1,168(a2)
    80005ffc:	fa48                	sd	a0,176(a2)
    80005ffe:	7ce7050b          	.insn	4, 0x7ce7050b
    80006002:	5ce7050b          	.insn	4, 0x5ce7050b
    80006006:	3ce7050b          	.insn	4, 0x3ce7050b
    8000600a:	c0e7057b          	.insn	4, 0xc0e7057b
    8000600e:	1005b783          	ld	a5,256(a1)
    80006012:	fe40                	sd	s0,184(a2)
    80006014:	9cdc848b          	.insn	4, 0x9cdc848b
    80006018:	7ce7048b          	.insn	4, 0x7ce7048b
    8000601c:	5ce7048b          	.insn	4, 0x5ce7048b
    80006020:	3ce7048b          	.insn	4, 0x3ce7048b
    80006024:	c0e784fb          	.insn	4, 0xc0e784fb
    80006028:	e268                	sd	a0,192(a2)
    8000602a:	9cdd050b          	.insn	4, 0x9cdd050b
    8000602e:	7ce7050b          	.insn	4, 0x7ce7050b
    80006032:	5ce7050b          	.insn	4, 0x5ce7050b
    80006036:	3ce7050b          	.insn	4, 0x3ce7050b
    8000603a:	c0f7857b          	.insn	4, 0xc0f7857b
    8000603e:	e664                	sd	s1,200(a2)
    80006040:	9cdd848b          	.insn	4, 0x9cdd848b
    80006044:	7ce7048b          	.insn	4, 0x7ce7048b
    80006048:	5ce7048b          	.insn	4, 0x5ce7048b
    8000604c:	3ce7848b          	.insn	4, 0x3ce7848b
    80006050:	c0f784fb          	.insn	4, 0xc0f784fb
    80006054:	ea68                	sd	a0,208(a2)
    80006056:	7ce7050b          	.insn	4, 0x7ce7050b
    8000605a:	5ce7050b          	.insn	4, 0x5ce7050b
    8000605e:	3cf7850b          	.insn	4, 0x3cf7850b
    80006062:	c0f7857b          	.insn	4, 0xc0f7857b
    80006066:	ee64                	sd	s1,216(a2)
    80006068:	9cd0848b          	.insn	4, 0x9cd0848b
    8000606c:	7ce7048b          	.insn	4, 0x7ce7048b
    80006070:	5ce7848b          	.insn	4, 0x5ce7848b
    80006074:	3cf7848b          	.insn	4, 0x3cf7848b
    80006078:	c0f784fb          	.insn	4, 0xc0f784fb
    8000607c:	f268                	sd	a0,224(a2)
    8000607e:	9cd8050b          	.insn	4, 0x9cd8050b
    80006082:	7ce7050b          	.insn	4, 0x7ce7050b
    80006086:	5cf7850b          	.insn	4, 0x5cf7850b
    8000608a:	3cf7850b          	.insn	4, 0x3cf7850b
    8000608e:	c0f7857b          	.insn	4, 0xc0f7857b
    80006092:	9cd9040b          	.insn	4, 0x9cd9040b
    80006096:	7ce7870b          	.insn	4, 0x7ce7870b
    8000609a:	5cf7870b          	.insn	4, 0x5cf7870b
    8000609e:	3cf7870b          	.insn	4, 0x3cf7870b
    800060a2:	c0f7847b          	.insn	4, 0xc0f7847b
    800060a6:	f664                	sd	s1,232(a2)
    800060a8:	fa68                	sd	a0,240(a2)
    800060aa:	7cf7850b          	.insn	4, 0x7cf7850b
    800060ae:	5cf7850b          	.insn	4, 0x5cf7850b
    800060b2:	3cf7850b          	.insn	4, 0x3cf7850b
    800060b6:	c0f7857b          	.insn	4, 0xc0f7857b
    800060ba:	1405b703          	ld	a4,320(a1)
    800060be:	fe60                	sd	s0,248(a2)
    800060c0:	9cdc848b          	.insn	4, 0x9cdc848b
    800060c4:	7cf7848b          	.insn	4, 0x7cf7848b
    800060c8:	5cf7848b          	.insn	4, 0x5cf7848b
    800060cc:	3cf7848b          	.insn	4, 0x3cf7848b
    800060d0:	c0f704fb          	.insn	4, 0xc0f704fb
    800060d4:	10a63023          	sd	a0,256(a2)
    800060d8:	9cdd050b          	.insn	4, 0x9cdd050b
    800060dc:	7cf7850b          	.insn	4, 0x7cf7850b
    800060e0:	5cf7850b          	.insn	4, 0x5cf7850b
    800060e4:	3cf7850b          	.insn	4, 0x3cf7850b
    800060e8:	c0e7057b          	.insn	4, 0xc0e7057b
    800060ec:	10963423          	sd	s1,264(a2)
    800060f0:	9cdd848b          	.insn	4, 0x9cdd848b
    800060f4:	7cf7848b          	.insn	4, 0x7cf7848b
    800060f8:	5cf7848b          	.insn	4, 0x5cf7848b
    800060fc:	3cf7048b          	.insn	4, 0x3cf7048b
    80006100:	c0e704fb          	.insn	4, 0xc0e704fb
    80006104:	10a63823          	sd	a0,272(a2)
    80006108:	7cf7850b          	.insn	4, 0x7cf7850b
    8000610c:	5cf7850b          	.insn	4, 0x5cf7850b
    80006110:	3ce7050b          	.insn	4, 0x3ce7050b
    80006114:	c0e7057b          	.insn	4, 0xc0e7057b
    80006118:	10963c23          	sd	s1,280(a2)
    8000611c:	9cd0848b          	.insn	4, 0x9cd0848b
    80006120:	7cf7848b          	.insn	4, 0x7cf7848b
    80006124:	5cf7048b          	.insn	4, 0x5cf7048b
    80006128:	3ce7048b          	.insn	4, 0x3ce7048b
    8000612c:	c0e704fb          	.insn	4, 0xc0e704fb
    80006130:	12a63023          	sd	a0,288(a2)
    80006134:	9cd8050b          	.insn	4, 0x9cd8050b
    80006138:	7cf7850b          	.insn	4, 0x7cf7850b
    8000613c:	5ce7050b          	.insn	4, 0x5ce7050b
    80006140:	3ce7050b          	.insn	4, 0x3ce7050b
    80006144:	c0e7057b          	.insn	4, 0xc0e7057b
    80006148:	9cd9040b          	.insn	4, 0x9cd9040b
    8000614c:	7cf7078b          	.insn	4, 0x7cf7078b
    80006150:	5ce7078b          	.insn	4, 0x5ce7078b
    80006154:	3ce7078b          	.insn	4, 0x3ce7078b
    80006158:	c0e7047b          	.insn	4, 0xc0e7047b
    8000615c:	12963423          	sd	s1,296(a2)
    80006160:	12a63823          	sd	a0,304(a2)
    80006164:	7ce7050b          	.insn	4, 0x7ce7050b
    80006168:	5ce7050b          	.insn	4, 0x5ce7050b
    8000616c:	3ce7050b          	.insn	4, 0x3ce7050b
    80006170:	c0e7057b          	.insn	4, 0xc0e7057b
    80006174:	1805b783          	ld	a5,384(a1)
    80006178:	12863c23          	sd	s0,312(a2)
    8000617c:	9cdc848b          	.insn	4, 0x9cdc848b
    80006180:	7ce7048b          	.insn	4, 0x7ce7048b
    80006184:	5ce7048b          	.insn	4, 0x5ce7048b
    80006188:	3ce7048b          	.insn	4, 0x3ce7048b
    8000618c:	c0e784fb          	.insn	4, 0xc0e784fb
    80006190:	14a63023          	sd	a0,320(a2)
    80006194:	9cdd050b          	.insn	4, 0x9cdd050b
    80006198:	7ce7050b          	.insn	4, 0x7ce7050b
    8000619c:	5ce7050b          	.insn	4, 0x5ce7050b
    800061a0:	3ce7050b          	.insn	4, 0x3ce7050b
    800061a4:	c0f7857b          	.insn	4, 0xc0f7857b
    800061a8:	14963423          	sd	s1,328(a2)
    800061ac:	9cdd848b          	.insn	4, 0x9cdd848b
    800061b0:	7ce7048b          	.insn	4, 0x7ce7048b
    800061b4:	5ce7048b          	.insn	4, 0x5ce7048b
    800061b8:	3ce7848b          	.insn	4, 0x3ce7848b
    800061bc:	c0f784fb          	.insn	4, 0xc0f784fb
    800061c0:	14a63823          	sd	a0,336(a2)
    800061c4:	7ce7050b          	.insn	4, 0x7ce7050b
    800061c8:	5ce7050b          	.insn	4, 0x5ce7050b
    800061cc:	3cf7850b          	.insn	4, 0x3cf7850b
    800061d0:	c0f7857b          	.insn	4, 0xc0f7857b
    800061d4:	14963c23          	sd	s1,344(a2)
    800061d8:	9cd0848b          	.insn	4, 0x9cd0848b
    800061dc:	7ce7048b          	.insn	4, 0x7ce7048b
    800061e0:	5ce7848b          	.insn	4, 0x5ce7848b
    800061e4:	3cf7848b          	.insn	4, 0x3cf7848b
    800061e8:	c0f784fb          	.insn	4, 0xc0f784fb
    800061ec:	16a63023          	sd	a0,352(a2)
    800061f0:	9cd8050b          	.insn	4, 0x9cd8050b
    800061f4:	7ce7050b          	.insn	4, 0x7ce7050b
    800061f8:	5cf7850b          	.insn	4, 0x5cf7850b
    800061fc:	3cf7850b          	.insn	4, 0x3cf7850b
    80006200:	c0f7857b          	.insn	4, 0xc0f7857b
    80006204:	9cd9040b          	.insn	4, 0x9cd9040b
    80006208:	7ce7870b          	.insn	4, 0x7ce7870b
    8000620c:	5cf7870b          	.insn	4, 0x5cf7870b
    80006210:	3cf7870b          	.insn	4, 0x3cf7870b
    80006214:	c0f7847b          	.insn	4, 0xc0f7847b
    80006218:	16963423          	sd	s1,360(a2)
    8000621c:	16a63823          	sd	a0,368(a2)
    80006220:	7cf7850b          	.insn	4, 0x7cf7850b
    80006224:	5cf7850b          	.insn	4, 0x5cf7850b
    80006228:	3cf7850b          	.insn	4, 0x3cf7850b
    8000622c:	c0f7857b          	.insn	4, 0xc0f7857b
    80006230:	1c05b703          	ld	a4,448(a1)
    80006234:	16863c23          	sd	s0,376(a2)
    80006238:	9cdc848b          	.insn	4, 0x9cdc848b
    8000623c:	7cf7848b          	.insn	4, 0x7cf7848b
    80006240:	5cf7848b          	.insn	4, 0x5cf7848b
    80006244:	3cf7848b          	.insn	4, 0x3cf7848b
    80006248:	c0f704fb          	.insn	4, 0xc0f704fb
    8000624c:	18a63023          	sd	a0,384(a2)
    80006250:	9cdd050b          	.insn	4, 0x9cdd050b
    80006254:	7cf7850b          	.insn	4, 0x7cf7850b
    80006258:	5cf7850b          	.insn	4, 0x5cf7850b
    8000625c:	3cf7850b          	.insn	4, 0x3cf7850b
    80006260:	c0e7057b          	.insn	4, 0xc0e7057b
    80006264:	18963423          	sd	s1,392(a2)
    80006268:	9cdd848b          	.insn	4, 0x9cdd848b
    8000626c:	7cf7848b          	.insn	4, 0x7cf7848b
    80006270:	5cf7848b          	.insn	4, 0x5cf7848b
    80006274:	3cf7048b          	.insn	4, 0x3cf7048b
    80006278:	c0e704fb          	.insn	4, 0xc0e704fb
    8000627c:	18a63823          	sd	a0,400(a2)
    80006280:	7cf7850b          	.insn	4, 0x7cf7850b
    80006284:	5cf7850b          	.insn	4, 0x5cf7850b
    80006288:	3ce7050b          	.insn	4, 0x3ce7050b
    8000628c:	c0e7057b          	.insn	4, 0xc0e7057b
    80006290:	18963c23          	sd	s1,408(a2)
    80006294:	9cd0848b          	.insn	4, 0x9cd0848b
    80006298:	7cf7848b          	.insn	4, 0x7cf7848b
    8000629c:	5cf7048b          	.insn	4, 0x5cf7048b
    800062a0:	3ce7048b          	.insn	4, 0x3ce7048b
    800062a4:	c0e704fb          	.insn	4, 0xc0e704fb
    800062a8:	1aa63023          	sd	a0,416(a2)
    800062ac:	9cd8050b          	.insn	4, 0x9cd8050b
    800062b0:	7cf7850b          	.insn	4, 0x7cf7850b
    800062b4:	5ce7050b          	.insn	4, 0x5ce7050b
    800062b8:	3ce7050b          	.insn	4, 0x3ce7050b
    800062bc:	c0e7057b          	.insn	4, 0xc0e7057b
    800062c0:	9cd9040b          	.insn	4, 0x9cd9040b
    800062c4:	7cf7078b          	.insn	4, 0x7cf7078b
    800062c8:	5ce7078b          	.insn	4, 0x5ce7078b
    800062cc:	3ce7078b          	.insn	4, 0x3ce7078b
    800062d0:	c0e7047b          	.insn	4, 0xc0e7047b
    800062d4:	1a963423          	sd	s1,424(a2)
    800062d8:	1aa63823          	sd	a0,432(a2)
    800062dc:	7ce7050b          	.insn	4, 0x7ce7050b
    800062e0:	5ce7050b          	.insn	4, 0x5ce7050b
    800062e4:	3ce7050b          	.insn	4, 0x3ce7050b
    800062e8:	c0e7057b          	.insn	4, 0xc0e7057b
    800062ec:	2005b783          	ld	a5,512(a1)
    800062f0:	1a863c23          	sd	s0,440(a2)
    800062f4:	9cdc848b          	.insn	4, 0x9cdc848b
    800062f8:	7ce7048b          	.insn	4, 0x7ce7048b
    800062fc:	5ce7048b          	.insn	4, 0x5ce7048b
    80006300:	3ce7048b          	.insn	4, 0x3ce7048b
    80006304:	c0e784fb          	.insn	4, 0xc0e784fb
    80006308:	1ca63023          	sd	a0,448(a2)
    8000630c:	9cdd050b          	.insn	4, 0x9cdd050b
    80006310:	7ce7050b          	.insn	4, 0x7ce7050b
    80006314:	5ce7050b          	.insn	4, 0x5ce7050b
    80006318:	3ce7050b          	.insn	4, 0x3ce7050b
    8000631c:	c0f7857b          	.insn	4, 0xc0f7857b
    80006320:	1c963423          	sd	s1,456(a2)
    80006324:	9cdd848b          	.insn	4, 0x9cdd848b
    80006328:	7ce7048b          	.insn	4, 0x7ce7048b
    8000632c:	5ce7048b          	.insn	4, 0x5ce7048b
    80006330:	3ce7848b          	.insn	4, 0x3ce7848b
    80006334:	c0f784fb          	.insn	4, 0xc0f784fb
    80006338:	1ca63823          	sd	a0,464(a2)
    8000633c:	7ce7050b          	.insn	4, 0x7ce7050b
    80006340:	5ce7050b          	.insn	4, 0x5ce7050b
    80006344:	3cf7850b          	.insn	4, 0x3cf7850b
    80006348:	c0f7857b          	.insn	4, 0xc0f7857b
    8000634c:	1c963c23          	sd	s1,472(a2)
    80006350:	9cd0848b          	.insn	4, 0x9cd0848b
    80006354:	7ce7048b          	.insn	4, 0x7ce7048b
    80006358:	5ce7848b          	.insn	4, 0x5ce7848b
    8000635c:	3cf7848b          	.insn	4, 0x3cf7848b
    80006360:	c0f784fb          	.insn	4, 0xc0f784fb
    80006364:	1ea63023          	sd	a0,480(a2)
    80006368:	9cd8050b          	.insn	4, 0x9cd8050b
    8000636c:	7ce7050b          	.insn	4, 0x7ce7050b
    80006370:	5cf7850b          	.insn	4, 0x5cf7850b
    80006374:	3cf7850b          	.insn	4, 0x3cf7850b
    80006378:	c0f7857b          	.insn	4, 0xc0f7857b
    8000637c:	9cd9040b          	.insn	4, 0x9cd9040b
    80006380:	7ce7870b          	.insn	4, 0x7ce7870b
    80006384:	5cf7870b          	.insn	4, 0x5cf7870b
    80006388:	3cf7870b          	.insn	4, 0x3cf7870b
    8000638c:	c0f7847b          	.insn	4, 0xc0f7847b
    80006390:	1e963423          	sd	s1,488(a2)
    80006394:	1ea63823          	sd	a0,496(a2)
    80006398:	7cf7850b          	.insn	4, 0x7cf7850b
    8000639c:	5cf7850b          	.insn	4, 0x5cf7850b
    800063a0:	3cf7850b          	.insn	4, 0x3cf7850b
    800063a4:	c0f7857b          	.insn	4, 0xc0f7857b
    800063a8:	2405b703          	ld	a4,576(a1)
    800063ac:	1e863c23          	sd	s0,504(a2)
    800063b0:	9cdc848b          	.insn	4, 0x9cdc848b
    800063b4:	7cf7848b          	.insn	4, 0x7cf7848b
    800063b8:	5cf7848b          	.insn	4, 0x5cf7848b
    800063bc:	3cf7848b          	.insn	4, 0x3cf7848b
    800063c0:	c0f704fb          	.insn	4, 0xc0f704fb
    800063c4:	20a63023          	sd	a0,512(a2)
    800063c8:	9cdd050b          	.insn	4, 0x9cdd050b
    800063cc:	7cf7850b          	.insn	4, 0x7cf7850b
    800063d0:	5cf7850b          	.insn	4, 0x5cf7850b
    800063d4:	3cf7850b          	.insn	4, 0x3cf7850b
    800063d8:	c0e7057b          	.insn	4, 0xc0e7057b
    800063dc:	20963423          	sd	s1,520(a2)
    800063e0:	9cdd848b          	.insn	4, 0x9cdd848b
    800063e4:	7cf7848b          	.insn	4, 0x7cf7848b
    800063e8:	5cf7848b          	.insn	4, 0x5cf7848b
    800063ec:	3cf7048b          	.insn	4, 0x3cf7048b
    800063f0:	c0e704fb          	.insn	4, 0xc0e704fb
    800063f4:	20a63823          	sd	a0,528(a2)
    800063f8:	7cf7850b          	.insn	4, 0x7cf7850b
    800063fc:	5cf7850b          	.insn	4, 0x5cf7850b
    80006400:	3ce7050b          	.insn	4, 0x3ce7050b
    80006404:	c0e7057b          	.insn	4, 0xc0e7057b
    80006408:	20963c23          	sd	s1,536(a2)
    8000640c:	9cd0848b          	.insn	4, 0x9cd0848b
    80006410:	7cf7848b          	.insn	4, 0x7cf7848b
    80006414:	5cf7048b          	.insn	4, 0x5cf7048b
    80006418:	3ce7048b          	.insn	4, 0x3ce7048b
    8000641c:	c0e704fb          	.insn	4, 0xc0e704fb
    80006420:	22a63023          	sd	a0,544(a2)
    80006424:	9cd8050b          	.insn	4, 0x9cd8050b
    80006428:	7cf7850b          	.insn	4, 0x7cf7850b
    8000642c:	5ce7050b          	.insn	4, 0x5ce7050b
    80006430:	3ce7050b          	.insn	4, 0x3ce7050b
    80006434:	c0e7057b          	.insn	4, 0xc0e7057b
    80006438:	9cd9040b          	.insn	4, 0x9cd9040b
    8000643c:	7cf7078b          	.insn	4, 0x7cf7078b
    80006440:	5ce7078b          	.insn	4, 0x5ce7078b
    80006444:	3ce7078b          	.insn	4, 0x3ce7078b
    80006448:	c0e7047b          	.insn	4, 0xc0e7047b
    8000644c:	22963423          	sd	s1,552(a2)
    80006450:	22a63823          	sd	a0,560(a2)
    80006454:	7ce7050b          	.insn	4, 0x7ce7050b
    80006458:	5ce7050b          	.insn	4, 0x5ce7050b
    8000645c:	3ce7050b          	.insn	4, 0x3ce7050b
    80006460:	c0e7057b          	.insn	4, 0xc0e7057b
    80006464:	2805b783          	ld	a5,640(a1)
    80006468:	22863c23          	sd	s0,568(a2)
    8000646c:	9cdc848b          	.insn	4, 0x9cdc848b
    80006470:	7ce7048b          	.insn	4, 0x7ce7048b
    80006474:	5ce7048b          	.insn	4, 0x5ce7048b
    80006478:	3ce7048b          	.insn	4, 0x3ce7048b
    8000647c:	c0e784fb          	.insn	4, 0xc0e784fb
    80006480:	24a63023          	sd	a0,576(a2)
    80006484:	9cdd050b          	.insn	4, 0x9cdd050b
    80006488:	7ce7050b          	.insn	4, 0x7ce7050b
    8000648c:	5ce7050b          	.insn	4, 0x5ce7050b
    80006490:	3ce7050b          	.insn	4, 0x3ce7050b
    80006494:	c0f7857b          	.insn	4, 0xc0f7857b
    80006498:	24963423          	sd	s1,584(a2)
    8000649c:	9cdd848b          	.insn	4, 0x9cdd848b
    800064a0:	7ce7048b          	.insn	4, 0x7ce7048b
    800064a4:	5ce7048b          	.insn	4, 0x5ce7048b
    800064a8:	3ce7848b          	.insn	4, 0x3ce7848b
    800064ac:	c0f784fb          	.insn	4, 0xc0f784fb
    800064b0:	24a63823          	sd	a0,592(a2)
    800064b4:	7ce7050b          	.insn	4, 0x7ce7050b
    800064b8:	5ce7050b          	.insn	4, 0x5ce7050b
    800064bc:	3cf7850b          	.insn	4, 0x3cf7850b
    800064c0:	c0f7857b          	.insn	4, 0xc0f7857b
    800064c4:	24963c23          	sd	s1,600(a2)
    800064c8:	9cd0848b          	.insn	4, 0x9cd0848b
    800064cc:	7ce7048b          	.insn	4, 0x7ce7048b
    800064d0:	5ce7848b          	.insn	4, 0x5ce7848b
    800064d4:	3cf7848b          	.insn	4, 0x3cf7848b
    800064d8:	c0f784fb          	.insn	4, 0xc0f784fb
    800064dc:	26a63023          	sd	a0,608(a2)
    800064e0:	9cd8050b          	.insn	4, 0x9cd8050b
    800064e4:	7ce7050b          	.insn	4, 0x7ce7050b
    800064e8:	5cf7850b          	.insn	4, 0x5cf7850b
    800064ec:	3cf7850b          	.insn	4, 0x3cf7850b
    800064f0:	c0f7857b          	.insn	4, 0xc0f7857b
    800064f4:	9cd9040b          	.insn	4, 0x9cd9040b
    800064f8:	7ce7870b          	.insn	4, 0x7ce7870b
    800064fc:	5cf7870b          	.insn	4, 0x5cf7870b
    80006500:	3cf7870b          	.insn	4, 0x3cf7870b
    80006504:	c0f7847b          	.insn	4, 0xc0f7847b
    80006508:	26963423          	sd	s1,616(a2)
    8000650c:	26a63823          	sd	a0,624(a2)
    80006510:	7cf7850b          	.insn	4, 0x7cf7850b
    80006514:	5cf7850b          	.insn	4, 0x5cf7850b
    80006518:	3cf7850b          	.insn	4, 0x3cf7850b
    8000651c:	c0f7857b          	.insn	4, 0xc0f7857b
    80006520:	2c05b703          	ld	a4,704(a1)
    80006524:	26863c23          	sd	s0,632(a2)
    80006528:	9cdc848b          	.insn	4, 0x9cdc848b
    8000652c:	7cf7848b          	.insn	4, 0x7cf7848b
    80006530:	5cf7848b          	.insn	4, 0x5cf7848b
    80006534:	3cf7848b          	.insn	4, 0x3cf7848b
    80006538:	c0f704fb          	.insn	4, 0xc0f704fb
    8000653c:	28a63023          	sd	a0,640(a2)
    80006540:	9cdd050b          	.insn	4, 0x9cdd050b
    80006544:	7cf7850b          	.insn	4, 0x7cf7850b
    80006548:	5cf7850b          	.insn	4, 0x5cf7850b
    8000654c:	3cf7850b          	.insn	4, 0x3cf7850b
    80006550:	c0e7057b          	.insn	4, 0xc0e7057b
    80006554:	28963423          	sd	s1,648(a2)
    80006558:	9cdd848b          	.insn	4, 0x9cdd848b
    8000655c:	7cf7848b          	.insn	4, 0x7cf7848b
    80006560:	5cf7848b          	.insn	4, 0x5cf7848b
    80006564:	3cf7048b          	.insn	4, 0x3cf7048b
    80006568:	c0e704fb          	.insn	4, 0xc0e704fb
    8000656c:	28a63823          	sd	a0,656(a2)
    80006570:	7cf7850b          	.insn	4, 0x7cf7850b
    80006574:	5cf7850b          	.insn	4, 0x5cf7850b
    80006578:	3ce7050b          	.insn	4, 0x3ce7050b
    8000657c:	c0e7057b          	.insn	4, 0xc0e7057b
    80006580:	28963c23          	sd	s1,664(a2)
    80006584:	9cd0848b          	.insn	4, 0x9cd0848b
    80006588:	7cf7848b          	.insn	4, 0x7cf7848b
    8000658c:	5cf7048b          	.insn	4, 0x5cf7048b
    80006590:	3ce7048b          	.insn	4, 0x3ce7048b
    80006594:	c0e704fb          	.insn	4, 0xc0e704fb
    80006598:	2aa63023          	sd	a0,672(a2)
    8000659c:	9cd8050b          	.insn	4, 0x9cd8050b
    800065a0:	7cf7850b          	.insn	4, 0x7cf7850b
    800065a4:	5ce7050b          	.insn	4, 0x5ce7050b
    800065a8:	3ce7050b          	.insn	4, 0x3ce7050b
    800065ac:	c0e7057b          	.insn	4, 0xc0e7057b
    800065b0:	9cd9040b          	.insn	4, 0x9cd9040b
    800065b4:	7cf7078b          	.insn	4, 0x7cf7078b
    800065b8:	5ce7078b          	.insn	4, 0x5ce7078b
    800065bc:	3ce7078b          	.insn	4, 0x3ce7078b
    800065c0:	c0e7047b          	.insn	4, 0xc0e7047b
    800065c4:	2a963423          	sd	s1,680(a2)
    800065c8:	2aa63823          	sd	a0,688(a2)
    800065cc:	7ce7050b          	.insn	4, 0x7ce7050b
    800065d0:	5ce7050b          	.insn	4, 0x5ce7050b
    800065d4:	3ce7050b          	.insn	4, 0x3ce7050b
    800065d8:	c0e7057b          	.insn	4, 0xc0e7057b
    800065dc:	3005b783          	ld	a5,768(a1)
    800065e0:	2a863c23          	sd	s0,696(a2)
    800065e4:	9cdc848b          	.insn	4, 0x9cdc848b
    800065e8:	7ce7048b          	.insn	4, 0x7ce7048b
    800065ec:	5ce7048b          	.insn	4, 0x5ce7048b
    800065f0:	3ce7048b          	.insn	4, 0x3ce7048b
    800065f4:	c0e784fb          	.insn	4, 0xc0e784fb
    800065f8:	2ca63023          	sd	a0,704(a2)
    800065fc:	9cdd050b          	.insn	4, 0x9cdd050b
    80006600:	7ce7050b          	.insn	4, 0x7ce7050b
    80006604:	5ce7050b          	.insn	4, 0x5ce7050b
    80006608:	3ce7050b          	.insn	4, 0x3ce7050b
    8000660c:	c0f7857b          	.insn	4, 0xc0f7857b
    80006610:	2c963423          	sd	s1,712(a2)
    80006614:	9cdd848b          	.insn	4, 0x9cdd848b
    80006618:	7ce7048b          	.insn	4, 0x7ce7048b
    8000661c:	5ce7048b          	.insn	4, 0x5ce7048b
    80006620:	3ce7848b          	.insn	4, 0x3ce7848b
    80006624:	c0f784fb          	.insn	4, 0xc0f784fb
    80006628:	2ca63823          	sd	a0,720(a2)
    8000662c:	7ce7050b          	.insn	4, 0x7ce7050b
    80006630:	5ce7050b          	.insn	4, 0x5ce7050b
    80006634:	3cf7850b          	.insn	4, 0x3cf7850b
    80006638:	c0f7857b          	.insn	4, 0xc0f7857b
    8000663c:	2c963c23          	sd	s1,728(a2)
    80006640:	9cd0848b          	.insn	4, 0x9cd0848b
    80006644:	7ce7048b          	.insn	4, 0x7ce7048b
    80006648:	5ce7848b          	.insn	4, 0x5ce7848b
    8000664c:	3cf7848b          	.insn	4, 0x3cf7848b
    80006650:	c0f784fb          	.insn	4, 0xc0f784fb
    80006654:	2ea63023          	sd	a0,736(a2)
    80006658:	9cd8050b          	.insn	4, 0x9cd8050b
    8000665c:	7ce7050b          	.insn	4, 0x7ce7050b
    80006660:	5cf7850b          	.insn	4, 0x5cf7850b
    80006664:	3cf7850b          	.insn	4, 0x3cf7850b
    80006668:	c0f7857b          	.insn	4, 0xc0f7857b
    8000666c:	9cd9040b          	.insn	4, 0x9cd9040b
    80006670:	7ce7870b          	.insn	4, 0x7ce7870b
    80006674:	5cf7870b          	.insn	4, 0x5cf7870b
    80006678:	3cf7870b          	.insn	4, 0x3cf7870b
    8000667c:	c0f7847b          	.insn	4, 0xc0f7847b
    80006680:	2e963423          	sd	s1,744(a2)
    80006684:	2ea63823          	sd	a0,752(a2)
    80006688:	7cf7850b          	.insn	4, 0x7cf7850b
    8000668c:	5cf7850b          	.insn	4, 0x5cf7850b
    80006690:	3cf7850b          	.insn	4, 0x3cf7850b
