
mainop_O2U4_YY.riscv:     file format elf64-littleriscv


Disassembly of section .text.init:

0000000080000000 <_start>:
    80000000:	4081                	li	ra,0
    80000002:	4101                	li	sp,0
    80000004:	4181                	li	gp,0
    80000006:	4201                	li	tp,0
    80000008:	4281                	li	t0,0
    8000000a:	4301                	li	t1,0
    8000000c:	4381                	li	t2,0
    8000000e:	4401                	li	s0,0
    80000010:	4481                	li	s1,0
    80000012:	4501                	li	a0,0
    80000014:	4581                	li	a1,0
    80000016:	4601                	li	a2,0
    80000018:	4681                	li	a3,0
    8000001a:	4701                	li	a4,0
    8000001c:	4781                	li	a5,0
    8000001e:	4801                	li	a6,0
    80000020:	4881                	li	a7,0
    80000022:	4901                	li	s2,0
    80000024:	4981                	li	s3,0
    80000026:	4a01                	li	s4,0
    80000028:	4a81                	li	s5,0
    8000002a:	4b01                	li	s6,0
    8000002c:	4b81                	li	s7,0
    8000002e:	4c01                	li	s8,0
    80000030:	4c81                	li	s9,0
    80000032:	4d01                	li	s10,0
    80000034:	4d81                	li	s11,0
    80000036:	4e01                	li	t3,0
    80000038:	4e81                	li	t4,0
    8000003a:	4f01                	li	t5,0
    8000003c:	4f81                	li	t6,0
    8000003e:	62f9                	lui	t0,0x1e
    80000040:	3002a073          	csrs	mstatus,t0
    80000044:	4285                	li	t0,1
    80000046:	02fe                	slli	t0,t0,0x1f
    80000048:	0002d863          	bgez	t0,80000058 <_start+0x58>
    8000004c:	4505                	li	a0,1
    8000004e:	00001297          	auipc	t0,0x1
    80000052:	faa2a923          	sw	a0,-78(t0) # 80001000 <tohost>
    80000056:	bfdd                	j	8000004c <_start+0x4c>
    80000058:	00000297          	auipc	t0,0x0
    8000005c:	09028293          	addi	t0,t0,144 # 800000e8 <_start+0xe8>
    80000060:	30529073          	csrw	mtvec,t0
    80000064:	00301073          	fscsr	zero
    80000068:	f0000053          	fmv.w.x	ft0,zero
    8000006c:	f00000d3          	fmv.w.x	ft1,zero
    80000070:	f0000153          	fmv.w.x	ft2,zero
    80000074:	f00001d3          	fmv.w.x	ft3,zero
    80000078:	f0000253          	fmv.w.x	ft4,zero
    8000007c:	f00002d3          	fmv.w.x	ft5,zero
    80000080:	f0000353          	fmv.w.x	ft6,zero
    80000084:	f00003d3          	fmv.w.x	ft7,zero
    80000088:	f0000453          	fmv.w.x	fs0,zero
    8000008c:	f00004d3          	fmv.w.x	fs1,zero
    80000090:	f0000553          	fmv.w.x	fa0,zero
    80000094:	f00005d3          	fmv.w.x	fa1,zero
    80000098:	f0000653          	fmv.w.x	fa2,zero
    8000009c:	f00006d3          	fmv.w.x	fa3,zero
    800000a0:	f0000753          	fmv.w.x	fa4,zero
    800000a4:	f00007d3          	fmv.w.x	fa5,zero
    800000a8:	f0000853          	fmv.w.x	fa6,zero
    800000ac:	f00008d3          	fmv.w.x	fa7,zero
    800000b0:	f0000953          	fmv.w.x	fs2,zero
    800000b4:	f00009d3          	fmv.w.x	fs3,zero
    800000b8:	f0000a53          	fmv.w.x	fs4,zero
    800000bc:	f0000ad3          	fmv.w.x	fs5,zero
    800000c0:	f0000b53          	fmv.w.x	fs6,zero
    800000c4:	f0000bd3          	fmv.w.x	fs7,zero
    800000c8:	f0000c53          	fmv.w.x	fs8,zero
    800000cc:	f0000cd3          	fmv.w.x	fs9,zero
    800000d0:	f0000d53          	fmv.w.x	fs10,zero
    800000d4:	f0000dd3          	fmv.w.x	fs11,zero
    800000d8:	f0000e53          	fmv.w.x	ft8,zero
    800000dc:	f0000ed3          	fmv.w.x	ft9,zero
    800000e0:	f0000f53          	fmv.w.x	ft10,zero
    800000e4:	f0000fd3          	fmv.w.x	ft11,zero
    800000e8:	00000297          	auipc	t0,0x0
    800000ec:	03c28293          	addi	t0,t0,60 # 80000124 <trap_entry>
    800000f0:	30529073          	csrw	mtvec,t0
    800000f4:	0000b197          	auipc	gp,0xb
    800000f8:	06c18193          	addi	gp,gp,108 # 8000b160 <__global_pointer$>
    800000fc:	00010217          	auipc	tp,0x10
    80000100:	6c320213          	addi	tp,tp,1731 # 800107bf <_end+0x3f>
    80000104:	fc027213          	andi	tp,tp,-64
    80000108:	f1402573          	csrr	a0,mhartid
    8000010c:	4585                	li	a1,1
    8000010e:	00b57063          	bgeu	a0,a1,8000010e <_start+0x10e>
    80000112:	00150113          	addi	sp,a0,1
    80000116:	0146                	slli	sp,sp,0x11
    80000118:	9112                	add	sp,sp,tp
    8000011a:	01151613          	slli	a2,a0,0x11
    8000011e:	9232                	add	tp,tp,a2
    80000120:	7e90906f          	j	8000a108 <_init>

0000000080000124 <trap_entry>:
    80000124:	716d                	addi	sp,sp,-272
    80000126:	e406                	sd	ra,8(sp)
    80000128:	e80a                	sd	sp,16(sp)
    8000012a:	ec0e                	sd	gp,24(sp)
    8000012c:	f012                	sd	tp,32(sp)
    8000012e:	f416                	sd	t0,40(sp)
    80000130:	f81a                	sd	t1,48(sp)
    80000132:	fc1e                	sd	t2,56(sp)
    80000134:	e0a2                	sd	s0,64(sp)
    80000136:	e4a6                	sd	s1,72(sp)
    80000138:	e8aa                	sd	a0,80(sp)
    8000013a:	ecae                	sd	a1,88(sp)
    8000013c:	f0b2                	sd	a2,96(sp)
    8000013e:	f4b6                	sd	a3,104(sp)
    80000140:	f8ba                	sd	a4,112(sp)
    80000142:	fcbe                	sd	a5,120(sp)
    80000144:	e142                	sd	a6,128(sp)
    80000146:	e546                	sd	a7,136(sp)
    80000148:	e94a                	sd	s2,144(sp)
    8000014a:	ed4e                	sd	s3,152(sp)
    8000014c:	f152                	sd	s4,160(sp)
    8000014e:	f556                	sd	s5,168(sp)
    80000150:	f95a                	sd	s6,176(sp)
    80000152:	fd5e                	sd	s7,184(sp)
    80000154:	e1e2                	sd	s8,192(sp)
    80000156:	e5e6                	sd	s9,200(sp)
    80000158:	e9ea                	sd	s10,208(sp)
    8000015a:	edee                	sd	s11,216(sp)
    8000015c:	f1f2                	sd	t3,224(sp)
    8000015e:	f5f6                	sd	t4,232(sp)
    80000160:	f9fa                	sd	t5,240(sp)
    80000162:	fdfe                	sd	t6,248(sp)
    80000164:	34202573          	csrr	a0,mcause
    80000168:	341025f3          	csrr	a1,mepc
    8000016c:	860a                	mv	a2,sp
    8000016e:	5d3090ef          	jal	80009f40 <handle_trap>
    80000172:	34151073          	csrw	mepc,a0
    80000176:	6289                	lui	t0,0x2
    80000178:	8002829b          	addiw	t0,t0,-2048 # 1800 <buflen.1+0x17c0>
    8000017c:	3002a073          	csrs	mstatus,t0
    80000180:	60a2                	ld	ra,8(sp)
    80000182:	6142                	ld	sp,16(sp)
    80000184:	61e2                	ld	gp,24(sp)
    80000186:	7202                	ld	tp,32(sp)
    80000188:	72a2                	ld	t0,40(sp)
    8000018a:	7342                	ld	t1,48(sp)
    8000018c:	73e2                	ld	t2,56(sp)
    8000018e:	6406                	ld	s0,64(sp)
    80000190:	64a6                	ld	s1,72(sp)
    80000192:	6546                	ld	a0,80(sp)
    80000194:	65e6                	ld	a1,88(sp)
    80000196:	7606                	ld	a2,96(sp)
    80000198:	76a6                	ld	a3,104(sp)
    8000019a:	7746                	ld	a4,112(sp)
    8000019c:	77e6                	ld	a5,120(sp)
    8000019e:	680a                	ld	a6,128(sp)
    800001a0:	68aa                	ld	a7,136(sp)
    800001a2:	694a                	ld	s2,144(sp)
    800001a4:	69ea                	ld	s3,152(sp)
    800001a6:	7a0a                	ld	s4,160(sp)
    800001a8:	7aaa                	ld	s5,168(sp)
    800001aa:	7b4a                	ld	s6,176(sp)
    800001ac:	7bea                	ld	s7,184(sp)
    800001ae:	6c0e                	ld	s8,192(sp)
    800001b0:	6cae                	ld	s9,200(sp)
    800001b2:	6d4e                	ld	s10,208(sp)
    800001b4:	6dee                	ld	s11,216(sp)
    800001b6:	7e0e                	ld	t3,224(sp)
    800001b8:	7eae                	ld	t4,232(sp)
    800001ba:	7f4e                	ld	t5,240(sp)
    800001bc:	7fee                	ld	t6,248(sp)
    800001be:	6151                	addi	sp,sp,272
    800001c0:	30200073          	mret
    800001c4:	0000                	unimp

Disassembly of section .text:

0000000080002000 <d2ull>:
    80002000:	e2050553          	fmv.x.d	a0,fa0
    80002004:	8082                	ret

0000000080002006 <ull2d>:
    80002006:	f2050553          	fmv.d.x	fa0,a0
    8000200a:	8082                	ret

000000008000200c <main>:
    8000200c:	81010113          	addi	sp,sp,-2032
    80002010:	7e113423          	sd	ra,2024(sp)
    80002014:	7e813023          	sd	s0,2016(sp)
    80002018:	7c913c23          	sd	s1,2008(sp)
    8000201c:	7d213823          	sd	s2,2000(sp)
    80002020:	7d313423          	sd	s3,1992(sp)
    80002024:	7d413023          	sd	s4,1984(sp)
    80002028:	7b513c23          	sd	s5,1976(sp)
    8000202c:	7b613823          	sd	s6,1968(sp)
    80002030:	7b713423          	sd	s7,1960(sp)
    80002034:	7b813023          	sd	s8,1952(sp)
    80002038:	79913c23          	sd	s9,1944(sp)
    8000203c:	79a13823          	sd	s10,1936(sp)
    80002040:	79b13423          	sd	s11,1928(sp)
    80002044:	80010113          	addi	sp,sp,-2048
    80002048:	9a010113          	addi	sp,sp,-1632
    8000204c:	4701                	li	a4,0
    8000204e:	00009517          	auipc	a0,0x9
    80002052:	93250513          	addi	a0,a0,-1742 # 8000a980 <gen2+0x1d0>
    80002056:	610c                	ld	a1,0(a0)
    80002058:	00009817          	auipc	a6,0x9
    8000205c:	93880813          	addi	a6,a6,-1736 # 8000a990 <gen1>
    80002060:	00083683          	ld	a3,0(a6)
    80002064:	00009e17          	auipc	t3,0x9
    80002068:	93ce0e13          	addi	t3,t3,-1732 # 8000a9a0 <input>
    8000206c:	00009617          	auipc	a2,0x9
    80002070:	91c60613          	addi	a2,a2,-1764 # 8000a988 <gen2+0x1d8>
    80002074:	6210                	ld	a2,0(a2)
    80002076:	3b9ad7b7          	lui	a5,0x3b9ad
    8000207a:	a077829b          	addiw	t0,a5,-1529 # 3b9aca07 <buflen.1+0x3b9ac9c7>
    8000207e:	40000893          	li	a7,1024
    80002082:	02b68533          	mul	a0,a3,a1
    80002086:	02c53433          	mulhu	s0,a0,a2
    8000208a:	8075                	srli	s0,s0,0x1d
    8000208c:	02540433          	mul	s0,s0,t0
    80002090:	8d01                	sub	a0,a0,s0
    80002092:	02b50433          	mul	s0,a0,a1
    80002096:	02c434b3          	mulhu	s1,s0,a2
    8000209a:	80f5                	srli	s1,s1,0x1d
    8000209c:	025484b3          	mul	s1,s1,t0
    800020a0:	409404b3          	sub	s1,s0,s1
    800020a4:	02b48433          	mul	s0,s1,a1
    800020a8:	02c437b3          	mulhu	a5,s0,a2
    800020ac:	83f5                	srli	a5,a5,0x1d
    800020ae:	025787b3          	mul	a5,a5,t0
    800020b2:	00b68333          	add	t1,a3,a1
    800020b6:	40f407b3          	sub	a5,s0,a5
    800020ba:	02b78433          	mul	s0,a5,a1
    800020be:	00ee06b3          	add	a3,t3,a4
    800020c2:	0066b023          	sd	t1,0(a3)
    800020c6:	952e                	add	a0,a0,a1
    800020c8:	02c43333          	mulhu	t1,s0,a2
    800020cc:	e688                	sd	a0,8(a3)
    800020ce:	00b48533          	add	a0,s1,a1
    800020d2:	ea88                	sd	a0,16(a3)
    800020d4:	01d35513          	srli	a0,t1,0x1d
    800020d8:	02550533          	mul	a0,a0,t0
    800020dc:	97ae                	add	a5,a5,a1
    800020de:	ee9c                	sd	a5,24(a3)
    800020e0:	02070713          	addi	a4,a4,32
    800020e4:	40a406b3          	sub	a3,s0,a0
    800020e8:	f9171de3          	bne	a4,a7,80002082 <main+0x76>
    800020ec:	4701                	li	a4,0
    800020ee:	3b9ad537          	lui	a0,0x3b9ad
    800020f2:	a075029b          	addiw	t0,a0,-1529 # 3b9aca07 <buflen.1+0x3b9ac9c7>
    800020f6:	40000893          	li	a7,1024
    800020fa:	02b68433          	mul	s0,a3,a1
    800020fe:	02c43533          	mulhu	a0,s0,a2
    80002102:	8175                	srli	a0,a0,0x1d
    80002104:	02550533          	mul	a0,a0,t0
    80002108:	40a40533          	sub	a0,s0,a0
    8000210c:	02b50433          	mul	s0,a0,a1
    80002110:	02c434b3          	mulhu	s1,s0,a2
    80002114:	80f5                	srli	s1,s1,0x1d
    80002116:	025484b3          	mul	s1,s1,t0
    8000211a:	409404b3          	sub	s1,s0,s1
    8000211e:	02b48433          	mul	s0,s1,a1
    80002122:	02c437b3          	mulhu	a5,s0,a2
    80002126:	83f5                	srli	a5,a5,0x1d
    80002128:	025787b3          	mul	a5,a5,t0
    8000212c:	00b68333          	add	t1,a3,a1
    80002130:	40f407b3          	sub	a5,s0,a5
    80002134:	02b78433          	mul	s0,a5,a1
    80002138:	00ee06b3          	add	a3,t3,a4
    8000213c:	4066b023          	sd	t1,1024(a3)
    80002140:	952e                	add	a0,a0,a1
    80002142:	02c43333          	mulhu	t1,s0,a2
    80002146:	40a6b423          	sd	a0,1032(a3)
    8000214a:	00b48533          	add	a0,s1,a1
    8000214e:	40a6b823          	sd	a0,1040(a3)
    80002152:	01d35513          	srli	a0,t1,0x1d
    80002156:	02550533          	mul	a0,a0,t0
    8000215a:	97ae                	add	a5,a5,a1
    8000215c:	40f6bc23          	sd	a5,1048(a3)
    80002160:	02070713          	addi	a4,a4,32
    80002164:	40a406b3          	sub	a3,s0,a0
    80002168:	f91719e3          	bne	a4,a7,800020fa <main+0xee>
    8000216c:	7ffe0893          	addi	a7,t3,2047
    80002170:	01988793          	addi	a5,a7,25
    80002174:	08000493          	li	s1,128
    80002178:	3b9ad537          	lui	a0,0x3b9ad
    8000217c:	a075029b          	addiw	t0,a0,-1529 # 3b9aca07 <buflen.1+0x3b9ac9c7>
    80002180:	02b68533          	mul	a0,a3,a1
    80002184:	02c53733          	mulhu	a4,a0,a2
    80002188:	8375                	srli	a4,a4,0x1d
    8000218a:	02570733          	mul	a4,a4,t0
    8000218e:	40e50333          	sub	t1,a0,a4
    80002192:	02b30733          	mul	a4,t1,a1
    80002196:	02c73433          	mulhu	s0,a4,a2
    8000219a:	8075                	srli	s0,s0,0x1d
    8000219c:	02540433          	mul	s0,s0,t0
    800021a0:	8f01                	sub	a4,a4,s0
    800021a2:	02b70433          	mul	s0,a4,a1
    800021a6:	02c43533          	mulhu	a0,s0,a2
    800021aa:	8175                	srli	a0,a0,0x1d
    800021ac:	02550533          	mul	a0,a0,t0
    800021b0:	40a40533          	sub	a0,s0,a0
    800021b4:	02b50433          	mul	s0,a0,a1
    800021b8:	96ae                	add	a3,a3,a1
    800021ba:	fed7b423          	sd	a3,-24(a5)
    800021be:	02c433b3          	mulhu	t2,s0,a2
    800021c2:	00b306b3          	add	a3,t1,a1
    800021c6:	fed7b823          	sd	a3,-16(a5)
    800021ca:	00b706b3          	add	a3,a4,a1
    800021ce:	01d3d713          	srli	a4,t2,0x1d
    800021d2:	02570733          	mul	a4,a4,t0
    800021d6:	fed7bc23          	sd	a3,-8(a5)
    800021da:	952e                	add	a0,a0,a1
    800021dc:	e388                	sd	a0,0(a5)
    800021de:	40e406b3          	sub	a3,s0,a4
    800021e2:	14f1                	addi	s1,s1,-4
    800021e4:	02078793          	addi	a5,a5,32
    800021e8:	fcc1                	bnez	s1,80002180 <main+0x174>
    800021ea:	41988713          	addi	a4,a7,1049
    800021ee:	08000793          	li	a5,128
    800021f2:	3b9ad537          	lui	a0,0x3b9ad
    800021f6:	a075089b          	addiw	a7,a0,-1529 # 3b9aca07 <buflen.1+0x3b9ac9c7>
    800021fa:	02b68533          	mul	a0,a3,a1
    800021fe:	02c53433          	mulhu	s0,a0,a2
    80002202:	8075                	srli	s0,s0,0x1d
    80002204:	03140433          	mul	s0,s0,a7
    80002208:	408502b3          	sub	t0,a0,s0
    8000220c:	02b28433          	mul	s0,t0,a1
    80002210:	02c434b3          	mulhu	s1,s0,a2
    80002214:	80f5                	srli	s1,s1,0x1d
    80002216:	031484b3          	mul	s1,s1,a7
    8000221a:	409404b3          	sub	s1,s0,s1
    8000221e:	02b48433          	mul	s0,s1,a1
    80002222:	02c43533          	mulhu	a0,s0,a2
    80002226:	8175                	srli	a0,a0,0x1d
    80002228:	03150533          	mul	a0,a0,a7
    8000222c:	40a40533          	sub	a0,s0,a0
    80002230:	02b50433          	mul	s0,a0,a1
    80002234:	96ae                	add	a3,a3,a1
    80002236:	fed73423          	sd	a3,-24(a4)
    8000223a:	02c43333          	mulhu	t1,s0,a2
    8000223e:	00b286b3          	add	a3,t0,a1
    80002242:	fed73823          	sd	a3,-16(a4)
    80002246:	00b486b3          	add	a3,s1,a1
    8000224a:	01d35493          	srli	s1,t1,0x1d
    8000224e:	031484b3          	mul	s1,s1,a7
    80002252:	fed73c23          	sd	a3,-8(a4)
    80002256:	952e                	add	a0,a0,a1
    80002258:	e308                	sd	a0,0(a4)
    8000225a:	409406b3          	sub	a3,s0,s1
    8000225e:	17f1                	addi	a5,a5,-4
    80002260:	02070713          	addi	a4,a4,32
    80002264:	fbd9                	bnez	a5,800021fa <main+0x1ee>
    80002266:	6505                	lui	a0,0x1
    80002268:	2561                	addiw	a0,a0,24 # 1018 <buflen.1+0xfd8>
    8000226a:	00ae0733          	add	a4,t3,a0
    8000226e:	08000793          	li	a5,128
    80002272:	3b9ad537          	lui	a0,0x3b9ad
    80002276:	a075089b          	addiw	a7,a0,-1529 # 3b9aca07 <buflen.1+0x3b9ac9c7>
    8000227a:	02b68533          	mul	a0,a3,a1
    8000227e:	02c53433          	mulhu	s0,a0,a2
    80002282:	8075                	srli	s0,s0,0x1d
    80002284:	03140433          	mul	s0,s0,a7
    80002288:	408502b3          	sub	t0,a0,s0
    8000228c:	02b28433          	mul	s0,t0,a1
    80002290:	02c434b3          	mulhu	s1,s0,a2
    80002294:	80f5                	srli	s1,s1,0x1d
    80002296:	031484b3          	mul	s1,s1,a7
    8000229a:	409404b3          	sub	s1,s0,s1
    8000229e:	02b48433          	mul	s0,s1,a1
    800022a2:	02c43533          	mulhu	a0,s0,a2
    800022a6:	8175                	srli	a0,a0,0x1d
    800022a8:	03150533          	mul	a0,a0,a7
    800022ac:	40a40533          	sub	a0,s0,a0
    800022b0:	02b50433          	mul	s0,a0,a1
    800022b4:	96ae                	add	a3,a3,a1
    800022b6:	fed73423          	sd	a3,-24(a4)
    800022ba:	02c43333          	mulhu	t1,s0,a2
    800022be:	00b286b3          	add	a3,t0,a1
    800022c2:	fed73823          	sd	a3,-16(a4)
    800022c6:	00b486b3          	add	a3,s1,a1
    800022ca:	01d35493          	srli	s1,t1,0x1d
    800022ce:	031484b3          	mul	s1,s1,a7
    800022d2:	fed73c23          	sd	a3,-8(a4)
    800022d6:	952e                	add	a0,a0,a1
    800022d8:	e308                	sd	a0,0(a4)
    800022da:	409406b3          	sub	a3,s0,s1
    800022de:	17f1                	addi	a5,a5,-4
    800022e0:	02070713          	addi	a4,a4,32
    800022e4:	fbd9                	bnez	a5,8000227a <main+0x26e>
    800022e6:	6505                	lui	a0,0x1
    800022e8:	4185051b          	addiw	a0,a0,1048 # 1418 <buflen.1+0x13d8>
    800022ec:	00ae0733          	add	a4,t3,a0
    800022f0:	08000793          	li	a5,128
    800022f4:	3b9ad537          	lui	a0,0x3b9ad
    800022f8:	a075089b          	addiw	a7,a0,-1529 # 3b9aca07 <buflen.1+0x3b9ac9c7>
    800022fc:	02b68533          	mul	a0,a3,a1
    80002300:	02c53433          	mulhu	s0,a0,a2
    80002304:	8075                	srli	s0,s0,0x1d
    80002306:	03140433          	mul	s0,s0,a7
    8000230a:	408502b3          	sub	t0,a0,s0
    8000230e:	02b28433          	mul	s0,t0,a1
    80002312:	02c434b3          	mulhu	s1,s0,a2
    80002316:	80f5                	srli	s1,s1,0x1d
    80002318:	031484b3          	mul	s1,s1,a7
    8000231c:	409404b3          	sub	s1,s0,s1
    80002320:	02b48433          	mul	s0,s1,a1
    80002324:	02c43533          	mulhu	a0,s0,a2
    80002328:	8175                	srli	a0,a0,0x1d
    8000232a:	03150533          	mul	a0,a0,a7
    8000232e:	40a40533          	sub	a0,s0,a0
    80002332:	02b50433          	mul	s0,a0,a1
    80002336:	96ae                	add	a3,a3,a1
    80002338:	fed73423          	sd	a3,-24(a4)
    8000233c:	02c43333          	mulhu	t1,s0,a2
    80002340:	00b286b3          	add	a3,t0,a1
    80002344:	fed73823          	sd	a3,-16(a4)
    80002348:	00b486b3          	add	a3,s1,a1
    8000234c:	01d35493          	srli	s1,t1,0x1d
    80002350:	031484b3          	mul	s1,s1,a7
    80002354:	fed73c23          	sd	a3,-8(a4)
    80002358:	952e                	add	a0,a0,a1
    8000235a:	e308                	sd	a0,0(a4)
    8000235c:	409406b3          	sub	a3,s0,s1
    80002360:	17f1                	addi	a5,a5,-4
    80002362:	02070713          	addi	a4,a4,32
    80002366:	fbd9                	bnez	a5,800022fc <main+0x2f0>
    80002368:	6509                	lui	a0,0x2
    8000236a:	8185051b          	addiw	a0,a0,-2024 # 1818 <buflen.1+0x17d8>
    8000236e:	00ae0733          	add	a4,t3,a0
    80002372:	08000793          	li	a5,128
    80002376:	3b9ad537          	lui	a0,0x3b9ad
    8000237a:	a075089b          	addiw	a7,a0,-1529 # 3b9aca07 <buflen.1+0x3b9ac9c7>
    8000237e:	02b68533          	mul	a0,a3,a1
    80002382:	02c53433          	mulhu	s0,a0,a2
    80002386:	8075                	srli	s0,s0,0x1d
    80002388:	03140433          	mul	s0,s0,a7
    8000238c:	408502b3          	sub	t0,a0,s0
    80002390:	02b28433          	mul	s0,t0,a1
    80002394:	02c434b3          	mulhu	s1,s0,a2
    80002398:	80f5                	srli	s1,s1,0x1d
    8000239a:	031484b3          	mul	s1,s1,a7
    8000239e:	409404b3          	sub	s1,s0,s1
    800023a2:	02b48433          	mul	s0,s1,a1
    800023a6:	02c43533          	mulhu	a0,s0,a2
    800023aa:	8175                	srli	a0,a0,0x1d
    800023ac:	03150533          	mul	a0,a0,a7
    800023b0:	40a40533          	sub	a0,s0,a0
    800023b4:	02b50433          	mul	s0,a0,a1
    800023b8:	96ae                	add	a3,a3,a1
    800023ba:	fed73423          	sd	a3,-24(a4)
    800023be:	02c43333          	mulhu	t1,s0,a2
    800023c2:	00b286b3          	add	a3,t0,a1
    800023c6:	fed73823          	sd	a3,-16(a4)
    800023ca:	00b486b3          	add	a3,s1,a1
    800023ce:	01d35493          	srli	s1,t1,0x1d
    800023d2:	031484b3          	mul	s1,s1,a7
    800023d6:	fed73c23          	sd	a3,-8(a4)
    800023da:	952e                	add	a0,a0,a1
    800023dc:	e308                	sd	a0,0(a4)
    800023de:	409406b3          	sub	a3,s0,s1
    800023e2:	17f1                	addi	a5,a5,-4
    800023e4:	02070713          	addi	a4,a4,32
    800023e8:	fbd9                	bnez	a5,8000237e <main+0x372>
    800023ea:	6509                	lui	a0,0x2
    800023ec:	c185051b          	addiw	a0,a0,-1000 # 1c18 <buflen.1+0x1bd8>
    800023f0:	00ae0733          	add	a4,t3,a0
    800023f4:	08000793          	li	a5,128
    800023f8:	3b9ad537          	lui	a0,0x3b9ad
    800023fc:	a075089b          	addiw	a7,a0,-1529 # 3b9aca07 <buflen.1+0x3b9ac9c7>
    80002400:	02b68533          	mul	a0,a3,a1
    80002404:	02c53433          	mulhu	s0,a0,a2
    80002408:	8075                	srli	s0,s0,0x1d
    8000240a:	03140433          	mul	s0,s0,a7
    8000240e:	408502b3          	sub	t0,a0,s0
    80002412:	02b28433          	mul	s0,t0,a1
    80002416:	02c434b3          	mulhu	s1,s0,a2
    8000241a:	80f5                	srli	s1,s1,0x1d
    8000241c:	031484b3          	mul	s1,s1,a7
    80002420:	409404b3          	sub	s1,s0,s1
    80002424:	02b48433          	mul	s0,s1,a1
    80002428:	02c43533          	mulhu	a0,s0,a2
    8000242c:	8175                	srli	a0,a0,0x1d
    8000242e:	03150533          	mul	a0,a0,a7
    80002432:	40a40533          	sub	a0,s0,a0
    80002436:	02b50433          	mul	s0,a0,a1
    8000243a:	96ae                	add	a3,a3,a1
    8000243c:	fed73423          	sd	a3,-24(a4)
    80002440:	02c43333          	mulhu	t1,s0,a2
    80002444:	00b286b3          	add	a3,t0,a1
    80002448:	fed73823          	sd	a3,-16(a4)
    8000244c:	00b486b3          	add	a3,s1,a1
    80002450:	01d35493          	srli	s1,t1,0x1d
    80002454:	031484b3          	mul	s1,s1,a7
    80002458:	fed73c23          	sd	a3,-8(a4)
    8000245c:	952e                	add	a0,a0,a1
    8000245e:	e308                	sd	a0,0(a4)
    80002460:	409406b3          	sub	a3,s0,s1
    80002464:	17f1                	addi	a5,a5,-4
    80002466:	02070713          	addi	a4,a4,32
    8000246a:	fbd9                	bnez	a5,80002400 <main+0x3f4>
    8000246c:	6509                	lui	a0,0x2
    8000246e:	2561                	addiw	a0,a0,24 # 2018 <buflen.1+0x1fd8>
    80002470:	00ae0733          	add	a4,t3,a0
    80002474:	08000793          	li	a5,128
    80002478:	3b9ad537          	lui	a0,0x3b9ad
    8000247c:	a075089b          	addiw	a7,a0,-1529 # 3b9aca07 <buflen.1+0x3b9ac9c7>
    80002480:	02b68533          	mul	a0,a3,a1
    80002484:	02c53433          	mulhu	s0,a0,a2
    80002488:	8075                	srli	s0,s0,0x1d
    8000248a:	03140433          	mul	s0,s0,a7
    8000248e:	408502b3          	sub	t0,a0,s0
    80002492:	02b28433          	mul	s0,t0,a1
    80002496:	02c434b3          	mulhu	s1,s0,a2
    8000249a:	80f5                	srli	s1,s1,0x1d
    8000249c:	031484b3          	mul	s1,s1,a7
    800024a0:	409404b3          	sub	s1,s0,s1
    800024a4:	02b48433          	mul	s0,s1,a1
    800024a8:	02c43533          	mulhu	a0,s0,a2
    800024ac:	8175                	srli	a0,a0,0x1d
    800024ae:	03150533          	mul	a0,a0,a7
    800024b2:	40a40533          	sub	a0,s0,a0
    800024b6:	02b50433          	mul	s0,a0,a1
    800024ba:	96ae                	add	a3,a3,a1
    800024bc:	fed73423          	sd	a3,-24(a4)
    800024c0:	02c43333          	mulhu	t1,s0,a2
    800024c4:	00b286b3          	add	a3,t0,a1
    800024c8:	fed73823          	sd	a3,-16(a4)
    800024cc:	00b486b3          	add	a3,s1,a1
    800024d0:	01d35493          	srli	s1,t1,0x1d
    800024d4:	031484b3          	mul	s1,s1,a7
    800024d8:	fed73c23          	sd	a3,-8(a4)
    800024dc:	952e                	add	a0,a0,a1
    800024de:	e308                	sd	a0,0(a4)
    800024e0:	409406b3          	sub	a3,s0,s1
    800024e4:	17f1                	addi	a5,a5,-4
    800024e6:	02070713          	addi	a4,a4,32
    800024ea:	fbd9                	bnez	a5,80002480 <main+0x474>
    800024ec:	6509                	lui	a0,0x2
    800024ee:	4185051b          	addiw	a0,a0,1048 # 2418 <buflen.1+0x23d8>
    800024f2:	00ae0733          	add	a4,t3,a0
    800024f6:	08000793          	li	a5,128
    800024fa:	3b9ad537          	lui	a0,0x3b9ad
    800024fe:	a075089b          	addiw	a7,a0,-1529 # 3b9aca07 <buflen.1+0x3b9ac9c7>
    80002502:	02b68533          	mul	a0,a3,a1
    80002506:	02c53433          	mulhu	s0,a0,a2
    8000250a:	8075                	srli	s0,s0,0x1d
    8000250c:	03140433          	mul	s0,s0,a7
    80002510:	408502b3          	sub	t0,a0,s0
    80002514:	02b28433          	mul	s0,t0,a1
    80002518:	02c434b3          	mulhu	s1,s0,a2
    8000251c:	80f5                	srli	s1,s1,0x1d
    8000251e:	031484b3          	mul	s1,s1,a7
    80002522:	409404b3          	sub	s1,s0,s1
    80002526:	02b48433          	mul	s0,s1,a1
    8000252a:	02c43533          	mulhu	a0,s0,a2
    8000252e:	8175                	srli	a0,a0,0x1d
    80002530:	03150533          	mul	a0,a0,a7
    80002534:	40a40533          	sub	a0,s0,a0
    80002538:	02b50433          	mul	s0,a0,a1
    8000253c:	96ae                	add	a3,a3,a1
    8000253e:	fed73423          	sd	a3,-24(a4)
    80002542:	02c43333          	mulhu	t1,s0,a2
    80002546:	00b286b3          	add	a3,t0,a1
    8000254a:	fed73823          	sd	a3,-16(a4)
    8000254e:	00b486b3          	add	a3,s1,a1
    80002552:	01d35493          	srli	s1,t1,0x1d
    80002556:	031484b3          	mul	s1,s1,a7
    8000255a:	fed73c23          	sd	a3,-8(a4)
    8000255e:	952e                	add	a0,a0,a1
    80002560:	e308                	sd	a0,0(a4)
    80002562:	409406b3          	sub	a3,s0,s1
    80002566:	17f1                	addi	a5,a5,-4
    80002568:	02070713          	addi	a4,a4,32
    8000256c:	fbd9                	bnez	a5,80002502 <main+0x4f6>
    8000256e:	650d                	lui	a0,0x3
    80002570:	8185051b          	addiw	a0,a0,-2024 # 2818 <buflen.1+0x27d8>
    80002574:	00ae0733          	add	a4,t3,a0
    80002578:	08000793          	li	a5,128
    8000257c:	3b9ad537          	lui	a0,0x3b9ad
    80002580:	a075089b          	addiw	a7,a0,-1529 # 3b9aca07 <buflen.1+0x3b9ac9c7>
    80002584:	02b68533          	mul	a0,a3,a1
    80002588:	02c53433          	mulhu	s0,a0,a2
    8000258c:	8075                	srli	s0,s0,0x1d
    8000258e:	03140433          	mul	s0,s0,a7
    80002592:	408502b3          	sub	t0,a0,s0
    80002596:	02b28433          	mul	s0,t0,a1
    8000259a:	02c434b3          	mulhu	s1,s0,a2
    8000259e:	80f5                	srli	s1,s1,0x1d
    800025a0:	031484b3          	mul	s1,s1,a7
    800025a4:	409404b3          	sub	s1,s0,s1
    800025a8:	02b48433          	mul	s0,s1,a1
    800025ac:	02c43533          	mulhu	a0,s0,a2
    800025b0:	8175                	srli	a0,a0,0x1d
    800025b2:	03150533          	mul	a0,a0,a7
    800025b6:	40a40533          	sub	a0,s0,a0
    800025ba:	02b50433          	mul	s0,a0,a1
    800025be:	96ae                	add	a3,a3,a1
    800025c0:	fed73423          	sd	a3,-24(a4)
    800025c4:	02c43333          	mulhu	t1,s0,a2
    800025c8:	00b286b3          	add	a3,t0,a1
    800025cc:	fed73823          	sd	a3,-16(a4)
    800025d0:	00b486b3          	add	a3,s1,a1
    800025d4:	01d35493          	srli	s1,t1,0x1d
    800025d8:	031484b3          	mul	s1,s1,a7
    800025dc:	fed73c23          	sd	a3,-8(a4)
    800025e0:	952e                	add	a0,a0,a1
    800025e2:	e308                	sd	a0,0(a4)
    800025e4:	409406b3          	sub	a3,s0,s1
    800025e8:	17f1                	addi	a5,a5,-4
    800025ea:	02070713          	addi	a4,a4,32
    800025ee:	fbd9                	bnez	a5,80002584 <main+0x578>
    800025f0:	650d                	lui	a0,0x3
    800025f2:	c185051b          	addiw	a0,a0,-1000 # 2c18 <buflen.1+0x2bd8>
    800025f6:	00ae0733          	add	a4,t3,a0
    800025fa:	08000793          	li	a5,128
    800025fe:	3b9ad537          	lui	a0,0x3b9ad
    80002602:	a075089b          	addiw	a7,a0,-1529 # 3b9aca07 <buflen.1+0x3b9ac9c7>
    80002606:	02b68533          	mul	a0,a3,a1
    8000260a:	02c53433          	mulhu	s0,a0,a2
    8000260e:	8075                	srli	s0,s0,0x1d
    80002610:	03140433          	mul	s0,s0,a7
    80002614:	408502b3          	sub	t0,a0,s0
    80002618:	02b28433          	mul	s0,t0,a1
    8000261c:	02c434b3          	mulhu	s1,s0,a2
    80002620:	80f5                	srli	s1,s1,0x1d
    80002622:	031484b3          	mul	s1,s1,a7
    80002626:	409404b3          	sub	s1,s0,s1
    8000262a:	02b48433          	mul	s0,s1,a1
    8000262e:	02c43533          	mulhu	a0,s0,a2
    80002632:	8175                	srli	a0,a0,0x1d
    80002634:	03150533          	mul	a0,a0,a7
    80002638:	40a40533          	sub	a0,s0,a0
    8000263c:	02b50433          	mul	s0,a0,a1
    80002640:	96ae                	add	a3,a3,a1
    80002642:	fed73423          	sd	a3,-24(a4)
    80002646:	02c43333          	mulhu	t1,s0,a2
    8000264a:	00b286b3          	add	a3,t0,a1
    8000264e:	fed73823          	sd	a3,-16(a4)
    80002652:	00b486b3          	add	a3,s1,a1
    80002656:	01d35493          	srli	s1,t1,0x1d
    8000265a:	031484b3          	mul	s1,s1,a7
    8000265e:	fed73c23          	sd	a3,-8(a4)
    80002662:	952e                	add	a0,a0,a1
    80002664:	e308                	sd	a0,0(a4)
    80002666:	409406b3          	sub	a3,s0,s1
    8000266a:	17f1                	addi	a5,a5,-4
    8000266c:	02070713          	addi	a4,a4,32
    80002670:	fbd9                	bnez	a5,80002606 <main+0x5fa>
    80002672:	0000b297          	auipc	t0,0xb
    80002676:	32e28293          	addi	t0,t0,814 # 8000d9a0 <kernel>
    8000267a:	3b9ad537          	lui	a0,0x3b9ad
    8000267e:	a075031b          	addiw	t1,a0,-1529 # 3b9aca07 <buflen.1+0x3b9ac9c7>
    80002682:	04000893          	li	a7,64
    80002686:	02b68533          	mul	a0,a3,a1
    8000268a:	02c53433          	mulhu	s0,a0,a2
    8000268e:	8075                	srli	s0,s0,0x1d
    80002690:	02640433          	mul	s0,s0,t1
    80002694:	8d01                	sub	a0,a0,s0
    80002696:	02b50433          	mul	s0,a0,a1
    8000269a:	02c43733          	mulhu	a4,s0,a2
    8000269e:	8375                	srli	a4,a4,0x1d
    800026a0:	02670733          	mul	a4,a4,t1
    800026a4:	40e40733          	sub	a4,s0,a4
    800026a8:	02b70433          	mul	s0,a4,a1
    800026ac:	02c434b3          	mulhu	s1,s0,a2
    800026b0:	80f5                	srli	s1,s1,0x1d
    800026b2:	026484b3          	mul	s1,s1,t1
    800026b6:	00b683b3          	add	t2,a3,a1
    800026ba:	409404b3          	sub	s1,s0,s1
    800026be:	02b48433          	mul	s0,s1,a1
    800026c2:	00f286b3          	add	a3,t0,a5
    800026c6:	0076b023          	sd	t2,0(a3)
    800026ca:	952e                	add	a0,a0,a1
    800026cc:	02c433b3          	mulhu	t2,s0,a2
    800026d0:	e688                	sd	a0,8(a3)
    800026d2:	00b70533          	add	a0,a4,a1
    800026d6:	ea88                	sd	a0,16(a3)
    800026d8:	01d3d513          	srli	a0,t2,0x1d
    800026dc:	02650533          	mul	a0,a0,t1
    800026e0:	00b48733          	add	a4,s1,a1
    800026e4:	ee98                	sd	a4,24(a3)
    800026e6:	02078793          	addi	a5,a5,32
    800026ea:	40a406b3          	sub	a3,s0,a0
    800026ee:	f9179ce3          	bne	a5,a7,80002686 <main+0x67a>
    800026f2:	4581                	li	a1,0
    800026f4:	00d83023          	sd	a3,0(a6)
    800026f8:	b0002573          	csrr	a0,mcycle
    800026fc:	e82a                	sd	a0,16(sp)
    800026fe:	0002bb83          	ld	s7,0(t0)
    80002702:	0082b503          	ld	a0,8(t0)
    80002706:	ecaa                	sd	a0,88(sp)
    80002708:	0102b503          	ld	a0,16(t0)
    8000270c:	e8aa                	sd	a0,80(sp)
    8000270e:	0182b503          	ld	a0,24(t0)
    80002712:	e4aa                	sd	a0,72(sp)
    80002714:	0202b503          	ld	a0,32(t0)
    80002718:	e0aa                	sd	a0,64(sp)
    8000271a:	0282b503          	ld	a0,40(t0)
    8000271e:	fc2a                	sd	a0,56(sp)
    80002720:	0302b503          	ld	a0,48(t0)
    80002724:	f82a                	sd	a0,48(sp)
    80002726:	0382b503          	ld	a0,56(t0)
    8000272a:	f42a                	sd	a0,40(sp)
    8000272c:	0000b517          	auipc	a0,0xb
    80002730:	2b450513          	addi	a0,a0,692 # 8000d9e0 <output>
    80002734:	f02a                	sd	a0,32(sp)
    80002736:	6505                	lui	a0,0x1
    80002738:	2e85051b          	addiw	a0,a0,744 # 12e8 <buflen.1+0x12a8>
    8000273c:	ec2a                	sd	a0,24(sp)
    8000273e:	6505                	lui	a0,0x1
    80002740:	5d85051b          	addiw	a0,a0,1496 # 15d8 <buflen.1+0x1598>
    80002744:	950a                	add	a0,a0,sp
    80002746:	01c53023          	sd	t3,0(a0)
    8000274a:	6505                	lui	a0,0x1
    8000274c:	5e05051b          	addiw	a0,a0,1504 # 15e0 <buflen.1+0x15a0>
    80002750:	950a                	add	a0,a0,sp
    80002752:	e10c                	sd	a1,0(a0)
    80002754:	00a59513          	slli	a0,a1,0xa
    80002758:	9572                	add	a0,a0,t3
    8000275a:	00053803          	ld	a6,0(a0)
    8000275e:	00853883          	ld	a7,8(a0)
    80002762:	01053283          	ld	t0,16(a0)
    80002766:	01853383          	ld	t2,24(a0)
    8000276a:	02053e03          	ld	t3,32(a0)
    8000276e:	02853e83          	ld	t4,40(a0)
    80002772:	03053f03          	ld	t5,48(a0)
    80002776:	03853303          	ld	t1,56(a0)
    8000277a:	7aa2                	ld	s5,40(sp)
    8000277c:	015a878b          	.insn	4, 0x015a878b
    80002780:	79e2                	ld	s3,56(sp)
    80002782:	7a42                	ld	s4,48(sp)
    80002784:	e149878b          	.insn	4, 0xe149878b
    80002788:	6fa6                	ld	t6,72(sp)
    8000278a:	6906                	ld	s2,64(sp)
    8000278c:	c12f878b          	.insn	4, 0xc12f878b
    80002790:	6666                	ld	a2,88(sp)
    80002792:	6746                	ld	a4,80(sp)
    80002794:	a0e6078b          	.insn	4, 0xa0e6078b
    80002798:	8170078b          	.insn	4, 0x8170078b
    8000279c:	0118078b          	.insn	4, 0x0118078b
    800027a0:	2072878b          	.insn	4, 0x2072878b
    800027a4:	41de078b          	.insn	4, 0x41de078b
    800027a8:	0c6f05fb          	.insn	4, 0x0c6f05fb
    800027ac:	6685                	lui	a3,0x1
    800027ae:	5a06869b          	addiw	a3,a3,1440 # 15a0 <buflen.1+0x1560>
    800027b2:	968a                	add	a3,a3,sp
    800027b4:	e28c                	sd	a1,0(a3)
    800027b6:	613c                	ld	a5,64(a0)
    800027b8:	4585                	li	a1,1
    800027ba:	8575858b          	.insn	4, 0x8575858b
    800027be:	a4e6058b          	.insn	4, 0xa4e6058b
    800027c2:	c52f858b          	.insn	4, 0xc52f858b
    800027c6:	e549858b          	.insn	4, 0xe549858b
    800027ca:	055a858b          	.insn	4, 0x055a858b
    800027ce:	2472858b          	.insn	4, 0x2472858b
    800027d2:	45de058b          	.insn	4, 0x45de058b
    800027d6:	646f058b          	.insn	4, 0x646f058b
    800027da:	411785fb          	.insn	4, 0x411785fb
    800027de:	6685                	lui	a3,0x1
    800027e0:	5986869b          	addiw	a3,a3,1432 # 1598 <buflen.1+0x1558>
    800027e4:	968a                	add	a3,a3,sp
    800027e6:	e28c                	sd	a1,0(a3)
    800027e8:	04853803          	ld	a6,72(a0)
    800027ec:	4589                	li	a1,2
    800027ee:	8975848b          	.insn	4, 0x8975848b
    800027f2:	4b09                	li	s6,2
    800027f4:	a8e6048b          	.insn	4, 0xa8e6048b
    800027f8:	c92f848b          	.insn	4, 0xc92f848b
    800027fc:	e949848b          	.insn	4, 0xe949848b
    80002800:	095a848b          	.insn	4, 0x095a848b
    80002804:	2872848b          	.insn	4, 0x2872848b
    80002808:	49de048b          	.insn	4, 0x49de048b
    8000280c:	686f048b          	.insn	4, 0x686f048b
    80002810:	810785fb          	.insn	4, 0x810785fb
    80002814:	6685                	lui	a3,0x1
    80002816:	5906869b          	addiw	a3,a3,1424 # 1590 <buflen.1+0x1550>
    8000281a:	968a                	add	a3,a3,sp
    8000281c:	e28c                	sd	a1,0(a3)
    8000281e:	6924                	ld	s1,80(a0)
    80002820:	458d                	li	a1,3
    80002822:	8d75840b          	.insn	4, 0x8d75840b
    80002826:	4c0d                	li	s8,3
    80002828:	ace6040b          	.insn	4, 0xace6040b
    8000282c:	cd2f840b          	.insn	4, 0xcd2f840b
    80002830:	ed49840b          	.insn	4, 0xed49840b
    80002834:	0d5a840b          	.insn	4, 0x0d5a840b
    80002838:	4dde040b          	.insn	4, 0x4dde040b
    8000283c:	6c6f070b          	.insn	4, 0x6c6f070b
    80002840:	0d07870b          	.insn	4, 0x0d07870b
    80002844:	c47485fb          	.insn	4, 0xc47485fb
    80002848:	6605                	lui	a2,0x1
    8000284a:	5886061b          	addiw	a2,a2,1416 # 1588 <buflen.1+0x1548>
    8000284e:	960a                	add	a2,a2,sp
    80002850:	e20c                	sd	a1,0(a2)
    80002852:	05853883          	ld	a7,88(a0)
    80002856:	4591                	li	a1,4
    80002858:	8175840b          	.insn	4, 0x8175840b
    8000285c:	4911                	li	s2,4
    8000285e:	0107840b          	.insn	4, 0x0107840b
    80002862:	051485fb          	.insn	4, 0x051485fb
    80002866:	6605                	lui	a2,0x1
    80002868:	5806061b          	addiw	a2,a2,1408 # 1580 <buflen.1+0x1540>
    8000286c:	960a                	add	a2,a2,sp
    8000286e:	e20c                	sd	a1,0(a2)
    80002870:	7120                	ld	s0,96(a0)
    80002872:	4595                	li	a1,5
    80002874:	8575860b          	.insn	4, 0x8575860b
    80002878:	4095                	li	ra,5
    8000287a:	0507860b          	.insn	4, 0x0507860b
    8000287e:	2514860b          	.insn	4, 0x2514860b
    80002882:	49d405fb          	.insn	4, 0x49d405fb
    80002886:	6605                	lui	a2,0x1
    80002888:	5786061b          	addiw	a2,a2,1400 # 1578 <buflen.1+0x1538>
    8000288c:	960a                	add	a2,a2,sp
    8000288e:	e20c                	sd	a1,0(a2)
    80002890:	7530                	ld	a2,104(a0)
    80002892:	4599                	li	a1,6
    80002894:	8975878b          	.insn	4, 0x8975878b
    80002898:	4999                	li	s3,6
    8000289a:	2914878b          	.insn	4, 0x2914878b
    8000289e:	88c405fb          	.insn	4, 0x88c405fb
    800028a2:	6685                	lui	a3,0x1
    800028a4:	5706869b          	addiw	a3,a3,1392 # 1570 <buflen.1+0x1530>
    800028a8:	968a                	add	a3,a3,sp
    800028aa:	e28c                	sd	a1,0(a3)
    800028ac:	793c                	ld	a5,112(a0)
    800028ae:	459d                	li	a1,7
    800028b0:	8d75858b          	.insn	4, 0x8d75858b
    800028b4:	4f9d                	li	t6,7
    800028b6:	2d14858b          	.insn	4, 0x2d14858b
    800028ba:	4cc4058b          	.insn	4, 0x4cc4058b
    800028be:	cc6785fb          	.insn	4, 0xcc6785fb
    800028c2:	6685                	lui	a3,0x1
    800028c4:	5686869b          	addiw	a3,a3,1384 # 1568 <buflen.1+0x1528>
    800028c8:	968a                	add	a3,a3,sp
    800028ca:	e28c                	sd	a1,0(a3)
    800028cc:	07853283          	ld	t0,120(a0)
    800028d0:	40c4048b          	.insn	4, 0x40c4048b
    800028d4:	0c5785fb          	.insn	4, 0x0c5785fb
    800028d8:	6685                	lui	a3,0x1
    800028da:	5606869b          	addiw	a3,a3,1376 # 1560 <buflen.1+0x1520>
    800028de:	968a                	add	a3,a3,sp
    800028e0:	e28c                	sd	a1,0(a3)
    800028e2:	6144                	ld	s1,128(a0)
    800028e4:	4385                	li	t2,1
    800028e6:	8573870b          	.insn	4, 0x8573870b
    800028ea:	44c4070b          	.insn	4, 0x44c4070b
    800028ee:	6457870b          	.insn	4, 0x6457870b
    800028f2:	410485fb          	.insn	4, 0x410485fb
    800028f6:	6685                	lui	a3,0x1
    800028f8:	5586869b          	addiw	a3,a3,1368 # 1558 <buflen.1+0x1518>
    800028fc:	968a                	add	a3,a3,sp
    800028fe:	e28c                	sd	a1,0(a3)
    80002900:	6558                	ld	a4,136(a0)
    80002902:	897b040b          	.insn	4, 0x897b040b
    80002906:	6857840b          	.insn	4, 0x6857840b
    8000290a:	80e485fb          	.insn	4, 0x80e485fb
    8000290e:	6685                	lui	a3,0x1
    80002910:	5506869b          	addiw	a3,a3,1360 # 1550 <buflen.1+0x1510>
    80002914:	968a                	add	a3,a3,sp
    80002916:	e28c                	sd	a1,0(a3)
    80002918:	6940                	ld	s0,144(a0)
    8000291a:	8d7c058b          	.insn	4, 0x8d7c058b
    8000291e:	6c57858b          	.insn	4, 0x6c57858b
    80002922:	0ce4858b          	.insn	4, 0x0ce4858b
    80002926:	c51405fb          	.insn	4, 0xc51405fb
    8000292a:	6685                	lui	a3,0x1
    8000292c:	5486869b          	addiw	a3,a3,1352 # 1548 <buflen.1+0x1508>
    80002930:	968a                	add	a3,a3,sp
    80002932:	e28c                	sd	a1,0(a3)
    80002934:	09853803          	ld	a6,152(a0)
    80002938:	00e4878b          	.insn	4, 0x00e4878b
    8000293c:	050405fb          	.insn	4, 0x050405fb
    80002940:	6685                	lui	a3,0x1
    80002942:	5386869b          	addiw	a3,a3,1336 # 1538 <buflen.1+0x14f8>
    80002946:	968a                	add	a3,a3,sp
    80002948:	e28c                	sd	a1,0(a3)
    8000294a:	715c                	ld	a5,160(a0)
    8000294c:	8570858b          	.insn	4, 0x8570858b
    80002950:	04e4858b          	.insn	4, 0x04e4858b
    80002954:	2504058b          	.insn	4, 0x2504058b
    80002958:	48c785fb          	.insn	4, 0x48c785fb
    8000295c:	6605                	lui	a2,0x1
    8000295e:	5406061b          	addiw	a2,a2,1344 # 1540 <buflen.1+0x1500>
    80002962:	960a                	add	a2,a2,sp
    80002964:	e20c                	sd	a1,0(a2)
    80002966:	754c                	ld	a1,168(a0)
    80002968:	8979860b          	.insn	4, 0x8979860b
    8000296c:	2904060b          	.insn	4, 0x2904060b
    80002970:	88b7867b          	.insn	4, 0x88b7867b
    80002974:	6685                	lui	a3,0x1
    80002976:	5306869b          	addiw	a3,a3,1328 # 1530 <buflen.1+0x14f0>
    8000297a:	968a                	add	a3,a3,sp
    8000297c:	e290                	sd	a2,0(a3)
    8000297e:	0b053883          	ld	a7,176(a0)
    80002982:	8d7f848b          	.insn	4, 0x8d7f848b
    80002986:	2d04048b          	.insn	4, 0x2d04048b
    8000298a:	4cb7848b          	.insn	4, 0x4cb7848b
    8000298e:	cc58867b          	.insn	4, 0xcc58867b
    80002992:	6685                	lui	a3,0x1
    80002994:	5286869b          	addiw	a3,a3,1320 # 1528 <buflen.1+0x14e8>
    80002998:	968a                	add	a3,a3,sp
    8000299a:	e290                	sd	a2,0(a3)
    8000299c:	7d44                	ld	s1,184(a0)
    8000299e:	40b7840b          	.insn	4, 0x40b7840b
    800029a2:	0c98867b          	.insn	4, 0x0c98867b
    800029a6:	6685                	lui	a3,0x1
    800029a8:	5206869b          	addiw	a3,a3,1312 # 1520 <buflen.1+0x14e0>
    800029ac:	968a                	add	a3,a3,sp
    800029ae:	e290                	sd	a2,0(a3)
    800029b0:	0c053303          	ld	t1,192(a0)
    800029b4:	8573860b          	.insn	4, 0x8573860b
    800029b8:	4a85                	li	s5,1
    800029ba:	44b7860b          	.insn	4, 0x44b7860b
    800029be:	6498860b          	.insn	4, 0x6498860b
    800029c2:	40e3067b          	.insn	4, 0x40e3067b
    800029c6:	6685                	lui	a3,0x1
    800029c8:	5186869b          	addiw	a3,a3,1304 # 1518 <buflen.1+0x14d8>
    800029cc:	968a                	add	a3,a3,sp
    800029ce:	e290                	sd	a2,0(a3)
    800029d0:	6570                	ld	a2,200(a0)
    800029d2:	0d053283          	ld	t0,208(a0)
    800029d6:	8d7c078b          	.insn	4, 0x8d7c078b
    800029da:	6c98878b          	.insn	4, 0x6c98878b
    800029de:	0cc3078b          	.insn	4, 0x0cc3078b
    800029e2:	c502877b          	.insn	4, 0xc502877b
    800029e6:	6685                	lui	a3,0x1
    800029e8:	5106869b          	addiw	a3,a3,1296 # 1510 <buflen.1+0x14d0>
    800029ec:	968a                	add	a3,a3,sp
    800029ee:	e298                	sd	a4,0(a3)
    800029f0:	6d7c                	ld	a5,216(a0)
    800029f2:	0e053803          	ld	a6,224(a0)
    800029f6:	8570870b          	.insn	4, 0x8570870b
    800029fa:	04c3070b          	.insn	4, 0x04c3070b
    800029fe:	24f2870b          	.insn	4, 0x24f2870b
    80002a02:	48b805fb          	.insn	4, 0x48b805fb
    80002a06:	6685                	lui	a3,0x1
    80002a08:	5086869b          	addiw	a3,a3,1288 # 1508 <buflen.1+0x14c8>
    80002a0c:	968a                	add	a3,a3,sp
    80002a0e:	e28c                	sd	a1,0(a3)
    80002a10:	8d7f858b          	.insn	4, 0x8d7f858b
    80002a14:	2cf2858b          	.insn	4, 0x2cf2858b
    80002a18:	756c                	ld	a1,232(a0)
    80002a1a:	0f053383          	ld	t2,240(a0)
    80002a1e:	4cb8040b          	.insn	4, 0x4cb8040b
    80002a22:	cc93877b          	.insn	4, 0xcc93877b
    80002a26:	6685                	lui	a3,0x1
    80002a28:	5006869b          	addiw	a3,a3,1280 # 1500 <buflen.1+0x14c0>
    80002a2c:	968a                	add	a3,a3,sp
    80002a2e:	e298                	sd	a4,0(a3)
    80002a30:	6898848b          	.insn	4, 0x6898848b
    80002a34:	4409                	li	s0,2
    80002a36:	8974048b          	.insn	4, 0x8974048b
    80002a3a:	80c3077b          	.insn	4, 0x80c3077b
    80002a3e:	6685                	lui	a3,0x1
    80002a40:	4f06869b          	addiw	a3,a3,1264 # 14f0 <buflen.1+0x14b0>
    80002a44:	968a                	add	a3,a3,sp
    80002a46:	e298                	sd	a4,0(a3)
    80002a48:	857a848b          	.insn	4, 0x857a848b
    80002a4c:	44b8048b          	.insn	4, 0x44b8048b
    80002a50:	7d64                	ld	s1,248(a0)
    80002a52:	10053e03          	ld	t3,256(a0)
    80002a56:	6493870b          	.insn	4, 0x6493870b
    80002a5a:	40ce077b          	.insn	4, 0x40ce077b
    80002a5e:	6685                	lui	a3,0x1
    80002a60:	4f86869b          	addiw	a3,a3,1272 # 14f8 <buflen.1+0x14b8>
    80002a64:	968a                	add	a3,a3,sp
    80002a66:	e298                	sd	a4,0(a3)
    80002a68:	00c3060b          	.insn	4, 0x00c3060b
    80002a6c:	04f2867b          	.insn	4, 0x04f2867b
    80002a70:	6685                	lui	a3,0x1
    80002a72:	4e06869b          	addiw	a3,a3,1248 # 14e0 <buflen.1+0x14a0>
    80002a76:	968a                	add	a3,a3,sp
    80002a78:	e290                	sd	a2,0(a3)
    80002a7a:	8d7c060b          	.insn	4, 0x8d7c060b
    80002a7e:	6c93860b          	.insn	4, 0x6c93860b
    80002a82:	10853603          	ld	a2,264(a0)
    80002a86:	11053883          	ld	a7,272(a0)
    80002a8a:	0cce070b          	.insn	4, 0x0cce070b
    80002a8e:	c4f8877b          	.insn	4, 0xc4f8877b
    80002a92:	6685                	lui	a3,0x1
    80002a94:	4e86869b          	addiw	a3,a3,1256 # 14e8 <buflen.1+0x14a8>
    80002a98:	968a                	add	a3,a3,sp
    80002a9a:	e298                	sd	a4,0(a3)
    80002a9c:	28f2870b          	.insn	4, 0x28f2870b
    80002aa0:	8979870b          	.insn	4, 0x8979870b
    80002aa4:	88b8077b          	.insn	4, 0x88b8077b
    80002aa8:	6685                	lui	a3,0x1
    80002aaa:	4d06869b          	addiw	a3,a3,1232 # 14d0 <buflen.1+0x1490>
    80002aae:	968a                	add	a3,a3,sp
    80002ab0:	e298                	sd	a4,0(a3)
    80002ab2:	8570870b          	.insn	4, 0x8570870b
    80002ab6:	04ce070b          	.insn	4, 0x04ce070b
    80002aba:	11853703          	ld	a4,280(a0)
    80002abe:	12053283          	ld	t0,288(a0)
    80002ac2:	24e8878b          	.insn	4, 0x24e8878b
    80002ac6:	48b287fb          	.insn	4, 0x48b287fb
    80002aca:	6685                	lui	a3,0x1
    80002acc:	4d86869b          	addiw	a3,a3,1240 # 14d8 <buflen.1+0x1498>
    80002ad0:	968a                	add	a3,a3,sp
    80002ad2:	e29c                	sd	a5,0(a3)
    80002ad4:	40b8058b          	.insn	4, 0x40b8058b
    80002ad8:	0c9385fb          	.insn	4, 0x0c9385fb
    80002adc:	6685                	lui	a3,0x1
    80002ade:	4c86869b          	addiw	a3,a3,1224 # 14c8 <buflen.1+0x1488>
    80002ae2:	968a                	add	a3,a3,sp
    80002ae4:	e28c                	sd	a1,0(a3)
    80002ae6:	8d7f858b          	.insn	4, 0x8d7f858b
    80002aea:	2ce8858b          	.insn	4, 0x2ce8858b
    80002aee:	12853583          	ld	a1,296(a0)
    80002af2:	13053803          	ld	a6,304(a0)
    80002af6:	4cb2878b          	.insn	4, 0x4cb2878b
    80002afa:	cc9807fb          	.insn	4, 0xcc9807fb
    80002afe:	6685                	lui	a3,0x1
    80002b00:	4c06869b          	addiw	a3,a3,1216 # 14c0 <buflen.1+0x1480>
    80002b04:	968a                	add	a3,a3,sp
    80002b06:	e29c                	sd	a5,0(a3)
    80002b08:	6893878b          	.insn	4, 0x6893878b
    80002b0c:	8974078b          	.insn	4, 0x8974078b
    80002b10:	4a09                	li	s4,2
    80002b12:	80ce07fb          	.insn	4, 0x80ce07fb
    80002b16:	6685                	lui	a3,0x1
    80002b18:	4b86869b          	addiw	a3,a3,1208 # 14b8 <buflen.1+0x1478>
    80002b1c:	968a                	add	a3,a3,sp
    80002b1e:	e29c                	sd	a5,0(a3)
    80002b20:	857a878b          	.insn	4, 0x857a878b
    80002b24:	44b2878b          	.insn	4, 0x44b2878b
    80002b28:	13853783          	ld	a5,312(a0)
    80002b2c:	14053483          	ld	s1,320(a0)
    80002b30:	64f8040b          	.insn	4, 0x64f8040b
    80002b34:	40c4847b          	.insn	4, 0x40c4847b
    80002b38:	6685                	lui	a3,0x1
    80002b3a:	4b06869b          	addiw	a3,a3,1200 # 14b0 <buflen.1+0x1470>
    80002b3e:	968a                	add	a3,a3,sp
    80002b40:	e280                	sd	s0,0(a3)
    80002b42:	00ce060b          	.insn	4, 0x00ce060b
    80002b46:	04e8867b          	.insn	4, 0x04e8867b
    80002b4a:	6685                	lui	a3,0x1
    80002b4c:	4a86869b          	addiw	a3,a3,1192 # 14a8 <buflen.1+0x1468>
    80002b50:	968a                	add	a3,a3,sp
    80002b52:	e290                	sd	a2,0(a3)
    80002b54:	8d7c060b          	.insn	4, 0x8d7c060b
    80002b58:	6cf8060b          	.insn	4, 0x6cf8060b
    80002b5c:	14853603          	ld	a2,328(a0)
    80002b60:	15053303          	ld	t1,336(a0)
    80002b64:	0cc4840b          	.insn	4, 0x0cc4840b
    80002b68:	c4e3047b          	.insn	4, 0xc4e3047b
    80002b6c:	6685                	lui	a3,0x1
    80002b6e:	4a06869b          	addiw	a3,a3,1184 # 14a0 <buflen.1+0x1460>
    80002b72:	968a                	add	a3,a3,sp
    80002b74:	e280                	sd	s0,0(a3)
    80002b76:	28e8870b          	.insn	4, 0x28e8870b
    80002b7a:	8979870b          	.insn	4, 0x8979870b
    80002b7e:	88b2877b          	.insn	4, 0x88b2877b
    80002b82:	6685                	lui	a3,0x1
    80002b84:	4906869b          	addiw	a3,a3,1168 # 1490 <buflen.1+0x1450>
    80002b88:	968a                	add	a3,a3,sp
    80002b8a:	e298                	sd	a4,0(a3)
    80002b8c:	8570870b          	.insn	4, 0x8570870b
    80002b90:	04c4870b          	.insn	4, 0x04c4870b
    80002b94:	15853703          	ld	a4,344(a0)
    80002b98:	16053883          	ld	a7,352(a0)
    80002b9c:	24e3040b          	.insn	4, 0x24e3040b
    80002ba0:	48b8847b          	.insn	4, 0x48b8847b
    80002ba4:	6685                	lui	a3,0x1
    80002ba6:	4986869b          	addiw	a3,a3,1176 # 1498 <buflen.1+0x1458>
    80002baa:	968a                	add	a3,a3,sp
    80002bac:	e280                	sd	s0,0(a3)
    80002bae:	40b2858b          	.insn	4, 0x40b2858b
    80002bb2:	0cf805fb          	.insn	4, 0x0cf805fb
    80002bb6:	6685                	lui	a3,0x1
    80002bb8:	4806869b          	addiw	a3,a3,1152 # 1480 <buflen.1+0x1440>
    80002bbc:	968a                	add	a3,a3,sp
    80002bbe:	e28c                	sd	a1,0(a3)
    80002bc0:	8d7f858b          	.insn	4, 0x8d7f858b
    80002bc4:	2ce3058b          	.insn	4, 0x2ce3058b
    80002bc8:	16853583          	ld	a1,360(a0)
    80002bcc:	17053283          	ld	t0,368(a0)
    80002bd0:	4cb8840b          	.insn	4, 0x4cb8840b
    80002bd4:	ccf2847b          	.insn	4, 0xccf2847b
    80002bd8:	6685                	lui	a3,0x1
    80002bda:	4886869b          	addiw	a3,a3,1160 # 1488 <buflen.1+0x1448>
    80002bde:	968a                	add	a3,a3,sp
    80002be0:	e280                	sd	s0,0(a3)
    80002be2:	68f8078b          	.insn	4, 0x68f8078b
    80002be6:	897a078b          	.insn	4, 0x897a078b
    80002bea:	80c487fb          	.insn	4, 0x80c487fb
    80002bee:	6685                	lui	a3,0x1
    80002bf0:	4706869b          	addiw	a3,a3,1136 # 1470 <buflen.1+0x1430>
    80002bf4:	968a                	add	a3,a3,sp
    80002bf6:	e29c                	sd	a5,0(a3)
    80002bf8:	857a878b          	.insn	4, 0x857a878b
    80002bfc:	44b8878b          	.insn	4, 0x44b8878b
    80002c00:	17853783          	ld	a5,376(a0)
    80002c04:	18053803          	ld	a6,384(a0)
    80002c08:	64f2840b          	.insn	4, 0x64f2840b
    80002c0c:	40c8047b          	.insn	4, 0x40c8047b
    80002c10:	6685                	lui	a3,0x1
    80002c12:	4786869b          	addiw	a3,a3,1144 # 1478 <buflen.1+0x1438>
    80002c16:	968a                	add	a3,a3,sp
    80002c18:	e280                	sd	s0,0(a3)
    80002c1a:	00c4860b          	.insn	4, 0x00c4860b
    80002c1e:	04e3067b          	.insn	4, 0x04e3067b
    80002c22:	6685                	lui	a3,0x1
    80002c24:	4686869b          	addiw	a3,a3,1128 # 1468 <buflen.1+0x1428>
    80002c28:	968a                	add	a3,a3,sp
    80002c2a:	e290                	sd	a2,0(a3)
    80002c2c:	8d7c060b          	.insn	4, 0x8d7c060b
    80002c30:	6cf2860b          	.insn	4, 0x6cf2860b
    80002c34:	18853603          	ld	a2,392(a0)
    80002c38:	19053383          	ld	t2,400(a0)
    80002c3c:	0cc8040b          	.insn	4, 0x0cc8040b
    80002c40:	c4e384fb          	.insn	4, 0xc4e384fb
    80002c44:	6685                	lui	a3,0x1
    80002c46:	4606869b          	addiw	a3,a3,1120 # 1460 <buflen.1+0x1420>
    80002c4a:	968a                	add	a3,a3,sp
    80002c4c:	e284                	sd	s1,0(a3)
    80002c4e:	28e3070b          	.insn	4, 0x28e3070b
    80002c52:	8979870b          	.insn	4, 0x8979870b
    80002c56:	88b8877b          	.insn	4, 0x88b8877b
    80002c5a:	6685                	lui	a3,0x1
    80002c5c:	4586869b          	addiw	a3,a3,1112 # 1458 <buflen.1+0x1418>
    80002c60:	968a                	add	a3,a3,sp
    80002c62:	e298                	sd	a4,0(a3)
    80002c64:	8570870b          	.insn	4, 0x8570870b
    80002c68:	04c8070b          	.insn	4, 0x04c8070b
    80002c6c:	19853703          	ld	a4,408(a0)
    80002c70:	1a053303          	ld	t1,416(a0)
    80002c74:	24e3848b          	.insn	4, 0x24e3848b
    80002c78:	48b304fb          	.insn	4, 0x48b304fb
    80002c7c:	6685                	lui	a3,0x1
    80002c7e:	4506869b          	addiw	a3,a3,1104 # 1450 <buflen.1+0x1410>
    80002c82:	968a                	add	a3,a3,sp
    80002c84:	e284                	sd	s1,0(a3)
    80002c86:	40b8858b          	.insn	4, 0x40b8858b
    80002c8a:	0cf285fb          	.insn	4, 0x0cf285fb
    80002c8e:	6685                	lui	a3,0x1
    80002c90:	4406869b          	addiw	a3,a3,1088 # 1440 <buflen.1+0x1400>
    80002c94:	968a                	add	a3,a3,sp
    80002c96:	e28c                	sd	a1,0(a3)
    80002c98:	8d7f858b          	.insn	4, 0x8d7f858b
    80002c9c:	2ce3858b          	.insn	4, 0x2ce3858b
    80002ca0:	1a853583          	ld	a1,424(a0)
    80002ca4:	1b053883          	ld	a7,432(a0)
    80002ca8:	4cb3048b          	.insn	4, 0x4cb3048b
    80002cac:	ccf884fb          	.insn	4, 0xccf884fb
    80002cb0:	6685                	lui	a3,0x1
    80002cb2:	4486869b          	addiw	a3,a3,1096 # 1448 <buflen.1+0x1408>
    80002cb6:	968a                	add	a3,a3,sp
    80002cb8:	e284                	sd	s1,0(a3)
    80002cba:	68f2878b          	.insn	4, 0x68f2878b
    80002cbe:	897a078b          	.insn	4, 0x897a078b
    80002cc2:	80c807fb          	.insn	4, 0x80c807fb
    80002cc6:	6685                	lui	a3,0x1
    80002cc8:	4306869b          	addiw	a3,a3,1072 # 1430 <buflen.1+0x13f0>
    80002ccc:	968a                	add	a3,a3,sp
    80002cce:	e29c                	sd	a5,0(a3)
    80002cd0:	857a878b          	.insn	4, 0x857a878b
    80002cd4:	44b3078b          	.insn	4, 0x44b3078b
    80002cd8:	1b853783          	ld	a5,440(a0)
    80002cdc:	1c053483          	ld	s1,448(a0)
    80002ce0:	64f8840b          	.insn	4, 0x64f8840b
    80002ce4:	40c4847b          	.insn	4, 0x40c4847b
    80002ce8:	6685                	lui	a3,0x1
    80002cea:	4386869b          	addiw	a3,a3,1080 # 1438 <buflen.1+0x13f8>
    80002cee:	968a                	add	a3,a3,sp
    80002cf0:	e280                	sd	s0,0(a3)
    80002cf2:	00c8060b          	.insn	4, 0x00c8060b
    80002cf6:	04e3867b          	.insn	4, 0x04e3867b
    80002cfa:	6685                	lui	a3,0x1
    80002cfc:	4206869b          	addiw	a3,a3,1056 # 1420 <buflen.1+0x13e0>
    80002d00:	968a                	add	a3,a3,sp
    80002d02:	e290                	sd	a2,0(a3)
    80002d04:	8d7c060b          	.insn	4, 0x8d7c060b
    80002d08:	6cf8860b          	.insn	4, 0x6cf8860b
    80002d0c:	1c853603          	ld	a2,456(a0)
    80002d10:	1d053803          	ld	a6,464(a0)
    80002d14:	0cc4840b          	.insn	4, 0x0cc4840b
    80002d18:	c4e8047b          	.insn	4, 0xc4e8047b
    80002d1c:	6685                	lui	a3,0x1
    80002d1e:	4286869b          	addiw	a3,a3,1064 # 1428 <buflen.1+0x13e8>
    80002d22:	968a                	add	a3,a3,sp
    80002d24:	e280                	sd	s0,0(a3)
    80002d26:	28e3870b          	.insn	4, 0x28e3870b
    80002d2a:	8979870b          	.insn	4, 0x8979870b
    80002d2e:	88b3077b          	.insn	4, 0x88b3077b
    80002d32:	6685                	lui	a3,0x1
    80002d34:	4106869b          	addiw	a3,a3,1040 # 1410 <buflen.1+0x13d0>
    80002d38:	968a                	add	a3,a3,sp
    80002d3a:	e298                	sd	a4,0(a3)
    80002d3c:	8570870b          	.insn	4, 0x8570870b
    80002d40:	04c4870b          	.insn	4, 0x04c4870b
    80002d44:	1d853703          	ld	a4,472(a0)
    80002d48:	1e053283          	ld	t0,480(a0)
    80002d4c:	24e8040b          	.insn	4, 0x24e8040b
    80002d50:	48b2847b          	.insn	4, 0x48b2847b
    80002d54:	6685                	lui	a3,0x1
    80002d56:	4186869b          	addiw	a3,a3,1048 # 1418 <buflen.1+0x13d8>
    80002d5a:	968a                	add	a3,a3,sp
    80002d5c:	e280                	sd	s0,0(a3)
    80002d5e:	40b3058b          	.insn	4, 0x40b3058b
    80002d62:	0cf885fb          	.insn	4, 0x0cf885fb
    80002d66:	6685                	lui	a3,0x1
    80002d68:	4086869b          	addiw	a3,a3,1032 # 1408 <buflen.1+0x13c8>
    80002d6c:	968a                	add	a3,a3,sp
    80002d6e:	e28c                	sd	a1,0(a3)
    80002d70:	8d7f858b          	.insn	4, 0x8d7f858b
    80002d74:	2ce8058b          	.insn	4, 0x2ce8058b
    80002d78:	1e853583          	ld	a1,488(a0)
    80002d7c:	1f053303          	ld	t1,496(a0)
    80002d80:	4cb2840b          	.insn	4, 0x4cb2840b
    80002d84:	ccf3047b          	.insn	4, 0xccf3047b
    80002d88:	6685                	lui	a3,0x1
    80002d8a:	4006869b          	addiw	a3,a3,1024 # 1400 <buflen.1+0x13c0>
    80002d8e:	968a                	add	a3,a3,sp
    80002d90:	e280                	sd	s0,0(a3)
    80002d92:	68f8878b          	.insn	4, 0x68f8878b
    80002d96:	897a078b          	.insn	4, 0x897a078b
    80002d9a:	80c487fb          	.insn	4, 0x80c487fb
    80002d9e:	6685                	lui	a3,0x1
    80002da0:	3f86869b          	addiw	a3,a3,1016 # 13f8 <buflen.1+0x13b8>
    80002da4:	968a                	add	a3,a3,sp
    80002da6:	e29c                	sd	a5,0(a3)
    80002da8:	857a878b          	.insn	4, 0x857a878b
    80002dac:	44b2878b          	.insn	4, 0x44b2878b
    80002db0:	1f853783          	ld	a5,504(a0)
    80002db4:	20053883          	ld	a7,512(a0)
    80002db8:	64f3040b          	.insn	4, 0x64f3040b
    80002dbc:	40c8847b          	.insn	4, 0x40c8847b
    80002dc0:	6685                	lui	a3,0x1
    80002dc2:	3f06869b          	addiw	a3,a3,1008 # 13f0 <buflen.1+0x13b0>
    80002dc6:	968a                	add	a3,a3,sp
    80002dc8:	e280                	sd	s0,0(a3)
    80002dca:	00c4860b          	.insn	4, 0x00c4860b
    80002dce:	04e8067b          	.insn	4, 0x04e8067b
    80002dd2:	6685                	lui	a3,0x1
    80002dd4:	3e06869b          	addiw	a3,a3,992 # 13e0 <buflen.1+0x13a0>
    80002dd8:	968a                	add	a3,a3,sp
    80002dda:	e290                	sd	a2,0(a3)
    80002ddc:	8d7c060b          	.insn	4, 0x8d7c060b
    80002de0:	6cf3060b          	.insn	4, 0x6cf3060b
    80002de4:	20853603          	ld	a2,520(a0)
    80002de8:	21053383          	ld	t2,528(a0)
    80002dec:	0cc8840b          	.insn	4, 0x0cc8840b
    80002df0:	c4e384fb          	.insn	4, 0xc4e384fb
    80002df4:	6685                	lui	a3,0x1
    80002df6:	3e86869b          	addiw	a3,a3,1000 # 13e8 <buflen.1+0x13a8>
    80002dfa:	968a                	add	a3,a3,sp
    80002dfc:	e284                	sd	s1,0(a3)
    80002dfe:	28e8070b          	.insn	4, 0x28e8070b
    80002e02:	8979870b          	.insn	4, 0x8979870b
    80002e06:	88b2877b          	.insn	4, 0x88b2877b
    80002e0a:	6685                	lui	a3,0x1
    80002e0c:	3d06869b          	addiw	a3,a3,976 # 13d0 <buflen.1+0x1390>
    80002e10:	968a                	add	a3,a3,sp
    80002e12:	e298                	sd	a4,0(a3)
    80002e14:	8570870b          	.insn	4, 0x8570870b
    80002e18:	04c8870b          	.insn	4, 0x04c8870b
    80002e1c:	21853703          	ld	a4,536(a0)
    80002e20:	22053e03          	ld	t3,544(a0)
    80002e24:	24e3848b          	.insn	4, 0x24e3848b
    80002e28:	48be04fb          	.insn	4, 0x48be04fb
    80002e2c:	6685                	lui	a3,0x1
    80002e2e:	3d86869b          	addiw	a3,a3,984 # 13d8 <buflen.1+0x1398>
    80002e32:	968a                	add	a3,a3,sp
    80002e34:	e284                	sd	s1,0(a3)
    80002e36:	40b2858b          	.insn	4, 0x40b2858b
    80002e3a:	0cf305fb          	.insn	4, 0x0cf305fb
    80002e3e:	6685                	lui	a3,0x1
    80002e40:	3c06869b          	addiw	a3,a3,960 # 13c0 <buflen.1+0x1380>
    80002e44:	968a                	add	a3,a3,sp
    80002e46:	e28c                	sd	a1,0(a3)
    80002e48:	8d7f858b          	.insn	4, 0x8d7f858b
    80002e4c:	2ce3858b          	.insn	4, 0x2ce3858b
    80002e50:	22853583          	ld	a1,552(a0)
    80002e54:	23053803          	ld	a6,560(a0)
    80002e58:	4cbe048b          	.insn	4, 0x4cbe048b
    80002e5c:	ccf804fb          	.insn	4, 0xccf804fb
    80002e60:	6685                	lui	a3,0x1
    80002e62:	3c86869b          	addiw	a3,a3,968 # 13c8 <buflen.1+0x1388>
    80002e66:	968a                	add	a3,a3,sp
    80002e68:	e284                	sd	s1,0(a3)
    80002e6a:	68f3078b          	.insn	4, 0x68f3078b
    80002e6e:	897a078b          	.insn	4, 0x897a078b
    80002e72:	80c887fb          	.insn	4, 0x80c887fb
    80002e76:	6685                	lui	a3,0x1
    80002e78:	3b06869b          	addiw	a3,a3,944 # 13b0 <buflen.1+0x1370>
    80002e7c:	968a                	add	a3,a3,sp
    80002e7e:	e29c                	sd	a5,0(a3)
    80002e80:	857a878b          	.insn	4, 0x857a878b
    80002e84:	44be078b          	.insn	4, 0x44be078b
    80002e88:	23853783          	ld	a5,568(a0)
    80002e8c:	24053483          	ld	s1,576(a0)
    80002e90:	64f8040b          	.insn	4, 0x64f8040b
    80002e94:	40c4847b          	.insn	4, 0x40c4847b
    80002e98:	6685                	lui	a3,0x1
    80002e9a:	3b86869b          	addiw	a3,a3,952 # 13b8 <buflen.1+0x1378>
    80002e9e:	968a                	add	a3,a3,sp
    80002ea0:	e280                	sd	s0,0(a3)
    80002ea2:	00c8860b          	.insn	4, 0x00c8860b
    80002ea6:	04e3867b          	.insn	4, 0x04e3867b
    80002eaa:	6685                	lui	a3,0x1
    80002eac:	3a86869b          	addiw	a3,a3,936 # 13a8 <buflen.1+0x1368>
    80002eb0:	968a                	add	a3,a3,sp
    80002eb2:	e290                	sd	a2,0(a3)
    80002eb4:	8d7c060b          	.insn	4, 0x8d7c060b
    80002eb8:	6cf8060b          	.insn	4, 0x6cf8060b
    80002ebc:	24853603          	ld	a2,584(a0)
    80002ec0:	25053883          	ld	a7,592(a0)
    80002ec4:	0cc4840b          	.insn	4, 0x0cc4840b
    80002ec8:	c4e8847b          	.insn	4, 0xc4e8847b
    80002ecc:	6685                	lui	a3,0x1
    80002ece:	3a06869b          	addiw	a3,a3,928 # 13a0 <buflen.1+0x1360>
    80002ed2:	968a                	add	a3,a3,sp
    80002ed4:	e280                	sd	s0,0(a3)
    80002ed6:	28e3870b          	.insn	4, 0x28e3870b
    80002eda:	8979870b          	.insn	4, 0x8979870b
    80002ede:	88be077b          	.insn	4, 0x88be077b
    80002ee2:	6685                	lui	a3,0x1
    80002ee4:	3986869b          	addiw	a3,a3,920 # 1398 <buflen.1+0x1358>
    80002ee8:	968a                	add	a3,a3,sp
    80002eea:	e298                	sd	a4,0(a3)
    80002eec:	8570870b          	.insn	4, 0x8570870b
    80002ef0:	04c4870b          	.insn	4, 0x04c4870b
    80002ef4:	25853703          	ld	a4,600(a0)
    80002ef8:	26053283          	ld	t0,608(a0)
    80002efc:	24e8840b          	.insn	4, 0x24e8840b
    80002f00:	48b2847b          	.insn	4, 0x48b2847b
    80002f04:	6685                	lui	a3,0x1
    80002f06:	3906869b          	addiw	a3,a3,912 # 1390 <buflen.1+0x1350>
    80002f0a:	968a                	add	a3,a3,sp
    80002f0c:	e280                	sd	s0,0(a3)
    80002f0e:	40be058b          	.insn	4, 0x40be058b
    80002f12:	0cf805fb          	.insn	4, 0x0cf805fb
    80002f16:	6685                	lui	a3,0x1
    80002f18:	3806869b          	addiw	a3,a3,896 # 1380 <buflen.1+0x1340>
    80002f1c:	968a                	add	a3,a3,sp
    80002f1e:	e28c                	sd	a1,0(a3)
    80002f20:	8d7f858b          	.insn	4, 0x8d7f858b
    80002f24:	2ce8858b          	.insn	4, 0x2ce8858b
    80002f28:	26853583          	ld	a1,616(a0)
    80002f2c:	27053303          	ld	t1,624(a0)
    80002f30:	4cb2840b          	.insn	4, 0x4cb2840b
    80002f34:	ccf3047b          	.insn	4, 0xccf3047b
    80002f38:	6685                	lui	a3,0x1
    80002f3a:	3886869b          	addiw	a3,a3,904 # 1388 <buflen.1+0x1348>
    80002f3e:	968a                	add	a3,a3,sp
    80002f40:	e280                	sd	s0,0(a3)
    80002f42:	68f8078b          	.insn	4, 0x68f8078b
    80002f46:	897a078b          	.insn	4, 0x897a078b
    80002f4a:	80c487fb          	.insn	4, 0x80c487fb
    80002f4e:	6685                	lui	a3,0x1
    80002f50:	3706869b          	addiw	a3,a3,880 # 1370 <buflen.1+0x1330>
    80002f54:	968a                	add	a3,a3,sp
    80002f56:	e29c                	sd	a5,0(a3)
    80002f58:	857a878b          	.insn	4, 0x857a878b
    80002f5c:	44b2878b          	.insn	4, 0x44b2878b
    80002f60:	27853783          	ld	a5,632(a0)
    80002f64:	28053803          	ld	a6,640(a0)
    80002f68:	64f3040b          	.insn	4, 0x64f3040b
    80002f6c:	40c8047b          	.insn	4, 0x40c8047b
    80002f70:	6685                	lui	a3,0x1
    80002f72:	3786869b          	addiw	a3,a3,888 # 1378 <buflen.1+0x1338>
    80002f76:	968a                	add	a3,a3,sp
    80002f78:	e280                	sd	s0,0(a3)
    80002f7a:	00c4860b          	.insn	4, 0x00c4860b
    80002f7e:	04e8867b          	.insn	4, 0x04e8867b
    80002f82:	6685                	lui	a3,0x1
    80002f84:	3606869b          	addiw	a3,a3,864 # 1360 <buflen.1+0x1320>
    80002f88:	968a                	add	a3,a3,sp
    80002f8a:	e290                	sd	a2,0(a3)
    80002f8c:	8d7c060b          	.insn	4, 0x8d7c060b
    80002f90:	6cf3060b          	.insn	4, 0x6cf3060b
    80002f94:	28853603          	ld	a2,648(a0)
    80002f98:	29053383          	ld	t2,656(a0)
    80002f9c:	0cc8040b          	.insn	4, 0x0cc8040b
    80002fa0:	c4e384fb          	.insn	4, 0xc4e384fb
    80002fa4:	6685                	lui	a3,0x1
    80002fa6:	3686869b          	addiw	a3,a3,872 # 1368 <buflen.1+0x1328>
    80002faa:	968a                	add	a3,a3,sp
    80002fac:	e284                	sd	s1,0(a3)
    80002fae:	28e8870b          	.insn	4, 0x28e8870b
    80002fb2:	8979870b          	.insn	4, 0x8979870b
    80002fb6:	88b2877b          	.insn	4, 0x88b2877b
    80002fba:	6685                	lui	a3,0x1
    80002fbc:	3586869b          	addiw	a3,a3,856 # 1358 <buflen.1+0x1318>
    80002fc0:	968a                	add	a3,a3,sp
    80002fc2:	e298                	sd	a4,0(a3)
    80002fc4:	8570870b          	.insn	4, 0x8570870b
    80002fc8:	04c8070b          	.insn	4, 0x04c8070b
    80002fcc:	29853703          	ld	a4,664(a0)
    80002fd0:	2a053e03          	ld	t3,672(a0)
    80002fd4:	24e3848b          	.insn	4, 0x24e3848b
    80002fd8:	48be04fb          	.insn	4, 0x48be04fb
    80002fdc:	6685                	lui	a3,0x1
    80002fde:	3506869b          	addiw	a3,a3,848 # 1350 <buflen.1+0x1310>
    80002fe2:	968a                	add	a3,a3,sp
    80002fe4:	e284                	sd	s1,0(a3)
    80002fe6:	40b2858b          	.insn	4, 0x40b2858b
    80002fea:	0cf305fb          	.insn	4, 0x0cf305fb
    80002fee:	6685                	lui	a3,0x1
    80002ff0:	3486869b          	addiw	a3,a3,840 # 1348 <buflen.1+0x1308>
    80002ff4:	968a                	add	a3,a3,sp
    80002ff6:	e28c                	sd	a1,0(a3)
    80002ff8:	8d7f858b          	.insn	4, 0x8d7f858b
    80002ffc:	2ce3858b          	.insn	4, 0x2ce3858b
    80003000:	2a853583          	ld	a1,680(a0)
    80003004:	2b053883          	ld	a7,688(a0)
    80003008:	4cbe048b          	.insn	4, 0x4cbe048b
    8000300c:	ccf884fb          	.insn	4, 0xccf884fb
    80003010:	6685                	lui	a3,0x1
    80003012:	3406869b          	addiw	a3,a3,832 # 1340 <buflen.1+0x1300>
    80003016:	968a                	add	a3,a3,sp
    80003018:	e284                	sd	s1,0(a3)
    8000301a:	68f3078b          	.insn	4, 0x68f3078b
    8000301e:	897a078b          	.insn	4, 0x897a078b
    80003022:	80c807fb          	.insn	4, 0x80c807fb
    80003026:	6685                	lui	a3,0x1
    80003028:	3386869b          	addiw	a3,a3,824 # 1338 <buflen.1+0x12f8>
    8000302c:	968a                	add	a3,a3,sp
    8000302e:	e29c                	sd	a5,0(a3)
    80003030:	857a878b          	.insn	4, 0x857a878b
    80003034:	44be078b          	.insn	4, 0x44be078b
    80003038:	2b853783          	ld	a5,696(a0)
    8000303c:	2c053483          	ld	s1,704(a0)
    80003040:	64f8840b          	.insn	4, 0x64f8840b
    80003044:	40c4847b          	.insn	4, 0x40c4847b
    80003048:	6685                	lui	a3,0x1
    8000304a:	3306869b          	addiw	a3,a3,816 # 1330 <buflen.1+0x12f0>
    8000304e:	968a                	add	a3,a3,sp
    80003050:	e280                	sd	s0,0(a3)
    80003052:	00c8060b          	.insn	4, 0x00c8060b
    80003056:	04e3867b          	.insn	4, 0x04e3867b
    8000305a:	6685                	lui	a3,0x1
    8000305c:	3206869b          	addiw	a3,a3,800 # 1320 <buflen.1+0x12e0>
    80003060:	968a                	add	a3,a3,sp
    80003062:	e290                	sd	a2,0(a3)
    80003064:	8d7c060b          	.insn	4, 0x8d7c060b
    80003068:	6cf8860b          	.insn	4, 0x6cf8860b
    8000306c:	2c853603          	ld	a2,712(a0)
    80003070:	2d053803          	ld	a6,720(a0)
    80003074:	0cc4840b          	.insn	4, 0x0cc4840b
    80003078:	c4e8047b          	.insn	4, 0xc4e8047b
    8000307c:	6685                	lui	a3,0x1
    8000307e:	3286869b          	addiw	a3,a3,808 # 1328 <buflen.1+0x12e8>
    80003082:	968a                	add	a3,a3,sp
    80003084:	e280                	sd	s0,0(a3)
    80003086:	28e3870b          	.insn	4, 0x28e3870b
    8000308a:	8979870b          	.insn	4, 0x8979870b
    8000308e:	88be077b          	.insn	4, 0x88be077b
    80003092:	6685                	lui	a3,0x1
    80003094:	3106869b          	addiw	a3,a3,784 # 1310 <buflen.1+0x12d0>
    80003098:	968a                	add	a3,a3,sp
    8000309a:	e298                	sd	a4,0(a3)
    8000309c:	8570870b          	.insn	4, 0x8570870b
    800030a0:	04c4870b          	.insn	4, 0x04c4870b
    800030a4:	2d853703          	ld	a4,728(a0)
    800030a8:	2e053283          	ld	t0,736(a0)
    800030ac:	24e8040b          	.insn	4, 0x24e8040b
    800030b0:	48b2847b          	.insn	4, 0x48b2847b
    800030b4:	6685                	lui	a3,0x1
    800030b6:	3186869b          	addiw	a3,a3,792 # 1318 <buflen.1+0x12d8>
    800030ba:	968a                	add	a3,a3,sp
    800030bc:	e280                	sd	s0,0(a3)
    800030be:	40be058b          	.insn	4, 0x40be058b
    800030c2:	0cf885fb          	.insn	4, 0x0cf885fb
    800030c6:	6685                	lui	a3,0x1
    800030c8:	3006869b          	addiw	a3,a3,768 # 1300 <buflen.1+0x12c0>
    800030cc:	968a                	add	a3,a3,sp
    800030ce:	e28c                	sd	a1,0(a3)
    800030d0:	8d7f858b          	.insn	4, 0x8d7f858b
    800030d4:	2ce8058b          	.insn	4, 0x2ce8058b
    800030d8:	2e853583          	ld	a1,744(a0)
    800030dc:	2f053303          	ld	t1,752(a0)
    800030e0:	4cb2840b          	.insn	4, 0x4cb2840b
    800030e4:	ccf3047b          	.insn	4, 0xccf3047b
    800030e8:	6685                	lui	a3,0x1
    800030ea:	3086869b          	addiw	a3,a3,776 # 1308 <buflen.1+0x12c8>
    800030ee:	968a                	add	a3,a3,sp
    800030f0:	e280                	sd	s0,0(a3)
    800030f2:	68f8878b          	.insn	4, 0x68f8878b
    800030f6:	897a078b          	.insn	4, 0x897a078b
    800030fa:	80c487fb          	.insn	4, 0x80c487fb
    800030fe:	6685                	lui	a3,0x1
    80003100:	2f86869b          	addiw	a3,a3,760 # 12f8 <buflen.1+0x12b8>
    80003104:	968a                	add	a3,a3,sp
    80003106:	e29c                	sd	a5,0(a3)
    80003108:	857a878b          	.insn	4, 0x857a878b
    8000310c:	44b2878b          	.insn	4, 0x44b2878b
    80003110:	2f853783          	ld	a5,760(a0)
    80003114:	30053883          	ld	a7,768(a0)
    80003118:	64f3040b          	.insn	4, 0x64f3040b
    8000311c:	40c8847b          	.insn	4, 0x40c8847b
    80003120:	6685                	lui	a3,0x1
    80003122:	2f06869b          	addiw	a3,a3,752 # 12f0 <buflen.1+0x12b0>
    80003126:	968a                	add	a3,a3,sp
    80003128:	e280                	sd	s0,0(a3)
    8000312a:	00c4860b          	.insn	4, 0x00c4860b
    8000312e:	04e8067b          	.insn	4, 0x04e8067b
    80003132:	6685                	lui	a3,0x1
    80003134:	2e86869b          	addiw	a3,a3,744 # 12e8 <buflen.1+0x12a8>
    80003138:	968a                	add	a3,a3,sp
    8000313a:	e290                	sd	a2,0(a3)
    8000313c:	8d7c060b          	.insn	4, 0x8d7c060b
    80003140:	6cf3060b          	.insn	4, 0x6cf3060b
    80003144:	30853603          	ld	a2,776(a0)
    80003148:	31053383          	ld	t2,784(a0)
    8000314c:	0cc8840b          	.insn	4, 0x0cc8840b
    80003150:	c4e384fb          	.insn	4, 0xc4e384fb
    80003154:	6685                	lui	a3,0x1
    80003156:	2e06869b          	addiw	a3,a3,736 # 12e0 <buflen.1+0x12a0>
    8000315a:	968a                	add	a3,a3,sp
    8000315c:	e284                	sd	s1,0(a3)
    8000315e:	28e8070b          	.insn	4, 0x28e8070b
    80003162:	8979870b          	.insn	4, 0x8979870b
    80003166:	88b2877b          	.insn	4, 0x88b2877b
    8000316a:	6685                	lui	a3,0x1
    8000316c:	2d06869b          	addiw	a3,a3,720 # 12d0 <buflen.1+0x1290>
    80003170:	968a                	add	a3,a3,sp
    80003172:	e298                	sd	a4,0(a3)
    80003174:	8570870b          	.insn	4, 0x8570870b
    80003178:	04c8870b          	.insn	4, 0x04c8870b
    8000317c:	31853703          	ld	a4,792(a0)
    80003180:	32053e03          	ld	t3,800(a0)
    80003184:	24e3848b          	.insn	4, 0x24e3848b
    80003188:	48be04fb          	.insn	4, 0x48be04fb
    8000318c:	6685                	lui	a3,0x1
    8000318e:	2d86869b          	addiw	a3,a3,728 # 12d8 <buflen.1+0x1298>
    80003192:	968a                	add	a3,a3,sp
    80003194:	e284                	sd	s1,0(a3)
    80003196:	40b2858b          	.insn	4, 0x40b2858b
    8000319a:	0cf305fb          	.insn	4, 0x0cf305fb
    8000319e:	6685                	lui	a3,0x1
    800031a0:	2c06869b          	addiw	a3,a3,704 # 12c0 <buflen.1+0x1280>
    800031a4:	968a                	add	a3,a3,sp
    800031a6:	e28c                	sd	a1,0(a3)
    800031a8:	8d7f858b          	.insn	4, 0x8d7f858b
    800031ac:	2ce3858b          	.insn	4, 0x2ce3858b
    800031b0:	32853583          	ld	a1,808(a0)
    800031b4:	33053803          	ld	a6,816(a0)
    800031b8:	4cbe048b          	.insn	4, 0x4cbe048b
    800031bc:	ccf804fb          	.insn	4, 0xccf804fb
    800031c0:	6685                	lui	a3,0x1
    800031c2:	2c86869b          	addiw	a3,a3,712 # 12c8 <buflen.1+0x1288>
    800031c6:	968a                	add	a3,a3,sp
    800031c8:	e284                	sd	s1,0(a3)
    800031ca:	68f3078b          	.insn	4, 0x68f3078b
    800031ce:	897a078b          	.insn	4, 0x897a078b
    800031d2:	80c887fb          	.insn	4, 0x80c887fb
    800031d6:	6685                	lui	a3,0x1
    800031d8:	2b06869b          	addiw	a3,a3,688 # 12b0 <buflen.1+0x1270>
    800031dc:	968a                	add	a3,a3,sp
    800031de:	e29c                	sd	a5,0(a3)
    800031e0:	857a878b          	.insn	4, 0x857a878b
    800031e4:	44be078b          	.insn	4, 0x44be078b
    800031e8:	33853783          	ld	a5,824(a0)
    800031ec:	34053483          	ld	s1,832(a0)
    800031f0:	64f8040b          	.insn	4, 0x64f8040b
    800031f4:	40c4847b          	.insn	4, 0x40c4847b
    800031f8:	6685                	lui	a3,0x1
    800031fa:	2b86869b          	addiw	a3,a3,696 # 12b8 <buflen.1+0x1278>
    800031fe:	968a                	add	a3,a3,sp
    80003200:	e280                	sd	s0,0(a3)
    80003202:	00c8860b          	.insn	4, 0x00c8860b
    80003206:	04e3867b          	.insn	4, 0x04e3867b
    8000320a:	6685                	lui	a3,0x1
    8000320c:	2a06869b          	addiw	a3,a3,672 # 12a0 <buflen.1+0x1260>
    80003210:	968a                	add	a3,a3,sp
    80003212:	e290                	sd	a2,0(a3)
    80003214:	8d7c060b          	.insn	4, 0x8d7c060b
    80003218:	6cf8060b          	.insn	4, 0x6cf8060b
    8000321c:	34853603          	ld	a2,840(a0)
    80003220:	35053883          	ld	a7,848(a0)
    80003224:	0cc4840b          	.insn	4, 0x0cc4840b
    80003228:	c4e8847b          	.insn	4, 0xc4e8847b
    8000322c:	6685                	lui	a3,0x1
    8000322e:	2a86869b          	addiw	a3,a3,680 # 12a8 <buflen.1+0x1268>
    80003232:	968a                	add	a3,a3,sp
    80003234:	e280                	sd	s0,0(a3)
    80003236:	28e3870b          	.insn	4, 0x28e3870b
    8000323a:	8979870b          	.insn	4, 0x8979870b
    8000323e:	88be077b          	.insn	4, 0x88be077b
    80003242:	6685                	lui	a3,0x1
    80003244:	2986869b          	addiw	a3,a3,664 # 1298 <buflen.1+0x1258>
    80003248:	968a                	add	a3,a3,sp
    8000324a:	e298                	sd	a4,0(a3)
    8000324c:	8570870b          	.insn	4, 0x8570870b
    80003250:	04c4870b          	.insn	4, 0x04c4870b
    80003254:	35853703          	ld	a4,856(a0)
    80003258:	36053283          	ld	t0,864(a0)
    8000325c:	24e8840b          	.insn	4, 0x24e8840b
    80003260:	48b2847b          	.insn	4, 0x48b2847b
    80003264:	6685                	lui	a3,0x1
    80003266:	2906869b          	addiw	a3,a3,656 # 1290 <buflen.1+0x1250>
    8000326a:	968a                	add	a3,a3,sp
    8000326c:	e280                	sd	s0,0(a3)
    8000326e:	40be058b          	.insn	4, 0x40be058b
    80003272:	0cf805fb          	.insn	4, 0x0cf805fb
    80003276:	6685                	lui	a3,0x1
    80003278:	2886869b          	addiw	a3,a3,648 # 1288 <buflen.1+0x1248>
    8000327c:	968a                	add	a3,a3,sp
    8000327e:	e28c                	sd	a1,0(a3)
    80003280:	8d7f858b          	.insn	4, 0x8d7f858b
    80003284:	2ce8858b          	.insn	4, 0x2ce8858b
    80003288:	36853583          	ld	a1,872(a0)
    8000328c:	37053303          	ld	t1,880(a0)
    80003290:	4cb2840b          	.insn	4, 0x4cb2840b
    80003294:	ccf3047b          	.insn	4, 0xccf3047b
    80003298:	6685                	lui	a3,0x1
    8000329a:	2806869b          	addiw	a3,a3,640 # 1280 <buflen.1+0x1240>
    8000329e:	968a                	add	a3,a3,sp
    800032a0:	e280                	sd	s0,0(a3)
    800032a2:	68f8078b          	.insn	4, 0x68f8078b
    800032a6:	897a078b          	.insn	4, 0x897a078b
    800032aa:	80c487fb          	.insn	4, 0x80c487fb
    800032ae:	6685                	lui	a3,0x1
    800032b0:	2706869b          	addiw	a3,a3,624 # 1270 <buflen.1+0x1230>
    800032b4:	968a                	add	a3,a3,sp
    800032b6:	e29c                	sd	a5,0(a3)
    800032b8:	857a878b          	.insn	4, 0x857a878b
    800032bc:	44b2878b          	.insn	4, 0x44b2878b
    800032c0:	37853783          	ld	a5,888(a0)
    800032c4:	38053803          	ld	a6,896(a0)
    800032c8:	64f3040b          	.insn	4, 0x64f3040b
    800032cc:	40c8047b          	.insn	4, 0x40c8047b
    800032d0:	6685                	lui	a3,0x1
    800032d2:	2786869b          	addiw	a3,a3,632 # 1278 <buflen.1+0x1238>
    800032d6:	968a                	add	a3,a3,sp
    800032d8:	e280                	sd	s0,0(a3)
    800032da:	00c4860b          	.insn	4, 0x00c4860b
    800032de:	04e8867b          	.insn	4, 0x04e8867b
    800032e2:	6685                	lui	a3,0x1
    800032e4:	2606869b          	addiw	a3,a3,608 # 1260 <buflen.1+0x1220>
    800032e8:	968a                	add	a3,a3,sp
    800032ea:	e290                	sd	a2,0(a3)
    800032ec:	8d7c060b          	.insn	4, 0x8d7c060b
    800032f0:	6cf3060b          	.insn	4, 0x6cf3060b
    800032f4:	38853603          	ld	a2,904(a0)
    800032f8:	39053383          	ld	t2,912(a0)
    800032fc:	0cc8040b          	.insn	4, 0x0cc8040b
    80003300:	c4e384fb          	.insn	4, 0xc4e384fb
    80003304:	6685                	lui	a3,0x1
    80003306:	2686869b          	addiw	a3,a3,616 # 1268 <buflen.1+0x1228>
    8000330a:	968a                	add	a3,a3,sp
    8000330c:	e284                	sd	s1,0(a3)
    8000330e:	28e8870b          	.insn	4, 0x28e8870b
    80003312:	8979870b          	.insn	4, 0x8979870b
    80003316:	88b2877b          	.insn	4, 0x88b2877b
    8000331a:	6685                	lui	a3,0x1
    8000331c:	2506869b          	addiw	a3,a3,592 # 1250 <buflen.1+0x1210>
    80003320:	968a                	add	a3,a3,sp
    80003322:	e298                	sd	a4,0(a3)
    80003324:	8570870b          	.insn	4, 0x8570870b
    80003328:	04c8070b          	.insn	4, 0x04c8070b
    8000332c:	39853703          	ld	a4,920(a0)
    80003330:	3a053883          	ld	a7,928(a0)
    80003334:	24e3848b          	.insn	4, 0x24e3848b
    80003338:	48b884fb          	.insn	4, 0x48b884fb
    8000333c:	6685                	lui	a3,0x1
    8000333e:	2586869b          	addiw	a3,a3,600 # 1258 <buflen.1+0x1218>
    80003342:	968a                	add	a3,a3,sp
    80003344:	e284                	sd	s1,0(a3)
    80003346:	40b2858b          	.insn	4, 0x40b2858b
    8000334a:	0cf305fb          	.insn	4, 0x0cf305fb
    8000334e:	6685                	lui	a3,0x1
    80003350:	2406869b          	addiw	a3,a3,576 # 1240 <buflen.1+0x1200>
    80003354:	968a                	add	a3,a3,sp
    80003356:	e28c                	sd	a1,0(a3)
    80003358:	8d7f858b          	.insn	4, 0x8d7f858b
    8000335c:	2ce3858b          	.insn	4, 0x2ce3858b
    80003360:	3a853583          	ld	a1,936(a0)
    80003364:	3b053283          	ld	t0,944(a0)
    80003368:	4cb8840b          	.insn	4, 0x4cb8840b
    8000336c:	ccf284fb          	.insn	4, 0xccf284fb
    80003370:	6685                	lui	a3,0x1
    80003372:	2486869b          	addiw	a3,a3,584 # 1248 <buflen.1+0x1208>
    80003376:	968a                	add	a3,a3,sp
    80003378:	e284                	sd	s1,0(a3)
    8000337a:	68f3078b          	.insn	4, 0x68f3078b
    8000337e:	897a078b          	.insn	4, 0x897a078b
    80003382:	80c807fb          	.insn	4, 0x80c807fb
    80003386:	6685                	lui	a3,0x1
    80003388:	2386869b          	addiw	a3,a3,568 # 1238 <buflen.1+0x11f8>
    8000338c:	968a                	add	a3,a3,sp
    8000338e:	e29c                	sd	a5,0(a3)
    80003390:	857a878b          	.insn	4, 0x857a878b
    80003394:	44b8878b          	.insn	4, 0x44b8878b
    80003398:	3b853783          	ld	a5,952(a0)
    8000339c:	3c053303          	ld	t1,960(a0)
    800033a0:	64f2848b          	.insn	4, 0x64f2848b
    800033a4:	40c304fb          	.insn	4, 0x40c304fb
    800033a8:	6685                	lui	a3,0x1
    800033aa:	2306869b          	addiw	a3,a3,560 # 1230 <buflen.1+0x11f0>
    800033ae:	968a                	add	a3,a3,sp
    800033b0:	e284                	sd	s1,0(a3)
    800033b2:	00c8060b          	.insn	4, 0x00c8060b
    800033b6:	04e3867b          	.insn	4, 0x04e3867b
    800033ba:	6685                	lui	a3,0x1
    800033bc:	2286869b          	addiw	a3,a3,552 # 1228 <buflen.1+0x11e8>
    800033c0:	968a                	add	a3,a3,sp
    800033c2:	e290                	sd	a2,0(a3)
    800033c4:	8d7c060b          	.insn	4, 0x8d7c060b
    800033c8:	6cf2860b          	.insn	4, 0x6cf2860b
    800033cc:	3c853803          	ld	a6,968(a0)
    800033d0:	3d053483          	ld	s1,976(a0)
    800033d4:	0d03060b          	.insn	4, 0x0d03060b
    800033d8:	c4e4867b          	.insn	4, 0xc4e4867b
    800033dc:	6685                	lui	a3,0x1
    800033de:	2206869b          	addiw	a3,a3,544 # 1220 <buflen.1+0x11e0>
    800033e2:	968a                	add	a3,a3,sp
    800033e4:	e290                	sd	a2,0(a3)
    800033e6:	28e3860b          	.insn	4, 0x28e3860b
    800033ea:	8979860b          	.insn	4, 0x8979860b
    800033ee:	88b8867b          	.insn	4, 0x88b8867b
    800033f2:	6685                	lui	a3,0x1
    800033f4:	2106869b          	addiw	a3,a3,528 # 1210 <buflen.1+0x11d0>
    800033f8:	968a                	add	a3,a3,sp
    800033fa:	e290                	sd	a2,0(a3)
    800033fc:	8570860b          	.insn	4, 0x8570860b
    80003400:	0503060b          	.insn	4, 0x0503060b
    80003404:	3d853603          	ld	a2,984(a0)
    80003408:	3e053703          	ld	a4,992(a0)
    8000340c:	24c4840b          	.insn	4, 0x24c4840b
    80003410:	48b7047b          	.insn	4, 0x48b7047b
    80003414:	6685                	lui	a3,0x1
    80003416:	2186869b          	addiw	a3,a3,536 # 1218 <buflen.1+0x11d8>
    8000341a:	968a                	add	a3,a3,sp
    8000341c:	e280                	sd	s0,0(a3)
    8000341e:	40b8858b          	.insn	4, 0x40b8858b
    80003422:	0cf285fb          	.insn	4, 0x0cf285fb
    80003426:	6685                	lui	a3,0x1
    80003428:	2006869b          	addiw	a3,a3,512 # 1200 <buflen.1+0x11c0>
    8000342c:	968a                	add	a3,a3,sp
    8000342e:	e28c                	sd	a1,0(a3)
    80003430:	8d7f858b          	.insn	4, 0x8d7f858b
    80003434:	2cc4858b          	.insn	4, 0x2cc4858b
    80003438:	3e853583          	ld	a1,1000(a0)
    8000343c:	3f053883          	ld	a7,1008(a0)
    80003440:	4cb7040b          	.insn	4, 0x4cb7040b
    80003444:	ccf8847b          	.insn	4, 0xccf8847b
    80003448:	6685                	lui	a3,0x1
    8000344a:	2086869b          	addiw	a3,a3,520 # 1208 <buflen.1+0x11c8>
    8000344e:	968a                	add	a3,a3,sp
    80003450:	e280                	sd	s0,0(a3)
    80003452:	68f2878b          	.insn	4, 0x68f2878b
    80003456:	897a078b          	.insn	4, 0x897a078b
    8000345a:	810307fb          	.insn	4, 0x810307fb
    8000345e:	6685                	lui	a3,0x1
    80003460:	1d86869b          	addiw	a3,a3,472 # 11d8 <buflen.1+0x1198>
    80003464:	968a                	add	a3,a3,sp
    80003466:	e29c                	sd	a5,0(a3)
    80003468:	0103078b          	.insn	4, 0x0103078b
    8000346c:	04c487fb          	.insn	4, 0x04c487fb
    80003470:	6685                	lui	a3,0x1
    80003472:	1f86869b          	addiw	a3,a3,504 # 11f8 <buflen.1+0x11b8>
    80003476:	968a                	add	a3,a3,sp
    80003478:	e29c                	sd	a5,0(a3)
    8000347a:	28c4860b          	.insn	4, 0x28c4860b
    8000347e:	8979860b          	.insn	4, 0x8979860b
    80003482:	88b7067b          	.insn	4, 0x88b7067b
    80003486:	6685                	lui	a3,0x1
    80003488:	1f06869b          	addiw	a3,a3,496 # 11f0 <buflen.1+0x11b0>
    8000348c:	968a                	add	a3,a3,sp
    8000348e:	e290                	sd	a2,0(a3)
    80003490:	3f853503          	ld	a0,1016(a0)
    80003494:	40b7058b          	.insn	4, 0x40b7058b
    80003498:	0ca8857b          	.insn	4, 0x0ca8857b
    8000349c:	6585                	lui	a1,0x1
    8000349e:	1e85859b          	addiw	a1,a1,488 # 11e8 <buflen.1+0x11a8>
    800034a2:	958a                	add	a1,a1,sp
    800034a4:	e188                	sd	a0,0(a1)
    800034a6:	6505                	lui	a0,0x1
    800034a8:	5e05051b          	addiw	a0,a0,1504 # 15e0 <buflen.1+0x15a0>
    800034ac:	950a                	add	a0,a0,sp
    800034ae:	6108                	ld	a0,0(a0)
    800034b0:	00156513          	ori	a0,a0,1
    800034b4:	6585                	lui	a1,0x1
    800034b6:	1e05859b          	addiw	a1,a1,480 # 11e0 <buflen.1+0x11a0>
    800034ba:	958a                	add	a1,a1,sp
    800034bc:	e188                	sd	a0,0(a1)
    800034be:	052a                	slli	a0,a0,0xa
    800034c0:	6585                	lui	a1,0x1
    800034c2:	5d85859b          	addiw	a1,a1,1496 # 15d8 <buflen.1+0x1598>
    800034c6:	958a                	add	a1,a1,sp
    800034c8:	618c                	ld	a1,0(a1)
    800034ca:	952e                	add	a0,a0,a1
    800034cc:	897a858b          	.insn	4, 0x897a858b
    800034d0:	01053803          	ld	a6,16(a0)
    800034d4:	01853883          	ld	a7,24(a0)
    800034d8:	02053283          	ld	t0,32(a0)
    800034dc:	751c                	ld	a5,40(a0)
    800034de:	2918048b          	.insn	4, 0x2918048b
    800034e2:	48f2848b          	.insn	4, 0x48f2848b
    800034e6:	6504                	ld	s1,8(a0)
    800034e8:	03053303          	ld	t1,48(a0)
    800034ec:	7d0c                	ld	a1,56(a0)
    800034ee:	04053383          	ld	t2,64(a0)
    800034f2:	68b3070b          	.insn	4, 0x68b3070b
    800034f6:	8093867b          	.insn	4, 0x8093867b
    800034fa:	6685                	lui	a3,0x1
    800034fc:	1d06869b          	addiw	a3,a3,464 # 11d0 <buflen.1+0x1190>
    80003500:	968a                	add	a3,a3,sp
    80003502:	e290                	sd	a2,0(a3)
    80003504:	6118                	ld	a4,0(a0)
    80003506:	0497070b          	.insn	4, 0x0497070b
    8000350a:	2518070b          	.insn	4, 0x2518070b
    8000350e:	44f2870b          	.insn	4, 0x44f2870b
    80003512:	4cb3067b          	.insn	4, 0x4cb3067b
    80003516:	6685                	lui	a3,0x1
    80003518:	1c86869b          	addiw	a3,a3,456 # 11c8 <buflen.1+0x1188>
    8000351c:	968a                	add	a3,a3,sp
    8000351e:	e290                	sd	a2,0(a3)
    80003520:	817c070b          	.insn	4, 0x817c070b
    80003524:	40f2870b          	.insn	4, 0x40f2870b
    80003528:	60b3070b          	.insn	4, 0x60b3070b
    8000352c:	6538                	ld	a4,72(a0)
    8000352e:	05053e03          	ld	t3,80(a0)
    80003532:	00e3840b          	.insn	4, 0x00e3840b
    80003536:	051e067b          	.insn	4, 0x051e067b
    8000353a:	6685                	lui	a3,0x1
    8000353c:	1c06869b          	addiw	a3,a3,448 # 11c0 <buflen.1+0x1180>
    80003540:	968a                	add	a3,a3,sp
    80003542:	e290                	sd	a2,0(a3)
    80003544:	8970840b          	.insn	4, 0x8970840b
    80003548:	08e3840b          	.insn	4, 0x08e3840b
    8000354c:	6d20                	ld	s0,88(a0)
    8000354e:	06053f03          	ld	t5,96(a0)
    80003552:	288e048b          	.insn	4, 0x288e048b
    80003556:	88ff067b          	.insn	4, 0x88ff067b
    8000355a:	6685                	lui	a3,0x1
    8000355c:	1b86869b          	addiw	a3,a3,440 # 11b8 <buflen.1+0x1178>
    80003560:	968a                	add	a3,a3,sp
    80003562:	e290                	sd	a2,0(a3)
    80003564:	817f848b          	.insn	4, 0x817f848b
    80003568:	208e048b          	.insn	4, 0x208e048b
    8000356c:	7524                	ld	s1,104(a0)
    8000356e:	07053e83          	ld	t4,112(a0)
    80003572:	409f060b          	.insn	4, 0x409f060b
    80003576:	0cbe867b          	.insn	4, 0x0cbe867b
    8000357a:	6685                	lui	a3,0x1
    8000357c:	1b06869b          	addiw	a3,a3,432 # 11b0 <buflen.1+0x1170>
    80003580:	968a                	add	a3,a3,sp
    80003582:	e290                	sd	a2,0(a3)
    80003584:	2d18060b          	.insn	4, 0x2d18060b
    80003588:	4cf2860b          	.insn	4, 0x4cf2860b
    8000358c:	6cb3058b          	.insn	4, 0x6cb3058b
    80003590:	8d7a058b          	.insn	4, 0x8d7a058b
    80003594:	c0e385fb          	.insn	4, 0xc0e385fb
    80003598:	6605                	lui	a2,0x1
    8000359a:	1a06061b          	addiw	a2,a2,416 # 11a0 <buflen.1+0x1160>
    8000359e:	960a                	add	a2,a2,sp
    800035a0:	e20c                	sd	a1,0(a2)
    800035a2:	897a858b          	.insn	4, 0x897a858b
    800035a6:	489f058b          	.insn	4, 0x489f058b
    800035aa:	7d2c                	ld	a1,120(a0)
    800035ac:	08053883          	ld	a7,128(a0)
    800035b0:	68be878b          	.insn	4, 0x68be878b
    800035b4:	80e8867b          	.insn	4, 0x80e8867b
    800035b8:	6685                	lui	a3,0x1
    800035ba:	1a86869b          	addiw	a3,a3,424 # 11a8 <buflen.1+0x1168>
    800035be:	968a                	add	a3,a3,sp
    800035c0:	e290                	sd	a2,0(a3)
    800035c2:	04e3870b          	.insn	4, 0x04e3870b
    800035c6:	8579070b          	.insn	4, 0x8579070b
    800035ca:	448e067b          	.insn	4, 0x448e067b
    800035ce:	6685                	lui	a3,0x1
    800035d0:	1906869b          	addiw	a3,a3,400 # 1190 <buflen.1+0x1150>
    800035d4:	968a                	add	a3,a3,sp
    800035d6:	e290                	sd	a2,0(a3)
    800035d8:	817c070b          	.insn	4, 0x817c070b
    800035dc:	60be870b          	.insn	4, 0x60be870b
    800035e0:	6558                	ld	a4,136(a0)
    800035e2:	09053803          	ld	a6,144(a0)
    800035e6:	00e8878b          	.insn	4, 0x00e8878b
    800035ea:	0488067b          	.insn	4, 0x0488067b
    800035ee:	6685                	lui	a3,0x1
    800035f0:	1986869b          	addiw	a3,a3,408 # 1198 <buflen.1+0x1158>
    800035f4:	968a                	add	a3,a3,sp
    800035f6:	e290                	sd	a2,0(a3)
    800035f8:	2c8e078b          	.insn	4, 0x2c8e078b
    800035fc:	8d79878b          	.insn	4, 0x8d79878b
    80003600:	c89f067b          	.insn	4, 0xc89f067b
    80003604:	6685                	lui	a3,0x1
    80003606:	1886869b          	addiw	a3,a3,392 # 1188 <buflen.1+0x1148>
    8000360a:	968a                	add	a3,a3,sp
    8000360c:	e290                	sd	a2,0(a3)
    8000360e:	8970878b          	.insn	4, 0x8970878b
    80003612:	08e8878b          	.insn	4, 0x08e8878b
    80003616:	6d5c                	ld	a5,152(a0)
    80003618:	0a053303          	ld	t1,160(a0)
    8000361c:	28f8060b          	.insn	4, 0x28f8060b
    80003620:	8893067b          	.insn	4, 0x8893067b
    80003624:	6685                	lui	a3,0x1
    80003626:	1806869b          	addiw	a3,a3,384 # 1180 <buflen.1+0x1140>
    8000362a:	968a                	add	a3,a3,sp
    8000362c:	e290                	sd	a2,0(a3)
    8000362e:	449f060b          	.insn	4, 0x449f060b
    80003632:	4cbe867b          	.insn	4, 0x4cbe867b
    80003636:	6685                	lui	a3,0x1
    80003638:	1786869b          	addiw	a3,a3,376 # 1178 <buflen.1+0x1138>
    8000363c:	968a                	add	a3,a3,sp
    8000363e:	e290                	sd	a2,0(a3)
    80003640:	817f860b          	.insn	4, 0x817f860b
    80003644:	20f8060b          	.insn	4, 0x20f8060b
    80003648:	7550                	ld	a2,168(a0)
    8000364a:	0b053283          	ld	t0,176(a0)
    8000364e:	40c3048b          	.insn	4, 0x40c3048b
    80003652:	0cb284fb          	.insn	4, 0x0cb284fb
    80003656:	6685                	lui	a3,0x1
    80003658:	1706869b          	addiw	a3,a3,368 # 1170 <buflen.1+0x1130>
    8000365c:	968a                	add	a3,a3,sp
    8000365e:	e284                	sd	s1,0(a3)
    80003660:	6cbe858b          	.insn	4, 0x6cbe858b
    80003664:	4389                	li	t2,2
    80003666:	8d73858b          	.insn	4, 0x8d73858b
    8000366a:	c0e885fb          	.insn	4, 0xc0e885fb
    8000366e:	6685                	lui	a3,0x1
    80003670:	1606869b          	addiw	a3,a3,352 # 1160 <buflen.1+0x1120>
    80003674:	968a                	add	a3,a3,sp
    80003676:	e28c                	sd	a1,0(a3)
    80003678:	4e05                	li	t3,1
    8000367a:	897e058b          	.insn	4, 0x897e058b
    8000367e:	48c3058b          	.insn	4, 0x48c3058b
    80003682:	7d4c                	ld	a1,184(a0)
    80003684:	6164                	ld	s1,192(a0)
    80003686:	68b2840b          	.insn	4, 0x68b2840b
    8000368a:	80e4847b          	.insn	4, 0x80e4847b
    8000368e:	6685                	lui	a3,0x1
    80003690:	1686869b          	addiw	a3,a3,360 # 1168 <buflen.1+0x1128>
    80003694:	968a                	add	a3,a3,sp
    80003696:	e280                	sd	s0,0(a3)
    80003698:	04e8870b          	.insn	4, 0x04e8870b
    8000369c:	44f8077b          	.insn	4, 0x44f8077b
    800036a0:	6685                	lui	a3,0x1
    800036a2:	1506869b          	addiw	a3,a3,336 # 1150 <buflen.1+0x1110>
    800036a6:	968a                	add	a3,a3,sp
    800036a8:	e298                	sd	a4,0(a3)
    800036aa:	817c070b          	.insn	4, 0x817c070b
    800036ae:	60b2870b          	.insn	4, 0x60b2870b
    800036b2:	6578                	ld	a4,200(a0)
    800036b4:	0d053883          	ld	a7,208(a0)
    800036b8:	00e4840b          	.insn	4, 0x00e4840b
    800036bc:	04f8847b          	.insn	4, 0x04f8847b
    800036c0:	6685                	lui	a3,0x1
    800036c2:	1586869b          	addiw	a3,a3,344 # 1158 <buflen.1+0x1118>
    800036c6:	968a                	add	a3,a3,sp
    800036c8:	e280                	sd	s0,0(a3)
    800036ca:	2cf8078b          	.insn	4, 0x2cf8078b
    800036ce:	8d79878b          	.insn	4, 0x8d79878b
    800036d2:	c8c307fb          	.insn	4, 0xc8c307fb
    800036d6:	6685                	lui	a3,0x1
    800036d8:	1406869b          	addiw	a3,a3,320 # 1140 <buflen.1+0x1100>
    800036dc:	968a                	add	a3,a3,sp
    800036de:	e29c                	sd	a5,0(a3)
    800036e0:	8970878b          	.insn	4, 0x8970878b
    800036e4:	08e4878b          	.insn	4, 0x08e4878b
    800036e8:	6d7c                	ld	a5,216(a0)
    800036ea:	0e053803          	ld	a6,224(a0)
    800036ee:	28f8840b          	.insn	4, 0x28f8840b
    800036f2:	88c8047b          	.insn	4, 0x88c8047b
    800036f6:	6685                	lui	a3,0x1
    800036f8:	1486869b          	addiw	a3,a3,328 # 1148 <buflen.1+0x1108>
    800036fc:	968a                	add	a3,a3,sp
    800036fe:	e280                	sd	s0,0(a3)
    80003700:	44c3060b          	.insn	4, 0x44c3060b
    80003704:	4cb2867b          	.insn	4, 0x4cb2867b
    80003708:	6685                	lui	a3,0x1
    8000370a:	1386869b          	addiw	a3,a3,312 # 1138 <buflen.1+0x10f8>
    8000370e:	968a                	add	a3,a3,sp
    80003710:	e290                	sd	a2,0(a3)
    80003712:	817f860b          	.insn	4, 0x817f860b
    80003716:	20f8860b          	.insn	4, 0x20f8860b
    8000371a:	7570                	ld	a2,232(a0)
    8000371c:	0f053303          	ld	t1,240(a0)
    80003720:	40c8040b          	.insn	4, 0x40c8040b
    80003724:	0cb3047b          	.insn	4, 0x0cb3047b
    80003728:	6685                	lui	a3,0x1
    8000372a:	1306869b          	addiw	a3,a3,304 # 1130 <buflen.1+0x10f0>
    8000372e:	968a                	add	a3,a3,sp
    80003730:	e280                	sd	s0,0(a3)
    80003732:	6cb2858b          	.insn	4, 0x6cb2858b
    80003736:	8d73858b          	.insn	4, 0x8d73858b
    8000373a:	4e89                	li	t4,2
    8000373c:	c0e485fb          	.insn	4, 0xc0e485fb
    80003740:	6685                	lui	a3,0x1
    80003742:	1286869b          	addiw	a3,a3,296 # 1128 <buflen.1+0x10e8>
    80003746:	968a                	add	a3,a3,sp
    80003748:	e28c                	sd	a1,0(a3)
    8000374a:	897e058b          	.insn	4, 0x897e058b
    8000374e:	4f05                	li	t5,1
    80003750:	48c8058b          	.insn	4, 0x48c8058b
    80003754:	7d6c                	ld	a1,248(a0)
    80003756:	10053283          	ld	t0,256(a0)
    8000375a:	68b3040b          	.insn	4, 0x68b3040b
    8000375e:	80e2847b          	.insn	4, 0x80e2847b
    80003762:	6685                	lui	a3,0x1
    80003764:	1206869b          	addiw	a3,a3,288 # 1120 <buflen.1+0x10e0>
    80003768:	968a                	add	a3,a3,sp
    8000376a:	e280                	sd	s0,0(a3)
    8000376c:	04e4870b          	.insn	4, 0x04e4870b
    80003770:	44f8877b          	.insn	4, 0x44f8877b
    80003774:	6685                	lui	a3,0x1
    80003776:	1186869b          	addiw	a3,a3,280 # 1118 <buflen.1+0x10d8>
    8000377a:	968a                	add	a3,a3,sp
    8000377c:	e298                	sd	a4,0(a3)
    8000377e:	817c070b          	.insn	4, 0x817c070b
    80003782:	60b3070b          	.insn	4, 0x60b3070b
    80003786:	10853703          	ld	a4,264(a0)
    8000378a:	11053383          	ld	t2,272(a0)
    8000378e:	00e2840b          	.insn	4, 0x00e2840b
    80003792:	04f384fb          	.insn	4, 0x04f384fb
    80003796:	6685                	lui	a3,0x1
    80003798:	1106869b          	addiw	a3,a3,272 # 1110 <buflen.1+0x10d0>
    8000379c:	968a                	add	a3,a3,sp
    8000379e:	e284                	sd	s1,0(a3)
    800037a0:	2cf8878b          	.insn	4, 0x2cf8878b
    800037a4:	8d79878b          	.insn	4, 0x8d79878b
    800037a8:	c8c807fb          	.insn	4, 0xc8c807fb
    800037ac:	6685                	lui	a3,0x1
    800037ae:	1006869b          	addiw	a3,a3,256 # 1100 <buflen.1+0x10c0>
    800037b2:	968a                	add	a3,a3,sp
    800037b4:	e29c                	sd	a5,0(a3)
    800037b6:	8970878b          	.insn	4, 0x8970878b
    800037ba:	08e2878b          	.insn	4, 0x08e2878b
    800037be:	11853783          	ld	a5,280(a0)
    800037c2:	12053883          	ld	a7,288(a0)
    800037c6:	28f3848b          	.insn	4, 0x28f3848b
    800037ca:	88c884fb          	.insn	4, 0x88c884fb
    800037ce:	6685                	lui	a3,0x1
    800037d0:	1086869b          	addiw	a3,a3,264 # 1108 <buflen.1+0x10c8>
    800037d4:	968a                	add	a3,a3,sp
    800037d6:	e284                	sd	s1,0(a3)
    800037d8:	44c8060b          	.insn	4, 0x44c8060b
    800037dc:	4cb3067b          	.insn	4, 0x4cb3067b
    800037e0:	6685                	lui	a3,0x1
    800037e2:	0f06869b          	addiw	a3,a3,240 # 10f0 <buflen.1+0x10b0>
    800037e6:	968a                	add	a3,a3,sp
    800037e8:	e290                	sd	a2,0(a3)
    800037ea:	817f860b          	.insn	4, 0x817f860b
    800037ee:	20f3860b          	.insn	4, 0x20f3860b
    800037f2:	12853603          	ld	a2,296(a0)
    800037f6:	13053803          	ld	a6,304(a0)
    800037fa:	40c8848b          	.insn	4, 0x40c8848b
    800037fe:	0cb804fb          	.insn	4, 0x0cb804fb
    80003802:	6685                	lui	a3,0x1
    80003804:	0f86869b          	addiw	a3,a3,248 # 10f8 <buflen.1+0x10b8>
    80003808:	968a                	add	a3,a3,sp
    8000380a:	e284                	sd	s1,0(a3)
    8000380c:	6cb3058b          	.insn	4, 0x6cb3058b
    80003810:	8d7e858b          	.insn	4, 0x8d7e858b
    80003814:	c0e285fb          	.insn	4, 0xc0e285fb
    80003818:	6685                	lui	a3,0x1
    8000381a:	0e06869b          	addiw	a3,a3,224 # 10e0 <buflen.1+0x10a0>
    8000381e:	968a                	add	a3,a3,sp
    80003820:	e28c                	sd	a1,0(a3)
    80003822:	897f058b          	.insn	4, 0x897f058b
    80003826:	48c8858b          	.insn	4, 0x48c8858b
    8000382a:	13853583          	ld	a1,312(a0)
    8000382e:	14053483          	ld	s1,320(a0)
    80003832:	68b8040b          	.insn	4, 0x68b8040b
    80003836:	80e4847b          	.insn	4, 0x80e4847b
    8000383a:	6685                	lui	a3,0x1
    8000383c:	0e86869b          	addiw	a3,a3,232 # 10e8 <buflen.1+0x10a8>
    80003840:	968a                	add	a3,a3,sp
    80003842:	e280                	sd	s0,0(a3)
    80003844:	04e2870b          	.insn	4, 0x04e2870b
    80003848:	44f3877b          	.insn	4, 0x44f3877b
    8000384c:	6685                	lui	a3,0x1
    8000384e:	0d86869b          	addiw	a3,a3,216 # 10d8 <buflen.1+0x1098>
    80003852:	968a                	add	a3,a3,sp
    80003854:	e298                	sd	a4,0(a3)
    80003856:	817c070b          	.insn	4, 0x817c070b
    8000385a:	60b8070b          	.insn	4, 0x60b8070b
    8000385e:	14853703          	ld	a4,328(a0)
    80003862:	15053283          	ld	t0,336(a0)
    80003866:	00e4840b          	.insn	4, 0x00e4840b
    8000386a:	04f2847b          	.insn	4, 0x04f2847b
    8000386e:	6685                	lui	a3,0x1
    80003870:	0d06869b          	addiw	a3,a3,208 # 10d0 <buflen.1+0x1090>
    80003874:	968a                	add	a3,a3,sp
    80003876:	e280                	sd	s0,0(a3)
    80003878:	2cf3878b          	.insn	4, 0x2cf3878b
    8000387c:	8d79878b          	.insn	4, 0x8d79878b
    80003880:	c8c887fb          	.insn	4, 0xc8c887fb
    80003884:	6685                	lui	a3,0x1
    80003886:	0c86869b          	addiw	a3,a3,200 # 10c8 <buflen.1+0x1088>
    8000388a:	968a                	add	a3,a3,sp
    8000388c:	e29c                	sd	a5,0(a3)
    8000388e:	8970878b          	.insn	4, 0x8970878b
    80003892:	08e4878b          	.insn	4, 0x08e4878b
    80003896:	15853783          	ld	a5,344(a0)
    8000389a:	16053303          	ld	t1,352(a0)
    8000389e:	28f2840b          	.insn	4, 0x28f2840b
    800038a2:	88c3047b          	.insn	4, 0x88c3047b
    800038a6:	6685                	lui	a3,0x1
    800038a8:	0c06869b          	addiw	a3,a3,192 # 10c0 <buflen.1+0x1080>
    800038ac:	968a                	add	a3,a3,sp
    800038ae:	e280                	sd	s0,0(a3)
    800038b0:	44c8860b          	.insn	4, 0x44c8860b
    800038b4:	4cb8067b          	.insn	4, 0x4cb8067b
    800038b8:	6685                	lui	a3,0x1
    800038ba:	0b06869b          	addiw	a3,a3,176 # 10b0 <buflen.1+0x1070>
    800038be:	968a                	add	a3,a3,sp
    800038c0:	e290                	sd	a2,0(a3)
    800038c2:	817f860b          	.insn	4, 0x817f860b
    800038c6:	20f2860b          	.insn	4, 0x20f2860b
    800038ca:	16853603          	ld	a2,360(a0)
    800038ce:	17053883          	ld	a7,368(a0)
    800038d2:	40c3040b          	.insn	4, 0x40c3040b
    800038d6:	0cb8847b          	.insn	4, 0x0cb8847b
    800038da:	6685                	lui	a3,0x1
    800038dc:	0b86869b          	addiw	a3,a3,184 # 10b8 <buflen.1+0x1078>
    800038e0:	968a                	add	a3,a3,sp
    800038e2:	e280                	sd	s0,0(a3)
    800038e4:	6cb8058b          	.insn	4, 0x6cb8058b
    800038e8:	8d7e858b          	.insn	4, 0x8d7e858b
    800038ec:	c0e485fb          	.insn	4, 0xc0e485fb
    800038f0:	6685                	lui	a3,0x1
    800038f2:	0a06869b          	addiw	a3,a3,160 # 10a0 <buflen.1+0x1060>
    800038f6:	968a                	add	a3,a3,sp
    800038f8:	e28c                	sd	a1,0(a3)
    800038fa:	897f058b          	.insn	4, 0x897f058b
    800038fe:	48c3058b          	.insn	4, 0x48c3058b
    80003902:	17853583          	ld	a1,376(a0)
    80003906:	18053803          	ld	a6,384(a0)
    8000390a:	68b8840b          	.insn	4, 0x68b8840b
    8000390e:	80e8047b          	.insn	4, 0x80e8047b
    80003912:	6685                	lui	a3,0x1
    80003914:	0a86869b          	addiw	a3,a3,168 # 10a8 <buflen.1+0x1068>
    80003918:	968a                	add	a3,a3,sp
    8000391a:	e280                	sd	s0,0(a3)
    8000391c:	04e4870b          	.insn	4, 0x04e4870b
    80003920:	44f2877b          	.insn	4, 0x44f2877b
    80003924:	6685                	lui	a3,0x1
    80003926:	0906869b          	addiw	a3,a3,144 # 1090 <buflen.1+0x1050>
    8000392a:	968a                	add	a3,a3,sp
    8000392c:	e298                	sd	a4,0(a3)
    8000392e:	817c070b          	.insn	4, 0x817c070b
    80003932:	60b8870b          	.insn	4, 0x60b8870b
    80003936:	18853703          	ld	a4,392(a0)
    8000393a:	19053383          	ld	t2,400(a0)
    8000393e:	00e8040b          	.insn	4, 0x00e8040b
    80003942:	04f384fb          	.insn	4, 0x04f384fb
    80003946:	6685                	lui	a3,0x1
    80003948:	0986869b          	addiw	a3,a3,152 # 1098 <buflen.1+0x1058>
    8000394c:	968a                	add	a3,a3,sp
    8000394e:	e284                	sd	s1,0(a3)
    80003950:	2cf2878b          	.insn	4, 0x2cf2878b
    80003954:	8d79878b          	.insn	4, 0x8d79878b
    80003958:	c8c307fb          	.insn	4, 0xc8c307fb
    8000395c:	6685                	lui	a3,0x1
    8000395e:	0806869b          	addiw	a3,a3,128 # 1080 <buflen.1+0x1040>
    80003962:	968a                	add	a3,a3,sp
    80003964:	e29c                	sd	a5,0(a3)
    80003966:	8970878b          	.insn	4, 0x8970878b
    8000396a:	08e8078b          	.insn	4, 0x08e8078b
    8000396e:	19853783          	ld	a5,408(a0)
    80003972:	1a053e03          	ld	t3,416(a0)
    80003976:	28f3848b          	.insn	4, 0x28f3848b
    8000397a:	88ce04fb          	.insn	4, 0x88ce04fb
    8000397e:	6685                	lui	a3,0x1
    80003980:	0886869b          	addiw	a3,a3,136 # 1088 <buflen.1+0x1048>
    80003984:	968a                	add	a3,a3,sp
    80003986:	e284                	sd	s1,0(a3)
    80003988:	44c3060b          	.insn	4, 0x44c3060b
    8000398c:	4cb8867b          	.insn	4, 0x4cb8867b
    80003990:	6685                	lui	a3,0x1
    80003992:	0786869b          	addiw	a3,a3,120 # 1078 <buflen.1+0x1038>
    80003996:	968a                	add	a3,a3,sp
    80003998:	e290                	sd	a2,0(a3)
    8000399a:	817f860b          	.insn	4, 0x817f860b
    8000399e:	20f3860b          	.insn	4, 0x20f3860b
    800039a2:	1a853603          	ld	a2,424(a0)
    800039a6:	1b053283          	ld	t0,432(a0)
    800039aa:	40ce048b          	.insn	4, 0x40ce048b
    800039ae:	0cb284fb          	.insn	4, 0x0cb284fb
    800039b2:	6685                	lui	a3,0x1
    800039b4:	0706869b          	addiw	a3,a3,112 # 1070 <buflen.1+0x1030>
    800039b8:	968a                	add	a3,a3,sp
    800039ba:	e284                	sd	s1,0(a3)
    800039bc:	6cb8858b          	.insn	4, 0x6cb8858b
    800039c0:	8d7e858b          	.insn	4, 0x8d7e858b
    800039c4:	c0e805fb          	.insn	4, 0xc0e805fb
    800039c8:	6685                	lui	a3,0x1
    800039ca:	0686869b          	addiw	a3,a3,104 # 1068 <buflen.1+0x1028>
    800039ce:	968a                	add	a3,a3,sp
    800039d0:	e28c                	sd	a1,0(a3)
    800039d2:	897f058b          	.insn	4, 0x897f058b
    800039d6:	48ce058b          	.insn	4, 0x48ce058b
    800039da:	1b853583          	ld	a1,440(a0)
    800039de:	1c053483          	ld	s1,448(a0)
    800039e2:	68b2840b          	.insn	4, 0x68b2840b
    800039e6:	80e4847b          	.insn	4, 0x80e4847b
    800039ea:	6685                	lui	a3,0x1
    800039ec:	0606869b          	addiw	a3,a3,96 # 1060 <buflen.1+0x1020>
    800039f0:	968a                	add	a3,a3,sp
    800039f2:	e280                	sd	s0,0(a3)
    800039f4:	04e8070b          	.insn	4, 0x04e8070b
    800039f8:	44f3877b          	.insn	4, 0x44f3877b
    800039fc:	6685                	lui	a3,0x1
    800039fe:	0586869b          	addiw	a3,a3,88 # 1058 <buflen.1+0x1018>
    80003a02:	968a                	add	a3,a3,sp
    80003a04:	e298                	sd	a4,0(a3)
    80003a06:	817c070b          	.insn	4, 0x817c070b
    80003a0a:	60b2870b          	.insn	4, 0x60b2870b
    80003a0e:	1c853703          	ld	a4,456(a0)
    80003a12:	1d053803          	ld	a6,464(a0)
    80003a16:	00e4840b          	.insn	4, 0x00e4840b
    80003a1a:	04f8047b          	.insn	4, 0x04f8047b
    80003a1e:	6685                	lui	a3,0x1
    80003a20:	0506869b          	addiw	a3,a3,80 # 1050 <buflen.1+0x1010>
    80003a24:	968a                	add	a3,a3,sp
    80003a26:	e280                	sd	s0,0(a3)
    80003a28:	2cf3878b          	.insn	4, 0x2cf3878b
    80003a2c:	8d79878b          	.insn	4, 0x8d79878b
    80003a30:	c8ce07fb          	.insn	4, 0xc8ce07fb
    80003a34:	6685                	lui	a3,0x1
    80003a36:	0486869b          	addiw	a3,a3,72 # 1048 <buflen.1+0x1008>
    80003a3a:	968a                	add	a3,a3,sp
    80003a3c:	e29c                	sd	a5,0(a3)
    80003a3e:	8970878b          	.insn	4, 0x8970878b
    80003a42:	08e4878b          	.insn	4, 0x08e4878b
    80003a46:	1d853783          	ld	a5,472(a0)
    80003a4a:	1e053883          	ld	a7,480(a0)
    80003a4e:	28f8040b          	.insn	4, 0x28f8040b
    80003a52:	88c8847b          	.insn	4, 0x88c8847b
    80003a56:	6685                	lui	a3,0x1
    80003a58:	0406869b          	addiw	a3,a3,64 # 1040 <buflen.1+0x1000>
    80003a5c:	968a                	add	a3,a3,sp
    80003a5e:	e280                	sd	s0,0(a3)
    80003a60:	44ce060b          	.insn	4, 0x44ce060b
    80003a64:	4cb2867b          	.insn	4, 0x4cb2867b
    80003a68:	6685                	lui	a3,0x1
    80003a6a:	0386869b          	addiw	a3,a3,56 # 1038 <buflen.1+0xff8>
    80003a6e:	968a                	add	a3,a3,sp
    80003a70:	e290                	sd	a2,0(a3)
    80003a72:	817f860b          	.insn	4, 0x817f860b
    80003a76:	20f8060b          	.insn	4, 0x20f8060b
    80003a7a:	1e853603          	ld	a2,488(a0)
    80003a7e:	1f053303          	ld	t1,496(a0)
    80003a82:	40c8840b          	.insn	4, 0x40c8840b
    80003a86:	0cb3047b          	.insn	4, 0x0cb3047b
    80003a8a:	6685                	lui	a3,0x1
    80003a8c:	0306869b          	addiw	a3,a3,48 # 1030 <buflen.1+0xff0>
    80003a90:	968a                	add	a3,a3,sp
    80003a92:	e280                	sd	s0,0(a3)
    80003a94:	6cb2858b          	.insn	4, 0x6cb2858b
    80003a98:	8d7e858b          	.insn	4, 0x8d7e858b
    80003a9c:	c0e485fb          	.insn	4, 0xc0e485fb
    80003aa0:	6685                	lui	a3,0x1
    80003aa2:	0286869b          	addiw	a3,a3,40 # 1028 <buflen.1+0xfe8>
    80003aa6:	968a                	add	a3,a3,sp
    80003aa8:	e28c                	sd	a1,0(a3)
    80003aaa:	897f058b          	.insn	4, 0x897f058b
    80003aae:	48c8858b          	.insn	4, 0x48c8858b
    80003ab2:	1f853583          	ld	a1,504(a0)
    80003ab6:	20053283          	ld	t0,512(a0)
    80003aba:	68b3040b          	.insn	4, 0x68b3040b
    80003abe:	80e2847b          	.insn	4, 0x80e2847b
    80003ac2:	6685                	lui	a3,0x1
    80003ac4:	0206869b          	addiw	a3,a3,32 # 1020 <buflen.1+0xfe0>
    80003ac8:	968a                	add	a3,a3,sp
    80003aca:	e280                	sd	s0,0(a3)
    80003acc:	04e4870b          	.insn	4, 0x04e4870b
    80003ad0:	44f8077b          	.insn	4, 0x44f8077b
    80003ad4:	6685                	lui	a3,0x1
    80003ad6:	26e1                	addiw	a3,a3,24 # 1018 <buflen.1+0xfd8>
    80003ad8:	968a                	add	a3,a3,sp
    80003ada:	e298                	sd	a4,0(a3)
    80003adc:	817c070b          	.insn	4, 0x817c070b
    80003ae0:	60b3070b          	.insn	4, 0x60b3070b
    80003ae4:	20853703          	ld	a4,520(a0)
    80003ae8:	21053383          	ld	t2,528(a0)
    80003aec:	00e2840b          	.insn	4, 0x00e2840b
    80003af0:	04f384fb          	.insn	4, 0x04f384fb
    80003af4:	6685                	lui	a3,0x1
    80003af6:	26c1                	addiw	a3,a3,16 # 1010 <buflen.1+0xfd0>
    80003af8:	968a                	add	a3,a3,sp
    80003afa:	e284                	sd	s1,0(a3)
    80003afc:	2cf8078b          	.insn	4, 0x2cf8078b
    80003b00:	8d79878b          	.insn	4, 0x8d79878b
    80003b04:	c8c887fb          	.insn	4, 0xc8c887fb
    80003b08:	6685                	lui	a3,0x1
    80003b0a:	26a1                	addiw	a3,a3,8 # 1008 <buflen.1+0xfc8>
    80003b0c:	968a                	add	a3,a3,sp
    80003b0e:	e29c                	sd	a5,0(a3)
    80003b10:	8970878b          	.insn	4, 0x8970878b
    80003b14:	08e2878b          	.insn	4, 0x08e2878b
    80003b18:	21853783          	ld	a5,536(a0)
    80003b1c:	22053e03          	ld	t3,544(a0)
    80003b20:	28f3848b          	.insn	4, 0x28f3848b
    80003b24:	88ce04fb          	.insn	4, 0x88ce04fb
    80003b28:	6685                	lui	a3,0x1
    80003b2a:	968a                	add	a3,a3,sp
    80003b2c:	e284                	sd	s1,0(a3)
    80003b2e:	44c8860b          	.insn	4, 0x44c8860b
    80003b32:	4cb3067b          	.insn	4, 0x4cb3067b
    80003b36:	6685                	lui	a3,0x1
    80003b38:	36e1                	addiw	a3,a3,-8 # ff8 <buflen.1+0xfb8>
    80003b3a:	968a                	add	a3,a3,sp
    80003b3c:	e290                	sd	a2,0(a3)
    80003b3e:	817f860b          	.insn	4, 0x817f860b
    80003b42:	20f3860b          	.insn	4, 0x20f3860b
    80003b46:	22853603          	ld	a2,552(a0)
    80003b4a:	23053803          	ld	a6,560(a0)
    80003b4e:	40ce048b          	.insn	4, 0x40ce048b
    80003b52:	0cb804fb          	.insn	4, 0x0cb804fb
    80003b56:	6685                	lui	a3,0x1
    80003b58:	36c1                	addiw	a3,a3,-16 # ff0 <buflen.1+0xfb0>
    80003b5a:	968a                	add	a3,a3,sp
    80003b5c:	e284                	sd	s1,0(a3)
    80003b5e:	6cb3058b          	.insn	4, 0x6cb3058b
    80003b62:	8d7e858b          	.insn	4, 0x8d7e858b
    80003b66:	c0e285fb          	.insn	4, 0xc0e285fb
    80003b6a:	6685                	lui	a3,0x1
    80003b6c:	36a1                	addiw	a3,a3,-24 # fe8 <buflen.1+0xfa8>
    80003b6e:	968a                	add	a3,a3,sp
    80003b70:	e28c                	sd	a1,0(a3)
    80003b72:	897f058b          	.insn	4, 0x897f058b
    80003b76:	48ce058b          	.insn	4, 0x48ce058b
    80003b7a:	23853583          	ld	a1,568(a0)
    80003b7e:	24053483          	ld	s1,576(a0)
    80003b82:	68b8040b          	.insn	4, 0x68b8040b
    80003b86:	80e4847b          	.insn	4, 0x80e4847b
    80003b8a:	6685                	lui	a3,0x1
    80003b8c:	fd86869b          	addiw	a3,a3,-40 # fd8 <buflen.1+0xf98>
    80003b90:	968a                	add	a3,a3,sp
    80003b92:	e280                	sd	s0,0(a3)
    80003b94:	04e2870b          	.insn	4, 0x04e2870b
    80003b98:	44f3877b          	.insn	4, 0x44f3877b
    80003b9c:	6685                	lui	a3,0x1
    80003b9e:	fd06869b          	addiw	a3,a3,-48 # fd0 <buflen.1+0xf90>
    80003ba2:	968a                	add	a3,a3,sp
    80003ba4:	e298                	sd	a4,0(a3)
    80003ba6:	817c070b          	.insn	4, 0x817c070b
    80003baa:	60b8070b          	.insn	4, 0x60b8070b
    80003bae:	24853703          	ld	a4,584(a0)
    80003bb2:	25053883          	ld	a7,592(a0)
    80003bb6:	00e4840b          	.insn	4, 0x00e4840b
    80003bba:	04f8847b          	.insn	4, 0x04f8847b
    80003bbe:	6685                	lui	a3,0x1
    80003bc0:	3681                	addiw	a3,a3,-32 # fe0 <buflen.1+0xfa0>
    80003bc2:	968a                	add	a3,a3,sp
    80003bc4:	e280                	sd	s0,0(a3)
    80003bc6:	2cf3878b          	.insn	4, 0x2cf3878b
    80003bca:	8d79878b          	.insn	4, 0x8d79878b
    80003bce:	c8ce07fb          	.insn	4, 0xc8ce07fb
    80003bd2:	6685                	lui	a3,0x1
    80003bd4:	fc06869b          	addiw	a3,a3,-64 # fc0 <buflen.1+0xf80>
    80003bd8:	968a                	add	a3,a3,sp
    80003bda:	e29c                	sd	a5,0(a3)
    80003bdc:	8970878b          	.insn	4, 0x8970878b
    80003be0:	08e4878b          	.insn	4, 0x08e4878b
    80003be4:	25853783          	ld	a5,600(a0)
    80003be8:	26053283          	ld	t0,608(a0)
    80003bec:	28f8840b          	.insn	4, 0x28f8840b
    80003bf0:	88c2847b          	.insn	4, 0x88c2847b
    80003bf4:	6685                	lui	a3,0x1
    80003bf6:	fc86869b          	addiw	a3,a3,-56 # fc8 <buflen.1+0xf88>
    80003bfa:	968a                	add	a3,a3,sp
    80003bfc:	e280                	sd	s0,0(a3)
    80003bfe:	44ce060b          	.insn	4, 0x44ce060b
    80003c02:	4cb8067b          	.insn	4, 0x4cb8067b
    80003c06:	6685                	lui	a3,0x1
    80003c08:	fb06869b          	addiw	a3,a3,-80 # fb0 <buflen.1+0xf70>
    80003c0c:	968a                	add	a3,a3,sp
    80003c0e:	e290                	sd	a2,0(a3)
    80003c10:	817f860b          	.insn	4, 0x817f860b
    80003c14:	20f8860b          	.insn	4, 0x20f8860b
    80003c18:	26853603          	ld	a2,616(a0)
    80003c1c:	27053303          	ld	t1,624(a0)
    80003c20:	40c2840b          	.insn	4, 0x40c2840b
    80003c24:	0cb3047b          	.insn	4, 0x0cb3047b
    80003c28:	6685                	lui	a3,0x1
    80003c2a:	fb86869b          	addiw	a3,a3,-72 # fb8 <buflen.1+0xf78>
    80003c2e:	968a                	add	a3,a3,sp
    80003c30:	e280                	sd	s0,0(a3)
    80003c32:	6cb8058b          	.insn	4, 0x6cb8058b
    80003c36:	8d7e858b          	.insn	4, 0x8d7e858b
    80003c3a:	c0e485fb          	.insn	4, 0xc0e485fb
    80003c3e:	6685                	lui	a3,0x1
    80003c40:	fa86869b          	addiw	a3,a3,-88 # fa8 <buflen.1+0xf68>
    80003c44:	968a                	add	a3,a3,sp
    80003c46:	e28c                	sd	a1,0(a3)
    80003c48:	897f058b          	.insn	4, 0x897f058b
    80003c4c:	48c2858b          	.insn	4, 0x48c2858b
    80003c50:	27853583          	ld	a1,632(a0)
    80003c54:	28053803          	ld	a6,640(a0)
    80003c58:	68b3040b          	.insn	4, 0x68b3040b
    80003c5c:	80e8047b          	.insn	4, 0x80e8047b
    80003c60:	6685                	lui	a3,0x1
    80003c62:	fa06869b          	addiw	a3,a3,-96 # fa0 <buflen.1+0xf60>
    80003c66:	968a                	add	a3,a3,sp
    80003c68:	e280                	sd	s0,0(a3)
    80003c6a:	04e4870b          	.insn	4, 0x04e4870b
    80003c6e:	44f8877b          	.insn	4, 0x44f8877b
    80003c72:	6685                	lui	a3,0x1
    80003c74:	f986869b          	addiw	a3,a3,-104 # f98 <buflen.1+0xf58>
    80003c78:	968a                	add	a3,a3,sp
    80003c7a:	e298                	sd	a4,0(a3)
    80003c7c:	817c070b          	.insn	4, 0x817c070b
    80003c80:	60b3070b          	.insn	4, 0x60b3070b
    80003c84:	28853703          	ld	a4,648(a0)
    80003c88:	29053383          	ld	t2,656(a0)
    80003c8c:	00e8040b          	.insn	4, 0x00e8040b
    80003c90:	04f384fb          	.insn	4, 0x04f384fb
    80003c94:	6685                	lui	a3,0x1
    80003c96:	f906869b          	addiw	a3,a3,-112 # f90 <buflen.1+0xf50>
    80003c9a:	968a                	add	a3,a3,sp
    80003c9c:	e284                	sd	s1,0(a3)
    80003c9e:	2cf8878b          	.insn	4, 0x2cf8878b
    80003ca2:	8d79878b          	.insn	4, 0x8d79878b
    80003ca6:	c8c287fb          	.insn	4, 0xc8c287fb
    80003caa:	6685                	lui	a3,0x1
    80003cac:	f806869b          	addiw	a3,a3,-128 # f80 <buflen.1+0xf40>
    80003cb0:	968a                	add	a3,a3,sp
    80003cb2:	e29c                	sd	a5,0(a3)
    80003cb4:	8970878b          	.insn	4, 0x8970878b
    80003cb8:	08e8078b          	.insn	4, 0x08e8078b
    80003cbc:	29853783          	ld	a5,664(a0)
    80003cc0:	2a053e03          	ld	t3,672(a0)
    80003cc4:	28f3848b          	.insn	4, 0x28f3848b
    80003cc8:	88ce04fb          	.insn	4, 0x88ce04fb
    80003ccc:	6685                	lui	a3,0x1
    80003cce:	f886869b          	addiw	a3,a3,-120 # f88 <buflen.1+0xf48>
    80003cd2:	968a                	add	a3,a3,sp
    80003cd4:	e284                	sd	s1,0(a3)
    80003cd6:	44c2860b          	.insn	4, 0x44c2860b
    80003cda:	4cb3067b          	.insn	4, 0x4cb3067b
    80003cde:	6685                	lui	a3,0x1
    80003ce0:	f706869b          	addiw	a3,a3,-144 # f70 <buflen.1+0xf30>
    80003ce4:	968a                	add	a3,a3,sp
    80003ce6:	e290                	sd	a2,0(a3)
    80003ce8:	817f860b          	.insn	4, 0x817f860b
    80003cec:	20f3860b          	.insn	4, 0x20f3860b
    80003cf0:	2a853603          	ld	a2,680(a0)
    80003cf4:	2b053883          	ld	a7,688(a0)
    80003cf8:	40ce048b          	.insn	4, 0x40ce048b
    80003cfc:	0cb884fb          	.insn	4, 0x0cb884fb
    80003d00:	6685                	lui	a3,0x1
    80003d02:	f786869b          	addiw	a3,a3,-136 # f78 <buflen.1+0xf38>
    80003d06:	968a                	add	a3,a3,sp
    80003d08:	e284                	sd	s1,0(a3)
    80003d0a:	6cb3058b          	.insn	4, 0x6cb3058b
    80003d0e:	8d7e858b          	.insn	4, 0x8d7e858b
    80003d12:	c0e805fb          	.insn	4, 0xc0e805fb
    80003d16:	6685                	lui	a3,0x1
    80003d18:	f606869b          	addiw	a3,a3,-160 # f60 <buflen.1+0xf20>
    80003d1c:	968a                	add	a3,a3,sp
    80003d1e:	e28c                	sd	a1,0(a3)
    80003d20:	897f058b          	.insn	4, 0x897f058b
    80003d24:	48ce058b          	.insn	4, 0x48ce058b
    80003d28:	2b853583          	ld	a1,696(a0)
    80003d2c:	2c053483          	ld	s1,704(a0)
    80003d30:	68b8840b          	.insn	4, 0x68b8840b
    80003d34:	80e4847b          	.insn	4, 0x80e4847b
    80003d38:	6685                	lui	a3,0x1
    80003d3a:	f686869b          	addiw	a3,a3,-152 # f68 <buflen.1+0xf28>
    80003d3e:	968a                	add	a3,a3,sp
    80003d40:	e280                	sd	s0,0(a3)
    80003d42:	04e8070b          	.insn	4, 0x04e8070b
    80003d46:	44f3877b          	.insn	4, 0x44f3877b
    80003d4a:	6685                	lui	a3,0x1
    80003d4c:	f586869b          	addiw	a3,a3,-168 # f58 <buflen.1+0xf18>
    80003d50:	968a                	add	a3,a3,sp
    80003d52:	e298                	sd	a4,0(a3)
    80003d54:	817c070b          	.insn	4, 0x817c070b
    80003d58:	60b8870b          	.insn	4, 0x60b8870b
    80003d5c:	2c853703          	ld	a4,712(a0)
    80003d60:	2d053803          	ld	a6,720(a0)
    80003d64:	00e4840b          	.insn	4, 0x00e4840b
    80003d68:	04f8047b          	.insn	4, 0x04f8047b
    80003d6c:	6685                	lui	a3,0x1
    80003d6e:	f506869b          	addiw	a3,a3,-176 # f50 <buflen.1+0xf10>
    80003d72:	968a                	add	a3,a3,sp
    80003d74:	e280                	sd	s0,0(a3)
    80003d76:	2cf3878b          	.insn	4, 0x2cf3878b
    80003d7a:	8d79878b          	.insn	4, 0x8d79878b
    80003d7e:	c8ce07fb          	.insn	4, 0xc8ce07fb
    80003d82:	6685                	lui	a3,0x1
    80003d84:	f486869b          	addiw	a3,a3,-184 # f48 <buflen.1+0xf08>
    80003d88:	968a                	add	a3,a3,sp
    80003d8a:	e29c                	sd	a5,0(a3)
    80003d8c:	8970878b          	.insn	4, 0x8970878b
    80003d90:	08e4878b          	.insn	4, 0x08e4878b
    80003d94:	2d853783          	ld	a5,728(a0)
    80003d98:	2e053283          	ld	t0,736(a0)
    80003d9c:	28f8040b          	.insn	4, 0x28f8040b
    80003da0:	88c2847b          	.insn	4, 0x88c2847b
    80003da4:	6685                	lui	a3,0x1
    80003da6:	f406869b          	addiw	a3,a3,-192 # f40 <buflen.1+0xf00>
    80003daa:	968a                	add	a3,a3,sp
    80003dac:	e280                	sd	s0,0(a3)
    80003dae:	44ce060b          	.insn	4, 0x44ce060b
    80003db2:	4cb8867b          	.insn	4, 0x4cb8867b
    80003db6:	6685                	lui	a3,0x1
    80003db8:	f386869b          	addiw	a3,a3,-200 # f38 <buflen.1+0xef8>
    80003dbc:	968a                	add	a3,a3,sp
    80003dbe:	e290                	sd	a2,0(a3)
    80003dc0:	817f860b          	.insn	4, 0x817f860b
    80003dc4:	20f8060b          	.insn	4, 0x20f8060b
    80003dc8:	2e853603          	ld	a2,744(a0)
    80003dcc:	2f053303          	ld	t1,752(a0)
    80003dd0:	40c2840b          	.insn	4, 0x40c2840b
    80003dd4:	0cb3047b          	.insn	4, 0x0cb3047b
    80003dd8:	6685                	lui	a3,0x1
    80003dda:	f306869b          	addiw	a3,a3,-208 # f30 <buflen.1+0xef0>
    80003dde:	968a                	add	a3,a3,sp
    80003de0:	e280                	sd	s0,0(a3)
    80003de2:	6cb8858b          	.insn	4, 0x6cb8858b
    80003de6:	8d7e858b          	.insn	4, 0x8d7e858b
    80003dea:	c0e485fb          	.insn	4, 0xc0e485fb
    80003dee:	6685                	lui	a3,0x1
    80003df0:	f206869b          	addiw	a3,a3,-224 # f20 <buflen.1+0xee0>
    80003df4:	968a                	add	a3,a3,sp
    80003df6:	e28c                	sd	a1,0(a3)
    80003df8:	897f058b          	.insn	4, 0x897f058b
    80003dfc:	48c2858b          	.insn	4, 0x48c2858b
    80003e00:	2f853583          	ld	a1,760(a0)
    80003e04:	30053883          	ld	a7,768(a0)
    80003e08:	68b3040b          	.insn	4, 0x68b3040b
    80003e0c:	80e8847b          	.insn	4, 0x80e8847b
    80003e10:	6685                	lui	a3,0x1
    80003e12:	f286869b          	addiw	a3,a3,-216 # f28 <buflen.1+0xee8>
    80003e16:	968a                	add	a3,a3,sp
    80003e18:	e280                	sd	s0,0(a3)
    80003e1a:	04e4870b          	.insn	4, 0x04e4870b
    80003e1e:	44f8077b          	.insn	4, 0x44f8077b
    80003e22:	6685                	lui	a3,0x1
    80003e24:	f186869b          	addiw	a3,a3,-232 # f18 <buflen.1+0xed8>
    80003e28:	968a                	add	a3,a3,sp
    80003e2a:	e298                	sd	a4,0(a3)
    80003e2c:	817c070b          	.insn	4, 0x817c070b
    80003e30:	60b3070b          	.insn	4, 0x60b3070b
    80003e34:	30853703          	ld	a4,776(a0)
    80003e38:	31053383          	ld	t2,784(a0)
    80003e3c:	00e8840b          	.insn	4, 0x00e8840b
    80003e40:	04f384fb          	.insn	4, 0x04f384fb
    80003e44:	6685                	lui	a3,0x1
    80003e46:	f106869b          	addiw	a3,a3,-240 # f10 <buflen.1+0xed0>
    80003e4a:	968a                	add	a3,a3,sp
    80003e4c:	e284                	sd	s1,0(a3)
    80003e4e:	2cf8078b          	.insn	4, 0x2cf8078b
    80003e52:	8d79878b          	.insn	4, 0x8d79878b
    80003e56:	c8c287fb          	.insn	4, 0xc8c287fb
    80003e5a:	6685                	lui	a3,0x1
    80003e5c:	f006869b          	addiw	a3,a3,-256 # f00 <buflen.1+0xec0>
    80003e60:	968a                	add	a3,a3,sp
    80003e62:	e29c                	sd	a5,0(a3)
    80003e64:	8970878b          	.insn	4, 0x8970878b
    80003e68:	08e8878b          	.insn	4, 0x08e8878b
    80003e6c:	31853783          	ld	a5,792(a0)
    80003e70:	32053e03          	ld	t3,800(a0)
    80003e74:	28f3848b          	.insn	4, 0x28f3848b
    80003e78:	88ce04fb          	.insn	4, 0x88ce04fb
    80003e7c:	6685                	lui	a3,0x1
    80003e7e:	f086869b          	addiw	a3,a3,-248 # f08 <buflen.1+0xec8>
    80003e82:	968a                	add	a3,a3,sp
    80003e84:	e284                	sd	s1,0(a3)
    80003e86:	44c2860b          	.insn	4, 0x44c2860b
    80003e8a:	4cb3067b          	.insn	4, 0x4cb3067b
    80003e8e:	6685                	lui	a3,0x1
    80003e90:	ef86869b          	addiw	a3,a3,-264 # ef8 <buflen.1+0xeb8>
    80003e94:	968a                	add	a3,a3,sp
    80003e96:	e290                	sd	a2,0(a3)
    80003e98:	817f860b          	.insn	4, 0x817f860b
    80003e9c:	20f3860b          	.insn	4, 0x20f3860b
    80003ea0:	32853603          	ld	a2,808(a0)
    80003ea4:	33053803          	ld	a6,816(a0)
    80003ea8:	40ce048b          	.insn	4, 0x40ce048b
    80003eac:	0cb804fb          	.insn	4, 0x0cb804fb
    80003eb0:	6685                	lui	a3,0x1
    80003eb2:	ef06869b          	addiw	a3,a3,-272 # ef0 <buflen.1+0xeb0>
    80003eb6:	968a                	add	a3,a3,sp
    80003eb8:	e284                	sd	s1,0(a3)
    80003eba:	6cb3058b          	.insn	4, 0x6cb3058b
    80003ebe:	8d7e858b          	.insn	4, 0x8d7e858b
    80003ec2:	c0e885fb          	.insn	4, 0xc0e885fb
    80003ec6:	6685                	lui	a3,0x1
    80003ec8:	ee86869b          	addiw	a3,a3,-280 # ee8 <buflen.1+0xea8>
    80003ecc:	968a                	add	a3,a3,sp
    80003ece:	e28c                	sd	a1,0(a3)
    80003ed0:	897f058b          	.insn	4, 0x897f058b
    80003ed4:	48ce058b          	.insn	4, 0x48ce058b
    80003ed8:	33853583          	ld	a1,824(a0)
    80003edc:	34053483          	ld	s1,832(a0)
    80003ee0:	68b8040b          	.insn	4, 0x68b8040b
    80003ee4:	80e4847b          	.insn	4, 0x80e4847b
    80003ee8:	6685                	lui	a3,0x1
    80003eea:	ee06869b          	addiw	a3,a3,-288 # ee0 <buflen.1+0xea0>
    80003eee:	968a                	add	a3,a3,sp
    80003ef0:	e280                	sd	s0,0(a3)
    80003ef2:	04e8870b          	.insn	4, 0x04e8870b
    80003ef6:	44f3877b          	.insn	4, 0x44f3877b
    80003efa:	6685                	lui	a3,0x1
    80003efc:	ed86869b          	addiw	a3,a3,-296 # ed8 <buflen.1+0xe98>
    80003f00:	968a                	add	a3,a3,sp
    80003f02:	e298                	sd	a4,0(a3)
    80003f04:	817c070b          	.insn	4, 0x817c070b
    80003f08:	60b8070b          	.insn	4, 0x60b8070b
    80003f0c:	34853703          	ld	a4,840(a0)
    80003f10:	35053883          	ld	a7,848(a0)
    80003f14:	00e4840b          	.insn	4, 0x00e4840b
    80003f18:	04f8847b          	.insn	4, 0x04f8847b
    80003f1c:	6685                	lui	a3,0x1
    80003f1e:	ed06869b          	addiw	a3,a3,-304 # ed0 <buflen.1+0xe90>
    80003f22:	968a                	add	a3,a3,sp
    80003f24:	e280                	sd	s0,0(a3)
    80003f26:	2cf3878b          	.insn	4, 0x2cf3878b
    80003f2a:	8d79878b          	.insn	4, 0x8d79878b
    80003f2e:	c8ce07fb          	.insn	4, 0xc8ce07fb
    80003f32:	6685                	lui	a3,0x1
    80003f34:	ec86869b          	addiw	a3,a3,-312 # ec8 <buflen.1+0xe88>
    80003f38:	968a                	add	a3,a3,sp
    80003f3a:	e29c                	sd	a5,0(a3)
    80003f3c:	8970878b          	.insn	4, 0x8970878b
    80003f40:	08e4878b          	.insn	4, 0x08e4878b
    80003f44:	35853783          	ld	a5,856(a0)
    80003f48:	36053283          	ld	t0,864(a0)
    80003f4c:	28f8840b          	.insn	4, 0x28f8840b
    80003f50:	88c2847b          	.insn	4, 0x88c2847b
    80003f54:	6685                	lui	a3,0x1
    80003f56:	ec06869b          	addiw	a3,a3,-320 # ec0 <buflen.1+0xe80>
    80003f5a:	968a                	add	a3,a3,sp
    80003f5c:	e280                	sd	s0,0(a3)
    80003f5e:	44ce060b          	.insn	4, 0x44ce060b
    80003f62:	4cb8067b          	.insn	4, 0x4cb8067b
    80003f66:	6685                	lui	a3,0x1
    80003f68:	eb86869b          	addiw	a3,a3,-328 # eb8 <buflen.1+0xe78>
    80003f6c:	968a                	add	a3,a3,sp
    80003f6e:	e290                	sd	a2,0(a3)
    80003f70:	817f860b          	.insn	4, 0x817f860b
    80003f74:	20f8860b          	.insn	4, 0x20f8860b
    80003f78:	36853603          	ld	a2,872(a0)
    80003f7c:	37053303          	ld	t1,880(a0)
    80003f80:	40c2840b          	.insn	4, 0x40c2840b
    80003f84:	0cb3047b          	.insn	4, 0x0cb3047b
    80003f88:	6685                	lui	a3,0x1
    80003f8a:	ea86869b          	addiw	a3,a3,-344 # ea8 <buflen.1+0xe68>
    80003f8e:	968a                	add	a3,a3,sp
    80003f90:	e280                	sd	s0,0(a3)
    80003f92:	6cb8058b          	.insn	4, 0x6cb8058b
    80003f96:	4e09                	li	t3,2
    80003f98:	8d7e058b          	.insn	4, 0x8d7e058b
    80003f9c:	c0e485fb          	.insn	4, 0xc0e485fb
    80003fa0:	6685                	lui	a3,0x1
    80003fa2:	ea06869b          	addiw	a3,a3,-352 # ea0 <buflen.1+0xe60>
    80003fa6:	968a                	add	a3,a3,sp
    80003fa8:	e28c                	sd	a1,0(a3)
    80003faa:	897f058b          	.insn	4, 0x897f058b
    80003fae:	48c2858b          	.insn	4, 0x48c2858b
    80003fb2:	37853583          	ld	a1,888(a0)
    80003fb6:	38053803          	ld	a6,896(a0)
    80003fba:	68b3040b          	.insn	4, 0x68b3040b
    80003fbe:	80e8047b          	.insn	4, 0x80e8047b
    80003fc2:	6685                	lui	a3,0x1
    80003fc4:	eb06869b          	addiw	a3,a3,-336 # eb0 <buflen.1+0xe70>
    80003fc8:	968a                	add	a3,a3,sp
    80003fca:	e280                	sd	s0,0(a3)
    80003fcc:	04e4870b          	.insn	4, 0x04e4870b
    80003fd0:	44f8877b          	.insn	4, 0x44f8877b
    80003fd4:	6685                	lui	a3,0x1
    80003fd6:	e906869b          	addiw	a3,a3,-368 # e90 <buflen.1+0xe50>
    80003fda:	968a                	add	a3,a3,sp
    80003fdc:	e298                	sd	a4,0(a3)
    80003fde:	817c070b          	.insn	4, 0x817c070b
    80003fe2:	60b3070b          	.insn	4, 0x60b3070b
    80003fe6:	38853703          	ld	a4,904(a0)
    80003fea:	39053383          	ld	t2,912(a0)
    80003fee:	00e8040b          	.insn	4, 0x00e8040b
    80003ff2:	04f384fb          	.insn	4, 0x04f384fb
    80003ff6:	6685                	lui	a3,0x1
    80003ff8:	e986869b          	addiw	a3,a3,-360 # e98 <buflen.1+0xe58>
    80003ffc:	968a                	add	a3,a3,sp
    80003ffe:	e284                	sd	s1,0(a3)
    80004000:	2cf8878b          	.insn	4, 0x2cf8878b
    80004004:	8d79878b          	.insn	4, 0x8d79878b
    80004008:	c8c287fb          	.insn	4, 0xc8c287fb
    8000400c:	6685                	lui	a3,0x1
    8000400e:	e786869b          	addiw	a3,a3,-392 # e78 <buflen.1+0xe38>
    80004012:	968a                	add	a3,a3,sp
    80004014:	e29c                	sd	a5,0(a3)
    80004016:	8970878b          	.insn	4, 0x8970878b
    8000401a:	08e8078b          	.insn	4, 0x08e8078b
    8000401e:	39853783          	ld	a5,920(a0)
    80004022:	3a053883          	ld	a7,928(a0)
    80004026:	28f3848b          	.insn	4, 0x28f3848b
    8000402a:	88c884fb          	.insn	4, 0x88c884fb
    8000402e:	6685                	lui	a3,0x1
    80004030:	e886869b          	addiw	a3,a3,-376 # e88 <buflen.1+0xe48>
    80004034:	968a                	add	a3,a3,sp
    80004036:	e284                	sd	s1,0(a3)
    80004038:	44c2860b          	.insn	4, 0x44c2860b
    8000403c:	4cb3067b          	.insn	4, 0x4cb3067b
    80004040:	6685                	lui	a3,0x1
    80004042:	e806869b          	addiw	a3,a3,-384 # e80 <buflen.1+0xe40>
    80004046:	968a                	add	a3,a3,sp
    80004048:	e290                	sd	a2,0(a3)
    8000404a:	817f860b          	.insn	4, 0x817f860b
    8000404e:	20f3860b          	.insn	4, 0x20f3860b
    80004052:	3a853603          	ld	a2,936(a0)
    80004056:	3b053283          	ld	t0,944(a0)
    8000405a:	40c8840b          	.insn	4, 0x40c8840b
    8000405e:	0cb284fb          	.insn	4, 0x0cb284fb
    80004062:	6685                	lui	a3,0x1
    80004064:	e706869b          	addiw	a3,a3,-400 # e70 <buflen.1+0xe30>
    80004068:	968a                	add	a3,a3,sp
    8000406a:	e284                	sd	s1,0(a3)
    8000406c:	6cb3058b          	.insn	4, 0x6cb3058b
    80004070:	8d7e058b          	.insn	4, 0x8d7e058b
    80004074:	4689                	li	a3,2
    80004076:	c0e805fb          	.insn	4, 0xc0e805fb
    8000407a:	6305                	lui	t1,0x1
    8000407c:	e683031b          	addiw	t1,t1,-408 # e68 <buflen.1+0xe28>
    80004080:	930a                	add	t1,t1,sp
    80004082:	00b33023          	sd	a1,0(t1)
    80004086:	897f058b          	.insn	4, 0x897f058b
    8000408a:	48c8858b          	.insn	4, 0x48c8858b
    8000408e:	3b853583          	ld	a1,952(a0)
    80004092:	3c053303          	ld	t1,960(a0)
    80004096:	68b2848b          	.insn	4, 0x68b2848b
    8000409a:	80e304fb          	.insn	4, 0x80e304fb
    8000409e:	6e05                	lui	t3,0x1
    800040a0:	e60e0e1b          	addiw	t3,t3,-416 # e60 <buflen.1+0xe20>
    800040a4:	9e0a                	add	t3,t3,sp
    800040a6:	009e3023          	sd	s1,0(t3)
    800040aa:	04e8070b          	.insn	4, 0x04e8070b
    800040ae:	44f3877b          	.insn	4, 0x44f3877b
    800040b2:	6805                	lui	a6,0x1
    800040b4:	e508081b          	addiw	a6,a6,-432 # e50 <buflen.1+0xe10>
    800040b8:	980a                	add	a6,a6,sp
    800040ba:	00e83023          	sd	a4,0(a6)
    800040be:	817c070b          	.insn	4, 0x817c070b
    800040c2:	60b2870b          	.insn	4, 0x60b2870b
    800040c6:	3c853803          	ld	a6,968(a0)
    800040ca:	3d053483          	ld	s1,976(a0)
    800040ce:	0103070b          	.insn	4, 0x0103070b
    800040d2:	04f4877b          	.insn	4, 0x04f4877b
    800040d6:	6e05                	lui	t3,0x1
    800040d8:	e58e0e1b          	addiw	t3,t3,-424 # e58 <buflen.1+0xe18>
    800040dc:	9e0a                	add	t3,t3,sp
    800040de:	00ee3023          	sd	a4,0(t3)
    800040e2:	2cf3870b          	.insn	4, 0x2cf3870b
    800040e6:	4399                	li	t2,6
    800040e8:	8d73870b          	.insn	4, 0x8d73870b
    800040ec:	c8c8877b          	.insn	4, 0xc8c8877b
    800040f0:	6785                	lui	a5,0x1
    800040f2:	e407879b          	addiw	a5,a5,-448 # e40 <buflen.1+0xe00>
    800040f6:	978a                	add	a5,a5,sp
    800040f8:	e398                	sd	a4,0(a5)
    800040fa:	8970870b          	.insn	4, 0x8970870b
    800040fe:	0903070b          	.insn	4, 0x0903070b
    80004102:	3d853703          	ld	a4,984(a0)
    80004106:	3e053783          	ld	a5,992(a0)
    8000410a:	28e4840b          	.insn	4, 0x28e4840b
    8000410e:	88c7847b          	.insn	4, 0x88c7847b
    80004112:	6e05                	lui	t3,0x1
    80004114:	e48e0e1b          	addiw	t3,t3,-440 # e48 <buflen.1+0xe08>
    80004118:	9e0a                	add	t3,t3,sp
    8000411a:	008e3023          	sd	s0,0(t3)
    8000411e:	44c8860b          	.insn	4, 0x44c8860b
    80004122:	4cb2867b          	.insn	4, 0x4cb2867b
    80004126:	6885                	lui	a7,0x1
    80004128:	e308889b          	addiw	a7,a7,-464 # e30 <buflen.1+0xdf0>
    8000412c:	988a                	add	a7,a7,sp
    8000412e:	00c8b023          	sd	a2,0(a7)
    80004132:	817f860b          	.insn	4, 0x817f860b
    80004136:	20e4860b          	.insn	4, 0x20e4860b
    8000413a:	3e853603          	ld	a2,1000(a0)
    8000413e:	3f053883          	ld	a7,1008(a0)
    80004142:	40c7840b          	.insn	4, 0x40c7840b
    80004146:	0cb8847b          	.insn	4, 0x0cb8847b
    8000414a:	6e05                	lui	t3,0x1
    8000414c:	e38e0e1b          	addiw	t3,t3,-456 # e38 <buflen.1+0xdf8>
    80004150:	9e0a                	add	t3,t3,sp
    80004152:	008e3023          	sd	s0,0(t3)
    80004156:	6cb2858b          	.insn	4, 0x6cb2858b
    8000415a:	8d76858b          	.insn	4, 0x8d76858b
    8000415e:	4689                	li	a3,2
    80004160:	c10305fb          	.insn	4, 0xc10305fb
    80004164:	6285                	lui	t0,0x1
    80004166:	e182829b          	addiw	t0,t0,-488 # e18 <buflen.1+0xdd8>
    8000416a:	928a                	add	t0,t0,sp
    8000416c:	00b2b023          	sd	a1,0(t0)
    80004170:	0503058b          	.insn	4, 0x0503058b
    80004174:	44e485fb          	.insn	4, 0x44e485fb
    80004178:	6805                	lui	a6,0x1
    8000417a:	e108081b          	addiw	a6,a6,-496 # e10 <buflen.1+0xdd0>
    8000417e:	980a                	add	a6,a6,sp
    80004180:	00b83023          	sd	a1,0(a6)
    80004184:	2ce4858b          	.insn	4, 0x2ce4858b
    80004188:	8d73858b          	.insn	4, 0x8d73858b
    8000418c:	c8c785fb          	.insn	4, 0xc8c785fb
    80004190:	6705                	lui	a4,0x1
    80004192:	e087071b          	addiw	a4,a4,-504 # e08 <buflen.1+0xdc8>
    80004196:	970a                	add	a4,a4,sp
    80004198:	e30c                	sd	a1,0(a4)
    8000419a:	3f853503          	ld	a0,1016(a0)
    8000419e:	44c7858b          	.insn	4, 0x44c7858b
    800041a2:	4ca8857b          	.insn	4, 0x4ca8857b
    800041a6:	6585                	lui	a1,0x1
    800041a8:	e205859b          	addiw	a1,a1,-480 # e20 <buflen.1+0xde0>
    800041ac:	958a                	add	a1,a1,sp
    800041ae:	e188                	sd	a0,0(a1)
    800041b0:	6505                	lui	a0,0x1
    800041b2:	5e05051b          	addiw	a0,a0,1504 # 15e0 <buflen.1+0x15a0>
    800041b6:	950a                	add	a0,a0,sp
    800041b8:	6108                	ld	a0,0(a0)
    800041ba:	0509                	addi	a0,a0,2
    800041bc:	052a                	slli	a0,a0,0xa
    800041be:	6585                	lui	a1,0x1
    800041c0:	5d85859b          	addiw	a1,a1,1496 # 15d8 <buflen.1+0x1598>
    800041c4:	958a                	add	a1,a1,sp
    800041c6:	618c                	ld	a1,0(a1)
    800041c8:	00a58433          	add	s0,a1,a0
    800041cc:	8d7f050b          	.insn	4, 0x8d7f050b
    800041d0:	01043803          	ld	a6,16(s0)
    800041d4:	01843883          	ld	a7,24(s0)
    800041d8:	02043283          	ld	t0,32(s0)
    800041dc:	7418                	ld	a4,40(s0)
    800041de:	2d18078b          	.insn	4, 0x2d18078b
    800041e2:	4ce2878b          	.insn	4, 0x4ce2878b
    800041e6:	641c                	ld	a5,8(s0)
    800041e8:	03043303          	ld	t1,48(s0)
    800041ec:	7c08                	ld	a0,56(s0)
    800041ee:	04043383          	ld	t2,64(s0)
    800041f2:	6ca3060b          	.insn	4, 0x6ca3060b
    800041f6:	c0f385fb          	.insn	4, 0xc0f385fb
    800041fa:	6605                	lui	a2,0x1
    800041fc:	e006061b          	addiw	a2,a2,-512 # e00 <buflen.1+0xdc0>
    80004200:	960a                	add	a2,a2,sp
    80004202:	e20c                	sd	a1,0(a2)
    80004204:	6010                	ld	a2,0(s0)
    80004206:	08f6060b          	.insn	4, 0x08f6060b
    8000420a:	2918060b          	.insn	4, 0x2918060b
    8000420e:	48e2860b          	.insn	4, 0x48e2860b
    80004212:	8ca305fb          	.insn	4, 0x8ca305fb
    80004216:	6605                	lui	a2,0x1
    80004218:	df86061b          	addiw	a2,a2,-520 # df8 <buflen.1+0xdb8>
    8000421c:	960a                	add	a2,a2,sp
    8000421e:	e20c                	sd	a1,0(a2)
    80004220:	857c060b          	.insn	4, 0x857c060b
    80004224:	44e2860b          	.insn	4, 0x44e2860b
    80004228:	64a3060b          	.insn	4, 0x64a3060b
    8000422c:	6430                	ld	a2,72(s0)
    8000422e:	05043e03          	ld	t3,80(s0)
    80004232:	04c3848b          	.insn	4, 0x04c3848b
    80004236:	451e05fb          	.insn	4, 0x451e05fb
    8000423a:	6785                	lui	a5,0x1
    8000423c:	df07879b          	addiw	a5,a5,-528 # df0 <buflen.1+0xdb0>
    80004240:	978a                	add	a5,a5,sp
    80004242:	e38c                	sd	a1,0(a5)
    80004244:	8d70848b          	.insn	4, 0x8d70848b
    80004248:	0cc3848b          	.insn	4, 0x0cc3848b
    8000424c:	6c24                	ld	s1,88(s0)
    8000424e:	06043f03          	ld	t5,96(s0)
    80004252:	2c9e078b          	.insn	4, 0x2c9e078b
    80004256:	c8ef05fb          	.insn	4, 0xc8ef05fb
    8000425a:	6785                	lui	a5,0x1
    8000425c:	de87879b          	addiw	a5,a5,-536 # de8 <buflen.1+0xda8>
    80004260:	978a                	add	a5,a5,sp
    80004262:	e38c                	sd	a1,0(a5)
    80004264:	857f878b          	.insn	4, 0x857f878b
    80004268:	249e078b          	.insn	4, 0x249e078b
    8000426c:	743c                	ld	a5,104(s0)
    8000426e:	07043e83          	ld	t4,112(s0)
    80004272:	44ff058b          	.insn	4, 0x44ff058b
    80004276:	4cae85fb          	.insn	4, 0x4cae85fb
    8000427a:	6985                	lui	s3,0x1
    8000427c:	de09899b          	addiw	s3,s3,-544 # de0 <buflen.1+0xda0>
    80004280:	998a                	add	s3,s3,sp
    80004282:	00b9b023          	sd	a1,0(s3)
    80004286:	2118058b          	.insn	4, 0x2118058b
    8000428a:	40e2858b          	.insn	4, 0x40e2858b
    8000428e:	60a3050b          	.insn	4, 0x60a3050b
    80004292:	8176850b          	.insn	4, 0x8176850b
    80004296:	00c3857b          	.insn	4, 0x00c3857b
    8000429a:	6585                	lui	a1,0x1
    8000429c:	dd85859b          	addiw	a1,a1,-552 # dd8 <buflen.1+0xd98>
    800042a0:	958a                	add	a1,a1,sp
    800042a2:	e188                	sd	a0,0(a1)
    800042a4:	4305                	li	t1,1
    800042a6:	8d73050b          	.insn	4, 0x8d73050b
    800042aa:	4cff050b          	.insn	4, 0x4cff050b
    800042ae:	7c2c                	ld	a1,120(s0)
    800042b0:	08043883          	ld	a7,128(s0)
    800042b4:	6cbe850b          	.insn	4, 0x6cbe850b
    800042b8:	c0c8857b          	.insn	4, 0xc0c8857b
    800042bc:	6685                	lui	a3,0x1
    800042be:	dd06869b          	addiw	a3,a3,-560 # dd0 <buflen.1+0xd90>
    800042c2:	968a                	add	a3,a3,sp
    800042c4:	e288                	sd	a0,0(a3)
    800042c6:	08c3850b          	.insn	4, 0x08c3850b
    800042ca:	8979050b          	.insn	4, 0x8979050b
    800042ce:	849e057b          	.insn	4, 0x849e057b
    800042d2:	6605                	lui	a2,0x1
    800042d4:	dc06061b          	addiw	a2,a2,-576 # dc0 <buflen.1+0xd80>
    800042d8:	960a                	add	a2,a2,sp
    800042da:	e208                	sd	a0,0(a2)
    800042dc:	857c050b          	.insn	4, 0x857c050b
    800042e0:	64be850b          	.insn	4, 0x64be850b
    800042e4:	6450                	ld	a2,136(s0)
    800042e6:	6848                	ld	a0,144(s0)
    800042e8:	04c8870b          	.insn	4, 0x04c8870b
    800042ec:	4495077b          	.insn	4, 0x4495077b
    800042f0:	6685                	lui	a3,0x1
    800042f2:	db86869b          	addiw	a3,a3,-584 # db8 <buflen.1+0xd78>
    800042f6:	968a                	add	a3,a3,sp
    800042f8:	e298                	sd	a4,0(a3)
    800042fa:	209e070b          	.insn	4, 0x209e070b
    800042fe:	4699                	li	a3,6
    80004300:	8176870b          	.insn	4, 0x8176870b
    80004304:	08ff077b          	.insn	4, 0x08ff077b
    80004308:	6805                	lui	a6,0x1
    8000430a:	db08081b          	addiw	a6,a6,-592 # db0 <buflen.1+0xd70>
    8000430e:	980a                	add	a6,a6,sp
    80004310:	00e83023          	sd	a4,0(a6)
    80004314:	8d70870b          	.insn	4, 0x8d70870b
    80004318:	0cc8870b          	.insn	4, 0x0cc8870b
    8000431c:	09843283          	ld	t0,152(s0)
    80004320:	7044                	ld	s1,160(s0)
    80004322:	2c55070b          	.insn	4, 0x2c55070b
    80004326:	c8f4877b          	.insn	4, 0xc8f4877b
    8000432a:	6805                	lui	a6,0x1
    8000432c:	da88081b          	addiw	a6,a6,-600 # da8 <buflen.1+0xd68>
    80004330:	980a                	add	a6,a6,sp
    80004332:	00e83023          	sd	a4,0(a6)
    80004336:	48ff070b          	.insn	4, 0x48ff070b
    8000433a:	8cbe877b          	.insn	4, 0x8cbe877b
    8000433e:	6785                	lui	a5,0x1
    80004340:	da07879b          	addiw	a5,a5,-608 # da0 <buflen.1+0xd60>
    80004344:	978a                	add	a5,a5,sp
    80004346:	e398                	sd	a4,0(a5)
    80004348:	857f870b          	.insn	4, 0x857f870b
    8000434c:	2455070b          	.insn	4, 0x2455070b
    80004350:	745c                	ld	a5,168(s0)
    80004352:	0b043803          	ld	a6,176(s0)
    80004356:	44f4870b          	.insn	4, 0x44f4870b
    8000435a:	4cb8077b          	.insn	4, 0x4cb8077b
    8000435e:	6385                	lui	t2,0x1
    80004360:	d983839b          	addiw	t2,t2,-616 # d98 <buflen.1+0xd58>
    80004364:	938a                	add	t2,t2,sp
    80004366:	00e3b023          	sd	a4,0(t2)
    8000436a:	60be858b          	.insn	4, 0x60be858b
    8000436e:	4e09                	li	t3,2
    80004370:	817e058b          	.insn	4, 0x817e058b
    80004374:	00c885fb          	.insn	4, 0x00c885fb
    80004378:	6705                	lui	a4,0x1
    8000437a:	d787071b          	addiw	a4,a4,-648 # d78 <buflen.1+0xd38>
    8000437e:	970a                	add	a4,a4,sp
    80004380:	e30c                	sd	a1,0(a4)
    80004382:	8d73058b          	.insn	4, 0x8d73058b
    80004386:	4985                	li	s3,1
    80004388:	4cf4858b          	.insn	4, 0x4cf4858b
    8000438c:	0b843e83          	ld	t4,184(s0)
    80004390:	0c043303          	ld	t1,192(s0)
    80004394:	6dd8070b          	.insn	4, 0x6dd8070b
    80004398:	c0c3077b          	.insn	4, 0xc0c3077b
    8000439c:	6585                	lui	a1,0x1
    8000439e:	d705859b          	addiw	a1,a1,-656 # d70 <buflen.1+0xd30>
    800043a2:	958a                	add	a1,a1,sp
    800043a4:	e198                	sd	a4,0(a1)
    800043a6:	08c8860b          	.insn	4, 0x08c8860b
    800043aa:	8455067b          	.insn	4, 0x8455067b
    800043ae:	6585                	lui	a1,0x1
    800043b0:	d585859b          	addiw	a1,a1,-680 # d58 <buflen.1+0xd18>
    800043b4:	958a                	add	a1,a1,sp
    800043b6:	e190                	sd	a2,0(a1)
    800043b8:	2055050b          	.insn	4, 0x2055050b
    800043bc:	8176850b          	.insn	4, 0x8176850b
    800043c0:	4f19                	li	t5,6
    800043c2:	08f4857b          	.insn	4, 0x08f4857b
    800043c6:	6585                	lui	a1,0x1
    800043c8:	d605859b          	addiw	a1,a1,-672 # d60 <buflen.1+0xd20>
    800043cc:	958a                	add	a1,a1,sp
    800043ce:	e188                	sd	a0,0(a1)
    800043d0:	438d                	li	t2,3
    800043d2:	8173850b          	.insn	4, 0x8173850b
    800043d6:	1a043503          	ld	a0,416(s0)
    800043da:	6585                	lui	a1,0x1
    800043dc:	a505859b          	addiw	a1,a1,-1456 # a50 <buflen.1+0xa10>
    800043e0:	958a                	add	a1,a1,sp
    800043e2:	e188                	sd	a0,0(a1)
    800043e4:	1a843703          	ld	a4,424(s0)
    800043e8:	6585                	lui	a1,0x1
    800043ea:	5c05859b          	addiw	a1,a1,1472 # 15c0 <buflen.1+0x1580>
    800043ee:	958a                	add	a1,a1,sp
    800043f0:	e198                	sd	a4,0(a1)
    800043f2:	1b043683          	ld	a3,432(s0)
    800043f6:	6585                	lui	a1,0x1
    800043f8:	5c85859b          	addiw	a1,a1,1480 # 15c8 <buflen.1+0x1588>
    800043fc:	958a                	add	a1,a1,sp
    800043fe:	e194                	sd	a3,0(a1)
    80004400:	1b843603          	ld	a2,440(s0)
    80004404:	6585                	lui	a1,0x1
    80004406:	5d05859b          	addiw	a1,a1,1488 # 15d0 <buflen.1+0x1590>
    8000440a:	958a                	add	a1,a1,sp
    8000440c:	e190                	sd	a2,0(a1)
    8000440e:	40e5050b          	.insn	4, 0x40e5050b
    80004412:	60c6850b          	.insn	4, 0x60c6850b
    80004416:	19843583          	ld	a1,408(s0)
    8000441a:	6505                	lui	a0,0x1
    8000441c:	a605051b          	addiw	a0,a0,-1440 # a60 <buflen.1+0xa20>
    80004420:	950a                	add	a0,a0,sp
    80004422:	e10c                	sd	a1,0(a0)
    80004424:	1c043503          	ld	a0,448(s0)
    80004428:	6605                	lui	a2,0x1
    8000442a:	5b86061b          	addiw	a2,a2,1464 # 15b8 <buflen.1+0x1578>
    8000442e:	960a                	add	a2,a2,sp
    80004430:	e208                	sd	a0,0(a2)
    80004432:	1c843683          	ld	a3,456(s0)
    80004436:	6605                	lui	a2,0x1
    80004438:	5b06061b          	addiw	a2,a2,1456 # 15b0 <buflen.1+0x1570>
    8000443c:	960a                	add	a2,a2,sp
    8000443e:	e214                	sd	a3,0(a2)
    80004440:	1d043603          	ld	a2,464(s0)
    80004444:	6705                	lui	a4,0x1
    80004446:	5a87071b          	addiw	a4,a4,1448 # 15a8 <buflen.1+0x1568>
    8000444a:	970a                	add	a4,a4,sp
    8000444c:	e310                	sd	a2,0(a4)
    8000444e:	00d5050b          	.insn	4, 0x00d5050b
    80004452:	04b6057b          	.insn	4, 0x04b6057b
    80004456:	6585                	lui	a1,0x1
    80004458:	dc85859b          	addiw	a1,a1,-568 # dc8 <buflen.1+0xd88>
    8000445c:	958a                	add	a1,a1,sp
    8000445e:	e188                	sd	a0,0(a1)
    80004460:	40f4850b          	.insn	4, 0x40f4850b
    80004464:	61d8050b          	.insn	4, 0x61d8050b
    80004468:	6468                	ld	a0,200(s0)
    8000446a:	0d043883          	ld	a7,208(s0)
    8000446e:	00a3060b          	.insn	4, 0x00a3060b
    80004472:	0458867b          	.insn	4, 0x0458867b
    80004476:	6585                	lui	a1,0x1
    80004478:	d305859b          	addiw	a1,a1,-720 # d30 <buflen.1+0xcf0>
    8000447c:	958a                	add	a1,a1,sp
    8000447e:	e190                	sd	a2,0(a1)
    80004480:	48f4860b          	.insn	4, 0x48f4860b
    80004484:	8573860b          	.insn	4, 0x8573860b
    80004488:	490d                	li	s2,3
    8000448a:	8dd8067b          	.insn	4, 0x8dd8067b
    8000448e:	6585                	lui	a1,0x1
    80004490:	d285859b          	addiw	a1,a1,-728 # d28 <buflen.1+0xce8>
    80004494:	958a                	add	a1,a1,sp
    80004496:	e190                	sd	a2,0(a1)
    80004498:	16043703          	ld	a4,352(s0)
    8000449c:	6585                	lui	a1,0x1
    8000449e:	a285859b          	addiw	a1,a1,-1496 # a28 <buflen.1+0x9e8>
    800044a2:	958a                	add	a1,a1,sp
    800044a4:	e198                	sd	a4,0(a1)
    800044a6:	16843603          	ld	a2,360(s0)
    800044aa:	6585                	lui	a1,0x1
    800044ac:	a985859b          	addiw	a1,a1,-1384 # a98 <buflen.1+0xa58>
    800044b0:	958a                	add	a1,a1,sp
    800044b2:	e190                	sd	a2,0(a1)
    800044b4:	17043683          	ld	a3,368(s0)
    800044b8:	6585                	lui	a1,0x1
    800044ba:	a205859b          	addiw	a1,a1,-1504 # a20 <buflen.1+0x9e0>
    800044be:	958a                	add	a1,a1,sp
    800044c0:	e194                	sd	a3,0(a1)
    800044c2:	17843583          	ld	a1,376(s0)
    800044c6:	6285                	lui	t0,0x1
    800044c8:	a402829b          	addiw	t0,t0,-1472 # a40 <buflen.1+0xa00>
    800044cc:	928a                	add	t0,t0,sp
    800044ce:	00b2b023          	sd	a1,0(t0)
    800044d2:	44c7060b          	.insn	4, 0x44c7060b
    800044d6:	64b6860b          	.insn	4, 0x64b6860b
    800044da:	15843703          	ld	a4,344(s0)
    800044de:	6585                	lui	a1,0x1
    800044e0:	a585859b          	addiw	a1,a1,-1448 # a58 <buflen.1+0xa18>
    800044e4:	958a                	add	a1,a1,sp
    800044e6:	e198                	sd	a4,0(a1)
    800044e8:	18043603          	ld	a2,384(s0)
    800044ec:	6585                	lui	a1,0x1
    800044ee:	a705859b          	addiw	a1,a1,-1424 # a70 <buflen.1+0xa30>
    800044f2:	958a                	add	a1,a1,sp
    800044f4:	e190                	sd	a2,0(a1)
    800044f6:	18843583          	ld	a1,392(s0)
    800044fa:	6685                	lui	a3,0x1
    800044fc:	a486869b          	addiw	a3,a3,-1464 # a48 <buflen.1+0xa08>
    80004500:	968a                	add	a3,a3,sp
    80004502:	e28c                	sd	a1,0(a3)
    80004504:	19043683          	ld	a3,400(s0)
    80004508:	6285                	lui	t0,0x1
    8000450a:	a302829b          	addiw	t0,t0,-1488 # a30 <buflen.1+0x9f0>
    8000450e:	928a                	add	t0,t0,sp
    80004510:	00d2b023          	sd	a3,0(t0)
    80004514:	04b6060b          	.insn	4, 0x04b6060b
    80004518:	44e6867b          	.insn	4, 0x44e6867b
    8000451c:	6585                	lui	a1,0x1
    8000451e:	d405859b          	addiw	a1,a1,-704 # d40 <buflen.1+0xd00>
    80004522:	958a                	add	a1,a1,sp
    80004524:	e190                	sd	a2,0(a1)
    80004526:	897e060b          	.insn	4, 0x897e060b
    8000452a:	4c09                	li	s8,2
    8000452c:	80a3067b          	.insn	4, 0x80a3067b
    80004530:	6585                	lui	a1,0x1
    80004532:	d205859b          	addiw	a1,a1,-736 # d20 <buflen.1+0xce0>
    80004536:	958a                	add	a1,a1,sp
    80004538:	e190                	sd	a2,0(a1)
    8000453a:	8d70860b          	.insn	4, 0x8d70860b
    8000453e:	0ca3060b          	.insn	4, 0x0ca3060b
    80004542:	0d843283          	ld	t0,216(s0)
    80004546:	0e043383          	ld	t2,224(s0)
    8000454a:	2c58860b          	.insn	4, 0x2c58860b
    8000454e:	c8f3867b          	.insn	4, 0xc8f3867b
    80004552:	6585                	lui	a1,0x1
    80004554:	d185859b          	addiw	a1,a1,-744 # d18 <buflen.1+0xcd8>
    80004558:	958a                	add	a1,a1,sp
    8000455a:	e190                	sd	a2,0(a1)
    8000455c:	8d7f860b          	.insn	4, 0x8d7f860b
    80004560:	0e843a03          	ld	s4,232(s0)
    80004564:	786c                	ld	a1,240(s0)
    80004566:	4d43860b          	.insn	4, 0x4d43860b
    8000456a:	cdd5867b          	.insn	4, 0xcdd5867b
    8000456e:	86ae                	mv	a3,a1
    80004570:	6585                	lui	a1,0x1
    80004572:	d105859b          	addiw	a1,a1,-752 # d10 <buflen.1+0xcd0>
    80004576:	958a                	add	a1,a1,sp
    80004578:	e190                	sd	a2,0(a1)
    8000457a:	44f4860b          	.insn	4, 0x44f4860b
    8000457e:	65d8058b          	.insn	4, 0x65d8058b
    80004582:	04a3058b          	.insn	4, 0x04a3058b
    80004586:	4811                	li	a6,4
    80004588:	8578058b          	.insn	4, 0x8578058b
    8000458c:	445885fb          	.insn	4, 0x445885fb
    80004590:	6605                	lui	a2,0x1
    80004592:	d006061b          	addiw	a2,a2,-768 # d00 <buflen.1+0xcc0>
    80004596:	960a                	add	a2,a2,sp
    80004598:	e20c                	sd	a1,0(a2)
    8000459a:	897f058b          	.insn	4, 0x897f058b
    8000459e:	2858858b          	.insn	4, 0x2858858b
    800045a2:	894385fb          	.insn	4, 0x894385fb
    800045a6:	6605                	lui	a2,0x1
    800045a8:	cf86061b          	addiw	a2,a2,-776 # cf8 <buflen.1+0xcb8>
    800045ac:	960a                	add	a2,a2,sp
    800045ae:	e20c                	sd	a1,0(a2)
    800045b0:	8579058b          	.insn	4, 0x8579058b
    800045b4:	4e8d                	li	t4,3
    800045b6:	8979858b          	.insn	4, 0x8979858b
    800045ba:	7c64                	ld	s1,248(s0)
    800045bc:	10043603          	ld	a2,256(s0)
    800045c0:	87b6                	mv	a5,a3
    800045c2:	6896858b          	.insn	4, 0x6896858b
    800045c6:	80a6057b          	.insn	4, 0x80a6057b
    800045ca:	6585                	lui	a1,0x1
    800045cc:	ce05859b          	addiw	a1,a1,-800 # ce0 <buflen.1+0xca0>
    800045d0:	958a                	add	a1,a1,sp
    800045d2:	e188                	sd	a0,0(a1)
    800045d4:	1e043c83          	ld	s9,480(s0)
    800045d8:	1e843303          	ld	t1,488(s0)
    800045dc:	1f043b03          	ld	s6,496(s0)
    800045e0:	1f843f83          	ld	t6,504(s0)
    800045e4:	446c850b          	.insn	4, 0x446c850b
    800045e8:	65fb050b          	.insn	4, 0x65fb050b
    800045ec:	1d843d83          	ld	s11,472(s0)
    800045f0:	20043a83          	ld	s5,512(s0)
    800045f4:	20843f03          	ld	t5,520(s0)
    800045f8:	21043e03          	ld	t3,528(s0)
    800045fc:	05ea850b          	.insn	4, 0x05ea850b
    80004600:	45be057b          	.insn	4, 0x45be057b
    80004604:	6585                	lui	a1,0x1
    80004606:	9f85859b          	addiw	a1,a1,-1544 # 9f8 <buflen.1+0x9b8>
    8000460a:	958a                	add	a1,a1,sp
    8000460c:	01b5b023          	sd	s11,0(a1)
    80004610:	6585                	lui	a1,0x1
    80004612:	d485859b          	addiw	a1,a1,-696 # d48 <buflen.1+0xd08>
    80004616:	958a                	add	a1,a1,sp
    80004618:	e188                	sd	a0,0(a1)
    8000461a:	4543850b          	.insn	4, 0x4543850b
    8000461e:	6496850b          	.insn	4, 0x6496850b
    80004622:	10843d03          	ld	s10,264(s0)
    80004626:	11043583          	ld	a1,272(s0)
    8000462a:	05a6050b          	.insn	4, 0x05a6050b
    8000462e:	4455857b          	.insn	4, 0x4455857b
    80004632:	6705                	lui	a4,0x1
    80004634:	cb07071b          	addiw	a4,a4,-848 # cb0 <buflen.1+0xc70>
    80004638:	970a                	add	a4,a4,sp
    8000463a:	e308                	sd	a0,0(a4)
    8000463c:	8978050b          	.insn	4, 0x8978050b
    80004640:	11843703          	ld	a4,280(s0)
    80004644:	09a6050b          	.insn	4, 0x09a6050b
    80004648:	84e5857b          	.insn	4, 0x84e5857b
    8000464c:	6785                	lui	a5,0x1
    8000464e:	a887879b          	addiw	a5,a5,-1400 # a88 <buflen.1+0xa48>
    80004652:	978a                	add	a5,a5,sp
    80004654:	e398                	sd	a4,0(a5)
    80004656:	6785                	lui	a5,0x1
    80004658:	a907879b          	addiw	a5,a5,-1392 # a90 <buflen.1+0xa50>
    8000465c:	978a                	add	a5,a5,sp
    8000465e:	e38c                	sd	a1,0(a5)
    80004660:	6785                	lui	a5,0x1
    80004662:	ca07879b          	addiw	a5,a5,-864 # ca0 <buflen.1+0xc60>
    80004666:	978a                	add	a5,a5,sp
    80004668:	e388                	sd	a0,0(a5)
    8000466a:	8970850b          	.insn	4, 0x8970850b
    8000466e:	69fb050b          	.insn	4, 0x69fb050b
    80004672:	09ea850b          	.insn	4, 0x09ea850b
    80004676:	21843903          	ld	s2,536(s0)
    8000467a:	22043983          	ld	s3,544(s0)
    8000467e:	292e050b          	.insn	4, 0x292e050b
    80004682:	8869857b          	.insn	4, 0x8869857b
    80004686:	6785                	lui	a5,0x1
    80004688:	a187879b          	addiw	a5,a5,-1512 # a18 <buflen.1+0x9d8>
    8000468c:	978a                	add	a5,a5,sp
    8000468e:	0067b023          	sd	t1,0(a5)
    80004692:	6785                	lui	a5,0x1
    80004694:	cd87879b          	addiw	a5,a5,-808 # cd8 <buflen.1+0xc98>
    80004698:	978a                	add	a5,a5,sp
    8000469a:	e388                	sd	a0,0(a5)
    8000469c:	6505                	lui	a0,0x1
    8000469e:	aa85051b          	addiw	a0,a0,-1368 # aa8 <buflen.1+0xa68>
    800046a2:	950a                	add	a0,a0,sp
    800046a4:	e104                	sd	s1,0(a0)
    800046a6:	6505                	lui	a0,0x1
    800046a8:	ab05051b          	addiw	a0,a0,-1360 # ab0 <buflen.1+0xa70>
    800046ac:	950a                	add	a0,a0,sp
    800046ae:	e114                	sd	a3,0(a0)
    800046b0:	6896850b          	.insn	4, 0x6896850b
    800046b4:	87b2                	mv	a5,a2
    800046b6:	6505                	lui	a0,0x1
    800046b8:	a805051b          	addiw	a0,a0,-1408 # a80 <buflen.1+0xa40>
    800046bc:	950a                	add	a0,a0,sp
    800046be:	e110                	sd	a2,0(a0)
    800046c0:	09a6050b          	.insn	4, 0x09a6050b
    800046c4:	12043603          	ld	a2,288(s0)
    800046c8:	6505                	lui	a0,0x1
    800046ca:	a785051b          	addiw	a0,a0,-1416 # a78 <buflen.1+0xa38>
    800046ce:	950a                	add	a0,a0,sp
    800046d0:	e110                	sd	a2,0(a0)
    800046d2:	28e5850b          	.insn	4, 0x28e5850b
    800046d6:	8946057b          	.insn	4, 0x8946057b
    800046da:	6585                	lui	a1,0x1
    800046dc:	bd05859b          	addiw	a1,a1,-1072 # bd0 <buflen.1+0xb90>
    800046e0:	958a                	add	a1,a1,sp
    800046e2:	e188                	sd	a0,0(a1)
    800046e4:	2058850b          	.insn	4, 0x2058850b
    800046e8:	4143850b          	.insn	4, 0x4143850b
    800046ec:	8d7c050b          	.insn	4, 0x8d7c050b
    800046f0:	6c96850b          	.insn	4, 0x6c96850b
    800046f4:	0c96857b          	.insn	4, 0x0c96857b
    800046f8:	6585                	lui	a1,0x1
    800046fa:	bc05859b          	addiw	a1,a1,-1088 # bc0 <buflen.1+0xb80>
    800046fe:	958a                	add	a1,a1,sp
    80004700:	e188                	sd	a0,0(a1)
    80004702:	26043603          	ld	a2,608(s0)
    80004706:	6505                	lui	a0,0x1
    80004708:	9985051b          	addiw	a0,a0,-1640 # 998 <buflen.1+0x958>
    8000470c:	950a                	add	a0,a0,sp
    8000470e:	e110                	sd	a2,0(a0)
    80004710:	26843583          	ld	a1,616(s0)
    80004714:	6505                	lui	a0,0x1
    80004716:	9905051b          	addiw	a0,a0,-1648 # 990 <buflen.1+0x950>
    8000471a:	950a                	add	a0,a0,sp
    8000471c:	e10c                	sd	a1,0(a0)
    8000471e:	4891                	li	a7,4
    80004720:	8178850b          	.insn	4, 0x8178850b
    80004724:	40b6050b          	.insn	4, 0x40b6050b
    80004728:	27043683          	ld	a3,624(s0)
    8000472c:	6505                	lui	a0,0x1
    8000472e:	9885051b          	addiw	a0,a0,-1656 # 988 <buflen.1+0x948>
    80004732:	950a                	add	a0,a0,sp
    80004734:	e114                	sd	a3,0(a0)
    80004736:	27843503          	ld	a0,632(s0)
    8000473a:	6585                	lui	a1,0x1
    8000473c:	9805859b          	addiw	a1,a1,-1664 # 980 <buflen.1+0x940>
    80004740:	958a                	add	a1,a1,sp
    80004742:	e188                	sd	a0,0(a1)
    80004744:	28043583          	ld	a1,640(s0)
    80004748:	6605                	lui	a2,0x1
    8000474a:	9706061b          	addiw	a2,a2,-1680 # 970 <buflen.1+0x930>
    8000474e:	960a                	add	a2,a2,sp
    80004750:	e20c                	sd	a1,0(a2)
    80004752:	28843603          	ld	a2,648(s0)
    80004756:	6705                	lui	a4,0x1
    80004758:	9687071b          	addiw	a4,a4,-1688 # 968 <buflen.1+0x928>
    8000475c:	970a                	add	a4,a4,sp
    8000475e:	e310                	sd	a2,0(a4)
    80004760:	60a6850b          	.insn	4, 0x60a6850b
    80004764:	00c5850b          	.insn	4, 0x00c5850b
    80004768:	c1a7857b          	.insn	4, 0xc1a7857b
    8000476c:	6585                	lui	a1,0x1
    8000476e:	bb05859b          	addiw	a1,a1,-1104 # bb0 <buflen.1+0xb70>
    80004772:	958a                	add	a1,a1,sp
    80004774:	e188                	sd	a0,0(a1)
    80004776:	6505                	lui	a0,0x1
    80004778:	5e05051b          	addiw	a0,a0,1504 # 15e0 <buflen.1+0x15a0>
    8000477c:	950a                	add	a0,a0,sp
    8000477e:	6108                	ld	a0,0(a0)
    80004780:	050d                	addi	a0,a0,3
    80004782:	052a                	slli	a0,a0,0xa
    80004784:	6585                	lui	a1,0x1
    80004786:	5d85859b          	addiw	a1,a1,1496 # 15d8 <buflen.1+0x1598>
    8000478a:	958a                	add	a1,a1,sp
    8000478c:	618c                	ld	a1,0(a1)
    8000478e:	00a582b3          	add	t0,a1,a0
    80004792:	8d7e850b          	.insn	4, 0x8d7e850b
    80004796:	29043603          	ld	a2,656(s0)
    8000479a:	6505                	lui	a0,0x1
    8000479c:	9585051b          	addiw	a0,a0,-1704 # 958 <buflen.1+0x918>
    800047a0:	950a                	add	a0,a0,sp
    800047a2:	e110                	sd	a2,0(a0)
    800047a4:	3602b583          	ld	a1,864(t0)
    800047a8:	3682be83          	ld	t4,872(t0)
    800047ac:	29843683          	ld	a3,664(s0)
    800047b0:	6505                	lui	a0,0x1
    800047b2:	9505051b          	addiw	a0,a0,-1712 # 950 <buflen.1+0x910>
    800047b6:	950a                	add	a0,a0,sp
    800047b8:	e114                	sd	a3,0(a0)
    800047ba:	4dd5850b          	.insn	4, 0x4dd5850b
    800047be:	882e                	mv	a6,a1
    800047c0:	6cb13823          	sd	a1,1744(sp)
    800047c4:	04d6057b          	.insn	4, 0x04d6057b
    800047c8:	6585                	lui	a1,0x1
    800047ca:	c805859b          	addiw	a1,a1,-896 # c80 <buflen.1+0xc40>
    800047ce:	958a                	add	a1,a1,sp
    800047d0:	e188                	sd	a0,0(a1)
    800047d2:	3702b783          	ld	a5,880(t0)
    800047d6:	3782b483          	ld	s1,888(t0)
    800047da:	3802bc03          	ld	s8,896(t0)
    800047de:	3882ba03          	ld	s4,904(t0)
    800047e2:	6c97850b          	.insn	4, 0x6c97850b
    800047e6:	0d4c050b          	.insn	4, 0x0d4c050b
    800047ea:	6b413823          	sd	s4,1712(sp)
    800047ee:	3582b383          	ld	t2,856(t0)
    800047f2:	3902b583          	ld	a1,912(t0)
    800047f6:	6cb13c23          	sd	a1,1752(sp)
    800047fa:	8170850b          	.insn	4, 0x8170850b
    800047fe:	c475857b          	.insn	4, 0xc475857b
    80004802:	6585                	lui	a1,0x1
    80004804:	e285859b          	addiw	a1,a1,-472 # e28 <buflen.1+0xde8>
    80004808:	958a                	add	a1,a1,sp
    8000480a:	e188                	sd	a0,0(a1)
    8000480c:	33043503          	ld	a0,816(s0)
    80004810:	6585                	lui	a1,0x1
    80004812:	8a85859b          	addiw	a1,a1,-1880 # 8a8 <buflen.1+0x868>
    80004816:	958a                	add	a1,a1,sp
    80004818:	e188                	sd	a0,0(a1)
    8000481a:	33843583          	ld	a1,824(s0)
    8000481e:	6605                	lui	a2,0x1
    80004820:	8786061b          	addiw	a2,a2,-1928 # 878 <buflen.1+0x838>
    80004824:	960a                	add	a2,a2,sp
    80004826:	e20c                	sd	a1,0(a2)
    80004828:	34043683          	ld	a3,832(s0)
    8000482c:	6605                	lui	a2,0x1
    8000482e:	8886061b          	addiw	a2,a2,-1912 # 888 <buflen.1+0x848>
    80004832:	960a                	add	a2,a2,sp
    80004834:	e214                	sd	a3,0(a2)
    80004836:	34843603          	ld	a2,840(s0)
    8000483a:	6705                	lui	a4,0x1
    8000483c:	8507071b          	addiw	a4,a4,-1968 # 850 <buflen.1+0x810>
    80004840:	970a                	add	a4,a4,sp
    80004842:	e310                	sd	a2,0(a4)
    80004844:	60b5050b          	.insn	4, 0x60b5050b
    80004848:	00c6850b          	.insn	4, 0x00c6850b
    8000484c:	32843683          	ld	a3,808(s0)
    80004850:	6505                	lui	a0,0x1
    80004852:	8d05051b          	addiw	a0,a0,-1840 # 8d0 <buflen.1+0x890>
    80004856:	950a                	add	a0,a0,sp
    80004858:	e114                	sd	a3,0(a0)
    8000485a:	35043603          	ld	a2,848(s0)
    8000485e:	6505                	lui	a0,0x1
    80004860:	8685051b          	addiw	a0,a0,-1944 # 868 <buflen.1+0x828>
    80004864:	950a                	add	a0,a0,sp
    80004866:	e110                	sd	a2,0(a0)
    80004868:	35843503          	ld	a0,856(s0)
    8000486c:	6585                	lui	a1,0x1
    8000486e:	8305859b          	addiw	a1,a1,-2000 # 830 <buflen.1+0x7f0>
    80004872:	958a                	add	a1,a1,sp
    80004874:	e188                	sd	a0,0(a1)
    80004876:	36043583          	ld	a1,864(s0)
    8000487a:	6705                	lui	a4,0x1
    8000487c:	9c87071b          	addiw	a4,a4,-1592 # 9c8 <buflen.1+0x988>
    80004880:	970a                	add	a4,a4,sp
    80004882:	e30c                	sd	a1,0(a4)
    80004884:	20a6050b          	.insn	4, 0x20a6050b
    80004888:	08d5857b          	.insn	4, 0x08d5857b
    8000488c:	6585                	lui	a1,0x1
    8000488e:	cc85859b          	addiw	a1,a1,-824 # cc8 <buflen.1+0xc88>
    80004892:	958a                	add	a1,a1,sp
    80004894:	e188                	sd	a0,0(a1)
    80004896:	8578850b          	.insn	4, 0x8578850b
    8000489a:	6505                	lui	a0,0x1
    8000489c:	9a05051b          	addiw	a0,a0,-1632 # 9a0 <buflen.1+0x960>
    800048a0:	950a                	add	a0,a0,sp
    800048a2:	01953023          	sd	s9,0(a0)
    800048a6:	446c850b          	.insn	4, 0x446c850b
    800048aa:	6505                	lui	a0,0x1
    800048ac:	9b85051b          	addiw	a0,a0,-1608 # 9b8 <buflen.1+0x978>
    800048b0:	950a                	add	a0,a0,sp
    800048b2:	01f53023          	sd	t6,0(a0)
    800048b6:	6505                	lui	a0,0x1
    800048b8:	a105051b          	addiw	a0,a0,-1520 # a10 <buflen.1+0x9d0>
    800048bc:	950a                	add	a0,a0,sp
    800048be:	01653023          	sd	s6,0(a0)
    800048c2:	65fb050b          	.insn	4, 0x65fb050b
    800048c6:	6505                	lui	a0,0x1
    800048c8:	9d85051b          	addiw	a0,a0,-1576 # 9d8 <buflen.1+0x998>
    800048cc:	950a                	add	a0,a0,sp
    800048ce:	01e53023          	sd	t5,0(a0)
    800048d2:	6505                	lui	a0,0x1
    800048d4:	9f05051b          	addiw	a0,a0,-1552 # 9f0 <buflen.1+0x9b0>
    800048d8:	950a                	add	a0,a0,sp
    800048da:	01553023          	sd	s5,0(a0)
    800048de:	05ea850b          	.insn	4, 0x05ea850b
    800048e2:	6505                	lui	a0,0x1
    800048e4:	9e85051b          	addiw	a0,a0,-1560 # 9e8 <buflen.1+0x9a8>
    800048e8:	950a                	add	a0,a0,sp
    800048ea:	01c53023          	sd	t3,0(a0)
    800048ee:	6505                	lui	a0,0x1
    800048f0:	9a85051b          	addiw	a0,a0,-1624 # 9a8 <buflen.1+0x968>
    800048f4:	950a                	add	a0,a0,sp
    800048f6:	01253023          	sd	s2,0(a0)
    800048fa:	452e057b          	.insn	4, 0x452e057b
    800048fe:	6585                	lui	a1,0x1
    80004900:	c385859b          	addiw	a1,a1,-968 # c38 <buflen.1+0xbf8>
    80004904:	958a                	add	a1,a1,sp
    80004906:	e188                	sd	a0,0(a1)
    80004908:	4319                	li	t1,6
    8000490a:	8d73050b          	.insn	4, 0x8d73050b
    8000490e:	6dfb050b          	.insn	4, 0x6dfb050b
    80004912:	0dea850b          	.insn	4, 0x0dea850b
    80004916:	22843683          	ld	a3,552(s0)
    8000491a:	6505                	lui	a0,0x1
    8000491c:	9d05051b          	addiw	a0,a0,-1584 # 9d0 <buflen.1+0x990>
    80004920:	950a                	add	a0,a0,sp
    80004922:	e114                	sd	a3,0(a0)
    80004924:	2d2e050b          	.insn	4, 0x2d2e050b
    80004928:	6505                	lui	a0,0x1
    8000492a:	9785051b          	addiw	a0,a0,-1672 # 978 <buflen.1+0x938>
    8000492e:	950a                	add	a0,a0,sp
    80004930:	01353023          	sd	s3,0(a0)
    80004934:	c8d9857b          	.insn	4, 0xc8d9857b
    80004938:	6585                	lui	a1,0x1
    8000493a:	c285859b          	addiw	a1,a1,-984 # c28 <buflen.1+0xbe8>
    8000493e:	958a                	add	a1,a1,sp
    80004940:	e188                	sd	a0,0(a1)
    80004942:	489d                	li	a7,7
    80004944:	8178850b          	.insn	4, 0x8178850b
    80004948:	01ea850b          	.insn	4, 0x01ea850b
    8000494c:	212e050b          	.insn	4, 0x212e050b
    80004950:	23043b03          	ld	s6,560(s0)
    80004954:	40d9850b          	.insn	4, 0x40d9850b
    80004958:	0dfb057b          	.insn	4, 0x0dfb057b
    8000495c:	6585                	lui	a1,0x1
    8000495e:	c205859b          	addiw	a1,a1,-992 # c20 <buflen.1+0xbe0>
    80004962:	958a                	add	a1,a1,sp
    80004964:	e188                	sd	a0,0(a1)
    80004966:	23843583          	ld	a1,568(s0)
    8000496a:	6505                	lui	a0,0x1
    8000496c:	9b05051b          	addiw	a0,a0,-1616 # 9b0 <buflen.1+0x970>
    80004970:	950a                	add	a0,a0,sp
    80004972:	e10c                	sd	a1,0(a0)
    80004974:	44d9850b          	.insn	4, 0x44d9850b
    80004978:	4cbb057b          	.insn	4, 0x4cbb057b
    8000497c:	6585                	lui	a1,0x1
    8000497e:	c185859b          	addiw	a1,a1,-1000 # c18 <buflen.1+0xbd8>
    80004982:	958a                	add	a1,a1,sp
    80004984:	e188                	sd	a0,0(a1)
    80004986:	37043683          	ld	a3,880(s0)
    8000498a:	6505                	lui	a0,0x1
    8000498c:	8185051b          	addiw	a0,a0,-2024 # 818 <buflen.1+0x7d8>
    80004990:	950a                	add	a0,a0,sp
    80004992:	e114                	sd	a3,0(a0)
    80004994:	37843503          	ld	a0,888(s0)
    80004998:	6585                	lui	a1,0x1
    8000499a:	8205859b          	addiw	a1,a1,-2016 # 820 <buflen.1+0x7e0>
    8000499e:	958a                	add	a1,a1,sp
    800049a0:	e188                	sd	a0,0(a1)
    800049a2:	38043583          	ld	a1,896(s0)
    800049a6:	6605                	lui	a2,0x1
    800049a8:	8106061b          	addiw	a2,a2,-2032 # 810 <buflen.1+0x7d0>
    800049ac:	960a                	add	a2,a2,sp
    800049ae:	e20c                	sd	a1,0(a2)
    800049b0:	38843603          	ld	a2,904(s0)
    800049b4:	6705                	lui	a4,0x1
    800049b6:	8087071b          	addiw	a4,a4,-2040 # 808 <buflen.1+0x7c8>
    800049ba:	970a                	add	a4,a4,sp
    800049bc:	e310                	sd	a2,0(a4)
    800049be:	6ca6850b          	.insn	4, 0x6ca6850b
    800049c2:	0cc5850b          	.insn	4, 0x0cc5850b
    800049c6:	39043683          	ld	a3,912(s0)
    800049ca:	7cd13c23          	sd	a3,2008(sp)
    800049ce:	39843603          	ld	a2,920(s0)
    800049d2:	7ec13023          	sd	a2,2016(sp)
    800049d6:	3a043703          	ld	a4,928(s0)
    800049da:	7ee13823          	sd	a4,2032(sp)
    800049de:	3a843583          	ld	a1,936(s0)
    800049e2:	7eb13423          	sd	a1,2024(sp)
    800049e6:	2cc6850b          	.insn	4, 0x2cc6850b
    800049ea:	c8b7057b          	.insn	4, 0xc8b7057b
    800049ee:	6e05                	lui	t3,0x1
    800049f0:	c90e0e1b          	addiw	t3,t3,-880 # c90 <buflen.1+0xc50>
    800049f4:	9e0a                	add	t3,t3,sp
    800049f6:	00ae3023          	sd	a0,0(t3)
    800049fa:	4f09                	li	t5,2
    800049fc:	817f050b          	.insn	4, 0x817f050b
    80004a00:	20c6850b          	.insn	4, 0x20c6850b
    80004a04:	3b043603          	ld	a2,944(s0)
    80004a08:	6505                	lui	a0,0x1
    80004a0a:	8005051b          	addiw	a0,a0,-2048 # 800 <buflen.1+0x7c0>
    80004a0e:	950a                	add	a0,a0,sp
    80004a10:	e110                	sd	a2,0(a0)
    80004a12:	3b843683          	ld	a3,952(s0)
    80004a16:	40b7050b          	.insn	4, 0x40b7050b
    80004a1a:	60d6050b          	.insn	4, 0x60d6050b
    80004a1e:	8636                	mv	a2,a3
    80004a20:	7cd13823          	sd	a3,2000(sp)
    80004a24:	3c043583          	ld	a1,960(s0)
    80004a28:	6505                	lui	a0,0x1
    80004a2a:	8405051b          	addiw	a0,a0,-1984 # 840 <buflen.1+0x800>
    80004a2e:	950a                	add	a0,a0,sp
    80004a30:	e10c                	sd	a1,0(a0)
    80004a32:	3c843683          	ld	a3,968(s0)
    80004a36:	6505                	lui	a0,0x1
    80004a38:	8485051b          	addiw	a0,a0,-1976 # 848 <buflen.1+0x808>
    80004a3c:	950a                	add	a0,a0,sp
    80004a3e:	e114                	sd	a3,0(a0)
    80004a40:	8578850b          	.insn	4, 0x8578850b
    80004a44:	4a9d                	li	s5,7
    80004a46:	00d5857b          	.insn	4, 0x00d5857b
    80004a4a:	6705                	lui	a4,0x1
    80004a4c:	c707071b          	addiw	a4,a4,-912 # c70 <buflen.1+0xc30>
    80004a50:	970a                	add	a4,a4,sp
    80004a52:	e308                	sd	a0,0(a4)
    80004a54:	04d5850b          	.insn	4, 0x04d5850b
    80004a58:	3d043883          	ld	a7,976(s0)
    80004a5c:	6505                	lui	a0,0x1
    80004a5e:	8385051b          	addiw	a0,a0,-1992 # 838 <buflen.1+0x7f8>
    80004a62:	950a                	add	a0,a0,sp
    80004a64:	01153023          	sd	a7,0(a0)
    80004a68:	3d843503          	ld	a0,984(s0)
    80004a6c:	6585                	lui	a1,0x1
    80004a6e:	8585859b          	addiw	a1,a1,-1960 # 858 <buflen.1+0x818>
    80004a72:	958a                	add	a1,a1,sp
    80004a74:	e188                	sd	a0,0(a1)
    80004a76:	3e043683          	ld	a3,992(s0)
    80004a7a:	6585                	lui	a1,0x1
    80004a7c:	8605859b          	addiw	a1,a1,-1952 # 860 <buflen.1+0x820>
    80004a80:	958a                	add	a1,a1,sp
    80004a82:	e194                	sd	a3,0(a1)
    80004a84:	3e843583          	ld	a1,1000(s0)
    80004a88:	6705                	lui	a4,0x1
    80004a8a:	9107071b          	addiw	a4,a4,-1776 # 910 <buflen.1+0x8d0>
    80004a8e:	970a                	add	a4,a4,sp
    80004a90:	e30c                	sd	a1,0(a4)
    80004a92:	24a8850b          	.insn	4, 0x24a8850b
    80004a96:	44b6850b          	.insn	4, 0x44b6850b
    80004a9a:	3f043583          	ld	a1,1008(s0)
    80004a9e:	6505                	lui	a0,0x1
    80004aa0:	9005051b          	addiw	a0,a0,-1792 # 900 <buflen.1+0x8c0>
    80004aa4:	950a                	add	a0,a0,sp
    80004aa6:	e10c                	sd	a1,0(a0)
    80004aa8:	450d                	li	a0,3
    80004aaa:	8975050b          	.insn	4, 0x8975050b
    80004aae:	4cc5857b          	.insn	4, 0x4cc5857b
    80004ab2:	6585                	lui	a1,0x1
    80004ab4:	c605859b          	addiw	a1,a1,-928 # c60 <buflen.1+0xc20>
    80004ab8:	958a                	add	a1,a1,sp
    80004aba:	e188                	sd	a0,0(a1)
    80004abc:	0202b503          	ld	a0,32(t0)
    80004ac0:	6585                	lui	a1,0x1
    80004ac2:	8b85859b          	addiw	a1,a1,-1864 # 8b8 <buflen.1+0x878>
    80004ac6:	958a                	add	a1,a1,sp
    80004ac8:	e188                	sd	a0,0(a1)
    80004aca:	0282b703          	ld	a4,40(t0)
    80004ace:	6585                	lui	a1,0x1
    80004ad0:	8705859b          	addiw	a1,a1,-1936 # 870 <buflen.1+0x830>
    80004ad4:	958a                	add	a1,a1,sp
    80004ad6:	e198                	sd	a4,0(a1)
    80004ad8:	0302b583          	ld	a1,48(t0)
    80004adc:	6605                	lui	a2,0x1
    80004ade:	8c06061b          	addiw	a2,a2,-1856 # 8c0 <buflen.1+0x880>
    80004ae2:	960a                	add	a2,a2,sp
    80004ae4:	e20c                	sd	a1,0(a2)
    80004ae6:	0382b683          	ld	a3,56(t0)
    80004aea:	6605                	lui	a2,0x1
    80004aec:	8806061b          	addiw	a2,a2,-1920 # 880 <buflen.1+0x840>
    80004af0:	960a                	add	a2,a2,sp
    80004af2:	e214                	sd	a3,0(a2)
    80004af4:	48e5050b          	.insn	4, 0x48e5050b
    80004af8:	68d5850b          	.insn	4, 0x68d5850b
    80004afc:	0182b703          	ld	a4,24(t0)
    80004b00:	6505                	lui	a0,0x1
    80004b02:	8d85051b          	addiw	a0,a0,-1832 # 8d8 <buflen.1+0x898>
    80004b06:	950a                	add	a0,a0,sp
    80004b08:	e118                	sd	a4,0(a0)
    80004b0a:	0402b683          	ld	a3,64(t0)
    80004b0e:	6505                	lui	a0,0x1
    80004b10:	8985051b          	addiw	a0,a0,-1896 # 898 <buflen.1+0x858>
    80004b14:	950a                	add	a0,a0,sp
    80004b16:	e114                	sd	a3,0(a0)
    80004b18:	0482b503          	ld	a0,72(t0)
    80004b1c:	6585                	lui	a1,0x1
    80004b1e:	8905859b          	addiw	a1,a1,-1904 # 890 <buflen.1+0x850>
    80004b22:	958a                	add	a1,a1,sp
    80004b24:	e188                	sd	a0,0(a1)
    80004b26:	0502b583          	ld	a1,80(t0)
    80004b2a:	6605                	lui	a2,0x1
    80004b2c:	8c86061b          	addiw	a2,a2,-1848 # 8c8 <buflen.1+0x888>
    80004b30:	960a                	add	a2,a2,sp
    80004b32:	e20c                	sd	a1,0(a2)
    80004b34:	08a6850b          	.insn	4, 0x08a6850b
    80004b38:	84e5857b          	.insn	4, 0x84e5857b
    80004b3c:	6585                	lui	a1,0x1
    80004b3e:	d385859b          	addiw	a1,a1,-712 # d38 <buflen.1+0xcf8>
    80004b42:	958a                	add	a1,a1,sp
    80004b44:	e188                	sd	a0,0(a1)
    80004b46:	8d70850b          	.insn	4, 0x8d70850b
    80004b4a:	6505                	lui	a0,0x1
    80004b4c:	5d05051b          	addiw	a0,a0,1488 # 15d0 <buflen.1+0x1590>
    80004b50:	950a                	add	a0,a0,sp
    80004b52:	6108                	ld	a0,0(a0)
    80004b54:	6585                	lui	a1,0x1
    80004b56:	5c85859b          	addiw	a1,a1,1480 # 15c8 <buflen.1+0x1588>
    80004b5a:	958a                	add	a1,a1,sp
    80004b5c:	618c                	ld	a1,0(a1)
    80004b5e:	6ca5850b          	.insn	4, 0x6ca5850b
    80004b62:	6505                	lui	a0,0x1
    80004b64:	5b85051b          	addiw	a0,a0,1464 # 15b8 <buflen.1+0x1578>
    80004b68:	950a                	add	a0,a0,sp
    80004b6a:	6108                	ld	a0,0(a0)
    80004b6c:	6585                	lui	a1,0x1
    80004b6e:	5b05859b          	addiw	a1,a1,1456 # 15b0 <buflen.1+0x1570>
    80004b72:	958a                	add	a1,a1,sp
    80004b74:	618c                	ld	a1,0(a1)
    80004b76:	0cb5050b          	.insn	4, 0x0cb5050b
    80004b7a:	6505                	lui	a0,0x1
    80004b7c:	5a85051b          	addiw	a0,a0,1448 # 15a8 <buflen.1+0x1568>
    80004b80:	950a                	add	a0,a0,sp
    80004b82:	6108                	ld	a0,0(a0)
    80004b84:	2db5050b          	.insn	4, 0x2db5050b
    80004b88:	6505                	lui	a0,0x1
    80004b8a:	5c05051b          	addiw	a0,a0,1472 # 15c0 <buflen.1+0x1580>
    80004b8e:	950a                	add	a0,a0,sp
    80004b90:	6108                	ld	a0,0(a0)
    80004b92:	c8ac857b          	.insn	4, 0xc8ac857b
    80004b96:	6585                	lui	a1,0x1
    80004b98:	b705859b          	addiw	a1,a1,-1168 # b70 <buflen.1+0xb30>
    80004b9c:	958a                	add	a1,a1,sp
    80004b9e:	e188                	sd	a0,0(a1)
    80004ba0:	8173050b          	.insn	4, 0x8173050b
    80004ba4:	4f99                	li	t6,6
    80004ba6:	3302b683          	ld	a3,816(t0)
    80004baa:	70d13023          	sd	a3,1792(sp)
    80004bae:	3382b583          	ld	a1,824(t0)
    80004bb2:	6fd13023          	sd	t4,1760(sp)
    80004bb6:	41d8050b          	.insn	4, 0x41d8050b
    80004bba:	60b6850b          	.insn	4, 0x60b6850b
    80004bbe:	8e2e                	mv	t3,a1
    80004bc0:	6eb13c23          	sd	a1,1784(sp)
    80004bc4:	3402b703          	ld	a4,832(t0)
    80004bc8:	6ae13423          	sd	a4,1704(sp)
    80004bcc:	3482b683          	ld	a3,840(t0)
    80004bd0:	6ed13823          	sd	a3,1776(sp)
    80004bd4:	3502b583          	ld	a1,848(t0)
    80004bd8:	6ab13c23          	sd	a1,1720(sp)
    80004bdc:	00d7050b          	.insn	4, 0x00d7050b
    80004be0:	6e713423          	sd	t2,1768(sp)
    80004be4:	0475857b          	.insn	4, 0x0475857b
    80004be8:	6605                	lui	a2,0x1
    80004bea:	d906061b          	addiw	a2,a2,-624 # d90 <buflen.1+0xd50>
    80004bee:	960a                	add	a2,a2,sp
    80004bf0:	e208                	sd	a0,0(a2)
    80004bf2:	45d8050b          	.insn	4, 0x45d8050b
    80004bf6:	6c913423          	sd	s1,1736(sp)
    80004bfa:	6497850b          	.insn	4, 0x6497850b
    80004bfe:	04d7050b          	.insn	4, 0x04d7050b
    80004c02:	4475857b          	.insn	4, 0x4475857b
    80004c06:	6605                	lui	a2,0x1
    80004c08:	d886061b          	addiw	a2,a2,-632 # d88 <buflen.1+0xd48>
    80004c0c:	960a                	add	a2,a2,sp
    80004c0e:	e208                	sd	a0,0(a2)
    80004c10:	4505                	li	a0,1
    80004c12:	8975050b          	.insn	4, 0x8975050b
    80004c16:	49d8050b          	.insn	4, 0x49d8050b
    80004c1a:	6897850b          	.insn	4, 0x6897850b
    80004c1e:	6d813023          	sd	s8,1728(sp)
    80004c22:	08dc050b          	.insn	4, 0x08dc050b
    80004c26:	8475857b          	.insn	4, 0x8475857b
    80004c2a:	6605                	lui	a2,0x1
    80004c2c:	d806061b          	addiw	a2,a2,-640 # d80 <buflen.1+0xd40>
    80004c30:	960a                	add	a2,a2,sp
    80004c32:	e208                	sd	a0,0(a2)
    80004c34:	8d7f050b          	.insn	4, 0x8d7f050b
    80004c38:	4dd8050b          	.insn	4, 0x4dd8050b
    80004c3c:	6af13023          	sd	a5,1696(sp)
    80004c40:	6c97850b          	.insn	4, 0x6c97850b
    80004c44:	0d4c050b          	.insn	4, 0x0d4c050b
    80004c48:	c475857b          	.insn	4, 0xc475857b
    80004c4c:	6585                	lui	a1,0x1
    80004c4e:	d685859b          	addiw	a1,a1,-664 # d68 <buflen.1+0xd28>
    80004c52:	958a                	add	a1,a1,sp
    80004c54:	e188                	sd	a0,0(a1)
    80004c56:	817a850b          	.insn	4, 0x817a850b
    80004c5a:	4511                	li	a0,4
    80004c5c:	8575050b          	.insn	4, 0x8575050b
    80004c60:	0dc7857b          	.insn	4, 0x0dc7857b
    80004c64:	6585                	lui	a1,0x1
    80004c66:	d505859b          	addiw	a1,a1,-688 # d50 <buflen.1+0xd10>
    80004c6a:	958a                	add	a1,a1,sp
    80004c6c:	e188                	sd	a0,0(a1)
    80004c6e:	0602b503          	ld	a0,96(t0)
    80004c72:	7ca13423          	sd	a0,1992(sp)
    80004c76:	0682b803          	ld	a6,104(t0)
    80004c7a:	7d013023          	sd	a6,1984(sp)
    80004c7e:	0702b483          	ld	s1,112(t0)
    80004c82:	0782b703          	ld	a4,120(t0)
    80004c86:	4505050b          	.insn	4, 0x4505050b
    80004c8a:	64e4850b          	.insn	4, 0x64e4850b
    80004c8e:	0802b603          	ld	a2,128(t0)
    80004c92:	0882b783          	ld	a5,136(t0)
    80004c96:	0902b683          	ld	a3,144(t0)
    80004c9a:	0982b503          	ld	a0,152(t0)
    80004c9e:	04f6058b          	.insn	4, 0x04f6058b
    80004ca2:	44a685fb          	.insn	4, 0x44a685fb
    80004ca6:	6885                	lui	a7,0x1
    80004ca8:	d088889b          	addiw	a7,a7,-760 # d08 <buflen.1+0xcc8>
    80004cac:	988a                	add	a7,a7,sp
    80004cae:	00b8b023          	sd	a1,0(a7)
    80004cb2:	8970858b          	.insn	4, 0x8970858b
    80004cb6:	68e4858b          	.insn	4, 0x68e4858b
    80004cba:	8ea6                	mv	t4,s1
    80004cbc:	78913c23          	sd	s1,1944(sp)
    80004cc0:	833a                	mv	t1,a4
    80004cc2:	08f6058b          	.insn	4, 0x08f6058b
    80004cc6:	0a02b383          	ld	t2,160(t0)
    80004cca:	28a6870b          	.insn	4, 0x28a6870b
    80004cce:	890385fb          	.insn	4, 0x890385fb
    80004cd2:	6705                	lui	a4,0x1
    80004cd4:	cf07071b          	addiw	a4,a4,-784 # cf0 <buflen.1+0xcb0>
    80004cd8:	970a                	add	a4,a4,sp
    80004cda:	e30c                	sd	a1,0(a4)
    80004cdc:	00f6070b          	.insn	4, 0x00f6070b
    80004ce0:	88be                	mv	a7,a5
    80004ce2:	8f32                	mv	t5,a2
    80004ce4:	7ac13423          	sd	a2,1960(sp)
    80004ce8:	20a6870b          	.insn	4, 0x20a6870b
    80004cec:	7ad13c23          	sd	a3,1976(sp)
    80004cf0:	0a82b703          	ld	a4,168(t0)
    80004cf4:	0b02b603          	ld	a2,176(t0)
    80004cf8:	40e3848b          	.insn	4, 0x40e3848b
    80004cfc:	0c6605fb          	.insn	4, 0x0c6605fb
    80004d00:	7a613823          	sd	t1,1968(sp)
    80004d04:	6785                	lui	a5,0x1
    80004d06:	ce87879b          	addiw	a5,a5,-792 # ce8 <buflen.1+0xca8>
    80004d0a:	978a                	add	a5,a5,sp
    80004d0c:	e38c                	sd	a1,0(a5)
    80004d0e:	0b82b803          	ld	a6,184(t0)
    80004d12:	498d                	li	s3,3
    80004d14:	8179878b          	.insn	4, 0x8179878b
    80004d18:	6106078b          	.insn	4, 0x6106078b
    80004d1c:	0c02b783          	ld	a5,192(t0)
    80004d20:	0c82b583          	ld	a1,200(t0)
    80004d24:	0d02be03          	ld	t3,208(t0)
    80004d28:	00b7808b          	.insn	4, 0x00b7808b
    80004d2c:	04ae04fb          	.insn	4, 0x04ae04fb
    80004d30:	6905                	lui	s2,0x1
    80004d32:	cd09091b          	addiw	s2,s2,-816 # cd0 <buflen.1+0xc90>
    80004d36:	990a                	add	s2,s2,sp
    80004d38:	00993023          	sd	s1,0(s2)
    80004d3c:	2ca6850b          	.insn	4, 0x2ca6850b
    80004d40:	8d7f850b          	.insn	4, 0x8d7f850b
    80004d44:	6c6e850b          	.insn	4, 0x6c6e850b
    80004d48:	7b113023          	sd	a7,1952(sp)
    80004d4c:	0d1f050b          	.insn	4, 0x0d1f050b
    80004d50:	c8e3857b          	.insn	4, 0xc8e3857b
    80004d54:	6685                	lui	a3,0x1
    80004d56:	cc06869b          	addiw	a3,a3,-832 # cc0 <buflen.1+0xc80>
    80004d5a:	968a                	add	a3,a3,sp
    80004d5c:	e288                	sd	a0,0(a3)
    80004d5e:	4685                	li	a3,1
    80004d60:	8976850b          	.insn	4, 0x8976850b
    80004d64:	48e3850b          	.insn	4, 0x48e3850b
    80004d68:	6906050b          	.insn	4, 0x6906050b
    80004d6c:	8117857b          	.insn	4, 0x8117857b
    80004d70:	6885                	lui	a7,0x1
    80004d72:	cb88889b          	addiw	a7,a7,-840 # cb8 <buflen.1+0xc78>
    80004d76:	988a                	add	a7,a7,sp
    80004d78:	00a8b023          	sd	a0,0(a7)
    80004d7c:	4895                	li	a7,5
    80004d7e:	8978850b          	.insn	4, 0x8978850b
    80004d82:	08b7850b          	.insn	4, 0x08b7850b
    80004d86:	0d82b503          	ld	a0,216(t0)
    80004d8a:	0e02b083          	ld	ra,224(t0)
    80004d8e:	28ae0d8b          	.insn	4, 0x28ae0d8b
    80004d92:	88e084fb          	.insn	4, 0x88e084fb
    80004d96:	6305                	lui	t1,0x1
    80004d98:	ca83031b          	addiw	t1,t1,-856 # ca8 <buflen.1+0xc68>
    80004d9c:	930a                	add	t1,t1,sp
    80004d9e:	00933023          	sd	s1,0(t1)
    80004da2:	44e3870b          	.insn	4, 0x44e3870b
    80004da6:	4d06077b          	.insn	4, 0x4d06077b
    80004daa:	6305                	lui	t1,0x1
    80004dac:	c983031b          	addiw	t1,t1,-872 # c98 <buflen.1+0xc58>
    80004db0:	930a                	add	t1,t1,sp
    80004db2:	00e33023          	sd	a4,0(t1)
    80004db6:	817a870b          	.insn	4, 0x817a870b
    80004dba:	20ae070b          	.insn	4, 0x20ae070b
    80004dbe:	0e82b703          	ld	a4,232(t0)
    80004dc2:	0f02b383          	ld	t2,240(t0)
    80004dc6:	40e0848b          	.insn	4, 0x40e0848b
    80004dca:	0d0384fb          	.insn	4, 0x0d0384fb
    80004dce:	6305                	lui	t1,0x1
    80004dd0:	c883031b          	addiw	t1,t1,-888 # c88 <buflen.1+0xc48>
    80004dd4:	930a                	add	t1,t1,sp
    80004dd6:	00933023          	sd	s1,0(t1)
    80004dda:	6d06048b          	.insn	4, 0x6d06048b
    80004dde:	4309                	li	t1,2
    80004de0:	8d73048b          	.insn	4, 0x8d73048b
    80004de4:	c0b7867b          	.insn	4, 0xc0b7867b
    80004de8:	6805                	lui	a6,0x1
    80004dea:	c788081b          	addiw	a6,a6,-904 # c78 <buflen.1+0xc38>
    80004dee:	980a                	add	a6,a6,sp
    80004df0:	00c83023          	sd	a2,0(a6)
    80004df4:	8976848b          	.insn	4, 0x8976848b
    80004df8:	48e0848b          	.insn	4, 0x48e0848b
    80004dfc:	0f82b483          	ld	s1,248(t0)
    80004e00:	1002b803          	ld	a6,256(t0)
    80004e04:	6893860b          	.insn	4, 0x6893860b
    80004e08:	80b8067b          	.insn	4, 0x80b8067b
    80004e0c:	6685                	lui	a3,0x1
    80004e0e:	c686869b          	addiw	a3,a3,-920 # c68 <buflen.1+0xc28>
    80004e12:	968a                	add	a3,a3,sp
    80004e14:	e290                	sd	a2,0(a3)
    80004e16:	04b7858b          	.insn	4, 0x04b7858b
    80004e1a:	44ae05fb          	.insn	4, 0x44ae05fb
    80004e1e:	6605                	lui	a2,0x1
    80004e20:	c586061b          	addiw	a2,a2,-936 # c58 <buflen.1+0xc18>
    80004e24:	960a                	add	a2,a2,sp
    80004e26:	e20c                	sd	a1,0(a2)
    80004e28:	8179858b          	.insn	4, 0x8179858b
    80004e2c:	6093858b          	.insn	4, 0x6093858b
    80004e30:	1082b583          	ld	a1,264(t0)
    80004e34:	1102bd83          	ld	s11,272(t0)
    80004e38:	00b8078b          	.insn	4, 0x00b8078b
    80004e3c:	04ad867b          	.insn	4, 0x04ad867b
    80004e40:	6685                	lui	a3,0x1
    80004e42:	c506869b          	addiw	a3,a3,-944 # c50 <buflen.1+0xc10>
    80004e46:	968a                	add	a3,a3,sp
    80004e48:	e290                	sd	a2,0(a3)
    80004e4a:	2cae050b          	.insn	4, 0x2cae050b
    80004e4e:	4699                	li	a3,6
    80004e50:	8d76850b          	.insn	4, 0x8d76850b
    80004e54:	c8e0857b          	.insn	4, 0xc8e0857b
    80004e58:	6605                	lui	a2,0x1
    80004e5a:	c486061b          	addiw	a2,a2,-952 # c48 <buflen.1+0xc08>
    80004e5e:	960a                	add	a2,a2,sp
    80004e60:	e208                	sd	a0,0(a2)
    80004e62:	8978850b          	.insn	4, 0x8978850b
    80004e66:	4e95                	li	t4,5
    80004e68:	08b8050b          	.insn	4, 0x08b8050b
    80004e6c:	1182b503          	ld	a0,280(t0)
    80004e70:	1202b883          	ld	a7,288(t0)
    80004e74:	28ad860b          	.insn	4, 0x28ad860b
    80004e78:	88e8867b          	.insn	4, 0x88e8867b
    80004e7c:	6785                	lui	a5,0x1
    80004e7e:	c407879b          	addiw	a5,a5,-960 # c40 <buflen.1+0xc00>
    80004e82:	978a                	add	a5,a5,sp
    80004e84:	e390                	sd	a2,0(a5)
    80004e86:	44e0860b          	.insn	4, 0x44e0860b
    80004e8a:	4c93867b          	.insn	4, 0x4c93867b
    80004e8e:	6705                	lui	a4,0x1
    80004e90:	c307071b          	addiw	a4,a4,-976 # c30 <buflen.1+0xbf0>
    80004e94:	970a                	add	a4,a4,sp
    80004e96:	e310                	sd	a2,0(a4)
    80004e98:	817a860b          	.insn	4, 0x817a860b
    80004e9c:	20ad860b          	.insn	4, 0x20ad860b
    80004ea0:	1282b603          	ld	a2,296(t0)
    80004ea4:	1302be03          	ld	t3,304(t0)
    80004ea8:	40c8870b          	.insn	4, 0x40c8870b
    80004eac:	0c9e077b          	.insn	4, 0x0c9e077b
    80004eb0:	6785                	lui	a5,0x1
    80004eb2:	c107879b          	addiw	a5,a5,-1008 # c10 <buflen.1+0xbd0>
    80004eb6:	978a                	add	a5,a5,sp
    80004eb8:	e398                	sd	a4,0(a5)
    80004eba:	6c93870b          	.insn	4, 0x6c93870b
    80004ebe:	8d73070b          	.insn	4, 0x8d73070b
    80004ec2:	4f09                	li	t5,2
    80004ec4:	c0b8077b          	.insn	4, 0xc0b8077b
    80004ec8:	6785                	lui	a5,0x1
    80004eca:	c087879b          	addiw	a5,a5,-1016 # c08 <buflen.1+0xbc8>
    80004ece:	978a                	add	a5,a5,sp
    80004ed0:	e398                	sd	a4,0(a5)
    80004ed2:	4305                	li	t1,1
    80004ed4:	8973070b          	.insn	4, 0x8973070b
    80004ed8:	48c8870b          	.insn	4, 0x48c8870b
    80004edc:	1382b703          	ld	a4,312(t0)
    80004ee0:	1402b483          	ld	s1,320(t0)
    80004ee4:	68ee078b          	.insn	4, 0x68ee078b
    80004ee8:	80b487fb          	.insn	4, 0x80b487fb
    80004eec:	6385                	lui	t2,0x1
    80004eee:	c003839b          	addiw	t2,t2,-1024 # c00 <buflen.1+0xbc0>
    80004ef2:	938a                	add	t2,t2,sp
    80004ef4:	00f3b023          	sd	a5,0(t2)
    80004ef8:	04b8058b          	.insn	4, 0x04b8058b
    80004efc:	44ad85fb          	.insn	4, 0x44ad85fb
    80004f00:	6785                	lui	a5,0x1
    80004f02:	bf87879b          	addiw	a5,a5,-1032 # bf8 <buflen.1+0xbb8>
    80004f06:	978a                	add	a5,a5,sp
    80004f08:	e38c                	sd	a1,0(a5)
    80004f0a:	408d                	li	ra,3
    80004f0c:	8170858b          	.insn	4, 0x8170858b
    80004f10:	60ee058b          	.insn	4, 0x60ee058b
    80004f14:	1482b583          	ld	a1,328(t0)
    80004f18:	1502b803          	ld	a6,336(t0)
    80004f1c:	00b4878b          	.insn	4, 0x00b4878b
    80004f20:	04a807fb          	.insn	4, 0x04a807fb
    80004f24:	6385                	lui	t2,0x1
    80004f26:	bf03839b          	addiw	t2,t2,-1040 # bf0 <buflen.1+0xbb0>
    80004f2a:	938a                	add	t2,t2,sp
    80004f2c:	00f3b023          	sd	a5,0(t2)
    80004f30:	2cad850b          	.insn	4, 0x2cad850b
    80004f34:	8d76850b          	.insn	4, 0x8d76850b
    80004f38:	4f99                	li	t6,6
    80004f3a:	c8c8857b          	.insn	4, 0xc8c8857b
    80004f3e:	6685                	lui	a3,0x1
    80004f40:	be86869b          	addiw	a3,a3,-1048 # be8 <buflen.1+0xba8>
    80004f44:	968a                	add	a3,a3,sp
    80004f46:	e288                	sd	a0,0(a3)
    80004f48:	897e850b          	.insn	4, 0x897e850b
    80004f4c:	08b4850b          	.insn	4, 0x08b4850b
    80004f50:	1582b503          	ld	a0,344(t0)
    80004f54:	1602b383          	ld	t2,352(t0)
    80004f58:	28a8078b          	.insn	4, 0x28a8078b
    80004f5c:	88c387fb          	.insn	4, 0x88c387fb
    80004f60:	6685                	lui	a3,0x1
    80004f62:	be06869b          	addiw	a3,a3,-1056 # be0 <buflen.1+0xba0>
    80004f66:	968a                	add	a3,a3,sp
    80004f68:	e29c                	sd	a5,0(a3)
    80004f6a:	44c8860b          	.insn	4, 0x44c8860b
    80004f6e:	4cee067b          	.insn	4, 0x4cee067b
    80004f72:	6685                	lui	a3,0x1
    80004f74:	bd86869b          	addiw	a3,a3,-1064 # bd8 <buflen.1+0xb98>
    80004f78:	968a                	add	a3,a3,sp
    80004f7a:	e290                	sd	a2,0(a3)
    80004f7c:	817a860b          	.insn	4, 0x817a860b
    80004f80:	20a8060b          	.insn	4, 0x20a8060b
    80004f84:	1682b603          	ld	a2,360(t0)
    80004f88:	1702b883          	ld	a7,368(t0)
    80004f8c:	40c3878b          	.insn	4, 0x40c3878b
    80004f90:	0ce887fb          	.insn	4, 0x0ce887fb
    80004f94:	6685                	lui	a3,0x1
    80004f96:	bc86869b          	addiw	a3,a3,-1080 # bc8 <buflen.1+0xb88>
    80004f9a:	968a                	add	a3,a3,sp
    80004f9c:	e29c                	sd	a5,0(a3)
    80004f9e:	6cee070b          	.insn	4, 0x6cee070b
    80004fa2:	8d7f070b          	.insn	4, 0x8d7f070b
    80004fa6:	c0b4877b          	.insn	4, 0xc0b4877b
    80004faa:	6685                	lui	a3,0x1
    80004fac:	bb86869b          	addiw	a3,a3,-1096 # bb8 <buflen.1+0xb78>
    80004fb0:	968a                	add	a3,a3,sp
    80004fb2:	e298                	sd	a4,0(a3)
    80004fb4:	8973070b          	.insn	4, 0x8973070b
    80004fb8:	4c05                	li	s8,1
    80004fba:	48c3870b          	.insn	4, 0x48c3870b
    80004fbe:	1782b703          	ld	a4,376(t0)
    80004fc2:	1802be03          	ld	t3,384(t0)
    80004fc6:	68e8878b          	.insn	4, 0x68e8878b
    80004fca:	80be07fb          	.insn	4, 0x80be07fb
    80004fce:	6685                	lui	a3,0x1
    80004fd0:	ba86869b          	addiw	a3,a3,-1112 # ba8 <buflen.1+0xb68>
    80004fd4:	968a                	add	a3,a3,sp
    80004fd6:	e29c                	sd	a5,0(a3)
    80004fd8:	04b4858b          	.insn	4, 0x04b4858b
    80004fdc:	44a805fb          	.insn	4, 0x44a805fb
    80004fe0:	6685                	lui	a3,0x1
    80004fe2:	ba06869b          	addiw	a3,a3,-1120 # ba0 <buflen.1+0xb60>
    80004fe6:	968a                	add	a3,a3,sp
    80004fe8:	e28c                	sd	a1,0(a3)
    80004fea:	8170858b          	.insn	4, 0x8170858b
    80004fee:	468d                	li	a3,3
    80004ff0:	60e8858b          	.insn	4, 0x60e8858b
    80004ff4:	1882b583          	ld	a1,392(t0)
    80004ff8:	1902bd83          	ld	s11,400(t0)
    80004ffc:	00be048b          	.insn	4, 0x00be048b
    80005000:	04ad87fb          	.insn	4, 0x04ad87fb
    80005004:	6305                	lui	t1,0x1
    80005006:	b983031b          	addiw	t1,t1,-1128 # b98 <buflen.1+0xb58>
    8000500a:	930a                	add	t1,t1,sp
    8000500c:	00f33023          	sd	a5,0(t1)
    80005010:	2ca8050b          	.insn	4, 0x2ca8050b
    80005014:	8d7f850b          	.insn	4, 0x8d7f850b
    80005018:	c8c3857b          	.insn	4, 0xc8c3857b
    8000501c:	6785                	lui	a5,0x1
    8000501e:	b907879b          	addiw	a5,a5,-1136 # b90 <buflen.1+0xb50>
    80005022:	978a                	add	a5,a5,sp
    80005024:	e388                	sd	a0,0(a5)
    80005026:	897e850b          	.insn	4, 0x897e850b
    8000502a:	08be050b          	.insn	4, 0x08be050b
    8000502e:	1982b503          	ld	a0,408(t0)
    80005032:	1a02b483          	ld	s1,416(t0)
    80005036:	28ad878b          	.insn	4, 0x28ad878b
    8000503a:	88c487fb          	.insn	4, 0x88c487fb
    8000503e:	6805                	lui	a6,0x1
    80005040:	b888081b          	addiw	a6,a6,-1144 # b88 <buflen.1+0xb48>
    80005044:	980a                	add	a6,a6,sp
    80005046:	00f83023          	sd	a5,0(a6)
    8000504a:	44c3860b          	.insn	4, 0x44c3860b
    8000504e:	4ce8867b          	.insn	4, 0x4ce8867b
    80005052:	6785                	lui	a5,0x1
    80005054:	b807879b          	addiw	a5,a5,-1152 # b80 <buflen.1+0xb40>
    80005058:	978a                	add	a5,a5,sp
    8000505a:	e390                	sd	a2,0(a5)
    8000505c:	817a860b          	.insn	4, 0x817a860b
    80005060:	20ad860b          	.insn	4, 0x20ad860b
    80005064:	1a82b603          	ld	a2,424(t0)
    80005068:	1b02b803          	ld	a6,432(t0)
    8000506c:	40c4878b          	.insn	4, 0x40c4878b
    80005070:	0ce807fb          	.insn	4, 0x0ce807fb
    80005074:	6305                	lui	t1,0x1
    80005076:	b783031b          	addiw	t1,t1,-1160 # b78 <buflen.1+0xb38>
    8000507a:	930a                	add	t1,t1,sp
    8000507c:	00f33023          	sd	a5,0(t1)
    80005080:	6ce8870b          	.insn	4, 0x6ce8870b
    80005084:	8d7f070b          	.insn	4, 0x8d7f070b
    80005088:	c0be077b          	.insn	4, 0xc0be077b
    8000508c:	6785                	lui	a5,0x1
    8000508e:	b687879b          	addiw	a5,a5,-1176 # b68 <buflen.1+0xb28>
    80005092:	978a                	add	a5,a5,sp
    80005094:	e398                	sd	a4,0(a5)
    80005096:	897c070b          	.insn	4, 0x897c070b
    8000509a:	48c4870b          	.insn	4, 0x48c4870b
    8000509e:	1b82b703          	ld	a4,440(t0)
    800050a2:	1c02b883          	ld	a7,448(t0)
    800050a6:	68e8078b          	.insn	4, 0x68e8078b
    800050aa:	80b887fb          	.insn	4, 0x80b887fb
    800050ae:	6305                	lui	t1,0x1
    800050b0:	b603031b          	addiw	t1,t1,-1184 # b60 <buflen.1+0xb20>
    800050b4:	930a                	add	t1,t1,sp
    800050b6:	00f33023          	sd	a5,0(t1)
    800050ba:	04be058b          	.insn	4, 0x04be058b
    800050be:	44ad85fb          	.insn	4, 0x44ad85fb
    800050c2:	6785                	lui	a5,0x1
    800050c4:	b587879b          	addiw	a5,a5,-1192 # b58 <buflen.1+0xb18>
    800050c8:	978a                	add	a5,a5,sp
    800050ca:	e38c                	sd	a1,0(a5)
    800050cc:	8176858b          	.insn	4, 0x8176858b
    800050d0:	490d                	li	s2,3
    800050d2:	60e8058b          	.insn	4, 0x60e8058b
    800050d6:	1c82b583          	ld	a1,456(t0)
    800050da:	1d02b383          	ld	t2,464(t0)
    800050de:	00b8878b          	.insn	4, 0x00b8878b
    800050e2:	04a387fb          	.insn	4, 0x04a387fb
    800050e6:	6685                	lui	a3,0x1
    800050e8:	b506869b          	addiw	a3,a3,-1200 # b50 <buflen.1+0xb10>
    800050ec:	968a                	add	a3,a3,sp
    800050ee:	e29c                	sd	a5,0(a3)
    800050f0:	2cad850b          	.insn	4, 0x2cad850b
    800050f4:	8d7f850b          	.insn	4, 0x8d7f850b
    800050f8:	c8c4857b          	.insn	4, 0xc8c4857b
    800050fc:	6685                	lui	a3,0x1
    800050fe:	b486869b          	addiw	a3,a3,-1208 # b48 <buflen.1+0xb08>
    80005102:	968a                	add	a3,a3,sp
    80005104:	e288                	sd	a0,0(a3)
    80005106:	897e850b          	.insn	4, 0x897e850b
    8000510a:	08b8850b          	.insn	4, 0x08b8850b
    8000510e:	1d82b503          	ld	a0,472(t0)
    80005112:	1e02be03          	ld	t3,480(t0)
    80005116:	28a3878b          	.insn	4, 0x28a3878b
    8000511a:	88ce07fb          	.insn	4, 0x88ce07fb
    8000511e:	6685                	lui	a3,0x1
    80005120:	b406869b          	addiw	a3,a3,-1216 # b40 <buflen.1+0xb00>
    80005124:	968a                	add	a3,a3,sp
    80005126:	e29c                	sd	a5,0(a3)
    80005128:	44c4860b          	.insn	4, 0x44c4860b
    8000512c:	4ce8067b          	.insn	4, 0x4ce8067b
    80005130:	6685                	lui	a3,0x1
    80005132:	b386869b          	addiw	a3,a3,-1224 # b38 <buflen.1+0xaf8>
    80005136:	968a                	add	a3,a3,sp
    80005138:	e290                	sd	a2,0(a3)
    8000513a:	817a860b          	.insn	4, 0x817a860b
    8000513e:	20a3860b          	.insn	4, 0x20a3860b
    80005142:	1e82b603          	ld	a2,488(t0)
    80005146:	1f02b083          	ld	ra,496(t0)
    8000514a:	40ce078b          	.insn	4, 0x40ce078b
    8000514e:	0ce087fb          	.insn	4, 0x0ce087fb
    80005152:	6685                	lui	a3,0x1
    80005154:	b306869b          	addiw	a3,a3,-1232 # b30 <buflen.1+0xaf0>
    80005158:	968a                	add	a3,a3,sp
    8000515a:	e29c                	sd	a5,0(a3)
    8000515c:	6ce8070b          	.insn	4, 0x6ce8070b
    80005160:	8d7f070b          	.insn	4, 0x8d7f070b
    80005164:	c0b8877b          	.insn	4, 0xc0b8877b
    80005168:	6685                	lui	a3,0x1
    8000516a:	b286869b          	addiw	a3,a3,-1240 # b28 <buflen.1+0xae8>
    8000516e:	968a                	add	a3,a3,sp
    80005170:	e298                	sd	a4,0(a3)
    80005172:	897c070b          	.insn	4, 0x897c070b
    80005176:	48ce070b          	.insn	4, 0x48ce070b
    8000517a:	1f82b703          	ld	a4,504(t0)
    8000517e:	2002b803          	ld	a6,512(t0)
    80005182:	68e0878b          	.insn	4, 0x68e0878b
    80005186:	80b807fb          	.insn	4, 0x80b807fb
    8000518a:	6685                	lui	a3,0x1
    8000518c:	b206869b          	addiw	a3,a3,-1248 # b20 <buflen.1+0xae0>
    80005190:	968a                	add	a3,a3,sp
    80005192:	e29c                	sd	a5,0(a3)
    80005194:	04b8858b          	.insn	4, 0x04b8858b
    80005198:	44a385fb          	.insn	4, 0x44a385fb
    8000519c:	6685                	lui	a3,0x1
    8000519e:	b186869b          	addiw	a3,a3,-1256 # b18 <buflen.1+0xad8>
    800051a2:	968a                	add	a3,a3,sp
    800051a4:	e28c                	sd	a1,0(a3)
    800051a6:	8179058b          	.insn	4, 0x8179058b
    800051aa:	60e0858b          	.insn	4, 0x60e0858b
    800051ae:	2082b783          	ld	a5,520(t0)
    800051b2:	2102b583          	ld	a1,528(t0)
    800051b6:	00f8048b          	.insn	4, 0x00f8048b
    800051ba:	04a584fb          	.insn	4, 0x04a584fb
    800051be:	6685                	lui	a3,0x1
    800051c0:	b106869b          	addiw	a3,a3,-1264 # b10 <buflen.1+0xad0>
    800051c4:	968a                	add	a3,a3,sp
    800051c6:	e284                	sd	s1,0(a3)
    800051c8:	2ca3850b          	.insn	4, 0x2ca3850b
    800051cc:	8d7f850b          	.insn	4, 0x8d7f850b
    800051d0:	c8ce057b          	.insn	4, 0xc8ce057b
    800051d4:	6685                	lui	a3,0x1
    800051d6:	b086869b          	addiw	a3,a3,-1272 # b08 <buflen.1+0xac8>
    800051da:	968a                	add	a3,a3,sp
    800051dc:	e288                	sd	a0,0(a3)
    800051de:	897e850b          	.insn	4, 0x897e850b
    800051e2:	08f8050b          	.insn	4, 0x08f8050b
    800051e6:	2182bd83          	ld	s11,536(t0)
    800051ea:	2202b883          	ld	a7,544(t0)
    800051ee:	29b5848b          	.insn	4, 0x29b5848b
    800051f2:	88c8857b          	.insn	4, 0x88c8857b
    800051f6:	6685                	lui	a3,0x1
    800051f8:	b006869b          	addiw	a3,a3,-1280 # b00 <buflen.1+0xac0>
    800051fc:	968a                	add	a3,a3,sp
    800051fe:	e288                	sd	a0,0(a3)
    80005200:	44ce060b          	.insn	4, 0x44ce060b
    80005204:	4ce0857b          	.insn	4, 0x4ce0857b
    80005208:	6605                	lui	a2,0x1
    8000520a:	af86061b          	addiw	a2,a2,-1288 # af8 <buflen.1+0xab8>
    8000520e:	960a                	add	a2,a2,sp
    80005210:	e208                	sd	a0,0(a2)
    80005212:	817a860b          	.insn	4, 0x817a860b
    80005216:	21b5860b          	.insn	4, 0x21b5860b
    8000521a:	2282be03          	ld	t3,552(t0)
    8000521e:	2302b303          	ld	t1,560(t0)
    80005222:	41c8848b          	.insn	4, 0x41c8848b
    80005226:	0ce3057b          	.insn	4, 0x0ce3057b
    8000522a:	6605                	lui	a2,0x1
    8000522c:	af06061b          	addiw	a2,a2,-1296 # af0 <buflen.1+0xab0>
    80005230:	960a                	add	a2,a2,sp
    80005232:	e208                	sd	a0,0(a2)
    80005234:	6ce0870b          	.insn	4, 0x6ce0870b
    80005238:	4509                	li	a0,2
    8000523a:	8d75070b          	.insn	4, 0x8d75070b
    8000523e:	c0f8067b          	.insn	4, 0xc0f8067b
    80005242:	6685                	lui	a3,0x1
    80005244:	ae86869b          	addiw	a3,a3,-1304 # ae8 <buflen.1+0xaa8>
    80005248:	968a                	add	a3,a3,sp
    8000524a:	e290                	sd	a2,0(a3)
    8000524c:	897c070b          	.insn	4, 0x897c070b
    80005250:	49c8870b          	.insn	4, 0x49c8870b
    80005254:	2382b083          	ld	ra,568(t0)
    80005258:	2402bc83          	ld	s9,576(t0)
    8000525c:	6813048b          	.insn	4, 0x6813048b
    80005260:	80fc867b          	.insn	4, 0x80fc867b
    80005264:	6685                	lui	a3,0x1
    80005266:	ae06869b          	addiw	a3,a3,-1312 # ae0 <buflen.1+0xaa0>
    8000526a:	968a                	add	a3,a3,sp
    8000526c:	e290                	sd	a2,0(a3)
    8000526e:	04f8078b          	.insn	4, 0x04f8078b
    80005272:	45b5867b          	.insn	4, 0x45b5867b
    80005276:	6685                	lui	a3,0x1
    80005278:	ad86869b          	addiw	a3,a3,-1320 # ad8 <buflen.1+0xa98>
    8000527c:	968a                	add	a3,a3,sp
    8000527e:	e290                	sd	a2,0(a3)
    80005280:	2db5858b          	.insn	4, 0x2db5858b
    80005284:	4f19                	li	t5,6
    80005286:	8d7f058b          	.insn	4, 0x8d7f058b
    8000528a:	c9c885fb          	.insn	4, 0xc9c885fb
    8000528e:	6605                	lui	a2,0x1
    80005290:	ad06061b          	addiw	a2,a2,-1328 # ad0 <buflen.1+0xa90>
    80005294:	960a                	add	a2,a2,sp
    80005296:	e20c                	sd	a1,0(a2)
    80005298:	45c8858b          	.insn	4, 0x45c8858b
    8000529c:	4c1305fb          	.insn	4, 0x4c1305fb
    800052a0:	6605                	lui	a2,0x1
    800052a2:	ac86061b          	addiw	a2,a2,-1336 # ac8 <buflen.1+0xa88>
    800052a6:	960a                	add	a2,a2,sp
    800052a8:	e20c                	sd	a1,0(a2)
    800052aa:	8d75058b          	.insn	4, 0x8d75058b
    800052ae:	4e89                	li	t4,2
    800052b0:	2482b383          	ld	t2,584(t0)
    800052b4:	6c13058b          	.insn	4, 0x6c13058b
    800052b8:	c07c857b          	.insn	4, 0xc07c857b
    800052bc:	6585                	lui	a1,0x1
    800052be:	ac05859b          	addiw	a1,a1,-1344 # ac0 <buflen.1+0xa80>
    800052c2:	958a                	add	a1,a1,sp
    800052c4:	e188                	sd	a0,0(a1)
    800052c6:	857a858b          	.insn	4, 0x857a858b
    800052ca:	6505                	lui	a0,0x1
    800052cc:	a805051b          	addiw	a0,a0,-1408 # a80 <buflen.1+0xa40>
    800052d0:	950a                	add	a0,a0,sp
    800052d2:	6110                	ld	a2,0(a0)
    800052d4:	05a6058b          	.insn	4, 0x05a6058b
    800052d8:	6505                	lui	a0,0x1
    800052da:	a885051b          	addiw	a0,a0,-1400 # a88 <buflen.1+0xa48>
    800052de:	950a                	add	a0,a0,sp
    800052e0:	6114                	ld	a3,0(a0)
    800052e2:	6505                	lui	a0,0x1
    800052e4:	a905051b          	addiw	a0,a0,-1392 # a90 <buflen.1+0xa50>
    800052e8:	950a                	add	a0,a0,sp
    800052ea:	6118                	ld	a4,0(a0)
    800052ec:	24d7058b          	.insn	4, 0x24d7058b
    800052f0:	12843803          	ld	a6,296(s0)
    800052f4:	13043783          	ld	a5,304(s0)
    800052f8:	6505                	lui	a0,0x1
    800052fa:	a785051b          	addiw	a0,a0,-1416 # a78 <buflen.1+0xa38>
    800052fe:	950a                	add	a0,a0,sp
    80005300:	610c                	ld	a1,0(a0)
    80005302:	4505848b          	.insn	4, 0x4505848b
    80005306:	6505                	lui	a0,0x1
    80005308:	aa85051b          	addiw	a0,a0,-1368 # aa8 <buflen.1+0xa68>
    8000530c:	950a                	add	a0,a0,sp
    8000530e:	6104                	ld	s1,0(a0)
    80005310:	4c97857b          	.insn	4, 0x4c97857b
    80005314:	6f85                	lui	t6,0x1
    80005316:	ab8f8f9b          	addiw	t6,t6,-1352 # ab8 <buflen.1+0xa78>
    8000531a:	9f8a                	add	t6,t6,sp
    8000531c:	00afb023          	sd	a0,0(t6)
    80005320:	6505                	lui	a0,0x1
    80005322:	ab05051b          	addiw	a0,a0,-1360 # ab0 <buflen.1+0xa70>
    80005326:	950a                	add	a0,a0,sp
    80005328:	6108                	ld	a0,0(a0)
    8000532a:	6095048b          	.insn	4, 0x6095048b
    8000532e:	817f048b          	.insn	4, 0x817f048b
    80005332:	4f19                	li	t5,6
    80005334:	01a6048b          	.insn	4, 0x01a6048b
    80005338:	89b2                	mv	s3,a2
    8000533a:	20d7048b          	.insn	4, 0x20d7048b
    8000533e:	0905857b          	.insn	4, 0x0905857b
    80005342:	6605                	lui	a2,0x1
    80005344:	ab06061b          	addiw	a2,a2,-1360 # ab0 <buflen.1+0xa70>
    80005348:	960a                	add	a2,a2,sp
    8000534a:	e208                	sd	a0,0(a2)
    8000534c:	8d7c048b          	.insn	4, 0x8d7c048b
    80005350:	2cd7048b          	.insn	4, 0x2cd7048b
    80005354:	8fba                	mv	t6,a4
    80005356:	4d05848b          	.insn	4, 0x4d05848b
    8000535a:	84ae                	mv	s1,a1
    8000535c:	13843a03          	ld	s4,312(s0)
    80005360:	14043703          	ld	a4,320(s0)
    80005364:	6d47860b          	.insn	4, 0x6d47860b
    80005368:	c1a7057b          	.insn	4, 0xc1a7057b
    8000536c:	6585                	lui	a1,0x1
    8000536e:	aa85859b          	addiw	a1,a1,-1368 # aa8 <buflen.1+0xa68>
    80005372:	958a                	add	a1,a1,sp
    80005374:	e188                	sd	a0,0(a1)
    80005376:	8579060b          	.insn	4, 0x8579060b
    8000537a:	6547860b          	.insn	4, 0x6547860b
    8000537e:	14843603          	ld	a2,328(s0)
    80005382:	15043583          	ld	a1,336(s0)
    80005386:	04c7050b          	.insn	4, 0x04c7050b
    8000538a:	44d5857b          	.insn	4, 0x44d5857b
    8000538e:	6905                	lui	s2,0x1
    80005390:	aa09091b          	addiw	s2,s2,-1376 # aa0 <buflen.1+0xa60>
    80005394:	990a                	add	s2,s2,sp
    80005396:	00a93023          	sd	a0,0(s2)
    8000539a:	09a9850b          	.insn	4, 0x09a9850b
    8000539e:	28df850b          	.insn	4, 0x28df850b
    800053a2:	4904850b          	.insn	4, 0x4904850b
    800053a6:	8d47857b          	.insn	4, 0x8d47857b
    800053aa:	6685                	lui	a3,0x1
    800053ac:	a906869b          	addiw	a3,a3,-1392 # a90 <buflen.1+0xa50>
    800053b0:	968a                	add	a3,a3,sp
    800053b2:	e288                	sd	a0,0(a3)
    800053b4:	6147850b          	.insn	4, 0x6147850b
    800053b8:	817e850b          	.insn	4, 0x817e850b
    800053bc:	00c7057b          	.insn	4, 0x00c7057b
    800053c0:	6685                	lui	a3,0x1
    800053c2:	a806869b          	addiw	a3,a3,-1408 # a80 <buflen.1+0xa40>
    800053c6:	968a                	add	a3,a3,sp
    800053c8:	e288                	sd	a0,0(a3)
    800053ca:	4991                	li	s3,4
    800053cc:	8979850b          	.insn	4, 0x8979850b
    800053d0:	08c7050b          	.insn	4, 0x08c7050b
    800053d4:	6505                	lui	a0,0x1
    800053d6:	a585051b          	addiw	a0,a0,-1448 # a58 <buflen.1+0xa18>
    800053da:	950a                	add	a0,a0,sp
    800053dc:	611c                	ld	a5,0(a0)
    800053de:	84f5857b          	.insn	4, 0x84f5857b
    800053e2:	6685                	lui	a3,0x1
    800053e4:	a886869b          	addiw	a3,a3,-1400 # a88 <buflen.1+0xa48>
    800053e8:	968a                	add	a3,a3,sp
    800053ea:	e288                	sd	a0,0(a3)
    800053ec:	6505                	lui	a0,0x1
    800053ee:	a285051b          	addiw	a0,a0,-1496 # a28 <buflen.1+0x9e8>
    800053f2:	950a                	add	a0,a0,sp
    800053f4:	6104                	ld	s1,0(a0)
    800053f6:	4d04850b          	.insn	4, 0x4d04850b
    800053fa:	0cc7050b          	.insn	4, 0x0cc7050b
    800053fe:	4f95                	li	t6,5
    80005400:	8d7f850b          	.insn	4, 0x8d7f850b
    80005404:	c4f5857b          	.insn	4, 0xc4f5857b
    80005408:	6685                	lui	a3,0x1
    8000540a:	a786869b          	addiw	a3,a3,-1416 # a78 <buflen.1+0xa38>
    8000540e:	968a                	add	a3,a3,sp
    80005410:	e288                	sd	a0,0(a3)
    80005412:	817f050b          	.insn	4, 0x817f050b
    80005416:	6505                	lui	a0,0x1
    80005418:	a985051b          	addiw	a0,a0,-1384 # a98 <buflen.1+0xa58>
    8000541c:	950a                	add	a0,a0,sp
    8000541e:	6114                	ld	a3,0(a0)
    80005420:	40d4850b          	.insn	4, 0x40d4850b
    80005424:	04f5857b          	.insn	4, 0x04f5857b
    80005428:	6705                	lui	a4,0x1
    8000542a:	a687071b          	addiw	a4,a4,-1432 # a68 <buflen.1+0xa28>
    8000542e:	970a                	add	a4,a4,sp
    80005430:	e308                	sd	a0,0(a4)
    80005432:	24f5850b          	.insn	4, 0x24f5850b
    80005436:	857a850b          	.insn	4, 0x857a850b
    8000543a:	44d4850b          	.insn	4, 0x44d4850b
    8000543e:	6505                	lui	a0,0x1
    80005440:	a205051b          	addiw	a0,a0,-1504 # a20 <buflen.1+0x9e0>
    80005444:	950a                	add	a0,a0,sp
    80005446:	611c                	ld	a5,0(a0)
    80005448:	4d47857b          	.insn	4, 0x4d47857b
    8000544c:	6585                	lui	a1,0x1
    8000544e:	a585859b          	addiw	a1,a1,-1448 # a58 <buflen.1+0xa18>
    80005452:	958a                	add	a1,a1,sp
    80005454:	e188                	sd	a0,0(a1)
    80005456:	8d7c050b          	.insn	4, 0x8d7c050b
    8000545a:	4cd4850b          	.insn	4, 0x4cd4850b
    8000545e:	8726                	mv	a4,s1
    80005460:	6505                	lui	a0,0x1
    80005462:	a405051b          	addiw	a0,a0,-1472 # a40 <buflen.1+0xa00>
    80005466:	950a                	add	a0,a0,sp
    80005468:	610c                	ld	a1,0(a0)
    8000546a:	6cb7850b          	.insn	4, 0x6cb7850b
    8000546e:	6505                	lui	a0,0x1
    80005470:	a705051b          	addiw	a0,a0,-1424 # a70 <buflen.1+0xa30>
    80005474:	950a                	add	a0,a0,sp
    80005476:	6104                	ld	s1,0(a0)
    80005478:	c0c4857b          	.insn	4, 0xc0c4857b
    8000547c:	6605                	lui	a2,0x1
    8000547e:	a386061b          	addiw	a2,a2,-1480 # a38 <buflen.1+0x9f8>
    80005482:	960a                	add	a2,a2,sp
    80005484:	e208                	sd	a0,0(a2)
    80005486:	48d7050b          	.insn	4, 0x48d7050b
    8000548a:	8736                	mv	a4,a3
    8000548c:	8cb7857b          	.insn	4, 0x8cb7857b
    80005490:	6605                	lui	a2,0x1
    80005492:	a286061b          	addiw	a2,a2,-1496 # a28 <buflen.1+0x9e8>
    80005496:	960a                	add	a2,a2,sp
    80005498:	e208                	sd	a0,0(a2)
    8000549a:	4809                	li	a6,2
    8000549c:	8178050b          	.insn	4, 0x8178050b
    800054a0:	60b7850b          	.insn	4, 0x60b7850b
    800054a4:	6505                	lui	a0,0x1
    800054a6:	a485051b          	addiw	a0,a0,-1464 # a48 <buflen.1+0xa08>
    800054aa:	950a                	add	a0,a0,sp
    800054ac:	6114                	ld	a3,0(a0)
    800054ae:	00d4857b          	.insn	4, 0x00d4857b
    800054b2:	6605                	lui	a2,0x1
    800054b4:	a086061b          	addiw	a2,a2,-1528 # a08 <buflen.1+0x9c8>
    800054b8:	960a                	add	a2,a2,sp
    800054ba:	e208                	sd	a0,0(a2)
    800054bc:	64b7850b          	.insn	4, 0x64b7850b
    800054c0:	8eae                	mv	t4,a1
    800054c2:	8579850b          	.insn	4, 0x8579850b
    800054c6:	4c11                	li	s8,4
    800054c8:	04d4850b          	.insn	4, 0x04d4850b
    800054cc:	6505                	lui	a0,0x1
    800054ce:	a605051b          	addiw	a0,a0,-1440 # a60 <buflen.1+0xa20>
    800054d2:	950a                	add	a0,a0,sp
    800054d4:	610c                	ld	a1,0(a0)
    800054d6:	6505                	lui	a0,0x1
    800054d8:	a305051b          	addiw	a0,a0,-1488 # a30 <buflen.1+0x9f0>
    800054dc:	950a                	add	a0,a0,sp
    800054de:	611c                	ld	a5,0(a0)
    800054e0:	44b7857b          	.insn	4, 0x44b7857b
    800054e4:	6605                	lui	a2,0x1
    800054e6:	a006061b          	addiw	a2,a2,-1536 # a00 <buflen.1+0x9c0>
    800054ea:	960a                	add	a2,a2,sp
    800054ec:	e208                	sd	a0,0(a2)
    800054ee:	6505                	lui	a0,0x1
    800054f0:	a505051b          	addiw	a0,a0,-1456 # a50 <buflen.1+0xa10>
    800054f4:	950a                	add	a0,a0,sp
    800054f6:	6110                	ld	a2,0(a0)
    800054f8:	48e6050b          	.insn	4, 0x48e6050b
    800054fc:	897f850b          	.insn	4, 0x897f850b
    80005500:	4a95                	li	s5,5
    80005502:	08d4850b          	.insn	4, 0x08d4850b
    80005506:	84b7857b          	.insn	4, 0x84b7857b
    8000550a:	6705                	lui	a4,0x1
    8000550c:	a987071b          	addiw	a4,a4,-1384 # a98 <buflen.1+0xa58>
    80005510:	970a                	add	a4,a4,sp
    80005512:	e308                	sd	a0,0(a4)
    80005514:	0cd4850b          	.insn	4, 0x0cd4850b
    80005518:	8fb6                	mv	t6,a3
    8000551a:	8d7f050b          	.insn	4, 0x8d7f050b
    8000551e:	6505                	lui	a0,0x1
    80005520:	5c05051b          	addiw	a0,a0,1472 # 15c0 <buflen.1+0x1580>
    80005524:	950a                	add	a0,a0,sp
    80005526:	6118                	ld	a4,0(a0)
    80005528:	4ce6050b          	.insn	4, 0x4ce6050b
    8000552c:	c4b7857b          	.insn	4, 0xc4b7857b
    80005530:	84be                	mv	s1,a5
    80005532:	86ae                	mv	a3,a1
    80005534:	6585                	lui	a1,0x1
    80005536:	a705859b          	addiw	a1,a1,-1424 # a70 <buflen.1+0xa30>
    8000553a:	958a                	add	a1,a1,sp
    8000553c:	e188                	sd	a0,0(a1)
    8000553e:	6505                	lui	a0,0x1
    80005540:	5c85051b          	addiw	a0,a0,1480 # 15c8 <buflen.1+0x1588>
    80005544:	950a                	add	a0,a0,sp
    80005546:	611c                	ld	a5,0(a0)
    80005548:	61d7850b          	.insn	4, 0x61d7850b
    8000554c:	459d                	li	a1,7
    8000554e:	8175850b          	.insn	4, 0x8175850b
    80005552:	40e6050b          	.insn	4, 0x40e6050b
    80005556:	04d4857b          	.insn	4, 0x04d4857b
    8000555a:	6685                	lui	a3,0x1
    8000555c:	a606869b          	addiw	a3,a3,-1440 # a60 <buflen.1+0xa20>
    80005560:	968a                	add	a3,a3,sp
    80005562:	e288                	sd	a0,0(a3)
    80005564:	4e85                	li	t4,1
    80005566:	897e850b          	.insn	4, 0x897e850b
    8000556a:	48e6050b          	.insn	4, 0x48e6050b
    8000556e:	86ba                	mv	a3,a4
    80005570:	6505                	lui	a0,0x1
    80005572:	5d05051b          	addiw	a0,a0,1488 # 15d0 <buflen.1+0x1590>
    80005576:	950a                	add	a0,a0,sp
    80005578:	6104                	ld	s1,0(a0)
    8000557a:	6897850b          	.insn	4, 0x6897850b
    8000557e:	6505                	lui	a0,0x1
    80005580:	5b85051b          	addiw	a0,a0,1464 # 15b8 <buflen.1+0x1578>
    80005584:	950a                	add	a0,a0,sp
    80005586:	6118                	ld	a4,0(a0)
    80005588:	81f7057b          	.insn	4, 0x81f7057b
    8000558c:	6f85                	lui	t6,0x1
    8000558e:	a48f8f9b          	addiw	t6,t6,-1464 # a48 <buflen.1+0xa08>
    80005592:	9f8a                	add	t6,t6,sp
    80005594:	00afb023          	sd	a0,0(t6)
    80005598:	44d6050b          	.insn	4, 0x44d6050b
    8000559c:	4c97857b          	.insn	4, 0x4c97857b
    800055a0:	6605                	lui	a2,0x1
    800055a2:	a406061b          	addiw	a2,a2,-1472 # a40 <buflen.1+0xa00>
    800055a6:	960a                	add	a2,a2,sp
    800055a8:	e208                	sd	a0,0(a2)
    800055aa:	8d78050b          	.insn	4, 0x8d78050b
    800055ae:	4d09                	li	s10,2
    800055b0:	6c97850b          	.insn	4, 0x6c97850b
    800055b4:	883e                	mv	a6,a5
    800055b6:	6505                	lui	a0,0x1
    800055b8:	5b05051b          	addiw	a0,a0,1456 # 15b0 <buflen.1+0x1570>
    800055bc:	950a                	add	a0,a0,sp
    800055be:	611c                	ld	a5,0(a0)
    800055c0:	c0f7057b          	.insn	4, 0xc0f7057b
    800055c4:	6605                	lui	a2,0x1
    800055c6:	a206061b          	addiw	a2,a2,-1504 # a20 <buflen.1+0x9e0>
    800055ca:	960a                	add	a2,a2,sp
    800055cc:	e208                	sd	a0,0(a2)
    800055ce:	8975850b          	.insn	4, 0x8975850b
    800055d2:	499d                	li	s3,7
    800055d4:	08f7050b          	.insn	4, 0x08f7050b
    800055d8:	6505                	lui	a0,0x1
    800055da:	5a85051b          	addiw	a0,a0,1448 # 15a8 <buflen.1+0x1568>
    800055de:	950a                	add	a0,a0,sp
    800055e0:	610c                	ld	a1,0(a0)
    800055e2:	6505                	lui	a0,0x1
    800055e4:	9f85051b          	addiw	a0,a0,-1544 # 9f8 <buflen.1+0x9b8>
    800055e8:	950a                	add	a0,a0,sp
    800055ea:	00053f83          	ld	t6,0(a0)
    800055ee:	29f5850b          	.insn	4, 0x29f5850b
    800055f2:	6505                	lui	a0,0x1
    800055f4:	9a05051b          	addiw	a0,a0,-1632 # 9a0 <buflen.1+0x960>
    800055f8:	950a                	add	a0,a0,sp
    800055fa:	6114                	ld	a3,0(a0)
    800055fc:	6505                	lui	a0,0x1
    800055fe:	a185051b          	addiw	a0,a0,-1512 # a18 <buflen.1+0x9d8>
    80005602:	950a                	add	a0,a0,sp
    80005604:	6110                	ld	a2,0(a0)
    80005606:	48c6850b          	.insn	4, 0x48c6850b
    8000560a:	6505                	lui	a0,0x1
    8000560c:	a105051b          	addiw	a0,a0,-1520 # a10 <buflen.1+0x9d0>
    80005610:	950a                	add	a0,a0,sp
    80005612:	00053a03          	ld	s4,0(a0)
    80005616:	8c9a057b          	.insn	4, 0x8c9a057b
    8000561a:	6905                	lui	s2,0x1
    8000561c:	a309091b          	addiw	s2,s2,-1488 # a30 <buflen.1+0x9f0>
    80005620:	990a                	add	s2,s2,sp
    80005622:	00a93023          	sd	a0,0(s2)
    80005626:	6098050b          	.insn	4, 0x6098050b
    8000562a:	817c050b          	.insn	4, 0x817c050b
    8000562e:	00f7050b          	.insn	4, 0x00f7050b
    80005632:	05f5857b          	.insn	4, 0x05f5857b
    80005636:	6805                	lui	a6,0x1
    80005638:	9e08081b          	addiw	a6,a6,-1568 # 9e0 <buflen.1+0x9a0>
    8000563c:	980a                	add	a6,a6,sp
    8000563e:	00a83023          	sd	a0,0(a6)
    80005642:	817e850b          	.insn	4, 0x817e850b
    80005646:	40c6850b          	.insn	4, 0x40c6850b
    8000564a:	6505                	lui	a0,0x1
    8000564c:	9b85051b          	addiw	a0,a0,-1608 # 9b8 <buflen.1+0x978>
    80005650:	950a                	add	a0,a0,sp
    80005652:	6104                	ld	s1,0(a0)
    80005654:	609a050b          	.insn	4, 0x609a050b
    80005658:	6505                	lui	a0,0x1
    8000565a:	9f05051b          	addiw	a0,a0,-1552 # 9f0 <buflen.1+0x9b0>
    8000565e:	950a                	add	a0,a0,sp
    80005660:	00053803          	ld	a6,0(a0)
    80005664:	00f8057b          	.insn	4, 0x00f8057b
    80005668:	6905                	lui	s2,0x1
    8000566a:	a509091b          	addiw	s2,s2,-1456 # a50 <buflen.1+0xa10>
    8000566e:	990a                	add	s2,s2,sp
    80005670:	00a93023          	sd	a0,0(s2)
    80005674:	04f7050b          	.insn	4, 0x04f7050b
    80005678:	857f050b          	.insn	4, 0x857f050b
    8000567c:	25f5850b          	.insn	4, 0x25f5850b
    80005680:	48c6857b          	.insn	4, 0x48c6857b
    80005684:	6705                	lui	a4,0x1
    80005686:	9c07071b          	addiw	a4,a4,-1600 # 9c0 <buflen.1+0x980>
    8000568a:	970a                	add	a4,a4,sp
    8000568c:	e308                	sd	a0,0(a4)
    8000568e:	2df5850b          	.insn	4, 0x2df5850b
    80005692:	4cc6850b          	.insn	4, 0x4cc6850b
    80005696:	cc9a057b          	.insn	4, 0xcc9a057b
    8000569a:	6585                	lui	a1,0x1
    8000569c:	9f85859b          	addiw	a1,a1,-1544 # 9f8 <buflen.1+0x9b8>
    800056a0:	958a                	add	a1,a1,sp
    800056a2:	e188                	sd	a0,0(a1)
    800056a4:	649a050b          	.insn	4, 0x649a050b
    800056a8:	857d050b          	.insn	4, 0x857d050b
    800056ac:	6505                	lui	a0,0x1
    800056ae:	9d85051b          	addiw	a0,a0,-1576 # 9d8 <buflen.1+0x998>
    800056b2:	950a                	add	a0,a0,sp
    800056b4:	6110                	ld	a2,0(a0)
    800056b6:	40c8057b          	.insn	4, 0x40c8057b
    800056ba:	6585                	lui	a1,0x1
    800056bc:	a185859b          	addiw	a1,a1,-1512 # a18 <buflen.1+0x9d8>
    800056c0:	958a                	add	a1,a1,sp
    800056c2:	e188                	sd	a0,0(a1)
    800056c4:	897e850b          	.insn	4, 0x897e850b
    800056c8:	6505                	lui	a0,0x1
    800056ca:	9e85051b          	addiw	a0,a0,-1560 # 9e8 <buflen.1+0x9a8>
    800056ce:	950a                	add	a0,a0,sp
    800056d0:	00053e83          	ld	t4,0(a0)
    800056d4:	6505                	lui	a0,0x1
    800056d6:	9a85051b          	addiw	a0,a0,-1624 # 9a8 <buflen.1+0x968>
    800056da:	950a                	add	a0,a0,sp
    800056dc:	00053f83          	ld	t6,0(a0)
    800056e0:	29fe850b          	.insn	4, 0x29fe850b
    800056e4:	6505                	lui	a0,0x1
    800056e6:	9d05051b          	addiw	a0,a0,-1584 # 9d0 <buflen.1+0x990>
    800056ea:	950a                	add	a0,a0,sp
    800056ec:	6114                	ld	a3,0(a0)
    800056ee:	6505                	lui	a0,0x1
    800056f0:	9785051b          	addiw	a0,a0,-1672 # 978 <buflen.1+0x938>
    800056f4:	950a                	add	a0,a0,sp
    800056f6:	611c                	ld	a5,0(a0)
    800056f8:	48d7850b          	.insn	4, 0x48d7850b
    800056fc:	24043503          	ld	a0,576(s0)
    80005700:	6585                	lui	a1,0x1
    80005702:	9b05859b          	addiw	a1,a1,-1616 # 9b0 <buflen.1+0x970>
    80005706:	958a                	add	a1,a1,sp
    80005708:	6184                	ld	s1,0(a1)
    8000570a:	689b058b          	.insn	4, 0x689b058b
    8000570e:	80c505fb          	.insn	4, 0x80c505fb
    80005712:	6605                	lui	a2,0x1
    80005714:	a106061b          	addiw	a2,a2,-1520 # a10 <buflen.1+0x9d0>
    80005718:	960a                	add	a2,a2,sp
    8000571a:	e20c                	sd	a1,0(a2)
    8000571c:	480d                	li	a6,3
    8000571e:	8178058b          	.insn	4, 0x8178058b
    80005722:	40d7858b          	.insn	4, 0x40d7858b
    80005726:	609b058b          	.insn	4, 0x609b058b
    8000572a:	24843583          	ld	a1,584(s0)
    8000572e:	25043603          	ld	a2,592(s0)
    80005732:	00b5070b          	.insn	4, 0x00b5070b
    80005736:	05f6077b          	.insn	4, 0x05f6077b
    8000573a:	6905                	lui	s2,0x1
    8000573c:	9f09091b          	addiw	s2,s2,-1552 # 9f0 <buflen.1+0x9b0>
    80005740:	990a                	add	s2,s2,sp
    80005742:	00e93023          	sd	a4,0(s2)
    80005746:	2dfe870b          	.insn	4, 0x2dfe870b
    8000574a:	4cd7870b          	.insn	4, 0x4cd7870b
    8000574e:	6c9b070b          	.insn	4, 0x6c9b070b
    80005752:	c0b5077b          	.insn	4, 0xc0b5077b
    80005756:	6e85                	lui	t4,0x1
    80005758:	9e8e8e9b          	addiw	t4,t4,-1560 # 9e8 <buflen.1+0x9a8>
    8000575c:	9e8a                	add	t4,t4,sp
    8000575e:	00eeb023          	sd	a4,0(t4)
    80005762:	44d7870b          	.insn	4, 0x44d7870b
    80005766:	649b070b          	.insn	4, 0x649b070b
    8000576a:	8ea6                	mv	t4,s1
    8000576c:	857c070b          	.insn	4, 0x857c070b
    80005770:	25843903          	ld	s2,600(s0)
    80005774:	04b5078b          	.insn	4, 0x04b5078b
    80005778:	452607fb          	.insn	4, 0x452607fb
    8000577c:	6705                	lui	a4,0x1
    8000577e:	9d87071b          	addiw	a4,a4,-1576 # 9d8 <buflen.1+0x998>
    80005782:	970a                	add	a4,a4,sp
    80005784:	e31c                	sd	a5,0(a4)
    80005786:	6705                	lui	a4,0x1
    80005788:	9987071b          	addiw	a4,a4,-1640 # 998 <buflen.1+0x958>
    8000578c:	970a                	add	a4,a4,sp
    8000578e:	6304                	ld	s1,0(a4)
    80005790:	48d4878b          	.insn	4, 0x48d4878b
    80005794:	08b5050b          	.insn	4, 0x08b5050b
    80005798:	897a850b          	.insn	4, 0x897a850b
    8000579c:	8526057b          	.insn	4, 0x8526057b
    800057a0:	6685                	lui	a3,0x1
    800057a2:	9d06869b          	addiw	a3,a3,-1584 # 9d0 <buflen.1+0x990>
    800057a6:	968a                	add	a3,a3,sp
    800057a8:	e288                	sd	a0,0(a3)
    800057aa:	8d7f050b          	.insn	4, 0x8d7f050b
    800057ae:	6505                	lui	a0,0x1
    800057b0:	9905051b          	addiw	a0,a0,-1648 # 990 <buflen.1+0x950>
    800057b4:	950a                	add	a0,a0,sp
    800057b6:	6118                	ld	a4,0(a0)
    800057b8:	4ce4850b          	.insn	4, 0x4ce4850b
    800057bc:	c526057b          	.insn	4, 0xc526057b
    800057c0:	6685                	lui	a3,0x1
    800057c2:	9b86869b          	addiw	a3,a3,-1608 # 9b8 <buflen.1+0x978>
    800057c6:	968a                	add	a3,a3,sp
    800057c8:	e288                	sd	a0,0(a3)
    800057ca:	6505                	lui	a0,0x1
    800057cc:	9885051b          	addiw	a0,a0,-1656 # 988 <buflen.1+0x948>
    800057d0:	950a                	add	a0,a0,sp
    800057d2:	6114                	ld	a3,0(a0)
    800057d4:	61d6850b          	.insn	4, 0x61d6850b
    800057d8:	8179850b          	.insn	4, 0x8179850b
    800057dc:	40e4850b          	.insn	4, 0x40e4850b
    800057e0:	0526057b          	.insn	4, 0x0526057b
    800057e4:	6605                	lui	a2,0x1
    800057e6:	9b06061b          	addiw	a2,a2,-1616 # 9b0 <buflen.1+0x970>
    800057ea:	960a                	add	a2,a2,sp
    800057ec:	e208                	sd	a0,0(a2)
    800057ee:	4f85                	li	t6,1
    800057f0:	897f850b          	.insn	4, 0x897f850b
    800057f4:	48e4850b          	.insn	4, 0x48e4850b
    800057f8:	8b26                	mv	s6,s1
    800057fa:	8eba                	mv	t4,a4
    800057fc:	6505                	lui	a0,0x1
    800057fe:	9805051b          	addiw	a0,a0,-1664 # 980 <buflen.1+0x940>
    80005802:	950a                	add	a0,a0,sp
    80005804:	6118                	ld	a4,0(a0)
    80005806:	68e6850b          	.insn	4, 0x68e6850b
    8000580a:	6505                	lui	a0,0x1
    8000580c:	9705051b          	addiw	a0,a0,-1680 # 970 <buflen.1+0x930>
    80005810:	950a                	add	a0,a0,sp
    80005812:	6104                	ld	s1,0(a0)
    80005814:	80b4857b          	.insn	4, 0x80b4857b
    80005818:	6585                	lui	a1,0x1
    8000581a:	9a85859b          	addiw	a1,a1,-1624 # 9a8 <buflen.1+0x968>
    8000581e:	958a                	add	a1,a1,sp
    80005820:	e188                	sd	a0,0(a1)
    80005822:	8178050b          	.insn	4, 0x8178050b
    80005826:	4a0d                	li	s4,3
    80005828:	60e6850b          	.insn	4, 0x60e6850b
    8000582c:	6505                	lui	a0,0x1
    8000582e:	9685051b          	addiw	a0,a0,-1688 # 968 <buflen.1+0x928>
    80005832:	950a                	add	a0,a0,sp
    80005834:	6110                	ld	a2,0(a0)
    80005836:	00c4850b          	.insn	4, 0x00c4850b
    8000583a:	6505                	lui	a0,0x1
    8000583c:	9585051b          	addiw	a0,a0,-1704 # 958 <buflen.1+0x918>
    80005840:	950a                	add	a0,a0,sp
    80005842:	611c                	ld	a5,0(a0)
    80005844:	0527857b          	.insn	4, 0x0527857b
    80005848:	6585                	lui	a1,0x1
    8000584a:	9a05859b          	addiw	a1,a1,-1632 # 9a0 <buflen.1+0x960>
    8000584e:	958a                	add	a1,a1,sp
    80005850:	e188                	sd	a0,0(a1)
    80005852:	45db050b          	.insn	4, 0x45db050b
    80005856:	4ce6857b          	.insn	4, 0x4ce6857b
    8000585a:	8936                	mv	s2,a3
    8000585c:	6585                	lui	a1,0x1
    8000585e:	9985859b          	addiw	a1,a1,-1640 # 998 <buflen.1+0x958>
    80005862:	958a                	add	a1,a1,sp
    80005864:	e188                	sd	a0,0(a1)
    80005866:	857a850b          	.insn	4, 0x857a850b
    8000586a:	04c4850b          	.insn	4, 0x04c4850b
    8000586e:	2a043803          	ld	a6,672(s0)
    80005872:	6505                	lui	a0,0x1
    80005874:	9505051b          	addiw	a0,a0,-1712 # 950 <buflen.1+0x910>
    80005878:	950a                	add	a0,a0,sp
    8000587a:	6114                	ld	a3,0(a0)
    8000587c:	24d7858b          	.insn	4, 0x24d7858b
    80005880:	49d8057b          	.insn	4, 0x49d8057b
    80005884:	6585                	lui	a1,0x1
    80005886:	9905859b          	addiw	a1,a1,-1648 # 990 <buflen.1+0x950>
    8000588a:	958a                	add	a1,a1,sp
    8000588c:	e188                	sd	a0,0(a1)
    8000588e:	6ce9058b          	.insn	4, 0x6ce9058b
    80005892:	893a                	mv	s2,a4
    80005894:	8d7d058b          	.insn	4, 0x8d7d058b
    80005898:	c0c4857b          	.insn	4, 0xc0c4857b
    8000589c:	8c26                	mv	s8,s1
    8000589e:	6585                	lui	a1,0x1
    800058a0:	9885859b          	addiw	a1,a1,-1656 # 988 <buflen.1+0x948>
    800058a4:	958a                	add	a1,a1,sp
    800058a6:	e188                	sd	a0,0(a1)
    800058a8:	8d79858b          	.insn	4, 0x8d79858b
    800058ac:	2cd7858b          	.insn	4, 0x2cd7858b
    800058b0:	8b3e                	mv	s6,a5
    800058b2:	2a843583          	ld	a1,680(s0)
    800058b6:	2b043e83          	ld	t4,688(s0)
    800058ba:	4cb8070b          	.insn	4, 0x4cb8070b
    800058be:	cd2e857b          	.insn	4, 0xcd2e857b
    800058c2:	6705                	lui	a4,0x1
    800058c4:	9807071b          	addiw	a4,a4,-1664 # 980 <buflen.1+0x940>
    800058c8:	970a                	add	a4,a4,sp
    800058ca:	e308                	sd	a0,0(a4)
    800058cc:	857f870b          	.insn	4, 0x857f870b
    800058d0:	4905                	li	s2,1
    800058d2:	44b8070b          	.insn	4, 0x44b8070b
    800058d6:	2b843703          	ld	a4,696(s0)
    800058da:	2c043f83          	ld	t6,704(s0)
    800058de:	64ee848b          	.insn	4, 0x64ee848b
    800058e2:	40cf857b          	.insn	4, 0x40cf857b
    800058e6:	6485                	lui	s1,0x1
    800058e8:	9784849b          	addiw	s1,s1,-1672 # 978 <buflen.1+0x938>
    800058ec:	948a                	add	s1,s1,sp
    800058ee:	e088                	sd	a0,0(s1)
    800058f0:	08cc048b          	.insn	4, 0x08cc048b
    800058f4:	897f048b          	.insn	4, 0x897f048b
    800058f8:	28d7848b          	.insn	4, 0x28d7848b
    800058fc:	88b8057b          	.insn	4, 0x88b8057b
    80005900:	6605                	lui	a2,0x1
    80005902:	9706061b          	addiw	a2,a2,-1680 # 970 <buflen.1+0x930>
    80005906:	960a                	add	a2,a2,sp
    80005908:	e208                	sd	a0,0(a2)
    8000590a:	8d7a048b          	.insn	4, 0x8d7a048b
    8000590e:	6cee848b          	.insn	4, 0x6cee848b
    80005912:	2c843483          	ld	s1,712(s0)
    80005916:	2d043f03          	ld	t5,720(s0)
    8000591a:	0c9f860b          	.insn	4, 0x0c9f860b
    8000591e:	c4df057b          	.insn	4, 0xc4df057b
    80005922:	6605                	lui	a2,0x1
    80005924:	9686061b          	addiw	a2,a2,-1688 # 968 <buflen.1+0x928>
    80005928:	960a                	add	a2,a2,sp
    8000592a:	e208                	sd	a0,0(a2)
    8000592c:	857a860b          	.insn	4, 0x857a860b
    80005930:	049f860b          	.insn	4, 0x049f860b
    80005934:	2d843603          	ld	a2,728(s0)
    80005938:	2e043503          	ld	a0,736(s0)
    8000593c:	24cf078b          	.insn	4, 0x24cf078b
    80005940:	48b507fb          	.insn	4, 0x48b507fb
    80005944:	6a05                	lui	s4,0x1
    80005946:	960a0a1b          	addiw	s4,s4,-1696 # 960 <buflen.1+0x920>
    8000594a:	9a0a                	add	s4,s4,sp
    8000594c:	00fa3023          	sd	a5,0(s4)
    80005950:	20db078b          	.insn	4, 0x20db078b
    80005954:	40b8058b          	.insn	4, 0x40b8058b
    80005958:	0cee85fb          	.insn	4, 0x0cee85fb
    8000595c:	6685                	lui	a3,0x1
    8000595e:	9586869b          	addiw	a3,a3,-1704 # 958 <buflen.1+0x918>
    80005962:	968a                	add	a3,a3,sp
    80005964:	e28c                	sd	a1,0(a3)
    80005966:	8d79858b          	.insn	4, 0x8d79858b
    8000596a:	2ccf058b          	.insn	4, 0x2ccf058b
    8000596e:	2e843983          	ld	s3,744(s0)
    80005972:	2f043783          	ld	a5,752(s0)
    80005976:	4d35058b          	.insn	4, 0x4d35058b
    8000597a:	cce785fb          	.insn	4, 0xcce785fb
    8000597e:	6685                	lui	a3,0x1
    80005980:	9506869b          	addiw	a3,a3,-1712 # 950 <buflen.1+0x910>
    80005984:	968a                	add	a3,a3,sp
    80005986:	e28c                	sd	a1,0(a3)
    80005988:	68ee858b          	.insn	4, 0x68ee858b
    8000598c:	897d058b          	.insn	4, 0x897d058b
    80005990:	809f85fb          	.insn	4, 0x809f85fb
    80005994:	6685                	lui	a3,0x1
    80005996:	9406869b          	addiw	a3,a3,-1728 # 940 <buflen.1+0x900>
    8000599a:	968a                	add	a3,a3,sp
    8000599c:	e28c                	sd	a1,0(a3)
    8000599e:	8579058b          	.insn	4, 0x8579058b
    800059a2:	4535058b          	.insn	4, 0x4535058b
    800059a6:	2f843a03          	ld	s4,760(s0)
    800059aa:	30043e83          	ld	t4,768(s0)
    800059ae:	6547870b          	.insn	4, 0x6547870b
    800059b2:	409e85fb          	.insn	4, 0x409e85fb
    800059b6:	6685                	lui	a3,0x1
    800059b8:	9486869b          	addiw	a3,a3,-1720 # 948 <buflen.1+0x908>
    800059bc:	968a                	add	a3,a3,sp
    800059be:	e28c                	sd	a1,0(a3)
    800059c0:	009f870b          	.insn	4, 0x009f870b
    800059c4:	4691                	li	a3,4
    800059c6:	8176870b          	.insn	4, 0x8176870b
    800059ca:	04cf05fb          	.insn	4, 0x04cf05fb
    800059ce:	6705                	lui	a4,0x1
    800059d0:	9387071b          	addiw	a4,a4,-1736 # 938 <buflen.1+0x8f8>
    800059d4:	970a                	add	a4,a4,sp
    800059d6:	e30c                	sd	a1,0(a4)
    800059d8:	480d                	li	a6,3
    800059da:	8d78070b          	.insn	4, 0x8d78070b
    800059de:	6d47870b          	.insn	4, 0x6d47870b
    800059e2:	30843f83          	ld	t6,776(s0)
    800059e6:	31043483          	ld	s1,784(s0)
    800059ea:	0dfe858b          	.insn	4, 0x0dfe858b
    800059ee:	c4c485fb          	.insn	4, 0xc4c485fb
    800059f2:	6705                	lui	a4,0x1
    800059f4:	9307071b          	addiw	a4,a4,-1744 # 930 <buflen.1+0x8f0>
    800059f8:	970a                	add	a4,a4,sp
    800059fa:	e30c                	sd	a1,0(a4)
    800059fc:	28cf058b          	.insn	4, 0x28cf058b
    80005a00:	4f19                	li	t5,6
    80005a02:	897f058b          	.insn	4, 0x897f058b
    80005a06:	893505fb          	.insn	4, 0x893505fb
    80005a0a:	6605                	lui	a2,0x1
    80005a0c:	9286061b          	addiw	a2,a2,-1752 # 928 <buflen.1+0x8e8>
    80005a10:	960a                	add	a2,a2,sp
    80005a12:	e20c                	sd	a1,0(a2)
    80005a14:	4135050b          	.insn	4, 0x4135050b
    80005a18:	0d47857b          	.insn	4, 0x0d47857b
    80005a1c:	6585                	lui	a1,0x1
    80005a1e:	9205859b          	addiw	a1,a1,-1760 # 920 <buflen.1+0x8e0>
    80005a22:	958a                	add	a1,a1,sp
    80005a24:	e188                	sd	a0,0(a1)
    80005a26:	8178050b          	.insn	4, 0x8178050b
    80005a2a:	4c0d                	li	s8,3
    80005a2c:	41c8850b          	.insn	4, 0x41c8850b
    80005a30:	6013050b          	.insn	4, 0x6013050b
    80005a34:	2502b803          	ld	a6,592(t0)
    80005a38:	007c850b          	.insn	4, 0x007c850b
    80005a3c:	05b8057b          	.insn	4, 0x05b8057b
    80005a40:	6585                	lui	a1,0x1
    80005a42:	5a85859b          	addiw	a1,a1,1448 # 15a8 <buflen.1+0x1568>
    80005a46:	958a                	add	a1,a1,sp
