
mainop_O2U4_YN.riscv:     file format elf64-littleriscv


Disassembly of section .text.init:

0000000080000000 <_start>:
    80000000:	4081                	li	ra,0
    80000002:	4101                	li	sp,0
    80000004:	4181                	li	gp,0
    80000006:	4201                	li	tp,0
    80000008:	4281                	li	t0,0
    8000000a:	4301                	li	t1,0
    8000000c:	4381                	li	t2,0
    8000000e:	4401                	li	s0,0
    80000010:	4481                	li	s1,0
    80000012:	4501                	li	a0,0
    80000014:	4581                	li	a1,0
    80000016:	4601                	li	a2,0
    80000018:	4681                	li	a3,0
    8000001a:	4701                	li	a4,0
    8000001c:	4781                	li	a5,0
    8000001e:	4801                	li	a6,0
    80000020:	4881                	li	a7,0
    80000022:	4901                	li	s2,0
    80000024:	4981                	li	s3,0
    80000026:	4a01                	li	s4,0
    80000028:	4a81                	li	s5,0
    8000002a:	4b01                	li	s6,0
    8000002c:	4b81                	li	s7,0
    8000002e:	4c01                	li	s8,0
    80000030:	4c81                	li	s9,0
    80000032:	4d01                	li	s10,0
    80000034:	4d81                	li	s11,0
    80000036:	4e01                	li	t3,0
    80000038:	4e81                	li	t4,0
    8000003a:	4f01                	li	t5,0
    8000003c:	4f81                	li	t6,0
    8000003e:	62f9                	lui	t0,0x1e
    80000040:	3002a073          	csrs	mstatus,t0
    80000044:	4285                	li	t0,1
    80000046:	02fe                	slli	t0,t0,0x1f
    80000048:	0002d863          	bgez	t0,80000058 <_start+0x58>
    8000004c:	4505                	li	a0,1
    8000004e:	00001297          	auipc	t0,0x1
    80000052:	faa2a923          	sw	a0,-78(t0) # 80001000 <tohost>
    80000056:	bfdd                	j	8000004c <_start+0x4c>
    80000058:	00000297          	auipc	t0,0x0
    8000005c:	09028293          	addi	t0,t0,144 # 800000e8 <_start+0xe8>
    80000060:	30529073          	csrw	mtvec,t0
    80000064:	00301073          	fscsr	zero
    80000068:	f0000053          	fmv.w.x	ft0,zero
    8000006c:	f00000d3          	fmv.w.x	ft1,zero
    80000070:	f0000153          	fmv.w.x	ft2,zero
    80000074:	f00001d3          	fmv.w.x	ft3,zero
    80000078:	f0000253          	fmv.w.x	ft4,zero
    8000007c:	f00002d3          	fmv.w.x	ft5,zero
    80000080:	f0000353          	fmv.w.x	ft6,zero
    80000084:	f00003d3          	fmv.w.x	ft7,zero
    80000088:	f0000453          	fmv.w.x	fs0,zero
    8000008c:	f00004d3          	fmv.w.x	fs1,zero
    80000090:	f0000553          	fmv.w.x	fa0,zero
    80000094:	f00005d3          	fmv.w.x	fa1,zero
    80000098:	f0000653          	fmv.w.x	fa2,zero
    8000009c:	f00006d3          	fmv.w.x	fa3,zero
    800000a0:	f0000753          	fmv.w.x	fa4,zero
    800000a4:	f00007d3          	fmv.w.x	fa5,zero
    800000a8:	f0000853          	fmv.w.x	fa6,zero
    800000ac:	f00008d3          	fmv.w.x	fa7,zero
    800000b0:	f0000953          	fmv.w.x	fs2,zero
    800000b4:	f00009d3          	fmv.w.x	fs3,zero
    800000b8:	f0000a53          	fmv.w.x	fs4,zero
    800000bc:	f0000ad3          	fmv.w.x	fs5,zero
    800000c0:	f0000b53          	fmv.w.x	fs6,zero
    800000c4:	f0000bd3          	fmv.w.x	fs7,zero
    800000c8:	f0000c53          	fmv.w.x	fs8,zero
    800000cc:	f0000cd3          	fmv.w.x	fs9,zero
    800000d0:	f0000d53          	fmv.w.x	fs10,zero
    800000d4:	f0000dd3          	fmv.w.x	fs11,zero
    800000d8:	f0000e53          	fmv.w.x	ft8,zero
    800000dc:	f0000ed3          	fmv.w.x	ft9,zero
    800000e0:	f0000f53          	fmv.w.x	ft10,zero
    800000e4:	f0000fd3          	fmv.w.x	ft11,zero
    800000e8:	00000297          	auipc	t0,0x0
    800000ec:	03c28293          	addi	t0,t0,60 # 80000124 <trap_entry>
    800000f0:	30529073          	csrw	mtvec,t0
    800000f4:	0000a197          	auipc	gp,0xa
    800000f8:	7ac18193          	addi	gp,gp,1964 # 8000a8a0 <__global_pointer$>
    800000fc:	00010217          	auipc	tp,0x10
    80000100:	e0320213          	addi	tp,tp,-509 # 8000feff <_end+0x3f>
    80000104:	fc027213          	andi	tp,tp,-64
    80000108:	f1402573          	csrr	a0,mhartid
    8000010c:	4585                	li	a1,1
    8000010e:	00b57063          	bgeu	a0,a1,8000010e <_start+0x10e>
    80000112:	00150113          	addi	sp,a0,1
    80000116:	0146                	slli	sp,sp,0x11
    80000118:	9112                	add	sp,sp,tp
    8000011a:	01151613          	slli	a2,a0,0x11
    8000011e:	9232                	add	tp,tp,a2
    80000120:	7280906f          	j	80009848 <_init>

0000000080000124 <trap_entry>:
    80000124:	716d                	addi	sp,sp,-272
    80000126:	e406                	sd	ra,8(sp)
    80000128:	e80a                	sd	sp,16(sp)
    8000012a:	ec0e                	sd	gp,24(sp)
    8000012c:	f012                	sd	tp,32(sp)
    8000012e:	f416                	sd	t0,40(sp)
    80000130:	f81a                	sd	t1,48(sp)
    80000132:	fc1e                	sd	t2,56(sp)
    80000134:	e0a2                	sd	s0,64(sp)
    80000136:	e4a6                	sd	s1,72(sp)
    80000138:	e8aa                	sd	a0,80(sp)
    8000013a:	ecae                	sd	a1,88(sp)
    8000013c:	f0b2                	sd	a2,96(sp)
    8000013e:	f4b6                	sd	a3,104(sp)
    80000140:	f8ba                	sd	a4,112(sp)
    80000142:	fcbe                	sd	a5,120(sp)
    80000144:	e142                	sd	a6,128(sp)
    80000146:	e546                	sd	a7,136(sp)
    80000148:	e94a                	sd	s2,144(sp)
    8000014a:	ed4e                	sd	s3,152(sp)
    8000014c:	f152                	sd	s4,160(sp)
    8000014e:	f556                	sd	s5,168(sp)
    80000150:	f95a                	sd	s6,176(sp)
    80000152:	fd5e                	sd	s7,184(sp)
    80000154:	e1e2                	sd	s8,192(sp)
    80000156:	e5e6                	sd	s9,200(sp)
    80000158:	e9ea                	sd	s10,208(sp)
    8000015a:	edee                	sd	s11,216(sp)
    8000015c:	f1f2                	sd	t3,224(sp)
    8000015e:	f5f6                	sd	t4,232(sp)
    80000160:	f9fa                	sd	t5,240(sp)
    80000162:	fdfe                	sd	t6,248(sp)
    80000164:	34202573          	csrr	a0,mcause
    80000168:	341025f3          	csrr	a1,mepc
    8000016c:	860a                	mv	a2,sp
    8000016e:	512090ef          	jal	80009680 <handle_trap>
    80000172:	34151073          	csrw	mepc,a0
    80000176:	6289                	lui	t0,0x2
    80000178:	8002829b          	addiw	t0,t0,-2048 # 1800 <buflen.1+0x17c0>
    8000017c:	3002a073          	csrs	mstatus,t0
    80000180:	60a2                	ld	ra,8(sp)
    80000182:	6142                	ld	sp,16(sp)
    80000184:	61e2                	ld	gp,24(sp)
    80000186:	7202                	ld	tp,32(sp)
    80000188:	72a2                	ld	t0,40(sp)
    8000018a:	7342                	ld	t1,48(sp)
    8000018c:	73e2                	ld	t2,56(sp)
    8000018e:	6406                	ld	s0,64(sp)
    80000190:	64a6                	ld	s1,72(sp)
    80000192:	6546                	ld	a0,80(sp)
    80000194:	65e6                	ld	a1,88(sp)
    80000196:	7606                	ld	a2,96(sp)
    80000198:	76a6                	ld	a3,104(sp)
    8000019a:	7746                	ld	a4,112(sp)
    8000019c:	77e6                	ld	a5,120(sp)
    8000019e:	680a                	ld	a6,128(sp)
    800001a0:	68aa                	ld	a7,136(sp)
    800001a2:	694a                	ld	s2,144(sp)
    800001a4:	69ea                	ld	s3,152(sp)
    800001a6:	7a0a                	ld	s4,160(sp)
    800001a8:	7aaa                	ld	s5,168(sp)
    800001aa:	7b4a                	ld	s6,176(sp)
    800001ac:	7bea                	ld	s7,184(sp)
    800001ae:	6c0e                	ld	s8,192(sp)
    800001b0:	6cae                	ld	s9,200(sp)
    800001b2:	6d4e                	ld	s10,208(sp)
    800001b4:	6dee                	ld	s11,216(sp)
    800001b6:	7e0e                	ld	t3,224(sp)
    800001b8:	7eae                	ld	t4,232(sp)
    800001ba:	7f4e                	ld	t5,240(sp)
    800001bc:	7fee                	ld	t6,248(sp)
    800001be:	6151                	addi	sp,sp,272
    800001c0:	30200073          	mret
    800001c4:	0000                	unimp

Disassembly of section .text:

0000000080002000 <d2ull>:
    80002000:	e2050553          	fmv.x.d	a0,fa0
    80002004:	8082                	ret

0000000080002006 <ull2d>:
    80002006:	f2050553          	fmv.d.x	fa0,a0
    8000200a:	8082                	ret

000000008000200c <main>:
    8000200c:	81010113          	addi	sp,sp,-2032
    80002010:	7e113423          	sd	ra,2024(sp)
    80002014:	7e813023          	sd	s0,2016(sp)
    80002018:	7c913c23          	sd	s1,2008(sp)
    8000201c:	7d213823          	sd	s2,2000(sp)
    80002020:	7d313423          	sd	s3,1992(sp)
    80002024:	7d413023          	sd	s4,1984(sp)
    80002028:	7b513c23          	sd	s5,1976(sp)
    8000202c:	7b613823          	sd	s6,1968(sp)
    80002030:	7b713423          	sd	s7,1960(sp)
    80002034:	7b813023          	sd	s8,1952(sp)
    80002038:	79913c23          	sd	s9,1944(sp)
    8000203c:	79a13823          	sd	s10,1936(sp)
    80002040:	79b13423          	sd	s11,1928(sp)
    80002044:	80010113          	addi	sp,sp,-2048
    80002048:	1101                	addi	sp,sp,-32
    8000204a:	4701                	li	a4,0
    8000204c:	00008517          	auipc	a0,0x8
    80002050:	07450513          	addi	a0,a0,116 # 8000a0c0 <gen2+0x1d0>
    80002054:	610c                	ld	a1,0(a0)
    80002056:	00008817          	auipc	a6,0x8
    8000205a:	07a80813          	addi	a6,a6,122 # 8000a0d0 <gen1>
    8000205e:	00083683          	ld	a3,0(a6)
    80002062:	00008e17          	auipc	t3,0x8
    80002066:	07ee0e13          	addi	t3,t3,126 # 8000a0e0 <input>
    8000206a:	00008617          	auipc	a2,0x8
    8000206e:	05e60613          	addi	a2,a2,94 # 8000a0c8 <gen2+0x1d8>
    80002072:	6210                	ld	a2,0(a2)
    80002074:	3b9ad7b7          	lui	a5,0x3b9ad
    80002078:	a077829b          	addiw	t0,a5,-1529 # 3b9aca07 <buflen.1+0x3b9ac9c7>
    8000207c:	40000893          	li	a7,1024
    80002080:	02b68533          	mul	a0,a3,a1
    80002084:	02c53433          	mulhu	s0,a0,a2
    80002088:	8075                	srli	s0,s0,0x1d
    8000208a:	02540433          	mul	s0,s0,t0
    8000208e:	8d01                	sub	a0,a0,s0
    80002090:	02b50433          	mul	s0,a0,a1
    80002094:	02c434b3          	mulhu	s1,s0,a2
    80002098:	80f5                	srli	s1,s1,0x1d
    8000209a:	025484b3          	mul	s1,s1,t0
    8000209e:	409404b3          	sub	s1,s0,s1
    800020a2:	02b48433          	mul	s0,s1,a1
    800020a6:	02c437b3          	mulhu	a5,s0,a2
    800020aa:	83f5                	srli	a5,a5,0x1d
    800020ac:	025787b3          	mul	a5,a5,t0
    800020b0:	00b68333          	add	t1,a3,a1
    800020b4:	40f407b3          	sub	a5,s0,a5
    800020b8:	02b78433          	mul	s0,a5,a1
    800020bc:	00ee06b3          	add	a3,t3,a4
    800020c0:	0066b023          	sd	t1,0(a3)
    800020c4:	952e                	add	a0,a0,a1
    800020c6:	02c43333          	mulhu	t1,s0,a2
    800020ca:	e688                	sd	a0,8(a3)
    800020cc:	00b48533          	add	a0,s1,a1
    800020d0:	ea88                	sd	a0,16(a3)
    800020d2:	01d35513          	srli	a0,t1,0x1d
    800020d6:	02550533          	mul	a0,a0,t0
    800020da:	97ae                	add	a5,a5,a1
    800020dc:	ee9c                	sd	a5,24(a3)
    800020de:	02070713          	addi	a4,a4,32
    800020e2:	40a406b3          	sub	a3,s0,a0
    800020e6:	f9171de3          	bne	a4,a7,80002080 <main+0x74>
    800020ea:	4701                	li	a4,0
    800020ec:	3b9ad537          	lui	a0,0x3b9ad
    800020f0:	a075029b          	addiw	t0,a0,-1529 # 3b9aca07 <buflen.1+0x3b9ac9c7>
    800020f4:	40000893          	li	a7,1024
    800020f8:	02b68433          	mul	s0,a3,a1
    800020fc:	02c43533          	mulhu	a0,s0,a2
    80002100:	8175                	srli	a0,a0,0x1d
    80002102:	02550533          	mul	a0,a0,t0
    80002106:	40a40533          	sub	a0,s0,a0
    8000210a:	02b50433          	mul	s0,a0,a1
    8000210e:	02c434b3          	mulhu	s1,s0,a2
    80002112:	80f5                	srli	s1,s1,0x1d
    80002114:	025484b3          	mul	s1,s1,t0
    80002118:	409404b3          	sub	s1,s0,s1
    8000211c:	02b48433          	mul	s0,s1,a1
    80002120:	02c437b3          	mulhu	a5,s0,a2
    80002124:	83f5                	srli	a5,a5,0x1d
    80002126:	025787b3          	mul	a5,a5,t0
    8000212a:	00b68333          	add	t1,a3,a1
    8000212e:	40f407b3          	sub	a5,s0,a5
    80002132:	02b78433          	mul	s0,a5,a1
    80002136:	00ee06b3          	add	a3,t3,a4
    8000213a:	4066b023          	sd	t1,1024(a3)
    8000213e:	952e                	add	a0,a0,a1
    80002140:	02c43333          	mulhu	t1,s0,a2
    80002144:	40a6b423          	sd	a0,1032(a3)
    80002148:	00b48533          	add	a0,s1,a1
    8000214c:	40a6b823          	sd	a0,1040(a3)
    80002150:	01d35513          	srli	a0,t1,0x1d
    80002154:	02550533          	mul	a0,a0,t0
    80002158:	97ae                	add	a5,a5,a1
    8000215a:	40f6bc23          	sd	a5,1048(a3)
    8000215e:	02070713          	addi	a4,a4,32
    80002162:	40a406b3          	sub	a3,s0,a0
    80002166:	f91719e3          	bne	a4,a7,800020f8 <main+0xec>
    8000216a:	7ffe0893          	addi	a7,t3,2047
    8000216e:	01988793          	addi	a5,a7,25
    80002172:	08000493          	li	s1,128
    80002176:	3b9ad537          	lui	a0,0x3b9ad
    8000217a:	a075029b          	addiw	t0,a0,-1529 # 3b9aca07 <buflen.1+0x3b9ac9c7>
    8000217e:	02b68533          	mul	a0,a3,a1
    80002182:	02c53733          	mulhu	a4,a0,a2
    80002186:	8375                	srli	a4,a4,0x1d
    80002188:	02570733          	mul	a4,a4,t0
    8000218c:	40e50333          	sub	t1,a0,a4
    80002190:	02b30733          	mul	a4,t1,a1
    80002194:	02c73433          	mulhu	s0,a4,a2
    80002198:	8075                	srli	s0,s0,0x1d
    8000219a:	02540433          	mul	s0,s0,t0
    8000219e:	8f01                	sub	a4,a4,s0
    800021a0:	02b70433          	mul	s0,a4,a1
    800021a4:	02c43533          	mulhu	a0,s0,a2
    800021a8:	8175                	srli	a0,a0,0x1d
    800021aa:	02550533          	mul	a0,a0,t0
    800021ae:	40a40533          	sub	a0,s0,a0
    800021b2:	02b50433          	mul	s0,a0,a1
    800021b6:	96ae                	add	a3,a3,a1
    800021b8:	fed7b423          	sd	a3,-24(a5)
    800021bc:	02c433b3          	mulhu	t2,s0,a2
    800021c0:	00b306b3          	add	a3,t1,a1
    800021c4:	fed7b823          	sd	a3,-16(a5)
    800021c8:	00b706b3          	add	a3,a4,a1
    800021cc:	01d3d713          	srli	a4,t2,0x1d
    800021d0:	02570733          	mul	a4,a4,t0
    800021d4:	fed7bc23          	sd	a3,-8(a5)
    800021d8:	952e                	add	a0,a0,a1
    800021da:	e388                	sd	a0,0(a5)
    800021dc:	40e406b3          	sub	a3,s0,a4
    800021e0:	14f1                	addi	s1,s1,-4
    800021e2:	02078793          	addi	a5,a5,32
    800021e6:	fcc1                	bnez	s1,8000217e <main+0x172>
    800021e8:	41988713          	addi	a4,a7,1049
    800021ec:	08000793          	li	a5,128
    800021f0:	3b9ad537          	lui	a0,0x3b9ad
    800021f4:	a075089b          	addiw	a7,a0,-1529 # 3b9aca07 <buflen.1+0x3b9ac9c7>
    800021f8:	02b68533          	mul	a0,a3,a1
    800021fc:	02c53433          	mulhu	s0,a0,a2
    80002200:	8075                	srli	s0,s0,0x1d
    80002202:	03140433          	mul	s0,s0,a7
    80002206:	408502b3          	sub	t0,a0,s0
    8000220a:	02b28433          	mul	s0,t0,a1
    8000220e:	02c434b3          	mulhu	s1,s0,a2
    80002212:	80f5                	srli	s1,s1,0x1d
    80002214:	031484b3          	mul	s1,s1,a7
    80002218:	409404b3          	sub	s1,s0,s1
    8000221c:	02b48433          	mul	s0,s1,a1
    80002220:	02c43533          	mulhu	a0,s0,a2
    80002224:	8175                	srli	a0,a0,0x1d
    80002226:	03150533          	mul	a0,a0,a7
    8000222a:	40a40533          	sub	a0,s0,a0
    8000222e:	02b50433          	mul	s0,a0,a1
    80002232:	96ae                	add	a3,a3,a1
    80002234:	fed73423          	sd	a3,-24(a4)
    80002238:	02c43333          	mulhu	t1,s0,a2
    8000223c:	00b286b3          	add	a3,t0,a1
    80002240:	fed73823          	sd	a3,-16(a4)
    80002244:	00b486b3          	add	a3,s1,a1
    80002248:	01d35493          	srli	s1,t1,0x1d
    8000224c:	031484b3          	mul	s1,s1,a7
    80002250:	fed73c23          	sd	a3,-8(a4)
    80002254:	952e                	add	a0,a0,a1
    80002256:	e308                	sd	a0,0(a4)
    80002258:	409406b3          	sub	a3,s0,s1
    8000225c:	17f1                	addi	a5,a5,-4
    8000225e:	02070713          	addi	a4,a4,32
    80002262:	fbd9                	bnez	a5,800021f8 <main+0x1ec>
    80002264:	6505                	lui	a0,0x1
    80002266:	2561                	addiw	a0,a0,24 # 1018 <buflen.1+0xfd8>
    80002268:	00ae0733          	add	a4,t3,a0
    8000226c:	08000793          	li	a5,128
    80002270:	3b9ad537          	lui	a0,0x3b9ad
    80002274:	a075089b          	addiw	a7,a0,-1529 # 3b9aca07 <buflen.1+0x3b9ac9c7>
    80002278:	02b68533          	mul	a0,a3,a1
    8000227c:	02c53433          	mulhu	s0,a0,a2
    80002280:	8075                	srli	s0,s0,0x1d
    80002282:	03140433          	mul	s0,s0,a7
    80002286:	408502b3          	sub	t0,a0,s0
    8000228a:	02b28433          	mul	s0,t0,a1
    8000228e:	02c434b3          	mulhu	s1,s0,a2
    80002292:	80f5                	srli	s1,s1,0x1d
    80002294:	031484b3          	mul	s1,s1,a7
    80002298:	409404b3          	sub	s1,s0,s1
    8000229c:	02b48433          	mul	s0,s1,a1
    800022a0:	02c43533          	mulhu	a0,s0,a2
    800022a4:	8175                	srli	a0,a0,0x1d
    800022a6:	03150533          	mul	a0,a0,a7
    800022aa:	40a40533          	sub	a0,s0,a0
    800022ae:	02b50433          	mul	s0,a0,a1
    800022b2:	96ae                	add	a3,a3,a1
    800022b4:	fed73423          	sd	a3,-24(a4)
    800022b8:	02c43333          	mulhu	t1,s0,a2
    800022bc:	00b286b3          	add	a3,t0,a1
    800022c0:	fed73823          	sd	a3,-16(a4)
    800022c4:	00b486b3          	add	a3,s1,a1
    800022c8:	01d35493          	srli	s1,t1,0x1d
    800022cc:	031484b3          	mul	s1,s1,a7
    800022d0:	fed73c23          	sd	a3,-8(a4)
    800022d4:	952e                	add	a0,a0,a1
    800022d6:	e308                	sd	a0,0(a4)
    800022d8:	409406b3          	sub	a3,s0,s1
    800022dc:	17f1                	addi	a5,a5,-4
    800022de:	02070713          	addi	a4,a4,32
    800022e2:	fbd9                	bnez	a5,80002278 <main+0x26c>
    800022e4:	6505                	lui	a0,0x1
    800022e6:	4185051b          	addiw	a0,a0,1048 # 1418 <buflen.1+0x13d8>
    800022ea:	00ae0733          	add	a4,t3,a0
    800022ee:	08000793          	li	a5,128
    800022f2:	3b9ad537          	lui	a0,0x3b9ad
    800022f6:	a075089b          	addiw	a7,a0,-1529 # 3b9aca07 <buflen.1+0x3b9ac9c7>
    800022fa:	02b68533          	mul	a0,a3,a1
    800022fe:	02c53433          	mulhu	s0,a0,a2
    80002302:	8075                	srli	s0,s0,0x1d
    80002304:	03140433          	mul	s0,s0,a7
    80002308:	408502b3          	sub	t0,a0,s0
    8000230c:	02b28433          	mul	s0,t0,a1
    80002310:	02c434b3          	mulhu	s1,s0,a2
    80002314:	80f5                	srli	s1,s1,0x1d
    80002316:	031484b3          	mul	s1,s1,a7
    8000231a:	409404b3          	sub	s1,s0,s1
    8000231e:	02b48433          	mul	s0,s1,a1
    80002322:	02c43533          	mulhu	a0,s0,a2
    80002326:	8175                	srli	a0,a0,0x1d
    80002328:	03150533          	mul	a0,a0,a7
    8000232c:	40a40533          	sub	a0,s0,a0
    80002330:	02b50433          	mul	s0,a0,a1
    80002334:	96ae                	add	a3,a3,a1
    80002336:	fed73423          	sd	a3,-24(a4)
    8000233a:	02c43333          	mulhu	t1,s0,a2
    8000233e:	00b286b3          	add	a3,t0,a1
    80002342:	fed73823          	sd	a3,-16(a4)
    80002346:	00b486b3          	add	a3,s1,a1
    8000234a:	01d35493          	srli	s1,t1,0x1d
    8000234e:	031484b3          	mul	s1,s1,a7
    80002352:	fed73c23          	sd	a3,-8(a4)
    80002356:	952e                	add	a0,a0,a1
    80002358:	e308                	sd	a0,0(a4)
    8000235a:	409406b3          	sub	a3,s0,s1
    8000235e:	17f1                	addi	a5,a5,-4
    80002360:	02070713          	addi	a4,a4,32
    80002364:	fbd9                	bnez	a5,800022fa <main+0x2ee>
    80002366:	6509                	lui	a0,0x2
    80002368:	8185051b          	addiw	a0,a0,-2024 # 1818 <buflen.1+0x17d8>
    8000236c:	00ae0733          	add	a4,t3,a0
    80002370:	08000793          	li	a5,128
    80002374:	3b9ad537          	lui	a0,0x3b9ad
    80002378:	a075089b          	addiw	a7,a0,-1529 # 3b9aca07 <buflen.1+0x3b9ac9c7>
    8000237c:	02b68533          	mul	a0,a3,a1
    80002380:	02c53433          	mulhu	s0,a0,a2
    80002384:	8075                	srli	s0,s0,0x1d
    80002386:	03140433          	mul	s0,s0,a7
    8000238a:	408502b3          	sub	t0,a0,s0
    8000238e:	02b28433          	mul	s0,t0,a1
    80002392:	02c434b3          	mulhu	s1,s0,a2
    80002396:	80f5                	srli	s1,s1,0x1d
    80002398:	031484b3          	mul	s1,s1,a7
    8000239c:	409404b3          	sub	s1,s0,s1
    800023a0:	02b48433          	mul	s0,s1,a1
    800023a4:	02c43533          	mulhu	a0,s0,a2
    800023a8:	8175                	srli	a0,a0,0x1d
    800023aa:	03150533          	mul	a0,a0,a7
    800023ae:	40a40533          	sub	a0,s0,a0
    800023b2:	02b50433          	mul	s0,a0,a1
    800023b6:	96ae                	add	a3,a3,a1
    800023b8:	fed73423          	sd	a3,-24(a4)
    800023bc:	02c43333          	mulhu	t1,s0,a2
    800023c0:	00b286b3          	add	a3,t0,a1
    800023c4:	fed73823          	sd	a3,-16(a4)
    800023c8:	00b486b3          	add	a3,s1,a1
    800023cc:	01d35493          	srli	s1,t1,0x1d
    800023d0:	031484b3          	mul	s1,s1,a7
    800023d4:	fed73c23          	sd	a3,-8(a4)
    800023d8:	952e                	add	a0,a0,a1
    800023da:	e308                	sd	a0,0(a4)
    800023dc:	409406b3          	sub	a3,s0,s1
    800023e0:	17f1                	addi	a5,a5,-4
    800023e2:	02070713          	addi	a4,a4,32
    800023e6:	fbd9                	bnez	a5,8000237c <main+0x370>
    800023e8:	6509                	lui	a0,0x2
    800023ea:	c185051b          	addiw	a0,a0,-1000 # 1c18 <buflen.1+0x1bd8>
    800023ee:	00ae0733          	add	a4,t3,a0
    800023f2:	08000793          	li	a5,128
    800023f6:	3b9ad537          	lui	a0,0x3b9ad
    800023fa:	a075089b          	addiw	a7,a0,-1529 # 3b9aca07 <buflen.1+0x3b9ac9c7>
    800023fe:	02b68533          	mul	a0,a3,a1
    80002402:	02c53433          	mulhu	s0,a0,a2
    80002406:	8075                	srli	s0,s0,0x1d
    80002408:	03140433          	mul	s0,s0,a7
    8000240c:	408502b3          	sub	t0,a0,s0
    80002410:	02b28433          	mul	s0,t0,a1
    80002414:	02c434b3          	mulhu	s1,s0,a2
    80002418:	80f5                	srli	s1,s1,0x1d
    8000241a:	031484b3          	mul	s1,s1,a7
    8000241e:	409404b3          	sub	s1,s0,s1
    80002422:	02b48433          	mul	s0,s1,a1
    80002426:	02c43533          	mulhu	a0,s0,a2
    8000242a:	8175                	srli	a0,a0,0x1d
    8000242c:	03150533          	mul	a0,a0,a7
    80002430:	40a40533          	sub	a0,s0,a0
    80002434:	02b50433          	mul	s0,a0,a1
    80002438:	96ae                	add	a3,a3,a1
    8000243a:	fed73423          	sd	a3,-24(a4)
    8000243e:	02c43333          	mulhu	t1,s0,a2
    80002442:	00b286b3          	add	a3,t0,a1
    80002446:	fed73823          	sd	a3,-16(a4)
    8000244a:	00b486b3          	add	a3,s1,a1
    8000244e:	01d35493          	srli	s1,t1,0x1d
    80002452:	031484b3          	mul	s1,s1,a7
    80002456:	fed73c23          	sd	a3,-8(a4)
    8000245a:	952e                	add	a0,a0,a1
    8000245c:	e308                	sd	a0,0(a4)
    8000245e:	409406b3          	sub	a3,s0,s1
    80002462:	17f1                	addi	a5,a5,-4
    80002464:	02070713          	addi	a4,a4,32
    80002468:	fbd9                	bnez	a5,800023fe <main+0x3f2>
    8000246a:	6509                	lui	a0,0x2
    8000246c:	2561                	addiw	a0,a0,24 # 2018 <buflen.1+0x1fd8>
    8000246e:	00ae0733          	add	a4,t3,a0
    80002472:	08000793          	li	a5,128
    80002476:	3b9ad537          	lui	a0,0x3b9ad
    8000247a:	a075089b          	addiw	a7,a0,-1529 # 3b9aca07 <buflen.1+0x3b9ac9c7>
    8000247e:	02b68533          	mul	a0,a3,a1
    80002482:	02c53433          	mulhu	s0,a0,a2
    80002486:	8075                	srli	s0,s0,0x1d
    80002488:	03140433          	mul	s0,s0,a7
    8000248c:	408502b3          	sub	t0,a0,s0
    80002490:	02b28433          	mul	s0,t0,a1
    80002494:	02c434b3          	mulhu	s1,s0,a2
    80002498:	80f5                	srli	s1,s1,0x1d
    8000249a:	031484b3          	mul	s1,s1,a7
    8000249e:	409404b3          	sub	s1,s0,s1
    800024a2:	02b48433          	mul	s0,s1,a1
    800024a6:	02c43533          	mulhu	a0,s0,a2
    800024aa:	8175                	srli	a0,a0,0x1d
    800024ac:	03150533          	mul	a0,a0,a7
    800024b0:	40a40533          	sub	a0,s0,a0
    800024b4:	02b50433          	mul	s0,a0,a1
    800024b8:	96ae                	add	a3,a3,a1
    800024ba:	fed73423          	sd	a3,-24(a4)
    800024be:	02c43333          	mulhu	t1,s0,a2
    800024c2:	00b286b3          	add	a3,t0,a1
    800024c6:	fed73823          	sd	a3,-16(a4)
    800024ca:	00b486b3          	add	a3,s1,a1
    800024ce:	01d35493          	srli	s1,t1,0x1d
    800024d2:	031484b3          	mul	s1,s1,a7
    800024d6:	fed73c23          	sd	a3,-8(a4)
    800024da:	952e                	add	a0,a0,a1
    800024dc:	e308                	sd	a0,0(a4)
    800024de:	409406b3          	sub	a3,s0,s1
    800024e2:	17f1                	addi	a5,a5,-4
    800024e4:	02070713          	addi	a4,a4,32
    800024e8:	fbd9                	bnez	a5,8000247e <main+0x472>
    800024ea:	6509                	lui	a0,0x2
    800024ec:	4185051b          	addiw	a0,a0,1048 # 2418 <buflen.1+0x23d8>
    800024f0:	00ae0733          	add	a4,t3,a0
    800024f4:	08000793          	li	a5,128
    800024f8:	3b9ad537          	lui	a0,0x3b9ad
    800024fc:	a075089b          	addiw	a7,a0,-1529 # 3b9aca07 <buflen.1+0x3b9ac9c7>
    80002500:	02b68533          	mul	a0,a3,a1
    80002504:	02c53433          	mulhu	s0,a0,a2
    80002508:	8075                	srli	s0,s0,0x1d
    8000250a:	03140433          	mul	s0,s0,a7
    8000250e:	408502b3          	sub	t0,a0,s0
    80002512:	02b28433          	mul	s0,t0,a1
    80002516:	02c434b3          	mulhu	s1,s0,a2
    8000251a:	80f5                	srli	s1,s1,0x1d
    8000251c:	031484b3          	mul	s1,s1,a7
    80002520:	409404b3          	sub	s1,s0,s1
    80002524:	02b48433          	mul	s0,s1,a1
    80002528:	02c43533          	mulhu	a0,s0,a2
    8000252c:	8175                	srli	a0,a0,0x1d
    8000252e:	03150533          	mul	a0,a0,a7
    80002532:	40a40533          	sub	a0,s0,a0
    80002536:	02b50433          	mul	s0,a0,a1
    8000253a:	96ae                	add	a3,a3,a1
    8000253c:	fed73423          	sd	a3,-24(a4)
    80002540:	02c43333          	mulhu	t1,s0,a2
    80002544:	00b286b3          	add	a3,t0,a1
    80002548:	fed73823          	sd	a3,-16(a4)
    8000254c:	00b486b3          	add	a3,s1,a1
    80002550:	01d35493          	srli	s1,t1,0x1d
    80002554:	031484b3          	mul	s1,s1,a7
    80002558:	fed73c23          	sd	a3,-8(a4)
    8000255c:	952e                	add	a0,a0,a1
    8000255e:	e308                	sd	a0,0(a4)
    80002560:	409406b3          	sub	a3,s0,s1
    80002564:	17f1                	addi	a5,a5,-4
    80002566:	02070713          	addi	a4,a4,32
    8000256a:	fbd9                	bnez	a5,80002500 <main+0x4f4>
    8000256c:	650d                	lui	a0,0x3
    8000256e:	8185051b          	addiw	a0,a0,-2024 # 2818 <buflen.1+0x27d8>
    80002572:	00ae0733          	add	a4,t3,a0
    80002576:	08000793          	li	a5,128
    8000257a:	3b9ad537          	lui	a0,0x3b9ad
    8000257e:	a075089b          	addiw	a7,a0,-1529 # 3b9aca07 <buflen.1+0x3b9ac9c7>
    80002582:	02b68533          	mul	a0,a3,a1
    80002586:	02c53433          	mulhu	s0,a0,a2
    8000258a:	8075                	srli	s0,s0,0x1d
    8000258c:	03140433          	mul	s0,s0,a7
    80002590:	408502b3          	sub	t0,a0,s0
    80002594:	02b28433          	mul	s0,t0,a1
    80002598:	02c434b3          	mulhu	s1,s0,a2
    8000259c:	80f5                	srli	s1,s1,0x1d
    8000259e:	031484b3          	mul	s1,s1,a7
    800025a2:	409404b3          	sub	s1,s0,s1
    800025a6:	02b48433          	mul	s0,s1,a1
    800025aa:	02c43533          	mulhu	a0,s0,a2
    800025ae:	8175                	srli	a0,a0,0x1d
    800025b0:	03150533          	mul	a0,a0,a7
    800025b4:	40a40533          	sub	a0,s0,a0
    800025b8:	02b50433          	mul	s0,a0,a1
    800025bc:	96ae                	add	a3,a3,a1
    800025be:	fed73423          	sd	a3,-24(a4)
    800025c2:	02c43333          	mulhu	t1,s0,a2
    800025c6:	00b286b3          	add	a3,t0,a1
    800025ca:	fed73823          	sd	a3,-16(a4)
    800025ce:	00b486b3          	add	a3,s1,a1
    800025d2:	01d35493          	srli	s1,t1,0x1d
    800025d6:	031484b3          	mul	s1,s1,a7
    800025da:	fed73c23          	sd	a3,-8(a4)
    800025de:	952e                	add	a0,a0,a1
    800025e0:	e308                	sd	a0,0(a4)
    800025e2:	409406b3          	sub	a3,s0,s1
    800025e6:	17f1                	addi	a5,a5,-4
    800025e8:	02070713          	addi	a4,a4,32
    800025ec:	fbd9                	bnez	a5,80002582 <main+0x576>
    800025ee:	650d                	lui	a0,0x3
    800025f0:	c185051b          	addiw	a0,a0,-1000 # 2c18 <buflen.1+0x2bd8>
    800025f4:	00ae0733          	add	a4,t3,a0
    800025f8:	08000793          	li	a5,128
    800025fc:	3b9ad537          	lui	a0,0x3b9ad
    80002600:	a075089b          	addiw	a7,a0,-1529 # 3b9aca07 <buflen.1+0x3b9ac9c7>
    80002604:	02b68533          	mul	a0,a3,a1
    80002608:	02c53433          	mulhu	s0,a0,a2
    8000260c:	8075                	srli	s0,s0,0x1d
    8000260e:	03140433          	mul	s0,s0,a7
    80002612:	408502b3          	sub	t0,a0,s0
    80002616:	02b28433          	mul	s0,t0,a1
    8000261a:	02c434b3          	mulhu	s1,s0,a2
    8000261e:	80f5                	srli	s1,s1,0x1d
    80002620:	031484b3          	mul	s1,s1,a7
    80002624:	409404b3          	sub	s1,s0,s1
    80002628:	02b48433          	mul	s0,s1,a1
    8000262c:	02c43533          	mulhu	a0,s0,a2
    80002630:	8175                	srli	a0,a0,0x1d
    80002632:	03150533          	mul	a0,a0,a7
    80002636:	40a40533          	sub	a0,s0,a0
    8000263a:	02b50433          	mul	s0,a0,a1
    8000263e:	96ae                	add	a3,a3,a1
    80002640:	fed73423          	sd	a3,-24(a4)
    80002644:	02c43333          	mulhu	t1,s0,a2
    80002648:	00b286b3          	add	a3,t0,a1
    8000264c:	fed73823          	sd	a3,-16(a4)
    80002650:	00b486b3          	add	a3,s1,a1
    80002654:	01d35493          	srli	s1,t1,0x1d
    80002658:	031484b3          	mul	s1,s1,a7
    8000265c:	fed73c23          	sd	a3,-8(a4)
    80002660:	952e                	add	a0,a0,a1
    80002662:	e308                	sd	a0,0(a4)
    80002664:	409406b3          	sub	a3,s0,s1
    80002668:	17f1                	addi	a5,a5,-4
    8000266a:	02070713          	addi	a4,a4,32
    8000266e:	fbd9                	bnez	a5,80002604 <main+0x5f8>
    80002670:	0000b297          	auipc	t0,0xb
    80002674:	a7028293          	addi	t0,t0,-1424 # 8000d0e0 <kernel>
    80002678:	3b9ad537          	lui	a0,0x3b9ad
    8000267c:	a075031b          	addiw	t1,a0,-1529 # 3b9aca07 <buflen.1+0x3b9ac9c7>
    80002680:	04000893          	li	a7,64
    80002684:	02b68533          	mul	a0,a3,a1
    80002688:	02c53433          	mulhu	s0,a0,a2
    8000268c:	8075                	srli	s0,s0,0x1d
    8000268e:	02640433          	mul	s0,s0,t1
    80002692:	8d01                	sub	a0,a0,s0
    80002694:	02b50433          	mul	s0,a0,a1
    80002698:	02c43733          	mulhu	a4,s0,a2
    8000269c:	8375                	srli	a4,a4,0x1d
    8000269e:	02670733          	mul	a4,a4,t1
    800026a2:	40e40733          	sub	a4,s0,a4
    800026a6:	02b70433          	mul	s0,a4,a1
    800026aa:	02c434b3          	mulhu	s1,s0,a2
    800026ae:	80f5                	srli	s1,s1,0x1d
    800026b0:	026484b3          	mul	s1,s1,t1
    800026b4:	00b683b3          	add	t2,a3,a1
    800026b8:	409404b3          	sub	s1,s0,s1
    800026bc:	02b48433          	mul	s0,s1,a1
    800026c0:	00f286b3          	add	a3,t0,a5
    800026c4:	0076b023          	sd	t2,0(a3)
    800026c8:	952e                	add	a0,a0,a1
    800026ca:	02c433b3          	mulhu	t2,s0,a2
    800026ce:	e688                	sd	a0,8(a3)
    800026d0:	00b70533          	add	a0,a4,a1
    800026d4:	ea88                	sd	a0,16(a3)
    800026d6:	01d3d513          	srli	a0,t2,0x1d
    800026da:	02650533          	mul	a0,a0,t1
    800026de:	00b48733          	add	a4,s1,a1
    800026e2:	ee98                	sd	a4,24(a3)
    800026e4:	02078793          	addi	a5,a5,32
    800026e8:	40a406b3          	sub	a3,s0,a0
    800026ec:	f9179ce3          	bne	a5,a7,80002684 <main+0x678>
    800026f0:	4581                	li	a1,0
    800026f2:	00d83023          	sd	a3,0(a6)
    800026f6:	b0002573          	csrr	a0,mcycle
    800026fa:	e42a                	sd	a0,8(sp)
    800026fc:	0002bd03          	ld	s10,0(t0)
    80002700:	0082b503          	ld	a0,8(t0)
    80002704:	e8aa                	sd	a0,80(sp)
    80002706:	0102b503          	ld	a0,16(t0)
    8000270a:	e4aa                	sd	a0,72(sp)
    8000270c:	0182b503          	ld	a0,24(t0)
    80002710:	e0aa                	sd	a0,64(sp)
    80002712:	0202b503          	ld	a0,32(t0)
    80002716:	fc2a                	sd	a0,56(sp)
    80002718:	0282b503          	ld	a0,40(t0)
    8000271c:	f82a                	sd	a0,48(sp)
    8000271e:	0302b503          	ld	a0,48(t0)
    80002722:	f42a                	sd	a0,40(sp)
    80002724:	0382b503          	ld	a0,56(t0)
    80002728:	f02a                	sd	a0,32(sp)
    8000272a:	0000b517          	auipc	a0,0xb
    8000272e:	9f650513          	addi	a0,a0,-1546 # 8000d120 <output>
    80002732:	ec2a                	sd	a0,24(sp)
    80002734:	6505                	lui	a0,0x1
    80002736:	2e85051b          	addiw	a0,a0,744 # 12e8 <buflen.1+0x12a8>
    8000273a:	e82a                	sd	a0,16(sp)
    8000273c:	6505                	lui	a0,0x1
    8000273e:	f985051b          	addiw	a0,a0,-104 # f98 <buflen.1+0xf58>
    80002742:	950a                	add	a0,a0,sp
    80002744:	01c53023          	sd	t3,0(a0)
    80002748:	6505                	lui	a0,0x1
    8000274a:	fa05051b          	addiw	a0,a0,-96 # fa0 <buflen.1+0xf60>
    8000274e:	950a                	add	a0,a0,sp
    80002750:	e10c                	sd	a1,0(a0)
    80002752:	00a59513          	slli	a0,a1,0xa
    80002756:	9572                	add	a0,a0,t3
    80002758:	00053803          	ld	a6,0(a0)
    8000275c:	00853883          	ld	a7,8(a0)
    80002760:	01053283          	ld	t0,16(a0)
    80002764:	01853383          	ld	t2,24(a0)
    80002768:	02053e03          	ld	t3,32(a0)
    8000276c:	02853e83          	ld	t4,40(a0)
    80002770:	03053f03          	ld	t5,48(a0)
    80002774:	03853303          	ld	t1,56(a0)
    80002778:	7a82                	ld	s5,32(sp)
    8000277a:	015a878b          	.insn	4, 0x015a878b
    8000277e:	79c2                	ld	s3,48(sp)
    80002780:	7a22                	ld	s4,40(sp)
    80002782:	e149878b          	.insn	4, 0xe149878b
    80002786:	6f86                	ld	t6,64(sp)
    80002788:	7962                	ld	s2,56(sp)
    8000278a:	c12f878b          	.insn	4, 0xc12f878b
    8000278e:	6646                	ld	a2,80(sp)
    80002790:	6726                	ld	a4,72(sp)
    80002792:	a0e6078b          	.insn	4, 0xa0e6078b
    80002796:	81a0078b          	.insn	4, 0x81a0078b
    8000279a:	0118078b          	.insn	4, 0x0118078b
    8000279e:	2072878b          	.insn	4, 0x2072878b
    800027a2:	41de078b          	.insn	4, 0x41de078b
    800027a6:	0c6f05fb          	.insn	4, 0x0c6f05fb
    800027aa:	6685                	lui	a3,0x1
    800027ac:	bc86869b          	addiw	a3,a3,-1080 # bc8 <buflen.1+0xb88>
    800027b0:	968a                	add	a3,a3,sp
    800027b2:	e28c                	sd	a1,0(a3)
    800027b4:	613c                	ld	a5,64(a0)
    800027b6:	4585                	li	a1,1
    800027b8:	85a5858b          	.insn	4, 0x85a5858b
    800027bc:	a4e6058b          	.insn	4, 0xa4e6058b
    800027c0:	c52f858b          	.insn	4, 0xc52f858b
    800027c4:	e549858b          	.insn	4, 0xe549858b
    800027c8:	055a858b          	.insn	4, 0x055a858b
    800027cc:	2472858b          	.insn	4, 0x2472858b
    800027d0:	45de058b          	.insn	4, 0x45de058b
    800027d4:	646f058b          	.insn	4, 0x646f058b
    800027d8:	411785fb          	.insn	4, 0x411785fb
    800027dc:	6685                	lui	a3,0x1
    800027de:	bc06869b          	addiw	a3,a3,-1088 # bc0 <buflen.1+0xb80>
    800027e2:	968a                	add	a3,a3,sp
    800027e4:	e28c                	sd	a1,0(a3)
    800027e6:	04853803          	ld	a6,72(a0)
    800027ea:	4589                	li	a1,2
    800027ec:	89a5848b          	.insn	4, 0x89a5848b
    800027f0:	a8e6048b          	.insn	4, 0xa8e6048b
    800027f4:	c92f848b          	.insn	4, 0xc92f848b
    800027f8:	e949848b          	.insn	4, 0xe949848b
    800027fc:	095a848b          	.insn	4, 0x095a848b
    80002800:	2872848b          	.insn	4, 0x2872848b
    80002804:	49de048b          	.insn	4, 0x49de048b
    80002808:	686f048b          	.insn	4, 0x686f048b
    8000280c:	810785fb          	.insn	4, 0x810785fb
    80002810:	6685                	lui	a3,0x1
    80002812:	bb86869b          	addiw	a3,a3,-1096 # bb8 <buflen.1+0xb78>
    80002816:	968a                	add	a3,a3,sp
    80002818:	e28c                	sd	a1,0(a3)
    8000281a:	6924                	ld	s1,80(a0)
    8000281c:	458d                	li	a1,3
    8000281e:	8da5840b          	.insn	4, 0x8da5840b
    80002822:	4b0d                	li	s6,3
    80002824:	ace6040b          	.insn	4, 0xace6040b
    80002828:	cd2f840b          	.insn	4, 0xcd2f840b
    8000282c:	ed49840b          	.insn	4, 0xed49840b
    80002830:	0d5a840b          	.insn	4, 0x0d5a840b
    80002834:	4dde040b          	.insn	4, 0x4dde040b
    80002838:	6c6f070b          	.insn	4, 0x6c6f070b
    8000283c:	0d07870b          	.insn	4, 0x0d07870b
    80002840:	c47485fb          	.insn	4, 0xc47485fb
    80002844:	6605                	lui	a2,0x1
    80002846:	bb06061b          	addiw	a2,a2,-1104 # bb0 <buflen.1+0xb70>
    8000284a:	960a                	add	a2,a2,sp
    8000284c:	e20c                	sd	a1,0(a2)
    8000284e:	05853883          	ld	a7,88(a0)
    80002852:	4591                	li	a1,4
    80002854:	81a5840b          	.insn	4, 0x81a5840b
    80002858:	4f11                	li	t5,4
    8000285a:	0107840b          	.insn	4, 0x0107840b
    8000285e:	051485fb          	.insn	4, 0x051485fb
    80002862:	6605                	lui	a2,0x1
    80002864:	ba86061b          	addiw	a2,a2,-1112 # ba8 <buflen.1+0xb68>
    80002868:	960a                	add	a2,a2,sp
    8000286a:	e20c                	sd	a1,0(a2)
    8000286c:	7120                	ld	s0,96(a0)
    8000286e:	4595                	li	a1,5
    80002870:	85a5860b          	.insn	4, 0x85a5860b
    80002874:	4e15                	li	t3,5
    80002876:	0507860b          	.insn	4, 0x0507860b
    8000287a:	2514860b          	.insn	4, 0x2514860b
    8000287e:	49d405fb          	.insn	4, 0x49d405fb
    80002882:	6605                	lui	a2,0x1
    80002884:	b986061b          	addiw	a2,a2,-1128 # b98 <buflen.1+0xb58>
    80002888:	960a                	add	a2,a2,sp
    8000288a:	e20c                	sd	a1,0(a2)
    8000288c:	7530                	ld	a2,104(a0)
    8000288e:	4599                	li	a1,6
    80002890:	89a5878b          	.insn	4, 0x89a5878b
    80002894:	4f99                	li	t6,6
    80002896:	2914878b          	.insn	4, 0x2914878b
    8000289a:	88c405fb          	.insn	4, 0x88c405fb
    8000289e:	6685                	lui	a3,0x1
    800028a0:	ba06869b          	addiw	a3,a3,-1120 # ba0 <buflen.1+0xb60>
    800028a4:	968a                	add	a3,a3,sp
    800028a6:	e28c                	sd	a1,0(a3)
    800028a8:	793c                	ld	a5,112(a0)
    800028aa:	459d                	li	a1,7
    800028ac:	8da5858b          	.insn	4, 0x8da5858b
    800028b0:	4e9d                	li	t4,7
    800028b2:	2d14858b          	.insn	4, 0x2d14858b
    800028b6:	4cc4058b          	.insn	4, 0x4cc4058b
    800028ba:	cc6785fb          	.insn	4, 0xcc6785fb
    800028be:	6685                	lui	a3,0x1
    800028c0:	b906869b          	addiw	a3,a3,-1136 # b90 <buflen.1+0xb50>
    800028c4:	968a                	add	a3,a3,sp
    800028c6:	e28c                	sd	a1,0(a3)
    800028c8:	07853283          	ld	t0,120(a0)
    800028cc:	40c4048b          	.insn	4, 0x40c4048b
    800028d0:	0c5785fb          	.insn	4, 0x0c5785fb
    800028d4:	6685                	lui	a3,0x1
    800028d6:	b886869b          	addiw	a3,a3,-1144 # b88 <buflen.1+0xb48>
    800028da:	968a                	add	a3,a3,sp
    800028dc:	e28c                	sd	a1,0(a3)
    800028de:	6144                	ld	s1,128(a0)
    800028e0:	4305                	li	t1,1
    800028e2:	85a3070b          	.insn	4, 0x85a3070b
    800028e6:	44c4070b          	.insn	4, 0x44c4070b
    800028ea:	6457870b          	.insn	4, 0x6457870b
    800028ee:	410485fb          	.insn	4, 0x410485fb
    800028f2:	6685                	lui	a3,0x1
    800028f4:	b786869b          	addiw	a3,a3,-1160 # b78 <buflen.1+0xb38>
    800028f8:	968a                	add	a3,a3,sp
    800028fa:	e28c                	sd	a1,0(a3)
    800028fc:	6558                	ld	a4,136(a0)
    800028fe:	4389                	li	t2,2
    80002900:	89a3840b          	.insn	4, 0x89a3840b
    80002904:	6857840b          	.insn	4, 0x6857840b
    80002908:	80e485fb          	.insn	4, 0x80e485fb
    8000290c:	6685                	lui	a3,0x1
    8000290e:	b806869b          	addiw	a3,a3,-1152 # b80 <buflen.1+0xb40>
    80002912:	968a                	add	a3,a3,sp
    80002914:	e28c                	sd	a1,0(a3)
    80002916:	6940                	ld	s0,144(a0)
    80002918:	8dab058b          	.insn	4, 0x8dab058b
    8000291c:	6c57858b          	.insn	4, 0x6c57858b
    80002920:	0ce4858b          	.insn	4, 0x0ce4858b
    80002924:	c51405fb          	.insn	4, 0xc51405fb
    80002928:	6685                	lui	a3,0x1
    8000292a:	b706869b          	addiw	a3,a3,-1168 # b70 <buflen.1+0xb30>
    8000292e:	968a                	add	a3,a3,sp
    80002930:	e28c                	sd	a1,0(a3)
    80002932:	09853803          	ld	a6,152(a0)
    80002936:	00e4878b          	.insn	4, 0x00e4878b
    8000293a:	050405fb          	.insn	4, 0x050405fb
    8000293e:	6685                	lui	a3,0x1
    80002940:	b686869b          	addiw	a3,a3,-1176 # b68 <buflen.1+0xb28>
    80002944:	968a                	add	a3,a3,sp
    80002946:	e28c                	sd	a1,0(a3)
    80002948:	715c                	ld	a5,160(a0)
    8000294a:	85ae058b          	.insn	4, 0x85ae058b
    8000294e:	04e4858b          	.insn	4, 0x04e4858b
    80002952:	2504058b          	.insn	4, 0x2504058b
    80002956:	48c785fb          	.insn	4, 0x48c785fb
    8000295a:	6605                	lui	a2,0x1
    8000295c:	b586061b          	addiw	a2,a2,-1192 # b58 <buflen.1+0xb18>
    80002960:	960a                	add	a2,a2,sp
    80002962:	e20c                	sd	a1,0(a2)
    80002964:	0a853883          	ld	a7,168(a0)
    80002968:	89af860b          	.insn	4, 0x89af860b
    8000296c:	4919                	li	s2,6
    8000296e:	2904060b          	.insn	4, 0x2904060b
    80002972:	891785fb          	.insn	4, 0x891785fb
    80002976:	6605                	lui	a2,0x1
    80002978:	b606061b          	addiw	a2,a2,-1184 # b60 <buflen.1+0xb20>
    8000297c:	960a                	add	a2,a2,sp
    8000297e:	e20c                	sd	a1,0(a2)
    80002980:	7950                	ld	a2,176(a0)
    80002982:	8dae848b          	.insn	4, 0x8dae848b
    80002986:	2d04048b          	.insn	4, 0x2d04048b
    8000298a:	4d17848b          	.insn	4, 0x4d17848b
    8000298e:	cc5605fb          	.insn	4, 0xcc5605fb
    80002992:	6685                	lui	a3,0x1
    80002994:	b506869b          	addiw	a3,a3,-1200 # b50 <buflen.1+0xb10>
    80002998:	968a                	add	a3,a3,sp
    8000299a:	e28c                	sd	a1,0(a3)
    8000299c:	7d44                	ld	s1,184(a0)
    8000299e:	4117840b          	.insn	4, 0x4117840b
    800029a2:	0c9605fb          	.insn	4, 0x0c9605fb
    800029a6:	6685                	lui	a3,0x1
    800029a8:	b486869b          	addiw	a3,a3,-1208 # b48 <buflen.1+0xb08>
    800029ac:	968a                	add	a3,a3,sp
    800029ae:	e28c                	sd	a1,0(a3)
    800029b0:	6160                	ld	s0,192(a0)
    800029b2:	85a3058b          	.insn	4, 0x85a3058b
    800029b6:	4985                	li	s3,1
    800029b8:	4517858b          	.insn	4, 0x4517858b
    800029bc:	6496058b          	.insn	4, 0x6496058b
    800029c0:	40e405fb          	.insn	4, 0x40e405fb
    800029c4:	6685                	lui	a3,0x1
    800029c6:	b386869b          	addiw	a3,a3,-1224 # b38 <buflen.1+0xaf8>
    800029ca:	968a                	add	a3,a3,sp
    800029cc:	e28c                	sd	a1,0(a3)
    800029ce:	0c853283          	ld	t0,200(a0)
    800029d2:	89a3870b          	.insn	4, 0x89a3870b
    800029d6:	4f89                	li	t6,2
    800029d8:	6896070b          	.insn	4, 0x6896070b
    800029dc:	805405fb          	.insn	4, 0x805405fb
    800029e0:	6685                	lui	a3,0x1
    800029e2:	b406869b          	addiw	a3,a3,-1216 # b40 <buflen.1+0xb00>
    800029e6:	968a                	add	a3,a3,sp
    800029e8:	e28c                	sd	a1,0(a3)
    800029ea:	6978                	ld	a4,208(a0)
    800029ec:	8dab078b          	.insn	4, 0x8dab078b
    800029f0:	6c96060b          	.insn	4, 0x6c96060b
    800029f4:	0c54060b          	.insn	4, 0x0c54060b
    800029f8:	c50705fb          	.insn	4, 0xc50705fb
    800029fc:	6605                	lui	a2,0x1
    800029fe:	b306061b          	addiw	a2,a2,-1232 # b30 <buflen.1+0xaf0>
    80002a02:	960a                	add	a2,a2,sp
    80002a04:	e20c                	sd	a1,0(a2)
    80002a06:	6d70                	ld	a2,216(a0)
    80002a08:	0054078b          	.insn	4, 0x0054078b
    80002a0c:	04c705fb          	.insn	4, 0x04c705fb
    80002a10:	6685                	lui	a3,0x1
    80002a12:	b286869b          	addiw	a3,a3,-1240 # b28 <buflen.1+0xae8>
    80002a16:	968a                	add	a3,a3,sp
    80002a18:	e28c                	sd	a1,0(a3)
    80002a1a:	717c                	ld	a5,224(a0)
    80002a1c:	85ae058b          	.insn	4, 0x85ae058b
    80002a20:	0454058b          	.insn	4, 0x0454058b
    80002a24:	24c7058b          	.insn	4, 0x24c7058b
    80002a28:	491785fb          	.insn	4, 0x491785fb
    80002a2c:	6685                	lui	a3,0x1
    80002a2e:	b186869b          	addiw	a3,a3,-1256 # b18 <buflen.1+0xad8>
    80002a32:	968a                	add	a3,a3,sp
    80002a34:	e28c                	sd	a1,0(a3)
    80002a36:	0e853803          	ld	a6,232(a0)
    80002a3a:	89a9040b          	.insn	4, 0x89a9040b
    80002a3e:	4319                	li	t1,6
    80002a40:	28c7040b          	.insn	4, 0x28c7040b
    80002a44:	890785fb          	.insn	4, 0x890785fb
    80002a48:	6685                	lui	a3,0x1
    80002a4a:	b206869b          	addiw	a3,a3,-1248 # b20 <buflen.1+0xae0>
    80002a4e:	968a                	add	a3,a3,sp
    80002a50:	e28c                	sd	a1,0(a3)
    80002a52:	7960                	ld	s0,240(a0)
    80002a54:	8dae858b          	.insn	4, 0x8dae858b
    80002a58:	2cc7058b          	.insn	4, 0x2cc7058b
    80002a5c:	4d07858b          	.insn	4, 0x4d07858b
    80002a60:	cc9405fb          	.insn	4, 0xcc9405fb
    80002a64:	6685                	lui	a3,0x1
    80002a66:	b106869b          	addiw	a3,a3,-1264 # b10 <buflen.1+0xad0>
    80002a6a:	968a                	add	a3,a3,sp
    80002a6c:	e28c                	sd	a1,0(a3)
    80002a6e:	0f853883          	ld	a7,248(a0)
    80002a72:	4107870b          	.insn	4, 0x4107870b
    80002a76:	0d1405fb          	.insn	4, 0x0d1405fb
    80002a7a:	6685                	lui	a3,0x1
    80002a7c:	b086869b          	addiw	a3,a3,-1272 # b08 <buflen.1+0xac8>
    80002a80:	968a                	add	a3,a3,sp
    80002a82:	e28c                	sd	a1,0(a3)
    80002a84:	10053703          	ld	a4,256(a0)
    80002a88:	85a9848b          	.insn	4, 0x85a9848b
    80002a8c:	4507878b          	.insn	4, 0x4507878b
    80002a90:	6514078b          	.insn	4, 0x6514078b
    80002a94:	405705fb          	.insn	4, 0x405705fb
    80002a98:	6685                	lui	a3,0x1
    80002a9a:	af86869b          	addiw	a3,a3,-1288 # af8 <buflen.1+0xab8>
    80002a9e:	968a                	add	a3,a3,sp
    80002aa0:	e28c                	sd	a1,0(a3)
    80002aa2:	10853783          	ld	a5,264(a0)
    80002aa6:	89af848b          	.insn	4, 0x89af848b
    80002aaa:	6914048b          	.insn	4, 0x6914048b
    80002aae:	80f705fb          	.insn	4, 0x80f705fb
    80002ab2:	6685                	lui	a3,0x1
    80002ab4:	b006869b          	addiw	a3,a3,-1280 # b00 <buflen.1+0xac0>
    80002ab8:	968a                	add	a3,a3,sp
    80002aba:	e28c                	sd	a1,0(a3)
    80002abc:	11053483          	ld	s1,272(a0)
    80002ac0:	8dab058b          	.insn	4, 0x8dab058b
    80002ac4:	6d14058b          	.insn	4, 0x6d14058b
    80002ac8:	0cf7058b          	.insn	4, 0x0cf7058b
    80002acc:	c4c485fb          	.insn	4, 0xc4c485fb
    80002ad0:	6605                	lui	a2,0x1
    80002ad2:	af06061b          	addiw	a2,a2,-1296 # af0 <buflen.1+0xab0>
    80002ad6:	960a                	add	a2,a2,sp
    80002ad8:	e20c                	sd	a1,0(a2)
    80002ada:	11853283          	ld	t0,280(a0)
    80002ade:	00f7060b          	.insn	4, 0x00f7060b
    80002ae2:	045485fb          	.insn	4, 0x045485fb
    80002ae6:	6605                	lui	a2,0x1
    80002ae8:	ae86061b          	addiw	a2,a2,-1304 # ae8 <buflen.1+0xaa8>
    80002aec:	960a                	add	a2,a2,sp
    80002aee:	e20c                	sd	a1,0(a2)
    80002af0:	12053603          	ld	a2,288(a0)
    80002af4:	85ae040b          	.insn	4, 0x85ae040b
    80002af8:	04f7070b          	.insn	4, 0x04f7070b
    80002afc:	2454870b          	.insn	4, 0x2454870b
    80002b00:	490605fb          	.insn	4, 0x490605fb
    80002b04:	6685                	lui	a3,0x1
    80002b06:	ad86869b          	addiw	a3,a3,-1320 # ad8 <buflen.1+0xa98>
    80002b0a:	968a                	add	a3,a3,sp
    80002b0c:	e28c                	sd	a1,0(a3)
    80002b0e:	12853703          	ld	a4,296(a0)
    80002b12:	89a3040b          	.insn	4, 0x89a3040b
    80002b16:	4319                	li	t1,6
    80002b18:	2854840b          	.insn	4, 0x2854840b
    80002b1c:	88e605fb          	.insn	4, 0x88e605fb
    80002b20:	6685                	lui	a3,0x1
    80002b22:	ae06869b          	addiw	a3,a3,-1312 # ae0 <buflen.1+0xaa0>
    80002b26:	968a                	add	a3,a3,sp
    80002b28:	e28c                	sd	a1,0(a3)
    80002b2a:	13053403          	ld	s0,304(a0)
    80002b2e:	8dae858b          	.insn	4, 0x8dae858b
    80002b32:	2c54858b          	.insn	4, 0x2c54858b
    80002b36:	4ce6058b          	.insn	4, 0x4ce6058b
    80002b3a:	cd1405fb          	.insn	4, 0xcd1405fb
    80002b3e:	6685                	lui	a3,0x1
    80002b40:	ad06869b          	addiw	a3,a3,-1328 # ad0 <buflen.1+0xa90>
    80002b44:	968a                	add	a3,a3,sp
    80002b46:	e28c                	sd	a1,0(a3)
    80002b48:	13853803          	ld	a6,312(a0)
    80002b4c:	40e6048b          	.insn	4, 0x40e6048b
    80002b50:	0d0405fb          	.insn	4, 0x0d0405fb
    80002b54:	6685                	lui	a3,0x1
    80002b56:	ac86869b          	addiw	a3,a3,-1336 # ac8 <buflen.1+0xa88>
    80002b5a:	968a                	add	a3,a3,sp
    80002b5c:	e28c                	sd	a1,0(a3)
    80002b5e:	14053483          	ld	s1,320(a0)
    80002b62:	85a9858b          	.insn	4, 0x85a9858b
    80002b66:	44e6058b          	.insn	4, 0x44e6058b
    80002b6a:	6504058b          	.insn	4, 0x6504058b
    80002b6e:	40f485fb          	.insn	4, 0x40f485fb
    80002b72:	6605                	lui	a2,0x1
    80002b74:	ac06061b          	addiw	a2,a2,-1344 # ac0 <buflen.1+0xa80>
    80002b78:	960a                	add	a2,a2,sp
    80002b7a:	e20c                	sd	a1,0(a2)
    80002b7c:	14853883          	ld	a7,328(a0)
    80002b80:	89af860b          	.insn	4, 0x89af860b
    80002b84:	6904060b          	.insn	4, 0x6904060b
    80002b88:	811485fb          	.insn	4, 0x811485fb
    80002b8c:	6605                	lui	a2,0x1
    80002b8e:	ab86061b          	addiw	a2,a2,-1352 # ab8 <buflen.1+0xa78>
    80002b92:	960a                	add	a2,a2,sp
    80002b94:	e20c                	sd	a1,0(a2)
    80002b96:	15053603          	ld	a2,336(a0)
    80002b9a:	8dab078b          	.insn	4, 0x8dab078b
    80002b9e:	6d04078b          	.insn	4, 0x6d04078b
    80002ba2:	0d14878b          	.insn	4, 0x0d14878b
    80002ba6:	c45605fb          	.insn	4, 0xc45605fb
    80002baa:	6685                	lui	a3,0x1
    80002bac:	ab06869b          	addiw	a3,a3,-1360 # ab0 <buflen.1+0xa70>
    80002bb0:	968a                	add	a3,a3,sp
    80002bb2:	e28c                	sd	a1,0(a3)
    80002bb4:	15853783          	ld	a5,344(a0)
    80002bb8:	0114840b          	.insn	4, 0x0114840b
    80002bbc:	04f605fb          	.insn	4, 0x04f605fb
    80002bc0:	6685                	lui	a3,0x1
    80002bc2:	aa86869b          	addiw	a3,a3,-1368 # aa8 <buflen.1+0xa68>
    80002bc6:	968a                	add	a3,a3,sp
    80002bc8:	e28c                	sd	a1,0(a3)
    80002bca:	16053403          	ld	s0,352(a0)
    80002bce:	85ae058b          	.insn	4, 0x85ae058b
    80002bd2:	0514858b          	.insn	4, 0x0514858b
    80002bd6:	24f6058b          	.insn	4, 0x24f6058b
    80002bda:	48e405fb          	.insn	4, 0x48e405fb
    80002bde:	6685                	lui	a3,0x1
    80002be0:	a986869b          	addiw	a3,a3,-1384 # a98 <buflen.1+0xa58>
    80002be4:	968a                	add	a3,a3,sp
    80002be6:	e28c                	sd	a1,0(a3)
    80002be8:	16853283          	ld	t0,360(a0)
    80002bec:	89a3070b          	.insn	4, 0x89a3070b
    80002bf0:	4319                	li	t1,6
    80002bf2:	28f6070b          	.insn	4, 0x28f6070b
    80002bf6:	885405fb          	.insn	4, 0x885405fb
    80002bfa:	6685                	lui	a3,0x1
    80002bfc:	aa06869b          	addiw	a3,a3,-1376 # aa0 <buflen.1+0xa60>
    80002c00:	968a                	add	a3,a3,sp
    80002c02:	e28c                	sd	a1,0(a3)
    80002c04:	17053703          	ld	a4,368(a0)
    80002c08:	8dae848b          	.insn	4, 0x8dae848b
    80002c0c:	2cf6060b          	.insn	4, 0x2cf6060b
    80002c10:	4c54060b          	.insn	4, 0x4c54060b
    80002c14:	cd0705fb          	.insn	4, 0xcd0705fb
    80002c18:	6605                	lui	a2,0x1
    80002c1a:	a906061b          	addiw	a2,a2,-1392 # a90 <buflen.1+0xa50>
    80002c1e:	960a                	add	a2,a2,sp
    80002c20:	e20c                	sd	a1,0(a2)
    80002c22:	17853603          	ld	a2,376(a0)
    80002c26:	4054048b          	.insn	4, 0x4054048b
    80002c2a:	0cc705fb          	.insn	4, 0x0cc705fb
    80002c2e:	6685                	lui	a3,0x1
    80002c30:	a886869b          	addiw	a3,a3,-1400 # a88 <buflen.1+0xa48>
    80002c34:	968a                	add	a3,a3,sp
    80002c36:	e28c                	sd	a1,0(a3)
    80002c38:	18053483          	ld	s1,384(a0)
    80002c3c:	85a9858b          	.insn	4, 0x85a9858b
    80002c40:	4454058b          	.insn	4, 0x4454058b
    80002c44:	64c7058b          	.insn	4, 0x64c7058b
    80002c48:	411485fb          	.insn	4, 0x411485fb
    80002c4c:	6685                	lui	a3,0x1
    80002c4e:	a786869b          	addiw	a3,a3,-1416 # a78 <buflen.1+0xa38>
    80002c52:	968a                	add	a3,a3,sp
    80002c54:	e28c                	sd	a1,0(a3)
    80002c56:	18853803          	ld	a6,392(a0)
    80002c5a:	89af840b          	.insn	4, 0x89af840b
    80002c5e:	68c7040b          	.insn	4, 0x68c7040b
    80002c62:	810485fb          	.insn	4, 0x810485fb
    80002c66:	6685                	lui	a3,0x1
    80002c68:	a806869b          	addiw	a3,a3,-1408 # a80 <buflen.1+0xa40>
    80002c6c:	968a                	add	a3,a3,sp
    80002c6e:	e28c                	sd	a1,0(a3)
    80002c70:	19053403          	ld	s0,400(a0)
    80002c74:	8dab058b          	.insn	4, 0x8dab058b
    80002c78:	6cc7058b          	.insn	4, 0x6cc7058b
    80002c7c:	0d04858b          	.insn	4, 0x0d04858b
    80002c80:	c4f405fb          	.insn	4, 0xc4f405fb
    80002c84:	6685                	lui	a3,0x1
    80002c86:	a706869b          	addiw	a3,a3,-1424 # a70 <buflen.1+0xa30>
    80002c8a:	968a                	add	a3,a3,sp
    80002c8c:	e28c                	sd	a1,0(a3)
    80002c8e:	19853883          	ld	a7,408(a0)
    80002c92:	0104870b          	.insn	4, 0x0104870b
    80002c96:	051405fb          	.insn	4, 0x051405fb
    80002c9a:	6685                	lui	a3,0x1
    80002c9c:	a686869b          	addiw	a3,a3,-1432 # a68 <buflen.1+0xa28>
    80002ca0:	968a                	add	a3,a3,sp
    80002ca2:	e28c                	sd	a1,0(a3)
    80002ca4:	1a053703          	ld	a4,416(a0)
    80002ca8:	85ae078b          	.insn	4, 0x85ae078b
    80002cac:	0504878b          	.insn	4, 0x0504878b
    80002cb0:	2514078b          	.insn	4, 0x2514078b
    80002cb4:	485705fb          	.insn	4, 0x485705fb
    80002cb8:	6685                	lui	a3,0x1
    80002cba:	a586869b          	addiw	a3,a3,-1448 # a58 <buflen.1+0xa18>
    80002cbe:	968a                	add	a3,a3,sp
    80002cc0:	e28c                	sd	a1,0(a3)
    80002cc2:	1a853783          	ld	a5,424(a0)
    80002cc6:	89a3048b          	.insn	4, 0x89a3048b
    80002cca:	4319                	li	t1,6
    80002ccc:	2914048b          	.insn	4, 0x2914048b
    80002cd0:	88f705fb          	.insn	4, 0x88f705fb
    80002cd4:	6685                	lui	a3,0x1
    80002cd6:	a606869b          	addiw	a3,a3,-1440 # a60 <buflen.1+0xa20>
    80002cda:	968a                	add	a3,a3,sp
    80002cdc:	e28c                	sd	a1,0(a3)
    80002cde:	1b053483          	ld	s1,432(a0)
    80002ce2:	8dae858b          	.insn	4, 0x8dae858b
    80002ce6:	2d14058b          	.insn	4, 0x2d14058b
    80002cea:	4cf7058b          	.insn	4, 0x4cf7058b
    80002cee:	ccc485fb          	.insn	4, 0xccc485fb
    80002cf2:	6605                	lui	a2,0x1
    80002cf4:	a506061b          	addiw	a2,a2,-1456 # a50 <buflen.1+0xa10>
    80002cf8:	960a                	add	a2,a2,sp
    80002cfa:	e20c                	sd	a1,0(a2)
    80002cfc:	1b853283          	ld	t0,440(a0)
    80002d00:	40f7060b          	.insn	4, 0x40f7060b
    80002d04:	0c5485fb          	.insn	4, 0x0c5485fb
    80002d08:	6605                	lui	a2,0x1
    80002d0a:	a486061b          	addiw	a2,a2,-1464 # a48 <buflen.1+0xa08>
    80002d0e:	960a                	add	a2,a2,sp
    80002d10:	e20c                	sd	a1,0(a2)
    80002d12:	1c053603          	ld	a2,448(a0)
    80002d16:	85a9840b          	.insn	4, 0x85a9840b
    80002d1a:	44f7070b          	.insn	4, 0x44f7070b
    80002d1e:	6454870b          	.insn	4, 0x6454870b
    80002d22:	410605fb          	.insn	4, 0x410605fb
    80002d26:	6685                	lui	a3,0x1
    80002d28:	a406869b          	addiw	a3,a3,-1472 # a40 <buflen.1+0xa00>
    80002d2c:	968a                	add	a3,a3,sp
    80002d2e:	e28c                	sd	a1,0(a3)
    80002d30:	1c853703          	ld	a4,456(a0)
    80002d34:	89af840b          	.insn	4, 0x89af840b
    80002d38:	6854840b          	.insn	4, 0x6854840b
    80002d3c:	80e605fb          	.insn	4, 0x80e605fb
    80002d40:	6685                	lui	a3,0x1
    80002d42:	a386869b          	addiw	a3,a3,-1480 # a38 <buflen.1+0x9f8>
    80002d46:	968a                	add	a3,a3,sp
    80002d48:	e28c                	sd	a1,0(a3)
    80002d4a:	1d053403          	ld	s0,464(a0)
    80002d4e:	8dab058b          	.insn	4, 0x8dab058b
    80002d52:	6c54858b          	.insn	4, 0x6c54858b
    80002d56:	0ce6058b          	.insn	4, 0x0ce6058b
    80002d5a:	c51405fb          	.insn	4, 0xc51405fb
    80002d5e:	6685                	lui	a3,0x1
    80002d60:	a306869b          	addiw	a3,a3,-1488 # a30 <buflen.1+0x9f0>
    80002d64:	968a                	add	a3,a3,sp
    80002d66:	e28c                	sd	a1,0(a3)
    80002d68:	1d853803          	ld	a6,472(a0)
    80002d6c:	00e6048b          	.insn	4, 0x00e6048b
    80002d70:	050405fb          	.insn	4, 0x050405fb
    80002d74:	6685                	lui	a3,0x1
    80002d76:	a286869b          	addiw	a3,a3,-1496 # a28 <buflen.1+0x9e8>
    80002d7a:	968a                	add	a3,a3,sp
    80002d7c:	e28c                	sd	a1,0(a3)
    80002d7e:	1e053483          	ld	s1,480(a0)
    80002d82:	85ae058b          	.insn	4, 0x85ae058b
    80002d86:	04e6058b          	.insn	4, 0x04e6058b
    80002d8a:	2504058b          	.insn	4, 0x2504058b
    80002d8e:	48f485fb          	.insn	4, 0x48f485fb
    80002d92:	6605                	lui	a2,0x1
    80002d94:	a186061b          	addiw	a2,a2,-1512 # a18 <buflen.1+0x9d8>
    80002d98:	960a                	add	a2,a2,sp
    80002d9a:	e20c                	sd	a1,0(a2)
    80002d9c:	1e853883          	ld	a7,488(a0)
    80002da0:	89a3060b          	.insn	4, 0x89a3060b
    80002da4:	4319                	li	t1,6
    80002da6:	2904060b          	.insn	4, 0x2904060b
    80002daa:	891485fb          	.insn	4, 0x891485fb
    80002dae:	6605                	lui	a2,0x1
    80002db0:	a206061b          	addiw	a2,a2,-1504 # a20 <buflen.1+0x9e0>
    80002db4:	960a                	add	a2,a2,sp
    80002db6:	e20c                	sd	a1,0(a2)
    80002db8:	1f053603          	ld	a2,496(a0)
    80002dbc:	8dae878b          	.insn	4, 0x8dae878b
    80002dc0:	2d04078b          	.insn	4, 0x2d04078b
    80002dc4:	4d14878b          	.insn	4, 0x4d14878b
    80002dc8:	cc5605fb          	.insn	4, 0xcc5605fb
    80002dcc:	6685                	lui	a3,0x1
    80002dce:	a106869b          	addiw	a3,a3,-1520 # a10 <buflen.1+0x9d0>
    80002dd2:	968a                	add	a3,a3,sp
    80002dd4:	e28c                	sd	a1,0(a3)
    80002dd6:	1f853783          	ld	a5,504(a0)
    80002dda:	4114840b          	.insn	4, 0x4114840b
    80002dde:	0cf605fb          	.insn	4, 0x0cf605fb
    80002de2:	6685                	lui	a3,0x1
    80002de4:	a086869b          	addiw	a3,a3,-1528 # a08 <buflen.1+0x9c8>
    80002de8:	968a                	add	a3,a3,sp
    80002dea:	e28c                	sd	a1,0(a3)
    80002dec:	20053403          	ld	s0,512(a0)
    80002df0:	85a9858b          	.insn	4, 0x85a9858b
    80002df4:	4514858b          	.insn	4, 0x4514858b
    80002df8:	64f6058b          	.insn	4, 0x64f6058b
    80002dfc:	40e405fb          	.insn	4, 0x40e405fb
    80002e00:	6685                	lui	a3,0x1
    80002e02:	9f86869b          	addiw	a3,a3,-1544 # 9f8 <buflen.1+0x9b8>
    80002e06:	968a                	add	a3,a3,sp
    80002e08:	e28c                	sd	a1,0(a3)
    80002e0a:	20853283          	ld	t0,520(a0)
    80002e0e:	89af870b          	.insn	4, 0x89af870b
    80002e12:	68f6070b          	.insn	4, 0x68f6070b
    80002e16:	805405fb          	.insn	4, 0x805405fb
    80002e1a:	6685                	lui	a3,0x1
    80002e1c:	a006869b          	addiw	a3,a3,-1536 # a00 <buflen.1+0x9c0>
    80002e20:	968a                	add	a3,a3,sp
    80002e22:	e28c                	sd	a1,0(a3)
    80002e24:	21053703          	ld	a4,528(a0)
    80002e28:	8dab048b          	.insn	4, 0x8dab048b
    80002e2c:	6cf6060b          	.insn	4, 0x6cf6060b
    80002e30:	0c54060b          	.insn	4, 0x0c54060b
    80002e34:	c50705fb          	.insn	4, 0xc50705fb
    80002e38:	6605                	lui	a2,0x1
    80002e3a:	9f06061b          	addiw	a2,a2,-1552 # 9f0 <buflen.1+0x9b0>
    80002e3e:	960a                	add	a2,a2,sp
    80002e40:	e20c                	sd	a1,0(a2)
    80002e42:	21853603          	ld	a2,536(a0)
    80002e46:	0054048b          	.insn	4, 0x0054048b
    80002e4a:	04c705fb          	.insn	4, 0x04c705fb
    80002e4e:	6685                	lui	a3,0x1
    80002e50:	9e86869b          	addiw	a3,a3,-1560 # 9e8 <buflen.1+0x9a8>
    80002e54:	968a                	add	a3,a3,sp
    80002e56:	e28c                	sd	a1,0(a3)
    80002e58:	22053483          	ld	s1,544(a0)
    80002e5c:	85ae058b          	.insn	4, 0x85ae058b
    80002e60:	0454058b          	.insn	4, 0x0454058b
    80002e64:	24c7058b          	.insn	4, 0x24c7058b
    80002e68:	491485fb          	.insn	4, 0x491485fb
    80002e6c:	6685                	lui	a3,0x1
    80002e6e:	9d86869b          	addiw	a3,a3,-1576 # 9d8 <buflen.1+0x998>
    80002e72:	968a                	add	a3,a3,sp
    80002e74:	e28c                	sd	a1,0(a3)
    80002e76:	22853803          	ld	a6,552(a0)
    80002e7a:	89a3040b          	.insn	4, 0x89a3040b
    80002e7e:	4319                	li	t1,6
    80002e80:	28c7040b          	.insn	4, 0x28c7040b
    80002e84:	890485fb          	.insn	4, 0x890485fb
    80002e88:	6685                	lui	a3,0x1
    80002e8a:	9e06869b          	addiw	a3,a3,-1568 # 9e0 <buflen.1+0x9a0>
    80002e8e:	968a                	add	a3,a3,sp
    80002e90:	e28c                	sd	a1,0(a3)
    80002e92:	23053403          	ld	s0,560(a0)
    80002e96:	8dae858b          	.insn	4, 0x8dae858b
    80002e9a:	2cc7058b          	.insn	4, 0x2cc7058b
    80002e9e:	4d04858b          	.insn	4, 0x4d04858b
    80002ea2:	ccf405fb          	.insn	4, 0xccf405fb
    80002ea6:	6685                	lui	a3,0x1
    80002ea8:	9d06869b          	addiw	a3,a3,-1584 # 9d0 <buflen.1+0x990>
    80002eac:	968a                	add	a3,a3,sp
    80002eae:	e28c                	sd	a1,0(a3)
    80002eb0:	23853883          	ld	a7,568(a0)
    80002eb4:	4104870b          	.insn	4, 0x4104870b
    80002eb8:	0d1405fb          	.insn	4, 0x0d1405fb
    80002ebc:	6685                	lui	a3,0x1
    80002ebe:	9c06869b          	addiw	a3,a3,-1600 # 9c0 <buflen.1+0x980>
    80002ec2:	968a                	add	a3,a3,sp
    80002ec4:	e28c                	sd	a1,0(a3)
    80002ec6:	24053703          	ld	a4,576(a0)
    80002eca:	85a9878b          	.insn	4, 0x85a9878b
    80002ece:	4504878b          	.insn	4, 0x4504878b
    80002ed2:	6514078b          	.insn	4, 0x6514078b
    80002ed6:	405705fb          	.insn	4, 0x405705fb
    80002eda:	6685                	lui	a3,0x1
    80002edc:	9b86869b          	addiw	a3,a3,-1608 # 9b8 <buflen.1+0x978>
    80002ee0:	968a                	add	a3,a3,sp
    80002ee2:	e28c                	sd	a1,0(a3)
    80002ee4:	24853783          	ld	a5,584(a0)
    80002ee8:	89af848b          	.insn	4, 0x89af848b
    80002eec:	6914048b          	.insn	4, 0x6914048b
    80002ef0:	80f705fb          	.insn	4, 0x80f705fb
    80002ef4:	6685                	lui	a3,0x1
    80002ef6:	9b06869b          	addiw	a3,a3,-1616 # 9b0 <buflen.1+0x970>
    80002efa:	968a                	add	a3,a3,sp
    80002efc:	e28c                	sd	a1,0(a3)
    80002efe:	25053483          	ld	s1,592(a0)
    80002f02:	8dab058b          	.insn	4, 0x8dab058b
    80002f06:	6d14058b          	.insn	4, 0x6d14058b
    80002f0a:	0cf7058b          	.insn	4, 0x0cf7058b
    80002f0e:	c4c485fb          	.insn	4, 0xc4c485fb
    80002f12:	6605                	lui	a2,0x1
    80002f14:	9a06061b          	addiw	a2,a2,-1632 # 9a0 <buflen.1+0x960>
    80002f18:	960a                	add	a2,a2,sp
    80002f1a:	e20c                	sd	a1,0(a2)
    80002f1c:	25853283          	ld	t0,600(a0)
    80002f20:	00f7060b          	.insn	4, 0x00f7060b
    80002f24:	045485fb          	.insn	4, 0x045485fb
    80002f28:	6605                	lui	a2,0x1
    80002f2a:	9906061b          	addiw	a2,a2,-1648 # 990 <buflen.1+0x950>
    80002f2e:	960a                	add	a2,a2,sp
    80002f30:	e20c                	sd	a1,0(a2)
    80002f32:	26053603          	ld	a2,608(a0)
    80002f36:	85ae040b          	.insn	4, 0x85ae040b
    80002f3a:	04f7070b          	.insn	4, 0x04f7070b
    80002f3e:	2454870b          	.insn	4, 0x2454870b
    80002f42:	490605fb          	.insn	4, 0x490605fb
    80002f46:	6685                	lui	a3,0x1
    80002f48:	9786869b          	addiw	a3,a3,-1672 # 978 <buflen.1+0x938>
    80002f4c:	968a                	add	a3,a3,sp
    80002f4e:	e28c                	sd	a1,0(a3)
    80002f50:	26853703          	ld	a4,616(a0)
    80002f54:	89a3040b          	.insn	4, 0x89a3040b
    80002f58:	4319                	li	t1,6
    80002f5a:	2854840b          	.insn	4, 0x2854840b
    80002f5e:	88e605fb          	.insn	4, 0x88e605fb
    80002f62:	6685                	lui	a3,0x1
    80002f64:	9886869b          	addiw	a3,a3,-1656 # 988 <buflen.1+0x948>
    80002f68:	968a                	add	a3,a3,sp
    80002f6a:	e28c                	sd	a1,0(a3)
    80002f6c:	27053403          	ld	s0,624(a0)
    80002f70:	8dae858b          	.insn	4, 0x8dae858b
    80002f74:	2c54858b          	.insn	4, 0x2c54858b
    80002f78:	4ce6058b          	.insn	4, 0x4ce6058b
    80002f7c:	cd1405fb          	.insn	4, 0xcd1405fb
    80002f80:	6685                	lui	a3,0x1
    80002f82:	9706869b          	addiw	a3,a3,-1680 # 970 <buflen.1+0x930>
    80002f86:	968a                	add	a3,a3,sp
    80002f88:	e28c                	sd	a1,0(a3)
    80002f8a:	27853803          	ld	a6,632(a0)
    80002f8e:	40e6048b          	.insn	4, 0x40e6048b
    80002f92:	0d0405fb          	.insn	4, 0x0d0405fb
    80002f96:	6685                	lui	a3,0x1
    80002f98:	9606869b          	addiw	a3,a3,-1696 # 960 <buflen.1+0x920>
    80002f9c:	968a                	add	a3,a3,sp
    80002f9e:	e28c                	sd	a1,0(a3)
    80002fa0:	28053483          	ld	s1,640(a0)
    80002fa4:	85a9858b          	.insn	4, 0x85a9858b
    80002fa8:	44e6058b          	.insn	4, 0x44e6058b
    80002fac:	6504058b          	.insn	4, 0x6504058b
    80002fb0:	40f485fb          	.insn	4, 0x40f485fb
    80002fb4:	6605                	lui	a2,0x1
    80002fb6:	9486061b          	addiw	a2,a2,-1720 # 948 <buflen.1+0x908>
    80002fba:	960a                	add	a2,a2,sp
    80002fbc:	e20c                	sd	a1,0(a2)
    80002fbe:	28853883          	ld	a7,648(a0)
    80002fc2:	89af860b          	.insn	4, 0x89af860b
    80002fc6:	6904060b          	.insn	4, 0x6904060b
    80002fca:	811485fb          	.insn	4, 0x811485fb
    80002fce:	6605                	lui	a2,0x1
    80002fd0:	9506061b          	addiw	a2,a2,-1712 # 950 <buflen.1+0x910>
    80002fd4:	960a                	add	a2,a2,sp
    80002fd6:	e20c                	sd	a1,0(a2)
    80002fd8:	29053603          	ld	a2,656(a0)
    80002fdc:	8dab078b          	.insn	4, 0x8dab078b
    80002fe0:	6d04078b          	.insn	4, 0x6d04078b
    80002fe4:	0d14878b          	.insn	4, 0x0d14878b
    80002fe8:	c45605fb          	.insn	4, 0xc45605fb
    80002fec:	6685                	lui	a3,0x1
    80002fee:	9386869b          	addiw	a3,a3,-1736 # 938 <buflen.1+0x8f8>
    80002ff2:	968a                	add	a3,a3,sp
    80002ff4:	e28c                	sd	a1,0(a3)
    80002ff6:	29853783          	ld	a5,664(a0)
    80002ffa:	0114840b          	.insn	4, 0x0114840b
    80002ffe:	04f605fb          	.insn	4, 0x04f605fb
    80003002:	6685                	lui	a3,0x1
    80003004:	9286869b          	addiw	a3,a3,-1752 # 928 <buflen.1+0x8e8>
    80003008:	968a                	add	a3,a3,sp
    8000300a:	e28c                	sd	a1,0(a3)
    8000300c:	2a053403          	ld	s0,672(a0)
    80003010:	85ae058b          	.insn	4, 0x85ae058b
    80003014:	0514858b          	.insn	4, 0x0514858b
    80003018:	24f6058b          	.insn	4, 0x24f6058b
    8000301c:	48e405fb          	.insn	4, 0x48e405fb
    80003020:	6685                	lui	a3,0x1
    80003022:	9086869b          	addiw	a3,a3,-1784 # 908 <buflen.1+0x8c8>
    80003026:	968a                	add	a3,a3,sp
    80003028:	e28c                	sd	a1,0(a3)
    8000302a:	2a853283          	ld	t0,680(a0)
    8000302e:	89a3070b          	.insn	4, 0x89a3070b
    80003032:	4319                	li	t1,6
    80003034:	28f6070b          	.insn	4, 0x28f6070b
    80003038:	885405fb          	.insn	4, 0x885405fb
    8000303c:	6685                	lui	a3,0x1
    8000303e:	9186869b          	addiw	a3,a3,-1768 # 918 <buflen.1+0x8d8>
    80003042:	968a                	add	a3,a3,sp
    80003044:	e28c                	sd	a1,0(a3)
    80003046:	2b053703          	ld	a4,688(a0)
    8000304a:	8dae848b          	.insn	4, 0x8dae848b
    8000304e:	2cf6060b          	.insn	4, 0x2cf6060b
    80003052:	4c54060b          	.insn	4, 0x4c54060b
    80003056:	cd0705fb          	.insn	4, 0xcd0705fb
    8000305a:	6605                	lui	a2,0x1
    8000305c:	8f86061b          	addiw	a2,a2,-1800 # 8f8 <buflen.1+0x8b8>
    80003060:	960a                	add	a2,a2,sp
    80003062:	e20c                	sd	a1,0(a2)
    80003064:	2b853603          	ld	a2,696(a0)
    80003068:	4054048b          	.insn	4, 0x4054048b
    8000306c:	0cc705fb          	.insn	4, 0x0cc705fb
    80003070:	6685                	lui	a3,0x1
    80003072:	8e86869b          	addiw	a3,a3,-1816 # 8e8 <buflen.1+0x8a8>
    80003076:	968a                	add	a3,a3,sp
    80003078:	e28c                	sd	a1,0(a3)
    8000307a:	2c053483          	ld	s1,704(a0)
    8000307e:	85a9858b          	.insn	4, 0x85a9858b
    80003082:	4454058b          	.insn	4, 0x4454058b
    80003086:	64c7058b          	.insn	4, 0x64c7058b
    8000308a:	411485fb          	.insn	4, 0x411485fb
    8000308e:	6685                	lui	a3,0x1
    80003090:	8d06869b          	addiw	a3,a3,-1840 # 8d0 <buflen.1+0x890>
    80003094:	968a                	add	a3,a3,sp
    80003096:	e28c                	sd	a1,0(a3)
    80003098:	2c853803          	ld	a6,712(a0)
    8000309c:	89af840b          	.insn	4, 0x89af840b
    800030a0:	68c7040b          	.insn	4, 0x68c7040b
    800030a4:	810485fb          	.insn	4, 0x810485fb
    800030a8:	6685                	lui	a3,0x1
    800030aa:	8c86869b          	addiw	a3,a3,-1848 # 8c8 <buflen.1+0x888>
    800030ae:	968a                	add	a3,a3,sp
    800030b0:	e28c                	sd	a1,0(a3)
    800030b2:	2d053403          	ld	s0,720(a0)
    800030b6:	8dab058b          	.insn	4, 0x8dab058b
    800030ba:	6cc7058b          	.insn	4, 0x6cc7058b
    800030be:	0d04858b          	.insn	4, 0x0d04858b
    800030c2:	c4f405fb          	.insn	4, 0xc4f405fb
    800030c6:	6685                	lui	a3,0x1
    800030c8:	8b86869b          	addiw	a3,a3,-1864 # 8b8 <buflen.1+0x878>
    800030cc:	968a                	add	a3,a3,sp
    800030ce:	e28c                	sd	a1,0(a3)
    800030d0:	2d853883          	ld	a7,728(a0)
    800030d4:	0104870b          	.insn	4, 0x0104870b
    800030d8:	051405fb          	.insn	4, 0x051405fb
    800030dc:	6685                	lui	a3,0x1
    800030de:	8a86869b          	addiw	a3,a3,-1880 # 8a8 <buflen.1+0x868>
    800030e2:	968a                	add	a3,a3,sp
    800030e4:	e28c                	sd	a1,0(a3)
    800030e6:	2e053703          	ld	a4,736(a0)
    800030ea:	85ae078b          	.insn	4, 0x85ae078b
    800030ee:	0504878b          	.insn	4, 0x0504878b
    800030f2:	2514078b          	.insn	4, 0x2514078b
    800030f6:	485705fb          	.insn	4, 0x485705fb
    800030fa:	6685                	lui	a3,0x1
    800030fc:	8886869b          	addiw	a3,a3,-1912 # 888 <buflen.1+0x848>
    80003100:	968a                	add	a3,a3,sp
    80003102:	e28c                	sd	a1,0(a3)
    80003104:	2e853783          	ld	a5,744(a0)
    80003108:	89a3048b          	.insn	4, 0x89a3048b
    8000310c:	4319                	li	t1,6
    8000310e:	2914048b          	.insn	4, 0x2914048b
    80003112:	88f705fb          	.insn	4, 0x88f705fb
    80003116:	6685                	lui	a3,0x1
    80003118:	8a06869b          	addiw	a3,a3,-1888 # 8a0 <buflen.1+0x860>
    8000311c:	968a                	add	a3,a3,sp
    8000311e:	e28c                	sd	a1,0(a3)
    80003120:	2f053483          	ld	s1,752(a0)
    80003124:	8dae858b          	.insn	4, 0x8dae858b
    80003128:	2d14058b          	.insn	4, 0x2d14058b
    8000312c:	4cf7058b          	.insn	4, 0x4cf7058b
    80003130:	ccc485fb          	.insn	4, 0xccc485fb
    80003134:	6605                	lui	a2,0x1
    80003136:	8806061b          	addiw	a2,a2,-1920 # 880 <buflen.1+0x840>
    8000313a:	960a                	add	a2,a2,sp
    8000313c:	e20c                	sd	a1,0(a2)
    8000313e:	2f853283          	ld	t0,760(a0)
    80003142:	40f7060b          	.insn	4, 0x40f7060b
    80003146:	0c5485fb          	.insn	4, 0x0c5485fb
    8000314a:	6605                	lui	a2,0x1
    8000314c:	8786061b          	addiw	a2,a2,-1928 # 878 <buflen.1+0x838>
    80003150:	960a                	add	a2,a2,sp
    80003152:	e20c                	sd	a1,0(a2)
    80003154:	30053603          	ld	a2,768(a0)
    80003158:	85a9840b          	.insn	4, 0x85a9840b
    8000315c:	44f7070b          	.insn	4, 0x44f7070b
    80003160:	6454870b          	.insn	4, 0x6454870b
    80003164:	410605fb          	.insn	4, 0x410605fb
    80003168:	6685                	lui	a3,0x1
    8000316a:	8606869b          	addiw	a3,a3,-1952 # 860 <buflen.1+0x820>
    8000316e:	968a                	add	a3,a3,sp
    80003170:	e28c                	sd	a1,0(a3)
    80003172:	30853703          	ld	a4,776(a0)
    80003176:	89af840b          	.insn	4, 0x89af840b
    8000317a:	6854840b          	.insn	4, 0x6854840b
    8000317e:	80e605fb          	.insn	4, 0x80e605fb
    80003182:	6685                	lui	a3,0x1
    80003184:	8686869b          	addiw	a3,a3,-1944 # 868 <buflen.1+0x828>
    80003188:	968a                	add	a3,a3,sp
    8000318a:	e28c                	sd	a1,0(a3)
    8000318c:	31053403          	ld	s0,784(a0)
    80003190:	8dab058b          	.insn	4, 0x8dab058b
    80003194:	6c54858b          	.insn	4, 0x6c54858b
    80003198:	0ce6058b          	.insn	4, 0x0ce6058b
    8000319c:	c51405fb          	.insn	4, 0xc51405fb
    800031a0:	6685                	lui	a3,0x1
    800031a2:	8506869b          	addiw	a3,a3,-1968 # 850 <buflen.1+0x810>
    800031a6:	968a                	add	a3,a3,sp
    800031a8:	e28c                	sd	a1,0(a3)
    800031aa:	31853803          	ld	a6,792(a0)
    800031ae:	00e6048b          	.insn	4, 0x00e6048b
    800031b2:	050405fb          	.insn	4, 0x050405fb
    800031b6:	6685                	lui	a3,0x1
    800031b8:	8486869b          	addiw	a3,a3,-1976 # 848 <buflen.1+0x808>
    800031bc:	968a                	add	a3,a3,sp
    800031be:	e28c                	sd	a1,0(a3)
    800031c0:	32053483          	ld	s1,800(a0)
    800031c4:	85ae058b          	.insn	4, 0x85ae058b
    800031c8:	04e6058b          	.insn	4, 0x04e6058b
    800031cc:	2504058b          	.insn	4, 0x2504058b
    800031d0:	48f485fb          	.insn	4, 0x48f485fb
    800031d4:	6605                	lui	a2,0x1
    800031d6:	8406061b          	addiw	a2,a2,-1984 # 840 <buflen.1+0x800>
    800031da:	960a                	add	a2,a2,sp
    800031dc:	e20c                	sd	a1,0(a2)
    800031de:	32853883          	ld	a7,808(a0)
    800031e2:	89a3060b          	.insn	4, 0x89a3060b
    800031e6:	4319                	li	t1,6
    800031e8:	2904060b          	.insn	4, 0x2904060b
    800031ec:	891485fb          	.insn	4, 0x891485fb
    800031f0:	6605                	lui	a2,0x1
    800031f2:	8286061b          	addiw	a2,a2,-2008 # 828 <buflen.1+0x7e8>
    800031f6:	960a                	add	a2,a2,sp
    800031f8:	e20c                	sd	a1,0(a2)
    800031fa:	33053603          	ld	a2,816(a0)
    800031fe:	8dae878b          	.insn	4, 0x8dae878b
    80003202:	2d04078b          	.insn	4, 0x2d04078b
    80003206:	4d14878b          	.insn	4, 0x4d14878b
    8000320a:	cc5605fb          	.insn	4, 0xcc5605fb
    8000320e:	6685                	lui	a3,0x1
    80003210:	8206869b          	addiw	a3,a3,-2016 # 820 <buflen.1+0x7e0>
    80003214:	968a                	add	a3,a3,sp
    80003216:	e28c                	sd	a1,0(a3)
    80003218:	33853783          	ld	a5,824(a0)
    8000321c:	4114840b          	.insn	4, 0x4114840b
    80003220:	0cf605fb          	.insn	4, 0x0cf605fb
    80003224:	6685                	lui	a3,0x1
    80003226:	8186869b          	addiw	a3,a3,-2024 # 818 <buflen.1+0x7d8>
    8000322a:	968a                	add	a3,a3,sp
    8000322c:	e28c                	sd	a1,0(a3)
    8000322e:	34053403          	ld	s0,832(a0)
    80003232:	85a9858b          	.insn	4, 0x85a9858b
    80003236:	4514858b          	.insn	4, 0x4514858b
    8000323a:	64f6058b          	.insn	4, 0x64f6058b
    8000323e:	40e405fb          	.insn	4, 0x40e405fb
    80003242:	6685                	lui	a3,0x1
    80003244:	8086869b          	addiw	a3,a3,-2040 # 808 <buflen.1+0x7c8>
    80003248:	968a                	add	a3,a3,sp
    8000324a:	e28c                	sd	a1,0(a3)
    8000324c:	34853283          	ld	t0,840(a0)
    80003250:	89af870b          	.insn	4, 0x89af870b
    80003254:	68f6070b          	.insn	4, 0x68f6070b
    80003258:	805405fb          	.insn	4, 0x805405fb
    8000325c:	7eb13c23          	sd	a1,2040(sp)
    80003260:	35053703          	ld	a4,848(a0)
    80003264:	8dab048b          	.insn	4, 0x8dab048b
    80003268:	6cf6060b          	.insn	4, 0x6cf6060b
    8000326c:	0c54060b          	.insn	4, 0x0c54060b
    80003270:	c50705fb          	.insn	4, 0xc50705fb
    80003274:	7eb13823          	sd	a1,2032(sp)
    80003278:	35853603          	ld	a2,856(a0)
    8000327c:	0054048b          	.insn	4, 0x0054048b
    80003280:	04c705fb          	.insn	4, 0x04c705fb
    80003284:	7eb13023          	sd	a1,2016(sp)
    80003288:	36053483          	ld	s1,864(a0)
    8000328c:	85ae058b          	.insn	4, 0x85ae058b
    80003290:	0454058b          	.insn	4, 0x0454058b
    80003294:	24c7058b          	.insn	4, 0x24c7058b
    80003298:	491485fb          	.insn	4, 0x491485fb
    8000329c:	7cb13023          	sd	a1,1984(sp)
    800032a0:	36853803          	ld	a6,872(a0)
    800032a4:	89a3040b          	.insn	4, 0x89a3040b
    800032a8:	4399                	li	t2,6
    800032aa:	28c7040b          	.insn	4, 0x28c7040b
    800032ae:	890485fb          	.insn	4, 0x890485fb
    800032b2:	7ab13023          	sd	a1,1952(sp)
    800032b6:	37053403          	ld	s0,880(a0)
    800032ba:	8dae858b          	.insn	4, 0x8dae858b
    800032be:	2cc7058b          	.insn	4, 0x2cc7058b
    800032c2:	4d04858b          	.insn	4, 0x4d04858b
    800032c6:	ccf405fb          	.insn	4, 0xccf405fb
    800032ca:	78b13023          	sd	a1,1920(sp)
    800032ce:	37853883          	ld	a7,888(a0)
    800032d2:	4104870b          	.insn	4, 0x4104870b
    800032d6:	0d1405fb          	.insn	4, 0x0d1405fb
    800032da:	78b13823          	sd	a1,1936(sp)
    800032de:	38053703          	ld	a4,896(a0)
    800032e2:	85a9878b          	.insn	4, 0x85a9878b
    800032e6:	4504878b          	.insn	4, 0x4504878b
    800032ea:	6514078b          	.insn	4, 0x6514078b
    800032ee:	405705fb          	.insn	4, 0x405705fb
    800032f2:	76b13823          	sd	a1,1904(sp)
    800032f6:	38853783          	ld	a5,904(a0)
    800032fa:	89af848b          	.insn	4, 0x89af848b
    800032fe:	6914048b          	.insn	4, 0x6914048b
    80003302:	80f705fb          	.insn	4, 0x80f705fb
    80003306:	74b13c23          	sd	a1,1880(sp)
    8000330a:	39053483          	ld	s1,912(a0)
    8000330e:	8dab058b          	.insn	4, 0x8dab058b
    80003312:	6d14058b          	.insn	4, 0x6d14058b
    80003316:	0cf7058b          	.insn	4, 0x0cf7058b
    8000331a:	c4c485fb          	.insn	4, 0xc4c485fb
    8000331e:	74b13023          	sd	a1,1856(sp)
    80003322:	39853283          	ld	t0,920(a0)
    80003326:	00f7060b          	.insn	4, 0x00f7060b
    8000332a:	045485fb          	.insn	4, 0x045485fb
    8000332e:	74b13823          	sd	a1,1872(sp)
    80003332:	3a053603          	ld	a2,928(a0)
    80003336:	85ae040b          	.insn	4, 0x85ae040b
    8000333a:	04f7070b          	.insn	4, 0x04f7070b
    8000333e:	2454870b          	.insn	4, 0x2454870b
    80003342:	490605fb          	.insn	4, 0x490605fb
    80003346:	72b13423          	sd	a1,1832(sp)
    8000334a:	3a853303          	ld	t1,936(a0)
    8000334e:	89a3840b          	.insn	4, 0x89a3840b
    80003352:	4399                	li	t2,6
    80003354:	2854840b          	.insn	4, 0x2854840b
    80003358:	886605fb          	.insn	4, 0x886605fb
    8000335c:	70b13c23          	sd	a1,1816(sp)
    80003360:	3b053403          	ld	s0,944(a0)
    80003364:	8dae858b          	.insn	4, 0x8dae858b
    80003368:	2c54858b          	.insn	4, 0x2c54858b
    8000336c:	4c66058b          	.insn	4, 0x4c66058b
    80003370:	cd1405fb          	.insn	4, 0xcd1405fb
    80003374:	70b13423          	sd	a1,1800(sp)
    80003378:	3b853803          	ld	a6,952(a0)
    8000337c:	4066048b          	.insn	4, 0x4066048b
    80003380:	0d0405fb          	.insn	4, 0x0d0405fb
    80003384:	6eb13823          	sd	a1,1776(sp)
    80003388:	3c053483          	ld	s1,960(a0)
    8000338c:	85a9858b          	.insn	4, 0x85a9858b
    80003390:	4466058b          	.insn	4, 0x4466058b
    80003394:	6504058b          	.insn	4, 0x6504058b
    80003398:	40f485fb          	.insn	4, 0x40f485fb
    8000339c:	6eb13423          	sd	a1,1768(sp)
    800033a0:	3c853583          	ld	a1,968(a0)
    800033a4:	89af860b          	.insn	4, 0x89af860b
    800033a8:	6904060b          	.insn	4, 0x6904060b
    800033ac:	80b4867b          	.insn	4, 0x80b4867b
    800033b0:	6cc13c23          	sd	a2,1752(sp)
    800033b4:	3d053603          	ld	a2,976(a0)
    800033b8:	8dab078b          	.insn	4, 0x8dab078b
    800033bc:	6d04078b          	.insn	4, 0x6d04078b
    800033c0:	0cb4878b          	.insn	4, 0x0cb4878b
    800033c4:	c456077b          	.insn	4, 0xc456077b
    800033c8:	6ce13423          	sd	a4,1736(sp)
    800033cc:	3d853783          	ld	a5,984(a0)
    800033d0:	00b4840b          	.insn	4, 0x00b4840b
    800033d4:	04f6077b          	.insn	4, 0x04f6077b
    800033d8:	6ae13823          	sd	a4,1712(sp)
    800033dc:	3e053403          	ld	s0,992(a0)
    800033e0:	85ae070b          	.insn	4, 0x85ae070b
    800033e4:	04b4858b          	.insn	4, 0x04b4858b
    800033e8:	24f6058b          	.insn	4, 0x24f6058b
    800033ec:	486405fb          	.insn	4, 0x486405fb
    800033f0:	6ab13423          	sd	a1,1704(sp)
    800033f4:	3e853583          	ld	a1,1000(a0)
    800033f8:	89a3870b          	.insn	4, 0x89a3870b
    800033fc:	4919                	li	s2,6
    800033fe:	28f6070b          	.insn	4, 0x28f6070b
    80003402:	88b4077b          	.insn	4, 0x88b4077b
    80003406:	6ae13023          	sd	a4,1696(sp)
    8000340a:	3f053703          	ld	a4,1008(a0)
    8000340e:	8dae848b          	.insn	4, 0x8dae848b
    80003412:	2cf6060b          	.insn	4, 0x2cf6060b
    80003416:	4cb4060b          	.insn	4, 0x4cb4060b
    8000341a:	cd07067b          	.insn	4, 0xcd07067b
    8000341e:	68c13823          	sd	a2,1680(sp)
    80003422:	3f853503          	ld	a0,1016(a0)
    80003426:	40b4058b          	.insn	4, 0x40b4058b
    8000342a:	0ca7057b          	.insn	4, 0x0ca7057b
    8000342e:	68a13423          	sd	a0,1672(sp)
    80003432:	6505                	lui	a0,0x1
    80003434:	fa05051b          	addiw	a0,a0,-96 # fa0 <buflen.1+0xf60>
    80003438:	950a                	add	a0,a0,sp
    8000343a:	6108                	ld	a0,0(a0)
    8000343c:	00156513          	ori	a0,a0,1
    80003440:	66a13423          	sd	a0,1640(sp)
    80003444:	052a                	slli	a0,a0,0xa
    80003446:	6585                	lui	a1,0x1
    80003448:	f985859b          	addiw	a1,a1,-104 # f98 <buflen.1+0xf58>
    8000344c:	958a                	add	a1,a1,sp
    8000344e:	618c                	ld	a1,0(a1)
    80003450:	952e                	add	a0,a0,a1
    80003452:	00053803          	ld	a6,0(a0)
    80003456:	00853883          	ld	a7,8(a0)
    8000345a:	01053303          	ld	t1,16(a0)
    8000345e:	01853383          	ld	t2,24(a0)
    80003462:	7104                	ld	s1,32(a0)
    80003464:	7500                	ld	s0,40(a0)
    80003466:	790c                	ld	a1,48(a0)
    80003468:	03853283          	ld	t0,56(a0)
    8000346c:	0518060b          	.insn	4, 0x0518060b
    80003470:	2473060b          	.insn	4, 0x2473060b
    80003474:	4484860b          	.insn	4, 0x4484860b
    80003478:	4c55867b          	.insn	4, 0x4c55867b
    8000347c:	64c13823          	sd	a2,1616(sp)
    80003480:	6130                	ld	a2,64(a0)
    80003482:	89a9870b          	.insn	4, 0x89a9870b
    80003486:	2873070b          	.insn	4, 0x2873070b
    8000348a:	4884870b          	.insn	4, 0x4884870b
    8000348e:	6855870b          	.insn	4, 0x6855870b
    80003492:	8116077b          	.insn	4, 0x8116077b
    80003496:	62e13423          	sd	a4,1576(sp)
    8000349a:	04853803          	ld	a6,72(a0)
    8000349e:	8daf870b          	.insn	4, 0x8daf870b
    800034a2:	2c73070b          	.insn	4, 0x2c73070b
    800034a6:	4c84870b          	.insn	4, 0x4c84870b
    800034aa:	6c55870b          	.insn	4, 0x6c55870b
    800034ae:	c106077b          	.insn	4, 0xc106077b
    800034b2:	60e13423          	sd	a4,1544(sp)
    800034b6:	6938                	ld	a4,80(a0)
    800034b8:	81ab078b          	.insn	4, 0x81ab078b
    800034bc:	4084878b          	.insn	4, 0x4084878b
    800034c0:	6055858b          	.insn	4, 0x6055858b
    800034c4:	0106058b          	.insn	4, 0x0106058b
    800034c8:	047705fb          	.insn	4, 0x047705fb
    800034cc:	5eb13c23          	sd	a1,1528(sp)
    800034d0:	05853883          	ld	a7,88(a0)
    800034d4:	85af078b          	.insn	4, 0x85af078b
    800034d8:	0506078b          	.insn	4, 0x0506078b
    800034dc:	451705fb          	.insn	4, 0x451705fb
    800034e0:	5eb13423          	sd	a1,1512(sp)
    800034e4:	713c                	ld	a5,96(a0)
    800034e6:	89ae048b          	.insn	4, 0x89ae048b
    800034ea:	0906060b          	.insn	4, 0x0906060b
    800034ee:	2917060b          	.insn	4, 0x2917060b
    800034f2:	888785fb          	.insn	4, 0x888785fb
    800034f6:	5cb13023          	sd	a1,1472(sp)
    800034fa:	7530                	ld	a2,104(a0)
    800034fc:	8da9048b          	.insn	4, 0x8da9048b
    80003500:	2d17048b          	.insn	4, 0x2d17048b
    80003504:	c8c785fb          	.insn	4, 0xc8c785fb
    80003508:	5ab13023          	sd	a1,1440(sp)
    8000350c:	7924                	ld	s1,112(a0)
    8000350e:	81ae840b          	.insn	4, 0x81ae840b
    80003512:	2117070b          	.insn	4, 0x2117070b
    80003516:	40c7870b          	.insn	4, 0x40c7870b
    8000351a:	0c5485fb          	.insn	4, 0x0c5485fb
    8000351e:	58b13423          	sd	a1,1416(sp)
    80003522:	7d38                	ld	a4,120(a0)
    80003524:	44c7840b          	.insn	4, 0x44c7840b
    80003528:	4ce485fb          	.insn	4, 0x4ce485fb
    8000352c:	56b13c23          	sd	a1,1400(sp)
    80003530:	6140                	ld	s0,128(a0)
    80003532:	4385                	li	t2,1
    80003534:	89a3858b          	.insn	4, 0x89a3858b
    80003538:	48c7858b          	.insn	4, 0x48c7858b
    8000353c:	68e4858b          	.insn	4, 0x68e4858b
    80003540:	810405fb          	.insn	4, 0x810405fb
    80003544:	54b13c23          	sd	a1,1368(sp)
    80003548:	08853803          	ld	a6,136(a0)
    8000354c:	4309                	li	t1,2
    8000354e:	8da3078b          	.insn	4, 0x8da3078b
    80003552:	6ce4878b          	.insn	4, 0x6ce4878b
    80003556:	c10405fb          	.insn	4, 0xc10405fb
    8000355a:	54b13823          	sd	a1,1360(sp)
    8000355e:	695c                	ld	a5,144(a0)
    80003560:	81ab058b          	.insn	4, 0x81ab058b
    80003564:	60e4858b          	.insn	4, 0x60e4858b
    80003568:	0104058b          	.insn	4, 0x0104058b
    8000356c:	051785fb          	.insn	4, 0x051785fb
    80003570:	52b13c23          	sd	a1,1336(sp)
    80003574:	09853883          	ld	a7,152(a0)
    80003578:	0504048b          	.insn	4, 0x0504048b
    8000357c:	451785fb          	.insn	4, 0x451785fb
    80003580:	52b13823          	sd	a1,1328(sp)
    80003584:	7144                	ld	s1,160(a0)
    80003586:	89ae058b          	.insn	4, 0x89ae058b
    8000358a:	0904058b          	.insn	4, 0x0904058b
    8000358e:	2917858b          	.insn	4, 0x2917858b
    80003592:	88c485fb          	.insn	4, 0x88c485fb
    80003596:	52b13023          	sd	a1,1312(sp)
    8000359a:	0a853283          	ld	t0,168(a0)
    8000359e:	8da9060b          	.insn	4, 0x8da9060b
    800035a2:	2d17860b          	.insn	4, 0x2d17860b
    800035a6:	c85485fb          	.insn	4, 0xc85485fb
    800035aa:	50b13823          	sd	a1,1296(sp)
    800035ae:	7950                	ld	a2,176(a0)
    800035b0:	81ae840b          	.insn	4, 0x81ae840b
    800035b4:	2117878b          	.insn	4, 0x2117878b
    800035b8:	4054878b          	.insn	4, 0x4054878b
    800035bc:	0ce605fb          	.insn	4, 0x0ce605fb
    800035c0:	4eb13c23          	sd	a1,1272(sp)
    800035c4:	7d58                	ld	a4,184(a0)
    800035c6:	4454878b          	.insn	4, 0x4454878b
    800035ca:	4ce605fb          	.insn	4, 0x4ce605fb
    800035ce:	4eb13823          	sd	a1,1264(sp)
    800035d2:	617c                	ld	a5,192(a0)
    800035d4:	89a3840b          	.insn	4, 0x89a3840b
    800035d8:	4985                	li	s3,1
    800035da:	4854848b          	.insn	4, 0x4854848b
    800035de:	68e6048b          	.insn	4, 0x68e6048b
    800035e2:	810785fb          	.insn	4, 0x810785fb
    800035e6:	4cb13c23          	sd	a1,1240(sp)
    800035ea:	6564                	ld	s1,200(a0)
    800035ec:	8da3040b          	.insn	4, 0x8da3040b
    800035f0:	4309                	li	t1,2
    800035f2:	6ce6040b          	.insn	4, 0x6ce6040b
    800035f6:	c09785fb          	.insn	4, 0xc09785fb
    800035fa:	4cb13023          	sd	a1,1216(sp)
    800035fe:	6960                	ld	s0,208(a0)
    80003600:	81ab058b          	.insn	4, 0x81ab058b
    80003604:	60e6058b          	.insn	4, 0x60e6058b
    80003608:	0097858b          	.insn	4, 0x0097858b
    8000360c:	051405fb          	.insn	4, 0x051405fb
    80003610:	4ab13823          	sd	a1,1200(sp)
    80003614:	0d853803          	ld	a6,216(a0)
    80003618:	0497860b          	.insn	4, 0x0497860b
    8000361c:	450405fb          	.insn	4, 0x450405fb
    80003620:	4ab13423          	sd	a1,1192(sp)
    80003624:	7170                	ld	a2,224(a0)
    80003626:	89ae058b          	.insn	4, 0x89ae058b
    8000362a:	0897858b          	.insn	4, 0x0897858b
    8000362e:	2904058b          	.insn	4, 0x2904058b
    80003632:	885605fb          	.insn	4, 0x885605fb
    80003636:	4ab13023          	sd	a1,1184(sp)
    8000363a:	0e853883          	ld	a7,232(a0)
    8000363e:	8da9078b          	.insn	4, 0x8da9078b
    80003642:	2d04078b          	.insn	4, 0x2d04078b
    80003646:	c91605fb          	.insn	4, 0xc91605fb
    8000364a:	48b13c23          	sd	a1,1176(sp)
    8000364e:	797c                	ld	a5,240(a0)
    80003650:	81ae858b          	.insn	4, 0x81ae858b
    80003654:	2104058b          	.insn	4, 0x2104058b
    80003658:	4116058b          	.insn	4, 0x4116058b
    8000365c:	0ce785fb          	.insn	4, 0x0ce785fb
    80003660:	48b13823          	sd	a1,1168(sp)
    80003664:	0f853283          	ld	t0,248(a0)
    80003668:	4516070b          	.insn	4, 0x4516070b
    8000366c:	4c5785fb          	.insn	4, 0x4c5785fb
    80003670:	48b13423          	sd	a1,1160(sp)
    80003674:	10053703          	ld	a4,256(a0)
    80003678:	89a9840b          	.insn	4, 0x89a9840b
    8000367c:	4916060b          	.insn	4, 0x4916060b
    80003680:	6857860b          	.insn	4, 0x6857860b
    80003684:	809705fb          	.insn	4, 0x809705fb
    80003688:	48b13023          	sd	a1,1152(sp)
    8000368c:	10853603          	ld	a2,264(a0)
    80003690:	8da3048b          	.insn	4, 0x8da3048b
    80003694:	4309                	li	t1,2
    80003696:	6c57848b          	.insn	4, 0x6c57848b
    8000369a:	c0c705fb          	.insn	4, 0xc0c705fb
    8000369e:	46b13c23          	sd	a1,1144(sp)
    800036a2:	11053483          	ld	s1,272(a0)
    800036a6:	81ab040b          	.insn	4, 0x81ab040b
    800036aa:	6057878b          	.insn	4, 0x6057878b
    800036ae:	00c7078b          	.insn	4, 0x00c7078b
    800036b2:	050485fb          	.insn	4, 0x050485fb
    800036b6:	46b13823          	sd	a1,1136(sp)
    800036ba:	11853783          	ld	a5,280(a0)
    800036be:	04c7040b          	.insn	4, 0x04c7040b
    800036c2:	44f485fb          	.insn	4, 0x44f485fb
    800036c6:	46b13423          	sd	a1,1128(sp)
    800036ca:	12053403          	ld	s0,288(a0)
    800036ce:	89ae058b          	.insn	4, 0x89ae058b
    800036d2:	08c7058b          	.insn	4, 0x08c7058b
    800036d6:	28f4858b          	.insn	4, 0x28f4858b
    800036da:	891405fb          	.insn	4, 0x891405fb
    800036de:	46b13023          	sd	a1,1120(sp)
    800036e2:	12853803          	ld	a6,296(a0)
    800036e6:	8da9070b          	.insn	4, 0x8da9070b
    800036ea:	2cf4870b          	.insn	4, 0x2cf4870b
    800036ee:	c90405fb          	.insn	4, 0xc90405fb
    800036f2:	44b13c23          	sd	a1,1112(sp)
    800036f6:	13053703          	ld	a4,304(a0)
    800036fa:	81ae858b          	.insn	4, 0x81ae858b
    800036fe:	20f4858b          	.insn	4, 0x20f4858b
    80003702:	4104058b          	.insn	4, 0x4104058b
    80003706:	0c5705fb          	.insn	4, 0x0c5705fb
    8000370a:	44b13823          	sd	a1,1104(sp)
    8000370e:	13853883          	ld	a7,312(a0)
    80003712:	4504048b          	.insn	4, 0x4504048b
    80003716:	4d1705fb          	.insn	4, 0x4d1705fb
    8000371a:	44b13423          	sd	a1,1096(sp)
    8000371e:	14053483          	ld	s1,320(a0)
    80003722:	89a9858b          	.insn	4, 0x89a9858b
    80003726:	4904058b          	.insn	4, 0x4904058b
    8000372a:	6917058b          	.insn	4, 0x6917058b
    8000372e:	80c485fb          	.insn	4, 0x80c485fb
    80003732:	44b13023          	sd	a1,1088(sp)
    80003736:	14853283          	ld	t0,328(a0)
    8000373a:	8da3060b          	.insn	4, 0x8da3060b
    8000373e:	4309                	li	t1,2
    80003740:	6d17060b          	.insn	4, 0x6d17060b
    80003744:	c05485fb          	.insn	4, 0xc05485fb
    80003748:	42b13c23          	sd	a1,1080(sp)
    8000374c:	15053603          	ld	a2,336(a0)
    80003750:	81ab040b          	.insn	4, 0x81ab040b
    80003754:	6117070b          	.insn	4, 0x6117070b
    80003758:	0054870b          	.insn	4, 0x0054870b
    8000375c:	04f605fb          	.insn	4, 0x04f605fb
    80003760:	42b13823          	sd	a1,1072(sp)
    80003764:	15853703          	ld	a4,344(a0)
    80003768:	0454878b          	.insn	4, 0x0454878b
    8000376c:	44e605fb          	.insn	4, 0x44e605fb
    80003770:	42b13423          	sd	a1,1064(sp)
    80003774:	16053783          	ld	a5,352(a0)
    80003778:	89ae040b          	.insn	4, 0x89ae040b
    8000377c:	0854848b          	.insn	4, 0x0854848b
    80003780:	28e6048b          	.insn	4, 0x28e6048b
    80003784:	890785fb          	.insn	4, 0x890785fb
    80003788:	42b13023          	sd	a1,1056(sp)
    8000378c:	16853483          	ld	s1,360(a0)
    80003790:	8da9040b          	.insn	4, 0x8da9040b
    80003794:	2ce6040b          	.insn	4, 0x2ce6040b
    80003798:	c89785fb          	.insn	4, 0xc89785fb
    8000379c:	40b13c23          	sd	a1,1048(sp)
    800037a0:	17053403          	ld	s0,368(a0)
    800037a4:	81ae858b          	.insn	4, 0x81ae858b
    800037a8:	20e6058b          	.insn	4, 0x20e6058b
    800037ac:	4097858b          	.insn	4, 0x4097858b
    800037b0:	0d1405fb          	.insn	4, 0x0d1405fb
    800037b4:	40b13823          	sd	a1,1040(sp)
    800037b8:	17853803          	ld	a6,376(a0)
    800037bc:	4497860b          	.insn	4, 0x4497860b
    800037c0:	4d0405fb          	.insn	4, 0x4d0405fb
    800037c4:	40b13423          	sd	a1,1032(sp)
    800037c8:	18053603          	ld	a2,384(a0)
    800037cc:	89a9858b          	.insn	4, 0x89a9858b
    800037d0:	4897858b          	.insn	4, 0x4897858b
    800037d4:	6904058b          	.insn	4, 0x6904058b
    800037d8:	805605fb          	.insn	4, 0x805605fb
    800037dc:	40b13023          	sd	a1,1024(sp)
    800037e0:	18853883          	ld	a7,392(a0)
    800037e4:	8da3078b          	.insn	4, 0x8da3078b
    800037e8:	4309                	li	t1,2
    800037ea:	6d04078b          	.insn	4, 0x6d04078b
    800037ee:	c11605fb          	.insn	4, 0xc11605fb
    800037f2:	3eb13c23          	sd	a1,1016(sp)
    800037f6:	19053783          	ld	a5,400(a0)
    800037fa:	81ab058b          	.insn	4, 0x81ab058b
    800037fe:	6104058b          	.insn	4, 0x6104058b
    80003802:	0116058b          	.insn	4, 0x0116058b
    80003806:	04e785fb          	.insn	4, 0x04e785fb
    8000380a:	3eb13823          	sd	a1,1008(sp)
    8000380e:	19853283          	ld	t0,408(a0)
    80003812:	0516070b          	.insn	4, 0x0516070b
    80003816:	445785fb          	.insn	4, 0x445785fb
    8000381a:	3eb13423          	sd	a1,1000(sp)
    8000381e:	1a053703          	ld	a4,416(a0)
    80003822:	89ae040b          	.insn	4, 0x89ae040b
    80003826:	0916060b          	.insn	4, 0x0916060b
    8000382a:	2857860b          	.insn	4, 0x2857860b
    8000382e:	889705fb          	.insn	4, 0x889705fb
    80003832:	3eb13023          	sd	a1,992(sp)
    80003836:	1a853603          	ld	a2,424(a0)
    8000383a:	8da9048b          	.insn	4, 0x8da9048b
    8000383e:	2c57848b          	.insn	4, 0x2c57848b
    80003842:	c8c705fb          	.insn	4, 0xc8c705fb
    80003846:	3cb13c23          	sd	a1,984(sp)
    8000384a:	1b053483          	ld	s1,432(a0)
    8000384e:	81ae840b          	.insn	4, 0x81ae840b
    80003852:	2057878b          	.insn	4, 0x2057878b
    80003856:	40c7078b          	.insn	4, 0x40c7078b
    8000385a:	0d0485fb          	.insn	4, 0x0d0485fb
    8000385e:	3cb13823          	sd	a1,976(sp)
    80003862:	1b853783          	ld	a5,440(a0)
    80003866:	44c7040b          	.insn	4, 0x44c7040b
    8000386a:	4cf485fb          	.insn	4, 0x4cf485fb
    8000386e:	3cb13423          	sd	a1,968(sp)
    80003872:	1c053403          	ld	s0,448(a0)
    80003876:	89a9858b          	.insn	4, 0x89a9858b
    8000387a:	48c7058b          	.insn	4, 0x48c7058b
    8000387e:	68f4858b          	.insn	4, 0x68f4858b
    80003882:	811405fb          	.insn	4, 0x811405fb
    80003886:	3cb13023          	sd	a1,960(sp)
    8000388a:	1c853803          	ld	a6,456(a0)
    8000388e:	8da3070b          	.insn	4, 0x8da3070b
    80003892:	4689                	li	a3,2
    80003894:	6cf4870b          	.insn	4, 0x6cf4870b
    80003898:	c10405fb          	.insn	4, 0xc10405fb
    8000389c:	3ab13c23          	sd	a1,952(sp)
    800038a0:	1d053703          	ld	a4,464(a0)
    800038a4:	81ab058b          	.insn	4, 0x81ab058b
    800038a8:	60f4858b          	.insn	4, 0x60f4858b
    800038ac:	0104058b          	.insn	4, 0x0104058b
    800038b0:	045705fb          	.insn	4, 0x045705fb
    800038b4:	3ab13823          	sd	a1,944(sp)
    800038b8:	1d853883          	ld	a7,472(a0)
    800038bc:	0504048b          	.insn	4, 0x0504048b
    800038c0:	451705fb          	.insn	4, 0x451705fb
    800038c4:	3ab13423          	sd	a1,936(sp)
    800038c8:	1e053483          	ld	s1,480(a0)
    800038cc:	89ae058b          	.insn	4, 0x89ae058b
    800038d0:	0904058b          	.insn	4, 0x0904058b
    800038d4:	2917058b          	.insn	4, 0x2917058b
    800038d8:	88c485fb          	.insn	4, 0x88c485fb
    800038dc:	3ab13023          	sd	a1,928(sp)
    800038e0:	1e853283          	ld	t0,488(a0)
    800038e4:	8da9060b          	.insn	4, 0x8da9060b
    800038e8:	2d17060b          	.insn	4, 0x2d17060b
    800038ec:	c85485fb          	.insn	4, 0xc85485fb
    800038f0:	38b13c23          	sd	a1,920(sp)
    800038f4:	1f053603          	ld	a2,496(a0)
    800038f8:	81ae840b          	.insn	4, 0x81ae840b
    800038fc:	2117070b          	.insn	4, 0x2117070b
    80003900:	4054870b          	.insn	4, 0x4054870b
    80003904:	0cf605fb          	.insn	4, 0x0cf605fb
    80003908:	38b13823          	sd	a1,912(sp)
    8000390c:	1f853703          	ld	a4,504(a0)
    80003910:	4454878b          	.insn	4, 0x4454878b
    80003914:	4ce605fb          	.insn	4, 0x4ce605fb
    80003918:	38b13423          	sd	a1,904(sp)
    8000391c:	20053783          	ld	a5,512(a0)
    80003920:	89a9840b          	.insn	4, 0x89a9840b
    80003924:	4854848b          	.insn	4, 0x4854848b
    80003928:	68e6048b          	.insn	4, 0x68e6048b
    8000392c:	810785fb          	.insn	4, 0x810785fb
    80003930:	38b13023          	sd	a1,896(sp)
    80003934:	20853483          	ld	s1,520(a0)
    80003938:	8da6840b          	.insn	4, 0x8da6840b
    8000393c:	4689                	li	a3,2
    8000393e:	6ce6040b          	.insn	4, 0x6ce6040b
    80003942:	c09785fb          	.insn	4, 0xc09785fb
    80003946:	36b13c23          	sd	a1,888(sp)
    8000394a:	21053403          	ld	s0,528(a0)
    8000394e:	81ab058b          	.insn	4, 0x81ab058b
    80003952:	60e6058b          	.insn	4, 0x60e6058b
    80003956:	0097858b          	.insn	4, 0x0097858b
    8000395a:	051405fb          	.insn	4, 0x051405fb
    8000395e:	36b13823          	sd	a1,880(sp)
    80003962:	21853803          	ld	a6,536(a0)
    80003966:	0497860b          	.insn	4, 0x0497860b
    8000396a:	450405fb          	.insn	4, 0x450405fb
    8000396e:	36b13423          	sd	a1,872(sp)
    80003972:	22053603          	ld	a2,544(a0)
    80003976:	89ae058b          	.insn	4, 0x89ae058b
    8000397a:	0897858b          	.insn	4, 0x0897858b
    8000397e:	2904058b          	.insn	4, 0x2904058b
    80003982:	885605fb          	.insn	4, 0x885605fb
    80003986:	36b13023          	sd	a1,864(sp)
    8000398a:	22853883          	ld	a7,552(a0)
    8000398e:	8da9078b          	.insn	4, 0x8da9078b
    80003992:	2d04078b          	.insn	4, 0x2d04078b
    80003996:	c91605fb          	.insn	4, 0xc91605fb
    8000399a:	34b13c23          	sd	a1,856(sp)
    8000399e:	23053783          	ld	a5,560(a0)
    800039a2:	81ae858b          	.insn	4, 0x81ae858b
    800039a6:	2104058b          	.insn	4, 0x2104058b
    800039aa:	4116058b          	.insn	4, 0x4116058b
    800039ae:	0ce785fb          	.insn	4, 0x0ce785fb
    800039b2:	34b13823          	sd	a1,848(sp)
    800039b6:	23853283          	ld	t0,568(a0)
    800039ba:	4516070b          	.insn	4, 0x4516070b
    800039be:	4c5785fb          	.insn	4, 0x4c5785fb
    800039c2:	34b13423          	sd	a1,840(sp)
    800039c6:	24053703          	ld	a4,576(a0)
    800039ca:	89a9840b          	.insn	4, 0x89a9840b
    800039ce:	4916060b          	.insn	4, 0x4916060b
    800039d2:	6857860b          	.insn	4, 0x6857860b
    800039d6:	809705fb          	.insn	4, 0x809705fb
    800039da:	34b13023          	sd	a1,832(sp)
    800039de:	24853603          	ld	a2,584(a0)
    800039e2:	8da6848b          	.insn	4, 0x8da6848b
    800039e6:	4689                	li	a3,2
    800039e8:	6c57848b          	.insn	4, 0x6c57848b
    800039ec:	c0c705fb          	.insn	4, 0xc0c705fb
    800039f0:	32b13c23          	sd	a1,824(sp)
    800039f4:	25053483          	ld	s1,592(a0)
    800039f8:	81ab040b          	.insn	4, 0x81ab040b
    800039fc:	6057878b          	.insn	4, 0x6057878b
    80003a00:	00c7078b          	.insn	4, 0x00c7078b
    80003a04:	050485fb          	.insn	4, 0x050485fb
    80003a08:	32b13823          	sd	a1,816(sp)
    80003a0c:	25853783          	ld	a5,600(a0)
    80003a10:	04c7040b          	.insn	4, 0x04c7040b
    80003a14:	44f485fb          	.insn	4, 0x44f485fb
    80003a18:	32b13423          	sd	a1,808(sp)
    80003a1c:	26053403          	ld	s0,608(a0)
    80003a20:	89ae058b          	.insn	4, 0x89ae058b
    80003a24:	08c7058b          	.insn	4, 0x08c7058b
    80003a28:	28f4858b          	.insn	4, 0x28f4858b
    80003a2c:	891405fb          	.insn	4, 0x891405fb
    80003a30:	32b13023          	sd	a1,800(sp)
    80003a34:	26853803          	ld	a6,616(a0)
    80003a38:	8da9070b          	.insn	4, 0x8da9070b
    80003a3c:	2cf4870b          	.insn	4, 0x2cf4870b
    80003a40:	c90405fb          	.insn	4, 0xc90405fb
    80003a44:	30b13823          	sd	a1,784(sp)
    80003a48:	27053703          	ld	a4,624(a0)
    80003a4c:	81ae858b          	.insn	4, 0x81ae858b
    80003a50:	20f4858b          	.insn	4, 0x20f4858b
    80003a54:	4104058b          	.insn	4, 0x4104058b
    80003a58:	0c5705fb          	.insn	4, 0x0c5705fb
    80003a5c:	30b13c23          	sd	a1,792(sp)
    80003a60:	27853883          	ld	a7,632(a0)
    80003a64:	4504048b          	.insn	4, 0x4504048b
    80003a68:	4d1705fb          	.insn	4, 0x4d1705fb
    80003a6c:	30b13423          	sd	a1,776(sp)
    80003a70:	28053483          	ld	s1,640(a0)
    80003a74:	89a9858b          	.insn	4, 0x89a9858b
    80003a78:	4904058b          	.insn	4, 0x4904058b
    80003a7c:	6917058b          	.insn	4, 0x6917058b
    80003a80:	80c485fb          	.insn	4, 0x80c485fb
    80003a84:	30b13023          	sd	a1,768(sp)
    80003a88:	28853283          	ld	t0,648(a0)
    80003a8c:	8da6860b          	.insn	4, 0x8da6860b
    80003a90:	4689                	li	a3,2
    80003a92:	6d17060b          	.insn	4, 0x6d17060b
    80003a96:	c05485fb          	.insn	4, 0xc05485fb
    80003a9a:	2eb13823          	sd	a1,752(sp)
    80003a9e:	29053603          	ld	a2,656(a0)
    80003aa2:	81ab040b          	.insn	4, 0x81ab040b
    80003aa6:	6117070b          	.insn	4, 0x6117070b
    80003aaa:	0054870b          	.insn	4, 0x0054870b
    80003aae:	04f605fb          	.insn	4, 0x04f605fb
    80003ab2:	2eb13c23          	sd	a1,760(sp)
    80003ab6:	29853703          	ld	a4,664(a0)
    80003aba:	0454878b          	.insn	4, 0x0454878b
    80003abe:	44e605fb          	.insn	4, 0x44e605fb
    80003ac2:	2eb13423          	sd	a1,744(sp)
    80003ac6:	2a053783          	ld	a5,672(a0)
    80003aca:	89ae040b          	.insn	4, 0x89ae040b
    80003ace:	0854848b          	.insn	4, 0x0854848b
    80003ad2:	28e6048b          	.insn	4, 0x28e6048b
    80003ad6:	890785fb          	.insn	4, 0x890785fb
    80003ada:	2eb13023          	sd	a1,736(sp)
    80003ade:	2a853483          	ld	s1,680(a0)
    80003ae2:	8da9040b          	.insn	4, 0x8da9040b
    80003ae6:	2ce6040b          	.insn	4, 0x2ce6040b
    80003aea:	c89785fb          	.insn	4, 0xc89785fb
    80003aee:	2cb13823          	sd	a1,720(sp)
    80003af2:	2b053403          	ld	s0,688(a0)
    80003af6:	81ae858b          	.insn	4, 0x81ae858b
    80003afa:	20e6058b          	.insn	4, 0x20e6058b
    80003afe:	4097858b          	.insn	4, 0x4097858b
    80003b02:	0d1405fb          	.insn	4, 0x0d1405fb
    80003b06:	2cb13c23          	sd	a1,728(sp)
    80003b0a:	2b853803          	ld	a6,696(a0)
    80003b0e:	4497860b          	.insn	4, 0x4497860b
    80003b12:	4d0405fb          	.insn	4, 0x4d0405fb
    80003b16:	2cb13423          	sd	a1,712(sp)
    80003b1a:	2c053603          	ld	a2,704(a0)
    80003b1e:	89a9858b          	.insn	4, 0x89a9858b
    80003b22:	4897858b          	.insn	4, 0x4897858b
    80003b26:	6904058b          	.insn	4, 0x6904058b
    80003b2a:	805605fb          	.insn	4, 0x805605fb
    80003b2e:	2cb13023          	sd	a1,704(sp)
    80003b32:	2c853883          	ld	a7,712(a0)
    80003b36:	8da6878b          	.insn	4, 0x8da6878b
    80003b3a:	6d04078b          	.insn	4, 0x6d04078b
    80003b3e:	c11605fb          	.insn	4, 0xc11605fb
    80003b42:	2ab13823          	sd	a1,688(sp)
    80003b46:	2d053783          	ld	a5,720(a0)
    80003b4a:	81ab058b          	.insn	4, 0x81ab058b
    80003b4e:	6104058b          	.insn	4, 0x6104058b
    80003b52:	0116058b          	.insn	4, 0x0116058b
    80003b56:	04e785fb          	.insn	4, 0x04e785fb
    80003b5a:	2ab13c23          	sd	a1,696(sp)
    80003b5e:	2d853283          	ld	t0,728(a0)
    80003b62:	0516070b          	.insn	4, 0x0516070b
    80003b66:	445785fb          	.insn	4, 0x445785fb
    80003b6a:	2ab13423          	sd	a1,680(sp)
    80003b6e:	2e053703          	ld	a4,736(a0)
    80003b72:	89ae040b          	.insn	4, 0x89ae040b
    80003b76:	0916060b          	.insn	4, 0x0916060b
    80003b7a:	2857860b          	.insn	4, 0x2857860b
    80003b7e:	889705fb          	.insn	4, 0x889705fb
    80003b82:	2ab13023          	sd	a1,672(sp)
    80003b86:	2e853603          	ld	a2,744(a0)
    80003b8a:	8da9048b          	.insn	4, 0x8da9048b
    80003b8e:	2c57848b          	.insn	4, 0x2c57848b
    80003b92:	c8c705fb          	.insn	4, 0xc8c705fb
    80003b96:	28b13c23          	sd	a1,664(sp)
    80003b9a:	2f053483          	ld	s1,752(a0)
    80003b9e:	81ae840b          	.insn	4, 0x81ae840b
    80003ba2:	2057878b          	.insn	4, 0x2057878b
    80003ba6:	40c7078b          	.insn	4, 0x40c7078b
    80003baa:	0d0485fb          	.insn	4, 0x0d0485fb
    80003bae:	28b13823          	sd	a1,656(sp)
    80003bb2:	2f853783          	ld	a5,760(a0)
    80003bb6:	44c7040b          	.insn	4, 0x44c7040b
    80003bba:	4cf485fb          	.insn	4, 0x4cf485fb
    80003bbe:	28b13423          	sd	a1,648(sp)
    80003bc2:	30053403          	ld	s0,768(a0)
    80003bc6:	89a9858b          	.insn	4, 0x89a9858b
    80003bca:	48c7058b          	.insn	4, 0x48c7058b
    80003bce:	68f4858b          	.insn	4, 0x68f4858b
    80003bd2:	811405fb          	.insn	4, 0x811405fb
    80003bd6:	28b13023          	sd	a1,640(sp)
    80003bda:	30853803          	ld	a6,776(a0)
    80003bde:	8da6870b          	.insn	4, 0x8da6870b
    80003be2:	6cf4870b          	.insn	4, 0x6cf4870b
    80003be6:	c10405fb          	.insn	4, 0xc10405fb
    80003bea:	26b13823          	sd	a1,624(sp)
    80003bee:	31053703          	ld	a4,784(a0)
    80003bf2:	81ab058b          	.insn	4, 0x81ab058b
    80003bf6:	60f4858b          	.insn	4, 0x60f4858b
    80003bfa:	0104058b          	.insn	4, 0x0104058b
    80003bfe:	045705fb          	.insn	4, 0x045705fb
    80003c02:	26b13c23          	sd	a1,632(sp)
    80003c06:	31853883          	ld	a7,792(a0)
    80003c0a:	0504048b          	.insn	4, 0x0504048b
    80003c0e:	451705fb          	.insn	4, 0x451705fb
    80003c12:	26b13423          	sd	a1,616(sp)
    80003c16:	32053483          	ld	s1,800(a0)
    80003c1a:	89ae058b          	.insn	4, 0x89ae058b
    80003c1e:	0904058b          	.insn	4, 0x0904058b
    80003c22:	2917058b          	.insn	4, 0x2917058b
    80003c26:	88c485fb          	.insn	4, 0x88c485fb
    80003c2a:	26b13023          	sd	a1,608(sp)
    80003c2e:	32853283          	ld	t0,808(a0)
    80003c32:	8da9060b          	.insn	4, 0x8da9060b
    80003c36:	2d17060b          	.insn	4, 0x2d17060b
    80003c3a:	c85485fb          	.insn	4, 0xc85485fb
    80003c3e:	24b13c23          	sd	a1,600(sp)
    80003c42:	33053603          	ld	a2,816(a0)
    80003c46:	81ae840b          	.insn	4, 0x81ae840b
    80003c4a:	2117070b          	.insn	4, 0x2117070b
    80003c4e:	4054870b          	.insn	4, 0x4054870b
    80003c52:	0cf605fb          	.insn	4, 0x0cf605fb
    80003c56:	24b13823          	sd	a1,592(sp)
    80003c5a:	33853703          	ld	a4,824(a0)
    80003c5e:	4454878b          	.insn	4, 0x4454878b
    80003c62:	4ce605fb          	.insn	4, 0x4ce605fb
    80003c66:	24b13423          	sd	a1,584(sp)
    80003c6a:	34053783          	ld	a5,832(a0)
    80003c6e:	89a9840b          	.insn	4, 0x89a9840b
    80003c72:	4854848b          	.insn	4, 0x4854848b
    80003c76:	68e6048b          	.insn	4, 0x68e6048b
    80003c7a:	810785fb          	.insn	4, 0x810785fb
    80003c7e:	24b13023          	sd	a1,576(sp)
    80003c82:	34853483          	ld	s1,840(a0)
    80003c86:	8da6840b          	.insn	4, 0x8da6840b
    80003c8a:	6ce6040b          	.insn	4, 0x6ce6040b
    80003c8e:	c09785fb          	.insn	4, 0xc09785fb
    80003c92:	22b13823          	sd	a1,560(sp)
    80003c96:	35053403          	ld	s0,848(a0)
    80003c9a:	81ab058b          	.insn	4, 0x81ab058b
    80003c9e:	60e6058b          	.insn	4, 0x60e6058b
    80003ca2:	0097858b          	.insn	4, 0x0097858b
    80003ca6:	051405fb          	.insn	4, 0x051405fb
    80003caa:	22b13c23          	sd	a1,568(sp)
    80003cae:	35853803          	ld	a6,856(a0)
    80003cb2:	0497860b          	.insn	4, 0x0497860b
    80003cb6:	450405fb          	.insn	4, 0x450405fb
    80003cba:	22b13423          	sd	a1,552(sp)
    80003cbe:	36053603          	ld	a2,864(a0)
    80003cc2:	89ae058b          	.insn	4, 0x89ae058b
    80003cc6:	0897858b          	.insn	4, 0x0897858b
    80003cca:	2904058b          	.insn	4, 0x2904058b
    80003cce:	885605fb          	.insn	4, 0x885605fb
    80003cd2:	22b13023          	sd	a1,544(sp)
    80003cd6:	36853883          	ld	a7,872(a0)
    80003cda:	8da9078b          	.insn	4, 0x8da9078b
    80003cde:	2d04078b          	.insn	4, 0x2d04078b
    80003ce2:	c91605fb          	.insn	4, 0xc91605fb
    80003ce6:	20b13c23          	sd	a1,536(sp)
    80003cea:	37053783          	ld	a5,880(a0)
    80003cee:	81ae858b          	.insn	4, 0x81ae858b
    80003cf2:	2104058b          	.insn	4, 0x2104058b
    80003cf6:	4116058b          	.insn	4, 0x4116058b
    80003cfa:	0ce785fb          	.insn	4, 0x0ce785fb
    80003cfe:	20b13823          	sd	a1,528(sp)
    80003d02:	37853283          	ld	t0,888(a0)
    80003d06:	4516070b          	.insn	4, 0x4516070b
    80003d0a:	4c5785fb          	.insn	4, 0x4c5785fb
    80003d0e:	20b13423          	sd	a1,520(sp)
    80003d12:	38053703          	ld	a4,896(a0)
    80003d16:	89a9840b          	.insn	4, 0x89a9840b
    80003d1a:	4916060b          	.insn	4, 0x4916060b
    80003d1e:	6857860b          	.insn	4, 0x6857860b
    80003d22:	809705fb          	.insn	4, 0x809705fb
    80003d26:	20b13023          	sd	a1,512(sp)
    80003d2a:	38853603          	ld	a2,904(a0)
    80003d2e:	8da6848b          	.insn	4, 0x8da6848b
    80003d32:	6c57848b          	.insn	4, 0x6c57848b
    80003d36:	c0c705fb          	.insn	4, 0xc0c705fb
    80003d3a:	fbae                	sd	a1,496(sp)
    80003d3c:	39053483          	ld	s1,912(a0)
    80003d40:	81ab040b          	.insn	4, 0x81ab040b
    80003d44:	6057878b          	.insn	4, 0x6057878b
    80003d48:	00c7078b          	.insn	4, 0x00c7078b
    80003d4c:	050485fb          	.insn	4, 0x050485fb
    80003d50:	ffae                	sd	a1,504(sp)
    80003d52:	39853783          	ld	a5,920(a0)
    80003d56:	04c7040b          	.insn	4, 0x04c7040b
    80003d5a:	44f485fb          	.insn	4, 0x44f485fb
    80003d5e:	f7ae                	sd	a1,488(sp)
    80003d60:	3a053403          	ld	s0,928(a0)
    80003d64:	89ae058b          	.insn	4, 0x89ae058b
    80003d68:	08c7058b          	.insn	4, 0x08c7058b
    80003d6c:	28f4858b          	.insn	4, 0x28f4858b
    80003d70:	891405fb          	.insn	4, 0x891405fb
    80003d74:	f3ae                	sd	a1,480(sp)
    80003d76:	3a853803          	ld	a6,936(a0)
    80003d7a:	8da9070b          	.insn	4, 0x8da9070b
    80003d7e:	2cf4870b          	.insn	4, 0x2cf4870b
    80003d82:	c90405fb          	.insn	4, 0xc90405fb
    80003d86:	efae                	sd	a1,472(sp)
    80003d88:	3b053703          	ld	a4,944(a0)
    80003d8c:	81ae858b          	.insn	4, 0x81ae858b
    80003d90:	20f4858b          	.insn	4, 0x20f4858b
    80003d94:	4104058b          	.insn	4, 0x4104058b
    80003d98:	0c5705fb          	.insn	4, 0x0c5705fb
    80003d9c:	ebae                	sd	a1,464(sp)
    80003d9e:	3b853883          	ld	a7,952(a0)
    80003da2:	4504048b          	.insn	4, 0x4504048b
    80003da6:	4d1705fb          	.insn	4, 0x4d1705fb
    80003daa:	e7ae                	sd	a1,456(sp)
    80003dac:	3c053483          	ld	s1,960(a0)
    80003db0:	89a9858b          	.insn	4, 0x89a9858b
    80003db4:	4904058b          	.insn	4, 0x4904058b
    80003db8:	6917058b          	.insn	4, 0x6917058b
    80003dbc:	80c485fb          	.insn	4, 0x80c485fb
    80003dc0:	e3ae                	sd	a1,448(sp)
    80003dc2:	3c853583          	ld	a1,968(a0)
    80003dc6:	8da6860b          	.insn	4, 0x8da6860b
    80003dca:	6d17060b          	.insn	4, 0x6d17060b
    80003dce:	c0b4867b          	.insn	4, 0xc0b4867b
    80003dd2:	fb32                	sd	a2,432(sp)
    80003dd4:	3d053603          	ld	a2,976(a0)
    80003dd8:	81ab040b          	.insn	4, 0x81ab040b
    80003ddc:	6117070b          	.insn	4, 0x6117070b
    80003de0:	00b4870b          	.insn	4, 0x00b4870b
    80003de4:	04f6077b          	.insn	4, 0x04f6077b
    80003de8:	ff3a                	sd	a4,440(sp)
    80003dea:	3d853703          	ld	a4,984(a0)
    80003dee:	04b4878b          	.insn	4, 0x04b4878b
    80003df2:	44e607fb          	.insn	4, 0x44e607fb
    80003df6:	f73e                	sd	a5,424(sp)
    80003df8:	3e053783          	ld	a5,992(a0)
    80003dfc:	89ae040b          	.insn	4, 0x89ae040b
    80003e00:	08b4858b          	.insn	4, 0x08b4858b
    80003e04:	28e6058b          	.insn	4, 0x28e6058b
    80003e08:	890785fb          	.insn	4, 0x890785fb
    80003e0c:	f32e                	sd	a1,416(sp)
    80003e0e:	3e853583          	ld	a1,1000(a0)
    80003e12:	8da9048b          	.insn	4, 0x8da9048b
    80003e16:	2ce6048b          	.insn	4, 0x2ce6048b
    80003e1a:	c8b784fb          	.insn	4, 0xc8b784fb
    80003e1e:	ef26                	sd	s1,408(sp)
    80003e20:	3f053483          	ld	s1,1008(a0)
    80003e24:	81ae840b          	.insn	4, 0x81ae840b
    80003e28:	20e6060b          	.insn	4, 0x20e6060b
    80003e2c:	40b7860b          	.insn	4, 0x40b7860b
    80003e30:	0d14867b          	.insn	4, 0x0d14867b
    80003e34:	6705                	lui	a4,0x1
    80003e36:	f207071b          	addiw	a4,a4,-224 # f20 <buflen.1+0xee0>
    80003e3a:	970a                	add	a4,a4,sp
    80003e3c:	e310                	sd	a2,0(a4)
    80003e3e:	3f853503          	ld	a0,1016(a0)
    80003e42:	44b7858b          	.insn	4, 0x44b7858b
    80003e46:	4ca4857b          	.insn	4, 0x4ca4857b
    80003e4a:	6585                	lui	a1,0x1
    80003e4c:	f185859b          	addiw	a1,a1,-232 # f18 <buflen.1+0xed8>
    80003e50:	958a                	add	a1,a1,sp
    80003e52:	e188                	sd	a0,0(a1)
    80003e54:	6505                	lui	a0,0x1
    80003e56:	fa05051b          	addiw	a0,a0,-96 # fa0 <buflen.1+0xf60>
    80003e5a:	950a                	add	a0,a0,sp
    80003e5c:	6108                	ld	a0,0(a0)
    80003e5e:	0509                	addi	a0,a0,2
    80003e60:	052a                	slli	a0,a0,0xa
    80003e62:	6585                	lui	a1,0x1
    80003e64:	f985859b          	addiw	a1,a1,-104 # f98 <buflen.1+0xf58>
    80003e68:	958a                	add	a1,a1,sp
    80003e6a:	618c                	ld	a1,0(a1)
    80003e6c:	00a58433          	add	s0,a1,a0
    80003e70:	00043803          	ld	a6,0(s0)
    80003e74:	00843883          	ld	a7,8(s0)
    80003e78:	01043303          	ld	t1,16(s0)
    80003e7c:	01843383          	ld	t2,24(s0)
    80003e80:	701c                	ld	a5,32(s0)
    80003e82:	7404                	ld	s1,40(s0)
    80003e84:	7808                	ld	a0,48(s0)
    80003e86:	03843283          	ld	t0,56(s0)
    80003e8a:	0918058b          	.insn	4, 0x0918058b
    80003e8e:	2873058b          	.insn	4, 0x2873058b
    80003e92:	4897858b          	.insn	4, 0x4897858b
    80003e96:	8c5505fb          	.insn	4, 0x8c5505fb
    80003e9a:	6605                	lui	a2,0x1
    80003e9c:	f106061b          	addiw	a2,a2,-240 # f10 <buflen.1+0xed0>
    80003ea0:	960a                	add	a2,a2,sp
    80003ea2:	e20c                	sd	a1,0(a2)
    80003ea4:	602c                	ld	a1,64(s0)
    80003ea6:	8da9860b          	.insn	4, 0x8da9860b
    80003eaa:	2c73060b          	.insn	4, 0x2c73060b
    80003eae:	4c97860b          	.insn	4, 0x4c97860b
    80003eb2:	6c55060b          	.insn	4, 0x6c55060b
    80003eb6:	c115867b          	.insn	4, 0xc115867b
    80003eba:	6705                	lui	a4,0x1
    80003ebc:	f087071b          	addiw	a4,a4,-248 # f08 <buflen.1+0xec8>
    80003ec0:	970a                	add	a4,a4,sp
    80003ec2:	e310                	sd	a2,0(a4)
    80003ec4:	04843803          	ld	a6,72(s0)
    80003ec8:	81a6860b          	.insn	4, 0x81a6860b
    80003ecc:	2073060b          	.insn	4, 0x2073060b
    80003ed0:	4097860b          	.insn	4, 0x4097860b
    80003ed4:	6055060b          	.insn	4, 0x6055060b
    80003ed8:	0105867b          	.insn	4, 0x0105867b
    80003edc:	6705                	lui	a4,0x1
    80003ede:	ef07071b          	addiw	a4,a4,-272 # ef0 <buflen.1+0xeb0>
    80003ee2:	970a                	add	a4,a4,sp
    80003ee4:	e310                	sd	a2,0(a4)
    80003ee6:	6830                	ld	a2,80(s0)
    80003ee8:	85ab070b          	.insn	4, 0x85ab070b
    80003eec:	4497870b          	.insn	4, 0x4497870b
    80003ef0:	6455050b          	.insn	4, 0x6455050b
    80003ef4:	0505850b          	.insn	4, 0x0505850b
    80003ef8:	4476057b          	.insn	4, 0x4476057b
    80003efc:	6705                	lui	a4,0x1
    80003efe:	ee07071b          	addiw	a4,a4,-288 # ee0 <buflen.1+0xea0>
    80003f02:	970a                	add	a4,a4,sp
    80003f04:	e308                	sd	a0,0(a4)
    80003f06:	05843883          	ld	a7,88(s0)
    80003f0a:	89af070b          	.insn	4, 0x89af070b
    80003f0e:	0905870b          	.insn	4, 0x0905870b
    80003f12:	8516057b          	.insn	4, 0x8516057b
    80003f16:	6705                	lui	a4,0x1
    80003f18:	ed07071b          	addiw	a4,a4,-304 # ed0 <buflen.1+0xe90>
    80003f1c:	970a                	add	a4,a4,sp
    80003f1e:	e308                	sd	a0,0(a4)
    80003f20:	7038                	ld	a4,96(s0)
    80003f22:	8dae078b          	.insn	4, 0x8dae078b
    80003f26:	0d05858b          	.insn	4, 0x0d05858b
    80003f2a:	2d16058b          	.insn	4, 0x2d16058b
    80003f2e:	c897057b          	.insn	4, 0xc897057b
    80003f32:	6585                	lui	a1,0x1
    80003f34:	ec85859b          	addiw	a1,a1,-312 # ec8 <buflen.1+0xe88>
    80003f38:	958a                	add	a1,a1,sp
    80003f3a:	e188                	sd	a0,0(a1)
    80003f3c:	06843303          	ld	t1,104(s0)
    80003f40:	4e99                	li	t4,6
    80003f42:	81ae878b          	.insn	4, 0x81ae878b
    80003f46:	2116078b          	.insn	4, 0x2116078b
    80003f4a:	0867057b          	.insn	4, 0x0867057b
    80003f4e:	6585                	lui	a1,0x1
    80003f50:	ec05859b          	addiw	a1,a1,-320 # ec0 <buflen.1+0xe80>
    80003f54:	958a                	add	a1,a1,sp
    80003f56:	e188                	sd	a0,0(a1)
    80003f58:	783c                	ld	a5,112(s0)
    80003f5a:	439d                	li	t2,7
    80003f5c:	85a3848b          	.insn	4, 0x85a3848b
    80003f60:	2516060b          	.insn	4, 0x2516060b
    80003f64:	4467060b          	.insn	4, 0x4467060b
    80003f68:	4c57857b          	.insn	4, 0x4c57857b
    80003f6c:	6585                	lui	a1,0x1
    80003f6e:	eb05859b          	addiw	a1,a1,-336 # eb0 <buflen.1+0xe70>
    80003f72:	958a                	add	a1,a1,sp
    80003f74:	e188                	sd	a0,0(a1)
    80003f76:	7c30                	ld	a2,120(s0)
    80003f78:	4867048b          	.insn	4, 0x4867048b
    80003f7c:	8cc7857b          	.insn	4, 0x8cc7857b
    80003f80:	6585                	lui	a1,0x1
    80003f82:	ea85859b          	addiw	a1,a1,-344 # ea8 <buflen.1+0xe68>
    80003f86:	958a                	add	a1,a1,sp
    80003f88:	e188                	sd	a0,0(a1)
    80003f8a:	6044                	ld	s1,128(s0)
    80003f8c:	8da9850b          	.insn	4, 0x8da9850b
    80003f90:	4c67050b          	.insn	4, 0x4c67050b
    80003f94:	6cc7850b          	.insn	4, 0x6cc7850b
    80003f98:	c104857b          	.insn	4, 0xc104857b
    80003f9c:	6585                	lui	a1,0x1
    80003f9e:	e985859b          	addiw	a1,a1,-360 # e98 <buflen.1+0xe58>
    80003fa2:	958a                	add	a1,a1,sp
    80003fa4:	e188                	sd	a0,0(a1)
    80003fa6:	6458                	ld	a4,136(s0)
    80003fa8:	81a6850b          	.insn	4, 0x81a6850b
    80003fac:	60c7850b          	.insn	4, 0x60c7850b
    80003fb0:	00e4857b          	.insn	4, 0x00e4857b
    80003fb4:	6585                	lui	a1,0x1
    80003fb6:	e905859b          	addiw	a1,a1,-368 # e90 <buflen.1+0xe50>
    80003fba:	958a                	add	a1,a1,sp
    80003fbc:	e188                	sd	a0,0(a1)
    80003fbe:	6848                	ld	a0,144(s0)
    80003fc0:	85ab058b          	.insn	4, 0x85ab058b
    80003fc4:	64c7858b          	.insn	4, 0x64c7858b
    80003fc8:	04e4858b          	.insn	4, 0x04e4858b
    80003fcc:	451505fb          	.insn	4, 0x451505fb
    80003fd0:	6685                	lui	a3,0x1
    80003fd2:	e886869b          	addiw	a3,a3,-376 # e88 <buflen.1+0xe48>
    80003fd6:	968a                	add	a3,a3,sp
    80003fd8:	e28c                	sd	a1,0(a3)
    80003fda:	09843803          	ld	a6,152(s0)
    80003fde:	08e4858b          	.insn	4, 0x08e4858b
    80003fe2:	850505fb          	.insn	4, 0x850505fb
    80003fe6:	6685                	lui	a3,0x1
    80003fe8:	e806869b          	addiw	a3,a3,-384 # e80 <buflen.1+0xe40>
    80003fec:	968a                	add	a3,a3,sp
    80003fee:	e28c                	sd	a1,0(a3)
    80003ff0:	0a043903          	ld	s2,160(s0)
    80003ff4:	8dae058b          	.insn	4, 0x8dae058b
    80003ff8:	0ce4858b          	.insn	4, 0x0ce4858b
    80003ffc:	2d05058b          	.insn	4, 0x2d05058b
    80004000:	c86905fb          	.insn	4, 0xc86905fb
    80004004:	6685                	lui	a3,0x1
    80004006:	e786869b          	addiw	a3,a3,-392 # e78 <buflen.1+0xe38>
    8000400a:	968a                	add	a3,a3,sp
    8000400c:	e28c                	sd	a1,0(a3)
    8000400e:	7444                	ld	s1,168(s0)
    80004010:	81ae858b          	.insn	4, 0x81ae858b
    80004014:	4b19                	li	s6,6
    80004016:	2105058b          	.insn	4, 0x2105058b
    8000401a:	089905fb          	.insn	4, 0x089905fb
    8000401e:	6685                	lui	a3,0x1
    80004020:	e706869b          	addiw	a3,a3,-400 # e70 <buflen.1+0xe30>
    80004024:	968a                	add	a3,a3,sp
    80004026:	e28c                	sd	a1,0(a3)
    80004028:	0b043883          	ld	a7,176(s0)
    8000402c:	85a3858b          	.insn	4, 0x85a3858b
    80004030:	4a9d                	li	s5,7
    80004032:	2505050b          	.insn	4, 0x2505050b
    80004036:	4499050b          	.insn	4, 0x4499050b
    8000403a:	4cc8857b          	.insn	4, 0x4cc8857b
    8000403e:	6585                	lui	a1,0x1
    80004040:	e685859b          	addiw	a1,a1,-408 # e68 <buflen.1+0xe28>
    80004044:	958a                	add	a1,a1,sp
    80004046:	e188                	sd	a0,0(a1)
    80004048:	0b843283          	ld	t0,184(s0)
    8000404c:	4899050b          	.insn	4, 0x4899050b
    80004050:	8c58857b          	.insn	4, 0x8c58857b
    80004054:	6585                	lui	a1,0x1
    80004056:	e605859b          	addiw	a1,a1,-416 # e60 <buflen.1+0xe20>
    8000405a:	958a                	add	a1,a1,sp
    8000405c:	e188                	sd	a0,0(a1)
    8000405e:	0c043f83          	ld	t6,192(s0)
    80004062:	8da9850b          	.insn	4, 0x8da9850b
    80004066:	4c99050b          	.insn	4, 0x4c99050b
    8000406a:	6c58850b          	.insn	4, 0x6c58850b
    8000406e:	c0ef857b          	.insn	4, 0xc0ef857b
    80004072:	6585                	lui	a1,0x1
    80004074:	e585859b          	addiw	a1,a1,-424 # e58 <buflen.1+0xe18>
    80004078:	958a                	add	a1,a1,sp
    8000407a:	e188                	sd	a0,0(a1)
    8000407c:	19843a03          	ld	s4,408(s0)
    80004080:	6505                	lui	a0,0x1
    80004082:	8985051b          	addiw	a0,a0,-1896 # 898 <buflen.1+0x858>
    80004086:	950a                	add	a0,a0,sp
    80004088:	01453023          	sd	s4,0(a0)
    8000408c:	1a043e83          	ld	t4,416(s0)
    80004090:	6505                	lui	a0,0x1
    80004092:	8705051b          	addiw	a0,a0,-1936 # 870 <buflen.1+0x830>
    80004096:	950a                	add	a0,a0,sp
    80004098:	01d53023          	sd	t4,0(a0)
    8000409c:	1a843383          	ld	t2,424(s0)
    800040a0:	6505                	lui	a0,0x1
    800040a2:	f385051b          	addiw	a0,a0,-200 # f38 <buflen.1+0xef8>
    800040a6:	950a                	add	a0,a0,sp
    800040a8:	00753023          	sd	t2,0(a0)
    800040ac:	1b043783          	ld	a5,432(s0)
    800040b0:	6505                	lui	a0,0x1
    800040b2:	f405051b          	addiw	a0,a0,-192 # f40 <buflen.1+0xf00>
    800040b6:	950a                	add	a0,a0,sp
    800040b8:	e11c                	sd	a5,0(a0)
    800040ba:	1b843583          	ld	a1,440(s0)
    800040be:	6505                	lui	a0,0x1
    800040c0:	f485051b          	addiw	a0,a0,-184 # f48 <buflen.1+0xf08>
    800040c4:	950a                	add	a0,a0,sp
    800040c6:	e10c                	sd	a1,0(a0)
    800040c8:	1c043603          	ld	a2,448(s0)
    800040cc:	6505                	lui	a0,0x1
    800040ce:	f505051b          	addiw	a0,a0,-176 # f50 <buflen.1+0xf10>
    800040d2:	950a                	add	a0,a0,sp
    800040d4:	e110                	sd	a2,0(a0)
    800040d6:	1c843703          	ld	a4,456(s0)
    800040da:	6505                	lui	a0,0x1
    800040dc:	f585051b          	addiw	a0,a0,-168 # f58 <buflen.1+0xf18>
    800040e0:	950a                	add	a0,a0,sp
    800040e2:	e118                	sd	a4,0(a0)
    800040e4:	1d043683          	ld	a3,464(s0)
    800040e8:	6505                	lui	a0,0x1
    800040ea:	f605051b          	addiw	a0,a0,-160 # f60 <buflen.1+0xf20>
    800040ee:	950a                	add	a0,a0,sp
    800040f0:	e114                	sd	a3,0(a0)
    800040f2:	430d                	li	t1,3
    800040f4:	81a3050b          	.insn	4, 0x81a3050b
    800040f8:	407e850b          	.insn	4, 0x407e850b
    800040fc:	60b7850b          	.insn	4, 0x60b7850b
    80004100:	00e6050b          	.insn	4, 0x00e6050b
    80004104:	0546857b          	.insn	4, 0x0546857b
    80004108:	6585                	lui	a1,0x1
    8000410a:	ea05859b          	addiw	a1,a1,-352 # ea0 <buflen.1+0xe60>
    8000410e:	958a                	add	a1,a1,sp
    80004110:	e188                	sd	a0,0(a1)
    80004112:	15843a03          	ld	s4,344(s0)
    80004116:	6505                	lui	a0,0x1
    80004118:	9105051b          	addiw	a0,a0,-1776 # 910 <buflen.1+0x8d0>
    8000411c:	950a                	add	a0,a0,sp
    8000411e:	01453023          	sd	s4,0(a0)
    80004122:	16043e83          	ld	t4,352(s0)
    80004126:	6505                	lui	a0,0x1
    80004128:	8f05051b          	addiw	a0,a0,-1808 # 8f0 <buflen.1+0x8b0>
    8000412c:	950a                	add	a0,a0,sp
    8000412e:	01d53023          	sd	t4,0(a0)
    80004132:	16843383          	ld	t2,360(s0)
    80004136:	6505                	lui	a0,0x1
    80004138:	8c05051b          	addiw	a0,a0,-1856 # 8c0 <buflen.1+0x880>
    8000413c:	950a                	add	a0,a0,sp
    8000413e:	00753023          	sd	t2,0(a0)
    80004142:	17043783          	ld	a5,368(s0)
    80004146:	6505                	lui	a0,0x1
    80004148:	8d85051b          	addiw	a0,a0,-1832 # 8d8 <buflen.1+0x898>
    8000414c:	950a                	add	a0,a0,sp
    8000414e:	e11c                	sd	a5,0(a0)
    80004150:	17843703          	ld	a4,376(s0)
    80004154:	6505                	lui	a0,0x1
    80004156:	8385051b          	addiw	a0,a0,-1992 # 838 <buflen.1+0x7f8>
    8000415a:	950a                	add	a0,a0,sp
    8000415c:	e118                	sd	a4,0(a0)
    8000415e:	18043683          	ld	a3,384(s0)
    80004162:	6505                	lui	a0,0x1
    80004164:	8b05051b          	addiw	a0,a0,-1872 # 8b0 <buflen.1+0x870>
    80004168:	950a                	add	a0,a0,sp
    8000416a:	e114                	sd	a3,0(a0)
    8000416c:	18843603          	ld	a2,392(s0)
    80004170:	6505                	lui	a0,0x1
    80004172:	8585051b          	addiw	a0,a0,-1960 # 858 <buflen.1+0x818>
    80004176:	950a                	add	a0,a0,sp
    80004178:	e110                	sd	a2,0(a0)
    8000417a:	19043583          	ld	a1,400(s0)
    8000417e:	6505                	lui	a0,0x1
    80004180:	8905051b          	addiw	a0,a0,-1904 # 890 <buflen.1+0x850>
    80004184:	950a                	add	a0,a0,sp
    80004186:	e10c                	sd	a1,0(a0)
    80004188:	85a3050b          	.insn	4, 0x85a3050b
    8000418c:	4b8d                	li	s7,3
    8000418e:	447e850b          	.insn	4, 0x447e850b
    80004192:	64e7850b          	.insn	4, 0x64e7850b
    80004196:	04c6850b          	.insn	4, 0x04c6850b
    8000419a:	4545857b          	.insn	4, 0x4545857b
    8000419e:	6585                	lui	a1,0x1
    800041a0:	e505859b          	addiw	a1,a1,-432 # e50 <buflen.1+0xe10>
    800041a4:	958a                	add	a1,a1,sp
    800041a6:	e188                	sd	a0,0(a1)
    800041a8:	6468                	ld	a0,200(s0)
    800041aa:	4689                	li	a3,2
    800041ac:	89a6870b          	.insn	4, 0x89a6870b
    800041b0:	80af867b          	.insn	4, 0x80af867b
    800041b4:	6585                	lui	a1,0x1
    800041b6:	e385859b          	addiw	a1,a1,-456 # e38 <buflen.1+0xdf8>
    800041ba:	958a                	add	a1,a1,sp
    800041bc:	e190                	sd	a2,0(a1)
    800041be:	6878                	ld	a4,208(s0)
    800041c0:	0d843383          	ld	t2,216(s0)
    800041c4:	0e043e83          	ld	t4,224(s0)
    800041c8:	8dae060b          	.insn	4, 0x8dae060b
    800041cc:	0caf860b          	.insn	4, 0x0caf860b
    800041d0:	2c77060b          	.insn	4, 0x2c77060b
    800041d4:	c89e867b          	.insn	4, 0xc89e867b
    800041d8:	6585                	lui	a1,0x1
    800041da:	e285859b          	addiw	a1,a1,-472 # e28 <buflen.1+0xde8>
    800041de:	958a                	add	a1,a1,sp
    800041e0:	e190                	sd	a2,0(a1)
    800041e2:	4099060b          	.insn	4, 0x4099060b
    800041e6:	6058860b          	.insn	4, 0x6058860b
    800041ea:	00af860b          	.insn	4, 0x00af860b
    800041ee:	0507067b          	.insn	4, 0x0507067b
    800041f2:	6585                	lui	a1,0x1
    800041f4:	e205859b          	addiw	a1,a1,-480 # e20 <buflen.1+0xde0>
    800041f8:	958a                	add	a1,a1,sp
    800041fa:	e190                	sd	a2,0(a1)
    800041fc:	85af060b          	.insn	4, 0x85af060b
    80004200:	4499060b          	.insn	4, 0x4499060b
    80004204:	6458860b          	.insn	4, 0x6458860b
    80004208:	04af858b          	.insn	4, 0x04af858b
    8000420c:	447705fb          	.insn	4, 0x447705fb
    80004210:	6605                	lui	a2,0x1
    80004212:	e006061b          	addiw	a2,a2,-512 # e00 <buflen.1+0xdc0>
    80004216:	960a                	add	a2,a2,sp
    80004218:	e20c                	sd	a1,0(a2)
    8000421a:	0e843303          	ld	t1,232(s0)
    8000421e:	89ab060b          	.insn	4, 0x89ab060b
    80004222:	2877060b          	.insn	4, 0x2877060b
    80004226:	886e867b          	.insn	4, 0x886e867b
    8000422a:	6585                	lui	a1,0x1
    8000422c:	df85859b          	addiw	a1,a1,-520 # df8 <buflen.1+0xdb8>
    80004230:	958a                	add	a1,a1,sp
    80004232:	e190                	sd	a2,0(a1)
    80004234:	786c                	ld	a1,240(s0)
    80004236:	8daa860b          	.insn	4, 0x8daa860b
    8000423a:	4c6e860b          	.insn	4, 0x4c6e860b
    8000423e:	cc55867b          	.insn	4, 0xcc55867b
    80004242:	6785                	lui	a5,0x1
    80004244:	de87879b          	addiw	a5,a5,-536 # de8 <buflen.1+0xda8>
    80004248:	978a                	add	a5,a5,sp
    8000424a:	e390                	sd	a2,0(a5)
    8000424c:	0f843f03          	ld	t5,248(s0)
    80004250:	2077060b          	.insn	4, 0x2077060b
    80004254:	406e860b          	.insn	4, 0x406e860b
    80004258:	0de5867b          	.insn	4, 0x0de5867b
    8000425c:	84ae                	mv	s1,a1
    8000425e:	6705                	lui	a4,0x1
    80004260:	de07071b          	addiw	a4,a4,-544 # de0 <buflen.1+0xda0>
    80004264:	970a                	add	a4,a4,sp
    80004266:	e310                	sd	a2,0(a4)
    80004268:	1d843703          	ld	a4,472(s0)
    8000426c:	6605                	lui	a2,0x1
    8000426e:	f306061b          	addiw	a2,a2,-208 # f30 <buflen.1+0xef0>
    80004272:	960a                	add	a2,a2,sp
    80004274:	e218                	sd	a4,0(a2)
    80004276:	1e043a83          	ld	s5,480(s0)
    8000427a:	1e843a03          	ld	s4,488(s0)
    8000427e:	1f043903          	ld	s2,496(s0)
    80004282:	1f843f83          	ld	t6,504(s0)
    80004286:	20043083          	ld	ra,512(s0)
    8000428a:	20843e03          	ld	t3,520(s0)
    8000428e:	21043c83          	ld	s9,528(s0)
    80004292:	85ab860b          	.insn	4, 0x85ab860b
    80004296:	454a860b          	.insn	4, 0x454a860b
    8000429a:	65f9060b          	.insn	4, 0x65f9060b
    8000429e:	05c0860b          	.insn	4, 0x05c0860b
    800042a2:	44ec867b          	.insn	4, 0x44ec867b
    800042a6:	6705                	lui	a4,0x1
    800042a8:	e307071b          	addiw	a4,a4,-464 # e30 <buflen.1+0xdf0>
    800042ac:	970a                	add	a4,a4,sp
    800042ae:	e310                	sd	a2,0(a4)
    800042b0:	10043b03          	ld	s6,256(s0)
    800042b4:	89a9860b          	.insn	4, 0x89a9860b
    800042b8:	8bae                	mv	s7,a1
    800042ba:	69e5860b          	.insn	4, 0x69e5860b
    800042be:	80ab057b          	.insn	4, 0x80ab057b
    800042c2:	6605                	lui	a2,0x1
    800042c4:	dd86061b          	addiw	a2,a2,-552 # dd8 <buflen.1+0xd98>
    800042c8:	960a                	add	a2,a2,sp
    800042ca:	e208                	sd	a0,0(a2)
    800042cc:	10843983          	ld	s3,264(s0)
    800042d0:	8da6850b          	.insn	4, 0x8da6850b
    800042d4:	6de5850b          	.insn	4, 0x6de5850b
    800042d8:	c13b057b          	.insn	4, 0xc13b057b
    800042dc:	6585                	lui	a1,0x1
    800042de:	dd05859b          	addiw	a1,a1,-560 # dd0 <buflen.1+0xd90>
    800042e2:	958a                	add	a1,a1,sp
    800042e4:	e188                	sd	a0,0(a1)
    800042e6:	26043283          	ld	t0,608(s0)
    800042ea:	7a513823          	sd	t0,1968(sp)
    800042ee:	26843883          	ld	a7,616(s0)
    800042f2:	79113423          	sd	a7,1928(sp)
    800042f6:	27043603          	ld	a2,624(s0)
    800042fa:	7ac13423          	sd	a2,1960(sp)
    800042fe:	27843483          	ld	s1,632(s0)
    80004302:	72913823          	sd	s1,1840(sp)
    80004306:	28043783          	ld	a5,640(s0)
    8000430a:	76f13c23          	sd	a5,1912(sp)
    8000430e:	28843703          	ld	a4,648(s0)
    80004312:	74e13423          	sd	a4,1864(sp)
    80004316:	29043683          	ld	a3,656(s0)
    8000431a:	76d13023          	sd	a3,1888(sp)
    8000431e:	29843583          	ld	a1,664(s0)
    80004322:	72b13c23          	sd	a1,1848(sp)
    80004326:	4811                	li	a6,4
    80004328:	81a8050b          	.insn	4, 0x81a8050b
    8000432c:	4112850b          	.insn	4, 0x4112850b
    80004330:	6096050b          	.insn	4, 0x6096050b
    80004334:	00e7850b          	.insn	4, 0x00e7850b
    80004338:	04b6857b          	.insn	4, 0x04b6857b
    8000433c:	6585                	lui	a1,0x1
    8000433e:	e405859b          	addiw	a1,a1,-448 # e40 <buflen.1+0xe00>
    80004342:	958a                	add	a1,a1,sp
    80004344:	e188                	sd	a0,0(a1)
    80004346:	11043d83          	ld	s11,272(s0)
    8000434a:	446e850b          	.insn	4, 0x446e850b
    8000434e:	65eb850b          	.insn	4, 0x65eb850b
    80004352:	6505                	lui	a0,0x1
    80004354:	9a85051b          	addiw	a0,a0,-1624 # 9a8 <buflen.1+0x968>
    80004358:	950a                	add	a0,a0,sp
    8000435a:	01e53023          	sd	t5,0(a0)
    8000435e:	6505                	lui	a0,0x1
    80004360:	9c85051b          	addiw	a0,a0,-1592 # 9c8 <buflen.1+0x988>
    80004364:	950a                	add	a0,a0,sp
    80004366:	01753023          	sd	s7,0(a0)
    8000436a:	82ce                	mv	t0,s3
    8000436c:	053b050b          	.insn	4, 0x053b050b
    80004370:	447d857b          	.insn	4, 0x447d857b
    80004374:	6585                	lui	a1,0x1
    80004376:	db85859b          	addiw	a1,a1,-584 # db8 <buflen.1+0xd78>
    8000437a:	958a                	add	a1,a1,sp
    8000437c:	e188                	sd	a0,0(a1)
    8000437e:	11843383          	ld	t2,280(s0)
    80004382:	89a8050b          	.insn	4, 0x89a8050b
    80004386:	093b050b          	.insn	4, 0x093b050b
    8000438a:	6505                	lui	a0,0x1
    8000438c:	9685051b          	addiw	a0,a0,-1688 # 968 <buflen.1+0x928>
    80004390:	950a                	add	a0,a0,sp
    80004392:	01353023          	sd	s3,0(a0)
    80004396:	847d857b          	.insn	4, 0x847d857b
    8000439a:	6585                	lui	a1,0x1
    8000439c:	9585859b          	addiw	a1,a1,-1704 # 958 <buflen.1+0x918>
    800043a0:	958a                	add	a1,a1,sp
    800043a2:	01b5b023          	sd	s11,0(a1)
    800043a6:	6585                	lui	a1,0x1
    800043a8:	db05859b          	addiw	a1,a1,-592 # db0 <buflen.1+0xd70>
    800043ac:	958a                	add	a1,a1,sp
    800043ae:	e188                	sd	a0,0(a1)
    800043b0:	6505                	lui	a0,0x1
    800043b2:	fa05051b          	addiw	a0,a0,-96 # fa0 <buflen.1+0xf60>
    800043b6:	950a                	add	a0,a0,sp
    800043b8:	6108                	ld	a0,0(a0)
    800043ba:	050d                	addi	a0,a0,3
    800043bc:	052a                	slli	a0,a0,0xa
    800043be:	6585                	lui	a1,0x1
    800043c0:	f985859b          	addiw	a1,a1,-104 # f98 <buflen.1+0xf58>
    800043c4:	958a                	add	a1,a1,sp
    800043c6:	6190                	ld	a2,0(a1)
    800043c8:	962a                	add	a2,a2,a0
    800043ca:	35863e83          	ld	t4,856(a2)
    800043ce:	6505                	lui	a0,0x1
    800043d0:	f685051b          	addiw	a0,a0,-152 # f68 <buflen.1+0xf28>
    800043d4:	950a                	add	a0,a0,sp
    800043d6:	01d53023          	sd	t4,0(a0)
    800043da:	36063883          	ld	a7,864(a2)
    800043de:	6505                	lui	a0,0x1
    800043e0:	f705051b          	addiw	a0,a0,-144 # f70 <buflen.1+0xf30>
    800043e4:	950a                	add	a0,a0,sp
    800043e6:	01153023          	sd	a7,0(a0)
    800043ea:	36863483          	ld	s1,872(a2)
    800043ee:	37063803          	ld	a6,880(a2)
    800043f2:	6505                	lui	a0,0x1
    800043f4:	f785051b          	addiw	a0,a0,-136 # f78 <buflen.1+0xf38>
    800043f8:	950a                	add	a0,a0,sp
    800043fa:	01053023          	sd	a6,0(a0)
    800043fe:	37863783          	ld	a5,888(a2)
    80004402:	6505                	lui	a0,0x1
    80004404:	f805051b          	addiw	a0,a0,-128 # f80 <buflen.1+0xf40>
    80004408:	950a                	add	a0,a0,sp
    8000440a:	e11c                	sd	a5,0(a0)
    8000440c:	38063703          	ld	a4,896(a2)
    80004410:	6505                	lui	a0,0x1
    80004412:	f885051b          	addiw	a0,a0,-120 # f88 <buflen.1+0xf48>
    80004416:	950a                	add	a0,a0,sp
    80004418:	e118                	sd	a4,0(a0)
    8000441a:	38863683          	ld	a3,904(a2)
    8000441e:	6505                	lui	a0,0x1
    80004420:	f905051b          	addiw	a0,a0,-112 # f90 <buflen.1+0xf50>
    80004424:	950a                	add	a0,a0,sp
    80004426:	e114                	sd	a3,0(a0)
    80004428:	39063583          	ld	a1,912(a2)
    8000442c:	eb2e                	sd	a1,400(sp)
    8000442e:	450d                	li	a0,3
    80004430:	8da5050b          	.insn	4, 0x8da5050b
    80004434:	4c98850b          	.insn	4, 0x4c98850b
    80004438:	6cf8050b          	.insn	4, 0x6cf8050b
    8000443c:	0cd7050b          	.insn	4, 0x0cd7050b
    80004440:	c5d5857b          	.insn	4, 0xc5d5857b
    80004444:	6585                	lui	a1,0x1
    80004446:	f285859b          	addiw	a1,a1,-216 # f28 <buflen.1+0xee8>
    8000444a:	958a                	add	a1,a1,sp
    8000444c:	e188                	sd	a0,0(a1)
    8000444e:	32843c03          	ld	s8,808(s0)
    80004452:	65813c23          	sd	s8,1624(sp)
    80004456:	33043983          	ld	s3,816(s0)
    8000445a:	65313023          	sd	s3,1600(sp)
    8000445e:	33843e83          	ld	t4,824(s0)
    80004462:	63d13023          	sd	t4,1568(sp)
    80004466:	34043883          	ld	a7,832(s0)
    8000446a:	63113823          	sd	a7,1584(sp)
    8000446e:	34843703          	ld	a4,840(s0)
    80004472:	5ee13823          	sd	a4,1520(sp)
    80004476:	35043683          	ld	a3,848(s0)
    8000447a:	60d13c23          	sd	a3,1560(sp)
    8000447e:	35843783          	ld	a5,856(s0)
    80004482:	5ef13023          	sd	a5,1504(sp)
    80004486:	36043583          	ld	a1,864(s0)
    8000448a:	60b13823          	sd	a1,1552(sp)
    8000448e:	4815                	li	a6,5
    80004490:	81a8050b          	.insn	4, 0x81a8050b
    80004494:	61d9850b          	.insn	4, 0x61d9850b
    80004498:	00e8850b          	.insn	4, 0x00e8850b
    8000449c:	20f6850b          	.insn	4, 0x20f6850b
    800044a0:	0985857b          	.insn	4, 0x0985857b
    800044a4:	6585                	lui	a1,0x1
    800044a6:	e485859b          	addiw	a1,a1,-440 # e48 <buflen.1+0xe08>
    800044aa:	958a                	add	a1,a1,sp
    800044ac:	e188                	sd	a0,0(a1)
    800044ae:	21843703          	ld	a4,536(s0)
    800044b2:	6505                	lui	a0,0x1
    800044b4:	8005051b          	addiw	a0,a0,-2048 # 800 <buflen.1+0x7c0>
    800044b8:	950a                	add	a0,a0,sp
    800044ba:	e118                	sd	a4,0(a0)
    800044bc:	4511                	li	a0,4
    800044be:	85a5050b          	.insn	4, 0x85a5050b
    800044c2:	7b413c23          	sd	s4,1976(sp)
    800044c6:	77513423          	sd	s5,1896(sp)
    800044ca:	454a850b          	.insn	4, 0x454a850b
    800044ce:	86fe                	mv	a3,t6
    800044d0:	7d213423          	sd	s2,1992(sp)
    800044d4:	65f9050b          	.insn	4, 0x65f9050b
    800044d8:	7fc13423          	sd	t3,2024(sp)
    800044dc:	8f86                	mv	t6,ra
    800044de:	6505                	lui	a0,0x1
    800044e0:	8305051b          	addiw	a0,a0,-2000 # 830 <buflen.1+0x7f0>
    800044e4:	950a                	add	a0,a0,sp
    800044e6:	00153023          	sd	ra,0(a0)
    800044ea:	05c0850b          	.insn	4, 0x05c0850b
    800044ee:	85e6                	mv	a1,s9
    800044f0:	6505                	lui	a0,0x1
    800044f2:	8105051b          	addiw	a0,a0,-2032 # 810 <buflen.1+0x7d0>
    800044f6:	950a                	add	a0,a0,sp
    800044f8:	01953023          	sd	s9,0(a0)
    800044fc:	44ec857b          	.insn	4, 0x44ec857b
    80004500:	6785                	lui	a5,0x1
    80004502:	da07879b          	addiw	a5,a5,-608 # da0 <buflen.1+0xd60>
    80004506:	978a                	add	a5,a5,sp
    80004508:	e388                	sd	a0,0(a5)
    8000450a:	22043c83          	ld	s9,544(s0)
    8000450e:	89a8050b          	.insn	4, 0x89a8050b
    80004512:	4095                	li	ra,5
    80004514:	68d9050b          	.insn	4, 0x68d9050b
    80004518:	09cf850b          	.insn	4, 0x09cf850b
    8000451c:	28e5850b          	.insn	4, 0x28e5850b
    80004520:	894c857b          	.insn	4, 0x894c857b
    80004524:	6785                	lui	a5,0x1
    80004526:	d887879b          	addiw	a5,a5,-632 # d88 <buflen.1+0xd48>
    8000452a:	978a                	add	a5,a5,sp
    8000452c:	e388                	sd	a0,0(a5)
    8000452e:	22843c03          	ld	s8,552(s0)
    80004532:	4a19                	li	s4,6
    80004534:	8daa050b          	.insn	4, 0x8daa050b
    80004538:	6cd9050b          	.insn	4, 0x6cd9050b
    8000453c:	87b6                	mv	a5,a3
    8000453e:	78d13c23          	sd	a3,1944(sp)
    80004542:	0dcf850b          	.insn	4, 0x0dcf850b
    80004546:	2ce5850b          	.insn	4, 0x2ce5850b
    8000454a:	c98c857b          	.insn	4, 0xc98c857b
    8000454e:	6685                	lui	a3,0x1
    80004550:	d786869b          	addiw	a3,a3,-648 # d78 <buflen.1+0xd38>
    80004554:	968a                	add	a3,a3,sp
    80004556:	e288                	sd	a0,0(a3)
    80004558:	23043683          	ld	a3,560(s0)
    8000455c:	4e9d                	li	t4,7
    8000455e:	81ae850b          	.insn	4, 0x81ae850b
    80004562:	01cf850b          	.insn	4, 0x01cf850b
    80004566:	20e5850b          	.insn	4, 0x20e5850b
    8000456a:	418c850b          	.insn	4, 0x418c850b
    8000456e:	85b6                	mv	a1,a3
    80004570:	7cd13c23          	sd	a3,2008(sp)
    80004574:	0cf6857b          	.insn	4, 0x0cf6857b
    80004578:	6685                	lui	a3,0x1
    8000457a:	d686869b          	addiw	a3,a3,-664 # d68 <buflen.1+0xd28>
    8000457e:	968a                	add	a3,a3,sp
    80004580:	e288                	sd	a0,0(a3)
    80004582:	23843683          	ld	a3,568(s0)
    80004586:	7cd13823          	sd	a3,2000(sp)
    8000458a:	458c850b          	.insn	4, 0x458c850b
    8000458e:	4cd5857b          	.insn	4, 0x4cd5857b
    80004592:	6585                	lui	a1,0x1
    80004594:	d585859b          	addiw	a1,a1,-680 # d58 <buflen.1+0xd18>
    80004598:	958a                	add	a1,a1,sp
    8000459a:	e188                	sd	a0,0(a1)
    8000459c:	12043583          	ld	a1,288(s0)
    800045a0:	6505                	lui	a0,0x1
    800045a2:	9805051b          	addiw	a0,a0,-1664 # 980 <buflen.1+0x940>
    800045a6:	950a                	add	a0,a0,sp
    800045a8:	e10c                	sd	a1,0(a0)
    800045aa:	69eb850b          	.insn	4, 0x69eb850b
    800045ae:	085b050b          	.insn	4, 0x085b050b
    800045b2:	8bda                	mv	s7,s6
    800045b4:	287d850b          	.insn	4, 0x287d850b
    800045b8:	891e                	mv	s2,t2
    800045ba:	8865857b          	.insn	4, 0x8865857b
    800045be:	6585                	lui	a1,0x1
    800045c0:	ce85859b          	addiw	a1,a1,-792 # ce8 <buflen.1+0xca8>
    800045c4:	958a                	add	a1,a1,sp
    800045c6:	e188                	sd	a0,0(a1)
    800045c8:	37043803          	ld	a6,880(s0)
    800045cc:	f242                	sd	a6,288(sp)
    800045ce:	37843503          	ld	a0,888(s0)
    800045d2:	5aa13c23          	sd	a0,1464(sp)
    800045d6:	38043783          	ld	a5,896(s0)
    800045da:	5cf13423          	sd	a5,1480(sp)
    800045de:	38843683          	ld	a3,904(s0)
    800045e2:	58d13c23          	sd	a3,1432(sp)
    800045e6:	39043303          	ld	t1,912(s0)
    800045ea:	5a613823          	sd	t1,1456(sp)
    800045ee:	39843883          	ld	a7,920(s0)
    800045f2:	eec6                	sd	a7,344(sp)
    800045f4:	3a043703          	ld	a4,928(s0)
    800045f8:	58e13823          	sd	a4,1424(sp)
    800045fc:	3a843583          	ld	a1,936(s0)
    80004600:	56b13423          	sd	a1,1384(sp)
    80004604:	6ca8050b          	.insn	4, 0x6ca8050b
    80004608:	0cd7850b          	.insn	4, 0x0cd7850b
    8000460c:	2d13050b          	.insn	4, 0x2d13050b
    80004610:	c8b7057b          	.insn	4, 0xc8b7057b
    80004614:	6685                	lui	a3,0x1
    80004616:	e186869b          	addiw	a3,a3,-488 # e18 <buflen.1+0xdd8>
    8000461a:	968a                	add	a3,a3,sp
    8000461c:	e288                	sd	a0,0(a3)
    8000461e:	3b043803          	ld	a6,944(s0)
    80004622:	59013023          	sd	a6,1408(sp)
    80004626:	3b843983          	ld	s3,952(s0)
    8000462a:	eace                	sd	s3,336(sp)
    8000462c:	3c043683          	ld	a3,960(s0)
    80004630:	4cd13423          	sd	a3,1224(sp)
    80004634:	3c843783          	ld	a5,968(s0)
    80004638:	56f13823          	sd	a5,1392(sp)
    8000463c:	4f09                	li	t5,2
    8000463e:	81af050b          	.insn	4, 0x81af050b
    80004642:	2113050b          	.insn	4, 0x2113050b
    80004646:	40b7050b          	.insn	4, 0x40b7050b
    8000464a:	6138050b          	.insn	4, 0x6138050b
    8000464e:	00f6857b          	.insn	4, 0x00f6857b
    80004652:	6585                	lui	a1,0x1
    80004654:	e105859b          	addiw	a1,a1,-496 # e10 <buflen.1+0xdd0>
    80004658:	958a                	add	a1,a1,sp
    8000465a:	e188                	sd	a0,0(a1)
    8000465c:	3d043303          	ld	t1,976(s0)
    80004660:	4c613823          	sd	t1,1232(sp)
    80004664:	3d843803          	ld	a6,984(s0)
    80004668:	55013023          	sd	a6,1344(sp)
    8000466c:	3e043883          	ld	a7,992(s0)
    80004670:	55113423          	sd	a7,1352(sp)
    80004674:	3e843703          	ld	a4,1000(s0)
    80004678:	56e13023          	sd	a4,1376(sp)
    8000467c:	3f043583          	ld	a1,1008(s0)
    80004680:	5ab13423          	sd	a1,1448(sp)
    80004684:	85ae850b          	.insn	4, 0x85ae850b
    80004688:	439d                	li	t2,7
    8000468a:	04f6850b          	.insn	4, 0x04f6850b
    8000468e:	2503050b          	.insn	4, 0x2503050b
    80004692:	44e8850b          	.insn	4, 0x44e8850b
    80004696:	4d35857b          	.insn	4, 0x4d35857b
    8000469a:	6585                	lui	a1,0x1
    8000469c:	e085859b          	addiw	a1,a1,-504 # e08 <buflen.1+0xdc8>
    800046a0:	958a                	add	a1,a1,sp
    800046a2:	e188                	sd	a0,0(a1)
    800046a4:	01863303          	ld	t1,24(a2)
    800046a8:	52613423          	sd	t1,1320(sp)
    800046ac:	02063983          	ld	s3,32(a2)
    800046b0:	51313c23          	sd	s3,1304(sp)
    800046b4:	02863803          	ld	a6,40(a2)
    800046b8:	4f013423          	sd	a6,1256(sp)
    800046bc:	03063883          	ld	a7,48(a2)
    800046c0:	51113423          	sd	a7,1288(sp)
    800046c4:	7e14                	ld	a3,56(a2)
    800046c6:	4ed13023          	sd	a3,1248(sp)
    800046ca:	622c                	ld	a1,64(a2)
    800046cc:	50b13023          	sd	a1,1280(sp)
    800046d0:	663c                	ld	a5,72(a2)
    800046d2:	5cf13c23          	sd	a5,1496(sp)
    800046d6:	6a38                	ld	a4,80(a2)
    800046d8:	60e13023          	sd	a4,1536(sp)
    800046dc:	450d                	li	a0,3
    800046de:	89a5050b          	.insn	4, 0x89a5050b
    800046e2:	4909850b          	.insn	4, 0x4909850b
    800046e6:	68d8850b          	.insn	4, 0x68d8850b
    800046ea:	08f5850b          	.insn	4, 0x08f5850b
    800046ee:	8467057b          	.insn	4, 0x8467057b
    800046f2:	6585                	lui	a1,0x1
    800046f4:	df05859b          	addiw	a1,a1,-528 # df0 <buflen.1+0xdb0>
    800046f8:	958a                	add	a1,a1,sp
    800046fa:	e188                	sd	a0,0(a1)
    800046fc:	8da0850b          	.insn	4, 0x8da0850b
    80004700:	6505                	lui	a0,0x1
    80004702:	f485051b          	addiw	a0,a0,-184 # f48 <buflen.1+0xf08>
    80004706:	950a                	add	a0,a0,sp
    80004708:	6108                	ld	a0,0(a0)
    8000470a:	6585                	lui	a1,0x1
    8000470c:	f405859b          	addiw	a1,a1,-192 # f40 <buflen.1+0xf00>
    80004710:	958a                	add	a1,a1,sp
    80004712:	618c                	ld	a1,0(a1)
    80004714:	6ca5850b          	.insn	4, 0x6ca5850b
    80004718:	6505                	lui	a0,0x1
    8000471a:	f585051b          	addiw	a0,a0,-168 # f58 <buflen.1+0xf18>
    8000471e:	950a                	add	a0,a0,sp
    80004720:	6108                	ld	a0,0(a0)
    80004722:	6585                	lui	a1,0x1
    80004724:	f505859b          	addiw	a1,a1,-176 # f50 <buflen.1+0xf10>
    80004728:	958a                	add	a1,a1,sp
    8000472a:	618c                	ld	a1,0(a1)
    8000472c:	0ca5850b          	.insn	4, 0x0ca5850b
    80004730:	6505                	lui	a0,0x1
    80004732:	f605051b          	addiw	a0,a0,-160 # f60 <buflen.1+0xf20>
    80004736:	950a                	add	a0,a0,sp
    80004738:	6108                	ld	a0,0(a0)
    8000473a:	6585                	lui	a1,0x1
    8000473c:	f305859b          	addiw	a1,a1,-208 # f30 <buflen.1+0xef0>
    80004740:	958a                	add	a1,a1,sp
    80004742:	618c                	ld	a1,0(a1)
    80004744:	2cb5050b          	.insn	4, 0x2cb5050b
    80004748:	6505                	lui	a0,0x1
    8000474a:	f385051b          	addiw	a0,a0,-200 # f38 <buflen.1+0xef8>
    8000474e:	950a                	add	a0,a0,sp
    80004750:	6108                	ld	a0,0(a0)
    80004752:	c8aa857b          	.insn	4, 0xc8aa857b
    80004756:	6585                	lui	a1,0x1
    80004758:	ca85859b          	addiw	a1,a1,-856 # ca8 <buflen.1+0xc68>
    8000475c:	958a                	add	a1,a1,sp
    8000475e:	e188                	sd	a0,0(a1)
    80004760:	33063783          	ld	a5,816(a2)
    80004764:	f6be                	sd	a5,360(sp)
    80004766:	33863e83          	ld	t4,824(a2)
    8000476a:	34063303          	ld	t1,832(a2)
    8000476e:	fa9a                	sd	t1,368(sp)
    80004770:	34863583          	ld	a1,840(a2)
    80004774:	feae                	sd	a1,376(sp)
    80004776:	35063703          	ld	a4,848(a2)
    8000477a:	e33a                	sd	a4,384(sp)
    8000477c:	81aa050b          	.insn	4, 0x81aa050b
    80004780:	88a6                	mv	a7,s1
    80004782:	e726                	sd	s1,392(sp)
    80004784:	6505                	lui	a0,0x1
    80004786:	f705051b          	addiw	a0,a0,-144 # f70 <buflen.1+0xf30>
    8000478a:	950a                	add	a0,a0,sp
    8000478c:	00053283          	ld	t0,0(a0)
    80004790:	4092850b          	.insn	4, 0x4092850b
    80004794:	61d7850b          	.insn	4, 0x61d7850b
    80004798:	f2f6                	sd	t4,352(sp)
    8000479a:	00b3050b          	.insn	4, 0x00b3050b
    8000479e:	6505                	lui	a0,0x1
    800047a0:	f685051b          	addiw	a0,a0,-152 # f68 <buflen.1+0xf28>
    800047a4:	950a                	add	a0,a0,sp
    800047a6:	00053e03          	ld	t3,0(a0)
    800047aa:	05c7057b          	.insn	4, 0x05c7057b
    800047ae:	6685                	lui	a3,0x1
    800047b0:	f006869b          	addiw	a3,a3,-256 # f00 <buflen.1+0xec0>
    800047b4:	968a                	add	a3,a3,sp
    800047b6:	e288                	sd	a0,0(a3)
    800047b8:	4492850b          	.insn	4, 0x4492850b
    800047bc:	6505                	lui	a0,0x1
    800047be:	f805051b          	addiw	a0,a0,-128 # f80 <buflen.1+0xf40>
    800047c2:	950a                	add	a0,a0,sp
    800047c4:	611c                	ld	a5,0(a0)
    800047c6:	6505                	lui	a0,0x1
    800047c8:	f785051b          	addiw	a0,a0,-136 # f78 <buflen.1+0xf38>
    800047cc:	950a                	add	a0,a0,sp
    800047ce:	00053803          	ld	a6,0(a0)
    800047d2:	64f8050b          	.insn	4, 0x64f8050b
    800047d6:	04b3050b          	.insn	4, 0x04b3050b
    800047da:	45c7057b          	.insn	4, 0x45c7057b
    800047de:	6685                	lui	a3,0x1
    800047e0:	ef86869b          	addiw	a3,a3,-264 # ef8 <buflen.1+0xeb8>
    800047e4:	968a                	add	a3,a3,sp
    800047e6:	e288                	sd	a0,0(a3)
    800047e8:	4305                	li	t1,1
    800047ea:	89a3050b          	.insn	4, 0x89a3050b
    800047ee:	4892850b          	.insn	4, 0x4892850b
    800047f2:	68f8050b          	.insn	4, 0x68f8050b
    800047f6:	6505                	lui	a0,0x1
    800047f8:	f885051b          	addiw	a0,a0,-120 # f88 <buflen.1+0xf48>
    800047fc:	950a                	add	a0,a0,sp
    800047fe:	6104                	ld	s1,0(a0)
    80004800:	08b4850b          	.insn	4, 0x08b4850b
    80004804:	85c7057b          	.insn	4, 0x85c7057b
    80004808:	6585                	lui	a1,0x1
    8000480a:	ee85859b          	addiw	a1,a1,-280 # ee8 <buflen.1+0xea8>
    8000480e:	958a                	add	a1,a1,sp
    80004810:	e188                	sd	a0,0(a1)
    80004812:	8daf050b          	.insn	4, 0x8daf050b
    80004816:	4d12850b          	.insn	4, 0x4d12850b
    8000481a:	6cf8050b          	.insn	4, 0x6cf8050b
    8000481e:	6505                	lui	a0,0x1
    80004820:	f905051b          	addiw	a0,a0,-112 # f90 <buflen.1+0xf50>
    80004824:	950a                	add	a0,a0,sp
    80004826:	6108                	ld	a0,0(a0)
    80004828:	0ca4850b          	.insn	4, 0x0ca4850b
    8000482c:	c5c7057b          	.insn	4, 0xc5c7057b
    80004830:	6585                	lui	a1,0x1
    80004832:	ed85859b          	addiw	a1,a1,-296 # ed8 <buflen.1+0xe98>
    80004836:	958a                	add	a1,a1,sp
    80004838:	e188                	sd	a0,0(a1)
    8000483a:	81a3850b          	.insn	4, 0x81a3850b
    8000483e:	0dd8057b          	.insn	4, 0x0dd8057b
    80004842:	6585                	lui	a1,0x1
    80004844:	eb85859b          	addiw	a1,a1,-328 # eb8 <buflen.1+0xe78>
    80004848:	958a                	add	a1,a1,sp
    8000484a:	e188                	sd	a0,0(a1)
    8000484c:	7228                	ld	a0,96(a2)
    8000484e:	e6aa                	sd	a0,328(sp)
    80004850:	763c                	ld	a5,104(a2)
    80004852:	fa3e                	sd	a5,304(sp)
    80004854:	7a24                	ld	s1,112(a2)
    80004856:	fe26                	sd	s1,312(sp)
    80004858:	07863f03          	ld	t5,120(a2)
    8000485c:	f67a                	sd	t5,296(sp)
    8000485e:	6254                	ld	a3,128(a2)
    80004860:	e2b6                	sd	a3,320(sp)
    80004862:	08863e83          	ld	t4,136(a2)
    80004866:	09063383          	ld	t2,144(a2)
    8000486a:	4a713c23          	sd	t2,1208(sp)
    8000486e:	09863803          	ld	a6,152(a2)
    80004872:	4591                	li	a1,4
    80004874:	85a5858b          	.insn	4, 0x85a5858b
    80004878:	44f5058b          	.insn	4, 0x44f5058b
    8000487c:	65e4858b          	.insn	4, 0x65e4858b
    80004880:	05d6858b          	.insn	4, 0x05d6858b
    80004884:	4503857b          	.insn	4, 0x4503857b
    80004888:	6585                	lui	a1,0x1
    8000488a:	dc85859b          	addiw	a1,a1,-568 # dc8 <buflen.1+0xd88>
    8000488e:	958a                	add	a1,a1,sp
    80004890:	e188                	sd	a0,0(a1)
    80004892:	724c                	ld	a1,160(a2)
    80004894:	4e15                	li	t3,5
    80004896:	89ae070b          	.insn	4, 0x89ae070b
    8000489a:	69e4870b          	.insn	4, 0x69e4870b
    8000489e:	09d6870b          	.insn	4, 0x09d6870b
    800048a2:	2903870b          	.insn	4, 0x2903870b
    800048a6:	88f5857b          	.insn	4, 0x88f5857b
    800048aa:	6705                	lui	a4,0x1
    800048ac:	dc07071b          	addiw	a4,a4,-576 # dc0 <buflen.1+0xd80>
    800048b0:	970a                	add	a4,a4,sp
    800048b2:	e308                	sd	a0,0(a4)
    800048b4:	0a863883          	ld	a7,168(a2)
    800048b8:	4299                	li	t0,6
    800048ba:	8da2878b          	.insn	4, 0x8da2878b
    800048be:	6de4878b          	.insn	4, 0x6de4878b
    800048c2:	0dd6878b          	.insn	4, 0x0dd6878b
    800048c6:	2d03878b          	.insn	4, 0x2d03878b
    800048ca:	c915857b          	.insn	4, 0xc915857b
    800048ce:	6705                	lui	a4,0x1
    800048d0:	da87071b          	addiw	a4,a4,-600 # da8 <buflen.1+0xd68>
    800048d4:	970a                	add	a4,a4,sp
    800048d6:	e308                	sd	a0,0(a4)
    800048d8:	7a5c                	ld	a5,176(a2)
    800048da:	01d6848b          	.insn	4, 0x01d6848b
    800048de:	ee76                	sd	t4,280(sp)
    800048e0:	2103848b          	.insn	4, 0x2103848b
    800048e4:	4115848b          	.insn	4, 0x4115848b
    800048e8:	0de7857b          	.insn	4, 0x0de7857b
    800048ec:	6685                	lui	a3,0x1
    800048ee:	d986869b          	addiw	a3,a3,-616 # d98 <buflen.1+0xd58>
    800048f2:	968a                	add	a3,a3,sp
    800048f4:	e288                	sd	a0,0(a3)
    800048f6:	7e44                	ld	s1,184(a2)
    800048f8:	4515850b          	.insn	4, 0x4515850b
    800048fc:	4c97857b          	.insn	4, 0x4c97857b
    80004900:	6685                	lui	a3,0x1
    80004902:	d906869b          	addiw	a3,a3,-624 # d90 <buflen.1+0xd50>
    80004906:	968a                	add	a3,a3,sp
    80004908:	e288                	sd	a0,0(a3)
    8000490a:	6268                	ld	a0,192(a2)
    8000490c:	89a3070b          	.insn	4, 0x89a3070b
    80004910:	4f05                	li	t5,1
    80004912:	4915858b          	.insn	4, 0x4915858b
    80004916:	6897858b          	.insn	4, 0x6897858b
    8000491a:	81d505fb          	.insn	4, 0x81d505fb
    8000491e:	6685                	lui	a3,0x1
    80004920:	d806869b          	addiw	a3,a3,-640 # d80 <buflen.1+0xd40>
    80004924:	968a                	add	a3,a3,sp
    80004926:	e28c                	sd	a1,0(a3)
    80004928:	0c863383          	ld	t2,200(a2)
    8000492c:	4309                	li	t1,2
    8000492e:	8da3070b          	.insn	4, 0x8da3070b
    80004932:	6c97870b          	.insn	4, 0x6c97870b
    80004936:	c07505fb          	.insn	4, 0xc07505fb
    8000493a:	6685                	lui	a3,0x1
    8000493c:	d706869b          	addiw	a3,a3,-656 # d70 <buflen.1+0xd30>
    80004940:	968a                	add	a3,a3,sp
    80004942:	e28c                	sd	a1,0(a3)
    80004944:	6a78                	ld	a4,208(a2)
    80004946:	4e8d                	li	t4,3
    80004948:	81ae858b          	.insn	4, 0x81ae858b
    8000494c:	6097858b          	.insn	4, 0x6097858b
    80004950:	0075058b          	.insn	4, 0x0075058b
    80004954:	050705fb          	.insn	4, 0x050705fb
    80004958:	6685                	lui	a3,0x1
    8000495a:	d606869b          	addiw	a3,a3,-672 # d60 <buflen.1+0xd20>
    8000495e:	968a                	add	a3,a3,sp
    80004960:	e28c                	sd	a1,0(a3)
    80004962:	0d863803          	ld	a6,216(a2)
    80004966:	0475078b          	.insn	4, 0x0475078b
    8000496a:	450705fb          	.insn	4, 0x450705fb
    8000496e:	6685                	lui	a3,0x1
    80004970:	d506869b          	addiw	a3,a3,-688 # d50 <buflen.1+0xd10>
    80004974:	968a                	add	a3,a3,sp
    80004976:	e28c                	sd	a1,0(a3)
    80004978:	727c                	ld	a5,224(a2)
    8000497a:	89ae058b          	.insn	4, 0x89ae058b
    8000497e:	4b15                	li	s6,5
    80004980:	0875050b          	.insn	4, 0x0875050b
    80004984:	2907050b          	.insn	4, 0x2907050b
    80004988:	8917857b          	.insn	4, 0x8917857b
    8000498c:	6585                	lui	a1,0x1
    8000498e:	d485859b          	addiw	a1,a1,-696 # d48 <buflen.1+0xd08>
    80004992:	958a                	add	a1,a1,sp
    80004994:	e188                	sd	a0,0(a1)
    80004996:	0e863883          	ld	a7,232(a2)
    8000499a:	8da2858b          	.insn	4, 0x8da2858b
    8000499e:	4e19                	li	t3,6
    800049a0:	2d07058b          	.insn	4, 0x2d07058b
    800049a4:	c917857b          	.insn	4, 0xc917857b
    800049a8:	6585                	lui	a1,0x1
    800049aa:	d405859b          	addiw	a1,a1,-704 # d40 <buflen.1+0xd00>
    800049ae:	958a                	add	a1,a1,sp
    800049b0:	e188                	sd	a0,0(a1)
    800049b2:	7a6c                	ld	a1,240(a2)
    800049b4:	469d                	li	a3,7
    800049b6:	81a6850b          	.insn	4, 0x81a6850b
    800049ba:	2107050b          	.insn	4, 0x2107050b
    800049be:	4117850b          	.insn	4, 0x4117850b
    800049c2:	0c95857b          	.insn	4, 0x0c95857b
    800049c6:	6705                	lui	a4,0x1
    800049c8:	d387071b          	addiw	a4,a4,-712 # d38 <buflen.1+0xcf8>
    800049cc:	970a                	add	a4,a4,sp
    800049ce:	e308                	sd	a0,0(a4)
    800049d0:	0f863283          	ld	t0,248(a2)
    800049d4:	4517870b          	.insn	4, 0x4517870b
    800049d8:	4c55857b          	.insn	4, 0x4c55857b
    800049dc:	6705                	lui	a4,0x1
    800049de:	d307071b          	addiw	a4,a4,-720 # d30 <buflen.1+0xcf0>
    800049e2:	970a                	add	a4,a4,sp
    800049e4:	e308                	sd	a0,0(a4)
    800049e6:	10063703          	ld	a4,256(a2)
    800049ea:	89af048b          	.insn	4, 0x89af048b
    800049ee:	4a85                	li	s5,1
    800049f0:	4917878b          	.insn	4, 0x4917878b
    800049f4:	6855878b          	.insn	4, 0x6855878b
    800049f8:	8077057b          	.insn	4, 0x8077057b
    800049fc:	6785                	lui	a5,0x1
    800049fe:	d287879b          	addiw	a5,a5,-728 # d28 <buflen.1+0xce8>
    80004a02:	978a                	add	a5,a5,sp
    80004a04:	e388                	sd	a0,0(a5)
    80004a06:	10863783          	ld	a5,264(a2)
    80004a0a:	8da3048b          	.insn	4, 0x8da3048b
    80004a0e:	4309                	li	t1,2
    80004a10:	6c55848b          	.insn	4, 0x6c55848b
    80004a14:	c0f7057b          	.insn	4, 0xc0f7057b
    80004a18:	6385                	lui	t2,0x1
    80004a1a:	d203839b          	addiw	t2,t2,-736 # d20 <buflen.1+0xce0>
    80004a1e:	938a                	add	t2,t2,sp
    80004a20:	00a3b023          	sd	a0,0(t2)
    80004a24:	11063483          	ld	s1,272(a2)
    80004a28:	81ae850b          	.insn	4, 0x81ae850b
    80004a2c:	4d8d                	li	s11,3
    80004a2e:	6055850b          	.insn	4, 0x6055850b
    80004a32:	00f7050b          	.insn	4, 0x00f7050b
    80004a36:	0504857b          	.insn	4, 0x0504857b
    80004a3a:	6585                	lui	a1,0x1
    80004a3c:	d185859b          	addiw	a1,a1,-744 # d18 <buflen.1+0xcd8>
    80004a40:	958a                	add	a1,a1,sp
    80004a42:	e188                	sd	a0,0(a1)
    80004a44:	11863803          	ld	a6,280(a2)
    80004a48:	04f7058b          	.insn	4, 0x04f7058b
    80004a4c:	4504857b          	.insn	4, 0x4504857b
    80004a50:	6585                	lui	a1,0x1
    80004a52:	d105859b          	addiw	a1,a1,-752 # d10 <buflen.1+0xcd0>
    80004a56:	958a                	add	a1,a1,sp
    80004a58:	e188                	sd	a0,0(a1)
    80004a5a:	12063583          	ld	a1,288(a2)
    80004a5e:	89ab050b          	.insn	4, 0x89ab050b
    80004a62:	08f7050b          	.insn	4, 0x08f7050b
    80004a66:	2904850b          	.insn	4, 0x2904850b
    80004a6a:	8915857b          	.insn	4, 0x8915857b
    80004a6e:	6705                	lui	a4,0x1
    80004a70:	d087071b          	addiw	a4,a4,-760 # d08 <buflen.1+0xcc8>
    80004a74:	970a                	add	a4,a4,sp
    80004a76:	e308                	sd	a0,0(a4)
    80004a78:	12863883          	ld	a7,296(a2)
    80004a7c:	8dae070b          	.insn	4, 0x8dae070b
    80004a80:	2d04870b          	.insn	4, 0x2d04870b
    80004a84:	c915857b          	.insn	4, 0xc915857b
    80004a88:	6705                	lui	a4,0x1
    80004a8a:	d007071b          	addiw	a4,a4,-768 # d00 <buflen.1+0xcc0>
    80004a8e:	970a                	add	a4,a4,sp
    80004a90:	e308                	sd	a0,0(a4)
    80004a92:	13063703          	ld	a4,304(a2)
    80004a96:	81a6850b          	.insn	4, 0x81a6850b
    80004a9a:	4f1d                	li	t5,7
    80004a9c:	2104850b          	.insn	4, 0x2104850b
    80004aa0:	4115850b          	.insn	4, 0x4115850b
    80004aa4:	0c57057b          	.insn	4, 0x0c57057b
    80004aa8:	6685                	lui	a3,0x1
    80004aaa:	cf86869b          	addiw	a3,a3,-776 # cf8 <buflen.1+0xcb8>
    80004aae:	968a                	add	a3,a3,sp
    80004ab0:	e288                	sd	a0,0(a3)
    80004ab2:	13863283          	ld	t0,312(a2)
    80004ab6:	4515848b          	.insn	4, 0x4515848b
    80004aba:	4c57057b          	.insn	4, 0x4c57057b
    80004abe:	6685                	lui	a3,0x1
    80004ac0:	cf06869b          	addiw	a3,a3,-784 # cf0 <buflen.1+0xcb0>
    80004ac4:	968a                	add	a3,a3,sp
    80004ac6:	e288                	sd	a0,0(a3)
    80004ac8:	14063483          	ld	s1,320(a2)
    80004acc:	89aa850b          	.insn	4, 0x89aa850b
    80004ad0:	4915850b          	.insn	4, 0x4915850b
    80004ad4:	6857050b          	.insn	4, 0x6857050b
    80004ad8:	80f4857b          	.insn	4, 0x80f4857b
    80004adc:	6585                	lui	a1,0x1
    80004ade:	ce05859b          	addiw	a1,a1,-800 # ce0 <buflen.1+0xca0>
    80004ae2:	958a                	add	a1,a1,sp
    80004ae4:	e188                	sd	a0,0(a1)
    80004ae6:	14863383          	ld	t2,328(a2)
    80004aea:	8da3058b          	.insn	4, 0x8da3058b
    80004aee:	4f89                	li	t6,2
    80004af0:	6c57058b          	.insn	4, 0x6c57058b
    80004af4:	c074857b          	.insn	4, 0xc074857b
    80004af8:	6585                	lui	a1,0x1
    80004afa:	cd85859b          	addiw	a1,a1,-808 # cd8 <buflen.1+0xc98>
    80004afe:	958a                	add	a1,a1,sp
    80004b00:	e188                	sd	a0,0(a1)
    80004b02:	15063583          	ld	a1,336(a2)
    80004b06:	81ad878b          	.insn	4, 0x81ad878b
    80004b0a:	6057070b          	.insn	4, 0x6057070b
    80004b0e:	0074870b          	.insn	4, 0x0074870b
    80004b12:	0505857b          	.insn	4, 0x0505857b
    80004b16:	6685                	lui	a3,0x1
    80004b18:	cd06869b          	addiw	a3,a3,-816 # cd0 <buflen.1+0xc90>
    80004b1c:	968a                	add	a3,a3,sp
    80004b1e:	e288                	sd	a0,0(a3)
    80004b20:	15863703          	ld	a4,344(a2)
    80004b24:	0474878b          	.insn	4, 0x0474878b
    80004b28:	44e5857b          	.insn	4, 0x44e5857b
    80004b2c:	6685                	lui	a3,0x1
    80004b2e:	cc86869b          	addiw	a3,a3,-824 # cc8 <buflen.1+0xc88>
    80004b32:	968a                	add	a3,a3,sp
    80004b34:	e288                	sd	a0,0(a3)
    80004b36:	16063783          	ld	a5,352(a2)
    80004b3a:	89ab050b          	.insn	4, 0x89ab050b
    80004b3e:	0874850b          	.insn	4, 0x0874850b
    80004b42:	28e5850b          	.insn	4, 0x28e5850b
    80004b46:	8917857b          	.insn	4, 0x8917857b
    80004b4a:	6685                	lui	a3,0x1
    80004b4c:	cc06869b          	addiw	a3,a3,-832 # cc0 <buflen.1+0xc80>
    80004b50:	968a                	add	a3,a3,sp
    80004b52:	e288                	sd	a0,0(a3)
    80004b54:	16863803          	ld	a6,360(a2)
    80004b58:	8dae048b          	.insn	4, 0x8dae048b
    80004b5c:	2ce5848b          	.insn	4, 0x2ce5848b
    80004b60:	c907857b          	.insn	4, 0xc907857b
    80004b64:	6685                	lui	a3,0x1
    80004b66:	cb86869b          	addiw	a3,a3,-840 # cb8 <buflen.1+0xc78>
    80004b6a:	968a                	add	a3,a3,sp
    80004b6c:	e288                	sd	a0,0(a3)
    80004b6e:	17063483          	ld	s1,368(a2)
    80004b72:	81af050b          	.insn	4, 0x81af050b
    80004b76:	20e5850b          	.insn	4, 0x20e5850b
    80004b7a:	4107850b          	.insn	4, 0x4107850b
    80004b7e:	0c54857b          	.insn	4, 0x0c54857b
    80004b82:	6585                	lui	a1,0x1
    80004b84:	cb05859b          	addiw	a1,a1,-848 # cb0 <buflen.1+0xc70>
    80004b88:	958a                	add	a1,a1,sp
    80004b8a:	e188                	sd	a0,0(a1)
    80004b8c:	17863883          	ld	a7,376(a2)
    80004b90:	4507858b          	.insn	4, 0x4507858b
    80004b94:	4d14857b          	.insn	4, 0x4d14857b
    80004b98:	6585                	lui	a1,0x1
    80004b9a:	ca05859b          	addiw	a1,a1,-864 # ca0 <buflen.1+0xc60>
    80004b9e:	958a                	add	a1,a1,sp
    80004ba0:	e188                	sd	a0,0(a1)
    80004ba2:	18063583          	ld	a1,384(a2)
    80004ba6:	89aa850b          	.insn	4, 0x89aa850b
    80004baa:	4907850b          	.insn	4, 0x4907850b
    80004bae:	6914850b          	.insn	4, 0x6914850b
    80004bb2:	8075857b          	.insn	4, 0x8075857b
    80004bb6:	6685                	lui	a3,0x1
    80004bb8:	c986869b          	addiw	a3,a3,-872 # c98 <buflen.1+0xc58>
    80004bbc:	968a                	add	a3,a3,sp
    80004bbe:	e288                	sd	a0,0(a3)
    80004bc0:	18863283          	ld	t0,392(a2)
    80004bc4:	8daf878b          	.insn	4, 0x8daf878b
    80004bc8:	6d14878b          	.insn	4, 0x6d14878b
    80004bcc:	c055857b          	.insn	4, 0xc055857b
    80004bd0:	6685                	lui	a3,0x1
    80004bd2:	c906869b          	addiw	a3,a3,-880 # c90 <buflen.1+0xc50>
    80004bd6:	968a                	add	a3,a3,sp
    80004bd8:	e288                	sd	a0,0(a3)
    80004bda:	19063783          	ld	a5,400(a2)
    80004bde:	81ad850b          	.insn	4, 0x81ad850b
    80004be2:	6114850b          	.insn	4, 0x6114850b
    80004be6:	0055850b          	.insn	4, 0x0055850b
    80004bea:	04e7857b          	.insn	4, 0x04e7857b
    80004bee:	6685                	lui	a3,0x1
    80004bf0:	c886869b          	addiw	a3,a3,-888 # c88 <buflen.1+0xc48>
    80004bf4:	968a                	add	a3,a3,sp
    80004bf6:	e288                	sd	a0,0(a3)
    80004bf8:	19863383          	ld	t2,408(a2)
    80004bfc:	0455870b          	.insn	4, 0x0455870b
    80004c00:	4477857b          	.insn	4, 0x4477857b
    80004c04:	6685                	lui	a3,0x1
    80004c06:	c806869b          	addiw	a3,a3,-896 # c80 <buflen.1+0xc40>
    80004c0a:	968a                	add	a3,a3,sp
    80004c0c:	e288                	sd	a0,0(a3)
    80004c0e:	1a063703          	ld	a4,416(a2)
    80004c12:	89ab048b          	.insn	4, 0x89ab048b
    80004c16:	0855858b          	.insn	4, 0x0855858b
    80004c1a:	2877858b          	.insn	4, 0x2877858b
    80004c1e:	8907057b          	.insn	4, 0x8907057b
    80004c22:	6585                	lui	a1,0x1
    80004c24:	c785859b          	addiw	a1,a1,-904 # c78 <buflen.1+0xc38>
    80004c28:	958a                	add	a1,a1,sp
    80004c2a:	e188                	sd	a0,0(a1)
    80004c2c:	1a863583          	ld	a1,424(a2)
    80004c30:	8dae048b          	.insn	4, 0x8dae048b
    80004c34:	2c77848b          	.insn	4, 0x2c77848b
    80004c38:	c8b7057b          	.insn	4, 0xc8b7057b
    80004c3c:	6685                	lui	a3,0x1
    80004c3e:	c706869b          	addiw	a3,a3,-912 # c70 <buflen.1+0xc30>
    80004c42:	968a                	add	a3,a3,sp
    80004c44:	e288                	sd	a0,0(a3)
    80004c46:	1b063483          	ld	s1,432(a2)
    80004c4a:	81af050b          	.insn	4, 0x81af050b
    80004c4e:	2077850b          	.insn	4, 0x2077850b
    80004c52:	40b7050b          	.insn	4, 0x40b7050b
    80004c56:	0d14857b          	.insn	4, 0x0d14857b
    80004c5a:	6685                	lui	a3,0x1
    80004c5c:	c686869b          	addiw	a3,a3,-920 # c68 <buflen.1+0xc28>
    80004c60:	968a                	add	a3,a3,sp
    80004c62:	e288                	sd	a0,0(a3)
    80004c64:	1b863803          	ld	a6,440(a2)
    80004c68:	44b7078b          	.insn	4, 0x44b7078b
    80004c6c:	4d04857b          	.insn	4, 0x4d04857b
    80004c70:	6685                	lui	a3,0x1
    80004c72:	c606869b          	addiw	a3,a3,-928 # c60 <buflen.1+0xc20>
    80004c76:	968a                	add	a3,a3,sp
    80004c78:	e288                	sd	a0,0(a3)
    80004c7a:	1c063783          	ld	a5,448(a2)
    80004c7e:	89aa850b          	.insn	4, 0x89aa850b
    80004c82:	48b7050b          	.insn	4, 0x48b7050b
    80004c86:	6904850b          	.insn	4, 0x6904850b
    80004c8a:	8057857b          	.insn	4, 0x8057857b
    80004c8e:	6685                	lui	a3,0x1
    80004c90:	c586869b          	addiw	a3,a3,-936 # c58 <buflen.1+0xc18>
    80004c94:	968a                	add	a3,a3,sp
    80004c96:	e288                	sd	a0,0(a3)
    80004c98:	1c863883          	ld	a7,456(a2)
    80004c9c:	8daf870b          	.insn	4, 0x8daf870b
    80004ca0:	6d04870b          	.insn	4, 0x6d04870b
    80004ca4:	c117857b          	.insn	4, 0xc117857b
    80004ca8:	6685                	lui	a3,0x1
    80004caa:	c506869b          	addiw	a3,a3,-944 # c50 <buflen.1+0xc10>
    80004cae:	968a                	add	a3,a3,sp
    80004cb0:	e288                	sd	a0,0(a3)
    80004cb2:	1d063703          	ld	a4,464(a2)
    80004cb6:	81ad850b          	.insn	4, 0x81ad850b
    80004cba:	6104850b          	.insn	4, 0x6104850b
    80004cbe:	0117850b          	.insn	4, 0x0117850b
    80004cc2:	0477057b          	.insn	4, 0x0477057b
    80004cc6:	6685                	lui	a3,0x1
    80004cc8:	c486869b          	addiw	a3,a3,-952 # c48 <buflen.1+0xc08>
    80004ccc:	968a                	add	a3,a3,sp
    80004cce:	e288                	sd	a0,0(a3)
    80004cd0:	1d863283          	ld	t0,472(a2)
    80004cd4:	0517848b          	.insn	4, 0x0517848b
    80004cd8:	4457057b          	.insn	4, 0x4457057b
    80004cdc:	6685                	lui	a3,0x1
    80004cde:	c406869b          	addiw	a3,a3,-960 # c40 <buflen.1+0xc00>
    80004ce2:	968a                	add	a3,a3,sp
    80004ce4:	e288                	sd	a0,0(a3)
    80004ce6:	1e063483          	ld	s1,480(a2)
    80004cea:	89ab050b          	.insn	4, 0x89ab050b
    80004cee:	0917850b          	.insn	4, 0x0917850b
    80004cf2:	2857050b          	.insn	4, 0x2857050b
    80004cf6:	88b4857b          	.insn	4, 0x88b4857b
    80004cfa:	6585                	lui	a1,0x1
    80004cfc:	c385859b          	addiw	a1,a1,-968 # c38 <buflen.1+0xbf8>
    80004d00:	958a                	add	a1,a1,sp
    80004d02:	e188                	sd	a0,0(a1)
    80004d04:	1e863383          	ld	t2,488(a2)
    80004d08:	8dae050b          	.insn	4, 0x8dae050b
    80004d0c:	2c57050b          	.insn	4, 0x2c57050b
    80004d10:	c874857b          	.insn	4, 0xc874857b
    80004d14:	6585                	lui	a1,0x1
    80004d16:	c305859b          	addiw	a1,a1,-976 # c30 <buflen.1+0xbf0>
    80004d1a:	958a                	add	a1,a1,sp
    80004d1c:	e188                	sd	a0,0(a1)
    80004d1e:	1f063503          	ld	a0,496(a2)
    80004d22:	81af058b          	.insn	4, 0x81af058b
    80004d26:	2057058b          	.insn	4, 0x2057058b
    80004d2a:	4074858b          	.insn	4, 0x4074858b
    80004d2e:	0d0505fb          	.insn	4, 0x0d0505fb
    80004d32:	6685                	lui	a3,0x1
    80004d34:	c286869b          	addiw	a3,a3,-984 # c28 <buflen.1+0xbe8>
    80004d38:	968a                	add	a3,a3,sp
    80004d3a:	e28c                	sd	a1,0(a3)
    80004d3c:	1f863803          	ld	a6,504(a2)
    80004d40:	4474858b          	.insn	4, 0x4474858b
    80004d44:	4d0505fb          	.insn	4, 0x4d0505fb
    80004d48:	6685                	lui	a3,0x1
    80004d4a:	c206869b          	addiw	a3,a3,-992 # c20 <buflen.1+0xbe0>
    80004d4e:	968a                	add	a3,a3,sp
    80004d50:	e28c                	sd	a1,0(a3)
    80004d52:	20063583          	ld	a1,512(a2)
    80004d56:	89aa870b          	.insn	4, 0x89aa870b
    80004d5a:	4874870b          	.insn	4, 0x4874870b
    80004d5e:	6905070b          	.insn	4, 0x6905070b
    80004d62:	8115877b          	.insn	4, 0x8115877b
    80004d66:	6685                	lui	a3,0x1
    80004d68:	c186869b          	addiw	a3,a3,-1000 # c18 <buflen.1+0xbd8>
    80004d6c:	968a                	add	a3,a3,sp
    80004d6e:	e298                	sd	a4,0(a3)
    80004d70:	20863483          	ld	s1,520(a2)
    80004d74:	8daf870b          	.insn	4, 0x8daf870b
    80004d78:	6d05070b          	.insn	4, 0x6d05070b
    80004d7c:	c095877b          	.insn	4, 0xc095877b
    80004d80:	6685                	lui	a3,0x1
    80004d82:	c106869b          	addiw	a3,a3,-1008 # c10 <buflen.1+0xbd0>
    80004d86:	968a                	add	a3,a3,sp
    80004d88:	e298                	sd	a4,0(a3)
    80004d8a:	21063703          	ld	a4,528(a2)
    80004d8e:	81ad878b          	.insn	4, 0x81ad878b
    80004d92:	6105050b          	.insn	4, 0x6105050b
    80004d96:	0095850b          	.insn	4, 0x0095850b
    80004d9a:	0457057b          	.insn	4, 0x0457057b
    80004d9e:	6685                	lui	a3,0x1
    80004da0:	c086869b          	addiw	a3,a3,-1016 # c08 <buflen.1+0xbc8>
    80004da4:	968a                	add	a3,a3,sp
    80004da6:	e288                	sd	a0,0(a3)
    80004da8:	21863283          	ld	t0,536(a2)
    80004dac:	0495850b          	.insn	4, 0x0495850b
    80004db0:	4457057b          	.insn	4, 0x4457057b
    80004db4:	6685                	lui	a3,0x1
    80004db6:	c006869b          	addiw	a3,a3,-1024 # c00 <buflen.1+0xbc0>
    80004dba:	968a                	add	a3,a3,sp
    80004dbc:	e288                	sd	a0,0(a3)
    80004dbe:	22063883          	ld	a7,544(a2)
    80004dc2:	89ab078b          	.insn	4, 0x89ab078b
    80004dc6:	0895858b          	.insn	4, 0x0895858b
    80004dca:	2857058b          	.insn	4, 0x2857058b
    80004dce:	8878857b          	.insn	4, 0x8878857b
    80004dd2:	6585                	lui	a1,0x1
    80004dd4:	bf85859b          	addiw	a1,a1,-1032 # bf8 <buflen.1+0xbb8>
    80004dd8:	958a                	add	a1,a1,sp
    80004dda:	e188                	sd	a0,0(a1)
    80004ddc:	22863983          	ld	s3,552(a2)
    80004de0:	4799                	li	a5,6
    80004de2:	8da7858b          	.insn	4, 0x8da7858b
    80004de6:	2c57058b          	.insn	4, 0x2c57058b
    80004dea:	c938857b          	.insn	4, 0xc938857b
    80004dee:	6585                	lui	a1,0x1
    80004df0:	bf05859b          	addiw	a1,a1,-1040 # bf0 <buflen.1+0xbb0>
    80004df4:	958a                	add	a1,a1,sp
    80004df6:	e188                	sd	a0,0(a1)
    80004df8:	23063303          	ld	t1,560(a2)
    80004dfc:	81af058b          	.insn	4, 0x81af058b
    80004e00:	2057058b          	.insn	4, 0x2057058b
    80004e04:	4138858b          	.insn	4, 0x4138858b
    80004e08:	0d03057b          	.insn	4, 0x0d03057b
    80004e0c:	6585                	lui	a1,0x1
    80004e0e:	be85859b          	addiw	a1,a1,-1048 # be8 <buflen.1+0xba8>
    80004e12:	958a                	add	a1,a1,sp
    80004e14:	e188                	sd	a0,0(a1)
    80004e16:	23863383          	ld	t2,568(a2)
    80004e1a:	4538858b          	.insn	4, 0x4538858b
    80004e1e:	4c73057b          	.insn	4, 0x4c73057b
    80004e22:	6585                	lui	a1,0x1
    80004e24:	be05859b          	addiw	a1,a1,-1056 # be0 <buflen.1+0xba0>
    80004e28:	958a                	add	a1,a1,sp
    80004e2a:	e188                	sd	a0,0(a1)
    80004e2c:	24063e03          	ld	t3,576(a2)
    80004e30:	89aa858b          	.insn	4, 0x89aa858b
    80004e34:	4938858b          	.insn	4, 0x4938858b
    80004e38:	6873058b          	.insn	4, 0x6873058b
    80004e3c:	809e057b          	.insn	4, 0x809e057b
    80004e40:	6585                	lui	a1,0x1
    80004e42:	bd85859b          	addiw	a1,a1,-1064 # bd8 <buflen.1+0xb98>
    80004e46:	958a                	add	a1,a1,sp
    80004e48:	e188                	sd	a0,0(a1)
    80004e4a:	24863e83          	ld	t4,584(a2)
    80004e4e:	8daf858b          	.insn	4, 0x8daf858b
    80004e52:	6c73058b          	.insn	4, 0x6c73058b
    80004e56:	c1de057b          	.insn	4, 0xc1de057b
    80004e5a:	6585                	lui	a1,0x1
    80004e5c:	bd05859b          	addiw	a1,a1,-1072 # bd0 <buflen.1+0xb90>
    80004e60:	958a                	add	a1,a1,sp
    80004e62:	e188                	sd	a0,0(a1)
    80004e64:	12843803          	ld	a6,296(s0)
    80004e68:	81a7848b          	.insn	4, 0x81a7848b
    80004e6c:	6505                	lui	a0,0x1
    80004e6e:	9a85051b          	addiw	a0,a0,-1624 # 9a8 <buflen.1+0x968>
    80004e72:	950a                	add	a0,a0,sp
    80004e74:	00053a03          	ld	s4,0(a0)
    80004e78:	6505                	lui	a0,0x1
    80004e7a:	9c85051b          	addiw	a0,a0,-1592 # 9c8 <buflen.1+0x988>
    80004e7e:	950a                	add	a0,a0,sp
    80004e80:	6108                	ld	a0,0(a0)
    80004e82:	6145048b          	.insn	4, 0x6145048b
    80004e86:	6505                	lui	a0,0x1
    80004e88:	9685051b          	addiw	a0,a0,-1688 # 968 <buflen.1+0x928>
    80004e8c:	950a                	add	a0,a0,sp
    80004e8e:	610c                	ld	a1,0(a0)
    80004e90:	00bb848b          	.insn	4, 0x00bb848b
    80004e94:	86ca                	mv	a3,s2
    80004e96:	6505                	lui	a0,0x1
    80004e98:	9585051b          	addiw	a0,a0,-1704 # 958 <buflen.1+0x918>
    80004e9c:	950a                	add	a0,a0,sp
    80004e9e:	00053903          	ld	s2,0(a0)
    80004ea2:	20d9048b          	.insn	4, 0x20d9048b
    80004ea6:	6505                	lui	a0,0x1
    80004ea8:	9805051b          	addiw	a0,a0,-1664 # 980 <buflen.1+0x940>
    80004eac:	950a                	add	a0,a0,sp
    80004eae:	00053083          	ld	ra,0(a0)
    80004eb2:	0900857b          	.insn	4, 0x0900857b
    80004eb6:	6705                	lui	a4,0x1
    80004eb8:	9c87071b          	addiw	a4,a4,-1592 # 9c8 <buflen.1+0x988>
    80004ebc:	970a                	add	a4,a4,sp
    80004ebe:	e308                	sd	a0,0(a4)
    80004ec0:	13043483          	ld	s1,304(s0)
    80004ec4:	85af070b          	.insn	4, 0x85af070b
    80004ec8:	04bb870b          	.insn	4, 0x04bb870b
    80004ecc:	87de                	mv	a5,s7
    80004ece:	24d9070b          	.insn	4, 0x24d9070b
    80004ed2:	4500870b          	.insn	4, 0x4500870b
    80004ed6:	4d44857b          	.insn	4, 0x4d44857b
    80004eda:	6705                	lui	a4,0x1
    80004edc:	9a87071b          	addiw	a4,a4,-1624 # 9a8 <buflen.1+0x968>
    80004ee0:	970a                	add	a4,a4,sp
    80004ee2:	e308                	sd	a0,0(a4)
    80004ee4:	13843b83          	ld	s7,312(s0)
    80004ee8:	08b7878b          	.insn	4, 0x08b7878b
    80004eec:	28d9078b          	.insn	4, 0x28d9078b
    80004ef0:	4900878b          	.insn	4, 0x4900878b
    80004ef4:	8d74857b          	.insn	4, 0x8d74857b
    80004ef8:	6705                	lui	a4,0x1
    80004efa:	9987071b          	addiw	a4,a4,-1640 # 998 <buflen.1+0x958>
    80004efe:	970a                	add	a4,a4,sp
    80004f00:	e308                	sd	a0,0(a4)
    80004f02:	14043783          	ld	a5,320(s0)
    80004f06:	8daa850b          	.insn	4, 0x8daa850b
    80004f0a:	2cd9050b          	.insn	4, 0x2cd9050b
    80004f0e:	4d00850b          	.insn	4, 0x4d00850b
    80004f12:	6d74850b          	.insn	4, 0x6d74850b
    80004f16:	c0b7857b          	.insn	4, 0xc0b7857b
    80004f1a:	6585                	lui	a1,0x1
    80004f1c:	9805859b          	addiw	a1,a1,-1664 # 980 <buflen.1+0x940>
    80004f20:	958a                	add	a1,a1,sp
    80004f22:	e188                	sd	a0,0(a1)
    80004f24:	14843503          	ld	a0,328(s0)
    80004f28:	81af858b          	.insn	4, 0x81af858b
    80004f2c:	6174858b          	.insn	4, 0x6174858b
    80004f30:	00a785fb          	.insn	4, 0x00a785fb
    80004f34:	6705                	lui	a4,0x1
    80004f36:	9687071b          	addiw	a4,a4,-1688 # 968 <buflen.1+0x928>
    80004f3a:	970a                	add	a4,a4,sp
    80004f3c:	e30c                	sd	a1,0(a4)
    80004f3e:	15043583          	ld	a1,336(s0)
    80004f42:	85ad870b          	.insn	4, 0x85ad870b
    80004f46:	6574870b          	.insn	4, 0x6574870b
    80004f4a:	04a7870b          	.insn	4, 0x04a7870b
    80004f4e:	44d5877b          	.insn	4, 0x44d5877b
    80004f52:	6685                	lui	a3,0x1
    80004f54:	9586869b          	addiw	a3,a3,-1704 # 958 <buflen.1+0x918>
    80004f58:	968a                	add	a3,a3,sp
    80004f5a:	e298                	sd	a4,0(a3)
    80004f5c:	4911                	li	s2,4
    80004f5e:	89a9070b          	.insn	4, 0x89a9070b
    80004f62:	08a7870b          	.insn	4, 0x08a7870b
    80004f66:	6685                	lui	a3,0x1
    80004f68:	9106869b          	addiw	a3,a3,-1776 # 910 <buflen.1+0x8d0>
    80004f6c:	968a                	add	a3,a3,sp
    80004f6e:	6284                	ld	s1,0(a3)
    80004f70:	8495877b          	.insn	4, 0x8495877b
    80004f74:	6685                	lui	a3,0x1
    80004f76:	9406869b          	addiw	a3,a3,-1728 # 940 <buflen.1+0x900>
    80004f7a:	968a                	add	a3,a3,sp
    80004f7c:	e298                	sd	a4,0(a3)
    80004f7e:	8dab070b          	.insn	4, 0x8dab070b
    80004f82:	6685                	lui	a3,0x1
    80004f84:	8f06869b          	addiw	a3,a3,-1808 # 8f0 <buflen.1+0x8b0>
    80004f88:	968a                	add	a3,a3,sp
    80004f8a:	6294                	ld	a3,0(a3)
    80004f8c:	4d06870b          	.insn	4, 0x4d06870b
    80004f90:	0ca7870b          	.insn	4, 0x0ca7870b
    80004f94:	c495877b          	.insn	4, 0xc495877b
    80004f98:	6785                	lui	a5,0x1
    80004f9a:	9307879b          	addiw	a5,a5,-1744 # 930 <buflen.1+0x8f0>
    80004f9e:	978a                	add	a5,a5,sp
    80004fa0:	e398                	sd	a4,0(a5)
    80004fa2:	4719                	li	a4,6
    80004fa4:	81a7070b          	.insn	4, 0x81a7070b
    80004fa8:	6705                	lui	a4,0x1
    80004faa:	8c07071b          	addiw	a4,a4,-1856 # 8c0 <buflen.1+0x880>
    80004fae:	970a                	add	a4,a4,sp
    80004fb0:	631c                	ld	a5,0(a4)
    80004fb2:	40f6870b          	.insn	4, 0x40f6870b
    80004fb6:	0495877b          	.insn	4, 0x0495877b
    80004fba:	6805                	lui	a6,0x1
    80004fbc:	9208081b          	addiw	a6,a6,-1760 # 920 <buflen.1+0x8e0>
    80004fc0:	980a                	add	a6,a6,sp
    80004fc2:	00e83023          	sd	a4,0(a6)
    80004fc6:	85af070b          	.insn	4, 0x85af070b
    80004fca:	2495858b          	.insn	4, 0x2495858b
    80004fce:	44f6858b          	.insn	4, 0x44f6858b
    80004fd2:	6585                	lui	a1,0x1
    80004fd4:	8d85859b          	addiw	a1,a1,-1832 # 8d8 <buflen.1+0x898>
    80004fd8:	958a                	add	a1,a1,sp
    80004fda:	6184                	ld	s1,0(a1)
    80004fdc:	4d7485fb          	.insn	4, 0x4d7485fb
    80004fe0:	6705                	lui	a4,0x1
    80004fe2:	9107071b          	addiw	a4,a4,-1776 # 910 <buflen.1+0x8d0>
    80004fe6:	970a                	add	a4,a4,sp
    80004fe8:	e30c                	sd	a1,0(a4)
    80004fea:	48f6858b          	.insn	4, 0x48f6858b
    80004fee:	6585                	lui	a1,0x1
    80004ff0:	8385859b          	addiw	a1,a1,-1992 # 838 <buflen.1+0x7f8>
    80004ff4:	958a                	add	a1,a1,sp
    80004ff6:	6198                	ld	a4,0(a1)
    80004ff8:	8ce485fb          	.insn	4, 0x8ce485fb
    80004ffc:	6805                	lui	a6,0x1
    80004ffe:	9008081b          	addiw	a6,a6,-1792 # 900 <buflen.1+0x8c0>
    80005002:	980a                	add	a6,a6,sp
    80005004:	00b83023          	sd	a1,0(a6)
    80005008:	4805                	li	a6,1
    8000500a:	8da8058b          	.insn	4, 0x8da8058b
    8000500e:	4cf6858b          	.insn	4, 0x4cf6858b
    80005012:	8f3e                	mv	t5,a5
    80005014:	6ce4858b          	.insn	4, 0x6ce4858b
    80005018:	6585                	lui	a1,0x1
    8000501a:	8b05859b          	addiw	a1,a1,-1872 # 8b0 <buflen.1+0x870>
    8000501e:	958a                	add	a1,a1,sp
    80005020:	619c                	ld	a5,0(a1)
    80005022:	c0a7857b          	.insn	4, 0xc0a7857b
    80005026:	6585                	lui	a1,0x1
    80005028:	8f05859b          	addiw	a1,a1,-1808 # 8f0 <buflen.1+0x8b0>
    8000502c:	958a                	add	a1,a1,sp
    8000502e:	e188                	sd	a0,0(a1)
    80005030:	4f89                	li	t6,2
    80005032:	81af850b          	.insn	4, 0x81af850b
    80005036:	60e4850b          	.insn	4, 0x60e4850b
    8000503a:	85a6                	mv	a1,s1
    8000503c:	6505                	lui	a0,0x1
    8000503e:	8585051b          	addiw	a0,a0,-1960 # 858 <buflen.1+0x818>
    80005042:	950a                	add	a0,a0,sp
    80005044:	6104                	ld	s1,0(a0)
    80005046:	0097857b          	.insn	4, 0x0097857b
    8000504a:	6685                	lui	a3,0x1
    8000504c:	8e06869b          	addiw	a3,a3,-1824 # 8e0 <buflen.1+0x8a0>
    80005050:	968a                	add	a3,a3,sp
    80005052:	e288                	sd	a0,0(a3)
    80005054:	85a9050b          	.insn	4, 0x85a9050b
    80005058:	4b91                	li	s7,4
    8000505a:	64e5850b          	.insn	4, 0x64e5850b
    8000505e:	8a3a                	mv	s4,a4
    80005060:	0497850b          	.insn	4, 0x0497850b
    80005064:	6505                	lui	a0,0x1
    80005066:	8985051b          	addiw	a0,a0,-1896 # 898 <buflen.1+0x858>
    8000506a:	950a                	add	a0,a0,sp
    8000506c:	6114                	ld	a3,0(a0)
    8000506e:	6505                	lui	a0,0x1
    80005070:	8905051b          	addiw	a0,a0,-1904 # 890 <buflen.1+0x850>
    80005074:	950a                	add	a0,a0,sp
    80005076:	6118                	ld	a4,0(a0)
    80005078:	44d7057b          	.insn	4, 0x44d7057b
    8000507c:	6585                	lui	a1,0x1
    8000507e:	8d85859b          	addiw	a1,a1,-1832 # 8d8 <buflen.1+0x898>
    80005082:	958a                	add	a1,a1,sp
    80005084:	e188                	sd	a0,0(a1)
    80005086:	89ab050b          	.insn	4, 0x89ab050b
    8000508a:	6505                	lui	a0,0x1
    8000508c:	8705051b          	addiw	a0,a0,-1936 # 870 <buflen.1+0x830>
    80005090:	950a                	add	a0,a0,sp
    80005092:	610c                	ld	a1,0(a0)
    80005094:	49e5850b          	.insn	4, 0x49e5850b
    80005098:	0897850b          	.insn	4, 0x0897850b
    8000509c:	8f3e                	mv	t5,a5
    8000509e:	84d7057b          	.insn	4, 0x84d7057b
    800050a2:	6785                	lui	a5,0x1
    800050a4:	8c07879b          	addiw	a5,a5,-1856 # 8c0 <buflen.1+0x880>
    800050a8:	978a                	add	a5,a5,sp
    800050aa:	e388                	sd	a0,0(a5)
    800050ac:	4919                	li	s2,6
    800050ae:	8da9050b          	.insn	4, 0x8da9050b
    800050b2:	6505                	lui	a0,0x1
    800050b4:	f385051b          	addiw	a0,a0,-200 # f38 <buflen.1+0xef8>
    800050b8:	950a                	add	a0,a0,sp
    800050ba:	611c                	ld	a5,0(a0)
    800050bc:	4cf5850b          	.insn	4, 0x4cf5850b
    800050c0:	0c9f050b          	.insn	4, 0x0c9f050b
    800050c4:	8aa6                	mv	s5,s1
    800050c6:	c4d7057b          	.insn	4, 0xc4d7057b
    800050ca:	84b6                	mv	s1,a3
    800050cc:	6685                	lui	a3,0x1
    800050ce:	8b06869b          	addiw	a3,a3,-1872 # 8b0 <buflen.1+0x870>
    800050d2:	968a                	add	a3,a3,sp
    800050d4:	e288                	sd	a0,0(a3)
    800050d6:	4f1d                	li	t5,7
    800050d8:	81af050b          	.insn	4, 0x81af050b
    800050dc:	40f5850b          	.insn	4, 0x40f5850b
    800050e0:	6505                	lui	a0,0x1
    800050e2:	f405051b          	addiw	a0,a0,-192 # f40 <buflen.1+0xf00>
    800050e6:	950a                	add	a0,a0,sp
    800050e8:	6114                	ld	a3,0(a0)
    800050ea:	6146850b          	.insn	4, 0x6146850b
    800050ee:	0497057b          	.insn	4, 0x0497057b
    800050f2:	6705                	lui	a4,0x1
    800050f4:	8987071b          	addiw	a4,a4,-1896 # 898 <buflen.1+0x858>
    800050f8:	970a                	add	a4,a4,sp
    800050fa:	e308                	sd	a0,0(a4)
    800050fc:	44f5850b          	.insn	4, 0x44f5850b
    80005100:	84be                	mv	s1,a5
    80005102:	6505                	lui	a0,0x1
    80005104:	f485051b          	addiw	a0,a0,-184 # f48 <buflen.1+0xf08>
    80005108:	950a                	add	a0,a0,sp
    8000510a:	611c                	ld	a5,0(a0)
    8000510c:	4cf6857b          	.insn	4, 0x4cf6857b
    80005110:	6705                	lui	a4,0x1
    80005112:	8907071b          	addiw	a4,a4,-1904 # 890 <buflen.1+0x850>
    80005116:	970a                	add	a4,a4,sp
    80005118:	e308                	sd	a0,0(a4)
    8000511a:	89a8050b          	.insn	4, 0x89a8050b
    8000511e:	4895850b          	.insn	4, 0x4895850b
    80005122:	68f6850b          	.insn	4, 0x68f6850b
    80005126:	6505                	lui	a0,0x1
    80005128:	f505051b          	addiw	a0,a0,-176 # f50 <buflen.1+0xf10>
    8000512c:	950a                	add	a0,a0,sp
    8000512e:	610c                	ld	a1,0(a0)
    80005130:	8155857b          	.insn	4, 0x8155857b
    80005134:	6705                	lui	a4,0x1
    80005136:	f387071b          	addiw	a4,a4,-200 # f38 <buflen.1+0xef8>
    8000513a:	970a                	add	a4,a4,sp
    8000513c:	e308                	sd	a0,0(a4)
    8000513e:	8daf850b          	.insn	4, 0x8daf850b
    80005142:	4a09                	li	s4,2
    80005144:	6cf6850b          	.insn	4, 0x6cf6850b
    80005148:	84b6                	mv	s1,a3
    8000514a:	6505                	lui	a0,0x1
    8000514c:	f585051b          	addiw	a0,a0,-168 # f58 <buflen.1+0xf18>
    80005150:	950a                	add	a0,a0,sp
    80005152:	6114                	ld	a3,0(a0)
    80005154:	c0d5857b          	.insn	4, 0xc0d5857b
    80005158:	6705                	lui	a4,0x1
    8000515a:	8707071b          	addiw	a4,a4,-1936 # 870 <buflen.1+0x830>
    8000515e:	970a                	add	a4,a4,sp
    80005160:	e308                	sd	a0,0(a4)
    80005162:	81ab850b          	.insn	4, 0x81ab850b
    80005166:	4b11                	li	s6,4
    80005168:	60f4850b          	.insn	4, 0x60f4850b
    8000516c:	00d5850b          	.insn	4, 0x00d5850b
    80005170:	6505                	lui	a0,0x1
    80005172:	f605051b          	addiw	a0,a0,-160 # f60 <buflen.1+0xf20>
    80005176:	950a                	add	a0,a0,sp
    80005178:	00053f83          	ld	t6,0(a0)
    8000517c:	6505                	lui	a0,0x1
    8000517e:	f305051b          	addiw	a0,a0,-208 # f30 <buflen.1+0xef0>
    80005182:	950a                	add	a0,a0,sp
    80005184:	6104                	ld	s1,0(a0)
    80005186:	049f857b          	.insn	4, 0x049f857b
    8000518a:	6705                	lui	a4,0x1
    8000518c:	f407071b          	addiw	a4,a4,-192 # f40 <buflen.1+0xf00>
    80005190:	970a                	add	a4,a4,sp
    80005192:	e308                	sd	a0,0(a4)
    80005194:	85a9050b          	.insn	4, 0x85a9050b
    80005198:	04d5850b          	.insn	4, 0x04d5850b
    8000519c:	249f850b          	.insn	4, 0x249f850b
    800051a0:	76813803          	ld	a6,1896(sp)
    800051a4:	7b813703          	ld	a4,1976(sp)
    800051a8:	48e8057b          	.insn	4, 0x48e8057b
    800051ac:	6905                	lui	s2,0x1
    800051ae:	8589091b          	addiw	s2,s2,-1960 # 858 <buflen.1+0x818>
    800051b2:	990a                	add	s2,s2,sp
    800051b4:	00a93023          	sd	a0,0(s2)
    800051b8:	89af050b          	.insn	4, 0x89af050b
    800051bc:	491d                	li	s2,7
    800051be:	08d5850b          	.insn	4, 0x08d5850b
    800051c2:	289f850b          	.insn	4, 0x289f850b
    800051c6:	8f26                	mv	t5,s1
    800051c8:	84fe                	mv	s1,t6
    800051ca:	48e8050b          	.insn	4, 0x48e8050b
    800051ce:	7c813583          	ld	a1,1992(sp)
    800051d2:	8cf5857b          	.insn	4, 0x8cf5857b
    800051d6:	6785                	lui	a5,0x1
    800051d8:	f507879b          	addiw	a5,a5,-176 # f50 <buflen.1+0xf10>
    800051dc:	978a                	add	a5,a5,sp
    800051de:	e388                	sd	a0,0(a5)
    800051e0:	2def850b          	.insn	4, 0x2def850b
    800051e4:	4ce8050b          	.insn	4, 0x4ce8050b
    800051e8:	84ba                	mv	s1,a4
    800051ea:	87c2                	mv	a5,a6
    800051ec:	79813703          	ld	a4,1944(sp)
    800051f0:	cce5857b          	.insn	4, 0xcce5857b
    800051f4:	6785                	lui	a5,0x1
    800051f6:	f487879b          	addiw	a5,a5,-184 # f48 <buflen.1+0xf08>
    800051fa:	978a                	add	a5,a5,sp
    800051fc:	e388                	sd	a0,0(a5)
    800051fe:	4f05                	li	t5,1
    80005200:	81af050b          	.insn	4, 0x81af050b
    80005204:	4098050b          	.insn	4, 0x4098050b
    80005208:	60e5850b          	.insn	4, 0x60e5850b
    8000520c:	6505                	lui	a0,0x1
    8000520e:	8305051b          	addiw	a0,a0,-2000 # 830 <buflen.1+0x7f0>
    80005212:	950a                	add	a0,a0,sp
    80005214:	611c                	ld	a5,0(a0)
    80005216:	00d7857b          	.insn	4, 0x00d7857b
    8000521a:	6685                	lui	a3,0x1
    8000521c:	f306869b          	addiw	a3,a3,-208 # f30 <buflen.1+0xef0>
    80005220:	968a                	add	a3,a3,sp
    80005222:	e288                	sd	a0,0(a3)
    80005224:	85aa050b          	.insn	4, 0x85aa050b
    80005228:	64e5850b          	.insn	4, 0x64e5850b
    8000522c:	7e813803          	ld	a6,2024(sp)
    80005230:	4107857b          	.insn	4, 0x4107857b
    80005234:	6585                	lui	a1,0x1
    80005236:	8305859b          	addiw	a1,a1,-2000 # 830 <buflen.1+0x7f0>
    8000523a:	958a                	add	a1,a1,sp
    8000523c:	e188                	sd	a0,0(a1)
    8000523e:	24043503          	ld	a0,576(s0)
    80005242:	89af058b          	.insn	4, 0x89af058b
    80005246:	4b85                	li	s7,1
    80005248:	6585                	lui	a1,0x1
    8000524a:	8005859b          	addiw	a1,a1,-2048 # 800 <buflen.1+0x7c0>
    8000524e:	958a                	add	a1,a1,sp
    80005250:	619c                	ld	a5,0(a1)
    80005252:	6585                	lui	a1,0x1
    80005254:	8105859b          	addiw	a1,a1,-2032 # 810 <buflen.1+0x7d0>
    80005258:	958a                	add	a1,a1,sp
    8000525a:	6198                	ld	a4,0(a1)
    8000525c:	28f7058b          	.insn	4, 0x28f7058b
    80005260:	498c858b          	.insn	4, 0x498c858b
    80005264:	7d013683          	ld	a3,2000(sp)
    80005268:	7d813483          	ld	s1,2008(sp)
    8000526c:	68d4858b          	.insn	4, 0x68d4858b
    80005270:	810505fb          	.insn	4, 0x810505fb
    80005274:	6805                	lui	a6,0x1
    80005276:	8388081b          	addiw	a6,a6,-1992 # 838 <buflen.1+0x7f8>
    8000527a:	980a                	add	a6,a6,sp
    8000527c:	00b83023          	sd	a1,0(a6)
    80005280:	24843a83          	ld	s5,584(s0)
    80005284:	2cf7070b          	.insn	4, 0x2cf7070b
    80005288:	8f3e                	mv	t5,a5
    8000528a:	4d8c870b          	.insn	4, 0x4d8c870b
    8000528e:	6cd4870b          	.insn	4, 0x6cd4870b
    80005292:	c155077b          	.insn	4, 0xc155077b
    80005296:	6585                	lui	a1,0x1
    80005298:	8105859b          	addiw	a1,a1,-2032 # 810 <buflen.1+0x7d0>
    8000529c:	958a                	add	a1,a1,sp
    8000529e:	e198                	sd	a4,0(a1)
    800052a0:	25043703          	ld	a4,592(s0)
    800052a4:	480d                	li	a6,3
    800052a6:	81a8078b          	.insn	4, 0x81a8078b
    800052aa:	418c878b          	.insn	4, 0x418c878b
    800052ae:	60d4878b          	.insn	4, 0x60d4878b
    800052b2:	85a6                	mv	a1,s1
    800052b4:	0155078b          	.insn	4, 0x0155078b
    800052b8:	05e707fb          	.insn	4, 0x05e707fb
    800052bc:	6f05                	lui	t5,0x1
    800052be:	800f0f1b          	addiw	t5,t5,-2048 # 800 <buflen.1+0x7c0>
    800052c2:	9f0a                	add	t5,t5,sp
    800052c4:	00ff3023          	sd	a5,0(t5)
    800052c8:	25843783          	ld	a5,600(s0)
    800052cc:	85ab048b          	.insn	4, 0x85ab048b
    800052d0:	458c848b          	.insn	4, 0x458c848b
    800052d4:	64d5848b          	.insn	4, 0x64d5848b
    800052d8:	8fb6                	mv	t6,a3
    800052da:	0555048b          	.insn	4, 0x0555048b
    800052de:	44f704fb          	.insn	4, 0x44f704fb
    800052e2:	7e913423          	sd	s1,2024(sp)
    800052e6:	4095                	li	ra,5
    800052e8:	89a0848b          	.insn	4, 0x89a0848b
    800052ec:	7b013683          	ld	a3,1968(sp)
    800052f0:	4986848b          	.insn	4, 0x4986848b
    800052f4:	0955050b          	.insn	4, 0x0955050b
    800052f8:	84f7057b          	.insn	4, 0x84f7057b
    800052fc:	7ca13c23          	sd	a0,2008(sp)
    80005300:	4f19                	li	t5,6
    80005302:	8daf050b          	.insn	4, 0x8daf050b
    80005306:	78813483          	ld	s1,1928(sp)
    8000530a:	4c96850b          	.insn	4, 0x4c96850b
    8000530e:	c4f7057b          	.insn	4, 0xc4f7057b
    80005312:	7aa13c23          	sd	a0,1976(sp)
    80005316:	81a9050b          	.insn	4, 0x81a9050b
    8000531a:	4096850b          	.insn	4, 0x4096850b
    8000531e:	7a813583          	ld	a1,1960(sp)
    80005322:	61f5850b          	.insn	4, 0x61f5850b
    80005326:	04f7057b          	.insn	4, 0x04f7057b
    8000532a:	7ca13823          	sd	a0,2000(sp)
    8000532e:	4496850b          	.insn	4, 0x4496850b
    80005332:	8736                	mv	a4,a3
    80005334:	73013683          	ld	a3,1840(sp)
    80005338:	4cd5857b          	.insn	4, 0x4cd5857b
    8000533c:	7ca13423          	sd	a0,1992(sp)
    80005340:	89ab850b          	.insn	4, 0x89ab850b
    80005344:	4897050b          	.insn	4, 0x4897050b
    80005348:	8fa6                	mv	t6,s1
    8000534a:	68d5850b          	.insn	4, 0x68d5850b
    8000534e:	77813703          	ld	a4,1912(sp)
    80005352:	8157057b          	.insn	4, 0x8157057b
    80005356:	7aa13823          	sd	a0,1968(sp)
    8000535a:	8daa050b          	.insn	4, 0x8daa050b
    8000535e:	6cd5850b          	.insn	4, 0x6cd5850b
    80005362:	74813483          	ld	s1,1864(sp)
    80005366:	c097057b          	.insn	4, 0xc097057b
    8000536a:	78a13c23          	sd	a0,1944(sp)
    8000536e:	81a8050b          	.insn	4, 0x81a8050b
    80005372:	4c8d                	li	s9,3
    80005374:	60d5850b          	.insn	4, 0x60d5850b
    80005378:	8c36                	mv	s8,a3
    8000537a:	0097050b          	.insn	4, 0x0097050b
    8000537e:	76013d83          	ld	s11,1888(sp)
    80005382:	04fd857b          	.insn	4, 0x04fd857b
    80005386:	7aa13423          	sd	a0,1960(sp)
    8000538a:	2a043503          	ld	a0,672(s0)
    8000538e:	85a0858b          	.insn	4, 0x85a0858b
    80005392:	4095                	li	ra,5
    80005394:	0497058b          	.insn	4, 0x0497058b
    80005398:	87ba                	mv	a5,a4
    8000539a:	73813683          	ld	a3,1848(sp)
    8000539e:	24dd858b          	.insn	4, 0x24dd858b
    800053a2:	49f505fb          	.insn	4, 0x49f505fb
    800053a6:	78b13423          	sd	a1,1928(sp)
    800053aa:	2a843803          	ld	a6,680(s0)
    800053ae:	89af070b          	.insn	4, 0x89af070b
    800053b2:	4a99                	li	s5,6
    800053b4:	0897870b          	.insn	4, 0x0897870b
    800053b8:	8fa6                	mv	t6,s1
    800053ba:	28dd870b          	.insn	4, 0x28dd870b
    800053be:	890505fb          	.insn	4, 0x890505fb
    800053c2:	76b13423          	sd	a1,1896(sp)
    800053c6:	2b043703          	ld	a4,688(s0)
    800053ca:	8da9078b          	.insn	4, 0x8da9078b
    800053ce:	2cdd878b          	.insn	4, 0x2cdd878b
    800053d2:	4d05078b          	.insn	4, 0x4d05078b
    800053d6:	cd8705fb          	.insn	4, 0xcd8705fb
    800053da:	76b13c23          	sd	a1,1912(sp)
    800053de:	2b843f03          	ld	t5,696(s0)
    800053e2:	20dd848b          	.insn	4, 0x20dd848b
    800053e6:	4105048b          	.insn	4, 0x4105048b
    800053ea:	0de705fb          	.insn	4, 0x0de705fb
    800053ee:	76b13023          	sd	a1,1888(sp)
    800053f2:	2c043483          	ld	s1,704(s0)
    800053f6:	85ab858b          	.insn	4, 0x85ab858b
    800053fa:	4505050b          	.insn	4, 0x4505050b
    800053fe:	65e7050b          	.insn	4, 0x65e7050b
    80005402:	41f4857b          	.insn	4, 0x41f4857b
    80005406:	74a13423          	sd	a0,1864(sp)
    8000540a:	2c843f83          	ld	t6,712(s0)
    8000540e:	89aa058b          	.insn	4, 0x89aa058b
    80005412:	69e7058b          	.insn	4, 0x69e7058b
    80005416:	81f4857b          	.insn	4, 0x81f4857b
    8000541a:	72a13823          	sd	a0,1840(sp)
    8000541e:	2d043583          	ld	a1,720(s0)
    80005422:	8dac878b          	.insn	4, 0x8dac878b
    80005426:	6de7070b          	.insn	4, 0x6de7070b
    8000542a:	0df4870b          	.insn	4, 0x0df4870b
    8000542e:	c4d5857b          	.insn	4, 0xc4d5857b
    80005432:	72a13c23          	sd	a0,1848(sp)
    80005436:	2d843703          	ld	a4,728(s0)
    8000543a:	81ab078b          	.insn	4, 0x81ab078b
    8000543e:	01f4878b          	.insn	4, 0x01f4878b
    80005442:	04e5857b          	.insn	4, 0x04e5857b
    80005446:	72a13023          	sd	a0,1824(sp)
    8000544a:	2e043783          	ld	a5,736(s0)
    8000544e:	85a0850b          	.insn	4, 0x85a0850b
    80005452:	05f4850b          	.insn	4, 0x05f4850b
    80005456:	24e5850b          	.insn	4, 0x24e5850b
    8000545a:	4907857b          	.insn	4, 0x4907857b
    8000545e:	70a13823          	sd	a0,1808(sp)
    80005462:	2e843803          	ld	a6,744(s0)
    80005466:	89aa848b          	.insn	4, 0x89aa848b
    8000546a:	28e5848b          	.insn	4, 0x28e5848b
    8000546e:	8907857b          	.insn	4, 0x8907857b
    80005472:	70a13023          	sd	a0,1792(sp)
    80005476:	2f043483          	ld	s1,752(s0)
    8000547a:	8da9050b          	.insn	4, 0x8da9050b
    8000547e:	2ce5850b          	.insn	4, 0x2ce5850b
    80005482:	4d07850b          	.insn	4, 0x4d07850b
    80005486:	cde4857b          	.insn	4, 0xcde4857b
    8000548a:	6ea13c23          	sd	a0,1784(sp)
    8000548e:	2f843f03          	ld	t5,760(s0)
    80005492:	4107858b          	.insn	4, 0x4107858b
    80005496:	0de4857b          	.insn	4, 0x0de4857b
    8000549a:	6ea13023          	sd	a0,1760(sp)
    8000549e:	30043583          	ld	a1,768(s0)
    800054a2:	85ab850b          	.insn	4, 0x85ab850b
    800054a6:	4507850b          	.insn	4, 0x4507850b
    800054aa:	65e4850b          	.insn	4, 0x65e4850b
    800054ae:	41f5857b          	.insn	4, 0x41f5857b
    800054b2:	6ca13823          	sd	a0,1744(sp)
    800054b6:	30843f83          	ld	t6,776(s0)
    800054ba:	89aa078b          	.insn	4, 0x89aa078b
    800054be:	69e4878b          	.insn	4, 0x69e4878b
    800054c2:	81f5857b          	.insn	4, 0x81f5857b
    800054c6:	6aa13c23          	sd	a0,1720(sp)
    800054ca:	31043783          	ld	a5,784(s0)
    800054ce:	8dac850b          	.insn	4, 0x8dac850b
    800054d2:	6de4850b          	.insn	4, 0x6de4850b
    800054d6:	0df5850b          	.insn	4, 0x0df5850b
    800054da:	c4e7857b          	.insn	4, 0xc4e7857b
    800054de:	6ca13023          	sd	a0,1728(sp)
    800054e2:	25063a03          	ld	s4,592(a2)
    800054e6:	81ac850b          	.insn	4, 0x81ac850b
    800054ea:	4138850b          	.insn	4, 0x4138850b
    800054ee:	6073050b          	.insn	4, 0x6073050b
    800054f2:	01de050b          	.insn	4, 0x01de050b
    800054f6:	045a057b          	.insn	4, 0x045a057b
    800054fa:	6685                	lui	a3,0x1
    800054fc:	f606869b          	addiw	a3,a3,-160 # f60 <buflen.1+0xf20>
    80005500:	968a                	add	a3,a3,sp
    80005502:	e288                	sd	a0,0(a3)
    80005504:	31843283          	ld	t0,792(s0)
    80005508:	85ab070b          	.insn	4, 0x85ab070b
    8000550c:	05f5870b          	.insn	4, 0x05f5870b
    80005510:	4457877b          	.insn	4, 0x4457877b
    80005514:	68e13c23          	sd	a4,1688(sp)
    80005518:	32043703          	ld	a4,800(s0)
    8000551c:	89a0848b          	.insn	4, 0x89a0848b
    80005520:	2857848b          	.insn	4, 0x2857848b
    80005524:	890704fb          	.insn	4, 0x890704fb
    80005528:	68913023          	sd	s1,1664(sp)
    8000552c:	8daa848b          	.insn	4, 0x8daa848b
    80005530:	2c57848b          	.insn	4, 0x2c57848b
    80005534:	65813503          	ld	a0,1624(sp)
    80005538:	c8a704fb          	.insn	4, 0xc8a704fb
    8000553c:	66913c23          	sd	s1,1656(sp)
    80005540:	481d                	li	a6,7
    80005542:	81a8048b          	.insn	4, 0x81a8048b
    80005546:	64013683          	ld	a3,1600(sp)
    8000554a:	61e6848b          	.insn	4, 0x61e6848b
    8000554e:	01f5858b          	.insn	4, 0x01f5858b
    80005552:	2057858b          	.insn	4, 0x2057858b
    80005556:	08a705fb          	.insn	4, 0x08a705fb
    8000555a:	66b13023          	sd	a1,1632(sp)
    8000555e:	62013783          	ld	a5,1568(sp)
    80005562:	64f6858b          	.insn	4, 0x64f6858b
    80005566:	48a705fb          	.insn	4, 0x48a705fb
    8000556a:	66b13823          	sd	a1,1648(sp)
    8000556e:	89ab858b          	.insn	4, 0x89ab858b
    80005572:	48a7058b          	.insn	4, 0x48a7058b
    80005576:	68f6858b          	.insn	4, 0x68f6858b
    8000557a:	63013703          	ld	a4,1584(sp)
    8000557e:	81f705fb          	.insn	4, 0x81f705fb
    80005582:	64b13c23          	sd	a1,1624(sp)
    80005586:	4f09                	li	t5,2
    80005588:	8daf058b          	.insn	4, 0x8daf058b
    8000558c:	6cf6858b          	.insn	4, 0x6cf6858b
    80005590:	84b6                	mv	s1,a3
    80005592:	5f013683          	ld	a3,1520(sp)
    80005596:	c0d705fb          	.insn	4, 0xc0d705fb
    8000559a:	64b13423          	sd	a1,1608(sp)
    8000559e:	81ac858b          	.insn	4, 0x81ac858b
    800055a2:	60f4858b          	.insn	4, 0x60f4858b
    800055a6:	00d7058b          	.insn	4, 0x00d7058b
    800055aa:	61813483          	ld	s1,1560(sp)
    800055ae:	0454857b          	.insn	4, 0x0454857b
    800055b2:	62a13c23          	sd	a0,1592(sp)
    800055b6:	04d7050b          	.insn	4, 0x04d7050b
    800055ba:	82ba                	mv	t0,a4
    800055bc:	5e013703          	ld	a4,1504(sp)
    800055c0:	44e4857b          	.insn	4, 0x44e4857b
    800055c4:	64a13023          	sd	a0,1600(sp)
    800055c8:	36843f83          	ld	t6,872(s0)
    800055cc:	89aa858b          	.insn	4, 0x89aa858b
    800055d0:	08d2858b          	.insn	4, 0x08d2858b
    800055d4:	28e4858b          	.insn	4, 0x28e4858b
    800055d8:	61013903          	ld	s2,1552(sp)
    800055dc:	89f905fb          	.insn	4, 0x89f905fb
    800055e0:	62b13823          	sd	a1,1584(sp)
    800055e4:	8da8058b          	.insn	4, 0x8da8058b
    800055e8:	429d                	li	t0,7
    800055ea:	2ce4858b          	.insn	4, 0x2ce4858b
    800055ee:	7512                	ld	a0,288(sp)
    800055f0:	6cf5058b          	.insn	4, 0x6cf5058b
    800055f4:	c9f905fb          	.insn	4, 0xc9f905fb
    800055f8:	62b13023          	sd	a1,1568(sp)
    800055fc:	20e4858b          	.insn	4, 0x20e4858b
    80005600:	8b3a                	mv	s6,a4
    80005602:	5b813703          	ld	a4,1464(sp)
    80005606:	60e5058b          	.insn	4, 0x60e5058b
    8000560a:	09f905fb          	.insn	4, 0x09f905fb
    8000560e:	87ca                	mv	a5,s2
    80005610:	60b13c23          	sd	a1,1560(sp)
    80005614:	85ab858b          	.insn	4, 0x85ab858b
    80005618:	64e5058b          	.insn	4, 0x64e5058b
    8000561c:	8daa                	mv	s11,a0
    8000561e:	893a                	mv	s2,a4
    80005620:	5c813483          	ld	s1,1480(sp)
    80005624:	04d4858b          	.insn	4, 0x04d4858b
    80005628:	49f785fb          	.insn	4, 0x49f785fb
    8000562c:	60b13823          	sd	a1,1552(sp)
    80005630:	25863803          	ld	a6,600(a2)
    80005634:	4591                	li	a1,4
    80005636:	89a5870b          	.insn	4, 0x89a5870b
    8000563a:	4938870b          	.insn	4, 0x4938870b
    8000563e:	6873070b          	.insn	4, 0x6873070b
    80005642:	09de070b          	.insn	4, 0x09de070b
    80005646:	850a077b          	.insn	4, 0x850a077b
    8000564a:	6685                	lui	a3,0x1
    8000564c:	f586869b          	addiw	a3,a3,-168 # f58 <buflen.1+0xf18>
    80005650:	968a                	add	a3,a3,sp
    80005652:	e298                	sd	a4,0(a3)
    80005654:	8daf070b          	.insn	4, 0x8daf070b
    80005658:	4c09                	li	s8,2
    8000565a:	6d25070b          	.insn	4, 0x6d25070b
    8000565e:	59813503          	ld	a0,1432(sp)
    80005662:	c0a4877b          	.insn	4, 0xc0a4877b
    80005666:	5ee13823          	sd	a4,1520(sp)
    8000566a:	00a4870b          	.insn	4, 0x00a4870b
    8000566e:	5b013783          	ld	a5,1456(sp)
    80005672:	0567877b          	.insn	4, 0x0567877b
    80005676:	5ee13023          	sd	a4,1504(sp)
    8000567a:	85a5870b          	.insn	4, 0x85a5870b
    8000567e:	04a4870b          	.insn	4, 0x04a4870b
    80005682:	66f6                	ld	a3,344(sp)
    80005684:	44d785fb          	.insn	4, 0x44d785fb
    80005688:	5cb13823          	sd	a1,1488(sp)
    8000568c:	89a0870b          	.insn	4, 0x89a0870b
    80005690:	692d870b          	.insn	4, 0x692d870b
    80005694:	08a4870b          	.insn	4, 0x08a4870b
    80005698:	88aa                	mv	a7,a0
    8000569a:	28d7870b          	.insn	4, 0x28d7870b
    8000569e:	59013483          	ld	s1,1424(sp)
    800056a2:	89f4857b          	.insn	4, 0x89f4857b
    800056a6:	5ca13423          	sd	a0,1480(sp)
    800056aa:	8da2850b          	.insn	4, 0x8da2850b
    800056ae:	2cd7850b          	.insn	4, 0x2cd7850b
    800056b2:	873e                	mv	a4,a5
    800056b4:	56813583          	ld	a1,1384(sp)
    800056b8:	4cb4850b          	.insn	4, 0x4cb4850b
    800056bc:	58013783          	ld	a5,1408(sp)
    800056c0:	cd27857b          	.insn	4, 0xcd27857b
    800056c4:	5aa13c23          	sd	a0,1464(sp)
    800056c8:	20d7050b          	.insn	4, 0x20d7050b
    800056cc:	82b6                	mv	t0,a3
    800056ce:	40b4850b          	.insn	4, 0x40b4850b
    800056d2:	6756                	ld	a4,336(sp)
    800056d4:	0ce7857b          	.insn	4, 0x0ce7857b
    800056d8:	5aa13823          	sd	a0,1456(sp)
    800056dc:	4f85                	li	t6,1
    800056de:	85af850b          	.insn	4, 0x85af850b
    800056e2:	44b4850b          	.insn	4, 0x44b4850b
    800056e6:	64e7850b          	.insn	4, 0x64e7850b
    800056ea:	4c813683          	ld	a3,1224(sp)
    800056ee:	4116857b          	.insn	4, 0x4116857b
    800056f2:	58a13c23          	sd	a0,1432(sp)
    800056f6:	89ac850b          	.insn	4, 0x89ac850b
    800056fa:	48b4850b          	.insn	4, 0x48b4850b
    800056fe:	68e7850b          	.insn	4, 0x68e7850b
    80005702:	8f3a                	mv	t5,a4
    80005704:	873e                	mv	a4,a5
    80005706:	57013783          	ld	a5,1392(sp)
    8000570a:	08f6850b          	.insn	4, 0x08f6850b
    8000570e:	4d013483          	ld	s1,1232(sp)
    80005712:	8454857b          	.insn	4, 0x8454857b
    80005716:	58a13823          	sd	a0,1424(sp)
    8000571a:	4891                	li	a7,4
    8000571c:	8da8850b          	.insn	4, 0x8da8850b
    80005720:	6de7050b          	.insn	4, 0x6de7050b
    80005724:	0cf6850b          	.insn	4, 0x0cf6850b
    80005728:	54013703          	ld	a4,1344(sp)
    8000572c:	c4e4857b          	.insn	4, 0xc4e4857b
    80005730:	58a13023          	sd	a0,1408(sp)
    80005734:	81a0850b          	.insn	4, 0x81a0850b
    80005738:	00f6850b          	.insn	4, 0x00f6850b
    8000573c:	20e4850b          	.insn	4, 0x20e4850b
    80005740:	54813283          	ld	t0,1352(sp)
    80005744:	08b2857b          	.insn	4, 0x08b2857b
    80005748:	56a13423          	sd	a0,1384(sp)
    8000574c:	85aa850b          	.insn	4, 0x85aa850b
    80005750:	04f6850b          	.insn	4, 0x04f6850b
    80005754:	24e4850b          	.insn	4, 0x24e4850b
    80005758:	56013583          	ld	a1,1376(sp)
    8000575c:	48b2857b          	.insn	4, 0x48b2857b
    80005760:	56a13823          	sd	a0,1392(sp)
    80005764:	3f843503          	ld	a0,1016(s0)
    80005768:	28e4870b          	.insn	4, 0x28e4870b
    8000576c:	48b2870b          	.insn	4, 0x48b2870b
    80005770:	5a813583          	ld	a1,1448(sp)
    80005774:	8ca5857b          	.insn	4, 0x8ca5857b
    80005778:	56a13023          	sd	a0,1376(sp)
    8000577c:	6208                	ld	a0,0(a2)
    8000577e:	00863283          	ld	t0,8(a2)
    80005782:	01063f03          	ld	t5,16(a2)
    80005786:	4e813583          	ld	a1,1256(sp)
    8000578a:	51813703          	ld	a4,1304(sp)
    8000578e:	4cb7048b          	.insn	4, 0x4cb7048b
    80005792:	4e013403          	ld	s0,1248(sp)
    80005796:	50813783          	ld	a5,1288(sp)
    8000579a:	6c87848b          	.insn	4, 0x6c87848b
    8000579e:	0c55050b          	.insn	4, 0x0c55050b
    800057a2:	52813483          	ld	s1,1320(sp)
    800057a6:	c49f057b          	.insn	4, 0xc49f057b
    800057aa:	54a13423          	sd	a0,1352(sp)
    800057ae:	81af850b          	.insn	4, 0x81af850b
    800057b2:	4b85                	li	s7,1
    800057b4:	40b7050b          	.insn	4, 0x40b7050b
    800057b8:	6087850b          	.insn	4, 0x6087850b
    800057bc:	50013683          	ld	a3,1280(sp)
    800057c0:	0056850b          	.insn	4, 0x0056850b
    800057c4:	049f057b          	.insn	4, 0x049f057b
    800057c8:	8fa6                	mv	t6,s1
    800057ca:	54a13023          	sd	a0,1344(sp)
    800057ce:	85ac050b          	.insn	4, 0x85ac050b
    800057d2:	44b7050b          	.insn	4, 0x44b7050b
    800057d6:	82ba                	mv	t0,a4
    800057d8:	6487850b          	.insn	4, 0x6487850b
    800057dc:	5d813483          	ld	s1,1496(sp)
    800057e0:	0496850b          	.insn	4, 0x0496850b
    800057e4:	45ff057b          	.insn	4, 0x45ff057b
    800057e8:	52a13423          	sd	a0,1320(sp)
    800057ec:	05863f03          	ld	t5,88(a2)
    800057f0:	89a8870b          	.insn	4, 0x89a8870b
    800057f4:	4f91                	li	t6,4
    800057f6:	48b2870b          	.insn	4, 0x48b2870b
    800057fa:	88ae                	mv	a7,a1
    800057fc:	6887870b          	.insn	4, 0x6887870b
    80005800:	0896870b          	.insn	4, 0x0896870b
    80005804:	60013783          	ld	a5,1536(sp)
    80005808:	85e785fb          	.insn	4, 0x85e785fb
    8000580c:	50b13c23          	sd	a1,1304(sp)
    80005810:	4295                	li	t0,5
    80005812:	8da2870b          	.insn	4, 0x8da2870b
    80005816:	0c96870b          	.insn	4, 0x0c96870b
    8000581a:	65b6                	ld	a1,328(sp)
    8000581c:	4d15870b          	.insn	4, 0x4d15870b
    80005820:	c5e7877b          	.insn	4, 0xc5e7877b
    80005824:	50e13423          	sd	a4,1288(sp)
    80005828:	81aa870b          	.insn	4, 0x81aa870b
    8000582c:	0096870b          	.insn	4, 0x0096870b
    80005830:	7552                	ld	a0,304(sp)
    80005832:	40a5870b          	.insn	4, 0x40a5870b
    80005836:	05e7877b          	.insn	4, 0x05e7877b
    8000583a:	50e13023          	sd	a4,1280(sp)
    8000583e:	489d                	li	a7,7
    80005840:	85a8870b          	.insn	4, 0x85a8870b
    80005844:	44a5870b          	.insn	4, 0x44a5870b
    80005848:	76f2                	ld	a3,312(sp)
    8000584a:	6486870b          	.insn	4, 0x6486870b
    8000584e:	45e7877b          	.insn	4, 0x45e7877b
    80005852:	4ee13423          	sd	a4,1256(sp)
    80005856:	48a5870b          	.insn	4, 0x48a5870b
    8000585a:	77b2                	ld	a5,296(sp)
    8000585c:	8cf6877b          	.insn	4, 0x8cf6877b
    80005860:	4ee13023          	sd	a4,1248(sp)
    80005864:	8dab870b          	.insn	4, 0x8dab870b
    80005868:	4ca5870b          	.insn	4, 0x4ca5870b
    8000586c:	6cf6870b          	.insn	4, 0x6cf6870b
    80005870:	6416                	ld	s0,320(sp)
    80005872:	c094077b          	.insn	4, 0xc094077b
    80005876:	4ce13823          	sd	a4,1232(sp)
    8000587a:	81ac070b          	.insn	4, 0x81ac070b
    8000587e:	60f6870b          	.insn	4, 0x60f6870b
    80005882:	6572                	ld	a0,280(sp)
    80005884:	00a4077b          	.insn	4, 0x00a4077b
    80005888:	4ce13423          	sd	a4,1224(sp)
    8000588c:	85ac870b          	.insn	4, 0x85ac870b
    80005890:	64f6870b          	.insn	4, 0x64f6870b
    80005894:	04a4070b          	.insn	4, 0x04a4070b
    80005898:	4b813503          	ld	a0,1208(sp)
    8000589c:	45e5057b          	.insn	4, 0x45e5057b
    800058a0:	4aa13c23          	sd	a0,1208(sp)
    800058a4:	26063703          	ld	a4,608(a2)
    800058a8:	89a2850b          	.insn	4, 0x89a2850b
    800058ac:	4695                	li	a3,5
    800058ae:	6873050b          	.insn	4, 0x6873050b
    800058b2:	09de050b          	.insn	4, 0x09de050b
    800058b6:	290a050b          	.insn	4, 0x290a050b
    800058ba:	8937057b          	.insn	4, 0x8937057b
    800058be:	60a13023          	sd	a0,1536(sp)
    800058c2:	26863283          	ld	t0,616(a2)
    800058c6:	8daa850b          	.insn	4, 0x8daa850b
    800058ca:	6c73050b          	.insn	4, 0x6c73050b
    800058ce:	0dde050b          	.insn	4, 0x0dde050b
    800058d2:	2d0a050b          	.insn	4, 0x2d0a050b
    800058d6:	c857057b          	.insn	4, 0xc857057b
    800058da:	5ca13c23          	sd	a0,1496(sp)
    800058de:	27063783          	ld	a5,624(a2)
    800058e2:	81a8850b          	.insn	4, 0x81a8850b
    800058e6:	491d                	li	s2,7
    800058e8:	01de050b          	.insn	4, 0x01de050b
    800058ec:	210a050b          	.insn	4, 0x210a050b
    800058f0:	4057050b          	.insn	4, 0x4057050b
    800058f4:	0c77857b          	.insn	4, 0x0c77857b
    800058f8:	5aa13423          	sd	a0,1448(sp)
    800058fc:	6505                	lui	a0,0x1
    800058fe:	fa05051b          	addiw	a0,a0,-96 # fa0 <buflen.1+0xf60>
    80005902:	950a                	add	a0,a0,sp
    80005904:	6108                	ld	a0,0(a0)
    80005906:	3c800393          	li	t2,968
    8000590a:	02750533          	mul	a0,a0,t2
    8000590e:	6f62                	ld	t5,24(sp)
    80005910:	00af09b3          	add	s3,t5,a0
    80005914:	6505                	lui	a0,0x1
    80005916:	bc85051b          	addiw	a0,a0,-1080 # bc8 <buflen.1+0xb88>
    8000591a:	950a                	add	a0,a0,sp
    8000591c:	6108                	ld	a0,0(a0)
    8000591e:	00a9b023          	sd	a0,0(s3)
    80005922:	6505                	lui	a0,0x1
    80005924:	bc05051b          	addiw	a0,a0,-1088 # bc0 <buflen.1+0xb80>
    80005928:	950a                	add	a0,a0,sp
    8000592a:	6108                	ld	a0,0(a0)
    8000592c:	00a9b423          	sd	a0,8(s3)
    80005930:	27863883          	ld	a7,632(a2)
    80005934:	05de048b          	.insn	4, 0x05de048b
    80005938:	250a048b          	.insn	4, 0x250a048b
    8000593c:	4457048b          	.insn	4, 0x4457048b
    80005940:	4d17857b          	.insn	4, 0x4d17857b
    80005944:	6585                	lui	a1,0x1
    80005946:	bc85859b          	addiw	a1,a1,-1080 # bc8 <buflen.1+0xb88>
    8000594a:	958a                	add	a1,a1,sp
    8000594c:	e188                	sd	a0,0(a1)
    8000594e:	6505                	lui	a0,0x1
    80005950:	bb85051b          	addiw	a0,a0,-1096 # bb8 <buflen.1+0xb78>
    80005954:	950a                	add	a0,a0,sp
    80005956:	6108                	ld	a0,0(a0)
    80005958:	00a9b823          	sd	a0,16(s3)
    8000595c:	6505                	lui	a0,0x1
    8000595e:	bb05051b          	addiw	a0,a0,-1104 # bb0 <buflen.1+0xb70>
    80005962:	950a                	add	a0,a0,sp
    80005964:	6108                	ld	a0,0(a0)
    80005966:	00a9bc23          	sd	a0,24(s3)
    8000596a:	6505                	lui	a0,0x1
    8000596c:	ba85051b          	addiw	a0,a0,-1112 # ba8 <buflen.1+0xb68>
    80005970:	950a                	add	a0,a0,sp
    80005972:	6108                	ld	a0,0(a0)
    80005974:	02a9b023          	sd	a0,32(s3)
    80005978:	6505                	lui	a0,0x1
    8000597a:	b985051b          	addiw	a0,a0,-1128 # b98 <buflen.1+0xb58>
    8000597e:	950a                	add	a0,a0,sp
    80005980:	6108                	ld	a0,0(a0)
    80005982:	02a9b423          	sd	a0,40(s3)
    80005986:	28063483          	ld	s1,640(a2)
    8000598a:	89ab858b          	.insn	4, 0x89ab858b
    8000598e:	4857058b          	.insn	4, 0x4857058b
    80005992:	6917858b          	.insn	4, 0x6917858b
    80005996:	81d4857b          	.insn	4, 0x81d4857b
    8000599a:	6585                	lui	a1,0x1
    8000599c:	bc05859b          	addiw	a1,a1,-1088 # bc0 <buflen.1+0xb80>
    800059a0:	958a                	add	a1,a1,sp
    800059a2:	e188                	sd	a0,0(a1)
    800059a4:	6505                	lui	a0,0x1
    800059a6:	ba05051b          	addiw	a0,a0,-1120 # ba0 <buflen.1+0xb60>
    800059aa:	950a                	add	a0,a0,sp
    800059ac:	6108                	ld	a0,0(a0)
    800059ae:	02a9b823          	sd	a0,48(s3)
    800059b2:	6505                	lui	a0,0x1
    800059b4:	b905051b          	addiw	a0,a0,-1136 # b90 <buflen.1+0xb50>
    800059b8:	950a                	add	a0,a0,sp
    800059ba:	6108                	ld	a0,0(a0)
    800059bc:	02a9bc23          	sd	a0,56(s3)
    800059c0:	6505                	lui	a0,0x1
    800059c2:	b885051b          	addiw	a0,a0,-1144 # b88 <buflen.1+0xb48>
    800059c6:	950a                	add	a0,a0,sp
    800059c8:	6108                	ld	a0,0(a0)
    800059ca:	04a9b023          	sd	a0,64(s3)
    800059ce:	6505                	lui	a0,0x1
    800059d0:	b785051b          	addiw	a0,a0,-1160 # b78 <buflen.1+0xb38>
    800059d4:	950a                	add	a0,a0,sp
    800059d6:	6108                	ld	a0,0(a0)
    800059d8:	04a9b423          	sd	a0,72(s3)
    800059dc:	28863703          	ld	a4,648(a2)
    800059e0:	8dac058b          	.insn	4, 0x8dac058b
    800059e4:	6d17858b          	.insn	4, 0x6d17858b
    800059e8:	c0e4857b          	.insn	4, 0xc0e4857b
    800059ec:	6585                	lui	a1,0x1
    800059ee:	bb85859b          	addiw	a1,a1,-1096 # bb8 <buflen.1+0xb78>
    800059f2:	958a                	add	a1,a1,sp
    800059f4:	e188                	sd	a0,0(a1)
    800059f6:	6505                	lui	a0,0x1
    800059f8:	b805051b          	addiw	a0,a0,-1152 # b80 <buflen.1+0xb40>
    800059fc:	950a                	add	a0,a0,sp
    800059fe:	6108                	ld	a0,0(a0)
    80005a00:	04a9b823          	sd	a0,80(s3)
    80005a04:	6505                	lui	a0,0x1
    80005a06:	b705051b          	addiw	a0,a0,-1168 # b70 <buflen.1+0xb30>
    80005a0a:	950a                	add	a0,a0,sp
    80005a0c:	6108                	ld	a0,0(a0)
    80005a0e:	04a9bc23          	sd	a0,88(s3)
    80005a12:	6505                	lui	a0,0x1
    80005a14:	b685051b          	addiw	a0,a0,-1176 # b68 <buflen.1+0xb28>
    80005a18:	950a                	add	a0,a0,sp
    80005a1a:	6108                	ld	a0,0(a0)
    80005a1c:	06a9b023          	sd	a0,96(s3)
    80005a20:	6505                	lui	a0,0x1
    80005a22:	b585051b          	addiw	a0,a0,-1192 # b58 <buflen.1+0xb18>
    80005a26:	950a                	add	a0,a0,sp
    80005a28:	6108                	ld	a0,0(a0)
    80005a2a:	06a9b423          	sd	a0,104(s3)
    80005a2e:	29063503          	ld	a0,656(a2)
    80005a32:	81ac858b          	.insn	4, 0x81ac858b
    80005a36:	6117858b          	.insn	4, 0x6117858b
    80005a3a:	00e4858b          	.insn	4, 0x00e4858b
    80005a3e:	050505fb          	.insn	4, 0x050505fb
    80005a42:	6785                	lui	a5,0x1
    80005a44:	bb07879b          	addiw	a5,a5,-1104 # bb0 <buflen.1+0xb70>
    80005a48:	978a                	add	a5,a5,sp
    80005a4a:	e38c                	sd	a1,0(a5)
    80005a4c:	6585                	lui	a1,0x1
    80005a4e:	b605859b          	addiw	a1,a1,-1184 # b60 <buflen.1+0xb20>
    80005a52:	958a                	add	a1,a1,sp
    80005a54:	618c                	ld	a1,0(a1)
    80005a56:	06b9b823          	sd	a1,112(s3)
    80005a5a:	6585                	lui	a1,0x1
    80005a5c:	b505859b          	addiw	a1,a1,-1200 # b50 <buflen.1+0xb10>
    80005a60:	958a                	add	a1,a1,sp
    80005a62:	618c                	ld	a1,0(a1)
    80005a64:	06b9bc23          	sd	a1,120(s3)
    80005a68:	6585                	lui	a1,0x1
    80005a6a:	b485859b          	addiw	a1,a1,-1208 # b48 <buflen.1+0xb08>
    80005a6e:	958a                	add	a1,a1,sp
    80005a70:	618c                	ld	a1,0(a1)
    80005a72:	08b9b023          	sd	a1,128(s3)
    80005a76:	6585                	lui	a1,0x1
    80005a78:	b385859b          	addiw	a1,a1,-1224 # b38 <buflen.1+0xaf8>
    80005a7c:	958a                	add	a1,a1,sp
    80005a7e:	618c                	ld	a1,0(a1)
    80005a80:	08b9b423          	sd	a1,136(s3)
    80005a84:	29863803          	ld	a6,664(a2)
    80005a88:	85af878b          	.insn	4, 0x85af878b
    80005a8c:	04e4878b          	.insn	4, 0x04e4878b
    80005a90:	450505fb          	.insn	4, 0x450505fb
    80005a94:	6785                	lui	a5,0x1
    80005a96:	ba87879b          	addiw	a5,a5,-1112 # ba8 <buflen.1+0xb68>
    80005a9a:	978a                	add	a5,a5,sp
    80005a9c:	e38c                	sd	a1,0(a5)
    80005a9e:	6585                	lui	a1,0x1
    80005aa0:	b405859b          	addiw	a1,a1,-1216 # b40 <buflen.1+0xb00>
    80005aa4:	958a                	add	a1,a1,sp
    80005aa6:	618c                	ld	a1,0(a1)
    80005aa8:	08b9b823          	sd	a1,144(s3)
    80005aac:	6585                	lui	a1,0x1
    80005aae:	b305859b          	addiw	a1,a1,-1232 # b30 <buflen.1+0xaf0>
    80005ab2:	958a                	add	a1,a1,sp
    80005ab4:	618c                	ld	a1,0(a1)
    80005ab6:	08b9bc23          	sd	a1,152(s3)
    80005aba:	6585                	lui	a1,0x1
    80005abc:	b285859b          	addiw	a1,a1,-1240 # b28 <buflen.1+0xae8>
    80005ac0:	958a                	add	a1,a1,sp
    80005ac2:	618c                	ld	a1,0(a1)
    80005ac4:	0ab9b023          	sd	a1,160(s3)
    80005ac8:	6585                	lui	a1,0x1
    80005aca:	b185859b          	addiw	a1,a1,-1256 # b18 <buflen.1+0xad8>
    80005ace:	958a                	add	a1,a1,sp
    80005ad0:	618c                	ld	a1,0(a1)
    80005ad2:	0ab9b423          	sd	a1,168(s3)
    80005ad6:	2a063403          	ld	s0,672(a2)
    80005ada:	89a6878b          	.insn	4, 0x89a6878b
    80005ade:	08e4878b          	.insn	4, 0x08e4878b
    80005ae2:	2905078b          	.insn	4, 0x2905078b
    80005ae6:	885405fb          	.insn	4, 0x885405fb
    80005aea:	6785                	lui	a5,0x1
    80005aec:	ba07879b          	addiw	a5,a5,-1120 # ba0 <buflen.1+0xb60>
    80005af0:	978a                	add	a5,a5,sp
    80005af2:	e38c                	sd	a1,0(a5)
    80005af4:	6585                	lui	a1,0x1
    80005af6:	b205859b          	addiw	a1,a1,-1248 # b20 <buflen.1+0xae0>
    80005afa:	958a                	add	a1,a1,sp
    80005afc:	618c                	ld	a1,0(a1)
    80005afe:	0ab9b823          	sd	a1,176(s3)
    80005b02:	6585                	lui	a1,0x1
    80005b04:	b105859b          	addiw	a1,a1,-1264 # b10 <buflen.1+0xad0>
    80005b08:	958a                	add	a1,a1,sp
    80005b0a:	618c                	ld	a1,0(a1)
    80005b0c:	0ab9bc23          	sd	a1,184(s3)
    80005b10:	6585                	lui	a1,0x1
    80005b12:	b085859b          	addiw	a1,a1,-1272 # b08 <buflen.1+0xac8>
    80005b16:	958a                	add	a1,a1,sp
    80005b18:	618c                	ld	a1,0(a1)
    80005b1a:	0cb9b023          	sd	a1,192(s3)
    80005b1e:	6585                	lui	a1,0x1
    80005b20:	af85859b          	addiw	a1,a1,-1288 # af8 <buflen.1+0xab8>
    80005b24:	958a                	add	a1,a1,sp
    80005b26:	618c                	ld	a1,0(a1)
    80005b28:	0cb9b423          	sd	a1,200(s3)
    80005b2c:	2a863783          	ld	a5,680(a2)
    80005b30:	8daa848b          	.insn	4, 0x8daa848b
    80005b34:	2d05048b          	.insn	4, 0x2d05048b
    80005b38:	c8f405fb          	.insn	4, 0xc8f405fb
    80005b3c:	6285                	lui	t0,0x1
    80005b3e:	b982829b          	addiw	t0,t0,-1128 # b98 <buflen.1+0xb58>
    80005b42:	928a                	add	t0,t0,sp
    80005b44:	00b2b023          	sd	a1,0(t0)
    80005b48:	6585                	lui	a1,0x1
    80005b4a:	b005859b          	addiw	a1,a1,-1280 # b00 <buflen.1+0xac0>
    80005b4e:	958a                	add	a1,a1,sp
    80005b50:	618c                	ld	a1,0(a1)
    80005b52:	0cb9b823          	sd	a1,208(s3)
    80005b56:	6585                	lui	a1,0x1
    80005b58:	af05859b          	addiw	a1,a1,-1296 # af0 <buflen.1+0xab0>
    80005b5c:	958a                	add	a1,a1,sp
    80005b5e:	618c                	ld	a1,0(a1)
    80005b60:	0cb9bc23          	sd	a1,216(s3)
    80005b64:	6585                	lui	a1,0x1
    80005b66:	ae85859b          	addiw	a1,a1,-1304 # ae8 <buflen.1+0xaa8>
    80005b6a:	958a                	add	a1,a1,sp
    80005b6c:	618c                	ld	a1,0(a1)
    80005b6e:	0eb9b023          	sd	a1,224(s3)
    80005b72:	6585                	lui	a1,0x1
    80005b74:	ad85859b          	addiw	a1,a1,-1320 # ad8 <buflen.1+0xa98>
    80005b78:	958a                	add	a1,a1,sp
    80005b7a:	618c                	ld	a1,0(a1)
    80005b7c:	0eb9b423          	sd	a1,232(s3)
    80005b80:	2b063483          	ld	s1,688(a2)
    80005b84:	81a9058b          	.insn	4, 0x81a9058b
    80005b88:	2105050b          	.insn	4, 0x2105050b
    80005b8c:	40f4050b          	.insn	4, 0x40f4050b
    80005b90:	0d14857b          	.insn	4, 0x0d14857b
    80005b94:	6585                	lui	a1,0x1
    80005b96:	b905859b          	addiw	a1,a1,-1136 # b90 <buflen.1+0xb50>
    80005b9a:	958a                	add	a1,a1,sp
    80005b9c:	e188                	sd	a0,0(a1)
    80005b9e:	6505                	lui	a0,0x1
    80005ba0:	ae05051b          	addiw	a0,a0,-1312 # ae0 <buflen.1+0xaa0>
    80005ba4:	950a                	add	a0,a0,sp
    80005ba6:	6108                	ld	a0,0(a0)
    80005ba8:	0ea9b823          	sd	a0,240(s3)
    80005bac:	6505                	lui	a0,0x1
    80005bae:	ad05051b          	addiw	a0,a0,-1328 # ad0 <buflen.1+0xa90>
    80005bb2:	950a                	add	a0,a0,sp
    80005bb4:	6108                	ld	a0,0(a0)
    80005bb6:	0ea9bc23          	sd	a0,248(s3)
    80005bba:	6505                	lui	a0,0x1
    80005bbc:	ac85051b          	addiw	a0,a0,-1336 # ac8 <buflen.1+0xa88>
    80005bc0:	950a                	add	a0,a0,sp
    80005bc2:	6108                	ld	a0,0(a0)
    80005bc4:	10a9b023          	sd	a0,256(s3)
    80005bc8:	6505                	lui	a0,0x1
    80005bca:	ac05051b          	addiw	a0,a0,-1344 # ac0 <buflen.1+0xa80>
    80005bce:	950a                	add	a0,a0,sp
    80005bd0:	6108                	ld	a0,0(a0)
    80005bd2:	10a9b423          	sd	a0,264(s3)
    80005bd6:	2b863883          	ld	a7,696(a2)
    80005bda:	44f4058b          	.insn	4, 0x44f4058b
    80005bde:	4d14857b          	.insn	4, 0x4d14857b
    80005be2:	6585                	lui	a1,0x1
    80005be4:	b885859b          	addiw	a1,a1,-1144 # b88 <buflen.1+0xb48>
    80005be8:	958a                	add	a1,a1,sp
    80005bea:	e188                	sd	a0,0(a1)
    80005bec:	6505                	lui	a0,0x1
    80005bee:	ab85051b          	addiw	a0,a0,-1352 # ab8 <buflen.1+0xa78>
    80005bf2:	950a                	add	a0,a0,sp
    80005bf4:	6108                	ld	a0,0(a0)
    80005bf6:	10a9b823          	sd	a0,272(s3)
    80005bfa:	6505                	lui	a0,0x1
    80005bfc:	ab05051b          	addiw	a0,a0,-1360 # ab0 <buflen.1+0xa70>
    80005c00:	950a                	add	a0,a0,sp
    80005c02:	6108                	ld	a0,0(a0)
    80005c04:	10a9bc23          	sd	a0,280(s3)
    80005c08:	6505                	lui	a0,0x1
    80005c0a:	aa85051b          	addiw	a0,a0,-1368 # aa8 <buflen.1+0xa68>
    80005c0e:	950a                	add	a0,a0,sp
    80005c10:	6108                	ld	a0,0(a0)
    80005c12:	12a9b023          	sd	a0,288(s3)
    80005c16:	6505                	lui	a0,0x1
    80005c18:	a985051b          	addiw	a0,a0,-1384 # a98 <buflen.1+0xa58>
    80005c1c:	950a                	add	a0,a0,sp
    80005c1e:	6108                	ld	a0,0(a0)
    80005c20:	12a9b423          	sd	a0,296(s3)
    80005c24:	2c063503          	ld	a0,704(a2)
    80005c28:	89ab858b          	.insn	4, 0x89ab858b
    80005c2c:	48f4058b          	.insn	4, 0x48f4058b
    80005c30:	6914858b          	.insn	4, 0x6914858b
    80005c34:	80e505fb          	.insn	4, 0x80e505fb
    80005c38:	6705                	lui	a4,0x1
    80005c3a:	b807071b          	addiw	a4,a4,-1152 # b80 <buflen.1+0xb40>
    80005c3e:	970a                	add	a4,a4,sp
    80005c40:	e30c                	sd	a1,0(a4)
    80005c42:	6585                	lui	a1,0x1
    80005c44:	aa05859b          	addiw	a1,a1,-1376 # aa0 <buflen.1+0xa60>
    80005c48:	958a                	add	a1,a1,sp
    80005c4a:	618c                	ld	a1,0(a1)
    80005c4c:	12b9b823          	sd	a1,304(s3)
    80005c50:	6585                	lui	a1,0x1
    80005c52:	a905859b          	addiw	a1,a1,-1392 # a90 <buflen.1+0xa50>
    80005c56:	958a                	add	a1,a1,sp
    80005c58:	618c                	ld	a1,0(a1)
    80005c5a:	12b9bc23          	sd	a1,312(s3)
    80005c5e:	6585                	lui	a1,0x1
    80005c60:	a885859b          	addiw	a1,a1,-1400 # a88 <buflen.1+0xa48>
    80005c64:	958a                	add	a1,a1,sp
    80005c66:	618c                	ld	a1,0(a1)
    80005c68:	14b9b023          	sd	a1,320(s3)
    80005c6c:	6585                	lui	a1,0x1
    80005c6e:	a785859b          	addiw	a1,a1,-1416 # a78 <buflen.1+0xa38>
    80005c72:	958a                	add	a1,a1,sp
    80005c74:	618c                	ld	a1,0(a1)
    80005c76:	14b9b423          	sd	a1,328(s3)
    80005c7a:	2c863283          	ld	t0,712(a2)
    80005c7e:	8dac058b          	.insn	4, 0x8dac058b
    80005c82:	6d14858b          	.insn	4, 0x6d14858b
    80005c86:	c05505fb          	.insn	4, 0xc05505fb
    80005c8a:	6705                	lui	a4,0x1
    80005c8c:	b787071b          	addiw	a4,a4,-1160 # b78 <buflen.1+0xb38>
    80005c90:	970a                	add	a4,a4,sp
    80005c92:	e30c                	sd	a1,0(a4)
    80005c94:	6585                	lui	a1,0x1
    80005c96:	a805859b          	addiw	a1,a1,-1408 # a80 <buflen.1+0xa40>
    80005c9a:	958a                	add	a1,a1,sp
    80005c9c:	618c                	ld	a1,0(a1)
    80005c9e:	14b9b823          	sd	a1,336(s3)
    80005ca2:	6585                	lui	a1,0x1
    80005ca4:	a705859b          	addiw	a1,a1,-1424 # a70 <buflen.1+0xa30>
    80005ca8:	958a                	add	a1,a1,sp
    80005caa:	618c                	ld	a1,0(a1)
    80005cac:	14b9bc23          	sd	a1,344(s3)
    80005cb0:	6585                	lui	a1,0x1
    80005cb2:	a685859b          	addiw	a1,a1,-1432 # a68 <buflen.1+0xa28>
    80005cb6:	958a                	add	a1,a1,sp
    80005cb8:	618c                	ld	a1,0(a1)
    80005cba:	16b9b023          	sd	a1,352(s3)
    80005cbe:	6585                	lui	a1,0x1
    80005cc0:	a585859b          	addiw	a1,a1,-1448 # a58 <buflen.1+0xa18>
    80005cc4:	958a                	add	a1,a1,sp
    80005cc6:	618c                	ld	a1,0(a1)
    80005cc8:	16b9b423          	sd	a1,360(s3)
    80005ccc:	2d063403          	ld	s0,720(a2)
    80005cd0:	81ac858b          	.insn	4, 0x81ac858b
    80005cd4:	6114858b          	.insn	4, 0x6114858b
    80005cd8:	0055058b          	.insn	4, 0x0055058b
    80005cdc:	050405fb          	.insn	4, 0x050405fb
    80005ce0:	6705                	lui	a4,0x1
    80005ce2:	b707071b          	addiw	a4,a4,-1168 # b70 <buflen.1+0xb30>
    80005ce6:	970a                	add	a4,a4,sp
    80005ce8:	e30c                	sd	a1,0(a4)
    80005cea:	6585                	lui	a1,0x1
    80005cec:	a605859b          	addiw	a1,a1,-1440 # a60 <buflen.1+0xa20>
    80005cf0:	958a                	add	a1,a1,sp
    80005cf2:	618c                	ld	a1,0(a1)
    80005cf4:	16b9b823          	sd	a1,368(s3)
    80005cf8:	6585                	lui	a1,0x1
    80005cfa:	a505859b          	addiw	a1,a1,-1456 # a50 <buflen.1+0xa10>
    80005cfe:	958a                	add	a1,a1,sp
    80005d00:	618c                	ld	a1,0(a1)
    80005d02:	16b9bc23          	sd	a1,376(s3)
    80005d06:	6585                	lui	a1,0x1
    80005d08:	a485859b          	addiw	a1,a1,-1464 # a48 <buflen.1+0xa08>
    80005d0c:	958a                	add	a1,a1,sp
    80005d0e:	618c                	ld	a1,0(a1)
    80005d10:	18b9b023          	sd	a1,384(s3)
    80005d14:	6585                	lui	a1,0x1
    80005d16:	a405859b          	addiw	a1,a1,-1472 # a40 <buflen.1+0xa00>
    80005d1a:	958a                	add	a1,a1,sp
    80005d1c:	618c                	ld	a1,0(a1)
    80005d1e:	18b9b423          	sd	a1,392(s3)
    80005d22:	2d863803          	ld	a6,728(a2)
    80005d26:	0455048b          	.insn	4, 0x0455048b
    80005d2a:	450405fb          	.insn	4, 0x450405fb
    80005d2e:	6705                	lui	a4,0x1
    80005d30:	b687071b          	addiw	a4,a4,-1176 # b68 <buflen.1+0xb28>
    80005d34:	970a                	add	a4,a4,sp
    80005d36:	e30c                	sd	a1,0(a4)
    80005d38:	6585                	lui	a1,0x1
    80005d3a:	a385859b          	addiw	a1,a1,-1480 # a38 <buflen.1+0x9f8>
    80005d3e:	958a                	add	a1,a1,sp
    80005d40:	618c                	ld	a1,0(a1)
    80005d42:	18b9b823          	sd	a1,400(s3)
    80005d46:	6585                	lui	a1,0x1
    80005d48:	a305859b          	addiw	a1,a1,-1488 # a30 <buflen.1+0x9f0>
    80005d4c:	958a                	add	a1,a1,sp
    80005d4e:	618c                	ld	a1,0(a1)
    80005d50:	18b9bc23          	sd	a1,408(s3)
    80005d54:	6585                	lui	a1,0x1
    80005d56:	a285859b          	addiw	a1,a1,-1496 # a28 <buflen.1+0x9e8>
    80005d5a:	958a                	add	a1,a1,sp
    80005d5c:	618c                	ld	a1,0(a1)
    80005d5e:	1ab9b023          	sd	a1,416(s3)
    80005d62:	6585                	lui	a1,0x1
    80005d64:	a185859b          	addiw	a1,a1,-1512 # a18 <buflen.1+0x9d8>
    80005d68:	958a                	add	a1,a1,sp
    80005d6a:	618c                	ld	a1,0(a1)
    80005d6c:	1ab9b423          	sd	a1,424(s3)
    80005d70:	2e063483          	ld	s1,736(a2)
    80005d74:	89a6858b          	.insn	4, 0x89a6858b
    80005d78:	0855050b          	.insn	4, 0x0855050b
    80005d7c:	2904050b          	.insn	4, 0x2904050b
    80005d80:	88f4857b          	.insn	4, 0x88f4857b
    80005d84:	6585                	lui	a1,0x1
    80005d86:	b605859b          	addiw	a1,a1,-1184 # b60 <buflen.1+0xb20>
    80005d8a:	958a                	add	a1,a1,sp
