
mainop_BASELINE_O2U4_NY.riscv:     file format elf64-littleriscv


Disassembly of section .text.init:

0000000080000000 <_start>:
    80000000:	4081                	li	ra,0
    80000002:	4101                	li	sp,0
    80000004:	4181                	li	gp,0
    80000006:	4201                	li	tp,0
    80000008:	4281                	li	t0,0
    8000000a:	4301                	li	t1,0
    8000000c:	4381                	li	t2,0
    8000000e:	4401                	li	s0,0
    80000010:	4481                	li	s1,0
    80000012:	4501                	li	a0,0
    80000014:	4581                	li	a1,0
    80000016:	4601                	li	a2,0
    80000018:	4681                	li	a3,0
    8000001a:	4701                	li	a4,0
    8000001c:	4781                	li	a5,0
    8000001e:	4801                	li	a6,0
    80000020:	4881                	li	a7,0
    80000022:	4901                	li	s2,0
    80000024:	4981                	li	s3,0
    80000026:	4a01                	li	s4,0
    80000028:	4a81                	li	s5,0
    8000002a:	4b01                	li	s6,0
    8000002c:	4b81                	li	s7,0
    8000002e:	4c01                	li	s8,0
    80000030:	4c81                	li	s9,0
    80000032:	4d01                	li	s10,0
    80000034:	4d81                	li	s11,0
    80000036:	4e01                	li	t3,0
    80000038:	4e81                	li	t4,0
    8000003a:	4f01                	li	t5,0
    8000003c:	4f81                	li	t6,0
    8000003e:	62f9                	lui	t0,0x1e
    80000040:	3002a073          	csrs	mstatus,t0
    80000044:	4285                	li	t0,1
    80000046:	02fe                	slli	t0,t0,0x1f
    80000048:	0002d863          	bgez	t0,80000058 <_start+0x58>
    8000004c:	4505                	li	a0,1
    8000004e:	00001297          	auipc	t0,0x1
    80000052:	faa2a923          	sw	a0,-78(t0) # 80001000 <tohost>
    80000056:	bfdd                	j	8000004c <_start+0x4c>
    80000058:	00000297          	auipc	t0,0x0
    8000005c:	09028293          	addi	t0,t0,144 # 800000e8 <_start+0xe8>
    80000060:	30529073          	csrw	mtvec,t0
    80000064:	00301073          	fscsr	zero
    80000068:	f0000053          	fmv.w.x	ft0,zero
    8000006c:	f00000d3          	fmv.w.x	ft1,zero
    80000070:	f0000153          	fmv.w.x	ft2,zero
    80000074:	f00001d3          	fmv.w.x	ft3,zero
    80000078:	f0000253          	fmv.w.x	ft4,zero
    8000007c:	f00002d3          	fmv.w.x	ft5,zero
    80000080:	f0000353          	fmv.w.x	ft6,zero
    80000084:	f00003d3          	fmv.w.x	ft7,zero
    80000088:	f0000453          	fmv.w.x	fs0,zero
    8000008c:	f00004d3          	fmv.w.x	fs1,zero
    80000090:	f0000553          	fmv.w.x	fa0,zero
    80000094:	f00005d3          	fmv.w.x	fa1,zero
    80000098:	f0000653          	fmv.w.x	fa2,zero
    8000009c:	f00006d3          	fmv.w.x	fa3,zero
    800000a0:	f0000753          	fmv.w.x	fa4,zero
    800000a4:	f00007d3          	fmv.w.x	fa5,zero
    800000a8:	f0000853          	fmv.w.x	fa6,zero
    800000ac:	f00008d3          	fmv.w.x	fa7,zero
    800000b0:	f0000953          	fmv.w.x	fs2,zero
    800000b4:	f00009d3          	fmv.w.x	fs3,zero
    800000b8:	f0000a53          	fmv.w.x	fs4,zero
    800000bc:	f0000ad3          	fmv.w.x	fs5,zero
    800000c0:	f0000b53          	fmv.w.x	fs6,zero
    800000c4:	f0000bd3          	fmv.w.x	fs7,zero
    800000c8:	f0000c53          	fmv.w.x	fs8,zero
    800000cc:	f0000cd3          	fmv.w.x	fs9,zero
    800000d0:	f0000d53          	fmv.w.x	fs10,zero
    800000d4:	f0000dd3          	fmv.w.x	fs11,zero
    800000d8:	f0000e53          	fmv.w.x	ft8,zero
    800000dc:	f0000ed3          	fmv.w.x	ft9,zero
    800000e0:	f0000f53          	fmv.w.x	ft10,zero
    800000e4:	f0000fd3          	fmv.w.x	ft11,zero
    800000e8:	00000297          	auipc	t0,0x0
    800000ec:	03c28293          	addi	t0,t0,60 # 80000124 <trap_entry>
    800000f0:	30529073          	csrw	mtvec,t0
    800000f4:	00004197          	auipc	gp,0x4
    800000f8:	36418193          	addi	gp,gp,868 # 80004458 <__global_pointer$>
    800000fc:	0000a217          	auipc	tp,0xa
    80000100:	9c320213          	addi	tp,tp,-1597 # 80009abf <_end+0x3f>
    80000104:	fc027213          	andi	tp,tp,-64
    80000108:	f1402573          	csrr	a0,mhartid
    8000010c:	4585                	li	a1,1
    8000010e:	00b57063          	bgeu	a0,a1,8000010e <_start+0x10e>
    80000112:	00150113          	addi	sp,a0,1
    80000116:	0146                	slli	sp,sp,0x11
    80000118:	9112                	add	sp,sp,tp
    8000011a:	01151613          	slli	a2,a0,0x11
    8000011e:	9232                	add	tp,tp,a2
    80000120:	2e40306f          	j	80003404 <_init>

0000000080000124 <trap_entry>:
    80000124:	716d                	addi	sp,sp,-272
    80000126:	e406                	sd	ra,8(sp)
    80000128:	e80a                	sd	sp,16(sp)
    8000012a:	ec0e                	sd	gp,24(sp)
    8000012c:	f012                	sd	tp,32(sp)
    8000012e:	f416                	sd	t0,40(sp)
    80000130:	f81a                	sd	t1,48(sp)
    80000132:	fc1e                	sd	t2,56(sp)
    80000134:	e0a2                	sd	s0,64(sp)
    80000136:	e4a6                	sd	s1,72(sp)
    80000138:	e8aa                	sd	a0,80(sp)
    8000013a:	ecae                	sd	a1,88(sp)
    8000013c:	f0b2                	sd	a2,96(sp)
    8000013e:	f4b6                	sd	a3,104(sp)
    80000140:	f8ba                	sd	a4,112(sp)
    80000142:	fcbe                	sd	a5,120(sp)
    80000144:	e142                	sd	a6,128(sp)
    80000146:	e546                	sd	a7,136(sp)
    80000148:	e94a                	sd	s2,144(sp)
    8000014a:	ed4e                	sd	s3,152(sp)
    8000014c:	f152                	sd	s4,160(sp)
    8000014e:	f556                	sd	s5,168(sp)
    80000150:	f95a                	sd	s6,176(sp)
    80000152:	fd5e                	sd	s7,184(sp)
    80000154:	e1e2                	sd	s8,192(sp)
    80000156:	e5e6                	sd	s9,200(sp)
    80000158:	e9ea                	sd	s10,208(sp)
    8000015a:	edee                	sd	s11,216(sp)
    8000015c:	f1f2                	sd	t3,224(sp)
    8000015e:	f5f6                	sd	t4,232(sp)
    80000160:	f9fa                	sd	t5,240(sp)
    80000162:	fdfe                	sd	t6,248(sp)
    80000164:	34202573          	csrr	a0,mcause
    80000168:	341025f3          	csrr	a1,mepc
    8000016c:	860a                	mv	a2,sp
    8000016e:	0ce030ef          	jal	8000323c <handle_trap>
    80000172:	34151073          	csrw	mepc,a0
    80000176:	6289                	lui	t0,0x2
    80000178:	8002829b          	addiw	t0,t0,-2048 # 1800 <buflen.1+0x17c0>
    8000017c:	3002a073          	csrs	mstatus,t0
    80000180:	60a2                	ld	ra,8(sp)
    80000182:	6142                	ld	sp,16(sp)
    80000184:	61e2                	ld	gp,24(sp)
    80000186:	7202                	ld	tp,32(sp)
    80000188:	72a2                	ld	t0,40(sp)
    8000018a:	7342                	ld	t1,48(sp)
    8000018c:	73e2                	ld	t2,56(sp)
    8000018e:	6406                	ld	s0,64(sp)
    80000190:	64a6                	ld	s1,72(sp)
    80000192:	6546                	ld	a0,80(sp)
    80000194:	65e6                	ld	a1,88(sp)
    80000196:	7606                	ld	a2,96(sp)
    80000198:	76a6                	ld	a3,104(sp)
    8000019a:	7746                	ld	a4,112(sp)
    8000019c:	77e6                	ld	a5,120(sp)
    8000019e:	680a                	ld	a6,128(sp)
    800001a0:	68aa                	ld	a7,136(sp)
    800001a2:	694a                	ld	s2,144(sp)
    800001a4:	69ea                	ld	s3,152(sp)
    800001a6:	7a0a                	ld	s4,160(sp)
    800001a8:	7aaa                	ld	s5,168(sp)
    800001aa:	7b4a                	ld	s6,176(sp)
    800001ac:	7bea                	ld	s7,184(sp)
    800001ae:	6c0e                	ld	s8,192(sp)
    800001b0:	6cae                	ld	s9,200(sp)
    800001b2:	6d4e                	ld	s10,208(sp)
    800001b4:	6dee                	ld	s11,216(sp)
    800001b6:	7e0e                	ld	t3,224(sp)
    800001b8:	7eae                	ld	t4,232(sp)
    800001ba:	7f4e                	ld	t5,240(sp)
    800001bc:	7fee                	ld	t6,248(sp)
    800001be:	6151                	addi	sp,sp,272
    800001c0:	30200073          	mret
    800001c4:	0000                	unimp

Disassembly of section .text:

0000000080002000 <d2ull>:
    80002000:	e2050553          	fmv.x.d	a0,fa0
    80002004:	8082                	ret

0000000080002006 <ull2d>:
    80002006:	f2050553          	fmv.d.x	fa0,a0
    8000200a:	8082                	ret

000000008000200c <PickResult>:
    8000200c:	058e                	slli	a1,a1,0x3
    8000200e:	952e                	add	a0,a0,a1
    80002010:	6108                	ld	a0,0(a0)
    80002012:	8082                	ret

0000000080002014 <Impl_conv1d>:
    80002014:	4601                	li	a2,0
    80002016:	4281                	li	t0,0
    80002018:	04053883          	ld	a7,64(a0)
    8000201c:	06050793          	addi	a5,a0,96
    80002020:	4821                	li	a6,8
    80002022:	00c886bb          	addw	a3,a7,a2
    80002026:	0076f713          	andi	a4,a3,7
    8000202a:	070e                	slli	a4,a4,0x3
    8000202c:	972a                	add	a4,a4,a0
    8000202e:	00073303          	ld	t1,0(a4)
    80002032:	fe87b383          	ld	t2,-24(a5)
    80002036:	0016871b          	addiw	a4,a3,1
    8000203a:	8b1d                	andi	a4,a4,7
    8000203c:	070e                	slli	a4,a4,0x3
    8000203e:	972a                	add	a4,a4,a0
    80002040:	00073e03          	ld	t3,0(a4)
    80002044:	ff07b703          	ld	a4,-16(a5)
    80002048:	02638333          	mul	t1,t2,t1
    8000204c:	03c703b3          	mul	t2,a4,t3
    80002050:	0026871b          	addiw	a4,a3,2
    80002054:	8b1d                	andi	a4,a4,7
    80002056:	070e                	slli	a4,a4,0x3
    80002058:	972a                	add	a4,a4,a0
    8000205a:	00073e03          	ld	t3,0(a4)
    8000205e:	ff87be83          	ld	t4,-8(a5)
    80002062:	268d                	addiw	a3,a3,3
    80002064:	8a9d                	andi	a3,a3,7
    80002066:	068e                	slli	a3,a3,0x3
    80002068:	96aa                	add	a3,a3,a0
    8000206a:	6294                	ld	a3,0(a3)
    8000206c:	6398                	ld	a4,0(a5)
    8000206e:	03ce8e33          	mul	t3,t4,t3
    80002072:	02d706b3          	mul	a3,a4,a3
    80002076:	00530733          	add	a4,t1,t0
    8000207a:	971e                	add	a4,a4,t2
    8000207c:	9772                	add	a4,a4,t3
    8000207e:	00e682b3          	add	t0,a3,a4
    80002082:	0611                	addi	a2,a2,4
    80002084:	02078793          	addi	a5,a5,32
    80002088:	f9061de3          	bne	a2,a6,80002022 <Impl_conv1d+0xe>
    8000208c:	0055b023          	sd	t0,0(a1)
    80002090:	8082                	ret

0000000080002092 <OP_conv1d>:
    80002092:	7171                	addi	sp,sp,-176
    80002094:	f522                	sd	s0,168(sp)
    80002096:	f126                	sd	s1,160(sp)
    80002098:	ed4a                	sd	s2,152(sp)
    8000209a:	e94e                	sd	s3,144(sp)
    8000209c:	e552                	sd	s4,136(sp)
    8000209e:	4281                	li	t0,0
    800020a0:	4381                	li	t2,0
    800020a2:	736a                	ld	t1,184(sp)
    800020a4:	7e6e                	ld	t3,248(sp)
    800020a6:	7ece                	ld	t4,240(sp)
    800020a8:	7f2e                	ld	t5,232(sp)
    800020aa:	7f8e                	ld	t6,224(sp)
    800020ac:	696e                	ld	s2,216(sp)
    800020ae:	69ce                	ld	s3,208(sp)
    800020b0:	6a2e                	ld	s4,200(sp)
    800020b2:	648e                	ld	s1,192(sp)
    800020b4:	e02e                	sd	a1,0(sp)
    800020b6:	744a                	ld	s0,176(sp)
    800020b8:	e432                	sd	a2,8(sp)
    800020ba:	108c                	addi	a1,sp,96
    800020bc:	e836                	sd	a3,16(sp)
    800020be:	ec3a                	sd	a4,24(sp)
    800020c0:	f03e                	sd	a5,32(sp)
    800020c2:	f442                	sd	a6,40(sp)
    800020c4:	f846                	sd	a7,48(sp)
    800020c6:	fc22                	sd	s0,56(sp)
    800020c8:	e09a                	sd	t1,64(sp)
    800020ca:	e4a6                	sd	s1,72(sp)
    800020cc:	e8d2                	sd	s4,80(sp)
    800020ce:	ecce                	sd	s3,88(sp)
    800020d0:	f0ca                	sd	s2,96(sp)
    800020d2:	f4fe                	sd	t6,104(sp)
    800020d4:	f8fa                	sd	t5,112(sp)
    800020d6:	fcf6                	sd	t4,120(sp)
    800020d8:	e172                	sd	t3,128(sp)
    800020da:	888a                	mv	a7,sp
    800020dc:	4821                	li	a6,8
    800020de:	0053073b          	addw	a4,t1,t0
    800020e2:	00777793          	andi	a5,a4,7
    800020e6:	078e                	slli	a5,a5,0x3
    800020e8:	97c6                	add	a5,a5,a7
    800020ea:	639c                	ld	a5,0(a5)
    800020ec:	fe85b483          	ld	s1,-24(a1)
    800020f0:	0017041b          	addiw	s0,a4,1
    800020f4:	881d                	andi	s0,s0,7
    800020f6:	040e                	slli	s0,s0,0x3
    800020f8:	9446                	add	s0,s0,a7
    800020fa:	6000                	ld	s0,0(s0)
    800020fc:	ff05b683          	ld	a3,-16(a1)
    80002100:	02f487b3          	mul	a5,s1,a5
    80002104:	028686b3          	mul	a3,a3,s0
    80002108:	0027049b          	addiw	s1,a4,2
    8000210c:	889d                	andi	s1,s1,7
    8000210e:	048e                	slli	s1,s1,0x3
    80002110:	94c6                	add	s1,s1,a7
    80002112:	6084                	ld	s1,0(s1)
    80002114:	ff85b403          	ld	s0,-8(a1)
    80002118:	270d                	addiw	a4,a4,3
    8000211a:	8b1d                	andi	a4,a4,7
    8000211c:	070e                	slli	a4,a4,0x3
    8000211e:	9746                	add	a4,a4,a7
    80002120:	6318                	ld	a4,0(a4)
    80002122:	6190                	ld	a2,0(a1)
    80002124:	029404b3          	mul	s1,s0,s1
    80002128:	02e60633          	mul	a2,a2,a4
    8000212c:	00778733          	add	a4,a5,t2
    80002130:	96ba                	add	a3,a3,a4
    80002132:	96a6                	add	a3,a3,s1
    80002134:	00c683b3          	add	t2,a3,a2
    80002138:	0291                	addi	t0,t0,4
    8000213a:	02058593          	addi	a1,a1,32
    8000213e:	fb0290e3          	bne	t0,a6,800020de <OP_conv1d+0x4c>
    80002142:	00753023          	sd	t2,0(a0)
    80002146:	742a                	ld	s0,168(sp)
    80002148:	748a                	ld	s1,160(sp)
    8000214a:	696a                	ld	s2,152(sp)
    8000214c:	69ca                	ld	s3,144(sp)
    8000214e:	6a2a                	ld	s4,136(sp)
    80002150:	614d                	addi	sp,sp,176
    80002152:	8082                	ret

0000000080002154 <conv1d>:
    80002154:	7149                	addi	sp,sp,-368
    80002156:	f686                	sd	ra,360(sp)
    80002158:	f2a2                	sd	s0,352(sp)
    8000215a:	eea6                	sd	s1,344(sp)
    8000215c:	eaca                	sd	s2,336(sp)
    8000215e:	e6ce                	sd	s3,328(sp)
    80002160:	e2d2                	sd	s4,320(sp)
    80002162:	fe56                	sd	s5,312(sp)
    80002164:	fa5a                	sd	s6,304(sp)
    80002166:	f65e                	sd	s7,296(sp)
    80002168:	f262                	sd	s8,288(sp)
    8000216a:	ee66                	sd	s9,280(sp)
    8000216c:	ea6a                	sd	s10,272(sp)
    8000216e:	e66e                	sd	s11,264(sp)
    80002170:	f82e                	sd	a1,48(sp)
    80002172:	e42a                	sd	a0,8(sp)
    80002174:	62050363          	beqz	a0,8000279a <conv1d+0x646>
    80002178:	4a01                	li	s4,0
    8000217a:	80000537          	lui	a0,0x80000
    8000217e:	3561                	addiw	a0,a0,-8 # 7ffffff8 <buflen.1+0x7fffffb8>
    80002180:	f02a                	sd	a0,32(sp)
    80002182:	00005517          	auipc	a0,0x5
    80002186:	b1650513          	addi	a0,a0,-1258 # 80006c98 <kernel>
    8000218a:	00053b83          	ld	s7,0(a0)
    8000218e:	650c                	ld	a1,8(a0)
    80002190:	e0ae                	sd	a1,64(sp)
    80002192:	690c                	ld	a1,16(a0)
    80002194:	fcae                	sd	a1,120(sp)
    80002196:	6d0c                	ld	a1,24(a0)
    80002198:	f8ae                	sd	a1,112(sp)
    8000219a:	710c                	ld	a1,32(a0)
    8000219c:	f4ae                	sd	a1,104(sp)
    8000219e:	750c                	ld	a1,40(a0)
    800021a0:	f0ae                	sd	a1,96(sp)
    800021a2:	790c                	ld	a1,48(a0)
    800021a4:	ecae                	sd	a1,88(sp)
    800021a6:	7d08                	ld	a0,56(a0)
    800021a8:	e8aa                	sd	a0,80(sp)
    800021aa:	0e010e13          	addi	t3,sp,224
    800021ae:	0b810093          	addi	ra,sp,184
    800021b2:	00002517          	auipc	a0,0x2
    800021b6:	ae650513          	addi	a0,a0,-1306 # 80003c98 <input>
    800021ba:	ec2a                	sd	a0,24(sp)
    800021bc:	08010d13          	addi	s10,sp,128
    800021c0:	00005517          	auipc	a0,0x5
    800021c4:	b1850513          	addi	a0,a0,-1256 # 80006cd8 <output>
    800021c8:	e82a                	sd	a0,16(sp)
    800021ca:	5381                	li	t2,-32
    800021cc:	5ef5                	li	t4,-3
    800021ce:	fc000f93          	li	t6,-64
    800021d2:	5c61                	li	s8,-8
    800021d4:	fc5e                	sd	s7,56(sp)
    800021d6:	a029                	j	800021e0 <conv1d+0x8c>
    800021d8:	0a05                	addi	s4,s4,1
    800021da:	6522                	ld	a0,8(sp)
    800021dc:	5aaa0f63          	beq	s4,a0,8000279a <conv1d+0x646>
    800021e0:	7542                	ld	a0,48(sp)
    800021e2:	d97d                	beqz	a0,800021d8 <conv1d+0x84>
    800021e4:	4901                	li	s2,0
    800021e6:	f452                	sd	s4,40(sp)
    800021e8:	4501                	li	a0,0
    800021ea:	7582                	ld	a1,32(sp)
    800021ec:	00b975b3          	and	a1,s2,a1
    800021f0:	00391f13          	slli	t5,s2,0x3
    800021f4:	00aa1713          	slli	a4,s4,0xa
    800021f8:	6662                	ld	a2,24(sp)
    800021fa:	00e608b3          	add	a7,a2,a4
    800021fe:	058e                	slli	a1,a1,0x3
    80002200:	00b88ab3          	add	s5,a7,a1
    80002204:	000ab703          	ld	a4,0(s5)
    80002208:	0085e413          	ori	s0,a1,8
    8000220c:	008882b3          	add	t0,a7,s0
    80002210:	0002b403          	ld	s0,0(t0)
    80002214:	0105e693          	ori	a3,a1,16
    80002218:	00d889b3          	add	s3,a7,a3
    8000221c:	0009b683          	ld	a3,0(s3)
    80002220:	0185e613          	ori	a2,a1,24
    80002224:	00c88333          	add	t1,a7,a2
    80002228:	00033603          	ld	a2,0(t1)
    8000222c:	0205e793          	ori	a5,a1,32
    80002230:	00f88833          	add	a6,a7,a5
    80002234:	e13a                	sd	a4,128(sp)
    80002236:	00083703          	ld	a4,0(a6)
    8000223a:	e522                	sd	s0,136(sp)
    8000223c:	0285e793          	ori	a5,a1,40
    80002240:	00f88db3          	add	s11,a7,a5
    80002244:	e936                	sd	a3,144(sp)
    80002246:	000db683          	ld	a3,0(s11)
    8000224a:	0305e593          	ori	a1,a1,48
    8000224e:	95c6                	add	a1,a1,a7
    80002250:	ed32                	sd	a2,152(sp)
    80002252:	e4ae                	sd	a1,72(sp)
    80002254:	618c                	ld	a1,0(a1)
    80002256:	f13a                	sd	a4,160(sp)
    80002258:	038f6613          	ori	a2,t5,56
    8000225c:	00c88cb3          	add	s9,a7,a2
    80002260:	f536                	sd	a3,168(sp)
    80002262:	000cb603          	ld	a2,0(s9)
    80002266:	f92e                	sd	a1,176(sp)
    80002268:	fd32                	sd	a2,184(sp)
    8000226a:	e182                	sd	zero,192(sp)
    8000226c:	e5de                	sd	s7,200(sp)
    8000226e:	6586                	ld	a1,64(sp)
    80002270:	e9ae                	sd	a1,208(sp)
    80002272:	75e6                	ld	a1,120(sp)
    80002274:	edae                	sd	a1,216(sp)
    80002276:	75c6                	ld	a1,112(sp)
    80002278:	f1ae                	sd	a1,224(sp)
    8000227a:	75a6                	ld	a1,104(sp)
    8000227c:	f5ae                	sd	a1,232(sp)
    8000227e:	7586                	ld	a1,96(sp)
    80002280:	f9ae                	sd	a1,240(sp)
    80002282:	65e6                	ld	a1,88(sp)
    80002284:	fdae                	sd	a1,248(sp)
    80002286:	65c6                	ld	a1,80(sp)
    80002288:	e22e                	sd	a1,256(sp)
    8000228a:	fc000593          	li	a1,-64
    8000228e:	00bd0633          	add	a2,s10,a1
    80002292:	6234                	ld	a3,64(a2)
    80002294:	6658                	ld	a4,136(a2)
    80002296:	02d706b3          	mul	a3,a4,a3
    8000229a:	6638                	ld	a4,72(a2)
    8000229c:	6a5c                	ld	a5,144(a2)
    8000229e:	6a20                	ld	s0,80(a2)
    800022a0:	6e44                	ld	s1,152(a2)
    800022a2:	02e78733          	mul	a4,a5,a4
    800022a6:	028487b3          	mul	a5,s1,s0
    800022aa:	6e20                	ld	s0,88(a2)
    800022ac:	7250                	ld	a2,160(a2)
    800022ae:	9536                	add	a0,a0,a3
    800022b0:	02860633          	mul	a2,a2,s0
    800022b4:	953a                	add	a0,a0,a4
    800022b6:	953e                	add	a0,a0,a5
    800022b8:	02058593          	addi	a1,a1,32
    800022bc:	9532                	add	a0,a0,a2
    800022be:	f9e1                	bnez	a1,8000228e <conv1d+0x13a>
    800022c0:	3c800593          	li	a1,968
    800022c4:	02ba05b3          	mul	a1,s4,a1
    800022c8:	4a01                	li	s4,0
    800022ca:	6642                	ld	a2,16(sp)
    800022cc:	00b60b33          	add	s6,a2,a1
    800022d0:	01eb05b3          	add	a1,s6,t5
    800022d4:	e188                	sd	a0,0(a1)
    800022d6:	00196f13          	ori	t5,s2,1
    800022da:	040ab503          	ld	a0,64(s5)
    800022de:	0002b583          	ld	a1,0(t0)
    800022e2:	0009b603          	ld	a2,0(s3)
    800022e6:	e12a                	sd	a0,128(sp)
    800022e8:	00033503          	ld	a0,0(t1)
    800022ec:	e52e                	sd	a1,136(sp)
    800022ee:	00083583          	ld	a1,0(a6)
    800022f2:	e932                	sd	a2,144(sp)
    800022f4:	000db603          	ld	a2,0(s11)
    800022f8:	ed2a                	sd	a0,152(sp)
    800022fa:	6526                	ld	a0,72(sp)
    800022fc:	6108                	ld	a0,0(a0)
    800022fe:	f12e                	sd	a1,160(sp)
    80002300:	000cb583          	ld	a1,0(s9)
    80002304:	f532                	sd	a2,168(sp)
    80002306:	f92a                	sd	a0,176(sp)
    80002308:	fd2e                	sd	a1,184(sp)
    8000230a:	4505                	li	a0,1
    8000230c:	e1aa                	sd	a0,192(sp)
    8000230e:	e5de                	sd	s7,200(sp)
    80002310:	6586                	ld	a1,64(sp)
    80002312:	e9ae                	sd	a1,208(sp)
    80002314:	75e6                	ld	a1,120(sp)
    80002316:	edae                	sd	a1,216(sp)
    80002318:	75c6                	ld	a1,112(sp)
    8000231a:	f1ae                	sd	a1,224(sp)
    8000231c:	75a6                	ld	a1,104(sp)
    8000231e:	f5ae                	sd	a1,232(sp)
    80002320:	7586                	ld	a1,96(sp)
    80002322:	f9ae                	sd	a1,240(sp)
    80002324:	65e6                	ld	a1,88(sp)
    80002326:	fdae                	sd	a1,248(sp)
    80002328:	65c6                	ld	a1,80(sp)
    8000232a:	e22e                	sd	a1,256(sp)
    8000232c:	02000593          	li	a1,32
    80002330:	01a0                	addi	s0,sp,200
    80002332:	fc043603          	ld	a2,-64(s0)
    80002336:	6014                	ld	a3,0(s0)
    80002338:	fc843703          	ld	a4,-56(s0)
    8000233c:	641c                	ld	a5,8(s0)
    8000233e:	02c682b3          	mul	t0,a3,a2
    80002342:	02e786b3          	mul	a3,a5,a4
    80002346:	00351713          	slli	a4,a0,0x3
    8000234a:	01076713          	ori	a4,a4,16
    8000234e:	976a                	add	a4,a4,s10
    80002350:	6318                	ld	a4,0(a4)
    80002352:	681c                	ld	a5,16(s0)
    80002354:	00be04b3          	add	s1,t3,a1
    80002358:	fa04b483          	ld	s1,-96(s1)
    8000235c:	6c10                	ld	a2,24(s0)
    8000235e:	02e78733          	mul	a4,a5,a4
    80002362:	02960633          	mul	a2,a2,s1
    80002366:	014287b3          	add	a5,t0,s4
    8000236a:	96be                	add	a3,a3,a5
    8000236c:	96ba                	add	a3,a3,a4
    8000236e:	00c68a33          	add	s4,a3,a2
    80002372:	1581                	addi	a1,a1,-32
    80002374:	0511                	addi	a0,a0,4
    80002376:	02040413          	addi	s0,s0,32
    8000237a:	fa759ce3          	bne	a1,t2,80002332 <conv1d+0x1de>
    8000237e:	4b81                	li	s7,0
    80002380:	003f1593          	slli	a1,t5,0x3
    80002384:	95da                	add	a1,a1,s6
    80002386:	0145b023          	sd	s4,0(a1)
    8000238a:	00296293          	ori	t0,s2,2
    8000238e:	040ab583          	ld	a1,64(s5)
    80002392:	048ab603          	ld	a2,72(s5)
    80002396:	0009b683          	ld	a3,0(s3)
    8000239a:	00033703          	ld	a4,0(t1)
    8000239e:	00083783          	ld	a5,0(a6)
    800023a2:	000db483          	ld	s1,0(s11)
    800023a6:	6526                	ld	a0,72(sp)
    800023a8:	6100                	ld	s0,0(a0)
    800023aa:	e12e                	sd	a1,128(sp)
    800023ac:	000cb583          	ld	a1,0(s9)
    800023b0:	e532                	sd	a2,136(sp)
    800023b2:	e936                	sd	a3,144(sp)
    800023b4:	ed3a                	sd	a4,152(sp)
    800023b6:	f13e                	sd	a5,160(sp)
    800023b8:	f526                	sd	s1,168(sp)
    800023ba:	f922                	sd	s0,176(sp)
    800023bc:	fd2e                	sd	a1,184(sp)
    800023be:	4509                	li	a0,2
    800023c0:	e1aa                	sd	a0,192(sp)
    800023c2:	7562                	ld	a0,56(sp)
    800023c4:	e5aa                	sd	a0,200(sp)
    800023c6:	6986                	ld	s3,64(sp)
    800023c8:	e9ce                	sd	s3,208(sp)
    800023ca:	7566                	ld	a0,120(sp)
    800023cc:	edaa                	sd	a0,216(sp)
    800023ce:	7546                	ld	a0,112(sp)
    800023d0:	f1aa                	sd	a0,224(sp)
    800023d2:	7526                	ld	a0,104(sp)
    800023d4:	f5aa                	sd	a0,232(sp)
    800023d6:	7506                	ld	a0,96(sp)
    800023d8:	f9aa                	sd	a0,240(sp)
    800023da:	6566                	ld	a0,88(sp)
    800023dc:	fdaa                	sd	a0,248(sp)
    800023de:	6546                	ld	a0,80(sp)
    800023e0:	e22a                	sd	a0,256(sp)
    800023e2:	04000593          	li	a1,64
    800023e6:	01b8                	addi	a4,sp,200
    800023e8:	fc873603          	ld	a2,-56(a4)
    800023ec:	6314                	ld	a3,0(a4)
    800023ee:	fd073783          	ld	a5,-48(a4)
    800023f2:	6704                	ld	s1,8(a4)
    800023f4:	02c68633          	mul	a2,a3,a2
    800023f8:	02f486b3          	mul	a3,s1,a5
    800023fc:	00be07b3          	add	a5,t3,a1
    80002400:	f807b483          	ld	s1,-128(a5)
    80002404:	6b00                	ld	s0,16(a4)
    80002406:	f887b783          	ld	a5,-120(a5)
    8000240a:	6f08                	ld	a0,24(a4)
    8000240c:	029404b3          	mul	s1,s0,s1
    80002410:	02f50533          	mul	a0,a0,a5
    80002414:	965e                	add	a2,a2,s7
    80002416:	9636                	add	a2,a2,a3
    80002418:	9626                	add	a2,a2,s1
    8000241a:	00a60bb3          	add	s7,a2,a0
    8000241e:	1581                	addi	a1,a1,-32
    80002420:	02070713          	addi	a4,a4,32
    80002424:	f1f1                	bnez	a1,800023e8 <conv1d+0x294>
    80002426:	4f01                	li	t5,0
    80002428:	00329513          	slli	a0,t0,0x3
    8000242c:	955a                	add	a0,a0,s6
    8000242e:	01753023          	sd	s7,0(a0)
    80002432:	00396293          	ori	t0,s2,3
    80002436:	040ab503          	ld	a0,64(s5)
    8000243a:	048ab603          	ld	a2,72(s5)
    8000243e:	050ab683          	ld	a3,80(s5)
    80002442:	00033703          	ld	a4,0(t1)
    80002446:	00083783          	ld	a5,0(a6)
    8000244a:	000db483          	ld	s1,0(s11)
    8000244e:	65a6                	ld	a1,72(sp)
    80002450:	6180                	ld	s0,0(a1)
    80002452:	e12a                	sd	a0,128(sp)
    80002454:	000cb503          	ld	a0,0(s9)
    80002458:	e532                	sd	a2,136(sp)
    8000245a:	e936                	sd	a3,144(sp)
    8000245c:	ed3a                	sd	a4,152(sp)
    8000245e:	f13e                	sd	a5,160(sp)
    80002460:	f526                	sd	s1,168(sp)
    80002462:	f922                	sd	s0,176(sp)
    80002464:	fd2a                	sd	a0,184(sp)
    80002466:	450d                	li	a0,3
    80002468:	e1aa                	sd	a0,192(sp)
    8000246a:	7be2                	ld	s7,56(sp)
    8000246c:	e5de                	sd	s7,200(sp)
    8000246e:	e9ce                	sd	s3,208(sp)
    80002470:	7566                	ld	a0,120(sp)
    80002472:	edaa                	sd	a0,216(sp)
    80002474:	7546                	ld	a0,112(sp)
    80002476:	f1aa                	sd	a0,224(sp)
    80002478:	7526                	ld	a0,104(sp)
    8000247a:	f5aa                	sd	a0,232(sp)
    8000247c:	7506                	ld	a0,96(sp)
    8000247e:	f9aa                	sd	a0,240(sp)
    80002480:	6566                	ld	a0,88(sp)
    80002482:	fdaa                	sd	a0,248(sp)
    80002484:	6546                	ld	a0,80(sp)
    80002486:	e22a                	sd	a0,256(sp)
    80002488:	04000513          	li	a0,64
    8000248c:	8772                	mv	a4,t3
    8000248e:	7a22                	ld	s4,40(sp)
    80002490:	fb873603          	ld	a2,-72(a4)
    80002494:	fe873683          	ld	a3,-24(a4)
    80002498:	00ae07b3          	add	a5,t3,a0
    8000249c:	f807b483          	ld	s1,-128(a5)
    800024a0:	ff073403          	ld	s0,-16(a4)
    800024a4:	02c68633          	mul	a2,a3,a2
    800024a8:	029406b3          	mul	a3,s0,s1
    800024ac:	f887b483          	ld	s1,-120(a5)
    800024b0:	ff873403          	ld	s0,-8(a4)
    800024b4:	f907b783          	ld	a5,-112(a5)
    800024b8:	630c                	ld	a1,0(a4)
    800024ba:	029404b3          	mul	s1,s0,s1
    800024be:	02f585b3          	mul	a1,a1,a5
    800024c2:	967a                	add	a2,a2,t5
    800024c4:	9636                	add	a2,a2,a3
    800024c6:	9626                	add	a2,a2,s1
    800024c8:	00b60f33          	add	t5,a2,a1
    800024cc:	1501                	addi	a0,a0,-32
    800024ce:	02070713          	addi	a4,a4,32
    800024d2:	fd5d                	bnez	a0,80002490 <conv1d+0x33c>
    800024d4:	4301                	li	t1,0
    800024d6:	00329593          	slli	a1,t0,0x3
    800024da:	95da                	add	a1,a1,s6
    800024dc:	01e5b023          	sd	t5,0(a1)
    800024e0:	00496293          	ori	t0,s2,4
    800024e4:	040ab583          	ld	a1,64(s5)
    800024e8:	048ab603          	ld	a2,72(s5)
    800024ec:	050ab683          	ld	a3,80(s5)
    800024f0:	058ab703          	ld	a4,88(s5)
    800024f4:	00083783          	ld	a5,0(a6)
    800024f8:	000db483          	ld	s1,0(s11)
    800024fc:	6526                	ld	a0,72(sp)
    800024fe:	6100                	ld	s0,0(a0)
    80002500:	e12e                	sd	a1,128(sp)
    80002502:	000cb583          	ld	a1,0(s9)
    80002506:	e532                	sd	a2,136(sp)
    80002508:	e936                	sd	a3,144(sp)
    8000250a:	ed3a                	sd	a4,152(sp)
    8000250c:	f13e                	sd	a5,160(sp)
    8000250e:	f526                	sd	s1,168(sp)
    80002510:	f922                	sd	s0,176(sp)
    80002512:	fd2e                	sd	a1,184(sp)
    80002514:	4511                	li	a0,4
    80002516:	e1aa                	sd	a0,192(sp)
    80002518:	e5de                	sd	s7,200(sp)
    8000251a:	e9ce                	sd	s3,208(sp)
    8000251c:	7566                	ld	a0,120(sp)
    8000251e:	edaa                	sd	a0,216(sp)
    80002520:	7546                	ld	a0,112(sp)
    80002522:	f1aa                	sd	a0,224(sp)
    80002524:	7526                	ld	a0,104(sp)
    80002526:	f5aa                	sd	a0,232(sp)
    80002528:	7506                	ld	a0,96(sp)
    8000252a:	f9aa                	sd	a0,240(sp)
    8000252c:	6566                	ld	a0,88(sp)
    8000252e:	fdaa                	sd	a0,248(sp)
    80002530:	6546                	ld	a0,80(sp)
    80002532:	e22a                	sd	a0,256(sp)
    80002534:	04000593          	li	a1,64
    80002538:	8772                	mv	a4,t3
    8000253a:	00be0633          	add	a2,t3,a1
    8000253e:	f8063683          	ld	a3,-128(a2)
    80002542:	fe873783          	ld	a5,-24(a4)
    80002546:	f8863483          	ld	s1,-120(a2)
    8000254a:	ff073403          	ld	s0,-16(a4)
    8000254e:	02d786b3          	mul	a3,a5,a3
    80002552:	029407b3          	mul	a5,s0,s1
    80002556:	f9063483          	ld	s1,-112(a2)
    8000255a:	ff873403          	ld	s0,-8(a4)
    8000255e:	f9863603          	ld	a2,-104(a2)
    80002562:	6308                	ld	a0,0(a4)
    80002564:	029404b3          	mul	s1,s0,s1
    80002568:	02c50533          	mul	a0,a0,a2
    8000256c:	00668633          	add	a2,a3,t1
    80002570:	963e                	add	a2,a2,a5
    80002572:	9626                	add	a2,a2,s1
    80002574:	00a60333          	add	t1,a2,a0
    80002578:	1581                	addi	a1,a1,-32
    8000257a:	02070713          	addi	a4,a4,32
    8000257e:	fdd5                	bnez	a1,8000253a <conv1d+0x3e6>
    80002580:	4f01                	li	t5,0
    80002582:	00329513          	slli	a0,t0,0x3
    80002586:	955a                	add	a0,a0,s6
    80002588:	00653023          	sd	t1,0(a0)
    8000258c:	00596813          	ori	a6,s2,5
    80002590:	040ab503          	ld	a0,64(s5)
    80002594:	048ab603          	ld	a2,72(s5)
    80002598:	050ab683          	ld	a3,80(s5)
    8000259c:	058ab703          	ld	a4,88(s5)
    800025a0:	060ab783          	ld	a5,96(s5)
    800025a4:	000db483          	ld	s1,0(s11)
    800025a8:	65a6                	ld	a1,72(sp)
    800025aa:	6180                	ld	s0,0(a1)
    800025ac:	e12a                	sd	a0,128(sp)
    800025ae:	000cb503          	ld	a0,0(s9)
    800025b2:	e532                	sd	a2,136(sp)
    800025b4:	e936                	sd	a3,144(sp)
    800025b6:	ed3a                	sd	a4,152(sp)
    800025b8:	f13e                	sd	a5,160(sp)
    800025ba:	f526                	sd	s1,168(sp)
    800025bc:	f922                	sd	s0,176(sp)
    800025be:	fd2a                	sd	a0,184(sp)
    800025c0:	4515                	li	a0,5
    800025c2:	e1aa                	sd	a0,192(sp)
    800025c4:	e5de                	sd	s7,200(sp)
    800025c6:	e9ce                	sd	s3,208(sp)
    800025c8:	75e6                	ld	a1,120(sp)
    800025ca:	edae                	sd	a1,216(sp)
    800025cc:	75c6                	ld	a1,112(sp)
    800025ce:	f1ae                	sd	a1,224(sp)
    800025d0:	75a6                	ld	a1,104(sp)
    800025d2:	f5ae                	sd	a1,232(sp)
    800025d4:	7586                	ld	a1,96(sp)
    800025d6:	f9ae                	sd	a1,240(sp)
    800025d8:	65e6                	ld	a1,88(sp)
    800025da:	fdae                	sd	a1,248(sp)
    800025dc:	65c6                	ld	a1,80(sp)
    800025de:	e22e                	sd	a1,256(sp)
    800025e0:	03000413          	li	s0,48
    800025e4:	8772                	mv	a4,t3
    800025e6:	008e0633          	add	a2,t3,s0
    800025ea:	f9863683          	ld	a3,-104(a2)
    800025ee:	fe873783          	ld	a5,-24(a4)
    800025f2:	fa063603          	ld	a2,-96(a2)
    800025f6:	ff073483          	ld	s1,-16(a4)
    800025fa:	02d786b3          	mul	a3,a5,a3
    800025fe:	02c482b3          	mul	t0,s1,a2
    80002602:	00351793          	slli	a5,a0,0x3
    80002606:	0107e793          	ori	a5,a5,16
    8000260a:	97ea                	add	a5,a5,s10
    8000260c:	639c                	ld	a5,0(a5)
    8000260e:	ff873483          	ld	s1,-8(a4)
    80002612:	fa073583          	ld	a1,-96(a4)
    80002616:	6310                	ld	a2,0(a4)
    80002618:	02f487b3          	mul	a5,s1,a5
    8000261c:	02b605b3          	mul	a1,a2,a1
    80002620:	01e68633          	add	a2,a3,t5
    80002624:	9616                	add	a2,a2,t0
    80002626:	963e                	add	a2,a2,a5
    80002628:	00b60f33          	add	t5,a2,a1
    8000262c:	1571                	addi	a0,a0,-4
    8000262e:	1401                	addi	s0,s0,-32
    80002630:	02070713          	addi	a4,a4,32
    80002634:	fbd519e3          	bne	a0,t4,800025e6 <conv1d+0x492>
    80002638:	4401                	li	s0,0
    8000263a:	4281                	li	t0,0
    8000263c:	00381593          	slli	a1,a6,0x3
    80002640:	95da                	add	a1,a1,s6
    80002642:	01e5b023          	sd	t5,0(a1)
    80002646:	00696813          	ori	a6,s2,6
    8000264a:	040ab583          	ld	a1,64(s5)
    8000264e:	048ab603          	ld	a2,72(s5)
    80002652:	050ab683          	ld	a3,80(s5)
    80002656:	058ab703          	ld	a4,88(s5)
    8000265a:	e12e                	sd	a1,128(sp)
    8000265c:	060ab583          	ld	a1,96(s5)
    80002660:	e532                	sd	a2,136(sp)
    80002662:	068ab603          	ld	a2,104(s5)
    80002666:	6526                	ld	a0,72(sp)
    80002668:	611c                	ld	a5,0(a0)
    8000266a:	000cb483          	ld	s1,0(s9)
    8000266e:	e936                	sd	a3,144(sp)
    80002670:	ed3a                	sd	a4,152(sp)
    80002672:	f12e                	sd	a1,160(sp)
    80002674:	f532                	sd	a2,168(sp)
    80002676:	f93e                	sd	a5,176(sp)
    80002678:	fd26                	sd	s1,184(sp)
    8000267a:	4519                	li	a0,6
    8000267c:	e1aa                	sd	a0,192(sp)
    8000267e:	e5de                	sd	s7,200(sp)
    80002680:	e9ce                	sd	s3,208(sp)
    80002682:	7566                	ld	a0,120(sp)
    80002684:	edaa                	sd	a0,216(sp)
    80002686:	7546                	ld	a0,112(sp)
    80002688:	f1aa                	sd	a0,224(sp)
    8000268a:	7526                	ld	a0,104(sp)
    8000268c:	f5aa                	sd	a0,232(sp)
    8000268e:	7506                	ld	a0,96(sp)
    80002690:	f9aa                	sd	a0,240(sp)
    80002692:	6566                	ld	a0,88(sp)
    80002694:	fdaa                	sd	a0,248(sp)
    80002696:	6546                	ld	a0,80(sp)
    80002698:	e22a                	sd	a0,256(sp)
    8000269a:	85f2                	mv	a1,t3
    8000269c:	00808633          	add	a2,ra,s0
    800026a0:	ff863683          	ld	a3,-8(a2)
    800026a4:	fe85b703          	ld	a4,-24(a1)
    800026a8:	6210                	ld	a2,0(a2)
    800026aa:	ff05b783          	ld	a5,-16(a1)
    800026ae:	02d706b3          	mul	a3,a4,a3
    800026b2:	02c78633          	mul	a2,a5,a2
    800026b6:	fa05b703          	ld	a4,-96(a1)
    800026ba:	ff85b783          	ld	a5,-8(a1)
    800026be:	fa85b483          	ld	s1,-88(a1)
    800026c2:	6188                	ld	a0,0(a1)
    800026c4:	02e78733          	mul	a4,a5,a4
    800026c8:	02950533          	mul	a0,a0,s1
    800026cc:	9696                	add	a3,a3,t0
    800026ce:	9636                	add	a2,a2,a3
    800026d0:	963a                	add	a2,a2,a4
    800026d2:	00a602b3          	add	t0,a2,a0
    800026d6:	1401                	addi	s0,s0,-32
    800026d8:	02058593          	addi	a1,a1,32
    800026dc:	fdf410e3          	bne	s0,t6,8000269c <conv1d+0x548>
    800026e0:	4581                	li	a1,0
    800026e2:	00381513          	slli	a0,a6,0x3
    800026e6:	955a                	add	a0,a0,s6
    800026e8:	00553023          	sd	t0,0(a0)
    800026ec:	00796513          	ori	a0,s2,7
    800026f0:	040ab603          	ld	a2,64(s5)
    800026f4:	048ab683          	ld	a3,72(s5)
    800026f8:	050ab703          	ld	a4,80(s5)
    800026fc:	058ab783          	ld	a5,88(s5)
    80002700:	060ab483          	ld	s1,96(s5)
    80002704:	e132                	sd	a2,128(sp)
    80002706:	068ab603          	ld	a2,104(s5)
    8000270a:	070ab403          	ld	s0,112(s5)
    8000270e:	00351813          	slli	a6,a0,0x3
    80002712:	01088533          	add	a0,a7,a6
    80002716:	6108                	ld	a0,0(a0)
    80002718:	e536                	sd	a3,136(sp)
    8000271a:	e93a                	sd	a4,144(sp)
    8000271c:	ed3e                	sd	a5,152(sp)
    8000271e:	f126                	sd	s1,160(sp)
    80002720:	f532                	sd	a2,168(sp)
    80002722:	f922                	sd	s0,176(sp)
    80002724:	fd2a                	sd	a0,184(sp)
    80002726:	451d                	li	a0,7
    80002728:	e1aa                	sd	a0,192(sp)
    8000272a:	e5de                	sd	s7,200(sp)
    8000272c:	e9ce                	sd	s3,208(sp)
    8000272e:	7566                	ld	a0,120(sp)
    80002730:	edaa                	sd	a0,216(sp)
    80002732:	7546                	ld	a0,112(sp)
    80002734:	f1aa                	sd	a0,224(sp)
    80002736:	7526                	ld	a0,104(sp)
    80002738:	f5aa                	sd	a0,232(sp)
    8000273a:	7506                	ld	a0,96(sp)
    8000273c:	f9aa                	sd	a0,240(sp)
    8000273e:	6566                	ld	a0,88(sp)
    80002740:	fdaa                	sd	a0,248(sp)
    80002742:	6546                	ld	a0,80(sp)
    80002744:	e22a                	sd	a0,256(sp)
    80002746:	03800713          	li	a4,56
    8000274a:	01a0                	addi	s0,sp,200
    8000274c:	00ee0533          	add	a0,t3,a4
    80002750:	fa053503          	ld	a0,-96(a0)
    80002754:	6010                	ld	a2,0(s0)
    80002756:	fb843683          	ld	a3,-72(s0)
    8000275a:	641c                	ld	a5,8(s0)
    8000275c:	02a608b3          	mul	a7,a2,a0
    80002760:	02d78633          	mul	a2,a5,a3
    80002764:	fc043683          	ld	a3,-64(s0)
    80002768:	681c                	ld	a5,16(s0)
    8000276a:	fc843483          	ld	s1,-56(s0)
    8000276e:	6c08                	ld	a0,24(s0)
    80002770:	02d786b3          	mul	a3,a5,a3
    80002774:	02950533          	mul	a0,a0,s1
    80002778:	95c6                	add	a1,a1,a7
    8000277a:	95b2                	add	a1,a1,a2
    8000277c:	95b6                	add	a1,a1,a3
    8000277e:	95aa                	add	a1,a1,a0
    80002780:	1701                	addi	a4,a4,-32
    80002782:	02040413          	addi	s0,s0,32
    80002786:	fd8713e3          	bne	a4,s8,8000274c <conv1d+0x5f8>
    8000278a:	010b0533          	add	a0,s6,a6
    8000278e:	0921                	addi	s2,s2,8
    80002790:	e10c                	sd	a1,0(a0)
    80002792:	7542                	ld	a0,48(sp)
    80002794:	a4a96ae3          	bltu	s2,a0,800021e8 <conv1d+0x94>
    80002798:	b481                	j	800021d8 <conv1d+0x84>
    8000279a:	70b6                	ld	ra,360(sp)
    8000279c:	7416                	ld	s0,352(sp)
    8000279e:	64f6                	ld	s1,344(sp)
    800027a0:	6956                	ld	s2,336(sp)
    800027a2:	69b6                	ld	s3,328(sp)
    800027a4:	6a16                	ld	s4,320(sp)
    800027a6:	7af2                	ld	s5,312(sp)
    800027a8:	7b52                	ld	s6,304(sp)
    800027aa:	7bb2                	ld	s7,296(sp)
    800027ac:	7c12                	ld	s8,288(sp)
    800027ae:	6cf2                	ld	s9,280(sp)
    800027b0:	6d52                	ld	s10,272(sp)
    800027b2:	6db2                	ld	s11,264(sp)
    800027b4:	6175                	addi	sp,sp,368
    800027b6:	8082                	ret

00000000800027b8 <main>:
    800027b8:	1141                	addi	sp,sp,-16
    800027ba:	e406                	sd	ra,8(sp)
    800027bc:	e022                	sd	s0,0(sp)
    800027be:	4781                	li	a5,0
    800027c0:	00001517          	auipc	a0,0x1
    800027c4:	4b850513          	addi	a0,a0,1208 # 80003c78 <gen2+0x1d0>
    800027c8:	610c                	ld	a1,0(a0)
    800027ca:	00001817          	auipc	a6,0x1
    800027ce:	4be80813          	addi	a6,a6,1214 # 80003c88 <gen1>
    800027d2:	00083703          	ld	a4,0(a6)
    800027d6:	00001297          	auipc	t0,0x1
    800027da:	4c228293          	addi	t0,t0,1218 # 80003c98 <input>
    800027de:	00001517          	auipc	a0,0x1
    800027e2:	4a250513          	addi	a0,a0,1186 # 80003c80 <gen2+0x1d8>
    800027e6:	00053f83          	ld	t6,0(a0)
    800027ea:	3b9ad537          	lui	a0,0x3b9ad
    800027ee:	a075031b          	addiw	t1,a0,-1529 # 3b9aca07 <buflen.1+0x3b9ac9c7>
    800027f2:	40000893          	li	a7,1024
    800027f6:	02b70633          	mul	a2,a4,a1
    800027fa:	03f636b3          	mulhu	a3,a2,t6
    800027fe:	82f5                	srli	a3,a3,0x1d
    80002800:	026686b3          	mul	a3,a3,t1
    80002804:	40d603b3          	sub	t2,a2,a3
    80002808:	02b386b3          	mul	a3,t2,a1
    8000280c:	03f6b533          	mulhu	a0,a3,t6
    80002810:	8175                	srli	a0,a0,0x1d
    80002812:	02650533          	mul	a0,a0,t1
    80002816:	40a68533          	sub	a0,a3,a0
    8000281a:	02b506b3          	mul	a3,a0,a1
    8000281e:	03f6b633          	mulhu	a2,a3,t6
    80002822:	8275                	srli	a2,a2,0x1d
    80002824:	02660633          	mul	a2,a2,t1
    80002828:	00b70e33          	add	t3,a4,a1
    8000282c:	40c68633          	sub	a2,a3,a2
    80002830:	02b606b3          	mul	a3,a2,a1
    80002834:	00f28733          	add	a4,t0,a5
    80002838:	01c73023          	sd	t3,0(a4)
    8000283c:	93ae                	add	t2,t2,a1
    8000283e:	03f6be33          	mulhu	t3,a3,t6
    80002842:	00773423          	sd	t2,8(a4)
    80002846:	952e                	add	a0,a0,a1
    80002848:	eb08                	sd	a0,16(a4)
    8000284a:	01de5513          	srli	a0,t3,0x1d
    8000284e:	02650533          	mul	a0,a0,t1
    80002852:	962e                	add	a2,a2,a1
    80002854:	ef10                	sd	a2,24(a4)
    80002856:	02078793          	addi	a5,a5,32
    8000285a:	40a68733          	sub	a4,a3,a0
    8000285e:	f9179ce3          	bne	a5,a7,800027f6 <main+0x3e>
    80002862:	4501                	li	a0,0
    80002864:	3b9ad637          	lui	a2,0x3b9ad
    80002868:	a076031b          	addiw	t1,a2,-1529 # 3b9aca07 <buflen.1+0x3b9ac9c7>
    8000286c:	40000893          	li	a7,1024
    80002870:	02b707b3          	mul	a5,a4,a1
    80002874:	03f7b6b3          	mulhu	a3,a5,t6
    80002878:	82f5                	srli	a3,a3,0x1d
    8000287a:	026686b3          	mul	a3,a3,t1
    8000287e:	40d783b3          	sub	t2,a5,a3
    80002882:	02b387b3          	mul	a5,t2,a1
    80002886:	03f7b6b3          	mulhu	a3,a5,t6
    8000288a:	82f5                	srli	a3,a3,0x1d
    8000288c:	026686b3          	mul	a3,a3,t1
    80002890:	40d78e33          	sub	t3,a5,a3
    80002894:	02be07b3          	mul	a5,t3,a1
    80002898:	03f7b6b3          	mulhu	a3,a5,t6
    8000289c:	82f5                	srli	a3,a3,0x1d
    8000289e:	026686b3          	mul	a3,a3,t1
    800028a2:	00b70eb3          	add	t4,a4,a1
    800028a6:	40d78f33          	sub	t5,a5,a3
    800028aa:	02bf07b3          	mul	a5,t5,a1
    800028ae:	00a28733          	add	a4,t0,a0
    800028b2:	41d73023          	sd	t4,1024(a4)
    800028b6:	93ae                	add	t2,t2,a1
    800028b8:	03f7beb3          	mulhu	t4,a5,t6
    800028bc:	40773423          	sd	t2,1032(a4)
    800028c0:	00be06b3          	add	a3,t3,a1
    800028c4:	40d73823          	sd	a3,1040(a4)
    800028c8:	01ded693          	srli	a3,t4,0x1d
    800028cc:	026683b3          	mul	t2,a3,t1
    800028d0:	00bf06b3          	add	a3,t5,a1
    800028d4:	40d73c23          	sd	a3,1048(a4)
    800028d8:	02050513          	addi	a0,a0,32
    800028dc:	40778733          	sub	a4,a5,t2
    800028e0:	f91518e3          	bne	a0,a7,80002870 <main+0xb8>
    800028e4:	7ff28893          	addi	a7,t0,2047
    800028e8:	01988513          	addi	a0,a7,25
    800028ec:	08000793          	li	a5,128
    800028f0:	3b9ad6b7          	lui	a3,0x3b9ad
    800028f4:	a076831b          	addiw	t1,a3,-1529 # 3b9aca07 <buflen.1+0x3b9ac9c7>
    800028f8:	02b706b3          	mul	a3,a4,a1
    800028fc:	03f6b633          	mulhu	a2,a3,t6
    80002900:	8275                	srli	a2,a2,0x1d
    80002902:	02660633          	mul	a2,a2,t1
    80002906:	40c683b3          	sub	t2,a3,a2
    8000290a:	02b386b3          	mul	a3,t2,a1
    8000290e:	03f6b633          	mulhu	a2,a3,t6
    80002912:	8275                	srli	a2,a2,0x1d
    80002914:	02660633          	mul	a2,a2,t1
    80002918:	40c68e33          	sub	t3,a3,a2
    8000291c:	02be06b3          	mul	a3,t3,a1
    80002920:	03f6b633          	mulhu	a2,a3,t6
    80002924:	8275                	srli	a2,a2,0x1d
    80002926:	02660633          	mul	a2,a2,t1
    8000292a:	40c68633          	sub	a2,a3,a2
    8000292e:	02b606b3          	mul	a3,a2,a1
    80002932:	972e                	add	a4,a4,a1
    80002934:	fee53423          	sd	a4,-24(a0)
    80002938:	03f6beb3          	mulhu	t4,a3,t6
    8000293c:	00b38733          	add	a4,t2,a1
    80002940:	fee53823          	sd	a4,-16(a0)
    80002944:	00be03b3          	add	t2,t3,a1
    80002948:	01ded713          	srli	a4,t4,0x1d
    8000294c:	02670733          	mul	a4,a4,t1
    80002950:	fe753c23          	sd	t2,-8(a0)
    80002954:	962e                	add	a2,a2,a1
    80002956:	e110                	sd	a2,0(a0)
    80002958:	40e68733          	sub	a4,a3,a4
    8000295c:	17f1                	addi	a5,a5,-4
    8000295e:	02050513          	addi	a0,a0,32
    80002962:	fbd9                	bnez	a5,800028f8 <main+0x140>
    80002964:	41988513          	addi	a0,a7,1049
    80002968:	08000793          	li	a5,128
    8000296c:	3b9ad637          	lui	a2,0x3b9ad
    80002970:	a076089b          	addiw	a7,a2,-1529 # 3b9aca07 <buflen.1+0x3b9ac9c7>
    80002974:	02b70633          	mul	a2,a4,a1
    80002978:	03f636b3          	mulhu	a3,a2,t6
    8000297c:	82f5                	srli	a3,a3,0x1d
    8000297e:	031686b3          	mul	a3,a3,a7
    80002982:	40d60333          	sub	t1,a2,a3
    80002986:	02b306b3          	mul	a3,t1,a1
    8000298a:	03f6b633          	mulhu	a2,a3,t6
    8000298e:	8275                	srli	a2,a2,0x1d
    80002990:	03160633          	mul	a2,a2,a7
    80002994:	40c683b3          	sub	t2,a3,a2
    80002998:	02b386b3          	mul	a3,t2,a1
    8000299c:	03f6b633          	mulhu	a2,a3,t6
    800029a0:	8275                	srli	a2,a2,0x1d
    800029a2:	03160633          	mul	a2,a2,a7
    800029a6:	40c68633          	sub	a2,a3,a2
    800029aa:	02b606b3          	mul	a3,a2,a1
    800029ae:	972e                	add	a4,a4,a1
    800029b0:	fee53423          	sd	a4,-24(a0)
    800029b4:	03f6be33          	mulhu	t3,a3,t6
    800029b8:	00b30733          	add	a4,t1,a1
    800029bc:	fee53823          	sd	a4,-16(a0)
    800029c0:	00b38333          	add	t1,t2,a1
    800029c4:	01de5713          	srli	a4,t3,0x1d
    800029c8:	03170733          	mul	a4,a4,a7
    800029cc:	fe653c23          	sd	t1,-8(a0)
    800029d0:	962e                	add	a2,a2,a1
    800029d2:	e110                	sd	a2,0(a0)
    800029d4:	40e68733          	sub	a4,a3,a4
    800029d8:	17f1                	addi	a5,a5,-4
    800029da:	02050513          	addi	a0,a0,32
    800029de:	fbd9                	bnez	a5,80002974 <main+0x1bc>
    800029e0:	6505                	lui	a0,0x1
    800029e2:	2561                	addiw	a0,a0,24 # 1018 <buflen.1+0xfd8>
    800029e4:	9516                	add	a0,a0,t0
    800029e6:	08000793          	li	a5,128
    800029ea:	3b9ad637          	lui	a2,0x3b9ad
    800029ee:	a076089b          	addiw	a7,a2,-1529 # 3b9aca07 <buflen.1+0x3b9ac9c7>
    800029f2:	02b70633          	mul	a2,a4,a1
    800029f6:	03f636b3          	mulhu	a3,a2,t6
    800029fa:	82f5                	srli	a3,a3,0x1d
    800029fc:	031686b3          	mul	a3,a3,a7
    80002a00:	40d60333          	sub	t1,a2,a3
    80002a04:	02b306b3          	mul	a3,t1,a1
    80002a08:	03f6b633          	mulhu	a2,a3,t6
    80002a0c:	8275                	srli	a2,a2,0x1d
    80002a0e:	03160633          	mul	a2,a2,a7
    80002a12:	40c683b3          	sub	t2,a3,a2
    80002a16:	02b386b3          	mul	a3,t2,a1
    80002a1a:	03f6b633          	mulhu	a2,a3,t6
    80002a1e:	8275                	srli	a2,a2,0x1d
    80002a20:	03160633          	mul	a2,a2,a7
    80002a24:	40c68633          	sub	a2,a3,a2
    80002a28:	02b606b3          	mul	a3,a2,a1
    80002a2c:	972e                	add	a4,a4,a1
    80002a2e:	fee53423          	sd	a4,-24(a0)
    80002a32:	03f6be33          	mulhu	t3,a3,t6
    80002a36:	00b30733          	add	a4,t1,a1
    80002a3a:	fee53823          	sd	a4,-16(a0)
    80002a3e:	00b38333          	add	t1,t2,a1
    80002a42:	01de5713          	srli	a4,t3,0x1d
    80002a46:	03170733          	mul	a4,a4,a7
    80002a4a:	fe653c23          	sd	t1,-8(a0)
    80002a4e:	962e                	add	a2,a2,a1
    80002a50:	e110                	sd	a2,0(a0)
    80002a52:	40e68733          	sub	a4,a3,a4
    80002a56:	17f1                	addi	a5,a5,-4
    80002a58:	02050513          	addi	a0,a0,32
    80002a5c:	fbd9                	bnez	a5,800029f2 <main+0x23a>
    80002a5e:	6505                	lui	a0,0x1
    80002a60:	4185051b          	addiw	a0,a0,1048 # 1418 <buflen.1+0x13d8>
    80002a64:	9516                	add	a0,a0,t0
    80002a66:	08000793          	li	a5,128
    80002a6a:	3b9ad637          	lui	a2,0x3b9ad
    80002a6e:	a076089b          	addiw	a7,a2,-1529 # 3b9aca07 <buflen.1+0x3b9ac9c7>
    80002a72:	02b70633          	mul	a2,a4,a1
    80002a76:	03f636b3          	mulhu	a3,a2,t6
    80002a7a:	82f5                	srli	a3,a3,0x1d
    80002a7c:	031686b3          	mul	a3,a3,a7
    80002a80:	40d60333          	sub	t1,a2,a3
    80002a84:	02b306b3          	mul	a3,t1,a1
    80002a88:	03f6b633          	mulhu	a2,a3,t6
    80002a8c:	8275                	srli	a2,a2,0x1d
    80002a8e:	03160633          	mul	a2,a2,a7
    80002a92:	40c683b3          	sub	t2,a3,a2
    80002a96:	02b386b3          	mul	a3,t2,a1
    80002a9a:	03f6b633          	mulhu	a2,a3,t6
    80002a9e:	8275                	srli	a2,a2,0x1d
    80002aa0:	03160633          	mul	a2,a2,a7
    80002aa4:	40c68633          	sub	a2,a3,a2
    80002aa8:	02b606b3          	mul	a3,a2,a1
    80002aac:	972e                	add	a4,a4,a1
    80002aae:	fee53423          	sd	a4,-24(a0)
    80002ab2:	03f6be33          	mulhu	t3,a3,t6
    80002ab6:	00b30733          	add	a4,t1,a1
    80002aba:	fee53823          	sd	a4,-16(a0)
    80002abe:	00b38333          	add	t1,t2,a1
    80002ac2:	01de5713          	srli	a4,t3,0x1d
    80002ac6:	03170733          	mul	a4,a4,a7
    80002aca:	fe653c23          	sd	t1,-8(a0)
    80002ace:	962e                	add	a2,a2,a1
    80002ad0:	e110                	sd	a2,0(a0)
    80002ad2:	40e68733          	sub	a4,a3,a4
    80002ad6:	17f1                	addi	a5,a5,-4
    80002ad8:	02050513          	addi	a0,a0,32
    80002adc:	fbd9                	bnez	a5,80002a72 <main+0x2ba>
    80002ade:	6509                	lui	a0,0x2
    80002ae0:	8185051b          	addiw	a0,a0,-2024 # 1818 <buflen.1+0x17d8>
    80002ae4:	9516                	add	a0,a0,t0
    80002ae6:	08000793          	li	a5,128
    80002aea:	3b9ad637          	lui	a2,0x3b9ad
    80002aee:	a076089b          	addiw	a7,a2,-1529 # 3b9aca07 <buflen.1+0x3b9ac9c7>
    80002af2:	02b70633          	mul	a2,a4,a1
    80002af6:	03f636b3          	mulhu	a3,a2,t6
    80002afa:	82f5                	srli	a3,a3,0x1d
    80002afc:	031686b3          	mul	a3,a3,a7
    80002b00:	40d60333          	sub	t1,a2,a3
    80002b04:	02b306b3          	mul	a3,t1,a1
    80002b08:	03f6b633          	mulhu	a2,a3,t6
    80002b0c:	8275                	srli	a2,a2,0x1d
    80002b0e:	03160633          	mul	a2,a2,a7
    80002b12:	40c683b3          	sub	t2,a3,a2
    80002b16:	02b386b3          	mul	a3,t2,a1
    80002b1a:	03f6b633          	mulhu	a2,a3,t6
    80002b1e:	8275                	srli	a2,a2,0x1d
    80002b20:	03160633          	mul	a2,a2,a7
    80002b24:	40c68633          	sub	a2,a3,a2
    80002b28:	02b606b3          	mul	a3,a2,a1
    80002b2c:	972e                	add	a4,a4,a1
    80002b2e:	fee53423          	sd	a4,-24(a0)
    80002b32:	03f6be33          	mulhu	t3,a3,t6
    80002b36:	00b30733          	add	a4,t1,a1
    80002b3a:	fee53823          	sd	a4,-16(a0)
    80002b3e:	00b38333          	add	t1,t2,a1
    80002b42:	01de5713          	srli	a4,t3,0x1d
    80002b46:	03170733          	mul	a4,a4,a7
    80002b4a:	fe653c23          	sd	t1,-8(a0)
    80002b4e:	962e                	add	a2,a2,a1
    80002b50:	e110                	sd	a2,0(a0)
    80002b52:	40e68733          	sub	a4,a3,a4
    80002b56:	17f1                	addi	a5,a5,-4
    80002b58:	02050513          	addi	a0,a0,32
    80002b5c:	fbd9                	bnez	a5,80002af2 <main+0x33a>
    80002b5e:	6509                	lui	a0,0x2
    80002b60:	c185051b          	addiw	a0,a0,-1000 # 1c18 <buflen.1+0x1bd8>
    80002b64:	9516                	add	a0,a0,t0
    80002b66:	08000793          	li	a5,128
    80002b6a:	3b9ad637          	lui	a2,0x3b9ad
    80002b6e:	a076089b          	addiw	a7,a2,-1529 # 3b9aca07 <buflen.1+0x3b9ac9c7>
    80002b72:	02b70633          	mul	a2,a4,a1
    80002b76:	03f636b3          	mulhu	a3,a2,t6
    80002b7a:	82f5                	srli	a3,a3,0x1d
    80002b7c:	031686b3          	mul	a3,a3,a7
    80002b80:	40d60333          	sub	t1,a2,a3
    80002b84:	02b306b3          	mul	a3,t1,a1
    80002b88:	03f6b633          	mulhu	a2,a3,t6
    80002b8c:	8275                	srli	a2,a2,0x1d
    80002b8e:	03160633          	mul	a2,a2,a7
    80002b92:	40c683b3          	sub	t2,a3,a2
    80002b96:	02b386b3          	mul	a3,t2,a1
    80002b9a:	03f6b633          	mulhu	a2,a3,t6
    80002b9e:	8275                	srli	a2,a2,0x1d
    80002ba0:	03160633          	mul	a2,a2,a7
    80002ba4:	40c68633          	sub	a2,a3,a2
    80002ba8:	02b606b3          	mul	a3,a2,a1
    80002bac:	972e                	add	a4,a4,a1
    80002bae:	fee53423          	sd	a4,-24(a0)
    80002bb2:	03f6be33          	mulhu	t3,a3,t6
    80002bb6:	00b30733          	add	a4,t1,a1
    80002bba:	fee53823          	sd	a4,-16(a0)
    80002bbe:	00b38333          	add	t1,t2,a1
    80002bc2:	01de5713          	srli	a4,t3,0x1d
    80002bc6:	03170733          	mul	a4,a4,a7
    80002bca:	fe653c23          	sd	t1,-8(a0)
    80002bce:	962e                	add	a2,a2,a1
    80002bd0:	e110                	sd	a2,0(a0)
    80002bd2:	40e68733          	sub	a4,a3,a4
    80002bd6:	17f1                	addi	a5,a5,-4
    80002bd8:	02050513          	addi	a0,a0,32
    80002bdc:	fbd9                	bnez	a5,80002b72 <main+0x3ba>
    80002bde:	6509                	lui	a0,0x2
    80002be0:	2561                	addiw	a0,a0,24 # 2018 <buflen.1+0x1fd8>
    80002be2:	9516                	add	a0,a0,t0
    80002be4:	08000793          	li	a5,128
    80002be8:	3b9ad637          	lui	a2,0x3b9ad
    80002bec:	a076089b          	addiw	a7,a2,-1529 # 3b9aca07 <buflen.1+0x3b9ac9c7>
    80002bf0:	02b70633          	mul	a2,a4,a1
    80002bf4:	03f636b3          	mulhu	a3,a2,t6
    80002bf8:	82f5                	srli	a3,a3,0x1d
    80002bfa:	031686b3          	mul	a3,a3,a7
    80002bfe:	40d60333          	sub	t1,a2,a3
    80002c02:	02b306b3          	mul	a3,t1,a1
    80002c06:	03f6b633          	mulhu	a2,a3,t6
    80002c0a:	8275                	srli	a2,a2,0x1d
    80002c0c:	03160633          	mul	a2,a2,a7
    80002c10:	40c683b3          	sub	t2,a3,a2
    80002c14:	02b386b3          	mul	a3,t2,a1
    80002c18:	03f6b633          	mulhu	a2,a3,t6
    80002c1c:	8275                	srli	a2,a2,0x1d
    80002c1e:	03160633          	mul	a2,a2,a7
    80002c22:	40c68633          	sub	a2,a3,a2
    80002c26:	02b606b3          	mul	a3,a2,a1
    80002c2a:	972e                	add	a4,a4,a1
    80002c2c:	fee53423          	sd	a4,-24(a0)
    80002c30:	03f6be33          	mulhu	t3,a3,t6
    80002c34:	00b30733          	add	a4,t1,a1
    80002c38:	fee53823          	sd	a4,-16(a0)
    80002c3c:	00b38333          	add	t1,t2,a1
    80002c40:	01de5713          	srli	a4,t3,0x1d
    80002c44:	03170733          	mul	a4,a4,a7
    80002c48:	fe653c23          	sd	t1,-8(a0)
    80002c4c:	962e                	add	a2,a2,a1
    80002c4e:	e110                	sd	a2,0(a0)
    80002c50:	40e68733          	sub	a4,a3,a4
    80002c54:	17f1                	addi	a5,a5,-4
    80002c56:	02050513          	addi	a0,a0,32
    80002c5a:	fbd9                	bnez	a5,80002bf0 <main+0x438>
    80002c5c:	6509                	lui	a0,0x2
    80002c5e:	4185051b          	addiw	a0,a0,1048 # 2418 <buflen.1+0x23d8>
    80002c62:	9516                	add	a0,a0,t0
    80002c64:	08000793          	li	a5,128
    80002c68:	3b9ad637          	lui	a2,0x3b9ad
    80002c6c:	a076089b          	addiw	a7,a2,-1529 # 3b9aca07 <buflen.1+0x3b9ac9c7>
    80002c70:	02b70633          	mul	a2,a4,a1
    80002c74:	03f636b3          	mulhu	a3,a2,t6
    80002c78:	82f5                	srli	a3,a3,0x1d
    80002c7a:	031686b3          	mul	a3,a3,a7
    80002c7e:	40d60333          	sub	t1,a2,a3
    80002c82:	02b306b3          	mul	a3,t1,a1
    80002c86:	03f6b633          	mulhu	a2,a3,t6
    80002c8a:	8275                	srli	a2,a2,0x1d
    80002c8c:	03160633          	mul	a2,a2,a7
    80002c90:	40c683b3          	sub	t2,a3,a2
    80002c94:	02b386b3          	mul	a3,t2,a1
    80002c98:	03f6b633          	mulhu	a2,a3,t6
    80002c9c:	8275                	srli	a2,a2,0x1d
    80002c9e:	03160633          	mul	a2,a2,a7
    80002ca2:	40c68633          	sub	a2,a3,a2
    80002ca6:	02b606b3          	mul	a3,a2,a1
    80002caa:	972e                	add	a4,a4,a1
    80002cac:	fee53423          	sd	a4,-24(a0)
    80002cb0:	03f6be33          	mulhu	t3,a3,t6
    80002cb4:	00b30733          	add	a4,t1,a1
    80002cb8:	fee53823          	sd	a4,-16(a0)
    80002cbc:	00b38333          	add	t1,t2,a1
    80002cc0:	01de5713          	srli	a4,t3,0x1d
    80002cc4:	03170733          	mul	a4,a4,a7
    80002cc8:	fe653c23          	sd	t1,-8(a0)
    80002ccc:	962e                	add	a2,a2,a1
    80002cce:	e110                	sd	a2,0(a0)
    80002cd0:	40e68733          	sub	a4,a3,a4
    80002cd4:	17f1                	addi	a5,a5,-4
    80002cd6:	02050513          	addi	a0,a0,32
    80002cda:	fbd9                	bnez	a5,80002c70 <main+0x4b8>
    80002cdc:	650d                	lui	a0,0x3
    80002cde:	8185051b          	addiw	a0,a0,-2024 # 2818 <buflen.1+0x27d8>
    80002ce2:	9516                	add	a0,a0,t0
    80002ce4:	08000793          	li	a5,128
    80002ce8:	3b9ad637          	lui	a2,0x3b9ad
    80002cec:	a076089b          	addiw	a7,a2,-1529 # 3b9aca07 <buflen.1+0x3b9ac9c7>
    80002cf0:	02b70633          	mul	a2,a4,a1
    80002cf4:	03f636b3          	mulhu	a3,a2,t6
    80002cf8:	82f5                	srli	a3,a3,0x1d
    80002cfa:	031686b3          	mul	a3,a3,a7
    80002cfe:	40d60333          	sub	t1,a2,a3
    80002d02:	02b306b3          	mul	a3,t1,a1
    80002d06:	03f6b633          	mulhu	a2,a3,t6
    80002d0a:	8275                	srli	a2,a2,0x1d
    80002d0c:	03160633          	mul	a2,a2,a7
    80002d10:	40c683b3          	sub	t2,a3,a2
    80002d14:	02b386b3          	mul	a3,t2,a1
    80002d18:	03f6b633          	mulhu	a2,a3,t6
    80002d1c:	8275                	srli	a2,a2,0x1d
    80002d1e:	03160633          	mul	a2,a2,a7
    80002d22:	40c68633          	sub	a2,a3,a2
    80002d26:	02b606b3          	mul	a3,a2,a1
    80002d2a:	972e                	add	a4,a4,a1
    80002d2c:	fee53423          	sd	a4,-24(a0)
    80002d30:	03f6be33          	mulhu	t3,a3,t6
    80002d34:	00b30733          	add	a4,t1,a1
    80002d38:	fee53823          	sd	a4,-16(a0)
    80002d3c:	00b38333          	add	t1,t2,a1
    80002d40:	01de5713          	srli	a4,t3,0x1d
    80002d44:	03170733          	mul	a4,a4,a7
    80002d48:	fe653c23          	sd	t1,-8(a0)
    80002d4c:	962e                	add	a2,a2,a1
    80002d4e:	e110                	sd	a2,0(a0)
    80002d50:	40e68733          	sub	a4,a3,a4
    80002d54:	17f1                	addi	a5,a5,-4
    80002d56:	02050513          	addi	a0,a0,32
    80002d5a:	fbd9                	bnez	a5,80002cf0 <main+0x538>
    80002d5c:	650d                	lui	a0,0x3
    80002d5e:	c185051b          	addiw	a0,a0,-1000 # 2c18 <buflen.1+0x2bd8>
    80002d62:	9516                	add	a0,a0,t0
    80002d64:	08000693          	li	a3,128
    80002d68:	3b9ad637          	lui	a2,0x3b9ad
    80002d6c:	a076089b          	addiw	a7,a2,-1529 # 3b9aca07 <buflen.1+0x3b9ac9c7>
    80002d70:	02b70633          	mul	a2,a4,a1
    80002d74:	03f637b3          	mulhu	a5,a2,t6
    80002d78:	83f5                	srli	a5,a5,0x1d
    80002d7a:	031787b3          	mul	a5,a5,a7
    80002d7e:	40f602b3          	sub	t0,a2,a5
    80002d82:	02b287b3          	mul	a5,t0,a1
    80002d86:	03f7b633          	mulhu	a2,a5,t6
    80002d8a:	8275                	srli	a2,a2,0x1d
    80002d8c:	03160633          	mul	a2,a2,a7
    80002d90:	40c78333          	sub	t1,a5,a2
    80002d94:	02b307b3          	mul	a5,t1,a1
    80002d98:	03f7b633          	mulhu	a2,a5,t6
    80002d9c:	8275                	srli	a2,a2,0x1d
    80002d9e:	03160633          	mul	a2,a2,a7
    80002da2:	40c78633          	sub	a2,a5,a2
    80002da6:	02b607b3          	mul	a5,a2,a1
    80002daa:	972e                	add	a4,a4,a1
    80002dac:	fee53423          	sd	a4,-24(a0)
    80002db0:	03f7b3b3          	mulhu	t2,a5,t6
    80002db4:	00b28733          	add	a4,t0,a1
    80002db8:	fee53823          	sd	a4,-16(a0)
    80002dbc:	00b302b3          	add	t0,t1,a1
    80002dc0:	01d3d713          	srli	a4,t2,0x1d
    80002dc4:	03170733          	mul	a4,a4,a7
    80002dc8:	fe553c23          	sd	t0,-8(a0)
    80002dcc:	962e                	add	a2,a2,a1
    80002dce:	e110                	sd	a2,0(a0)
    80002dd0:	40e78733          	sub	a4,a5,a4
    80002dd4:	16f1                	addi	a3,a3,-4
    80002dd6:	02050513          	addi	a0,a0,32
    80002dda:	fad9                	bnez	a3,80002d70 <main+0x5b8>
    80002ddc:	4501                	li	a0,0
    80002dde:	00004297          	auipc	t0,0x4
    80002de2:	eba28293          	addi	t0,t0,-326 # 80006c98 <kernel>
    80002de6:	3b9ad637          	lui	a2,0x3b9ad
    80002dea:	a076031b          	addiw	t1,a2,-1529 # 3b9aca07 <buflen.1+0x3b9ac9c7>
    80002dee:	04000893          	li	a7,64
    80002df2:	02b70633          	mul	a2,a4,a1
    80002df6:	03f63433          	mulhu	s0,a2,t6
    80002dfa:	8075                	srli	s0,s0,0x1d
    80002dfc:	02640433          	mul	s0,s0,t1
    80002e00:	8e01                	sub	a2,a2,s0
    80002e02:	02b60433          	mul	s0,a2,a1
    80002e06:	03f436b3          	mulhu	a3,s0,t6
    80002e0a:	82f5                	srli	a3,a3,0x1d
    80002e0c:	026686b3          	mul	a3,a3,t1
    80002e10:	40d406b3          	sub	a3,s0,a3
    80002e14:	02b68433          	mul	s0,a3,a1
    80002e18:	03f437b3          	mulhu	a5,s0,t6
    80002e1c:	83f5                	srli	a5,a5,0x1d
    80002e1e:	026787b3          	mul	a5,a5,t1
    80002e22:	00b703b3          	add	t2,a4,a1
    80002e26:	40f407b3          	sub	a5,s0,a5
    80002e2a:	02b78433          	mul	s0,a5,a1
    80002e2e:	00a28733          	add	a4,t0,a0
    80002e32:	00773023          	sd	t2,0(a4)
    80002e36:	962e                	add	a2,a2,a1
    80002e38:	03f433b3          	mulhu	t2,s0,t6
    80002e3c:	e710                	sd	a2,8(a4)
    80002e3e:	00b68633          	add	a2,a3,a1
    80002e42:	eb10                	sd	a2,16(a4)
    80002e44:	01d3d613          	srli	a2,t2,0x1d
    80002e48:	02660633          	mul	a2,a2,t1
    80002e4c:	00b786b3          	add	a3,a5,a1
    80002e50:	ef14                	sd	a3,24(a4)
    80002e52:	02050513          	addi	a0,a0,32
    80002e56:	40c40733          	sub	a4,s0,a2
    80002e5a:	f9151ce3          	bne	a0,a7,80002df2 <main+0x63a>
    80002e5e:	00e83023          	sd	a4,0(a6)
    80002e62:	b0002473          	csrr	s0,mcycle
    80002e66:	4531                	li	a0,12
    80002e68:	07900593          	li	a1,121
    80002e6c:	fffff097          	auipc	ra,0xfffff
    80002e70:	2e8080e7          	jalr	744(ra) # 80002154 <conv1d>
    80002e74:	b0002573          	csrr	a0,mcycle
    80002e78:	9d01                	subw	a0,a0,s0
    80002e7a:	60a2                	ld	ra,8(sp)
    80002e7c:	6402                	ld	s0,0(sp)
    80002e7e:	0141                	addi	sp,sp,16
    80002e80:	8082                	ret

0000000080002e82 <vprintfmt>:
    80002e82:	7149                	addi	sp,sp,-368
    80002e84:	f2a2                	sd	s0,352(sp)
    80002e86:	eea6                	sd	s1,344(sp)
    80002e88:	eaca                	sd	s2,336(sp)
    80002e8a:	e2d2                	sd	s4,320(sp)
    80002e8c:	fe56                	sd	s5,312(sp)
    80002e8e:	fa5a                	sd	s6,304(sp)
    80002e90:	f65e                	sd	s7,296(sp)
    80002e92:	f686                	sd	ra,360(sp)
    80002e94:	e6ce                	sd	s3,328(sp)
    80002e96:	f262                	sd	s8,288(sp)
    80002e98:	ee66                	sd	s9,280(sp)
    80002e9a:	e66e                	sd	s11,264(sp)
    80002e9c:	892a                	mv	s2,a0
    80002e9e:	84ae                	mv	s1,a1
    80002ea0:	8432                	mv	s0,a2
    80002ea2:	8bb6                	mv	s7,a3
    80002ea4:	02500a13          	li	s4,37
    80002ea8:	05500b13          	li	s6,85
    80002eac:	00001a97          	auipc	s5,0x1
    80002eb0:	c04a8a93          	addi	s5,s5,-1020 # 80003ab0 <gen2+0x8>
    80002eb4:	a029                	j	80002ebe <vprintfmt+0x3c>
    80002eb6:	cd1d                	beqz	a0,80002ef4 <vprintfmt+0x72>
    80002eb8:	85a6                	mv	a1,s1
    80002eba:	0405                	addi	s0,s0,1
    80002ebc:	9902                	jalr	s2
    80002ebe:	00044503          	lbu	a0,0(s0)
    80002ec2:	ff451ae3          	bne	a0,s4,80002eb6 <vprintfmt+0x34>
    80002ec6:	00144683          	lbu	a3,1(s0)
    80002eca:	00140993          	addi	s3,s0,1
    80002ece:	874e                	mv	a4,s3
    80002ed0:	02000c93          	li	s9,32
    80002ed4:	5c7d                	li	s8,-1
    80002ed6:	5dfd                	li	s11,-1
    80002ed8:	4581                	li	a1,0
    80002eda:	fdd6879b          	addiw	a5,a3,-35
    80002ede:	0ff7f793          	zext.b	a5,a5
    80002ee2:	00170413          	addi	s0,a4,1
    80002ee6:	04fb6163          	bltu	s6,a5,80002f28 <vprintfmt+0xa6>
    80002eea:	078a                	slli	a5,a5,0x2
    80002eec:	97d6                	add	a5,a5,s5
    80002eee:	439c                	lw	a5,0(a5)
    80002ef0:	97d6                	add	a5,a5,s5
    80002ef2:	8782                	jr	a5
    80002ef4:	70b6                	ld	ra,360(sp)
    80002ef6:	7416                	ld	s0,352(sp)
    80002ef8:	64f6                	ld	s1,344(sp)
    80002efa:	6956                	ld	s2,336(sp)
    80002efc:	69b6                	ld	s3,328(sp)
    80002efe:	6a16                	ld	s4,320(sp)
    80002f00:	7af2                	ld	s5,312(sp)
    80002f02:	7b52                	ld	s6,304(sp)
    80002f04:	7bb2                	ld	s7,296(sp)
    80002f06:	7c12                	ld	s8,288(sp)
    80002f08:	6cf2                	ld	s9,280(sp)
    80002f0a:	6db2                	ld	s11,264(sp)
    80002f0c:	6175                	addi	sp,sp,368
    80002f0e:	8082                	ret
    80002f10:	8cb6                	mv	s9,a3
    80002f12:	00174683          	lbu	a3,1(a4)
    80002f16:	8722                	mv	a4,s0
    80002f18:	00170413          	addi	s0,a4,1
    80002f1c:	fdd6879b          	addiw	a5,a3,-35
    80002f20:	0ff7f793          	zext.b	a5,a5
    80002f24:	fcfb73e3          	bgeu	s6,a5,80002eea <vprintfmt+0x68>
    80002f28:	85a6                	mv	a1,s1
    80002f2a:	02500513          	li	a0,37
    80002f2e:	9902                	jalr	s2
    80002f30:	844e                	mv	s0,s3
    80002f32:	b771                	j	80002ebe <vprintfmt+0x3c>
    80002f34:	fd068c1b          	addiw	s8,a3,-48
    80002f38:	00174683          	lbu	a3,1(a4)
    80002f3c:	47a5                	li	a5,9
    80002f3e:	fd06871b          	addiw	a4,a3,-48
    80002f42:	0006861b          	sext.w	a2,a3
    80002f46:	20e7ef63          	bltu	a5,a4,80003164 <vprintfmt+0x2e2>
    80002f4a:	8722                	mv	a4,s0
    80002f4c:	4825                	li	a6,9
    80002f4e:	00174683          	lbu	a3,1(a4)
    80002f52:	002c179b          	slliw	a5,s8,0x2
    80002f56:	018787bb          	addw	a5,a5,s8
    80002f5a:	0017979b          	slliw	a5,a5,0x1
    80002f5e:	9fb1                	addw	a5,a5,a2
    80002f60:	fd06851b          	addiw	a0,a3,-48
    80002f64:	0705                	addi	a4,a4,1
    80002f66:	fd078c1b          	addiw	s8,a5,-48
    80002f6a:	0006861b          	sext.w	a2,a3
    80002f6e:	fea870e3          	bgeu	a6,a0,80002f4e <vprintfmt+0xcc>
    80002f72:	f60dd4e3          	bgez	s11,80002eda <vprintfmt+0x58>
    80002f76:	8de2                	mv	s11,s8
    80002f78:	5c7d                	li	s8,-1
    80002f7a:	b785                	j	80002eda <vprintfmt+0x58>
    80002f7c:	00174683          	lbu	a3,1(a4)
    80002f80:	8722                	mv	a4,s0
    80002f82:	bfa1                	j	80002eda <vprintfmt+0x58>
    80002f84:	85a6                	mv	a1,s1
    80002f86:	02500513          	li	a0,37
    80002f8a:	9902                	jalr	s2
    80002f8c:	bf0d                	j	80002ebe <vprintfmt+0x3c>
    80002f8e:	000bac03          	lw	s8,0(s7)
    80002f92:	00174683          	lbu	a3,1(a4)
    80002f96:	0ba1                	addi	s7,s7,8
    80002f98:	8722                	mv	a4,s0
    80002f9a:	bfe1                	j	80002f72 <vprintfmt+0xf0>
    80002f9c:	85a6                	mv	a1,s1
    80002f9e:	03000513          	li	a0,48
    80002fa2:	ea6a                	sd	s10,272(sp)
    80002fa4:	9902                	jalr	s2
    80002fa6:	85a6                	mv	a1,s1
    80002fa8:	07800513          	li	a0,120
    80002fac:	9902                	jalr	s2
    80002fae:	4641                	li	a2,16
    80002fb0:	008b8713          	addi	a4,s7,8
    80002fb4:	000bb783          	ld	a5,0(s7)
    80002fb8:	8bba                	mv	s7,a4
    80002fba:	02c7f5b3          	remu	a1,a5,a2
    80002fbe:	000c899b          	sext.w	s3,s9
    80002fc2:	0054                	addi	a3,sp,4
    80002fc4:	4705                	li	a4,1
    80002fc6:	c02e                	sw	a1,0(sp)
    80002fc8:	16c7ea63          	bltu	a5,a2,8000313c <vprintfmt+0x2ba>
    80002fcc:	02c7d7b3          	divu	a5,a5,a2
    80002fd0:	0691                	addi	a3,a3,4
    80002fd2:	8c3a                	mv	s8,a4
    80002fd4:	2705                	addiw	a4,a4,1
    80002fd6:	02c7f5b3          	remu	a1,a5,a2
    80002fda:	feb6ae23          	sw	a1,-4(a3)
    80002fde:	fec7f7e3          	bgeu	a5,a2,80002fcc <vprintfmt+0x14a>
    80002fe2:	fffd8c9b          	addiw	s9,s11,-1
    80002fe6:	fff70d1b          	addiw	s10,a4,-1
    80002fea:	01b75863          	bge	a4,s11,80002ffa <vprintfmt+0x178>
    80002fee:	85a6                	mv	a1,s1
    80002ff0:	854e                	mv	a0,s3
    80002ff2:	3cfd                	addiw	s9,s9,-1
    80002ff4:	9902                	jalr	s2
    80002ff6:	ffac9ce3          	bne	s9,s10,80002fee <vprintfmt+0x16c>
    80002ffa:	0c0a                	slli	s8,s8,0x2
    80002ffc:	018109b3          	add	s3,sp,s8
    80003000:	ffc10c93          	addi	s9,sp,-4
    80003004:	4c25                	li	s8,9
    80003006:	0009a783          	lw	a5,0(s3)
    8000300a:	03000513          	li	a0,48
    8000300e:	00fc7463          	bgeu	s8,a5,80003016 <vprintfmt+0x194>
    80003012:	05700513          	li	a0,87
    80003016:	85a6                	mv	a1,s1
    80003018:	9d3d                	addw	a0,a0,a5
    8000301a:	19f1                	addi	s3,s3,-4
    8000301c:	9902                	jalr	s2
    8000301e:	ff9994e3          	bne	s3,s9,80003006 <vprintfmt+0x184>
    80003022:	6d52                	ld	s10,272(sp)
    80003024:	bd69                	j	80002ebe <vprintfmt+0x3c>
    80003026:	ea6a                	sd	s10,272(sp)
    80003028:	4785                	li	a5,1
    8000302a:	008b8c13          	addi	s8,s7,8
    8000302e:	00b7c463          	blt	a5,a1,80003036 <vprintfmt+0x1b4>
    80003032:	10058763          	beqz	a1,80003140 <vprintfmt+0x2be>
    80003036:	000bb983          	ld	s3,0(s7)
    8000303a:	1009cc63          	bltz	s3,80003152 <vprintfmt+0x2d0>
    8000303e:	87ce                	mv	a5,s3
    80003040:	8be2                	mv	s7,s8
    80003042:	4629                	li	a2,10
    80003044:	bf9d                	j	80002fba <vprintfmt+0x138>
    80003046:	00174683          	lbu	a3,1(a4)
    8000304a:	2585                	addiw	a1,a1,1
    8000304c:	8722                	mv	a4,s0
    8000304e:	b571                	j	80002eda <vprintfmt+0x58>
    80003050:	ea6a                	sd	s10,272(sp)
    80003052:	4641                	li	a2,16
    80003054:	4785                	li	a5,1
    80003056:	008b8713          	addi	a4,s7,8
    8000305a:	f4b7cde3          	blt	a5,a1,80002fb4 <vprintfmt+0x132>
    8000305e:	f9b9                	bnez	a1,80002fb4 <vprintfmt+0x132>
    80003060:	000be783          	lwu	a5,0(s7)
    80003064:	8bba                	mv	s7,a4
    80003066:	bf91                	j	80002fba <vprintfmt+0x138>
    80003068:	ea6a                	sd	s10,272(sp)
    8000306a:	000bbd03          	ld	s10,0(s7)
    8000306e:	0ba1                	addi	s7,s7,8
    80003070:	040d0363          	beqz	s10,800030b6 <vprintfmt+0x234>
    80003074:	09b05e63          	blez	s11,80003110 <vprintfmt+0x28e>
    80003078:	02d00793          	li	a5,45
    8000307c:	04fc9f63          	bne	s9,a5,800030da <vprintfmt+0x258>
    80003080:	000d4503          	lbu	a0,0(s10)
    80003084:	c105                	beqz	a0,800030a4 <vprintfmt+0x222>
    80003086:	59fd                	li	s3,-1
    80003088:	000c4563          	bltz	s8,80003092 <vprintfmt+0x210>
    8000308c:	3c7d                	addiw	s8,s8,-1
    8000308e:	013c0963          	beq	s8,s3,800030a0 <vprintfmt+0x21e>
    80003092:	85a6                	mv	a1,s1
    80003094:	9902                	jalr	s2
    80003096:	001d4503          	lbu	a0,1(s10)
    8000309a:	3dfd                	addiw	s11,s11,-1
    8000309c:	0d05                	addi	s10,s10,1
    8000309e:	f56d                	bnez	a0,80003088 <vprintfmt+0x206>
    800030a0:	f9b051e3          	blez	s11,80003022 <vprintfmt+0x1a0>
    800030a4:	85a6                	mv	a1,s1
    800030a6:	02000513          	li	a0,32
    800030aa:	3dfd                	addiw	s11,s11,-1
    800030ac:	9902                	jalr	s2
    800030ae:	fe0d9be3          	bnez	s11,800030a4 <vprintfmt+0x222>
    800030b2:	6d52                	ld	s10,272(sp)
    800030b4:	b529                	j	80002ebe <vprintfmt+0x3c>
    800030b6:	00001d17          	auipc	s10,0x1
    800030ba:	b52d0d13          	addi	s10,s10,-1198 # 80003c08 <gen2+0x160>
    800030be:	02800513          	li	a0,40
    800030c2:	fdb052e3          	blez	s11,80003086 <vprintfmt+0x204>
    800030c6:	02d00793          	li	a5,45
    800030ca:	00001d17          	auipc	s10,0x1
    800030ce:	b3ed0d13          	addi	s10,s10,-1218 # 80003c08 <gen2+0x160>
    800030d2:	02800513          	li	a0,40
    800030d6:	fafc88e3          	beq	s9,a5,80003086 <vprintfmt+0x204>
    800030da:	000d861b          	sext.w	a2,s11
    800030de:	87ea                	mv	a5,s10
    800030e0:	018d06b3          	add	a3,s10,s8
    800030e4:	000c1663          	bnez	s8,800030f0 <vprintfmt+0x26e>
    800030e8:	a829                	j	80003102 <vprintfmt+0x280>
    800030ea:	0785                	addi	a5,a5,1
    800030ec:	00d78563          	beq	a5,a3,800030f6 <vprintfmt+0x274>
    800030f0:	0007c703          	lbu	a4,0(a5)
    800030f4:	fb7d                	bnez	a4,800030ea <vprintfmt+0x268>
    800030f6:	41a787b3          	sub	a5,a5,s10
    800030fa:	40f60dbb          	subw	s11,a2,a5
    800030fe:	01b05963          	blez	s11,80003110 <vprintfmt+0x28e>
    80003102:	2c81                	sext.w	s9,s9
    80003104:	85a6                	mv	a1,s1
    80003106:	8566                	mv	a0,s9
    80003108:	3dfd                	addiw	s11,s11,-1
    8000310a:	9902                	jalr	s2
    8000310c:	fe0d9ce3          	bnez	s11,80003104 <vprintfmt+0x282>
    80003110:	000d4503          	lbu	a0,0(s10)
    80003114:	d519                	beqz	a0,80003022 <vprintfmt+0x1a0>
    80003116:	59fd                	li	s3,-1
    80003118:	bf85                	j	80003088 <vprintfmt+0x206>
    8000311a:	fffdc793          	not	a5,s11
    8000311e:	97fd                	srai	a5,a5,0x3f
    80003120:	00fdf7b3          	and	a5,s11,a5
    80003124:	00174683          	lbu	a3,1(a4)
    80003128:	00078d9b          	sext.w	s11,a5
    8000312c:	8722                	mv	a4,s0
    8000312e:	b375                	j	80002eda <vprintfmt+0x58>
    80003130:	000ba503          	lw	a0,0(s7)
    80003134:	85a6                	mv	a1,s1
    80003136:	0ba1                	addi	s7,s7,8
    80003138:	9902                	jalr	s2
    8000313a:	b351                	j	80002ebe <vprintfmt+0x3c>
    8000313c:	4c01                	li	s8,0
    8000313e:	b555                	j	80002fe2 <vprintfmt+0x160>
    80003140:	000ba983          	lw	s3,0(s7)
    80003144:	bddd                	j	8000303a <vprintfmt+0x1b8>
    80003146:	ea6a                	sd	s10,272(sp)
    80003148:	4629                	li	a2,10
    8000314a:	b729                	j	80003054 <vprintfmt+0x1d2>
    8000314c:	ea6a                	sd	s10,272(sp)
    8000314e:	4621                	li	a2,8
    80003150:	b711                	j	80003054 <vprintfmt+0x1d2>
    80003152:	85a6                	mv	a1,s1
    80003154:	02d00513          	li	a0,45
    80003158:	9902                	jalr	s2
    8000315a:	413007b3          	neg	a5,s3
    8000315e:	8be2                	mv	s7,s8
    80003160:	4629                	li	a2,10
    80003162:	bda1                	j	80002fba <vprintfmt+0x138>
    80003164:	8722                	mv	a4,s0
    80003166:	b531                	j	80002f72 <vprintfmt+0xf0>

0000000080003168 <sprintf_putch.0>:
    80003168:	619c                	ld	a5,0(a1)
    8000316a:	00a78023          	sb	a0,0(a5)
    8000316e:	619c                	ld	a5,0(a1)
    80003170:	0785                	addi	a5,a5,1
    80003172:	e19c                	sd	a5,0(a1)
    80003174:	8082                	ret

0000000080003176 <putchar>:
    80003176:	04022803          	lw	a6,64(tp) # 40 <buflen.1>
    8000317a:	00020793          	mv	a5,tp
    8000317e:	97c2                	add	a5,a5,a6
    80003180:	7159                	addi	sp,sp,-112
    80003182:	0018069b          	addiw	a3,a6,1
    80003186:	04d22023          	sw	a3,64(tp) # 40 <buflen.1>
    8000318a:	00a78023          	sb	a0,0(a5)
    8000318e:	03f10713          	addi	a4,sp,63
    80003192:	47a9                	li	a5,10
    80003194:	fc077713          	andi	a4,a4,-64
    80003198:	00f50963          	beq	a0,a5,800031aa <putchar+0x34>
    8000319c:	04000793          	li	a5,64
    800031a0:	00f68563          	beq	a3,a5,800031aa <putchar+0x34>
    800031a4:	4501                	li	a0,0
    800031a6:	6165                	addi	sp,sp,112
    800031a8:	8082                	ret
    800031aa:	04000793          	li	a5,64
    800031ae:	e31c                	sd	a5,0(a4)
    800031b0:	4785                	li	a5,1
    800031b2:	e71c                	sd	a5,8(a4)
    800031b4:	00020613          	mv	a2,tp
    800031b8:	eb10                	sd	a2,16(a4)
    800031ba:	ef14                	sd	a3,24(a4)
    800031bc:	0ff0000f          	fence
    800031c0:	ffffe697          	auipc	a3,0xffffe
    800031c4:	e8068693          	addi	a3,a3,-384 # 80001040 <fromhost>
    800031c8:	ffffe797          	auipc	a5,0xffffe
    800031cc:	e2e7bc23          	sd	a4,-456(a5) # 80001000 <tohost>
    800031d0:	629c                	ld	a5,0(a3)
    800031d2:	dffd                	beqz	a5,800031d0 <putchar+0x5a>
    800031d4:	ffffe797          	auipc	a5,0xffffe
    800031d8:	e607b623          	sd	zero,-404(a5) # 80001040 <fromhost>
    800031dc:	0ff0000f          	fence
    800031e0:	04022023          	sw	zero,64(tp) # 40 <buflen.1>
    800031e4:	631c                	ld	a5,0(a4)
    800031e6:	4501                	li	a0,0
    800031e8:	6165                	addi	sp,sp,112
    800031ea:	8082                	ret

00000000800031ec <setStats>:
    800031ec:	b0002773          	csrr	a4,mcycle
    800031f0:	00007797          	auipc	a5,0x7
    800031f4:	84878793          	addi	a5,a5,-1976 # 80009a38 <counters>
    800031f8:	c511                	beqz	a0,80003204 <setStats+0x18>
    800031fa:	e398                	sd	a4,0(a5)
    800031fc:	b0202773          	csrr	a4,minstret
    80003200:	e798                	sd	a4,8(a5)
    80003202:	8082                	ret
    80003204:	6394                	ld	a3,0(a5)
    80003206:	00001617          	auipc	a2,0x1
    8000320a:	a1260613          	addi	a2,a2,-1518 # 80003c18 <gen2+0x170>
    8000320e:	eb90                	sd	a2,16(a5)
    80003210:	8f15                	sub	a4,a4,a3
    80003212:	e398                	sd	a4,0(a5)
    80003214:	b0202773          	csrr	a4,minstret
    80003218:	6794                	ld	a3,8(a5)
    8000321a:	00001617          	auipc	a2,0x1
    8000321e:	a0660613          	addi	a2,a2,-1530 # 80003c20 <gen2+0x178>
    80003222:	ef90                	sd	a2,24(a5)
    80003224:	8f15                	sub	a4,a4,a3
    80003226:	e798                	sd	a4,8(a5)
    80003228:	8082                	ret

000000008000322a <tohost_exit>:
    8000322a:	00151793          	slli	a5,a0,0x1
    8000322e:	0017e793          	ori	a5,a5,1
    80003232:	ffffe717          	auipc	a4,0xffffe
    80003236:	dcf73723          	sd	a5,-562(a4) # 80001000 <tohost>
    8000323a:	a001                	j	8000323a <tohost_exit+0x10>

000000008000323c <handle_trap>:
    8000323c:	6785                	lui	a5,0x1
    8000323e:	a7378793          	addi	a5,a5,-1421 # a73 <buflen.1+0xa33>
    80003242:	ffffe717          	auipc	a4,0xffffe
    80003246:	daf73f23          	sd	a5,-578(a4) # 80001000 <tohost>
    8000324a:	a001                	j	8000324a <handle_trap+0xe>

000000008000324c <exit>:
    8000324c:	1141                	addi	sp,sp,-16
    8000324e:	e406                	sd	ra,8(sp)
    80003250:	fdbff0ef          	jal	8000322a <tohost_exit>

0000000080003254 <abort>:
    80003254:	10d00793          	li	a5,269
    80003258:	ffffe717          	auipc	a4,0xffffe
    8000325c:	daf73423          	sd	a5,-600(a4) # 80001000 <tohost>
    80003260:	a001                	j	80003260 <abort+0xc>

0000000080003262 <printstr>:
    80003262:	00054783          	lbu	a5,0(a0)
    80003266:	7159                	addi	sp,sp,-112
    80003268:	03f10693          	addi	a3,sp,63
    8000326c:	fc06f693          	andi	a3,a3,-64
    80003270:	c3b9                	beqz	a5,800032b6 <printstr+0x54>
    80003272:	87aa                	mv	a5,a0
    80003274:	0017c703          	lbu	a4,1(a5)
    80003278:	0785                	addi	a5,a5,1
    8000327a:	ff6d                	bnez	a4,80003274 <printstr+0x12>
    8000327c:	8f89                	sub	a5,a5,a0
    8000327e:	04000713          	li	a4,64
    80003282:	e298                	sd	a4,0(a3)
    80003284:	4705                	li	a4,1
    80003286:	e698                	sd	a4,8(a3)
    80003288:	ea88                	sd	a0,16(a3)
    8000328a:	ee9c                	sd	a5,24(a3)
    8000328c:	0ff0000f          	fence
    80003290:	ffffe717          	auipc	a4,0xffffe
    80003294:	db070713          	addi	a4,a4,-592 # 80001040 <fromhost>
    80003298:	ffffe797          	auipc	a5,0xffffe
    8000329c:	d6d7b423          	sd	a3,-664(a5) # 80001000 <tohost>
    800032a0:	631c                	ld	a5,0(a4)
    800032a2:	dffd                	beqz	a5,800032a0 <printstr+0x3e>
    800032a4:	ffffe797          	auipc	a5,0xffffe
    800032a8:	d807be23          	sd	zero,-612(a5) # 80001040 <fromhost>
    800032ac:	0ff0000f          	fence
    800032b0:	629c                	ld	a5,0(a3)
    800032b2:	6165                	addi	sp,sp,112
    800032b4:	8082                	ret
    800032b6:	4781                	li	a5,0
    800032b8:	b7d9                	j	8000327e <printstr+0x1c>

00000000800032ba <thread_entry>:
    800032ba:	c111                	beqz	a0,800032be <thread_entry+0x4>
    800032bc:	a001                	j	800032bc <thread_entry+0x2>
    800032be:	8082                	ret

00000000800032c0 <printhex>:
    800032c0:	7179                	addi	sp,sp,-48
    800032c2:	87aa                	mv	a5,a0
    800032c4:	f406                	sd	ra,40(sp)
    800032c6:	0028                	addi	a0,sp,8
    800032c8:	01710713          	addi	a4,sp,23
    800032cc:	4825                	li	a6,9
    800032ce:	a011                	j	800032d2 <printhex+0x12>
    800032d0:	8736                	mv	a4,a3
    800032d2:	00f7f613          	andi	a2,a5,15
    800032d6:	86b2                	mv	a3,a2
    800032d8:	03000593          	li	a1,48
    800032dc:	00c87463          	bgeu	a6,a2,800032e4 <printhex+0x24>
    800032e0:	05700593          	li	a1,87
    800032e4:	9ead                	addw	a3,a3,a1
    800032e6:	00d70023          	sb	a3,0(a4)
    800032ea:	8391                	srli	a5,a5,0x4
    800032ec:	fff70693          	addi	a3,a4,-1
    800032f0:	fee510e3          	bne	a0,a4,800032d0 <printhex+0x10>
    800032f4:	00010c23          	sb	zero,24(sp)
    800032f8:	f6bff0ef          	jal	80003262 <printstr>
    800032fc:	70a2                	ld	ra,40(sp)
    800032fe:	6145                	addi	sp,sp,48
    80003300:	8082                	ret

0000000080003302 <printf>:
    80003302:	711d                	addi	sp,sp,-96
    80003304:	02810313          	addi	t1,sp,40
    80003308:	f42e                	sd	a1,40(sp)
    8000330a:	f832                	sd	a2,48(sp)
    8000330c:	fc36                	sd	a3,56(sp)
    8000330e:	862a                	mv	a2,a0
    80003310:	869a                	mv	a3,t1
    80003312:	00000517          	auipc	a0,0x0
    80003316:	e6450513          	addi	a0,a0,-412 # 80003176 <putchar>
    8000331a:	4581                	li	a1,0
    8000331c:	ec06                	sd	ra,24(sp)
    8000331e:	e0ba                	sd	a4,64(sp)
    80003320:	e4be                	sd	a5,72(sp)
    80003322:	e8c2                	sd	a6,80(sp)
    80003324:	ecc6                	sd	a7,88(sp)
    80003326:	e41a                	sd	t1,8(sp)
    80003328:	b5bff0ef          	jal	80002e82 <vprintfmt>
    8000332c:	60e2                	ld	ra,24(sp)
    8000332e:	4501                	li	a0,0
    80003330:	6125                	addi	sp,sp,96
    80003332:	8082                	ret

0000000080003334 <sprintf>:
    80003334:	711d                	addi	sp,sp,-96
    80003336:	03010e13          	addi	t3,sp,48
    8000333a:	f022                	sd	s0,32(sp)
    8000333c:	e42a                	sd	a0,8(sp)
    8000333e:	842a                	mv	s0,a0
    80003340:	f832                	sd	a2,48(sp)
    80003342:	fc36                	sd	a3,56(sp)
    80003344:	862e                	mv	a2,a1
    80003346:	00000517          	auipc	a0,0x0
    8000334a:	e2250513          	addi	a0,a0,-478 # 80003168 <sprintf_putch.0>
    8000334e:	002c                	addi	a1,sp,8
    80003350:	86f2                	mv	a3,t3
    80003352:	f406                	sd	ra,40(sp)
    80003354:	e4be                	sd	a5,72(sp)
    80003356:	e0ba                	sd	a4,64(sp)
    80003358:	e8c2                	sd	a6,80(sp)
    8000335a:	ecc6                	sd	a7,88(sp)
    8000335c:	ec72                	sd	t3,24(sp)
    8000335e:	b25ff0ef          	jal	80002e82 <vprintfmt>
    80003362:	67a2                	ld	a5,8(sp)
    80003364:	00078023          	sb	zero,0(a5)
    80003368:	6522                	ld	a0,8(sp)
    8000336a:	70a2                	ld	ra,40(sp)
    8000336c:	9d01                	subw	a0,a0,s0
    8000336e:	7402                	ld	s0,32(sp)
    80003370:	6125                	addi	sp,sp,96
    80003372:	8082                	ret

0000000080003374 <memcpy>:
    80003374:	00c5e7b3          	or	a5,a1,a2
    80003378:	8fc9                	or	a5,a5,a0
    8000337a:	8b9d                	andi	a5,a5,7
    8000337c:	00c506b3          	add	a3,a0,a2
    80003380:	cf91                	beqz	a5,8000339c <memcpy+0x28>
    80003382:	962e                	add	a2,a2,a1
    80003384:	87aa                	mv	a5,a0
    80003386:	02d57663          	bgeu	a0,a3,800033b2 <memcpy+0x3e>
    8000338a:	0005c703          	lbu	a4,0(a1)
    8000338e:	0585                	addi	a1,a1,1
    80003390:	0785                	addi	a5,a5,1
    80003392:	fee78fa3          	sb	a4,-1(a5)
    80003396:	feb61ae3          	bne	a2,a1,8000338a <memcpy+0x16>
    8000339a:	8082                	ret
    8000339c:	fed57fe3          	bgeu	a0,a3,8000339a <memcpy+0x26>
    800033a0:	87aa                	mv	a5,a0
    800033a2:	6198                	ld	a4,0(a1)
    800033a4:	07a1                	addi	a5,a5,8
    800033a6:	05a1                	addi	a1,a1,8
    800033a8:	fee7bc23          	sd	a4,-8(a5)
    800033ac:	fed7ebe3          	bltu	a5,a3,800033a2 <memcpy+0x2e>
    800033b0:	8082                	ret
    800033b2:	8082                	ret

00000000800033b4 <memset>:
    800033b4:	00c567b3          	or	a5,a0,a2
    800033b8:	8b9d                	andi	a5,a5,7
    800033ba:	962a                	add	a2,a2,a0
    800033bc:	cf81                	beqz	a5,800033d4 <memset+0x20>
    800033be:	0ff5f713          	zext.b	a4,a1
    800033c2:	87aa                	mv	a5,a0
    800033c4:	02c57f63          	bgeu	a0,a2,80003402 <memset+0x4e>
    800033c8:	0785                	addi	a5,a5,1
    800033ca:	fee78fa3          	sb	a4,-1(a5)
    800033ce:	fec79de3          	bne	a5,a2,800033c8 <memset+0x14>
    800033d2:	8082                	ret
    800033d4:	010107b7          	lui	a5,0x1010
    800033d8:	10178793          	addi	a5,a5,257 # 1010101 <buflen.1+0x10100c1>
    800033dc:	07c2                	slli	a5,a5,0x10
    800033de:	10178793          	addi	a5,a5,257
    800033e2:	07c2                	slli	a5,a5,0x10
    800033e4:	0ff5f713          	zext.b	a4,a1
    800033e8:	10178793          	addi	a5,a5,257
    800033ec:	02f70733          	mul	a4,a4,a5
    800033f0:	fec571e3          	bgeu	a0,a2,800033d2 <memset+0x1e>
    800033f4:	87aa                	mv	a5,a0
    800033f6:	07a1                	addi	a5,a5,8
    800033f8:	fee7bc23          	sd	a4,-8(a5)
    800033fc:	fec7ede3          	bltu	a5,a2,800033f6 <memset+0x42>
    80003400:	8082                	ret
    80003402:	8082                	ret

0000000080003404 <_init>:
    80003404:	7171                	addi	sp,sp,-176
    80003406:	00006797          	auipc	a5,0x6
    8000340a:	65278793          	addi	a5,a5,1618 # 80009a58 <_tdata_begin>
    8000340e:	e152                	sd	s4,128(sp)
    80003410:	00006a17          	auipc	s4,0x6
    80003414:	648a0a13          	addi	s4,s4,1608 # 80009a58 <_tdata_begin>
    80003418:	e54e                	sd	s3,136(sp)
    8000341a:	40fa09b3          	sub	s3,s4,a5
    8000341e:	ed26                	sd	s1,152(sp)
    80003420:	e94a                	sd	s2,144(sp)
    80003422:	84aa                	mv	s1,a0
    80003424:	892e                	mv	s2,a1
    80003426:	8512                	mv	a0,tp
    80003428:	85be                	mv	a1,a5
    8000342a:	864e                	mv	a2,s3
    8000342c:	f506                	sd	ra,168(sp)
    8000342e:	f122                	sd	s0,160(sp)
    80003430:	fcd6                	sd	s5,120(sp)
    80003432:	8a92                	mv	s5,tp
    80003434:	f41ff0ef          	jal	80003374 <memcpy>
    80003438:	00006617          	auipc	a2,0x6
    8000343c:	68c60613          	addi	a2,a2,1676 # 80009ac4 <_tbss_end>
    80003440:	41460633          	sub	a2,a2,s4
    80003444:	4581                	li	a1,0
    80003446:	013a8533          	add	a0,s5,s3
    8000344a:	f6bff0ef          	jal	800033b4 <memset>
    8000344e:	85ca                	mv	a1,s2
    80003450:	8526                	mv	a0,s1
    80003452:	e69ff0ef          	jal	800032ba <thread_entry>
    80003456:	4581                	li	a1,0
    80003458:	4501                	li	a0,0
    8000345a:	b5eff0ef          	jal	800027b8 <main>
    8000345e:	00006917          	auipc	s2,0x6
    80003462:	5da90913          	addi	s2,s2,1498 # 80009a38 <counters>
    80003466:	00093683          	ld	a3,0(s2)
    8000346a:	03f10413          	addi	s0,sp,63
    8000346e:	fc047413          	andi	s0,s0,-64
    80003472:	84aa                	mv	s1,a0
    80003474:	ea85                	bnez	a3,800034a4 <_init+0xa0>
    80003476:	00893683          	ld	a3,8(s2)
    8000347a:	e681                	bnez	a3,80003482 <_init+0x7e>
    8000347c:	8526                	mv	a0,s1
    8000347e:	dadff0ef          	jal	8000322a <tohost_exit>
    80003482:	89a2                	mv	s3,s0
    80003484:	01893603          	ld	a2,24(s2)
    80003488:	854e                	mv	a0,s3
    8000348a:	00000597          	auipc	a1,0x0
    8000348e:	7be58593          	addi	a1,a1,1982 # 80003c48 <gen2+0x1a0>
    80003492:	ea3ff0ef          	jal	80003334 <sprintf>
    80003496:	99aa                	add	s3,s3,a0
    80003498:	ff3402e3          	beq	s0,s3,8000347c <_init+0x78>
    8000349c:	8522                	mv	a0,s0
    8000349e:	dc5ff0ef          	jal	80003262 <printstr>
    800034a2:	bfe9                	j	8000347c <_init+0x78>
    800034a4:	01093603          	ld	a2,16(s2)
    800034a8:	00000597          	auipc	a1,0x0
    800034ac:	7a058593          	addi	a1,a1,1952 # 80003c48 <gen2+0x1a0>
    800034b0:	8522                	mv	a0,s0
    800034b2:	e83ff0ef          	jal	80003334 <sprintf>
    800034b6:	00893683          	ld	a3,8(s2)
    800034ba:	00a409b3          	add	s3,s0,a0
    800034be:	dee9                	beqz	a3,80003498 <_init+0x94>
    800034c0:	b7d1                	j	80003484 <_init+0x80>

00000000800034c2 <strlen>:
    800034c2:	00054783          	lbu	a5,0(a0)
    800034c6:	cb89                	beqz	a5,800034d8 <strlen+0x16>
    800034c8:	87aa                	mv	a5,a0
    800034ca:	0017c703          	lbu	a4,1(a5)
    800034ce:	0785                	addi	a5,a5,1
    800034d0:	ff6d                	bnez	a4,800034ca <strlen+0x8>
    800034d2:	40a78533          	sub	a0,a5,a0
    800034d6:	8082                	ret
    800034d8:	4501                	li	a0,0
    800034da:	8082                	ret

00000000800034dc <strnlen>:
    800034dc:	00b506b3          	add	a3,a0,a1
    800034e0:	87aa                	mv	a5,a0
    800034e2:	e589                	bnez	a1,800034ec <strnlen+0x10>
    800034e4:	a829                	j	800034fe <strnlen+0x22>
    800034e6:	0785                	addi	a5,a5,1
    800034e8:	00f68863          	beq	a3,a5,800034f8 <strnlen+0x1c>
    800034ec:	0007c703          	lbu	a4,0(a5)
    800034f0:	fb7d                	bnez	a4,800034e6 <strnlen+0xa>
    800034f2:	40a78533          	sub	a0,a5,a0
    800034f6:	8082                	ret
    800034f8:	40a68533          	sub	a0,a3,a0
    800034fc:	8082                	ret
    800034fe:	4501                	li	a0,0
    80003500:	8082                	ret

0000000080003502 <strcmp>:
    80003502:	00054783          	lbu	a5,0(a0)
    80003506:	0585                	addi	a1,a1,1
    80003508:	0505                	addi	a0,a0,1
    8000350a:	fff5c703          	lbu	a4,-1(a1)
    8000350e:	c799                	beqz	a5,8000351c <strcmp+0x1a>
    80003510:	fee789e3          	beq	a5,a4,80003502 <strcmp>
    80003514:	0007851b          	sext.w	a0,a5
    80003518:	9d19                	subw	a0,a0,a4
    8000351a:	8082                	ret
    8000351c:	4501                	li	a0,0
    8000351e:	bfed                	j	80003518 <strcmp+0x16>

0000000080003520 <strcpy>:
    80003520:	87aa                	mv	a5,a0
    80003522:	0005c703          	lbu	a4,0(a1)
    80003526:	0785                	addi	a5,a5,1
    80003528:	0585                	addi	a1,a1,1
    8000352a:	fee78fa3          	sb	a4,-1(a5)
    8000352e:	fb75                	bnez	a4,80003522 <strcpy+0x2>
    80003530:	8082                	ret

0000000080003532 <atol>:
    80003532:	00054703          	lbu	a4,0(a0)
    80003536:	02000693          	li	a3,32
    8000353a:	87aa                	mv	a5,a0
    8000353c:	00d71763          	bne	a4,a3,8000354a <atol+0x18>
    80003540:	0017c703          	lbu	a4,1(a5)
    80003544:	0785                	addi	a5,a5,1
    80003546:	fed70de3          	beq	a4,a3,80003540 <atol+0xe>
    8000354a:	02d00693          	li	a3,45
    8000354e:	04d70163          	beq	a4,a3,80003590 <atol+0x5e>
    80003552:	02b00693          	li	a3,43
    80003556:	02d70763          	beq	a4,a3,80003584 <atol+0x52>
    8000355a:	0007c683          	lbu	a3,0(a5)
    8000355e:	4581                	li	a1,0
    80003560:	ce8d                	beqz	a3,8000359a <atol+0x68>
    80003562:	4501                	li	a0,0
    80003564:	0785                	addi	a5,a5,1
    80003566:	00251713          	slli	a4,a0,0x2
    8000356a:	fd06861b          	addiw	a2,a3,-48
    8000356e:	0007c683          	lbu	a3,0(a5)
    80003572:	972a                	add	a4,a4,a0
    80003574:	0706                	slli	a4,a4,0x1
    80003576:	00e60533          	add	a0,a2,a4
    8000357a:	f6ed                	bnez	a3,80003564 <atol+0x32>
    8000357c:	c185                	beqz	a1,8000359c <atol+0x6a>
    8000357e:	40a00533          	neg	a0,a0
    80003582:	8082                	ret
    80003584:	0017c683          	lbu	a3,1(a5)
    80003588:	0785                	addi	a5,a5,1
    8000358a:	ca81                	beqz	a3,8000359a <atol+0x68>
    8000358c:	4581                	li	a1,0
    8000358e:	bfd1                	j	80003562 <atol+0x30>
    80003590:	0017c683          	lbu	a3,1(a5)
    80003594:	4585                	li	a1,1
    80003596:	0785                	addi	a5,a5,1
    80003598:	f6e9                	bnez	a3,80003562 <atol+0x30>
    8000359a:	4501                	li	a0,0
    8000359c:	8082                	ret

000000008000359e <__errno>:
    8000359e:	83818513          	addi	a0,gp,-1992 # 80003c90 <__errno_location>
    800035a2:	8082                	ret

00000000800035a4 <atoi>:
    800035a4:	cd41                	beqz	a0,8000363c <atoi+0x98>
    800035a6:	02000693          	li	a3,32
    800035aa:	4611                	li	a2,4
    800035ac:	00054783          	lbu	a5,0(a0)
    800035b0:	ff77871b          	addiw	a4,a5,-9
    800035b4:	0ff77713          	zext.b	a4,a4
    800035b8:	06d78863          	beq	a5,a3,80003628 <atoi+0x84>
    800035bc:	06e67663          	bgeu	a2,a4,80003628 <atoi+0x84>
    800035c0:	02b00713          	li	a4,43
    800035c4:	06e78763          	beq	a5,a4,80003632 <atoi+0x8e>
    800035c8:	02d00713          	li	a4,45
    800035cc:	4305                	li	t1,1
    800035ce:	06e78963          	beq	a5,a4,80003640 <atoi+0x9c>
    800035d2:	fd07879b          	addiw	a5,a5,-48
    800035d6:	0ff7f693          	zext.b	a3,a5
    800035da:	4725                	li	a4,9
    800035dc:	06d76063          	bltu	a4,a3,8000363c <atoi+0x98>
    800035e0:	800005b7          	lui	a1,0x80000
    800035e4:	4681                	li	a3,0
    800035e6:	35fd                	addiw	a1,a1,-1 # 7fffffff <buflen.1+0x7fffffbf>
    800035e8:	4829                	li	a6,10
    800035ea:	48a5                	li	a7,9
    800035ec:	a819                	j	80003602 <atoi+0x5e>
    800035ee:	00054783          	lbu	a5,0(a0)
    800035f2:	0007069b          	sext.w	a3,a4
    800035f6:	fd07879b          	addiw	a5,a5,-48
    800035fa:	0ff7f613          	zext.b	a2,a5
    800035fe:	02c8e763          	bltu	a7,a2,8000362c <atoi+0x88>
    80003602:	40f5863b          	subw	a2,a1,a5
    80003606:	0306463b          	divw	a2,a2,a6
    8000360a:	0026971b          	slliw	a4,a3,0x2
    8000360e:	9f35                	addw	a4,a4,a3
    80003610:	0017171b          	slliw	a4,a4,0x1
    80003614:	0505                	addi	a0,a0,1
    80003616:	9f3d                	addw	a4,a4,a5
    80003618:	fcd65be3          	bge	a2,a3,800035ee <atoi+0x4a>
    8000361c:	4785                	li	a5,1
    8000361e:	80000537          	lui	a0,0x80000
    80003622:	02f30163          	beq	t1,a5,80003644 <atoi+0xa0>
    80003626:	8082                	ret
    80003628:	0505                	addi	a0,a0,1 # ffffffff80000001 <_tbss_end+0xfffffffeffff653d>
    8000362a:	b749                	j	800035ac <atoi+0x8>
    8000362c:	0267053b          	mulw	a0,a4,t1
    80003630:	8082                	ret
    80003632:	4305                	li	t1,1
    80003634:	00154783          	lbu	a5,1(a0)
    80003638:	0505                	addi	a0,a0,1
    8000363a:	bf61                	j	800035d2 <atoi+0x2e>
    8000363c:	4501                	li	a0,0
    8000363e:	8082                	ret
    80003640:	537d                	li	t1,-1
    80003642:	bfcd                	j	80003634 <atoi+0x90>
    80003644:	fff54513          	not	a0,a0
    80003648:	8082                	ret

000000008000364a <strtol>:
    8000364a:	872a                	mv	a4,a0
    8000364c:	4811                	li	a6,4
    8000364e:	02000513          	li	a0,32
    80003652:	00074683          	lbu	a3,0(a4)
    80003656:	ff76879b          	addiw	a5,a3,-9
    8000365a:	0ff7f793          	zext.b	a5,a5
    8000365e:	04a68b63          	beq	a3,a0,800036b4 <strtol+0x6a>
    80003662:	04f87963          	bgeu	a6,a5,800036b4 <strtol+0x6a>
    80003666:	02d00793          	li	a5,45
    8000366a:	08f68963          	beq	a3,a5,800036fc <strtol+0xb2>
    8000366e:	02b00793          	li	a5,43
    80003672:	4e01                	li	t3,0
    80003674:	08f68063          	beq	a3,a5,800036f4 <strtol+0xaa>
    80003678:	ee29                	bnez	a2,800036d2 <strtol+0x88>
    8000367a:	03000793          	li	a5,48
    8000367e:	4629                	li	a2,10
    80003680:	08f68363          	beq	a3,a5,80003706 <strtol+0xbc>
    80003684:	4501                	li	a0,0
    80003686:	48a5                	li	a7,9
    80003688:	4365                	li	t1,25
    8000368a:	00074683          	lbu	a3,0(a4)
    8000368e:	fd06879b          	addiw	a5,a3,-48
    80003692:	f9f6881b          	addiw	a6,a3,-97
    80003696:	00f8f863          	bgeu	a7,a5,800036a6 <strtol+0x5c>
    8000369a:	fbf6879b          	addiw	a5,a3,-65
    8000369e:	01036d63          	bltu	t1,a6,800036b8 <strtol+0x6e>
    800036a2:	fa96879b          	addiw	a5,a3,-87
    800036a6:	00c7df63          	bge	a5,a2,800036c4 <strtol+0x7a>
    800036aa:	02a60533          	mul	a0,a2,a0
    800036ae:	0705                	addi	a4,a4,1
    800036b0:	953e                	add	a0,a0,a5
    800036b2:	bfe1                	j	8000368a <strtol+0x40>
    800036b4:	0705                	addi	a4,a4,1
    800036b6:	bf71                	j	80003652 <strtol+0x8>
    800036b8:	00f36663          	bltu	t1,a5,800036c4 <strtol+0x7a>
    800036bc:	fc96879b          	addiw	a5,a3,-55
    800036c0:	fec7c5e3          	blt	a5,a2,800036aa <strtol+0x60>
    800036c4:	c191                	beqz	a1,800036c8 <strtol+0x7e>
    800036c6:	e198                	sd	a4,0(a1)
    800036c8:	000e0463          	beqz	t3,800036d0 <strtol+0x86>
    800036cc:	40a00533          	neg	a0,a0
    800036d0:	8082                	ret
    800036d2:	47c1                	li	a5,16
    800036d4:	faf618e3          	bne	a2,a5,80003684 <strtol+0x3a>
    800036d8:	03000793          	li	a5,48
    800036dc:	faf694e3          	bne	a3,a5,80003684 <strtol+0x3a>
    800036e0:	00174783          	lbu	a5,1(a4)
    800036e4:	05800693          	li	a3,88
    800036e8:	0df7f793          	andi	a5,a5,223
    800036ec:	f8d79ce3          	bne	a5,a3,80003684 <strtol+0x3a>
    800036f0:	0709                	addi	a4,a4,2
    800036f2:	bf49                	j	80003684 <strtol+0x3a>
    800036f4:	00174683          	lbu	a3,1(a4)
    800036f8:	0705                	addi	a4,a4,1
    800036fa:	bfbd                	j	80003678 <strtol+0x2e>
    800036fc:	00174683          	lbu	a3,1(a4)
    80003700:	4e05                	li	t3,1
    80003702:	0705                	addi	a4,a4,1
    80003704:	bf95                	j	80003678 <strtol+0x2e>
    80003706:	00174783          	lbu	a5,1(a4)
    8000370a:	05800693          	li	a3,88
    8000370e:	0df7f793          	andi	a5,a5,223
    80003712:	00d78563          	beq	a5,a3,8000371c <strtol+0xd2>
    80003716:	0705                	addi	a4,a4,1
    80003718:	4621                	li	a2,8
    8000371a:	b7ad                	j	80003684 <strtol+0x3a>
    8000371c:	0709                	addi	a4,a4,2
    8000371e:	4641                	li	a2,16
    80003720:	b795                	j	80003684 <strtol+0x3a>

0000000080003722 <my_isspace>:
    80003722:	02000793          	li	a5,32
    80003726:	00f50863          	beq	a0,a5,80003736 <my_isspace+0x14>
    8000372a:	355d                	addiw	a0,a0,-9
    8000372c:	0ff57513          	zext.b	a0,a0
    80003730:	00553513          	sltiu	a0,a0,5
    80003734:	8082                	ret
    80003736:	4505                	li	a0,1
    80003738:	8082                	ret

000000008000373a <my_isdigit>:
    8000373a:	fd05051b          	addiw	a0,a0,-48
    8000373e:	0ff57513          	zext.b	a0,a0
    80003742:	00a53513          	sltiu	a0,a0,10
    80003746:	8082                	ret

0000000080003748 <strtod>:
    80003748:	02000693          	li	a3,32
    8000374c:	4611                	li	a2,4
    8000374e:	00054783          	lbu	a5,0(a0)
    80003752:	ff77871b          	addiw	a4,a5,-9
    80003756:	0ff77713          	zext.b	a4,a4
    8000375a:	08d78263          	beq	a5,a3,800037de <strtod+0x96>
    8000375e:	08e67063          	bgeu	a2,a4,800037de <strtod+0x96>
    80003762:	02d00713          	li	a4,45
    80003766:	06e78e63          	beq	a5,a4,800037e2 <strtod+0x9a>
    8000376a:	02b00713          	li	a4,43
    8000376e:	08e78663          	beq	a5,a4,800037fa <strtod+0xb2>
    80003772:	00000717          	auipc	a4,0x0
    80003776:	4e673587          	fld	fa1,1254(a4) # 80003c58 <gen2+0x1b0>
    8000377a:	22b58553          	fmv.d	fa0,fa1
    8000377e:	fd07871b          	addiw	a4,a5,-48
    80003782:	0ff77613          	zext.b	a2,a4
    80003786:	46a5                	li	a3,9
    80003788:	f20007d3          	fmv.d.x	fa5,zero
    8000378c:	02c6e463          	bltu	a3,a2,800037b4 <strtod+0x6c>
    80003790:	00000797          	auipc	a5,0x0
    80003794:	4d87b687          	fld	fa3,1240(a5) # 80003c68 <gen2+0x1c0>
    80003798:	4625                	li	a2,9
    8000379a:	00154783          	lbu	a5,1(a0)
    8000379e:	d2070753          	fcvt.d.w	fa4,a4
    800037a2:	0505                	addi	a0,a0,1
    800037a4:	fd07871b          	addiw	a4,a5,-48
    800037a8:	0ff77693          	zext.b	a3,a4
    800037ac:	72d7f7c3          	fmadd.d	fa5,fa5,fa3,fa4
    800037b0:	fed675e3          	bgeu	a2,a3,8000379a <strtod+0x52>
    800037b4:	02e00713          	li	a4,46
    800037b8:	0ce78363          	beq	a5,a4,8000387e <strtod+0x136>
    800037bc:	00054703          	lbu	a4,0(a0)
    800037c0:	0df77713          	andi	a4,a4,223
    800037c4:	04500793          	li	a5,69
    800037c8:	22b58753          	fmv.d	fa4,fa1
    800037cc:	04f70163          	beq	a4,a5,8000380e <strtod+0xc6>
    800037d0:	12a7f553          	fmul.d	fa0,fa5,fa0
    800037d4:	12e57553          	fmul.d	fa0,fa0,fa4
    800037d8:	c191                	beqz	a1,800037dc <strtod+0x94>
    800037da:	e188                	sd	a0,0(a1)
    800037dc:	8082                	ret
    800037de:	0505                	addi	a0,a0,1
    800037e0:	b7bd                	j	8000374e <strtod+0x6>
    800037e2:	00154783          	lbu	a5,1(a0)
    800037e6:	00000717          	auipc	a4,0x0
    800037ea:	47a73507          	fld	fa0,1146(a4) # 80003c60 <gen2+0x1b8>
    800037ee:	0505                	addi	a0,a0,1
    800037f0:	00000717          	auipc	a4,0x0
    800037f4:	46873587          	fld	fa1,1128(a4) # 80003c58 <gen2+0x1b0>
    800037f8:	b759                	j	8000377e <strtod+0x36>
    800037fa:	00000797          	auipc	a5,0x0
    800037fe:	45e7b587          	fld	fa1,1118(a5) # 80003c58 <gen2+0x1b0>
    80003802:	00154783          	lbu	a5,1(a0)
    80003806:	22b58553          	fmv.d	fa0,fa1
    8000380a:	0505                	addi	a0,a0,1
    8000380c:	bf8d                	j	8000377e <strtod+0x36>
    8000380e:	00154803          	lbu	a6,1(a0)
    80003812:	02d00793          	li	a5,45
    80003816:	0cf80363          	beq	a6,a5,800038dc <strtod+0x194>
    8000381a:	02b00793          	li	a5,43
    8000381e:	0ef80563          	beq	a6,a5,80003908 <strtod+0x1c0>
    80003822:	0505                	addi	a0,a0,1
    80003824:	4705                	li	a4,1
    80003826:	fd08069b          	addiw	a3,a6,-48
    8000382a:	0ff6f613          	zext.b	a2,a3
    8000382e:	47a5                	li	a5,9
    80003830:	0ec7e163          	bltu	a5,a2,80003912 <strtod+0x1ca>
    80003834:	4601                	li	a2,0
    80003836:	48a5                	li	a7,9
    80003838:	00154803          	lbu	a6,1(a0)
    8000383c:	0026179b          	slliw	a5,a2,0x2
    80003840:	9fb1                	addw	a5,a5,a2
    80003842:	0017979b          	slliw	a5,a5,0x1
    80003846:	00f6863b          	addw	a2,a3,a5
    8000384a:	fd08069b          	addiw	a3,a6,-48
    8000384e:	0ff6f813          	zext.b	a6,a3
    80003852:	0505                	addi	a0,a0,1
    80003854:	ff08f2e3          	bgeu	a7,a6,80003838 <strtod+0xf0>
    80003858:	02c7073b          	mulw	a4,a4,a2
    8000385c:	08075563          	bgez	a4,800038e6 <strtod+0x19e>
    80003860:	22b58753          	fmv.d	fa4,fa1
    80003864:	0017079b          	addiw	a5,a4,1
    80003868:	00000717          	auipc	a4,0x0
    8000386c:	40873687          	fld	fa3,1032(a4) # 80003c70 <gen2+0x1c8>
    80003870:	4705                	li	a4,1
    80003872:	2785                	addiw	a5,a5,1
    80003874:	12d77753          	fmul.d	fa4,fa4,fa3
    80003878:	fee79de3          	bne	a5,a4,80003872 <strtod+0x12a>
    8000387c:	bf91                	j	800037d0 <strtod+0x88>
    8000387e:	00154703          	lbu	a4,1(a0)
    80003882:	46a5                	li	a3,9
    80003884:	0505                	addi	a0,a0,1
    80003886:	fd07079b          	addiw	a5,a4,-48
    8000388a:	0ff7f613          	zext.b	a2,a5
    8000388e:	f2c6e9e3          	bltu	a3,a2,800037c0 <strtod+0x78>
    80003892:	d2078753          	fcvt.d.w	fa4,a5
    80003896:	4325                	li	t1,9
    80003898:	4781                	li	a5,0
    8000389a:	00000717          	auipc	a4,0x0
    8000389e:	3d673687          	fld	fa3,982(a4) # 80003c70 <gen2+0x1c8>
    800038a2:	4685                	li	a3,1
    800038a4:	00154703          	lbu	a4,1(a0)
    800038a8:	02e7f7d3          	fadd.d	fa5,fa5,fa4
    800038ac:	0505                	addi	a0,a0,1
    800038ae:	fd07061b          	addiw	a2,a4,-48
    800038b2:	0ff67813          	zext.b	a6,a2
    800038b6:	0017889b          	addiw	a7,a5,1
    800038ba:	f10363e3          	bltu	t1,a6,800037c0 <strtod+0x78>
    800038be:	22b58753          	fmv.d	fa4,fa1
    800038c2:	40f007bb          	negw	a5,a5
    800038c6:	2785                	addiw	a5,a5,1
    800038c8:	12d77753          	fmul.d	fa4,fa4,fa3
    800038cc:	fed79de3          	bne	a5,a3,800038c6 <strtod+0x17e>
    800038d0:	d2060653          	fcvt.d.w	fa2,a2
    800038d4:	87c6                	mv	a5,a7
    800038d6:	12e67753          	fmul.d	fa4,fa2,fa4
    800038da:	b7e9                	j	800038a4 <strtod+0x15c>
    800038dc:	00254803          	lbu	a6,2(a0)
    800038e0:	577d                	li	a4,-1
    800038e2:	0509                	addi	a0,a0,2
    800038e4:	b789                	j	80003826 <strtod+0xde>
    800038e6:	22b58753          	fmv.d	fa4,fa1
    800038ea:	fff7079b          	addiw	a5,a4,-1
    800038ee:	ee0701e3          	beqz	a4,800037d0 <strtod+0x88>
    800038f2:	00000717          	auipc	a4,0x0
    800038f6:	37673687          	fld	fa3,886(a4) # 80003c68 <gen2+0x1c0>
    800038fa:	577d                	li	a4,-1
    800038fc:	37fd                	addiw	a5,a5,-1
    800038fe:	12d77753          	fmul.d	fa4,fa4,fa3
    80003902:	fee79de3          	bne	a5,a4,800038fc <strtod+0x1b4>
    80003906:	b5e9                	j	800037d0 <strtod+0x88>
    80003908:	00254803          	lbu	a6,2(a0)
    8000390c:	4705                	li	a4,1
    8000390e:	0509                	addi	a0,a0,2
    80003910:	bf19                	j	80003826 <strtod+0xde>
    80003912:	22b58753          	fmv.d	fa4,fa1
    80003916:	bd6d                	j	800037d0 <strtod+0x88>

0000000080003918 <atof>:
    80003918:	4581                	li	a1,0
    8000391a:	b53d                	j	80003748 <strtod>

000000008000391c <strtoll>:
    8000391c:	872a                	mv	a4,a0
    8000391e:	4811                	li	a6,4
    80003920:	02000513          	li	a0,32
    80003924:	00074683          	lbu	a3,0(a4)
    80003928:	ff76879b          	addiw	a5,a3,-9
    8000392c:	0ff7f793          	zext.b	a5,a5
    80003930:	04a68963          	beq	a3,a0,80003982 <strtoll+0x66>
    80003934:	04f87763          	bgeu	a6,a5,80003982 <strtoll+0x66>
    80003938:	02d00793          	li	a5,45
    8000393c:	08f68663          	beq	a3,a5,800039c8 <strtoll+0xac>
    80003940:	02b00793          	li	a5,43
    80003944:	4e01                	li	t3,0
    80003946:	06f68d63          	beq	a3,a5,800039c0 <strtoll+0xa4>
    8000394a:	ca39                	beqz	a2,800039a0 <strtoll+0x84>
    8000394c:	47c1                	li	a5,16
    8000394e:	08f60263          	beq	a2,a5,800039d2 <strtoll+0xb6>
    80003952:	4501                	li	a0,0
    80003954:	48a5                	li	a7,9
    80003956:	4365                	li	t1,25
    80003958:	00074683          	lbu	a3,0(a4)
    8000395c:	fd06879b          	addiw	a5,a3,-48
    80003960:	f9f6881b          	addiw	a6,a3,-97
    80003964:	00f8f863          	bgeu	a7,a5,80003974 <strtoll+0x58>
    80003968:	fbf6879b          	addiw	a5,a3,-65
    8000396c:	01036d63          	bltu	t1,a6,80003986 <strtoll+0x6a>
    80003970:	fa96879b          	addiw	a5,a3,-87
    80003974:	00c7df63          	bge	a5,a2,80003992 <strtoll+0x76>
    80003978:	02a60533          	mul	a0,a2,a0
    8000397c:	0705                	addi	a4,a4,1
    8000397e:	953e                	add	a0,a0,a5
    80003980:	bfe1                	j	80003958 <strtoll+0x3c>
    80003982:	0705                	addi	a4,a4,1
    80003984:	b745                	j	80003924 <strtoll+0x8>
    80003986:	00f36663          	bltu	t1,a5,80003992 <strtoll+0x76>
    8000398a:	fc96879b          	addiw	a5,a3,-55
    8000398e:	fec7c5e3          	blt	a5,a2,80003978 <strtoll+0x5c>
    80003992:	c191                	beqz	a1,80003996 <strtoll+0x7a>
    80003994:	e198                	sd	a4,0(a1)
    80003996:	000e0463          	beqz	t3,8000399e <strtoll+0x82>
    8000399a:	40a00533          	neg	a0,a0
    8000399e:	8082                	ret
    800039a0:	03000793          	li	a5,48
    800039a4:	4629                	li	a2,10
    800039a6:	faf696e3          	bne	a3,a5,80003952 <strtoll+0x36>
    800039aa:	00174783          	lbu	a5,1(a4)
    800039ae:	05800693          	li	a3,88
    800039b2:	0df7f793          	andi	a5,a5,223
    800039b6:	02d78a63          	beq	a5,a3,800039ea <strtoll+0xce>
    800039ba:	0705                	addi	a4,a4,1
    800039bc:	4621                	li	a2,8
    800039be:	bf51                	j	80003952 <strtoll+0x36>
    800039c0:	00174683          	lbu	a3,1(a4)
    800039c4:	0705                	addi	a4,a4,1
    800039c6:	b751                	j	8000394a <strtoll+0x2e>
    800039c8:	00174683          	lbu	a3,1(a4)
    800039cc:	4e05                	li	t3,1
    800039ce:	0705                	addi	a4,a4,1
    800039d0:	bfad                	j	8000394a <strtoll+0x2e>
    800039d2:	03000793          	li	a5,48
    800039d6:	f6f69ee3          	bne	a3,a5,80003952 <strtoll+0x36>
    800039da:	00174783          	lbu	a5,1(a4)
    800039de:	05800693          	li	a3,88
    800039e2:	0df7f793          	andi	a5,a5,223
    800039e6:	f6d796e3          	bne	a5,a3,80003952 <strtoll+0x36>
    800039ea:	0709                	addi	a4,a4,2
    800039ec:	4641                	li	a2,16
    800039ee:	b795                	j	80003952 <strtoll+0x36>

00000000800039f0 <atoll>:
    800039f0:	872a                	mv	a4,a0
    800039f2:	02000613          	li	a2,32
    800039f6:	4591                	li	a1,4
    800039f8:	00074683          	lbu	a3,0(a4)
    800039fc:	ff76879b          	addiw	a5,a3,-9
    80003a00:	0ff7f793          	zext.b	a5,a5
    80003a04:	04c68b63          	beq	a3,a2,80003a5a <atoll+0x6a>
    80003a08:	04f5f963          	bgeu	a1,a5,80003a5a <atoll+0x6a>
    80003a0c:	02d00793          	li	a5,45
    80003a10:	06f68363          	beq	a3,a5,80003a76 <atoll+0x86>
    80003a14:	02b00793          	li	a5,43
    80003a18:	04f68363          	beq	a3,a5,80003a5e <atoll+0x6e>
    80003a1c:	fd06861b          	addiw	a2,a3,-48
    80003a20:	0ff67693          	zext.b	a3,a2
    80003a24:	47a5                	li	a5,9
    80003a26:	4801                	li	a6,0
    80003a28:	06d7e263          	bltu	a5,a3,80003a8c <atoll+0x9c>
    80003a2c:	4501                	li	a0,0
    80003a2e:	45a5                	li	a1,9
    80003a30:	00174683          	lbu	a3,1(a4)
    80003a34:	00251793          	slli	a5,a0,0x2
    80003a38:	97aa                	add	a5,a5,a0
    80003a3a:	0006051b          	sext.w	a0,a2
    80003a3e:	fd06861b          	addiw	a2,a3,-48
    80003a42:	0786                	slli	a5,a5,0x1
    80003a44:	0ff67693          	zext.b	a3,a2
    80003a48:	0705                	addi	a4,a4,1
    80003a4a:	953e                	add	a0,a0,a5
    80003a4c:	fed5f2e3          	bgeu	a1,a3,80003a30 <atoll+0x40>
    80003a50:	02080f63          	beqz	a6,80003a8e <atoll+0x9e>
    80003a54:	40a00533          	neg	a0,a0
    80003a58:	8082                	ret
    80003a5a:	0705                	addi	a4,a4,1
    80003a5c:	bf71                	j	800039f8 <atoll+0x8>
    80003a5e:	00174683          	lbu	a3,1(a4)
    80003a62:	47a5                	li	a5,9
    80003a64:	0705                	addi	a4,a4,1
    80003a66:	fd06861b          	addiw	a2,a3,-48
    80003a6a:	0ff67693          	zext.b	a3,a2
    80003a6e:	00d7ef63          	bltu	a5,a3,80003a8c <atoll+0x9c>
    80003a72:	4801                	li	a6,0
    80003a74:	bf65                	j	80003a2c <atoll+0x3c>
    80003a76:	00174683          	lbu	a3,1(a4)
    80003a7a:	47a5                	li	a5,9
    80003a7c:	0705                	addi	a4,a4,1
    80003a7e:	fd06861b          	addiw	a2,a3,-48
    80003a82:	0ff67693          	zext.b	a3,a2
    80003a86:	4805                	li	a6,1
    80003a88:	fad7f2e3          	bgeu	a5,a3,80003a2c <atoll+0x3c>
    80003a8c:	4501                	li	a0,0
    80003a8e:	8082                	ret

Disassembly of section .text.startup:

0000000080003a90 <.text.startup>:
    80003a90:	1141                	addi	sp,sp,-16
    80003a92:	00000517          	auipc	a0,0x0
    80003a96:	19e50513          	addi	a0,a0,414 # 80003c30 <gen2+0x188>
    80003a9a:	e406                	sd	ra,8(sp)
    80003a9c:	fc6ff0ef          	jal	80003262 <printstr>
    80003aa0:	60a2                	ld	ra,8(sp)
    80003aa2:	557d                	li	a0,-1
    80003aa4:	0141                	addi	sp,sp,16
    80003aa6:	8082                	ret
