
mainop-rocc_BASELINE_O2U4.riscv:     file format elf64-littleriscv


Disassembly of section .text.init:

0000000080000000 <_start>:
    80000000:	4081                	li	ra,0
    80000002:	4101                	li	sp,0
    80000004:	4181                	li	gp,0
    80000006:	4201                	li	tp,0
    80000008:	4281                	li	t0,0
    8000000a:	4301                	li	t1,0
    8000000c:	4381                	li	t2,0
    8000000e:	4401                	li	s0,0
    80000010:	4481                	li	s1,0
    80000012:	4501                	li	a0,0
    80000014:	4581                	li	a1,0
    80000016:	4601                	li	a2,0
    80000018:	4681                	li	a3,0
    8000001a:	4701                	li	a4,0
    8000001c:	4781                	li	a5,0
    8000001e:	4801                	li	a6,0
    80000020:	4881                	li	a7,0
    80000022:	4901                	li	s2,0
    80000024:	4981                	li	s3,0
    80000026:	4a01                	li	s4,0
    80000028:	4a81                	li	s5,0
    8000002a:	4b01                	li	s6,0
    8000002c:	4b81                	li	s7,0
    8000002e:	4c01                	li	s8,0
    80000030:	4c81                	li	s9,0
    80000032:	4d01                	li	s10,0
    80000034:	4d81                	li	s11,0
    80000036:	4e01                	li	t3,0
    80000038:	4e81                	li	t4,0
    8000003a:	4f01                	li	t5,0
    8000003c:	4f81                	li	t6,0
    8000003e:	62f9                	lui	t0,0x1e
    80000040:	3002a073          	csrs	mstatus,t0
    80000044:	4285                	li	t0,1
    80000046:	02fe                	slli	t0,t0,0x1f
    80000048:	0002d863          	bgez	t0,80000058 <_start+0x58>
    8000004c:	4505                	li	a0,1
    8000004e:	00001297          	auipc	t0,0x1
    80000052:	faa2a923          	sw	a0,-78(t0) # 80001000 <tohost>
    80000056:	bfdd                	j	8000004c <_start+0x4c>
    80000058:	00000297          	auipc	t0,0x0
    8000005c:	09028293          	addi	t0,t0,144 # 800000e8 <_start+0xe8>
    80000060:	30529073          	csrw	mtvec,t0
    80000064:	00301073          	fscsr	zero
    80000068:	f0000053          	fmv.w.x	ft0,zero
    8000006c:	f00000d3          	fmv.w.x	ft1,zero
    80000070:	f0000153          	fmv.w.x	ft2,zero
    80000074:	f00001d3          	fmv.w.x	ft3,zero
    80000078:	f0000253          	fmv.w.x	ft4,zero
    8000007c:	f00002d3          	fmv.w.x	ft5,zero
    80000080:	f0000353          	fmv.w.x	ft6,zero
    80000084:	f00003d3          	fmv.w.x	ft7,zero
    80000088:	f0000453          	fmv.w.x	fs0,zero
    8000008c:	f00004d3          	fmv.w.x	fs1,zero
    80000090:	f0000553          	fmv.w.x	fa0,zero
    80000094:	f00005d3          	fmv.w.x	fa1,zero
    80000098:	f0000653          	fmv.w.x	fa2,zero
    8000009c:	f00006d3          	fmv.w.x	fa3,zero
    800000a0:	f0000753          	fmv.w.x	fa4,zero
    800000a4:	f00007d3          	fmv.w.x	fa5,zero
    800000a8:	f0000853          	fmv.w.x	fa6,zero
    800000ac:	f00008d3          	fmv.w.x	fa7,zero
    800000b0:	f0000953          	fmv.w.x	fs2,zero
    800000b4:	f00009d3          	fmv.w.x	fs3,zero
    800000b8:	f0000a53          	fmv.w.x	fs4,zero
    800000bc:	f0000ad3          	fmv.w.x	fs5,zero
    800000c0:	f0000b53          	fmv.w.x	fs6,zero
    800000c4:	f0000bd3          	fmv.w.x	fs7,zero
    800000c8:	f0000c53          	fmv.w.x	fs8,zero
    800000cc:	f0000cd3          	fmv.w.x	fs9,zero
    800000d0:	f0000d53          	fmv.w.x	fs10,zero
    800000d4:	f0000dd3          	fmv.w.x	fs11,zero
    800000d8:	f0000e53          	fmv.w.x	ft8,zero
    800000dc:	f0000ed3          	fmv.w.x	ft9,zero
    800000e0:	f0000f53          	fmv.w.x	ft10,zero
    800000e4:	f0000fd3          	fmv.w.x	ft11,zero
    800000e8:	00000297          	auipc	t0,0x0
    800000ec:	03c28293          	addi	t0,t0,60 # 80000124 <trap_entry>
    800000f0:	30529073          	csrw	mtvec,t0
    800000f4:	00009197          	auipc	gp,0x9
    800000f8:	84c18193          	addi	gp,gp,-1972 # 80008940 <__global_pointer$>
    800000fc:	0000e217          	auipc	tp,0xe
    80000100:	e8320213          	addi	tp,tp,-381 # 8000df7f <_end+0x3f>
    80000104:	fc027213          	andi	tp,tp,-64
    80000108:	f1402573          	csrr	a0,mhartid
    8000010c:	4585                	li	a1,1
    8000010e:	00b57063          	bgeu	a0,a1,8000010e <_start+0x10e>
    80000112:	00150113          	addi	sp,a0,1
    80000116:	0146                	slli	sp,sp,0x11
    80000118:	9112                	add	sp,sp,tp
    8000011a:	01151613          	slli	a2,a0,0x11
    8000011e:	9232                	add	tp,tp,a2
    80000120:	7ca0706f          	j	800078ea <_init>

0000000080000124 <trap_entry>:
    80000124:	716d                	addi	sp,sp,-272
    80000126:	e406                	sd	ra,8(sp)
    80000128:	e80a                	sd	sp,16(sp)
    8000012a:	ec0e                	sd	gp,24(sp)
    8000012c:	f012                	sd	tp,32(sp)
    8000012e:	f416                	sd	t0,40(sp)
    80000130:	f81a                	sd	t1,48(sp)
    80000132:	fc1e                	sd	t2,56(sp)
    80000134:	e0a2                	sd	s0,64(sp)
    80000136:	e4a6                	sd	s1,72(sp)
    80000138:	e8aa                	sd	a0,80(sp)
    8000013a:	ecae                	sd	a1,88(sp)
    8000013c:	f0b2                	sd	a2,96(sp)
    8000013e:	f4b6                	sd	a3,104(sp)
    80000140:	f8ba                	sd	a4,112(sp)
    80000142:	fcbe                	sd	a5,120(sp)
    80000144:	e142                	sd	a6,128(sp)
    80000146:	e546                	sd	a7,136(sp)
    80000148:	e94a                	sd	s2,144(sp)
    8000014a:	ed4e                	sd	s3,152(sp)
    8000014c:	f152                	sd	s4,160(sp)
    8000014e:	f556                	sd	s5,168(sp)
    80000150:	f95a                	sd	s6,176(sp)
    80000152:	fd5e                	sd	s7,184(sp)
    80000154:	e1e2                	sd	s8,192(sp)
    80000156:	e5e6                	sd	s9,200(sp)
    80000158:	e9ea                	sd	s10,208(sp)
    8000015a:	edee                	sd	s11,216(sp)
    8000015c:	f1f2                	sd	t3,224(sp)
    8000015e:	f5f6                	sd	t4,232(sp)
    80000160:	f9fa                	sd	t5,240(sp)
    80000162:	fdfe                	sd	t6,248(sp)
    80000164:	34202573          	csrr	a0,mcause
    80000168:	341025f3          	csrr	a1,mepc
    8000016c:	860a                	mv	a2,sp
    8000016e:	5b4070ef          	jal	80007722 <handle_trap>
    80000172:	34151073          	csrw	mepc,a0
    80000176:	6289                	lui	t0,0x2
    80000178:	8002829b          	addiw	t0,t0,-2048 # 1800 <buflen.1+0x17c0>
    8000017c:	3002a073          	csrs	mstatus,t0
    80000180:	60a2                	ld	ra,8(sp)
    80000182:	6142                	ld	sp,16(sp)
    80000184:	61e2                	ld	gp,24(sp)
    80000186:	7202                	ld	tp,32(sp)
    80000188:	72a2                	ld	t0,40(sp)
    8000018a:	7342                	ld	t1,48(sp)
    8000018c:	73e2                	ld	t2,56(sp)
    8000018e:	6406                	ld	s0,64(sp)
    80000190:	64a6                	ld	s1,72(sp)
    80000192:	6546                	ld	a0,80(sp)
    80000194:	65e6                	ld	a1,88(sp)
    80000196:	7606                	ld	a2,96(sp)
    80000198:	76a6                	ld	a3,104(sp)
    8000019a:	7746                	ld	a4,112(sp)
    8000019c:	77e6                	ld	a5,120(sp)
    8000019e:	680a                	ld	a6,128(sp)
    800001a0:	68aa                	ld	a7,136(sp)
    800001a2:	694a                	ld	s2,144(sp)
    800001a4:	69ea                	ld	s3,152(sp)
    800001a6:	7a0a                	ld	s4,160(sp)
    800001a8:	7aaa                	ld	s5,168(sp)
    800001aa:	7b4a                	ld	s6,176(sp)
    800001ac:	7bea                	ld	s7,184(sp)
    800001ae:	6c0e                	ld	s8,192(sp)
    800001b0:	6cae                	ld	s9,200(sp)
    800001b2:	6d4e                	ld	s10,208(sp)
    800001b4:	6dee                	ld	s11,216(sp)
    800001b6:	7e0e                	ld	t3,224(sp)
    800001b8:	7eae                	ld	t4,232(sp)
    800001ba:	7f4e                	ld	t5,240(sp)
    800001bc:	7fee                	ld	t6,248(sp)
    800001be:	6151                	addi	sp,sp,272
    800001c0:	30200073          	mret
    800001c4:	0000                	unimp

Disassembly of section .text:

0000000080002000 <d2ull>:
    80002000:	e2050553          	fmv.x.d	a0,fa0
    80002004:	8082                	ret

0000000080002006 <ull2d>:
    80002006:	f2050553          	fmv.d.x	fa0,a0
    8000200a:	8082                	ret

000000008000200c <PickResult>:
    8000200c:	058e                	slli	a1,a1,0x3
    8000200e:	952e                	add	a0,a0,a1
    80002010:	6108                	ld	a0,0(a0)
    80002012:	8082                	ret

0000000080002014 <Impl_conv1d>:
    80002014:	4601                	li	a2,0
    80002016:	4281                	li	t0,0
    80002018:	04053883          	ld	a7,64(a0)
    8000201c:	06050793          	addi	a5,a0,96
    80002020:	4821                	li	a6,8
    80002022:	00c886bb          	addw	a3,a7,a2
    80002026:	0076f713          	andi	a4,a3,7
    8000202a:	070e                	slli	a4,a4,0x3
    8000202c:	972a                	add	a4,a4,a0
    8000202e:	00073303          	ld	t1,0(a4)
    80002032:	fe87b383          	ld	t2,-24(a5)
    80002036:	0016871b          	addiw	a4,a3,1
    8000203a:	8b1d                	andi	a4,a4,7
    8000203c:	070e                	slli	a4,a4,0x3
    8000203e:	972a                	add	a4,a4,a0
    80002040:	00073e03          	ld	t3,0(a4)
    80002044:	ff07b703          	ld	a4,-16(a5)
    80002048:	02638333          	mul	t1,t2,t1
    8000204c:	03c703b3          	mul	t2,a4,t3
    80002050:	0026871b          	addiw	a4,a3,2
    80002054:	8b1d                	andi	a4,a4,7
    80002056:	070e                	slli	a4,a4,0x3
    80002058:	972a                	add	a4,a4,a0
    8000205a:	00073e03          	ld	t3,0(a4)
    8000205e:	ff87be83          	ld	t4,-8(a5)
    80002062:	268d                	addiw	a3,a3,3
    80002064:	8a9d                	andi	a3,a3,7
    80002066:	068e                	slli	a3,a3,0x3
    80002068:	96aa                	add	a3,a3,a0
    8000206a:	6294                	ld	a3,0(a3)
    8000206c:	6398                	ld	a4,0(a5)
    8000206e:	03ce8e33          	mul	t3,t4,t3
    80002072:	02d706b3          	mul	a3,a4,a3
    80002076:	00530733          	add	a4,t1,t0
    8000207a:	971e                	add	a4,a4,t2
    8000207c:	9772                	add	a4,a4,t3
    8000207e:	00e682b3          	add	t0,a3,a4
    80002082:	0611                	addi	a2,a2,4
    80002084:	02078793          	addi	a5,a5,32
    80002088:	f9061de3          	bne	a2,a6,80002022 <Impl_conv1d+0xe>
    8000208c:	0055b023          	sd	t0,0(a1)
    80002090:	8082                	ret

0000000080002092 <OP_conv1d>:
    80002092:	7171                	addi	sp,sp,-176
    80002094:	f522                	sd	s0,168(sp)
    80002096:	f126                	sd	s1,160(sp)
    80002098:	ed4a                	sd	s2,152(sp)
    8000209a:	e94e                	sd	s3,144(sp)
    8000209c:	e552                	sd	s4,136(sp)
    8000209e:	4281                	li	t0,0
    800020a0:	4381                	li	t2,0
    800020a2:	736a                	ld	t1,184(sp)
    800020a4:	7e6e                	ld	t3,248(sp)
    800020a6:	7ece                	ld	t4,240(sp)
    800020a8:	7f2e                	ld	t5,232(sp)
    800020aa:	7f8e                	ld	t6,224(sp)
    800020ac:	696e                	ld	s2,216(sp)
    800020ae:	69ce                	ld	s3,208(sp)
    800020b0:	6a2e                	ld	s4,200(sp)
    800020b2:	648e                	ld	s1,192(sp)
    800020b4:	0000000b          	.insn	4, 0x000b
    800020b8:	e02e                	sd	a1,0(sp)
    800020ba:	744a                	ld	s0,176(sp)
    800020bc:	e432                	sd	a2,8(sp)
    800020be:	108c                	addi	a1,sp,96
    800020c0:	e836                	sd	a3,16(sp)
    800020c2:	ec3a                	sd	a4,24(sp)
    800020c4:	f03e                	sd	a5,32(sp)
    800020c6:	f442                	sd	a6,40(sp)
    800020c8:	f846                	sd	a7,48(sp)
    800020ca:	fc22                	sd	s0,56(sp)
    800020cc:	e09a                	sd	t1,64(sp)
    800020ce:	e4a6                	sd	s1,72(sp)
    800020d0:	e8d2                	sd	s4,80(sp)
    800020d2:	ecce                	sd	s3,88(sp)
    800020d4:	f0ca                	sd	s2,96(sp)
    800020d6:	f4fe                	sd	t6,104(sp)
    800020d8:	f8fa                	sd	t5,112(sp)
    800020da:	fcf6                	sd	t4,120(sp)
    800020dc:	e172                	sd	t3,128(sp)
    800020de:	888a                	mv	a7,sp
    800020e0:	4821                	li	a6,8
    800020e2:	0053073b          	addw	a4,t1,t0
    800020e6:	00777793          	andi	a5,a4,7
    800020ea:	078e                	slli	a5,a5,0x3
    800020ec:	97c6                	add	a5,a5,a7
    800020ee:	639c                	ld	a5,0(a5)
    800020f0:	fe85b483          	ld	s1,-24(a1)
    800020f4:	0017041b          	addiw	s0,a4,1
    800020f8:	881d                	andi	s0,s0,7
    800020fa:	040e                	slli	s0,s0,0x3
    800020fc:	9446                	add	s0,s0,a7
    800020fe:	6000                	ld	s0,0(s0)
    80002100:	ff05b683          	ld	a3,-16(a1)
    80002104:	02f487b3          	mul	a5,s1,a5
    80002108:	028686b3          	mul	a3,a3,s0
    8000210c:	0027049b          	addiw	s1,a4,2
    80002110:	889d                	andi	s1,s1,7
    80002112:	048e                	slli	s1,s1,0x3
    80002114:	94c6                	add	s1,s1,a7
    80002116:	6084                	ld	s1,0(s1)
    80002118:	ff85b403          	ld	s0,-8(a1)
    8000211c:	270d                	addiw	a4,a4,3
    8000211e:	8b1d                	andi	a4,a4,7
    80002120:	070e                	slli	a4,a4,0x3
    80002122:	9746                	add	a4,a4,a7
    80002124:	6318                	ld	a4,0(a4)
    80002126:	6190                	ld	a2,0(a1)
    80002128:	029404b3          	mul	s1,s0,s1
    8000212c:	02e60633          	mul	a2,a2,a4
    80002130:	00778733          	add	a4,a5,t2
    80002134:	96ba                	add	a3,a3,a4
    80002136:	96a6                	add	a3,a3,s1
    80002138:	00c683b3          	add	t2,a3,a2
    8000213c:	0291                	addi	t0,t0,4
    8000213e:	02058593          	addi	a1,a1,32
    80002142:	fb0290e3          	bne	t0,a6,800020e2 <OP_conv1d+0x50>
    80002146:	00753023          	sd	t2,0(a0)
    8000214a:	742a                	ld	s0,168(sp)
    8000214c:	748a                	ld	s1,160(sp)
    8000214e:	696a                	ld	s2,152(sp)
    80002150:	69ca                	ld	s3,144(sp)
    80002152:	6a2a                	ld	s4,136(sp)
    80002154:	614d                	addi	sp,sp,176
    80002156:	8082                	ret

0000000080002158 <main>:
    80002158:	716d                	addi	sp,sp,-272
    8000215a:	e606                	sd	ra,264(sp)
    8000215c:	e222                	sd	s0,256(sp)
    8000215e:	fda6                	sd	s1,248(sp)
    80002160:	f9ca                	sd	s2,240(sp)
    80002162:	f5ce                	sd	s3,232(sp)
    80002164:	f1d2                	sd	s4,224(sp)
    80002166:	edd6                	sd	s5,216(sp)
    80002168:	e9da                	sd	s6,208(sp)
    8000216a:	e5de                	sd	s7,200(sp)
    8000216c:	e1e2                	sd	s8,192(sp)
    8000216e:	fd66                	sd	s9,184(sp)
    80002170:	f96a                	sd	s10,176(sp)
    80002172:	f56e                	sd	s11,168(sp)
    80002174:	4581                	li	a1,0
    80002176:	82018513          	addi	a0,gp,-2016 # 80008160 <gen2+0x1d0>
    8000217a:	6110                	ld	a2,0(a0)
    8000217c:	83018813          	addi	a6,gp,-2000 # 80008170 <gen1>
    80002180:	00083703          	ld	a4,0(a6)
    80002184:	00006e17          	auipc	t3,0x6
    80002188:	ffce0e13          	addi	t3,t3,-4 # 80008180 <input>
    8000218c:	82818693          	addi	a3,gp,-2008 # 80008168 <gen2+0x1d8>
    80002190:	6294                	ld	a3,0(a3)
    80002192:	3b9ad7b7          	lui	a5,0x3b9ad
    80002196:	a077829b          	addiw	t0,a5,-1529 # 3b9aca07 <buflen.1+0x3b9ac9c7>
    8000219a:	40000893          	li	a7,1024
    8000219e:	02c70533          	mul	a0,a4,a2
    800021a2:	02d53433          	mulhu	s0,a0,a3
    800021a6:	8075                	srli	s0,s0,0x1d
    800021a8:	02540433          	mul	s0,s0,t0
    800021ac:	8d01                	sub	a0,a0,s0
    800021ae:	02c50433          	mul	s0,a0,a2
    800021b2:	02d434b3          	mulhu	s1,s0,a3
    800021b6:	80f5                	srli	s1,s1,0x1d
    800021b8:	025484b3          	mul	s1,s1,t0
    800021bc:	409404b3          	sub	s1,s0,s1
    800021c0:	02c48433          	mul	s0,s1,a2
    800021c4:	02d437b3          	mulhu	a5,s0,a3
    800021c8:	83f5                	srli	a5,a5,0x1d
    800021ca:	025787b3          	mul	a5,a5,t0
    800021ce:	00c70333          	add	t1,a4,a2
    800021d2:	40f407b3          	sub	a5,s0,a5
    800021d6:	02c78433          	mul	s0,a5,a2
    800021da:	00be0733          	add	a4,t3,a1
    800021de:	00673023          	sd	t1,0(a4)
    800021e2:	9532                	add	a0,a0,a2
    800021e4:	02d43333          	mulhu	t1,s0,a3
    800021e8:	e708                	sd	a0,8(a4)
    800021ea:	00c48533          	add	a0,s1,a2
    800021ee:	eb08                	sd	a0,16(a4)
    800021f0:	01d35513          	srli	a0,t1,0x1d
    800021f4:	02550533          	mul	a0,a0,t0
    800021f8:	97b2                	add	a5,a5,a2
    800021fa:	ef1c                	sd	a5,24(a4)
    800021fc:	02058593          	addi	a1,a1,32
    80002200:	40a40733          	sub	a4,s0,a0
    80002204:	f9159de3          	bne	a1,a7,8000219e <main+0x46>
    80002208:	4581                	li	a1,0
    8000220a:	3b9ad537          	lui	a0,0x3b9ad
    8000220e:	a075029b          	addiw	t0,a0,-1529 # 3b9aca07 <buflen.1+0x3b9ac9c7>
    80002212:	40000893          	li	a7,1024
    80002216:	02c70433          	mul	s0,a4,a2
    8000221a:	02d43533          	mulhu	a0,s0,a3
    8000221e:	8175                	srli	a0,a0,0x1d
    80002220:	02550533          	mul	a0,a0,t0
    80002224:	40a40533          	sub	a0,s0,a0
    80002228:	02c50433          	mul	s0,a0,a2
    8000222c:	02d434b3          	mulhu	s1,s0,a3
    80002230:	80f5                	srli	s1,s1,0x1d
    80002232:	025484b3          	mul	s1,s1,t0
    80002236:	409404b3          	sub	s1,s0,s1
    8000223a:	02c48433          	mul	s0,s1,a2
    8000223e:	02d437b3          	mulhu	a5,s0,a3
    80002242:	83f5                	srli	a5,a5,0x1d
    80002244:	025787b3          	mul	a5,a5,t0
    80002248:	00c70333          	add	t1,a4,a2
    8000224c:	40f407b3          	sub	a5,s0,a5
    80002250:	02c78433          	mul	s0,a5,a2
    80002254:	00be0733          	add	a4,t3,a1
    80002258:	40673023          	sd	t1,1024(a4)
    8000225c:	9532                	add	a0,a0,a2
    8000225e:	02d43333          	mulhu	t1,s0,a3
    80002262:	40a73423          	sd	a0,1032(a4)
    80002266:	00c48533          	add	a0,s1,a2
    8000226a:	40a73823          	sd	a0,1040(a4)
    8000226e:	01d35513          	srli	a0,t1,0x1d
    80002272:	02550533          	mul	a0,a0,t0
    80002276:	97b2                	add	a5,a5,a2
    80002278:	40f73c23          	sd	a5,1048(a4)
    8000227c:	02058593          	addi	a1,a1,32
    80002280:	40a40733          	sub	a4,s0,a0
    80002284:	f91599e3          	bne	a1,a7,80002216 <main+0xbe>
    80002288:	7ffe0893          	addi	a7,t3,2047
    8000228c:	01988793          	addi	a5,a7,25
    80002290:	08000493          	li	s1,128
    80002294:	3b9ad537          	lui	a0,0x3b9ad
    80002298:	a075029b          	addiw	t0,a0,-1529 # 3b9aca07 <buflen.1+0x3b9ac9c7>
    8000229c:	02c70533          	mul	a0,a4,a2
    800022a0:	02d535b3          	mulhu	a1,a0,a3
    800022a4:	81f5                	srli	a1,a1,0x1d
    800022a6:	025585b3          	mul	a1,a1,t0
    800022aa:	40b50333          	sub	t1,a0,a1
    800022ae:	02c305b3          	mul	a1,t1,a2
    800022b2:	02d5b433          	mulhu	s0,a1,a3
    800022b6:	8075                	srli	s0,s0,0x1d
    800022b8:	02540433          	mul	s0,s0,t0
    800022bc:	8d81                	sub	a1,a1,s0
    800022be:	02c58433          	mul	s0,a1,a2
    800022c2:	02d43533          	mulhu	a0,s0,a3
    800022c6:	8175                	srli	a0,a0,0x1d
    800022c8:	02550533          	mul	a0,a0,t0
    800022cc:	40a40533          	sub	a0,s0,a0
    800022d0:	02c50433          	mul	s0,a0,a2
    800022d4:	9732                	add	a4,a4,a2
    800022d6:	fee7b423          	sd	a4,-24(a5)
    800022da:	02d433b3          	mulhu	t2,s0,a3
    800022de:	00c30733          	add	a4,t1,a2
    800022e2:	fee7b823          	sd	a4,-16(a5)
    800022e6:	95b2                	add	a1,a1,a2
    800022e8:	01d3d713          	srli	a4,t2,0x1d
    800022ec:	02570733          	mul	a4,a4,t0
    800022f0:	feb7bc23          	sd	a1,-8(a5)
    800022f4:	9532                	add	a0,a0,a2
    800022f6:	e388                	sd	a0,0(a5)
    800022f8:	40e40733          	sub	a4,s0,a4
    800022fc:	14f1                	addi	s1,s1,-4
    800022fe:	02078793          	addi	a5,a5,32
    80002302:	fcc9                	bnez	s1,8000229c <main+0x144>
    80002304:	41988593          	addi	a1,a7,1049
    80002308:	08000793          	li	a5,128
    8000230c:	3b9ad537          	lui	a0,0x3b9ad
    80002310:	a075089b          	addiw	a7,a0,-1529 # 3b9aca07 <buflen.1+0x3b9ac9c7>
    80002314:	02c70533          	mul	a0,a4,a2
    80002318:	02d53433          	mulhu	s0,a0,a3
    8000231c:	8075                	srli	s0,s0,0x1d
    8000231e:	03140433          	mul	s0,s0,a7
    80002322:	408502b3          	sub	t0,a0,s0
    80002326:	02c28433          	mul	s0,t0,a2
    8000232a:	02d434b3          	mulhu	s1,s0,a3
    8000232e:	80f5                	srli	s1,s1,0x1d
    80002330:	031484b3          	mul	s1,s1,a7
    80002334:	409404b3          	sub	s1,s0,s1
    80002338:	02c48433          	mul	s0,s1,a2
    8000233c:	02d43533          	mulhu	a0,s0,a3
    80002340:	8175                	srli	a0,a0,0x1d
    80002342:	03150533          	mul	a0,a0,a7
    80002346:	40a40533          	sub	a0,s0,a0
    8000234a:	02c50433          	mul	s0,a0,a2
    8000234e:	9732                	add	a4,a4,a2
    80002350:	fee5b423          	sd	a4,-24(a1)
    80002354:	02d43333          	mulhu	t1,s0,a3
    80002358:	00c28733          	add	a4,t0,a2
    8000235c:	fee5b823          	sd	a4,-16(a1)
    80002360:	00c48733          	add	a4,s1,a2
    80002364:	01d35493          	srli	s1,t1,0x1d
    80002368:	031484b3          	mul	s1,s1,a7
    8000236c:	fee5bc23          	sd	a4,-8(a1)
    80002370:	9532                	add	a0,a0,a2
    80002372:	e188                	sd	a0,0(a1)
    80002374:	40940733          	sub	a4,s0,s1
    80002378:	17f1                	addi	a5,a5,-4
    8000237a:	02058593          	addi	a1,a1,32
    8000237e:	fbd9                	bnez	a5,80002314 <main+0x1bc>
    80002380:	6505                	lui	a0,0x1
    80002382:	2561                	addiw	a0,a0,24 # 1018 <buflen.1+0xfd8>
    80002384:	00ae05b3          	add	a1,t3,a0
    80002388:	08000793          	li	a5,128
    8000238c:	3b9ad537          	lui	a0,0x3b9ad
    80002390:	a075089b          	addiw	a7,a0,-1529 # 3b9aca07 <buflen.1+0x3b9ac9c7>
    80002394:	02c70533          	mul	a0,a4,a2
    80002398:	02d53433          	mulhu	s0,a0,a3
    8000239c:	8075                	srli	s0,s0,0x1d
    8000239e:	03140433          	mul	s0,s0,a7
    800023a2:	408502b3          	sub	t0,a0,s0
    800023a6:	02c28433          	mul	s0,t0,a2
    800023aa:	02d434b3          	mulhu	s1,s0,a3
    800023ae:	80f5                	srli	s1,s1,0x1d
    800023b0:	031484b3          	mul	s1,s1,a7
    800023b4:	409404b3          	sub	s1,s0,s1
    800023b8:	02c48433          	mul	s0,s1,a2
    800023bc:	02d43533          	mulhu	a0,s0,a3
    800023c0:	8175                	srli	a0,a0,0x1d
    800023c2:	03150533          	mul	a0,a0,a7
    800023c6:	40a40533          	sub	a0,s0,a0
    800023ca:	02c50433          	mul	s0,a0,a2
    800023ce:	9732                	add	a4,a4,a2
    800023d0:	fee5b423          	sd	a4,-24(a1)
    800023d4:	02d43333          	mulhu	t1,s0,a3
    800023d8:	00c28733          	add	a4,t0,a2
    800023dc:	fee5b823          	sd	a4,-16(a1)
    800023e0:	00c48733          	add	a4,s1,a2
    800023e4:	01d35493          	srli	s1,t1,0x1d
    800023e8:	031484b3          	mul	s1,s1,a7
    800023ec:	fee5bc23          	sd	a4,-8(a1)
    800023f0:	9532                	add	a0,a0,a2
    800023f2:	e188                	sd	a0,0(a1)
    800023f4:	40940733          	sub	a4,s0,s1
    800023f8:	17f1                	addi	a5,a5,-4
    800023fa:	02058593          	addi	a1,a1,32
    800023fe:	fbd9                	bnez	a5,80002394 <main+0x23c>
    80002400:	6505                	lui	a0,0x1
    80002402:	4185051b          	addiw	a0,a0,1048 # 1418 <buflen.1+0x13d8>
    80002406:	00ae05b3          	add	a1,t3,a0
    8000240a:	08000793          	li	a5,128
    8000240e:	3b9ad537          	lui	a0,0x3b9ad
    80002412:	a075089b          	addiw	a7,a0,-1529 # 3b9aca07 <buflen.1+0x3b9ac9c7>
    80002416:	02c70533          	mul	a0,a4,a2
    8000241a:	02d53433          	mulhu	s0,a0,a3
    8000241e:	8075                	srli	s0,s0,0x1d
    80002420:	03140433          	mul	s0,s0,a7
    80002424:	408502b3          	sub	t0,a0,s0
    80002428:	02c28433          	mul	s0,t0,a2
    8000242c:	02d434b3          	mulhu	s1,s0,a3
    80002430:	80f5                	srli	s1,s1,0x1d
    80002432:	031484b3          	mul	s1,s1,a7
    80002436:	409404b3          	sub	s1,s0,s1
    8000243a:	02c48433          	mul	s0,s1,a2
    8000243e:	02d43533          	mulhu	a0,s0,a3
    80002442:	8175                	srli	a0,a0,0x1d
    80002444:	03150533          	mul	a0,a0,a7
    80002448:	40a40533          	sub	a0,s0,a0
    8000244c:	02c50433          	mul	s0,a0,a2
    80002450:	9732                	add	a4,a4,a2
    80002452:	fee5b423          	sd	a4,-24(a1)
    80002456:	02d43333          	mulhu	t1,s0,a3
    8000245a:	00c28733          	add	a4,t0,a2
    8000245e:	fee5b823          	sd	a4,-16(a1)
    80002462:	00c48733          	add	a4,s1,a2
    80002466:	01d35493          	srli	s1,t1,0x1d
    8000246a:	031484b3          	mul	s1,s1,a7
    8000246e:	fee5bc23          	sd	a4,-8(a1)
    80002472:	9532                	add	a0,a0,a2
    80002474:	e188                	sd	a0,0(a1)
    80002476:	40940733          	sub	a4,s0,s1
    8000247a:	17f1                	addi	a5,a5,-4
    8000247c:	02058593          	addi	a1,a1,32
    80002480:	fbd9                	bnez	a5,80002416 <main+0x2be>
    80002482:	6509                	lui	a0,0x2
    80002484:	8185051b          	addiw	a0,a0,-2024 # 1818 <buflen.1+0x17d8>
    80002488:	00ae05b3          	add	a1,t3,a0
    8000248c:	08000793          	li	a5,128
    80002490:	3b9ad537          	lui	a0,0x3b9ad
    80002494:	a075089b          	addiw	a7,a0,-1529 # 3b9aca07 <buflen.1+0x3b9ac9c7>
    80002498:	02c70533          	mul	a0,a4,a2
    8000249c:	02d53433          	mulhu	s0,a0,a3
    800024a0:	8075                	srli	s0,s0,0x1d
    800024a2:	03140433          	mul	s0,s0,a7
    800024a6:	408502b3          	sub	t0,a0,s0
    800024aa:	02c28433          	mul	s0,t0,a2
    800024ae:	02d434b3          	mulhu	s1,s0,a3
    800024b2:	80f5                	srli	s1,s1,0x1d
    800024b4:	031484b3          	mul	s1,s1,a7
    800024b8:	409404b3          	sub	s1,s0,s1
    800024bc:	02c48433          	mul	s0,s1,a2
    800024c0:	02d43533          	mulhu	a0,s0,a3
    800024c4:	8175                	srli	a0,a0,0x1d
    800024c6:	03150533          	mul	a0,a0,a7
    800024ca:	40a40533          	sub	a0,s0,a0
    800024ce:	02c50433          	mul	s0,a0,a2
    800024d2:	9732                	add	a4,a4,a2
    800024d4:	fee5b423          	sd	a4,-24(a1)
    800024d8:	02d43333          	mulhu	t1,s0,a3
    800024dc:	00c28733          	add	a4,t0,a2
    800024e0:	fee5b823          	sd	a4,-16(a1)
    800024e4:	00c48733          	add	a4,s1,a2
    800024e8:	01d35493          	srli	s1,t1,0x1d
    800024ec:	031484b3          	mul	s1,s1,a7
    800024f0:	fee5bc23          	sd	a4,-8(a1)
    800024f4:	9532                	add	a0,a0,a2
    800024f6:	e188                	sd	a0,0(a1)
    800024f8:	40940733          	sub	a4,s0,s1
    800024fc:	17f1                	addi	a5,a5,-4
    800024fe:	02058593          	addi	a1,a1,32
    80002502:	fbd9                	bnez	a5,80002498 <main+0x340>
    80002504:	6509                	lui	a0,0x2
    80002506:	c185051b          	addiw	a0,a0,-1000 # 1c18 <buflen.1+0x1bd8>
    8000250a:	00ae05b3          	add	a1,t3,a0
    8000250e:	08000793          	li	a5,128
    80002512:	3b9ad537          	lui	a0,0x3b9ad
    80002516:	a075089b          	addiw	a7,a0,-1529 # 3b9aca07 <buflen.1+0x3b9ac9c7>
    8000251a:	02c70533          	mul	a0,a4,a2
    8000251e:	02d53433          	mulhu	s0,a0,a3
    80002522:	8075                	srli	s0,s0,0x1d
    80002524:	03140433          	mul	s0,s0,a7
    80002528:	408502b3          	sub	t0,a0,s0
    8000252c:	02c28433          	mul	s0,t0,a2
    80002530:	02d434b3          	mulhu	s1,s0,a3
    80002534:	80f5                	srli	s1,s1,0x1d
    80002536:	031484b3          	mul	s1,s1,a7
    8000253a:	409404b3          	sub	s1,s0,s1
    8000253e:	02c48433          	mul	s0,s1,a2
    80002542:	02d43533          	mulhu	a0,s0,a3
    80002546:	8175                	srli	a0,a0,0x1d
    80002548:	03150533          	mul	a0,a0,a7
    8000254c:	40a40533          	sub	a0,s0,a0
    80002550:	02c50433          	mul	s0,a0,a2
    80002554:	9732                	add	a4,a4,a2
    80002556:	fee5b423          	sd	a4,-24(a1)
    8000255a:	02d43333          	mulhu	t1,s0,a3
    8000255e:	00c28733          	add	a4,t0,a2
    80002562:	fee5b823          	sd	a4,-16(a1)
    80002566:	00c48733          	add	a4,s1,a2
    8000256a:	01d35493          	srli	s1,t1,0x1d
    8000256e:	031484b3          	mul	s1,s1,a7
    80002572:	fee5bc23          	sd	a4,-8(a1)
    80002576:	9532                	add	a0,a0,a2
    80002578:	e188                	sd	a0,0(a1)
    8000257a:	40940733          	sub	a4,s0,s1
    8000257e:	17f1                	addi	a5,a5,-4
    80002580:	02058593          	addi	a1,a1,32
    80002584:	fbd9                	bnez	a5,8000251a <main+0x3c2>
    80002586:	6509                	lui	a0,0x2
    80002588:	2561                	addiw	a0,a0,24 # 2018 <buflen.1+0x1fd8>
    8000258a:	00ae05b3          	add	a1,t3,a0
    8000258e:	08000793          	li	a5,128
    80002592:	3b9ad537          	lui	a0,0x3b9ad
    80002596:	a075089b          	addiw	a7,a0,-1529 # 3b9aca07 <buflen.1+0x3b9ac9c7>
    8000259a:	02c70533          	mul	a0,a4,a2
    8000259e:	02d53433          	mulhu	s0,a0,a3
    800025a2:	8075                	srli	s0,s0,0x1d
    800025a4:	03140433          	mul	s0,s0,a7
    800025a8:	408502b3          	sub	t0,a0,s0
    800025ac:	02c28433          	mul	s0,t0,a2
    800025b0:	02d434b3          	mulhu	s1,s0,a3
    800025b4:	80f5                	srli	s1,s1,0x1d
    800025b6:	031484b3          	mul	s1,s1,a7
    800025ba:	409404b3          	sub	s1,s0,s1
    800025be:	02c48433          	mul	s0,s1,a2
    800025c2:	02d43533          	mulhu	a0,s0,a3
    800025c6:	8175                	srli	a0,a0,0x1d
    800025c8:	03150533          	mul	a0,a0,a7
    800025cc:	40a40533          	sub	a0,s0,a0
    800025d0:	02c50433          	mul	s0,a0,a2
    800025d4:	9732                	add	a4,a4,a2
    800025d6:	fee5b423          	sd	a4,-24(a1)
    800025da:	02d43333          	mulhu	t1,s0,a3
    800025de:	00c28733          	add	a4,t0,a2
    800025e2:	fee5b823          	sd	a4,-16(a1)
    800025e6:	00c48733          	add	a4,s1,a2
    800025ea:	01d35493          	srli	s1,t1,0x1d
    800025ee:	031484b3          	mul	s1,s1,a7
    800025f2:	fee5bc23          	sd	a4,-8(a1)
    800025f6:	9532                	add	a0,a0,a2
    800025f8:	e188                	sd	a0,0(a1)
    800025fa:	40940733          	sub	a4,s0,s1
    800025fe:	17f1                	addi	a5,a5,-4
    80002600:	02058593          	addi	a1,a1,32
    80002604:	fbd9                	bnez	a5,8000259a <main+0x442>
    80002606:	6509                	lui	a0,0x2
    80002608:	4185051b          	addiw	a0,a0,1048 # 2418 <buflen.1+0x23d8>
    8000260c:	00ae05b3          	add	a1,t3,a0
    80002610:	08000793          	li	a5,128
    80002614:	3b9ad537          	lui	a0,0x3b9ad
    80002618:	a075089b          	addiw	a7,a0,-1529 # 3b9aca07 <buflen.1+0x3b9ac9c7>
    8000261c:	02c70533          	mul	a0,a4,a2
    80002620:	02d53433          	mulhu	s0,a0,a3
    80002624:	8075                	srli	s0,s0,0x1d
    80002626:	03140433          	mul	s0,s0,a7
    8000262a:	408502b3          	sub	t0,a0,s0
    8000262e:	02c28433          	mul	s0,t0,a2
    80002632:	02d434b3          	mulhu	s1,s0,a3
    80002636:	80f5                	srli	s1,s1,0x1d
    80002638:	031484b3          	mul	s1,s1,a7
    8000263c:	409404b3          	sub	s1,s0,s1
    80002640:	02c48433          	mul	s0,s1,a2
    80002644:	02d43533          	mulhu	a0,s0,a3
    80002648:	8175                	srli	a0,a0,0x1d
    8000264a:	03150533          	mul	a0,a0,a7
    8000264e:	40a40533          	sub	a0,s0,a0
    80002652:	02c50433          	mul	s0,a0,a2
    80002656:	9732                	add	a4,a4,a2
    80002658:	fee5b423          	sd	a4,-24(a1)
    8000265c:	02d43333          	mulhu	t1,s0,a3
    80002660:	00c28733          	add	a4,t0,a2
    80002664:	fee5b823          	sd	a4,-16(a1)
    80002668:	00c48733          	add	a4,s1,a2
    8000266c:	01d35493          	srli	s1,t1,0x1d
    80002670:	031484b3          	mul	s1,s1,a7
    80002674:	fee5bc23          	sd	a4,-8(a1)
    80002678:	9532                	add	a0,a0,a2
    8000267a:	e188                	sd	a0,0(a1)
    8000267c:	40940733          	sub	a4,s0,s1
    80002680:	17f1                	addi	a5,a5,-4
    80002682:	02058593          	addi	a1,a1,32
    80002686:	fbd9                	bnez	a5,8000261c <main+0x4c4>
    80002688:	650d                	lui	a0,0x3
    8000268a:	8185051b          	addiw	a0,a0,-2024 # 2818 <buflen.1+0x27d8>
    8000268e:	00ae05b3          	add	a1,t3,a0
    80002692:	08000793          	li	a5,128
    80002696:	3b9ad537          	lui	a0,0x3b9ad
    8000269a:	a075089b          	addiw	a7,a0,-1529 # 3b9aca07 <buflen.1+0x3b9ac9c7>
    8000269e:	02c70533          	mul	a0,a4,a2
    800026a2:	02d53433          	mulhu	s0,a0,a3
    800026a6:	8075                	srli	s0,s0,0x1d
    800026a8:	03140433          	mul	s0,s0,a7
    800026ac:	408502b3          	sub	t0,a0,s0
    800026b0:	02c28433          	mul	s0,t0,a2
    800026b4:	02d434b3          	mulhu	s1,s0,a3
    800026b8:	80f5                	srli	s1,s1,0x1d
    800026ba:	031484b3          	mul	s1,s1,a7
    800026be:	409404b3          	sub	s1,s0,s1
    800026c2:	02c48433          	mul	s0,s1,a2
    800026c6:	02d43533          	mulhu	a0,s0,a3
    800026ca:	8175                	srli	a0,a0,0x1d
    800026cc:	03150533          	mul	a0,a0,a7
    800026d0:	40a40533          	sub	a0,s0,a0
    800026d4:	02c50433          	mul	s0,a0,a2
    800026d8:	9732                	add	a4,a4,a2
    800026da:	fee5b423          	sd	a4,-24(a1)
    800026de:	02d43333          	mulhu	t1,s0,a3
    800026e2:	00c28733          	add	a4,t0,a2
    800026e6:	fee5b823          	sd	a4,-16(a1)
    800026ea:	00c48733          	add	a4,s1,a2
    800026ee:	01d35493          	srli	s1,t1,0x1d
    800026f2:	031484b3          	mul	s1,s1,a7
    800026f6:	fee5bc23          	sd	a4,-8(a1)
    800026fa:	9532                	add	a0,a0,a2
    800026fc:	e188                	sd	a0,0(a1)
    800026fe:	40940733          	sub	a4,s0,s1
    80002702:	17f1                	addi	a5,a5,-4
    80002704:	02058593          	addi	a1,a1,32
    80002708:	fbd9                	bnez	a5,8000269e <main+0x546>
    8000270a:	650d                	lui	a0,0x3
    8000270c:	c185051b          	addiw	a0,a0,-1000 # 2c18 <buflen.1+0x2bd8>
    80002710:	00ae05b3          	add	a1,t3,a0
    80002714:	08000793          	li	a5,128
    80002718:	3b9ad537          	lui	a0,0x3b9ad
    8000271c:	a075089b          	addiw	a7,a0,-1529 # 3b9aca07 <buflen.1+0x3b9ac9c7>
    80002720:	02c70533          	mul	a0,a4,a2
    80002724:	02d53433          	mulhu	s0,a0,a3
    80002728:	8075                	srli	s0,s0,0x1d
    8000272a:	03140433          	mul	s0,s0,a7
    8000272e:	408502b3          	sub	t0,a0,s0
    80002732:	02c28433          	mul	s0,t0,a2
    80002736:	02d434b3          	mulhu	s1,s0,a3
    8000273a:	80f5                	srli	s1,s1,0x1d
    8000273c:	031484b3          	mul	s1,s1,a7
    80002740:	409404b3          	sub	s1,s0,s1
    80002744:	02c48433          	mul	s0,s1,a2
    80002748:	02d43533          	mulhu	a0,s0,a3
    8000274c:	8175                	srli	a0,a0,0x1d
    8000274e:	03150533          	mul	a0,a0,a7
    80002752:	40a40533          	sub	a0,s0,a0
    80002756:	02c50433          	mul	s0,a0,a2
    8000275a:	9732                	add	a4,a4,a2
    8000275c:	fee5b423          	sd	a4,-24(a1)
    80002760:	02d43333          	mulhu	t1,s0,a3
    80002764:	00c28733          	add	a4,t0,a2
    80002768:	fee5b823          	sd	a4,-16(a1)
    8000276c:	00c48733          	add	a4,s1,a2
    80002770:	01d35493          	srli	s1,t1,0x1d
    80002774:	031484b3          	mul	s1,s1,a7
    80002778:	fee5bc23          	sd	a4,-8(a1)
    8000277c:	9532                	add	a0,a0,a2
    8000277e:	e188                	sd	a0,0(a1)
    80002780:	40940733          	sub	a4,s0,s1
    80002784:	17f1                	addi	a5,a5,-4
    80002786:	02058593          	addi	a1,a1,32
    8000278a:	fbd9                	bnez	a5,80002720 <main+0x5c8>
    8000278c:	00009097          	auipc	ra,0x9
    80002790:	9f408093          	addi	ra,ra,-1548 # 8000b180 <kernel>
    80002794:	3b9ad537          	lui	a0,0x3b9ad
    80002798:	a075029b          	addiw	t0,a0,-1529 # 3b9aca07 <buflen.1+0x3b9ac9c7>
    8000279c:	04000893          	li	a7,64
    800027a0:	02c70533          	mul	a0,a4,a2
    800027a4:	02d53433          	mulhu	s0,a0,a3
    800027a8:	8075                	srli	s0,s0,0x1d
    800027aa:	02540433          	mul	s0,s0,t0
    800027ae:	40850333          	sub	t1,a0,s0
    800027b2:	02c30433          	mul	s0,t1,a2
    800027b6:	02d434b3          	mulhu	s1,s0,a3
    800027ba:	80f5                	srli	s1,s1,0x1d
    800027bc:	025484b3          	mul	s1,s1,t0
    800027c0:	409404b3          	sub	s1,s0,s1
    800027c4:	02c48433          	mul	s0,s1,a2
    800027c8:	02d43533          	mulhu	a0,s0,a3
    800027cc:	8175                	srli	a0,a0,0x1d
    800027ce:	02550533          	mul	a0,a0,t0
    800027d2:	00c703b3          	add	t2,a4,a2
    800027d6:	40a40533          	sub	a0,s0,a0
    800027da:	02c50433          	mul	s0,a0,a2
    800027de:	00f08733          	add	a4,ra,a5
    800027e2:	00773023          	sd	t2,0(a4)
    800027e6:	9332                	add	t1,t1,a2
    800027e8:	02d433b3          	mulhu	t2,s0,a3
    800027ec:	00673423          	sd	t1,8(a4)
    800027f0:	94b2                	add	s1,s1,a2
    800027f2:	eb04                	sd	s1,16(a4)
    800027f4:	01d3d493          	srli	s1,t2,0x1d
    800027f8:	025484b3          	mul	s1,s1,t0
    800027fc:	9532                	add	a0,a0,a2
    800027fe:	ef08                	sd	a0,24(a4)
    80002800:	02078793          	addi	a5,a5,32
    80002804:	40940733          	sub	a4,s0,s1
    80002808:	f9179ce3          	bne	a5,a7,800027a0 <main+0x648>
    8000280c:	4281                	li	t0,0
    8000280e:	00e83023          	sd	a4,0(a6)
    80002812:	b0002573          	csrr	a0,mcycle
    80002816:	e02a                	sd	a0,0(sp)
    80002818:	08010f93          	addi	t6,sp,128
    8000281c:	05010a93          	addi	s5,sp,80
    80002820:	05810f13          	addi	t5,sp,88
    80002824:	02010313          	addi	t1,sp,32
    80002828:	05000e93          	li	t4,80
    8000282c:	4b21                	li	s6,8
    8000282e:	5b81                	li	s7,-32
    80002830:	5d21                	li	s10,-24
    80002832:	58e1                	li	a7,-8
    80002834:	fc000c93          	li	s9,-64
    80002838:	e472                	sd	t3,8(sp)
    8000283a:	4681                	li	a3,0
    8000283c:	00a29613          	slli	a2,t0,0xa
    80002840:	00ce0533          	add	a0,t3,a2
    80002844:	ec2a                	sd	a0,24(sp)
    80002846:	6110                	ld	a2,0(a0)
    80002848:	0000b483          	ld	s1,0(ra)
    8000284c:	0080b403          	ld	s0,8(ra)
    80002850:	0100b803          	ld	a6,16(ra)
    80002854:	0180be03          	ld	t3,24(ra)
    80002858:	0200bd83          	ld	s11,32(ra)
    8000285c:	0280b903          	ld	s2,40(ra)
    80002860:	0300b983          	ld	s3,48(ra)
    80002864:	0380ba03          	ld	s4,56(ra)
    80002868:	0000000b          	.insn	4, 0x000b
    8000286c:	f032                	sd	a2,32(sp)
    8000286e:	f432                	sd	a2,40(sp)
    80002870:	f832                	sd	a2,48(sp)
    80002872:	fc32                	sd	a2,56(sp)
    80002874:	e0b2                	sd	a2,64(sp)
    80002876:	e4b2                	sd	a2,72(sp)
    80002878:	e8b2                	sd	a2,80(sp)
    8000287a:	ecb2                	sd	a2,88(sp)
    8000287c:	f082                	sd	zero,96(sp)
    8000287e:	f4a6                	sd	s1,104(sp)
    80002880:	f8a2                	sd	s0,112(sp)
    80002882:	fcc2                	sd	a6,120(sp)
    80002884:	e172                	sd	t3,128(sp)
    80002886:	e56e                	sd	s11,136(sp)
    80002888:	e94a                	sd	s2,144(sp)
    8000288a:	ed4e                	sd	s3,152(sp)
    8000288c:	f152                	sd	s4,160(sp)
    8000288e:	4641                	li	a2,16
    80002890:	00c304b3          	add	s1,t1,a2
    80002894:	ff04b403          	ld	s0,-16(s1)
    80002898:	7c88                	ld	a0,56(s1)
    8000289a:	02850533          	mul	a0,a0,s0
    8000289e:	ff84b403          	ld	s0,-8(s1)
    800028a2:	60b8                	ld	a4,64(s1)
    800028a4:	608c                	ld	a1,0(s1)
    800028a6:	64bc                	ld	a5,72(s1)
    800028a8:	02870733          	mul	a4,a4,s0
    800028ac:	02b785b3          	mul	a1,a5,a1
    800028b0:	649c                	ld	a5,8(s1)
    800028b2:	68a4                	ld	s1,80(s1)
    800028b4:	9536                	add	a0,a0,a3
    800028b6:	02f486b3          	mul	a3,s1,a5
    800028ba:	953a                	add	a0,a0,a4
    800028bc:	952e                	add	a0,a0,a1
    800028be:	02060613          	addi	a2,a2,32
    800028c2:	96aa                	add	a3,a3,a0
    800028c4:	fdd616e3          	bne	a2,t4,80002890 <main+0x738>
    800028c8:	3c800513          	li	a0,968
    800028cc:	02a28533          	mul	a0,t0,a0
    800028d0:	4481                	li	s1,0
    800028d2:	4381                	li	t2,0
    800028d4:	00009597          	auipc	a1,0x9
    800028d8:	8ec58593          	addi	a1,a1,-1812 # 8000b1c0 <output>
    800028dc:	00a58db3          	add	s11,a1,a0
    800028e0:	00ddb023          	sd	a3,0(s11)
    800028e4:	6462                	ld	s0,24(sp)
    800028e6:	6028                	ld	a0,64(s0)
    800028e8:	600c                	ld	a1,0(s0)
    800028ea:	0000b603          	ld	a2,0(ra)
    800028ee:	0080b683          	ld	a3,8(ra)
    800028f2:	0100b703          	ld	a4,16(ra)
    800028f6:	0180b783          	ld	a5,24(ra)
    800028fa:	0200be03          	ld	t3,32(ra)
    800028fe:	0280b903          	ld	s2,40(ra)
    80002902:	0300b983          	ld	s3,48(ra)
    80002906:	0380ba03          	ld	s4,56(ra)
    8000290a:	0000000b          	.insn	4, 0x000b
    8000290e:	f02a                	sd	a0,32(sp)
    80002910:	f42e                	sd	a1,40(sp)
    80002912:	f82e                	sd	a1,48(sp)
    80002914:	fc2e                	sd	a1,56(sp)
    80002916:	e0ae                	sd	a1,64(sp)
    80002918:	e4ae                	sd	a1,72(sp)
    8000291a:	e8ae                	sd	a1,80(sp)
    8000291c:	ecae                	sd	a1,88(sp)
    8000291e:	04040813          	addi	a6,s0,64
    80002922:	4505                	li	a0,1
    80002924:	f0aa                	sd	a0,96(sp)
    80002926:	f4b2                	sd	a2,104(sp)
    80002928:	f8b6                	sd	a3,112(sp)
    8000292a:	fcba                	sd	a4,120(sp)
    8000292c:	e13e                	sd	a5,128(sp)
    8000292e:	e572                	sd	t3,136(sp)
    80002930:	e94a                	sd	s2,144(sp)
    80002932:	ed4e                	sd	s3,152(sp)
    80002934:	f152                	sd	s4,160(sp)
    80002936:	10b0                	addi	a2,sp,104
    80002938:	fc063503          	ld	a0,-64(a2)
    8000293c:	620c                	ld	a1,0(a2)
    8000293e:	fc863683          	ld	a3,-56(a2)
    80002942:	6618                	ld	a4,8(a2)
    80002944:	02a58533          	mul	a0,a1,a0
    80002948:	02d705b3          	mul	a1,a4,a3
    8000294c:	fd063683          	ld	a3,-48(a2)
    80002950:	6a18                	ld	a4,16(a2)
    80002952:	0044c793          	xori	a5,s1,4
    80002956:	078e                	slli	a5,a5,0x3
    80002958:	979a                	add	a5,a5,t1
    8000295a:	639c                	ld	a5,0(a5)
    8000295c:	6e00                	ld	s0,24(a2)
    8000295e:	02d706b3          	mul	a3,a4,a3
    80002962:	02f40733          	mul	a4,s0,a5
    80002966:	951e                	add	a0,a0,t2
    80002968:	952e                	add	a0,a0,a1
    8000296a:	9536                	add	a0,a0,a3
    8000296c:	00e503b3          	add	t2,a0,a4
    80002970:	0491                	addi	s1,s1,4
    80002972:	02060613          	addi	a2,a2,32
    80002976:	fd6491e3          	bne	s1,s6,80002938 <main+0x7e0>
    8000297a:	e816                	sd	t0,16(sp)
    8000297c:	4481                	li	s1,0
    8000297e:	4a01                	li	s4,0
    80002980:	007db423          	sd	t2,8(s11)
    80002984:	00083503          	ld	a0,0(a6)
    80002988:	65e2                	ld	a1,24(sp)
    8000298a:	618c                	ld	a1,0(a1)
    8000298c:	0000b603          	ld	a2,0(ra)
    80002990:	0080b703          	ld	a4,8(ra)
    80002994:	0100b783          	ld	a5,16(ra)
    80002998:	0180b403          	ld	s0,24(ra)
    8000299c:	0200b383          	ld	t2,32(ra)
    800029a0:	0280be03          	ld	t3,40(ra)
    800029a4:	0300b903          	ld	s2,48(ra)
    800029a8:	0380b983          	ld	s3,56(ra)
    800029ac:	0000000b          	.insn	4, 0x000b
    800029b0:	f02a                	sd	a0,32(sp)
    800029b2:	f42a                	sd	a0,40(sp)
    800029b4:	f82e                	sd	a1,48(sp)
    800029b6:	fc2e                	sd	a1,56(sp)
    800029b8:	e0ae                	sd	a1,64(sp)
    800029ba:	e4ae                	sd	a1,72(sp)
    800029bc:	e8ae                	sd	a1,80(sp)
    800029be:	ecae                	sd	a1,88(sp)
    800029c0:	4509                	li	a0,2
    800029c2:	f0aa                	sd	a0,96(sp)
    800029c4:	f4b2                	sd	a2,104(sp)
    800029c6:	f8ba                	sd	a4,112(sp)
    800029c8:	fcbe                	sd	a5,120(sp)
    800029ca:	e122                	sd	s0,128(sp)
    800029cc:	e51e                	sd	t2,136(sp)
    800029ce:	e972                	sd	t3,144(sp)
    800029d0:	ed4a                	sd	s2,152(sp)
    800029d2:	f14e                	sd	s3,160(sp)
    800029d4:	867e                	mv	a2,t6
    800029d6:	00a0                	addi	s0,sp,72
    800029d8:	fb063503          	ld	a0,-80(a2)
    800029dc:	fe863583          	ld	a1,-24(a2)
    800029e0:	fb863703          	ld	a4,-72(a2)
    800029e4:	ff063783          	ld	a5,-16(a2)
    800029e8:	02a583b3          	mul	t2,a1,a0
    800029ec:	02e785b3          	mul	a1,a5,a4
    800029f0:	0044c713          	xori	a4,s1,4
    800029f4:	070e                	slli	a4,a4,0x3
    800029f6:	971a                	add	a4,a4,t1
    800029f8:	6318                	ld	a4,0(a4)
    800029fa:	ff863783          	ld	a5,-8(a2)
    800029fe:	6014                	ld	a3,0(s0)
    80002a00:	6208                	ld	a0,0(a2)
    80002a02:	02e78733          	mul	a4,a5,a4
    80002a06:	02d50533          	mul	a0,a0,a3
    80002a0a:	014386b3          	add	a3,t2,s4
    80002a0e:	95b6                	add	a1,a1,a3
    80002a10:	95ba                	add	a1,a1,a4
    80002a12:	00a58a33          	add	s4,a1,a0
    80002a16:	0491                	addi	s1,s1,4
    80002a18:	1401                	addi	s0,s0,-32
    80002a1a:	02060613          	addi	a2,a2,32
    80002a1e:	fb649de3          	bne	s1,s6,800029d8 <main+0x880>
    80002a22:	4481                	li	s1,0
    80002a24:	4281                	li	t0,0
    80002a26:	014db823          	sd	s4,16(s11)
    80002a2a:	00083503          	ld	a0,0(a6)
    80002a2e:	65e2                	ld	a1,24(sp)
    80002a30:	618c                	ld	a1,0(a1)
    80002a32:	0000b603          	ld	a2,0(ra)
    80002a36:	0080b683          	ld	a3,8(ra)
    80002a3a:	0100b703          	ld	a4,16(ra)
    80002a3e:	0180b783          	ld	a5,24(ra)
    80002a42:	0200b383          	ld	t2,32(ra)
    80002a46:	0280be03          	ld	t3,40(ra)
    80002a4a:	0300b903          	ld	s2,48(ra)
    80002a4e:	0380b983          	ld	s3,56(ra)
    80002a52:	0000000b          	.insn	4, 0x000b
    80002a56:	f02a                	sd	a0,32(sp)
    80002a58:	f42a                	sd	a0,40(sp)
    80002a5a:	f82a                	sd	a0,48(sp)
    80002a5c:	fc2e                	sd	a1,56(sp)
    80002a5e:	e0ae                	sd	a1,64(sp)
    80002a60:	e4ae                	sd	a1,72(sp)
    80002a62:	e8ae                	sd	a1,80(sp)
    80002a64:	ecae                	sd	a1,88(sp)
    80002a66:	450d                	li	a0,3
    80002a68:	f0aa                	sd	a0,96(sp)
    80002a6a:	f4b2                	sd	a2,104(sp)
    80002a6c:	f8b6                	sd	a3,112(sp)
    80002a6e:	fcba                	sd	a4,120(sp)
    80002a70:	e13e                	sd	a5,128(sp)
    80002a72:	e51e                	sd	t2,136(sp)
    80002a74:	e972                	sd	t3,144(sp)
    80002a76:	ed4a                	sd	s2,152(sp)
    80002a78:	f14e                	sd	s3,160(sp)
    80002a7a:	fc000693          	li	a3,-64
    80002a7e:	8656                	mv	a2,s5
    80002a80:	00da8533          	add	a0,s5,a3
    80002a84:	750c                	ld	a1,40(a0)
    80002a86:	6d38                	ld	a4,88(a0)
    80002a88:	0044c793          	xori	a5,s1,4
    80002a8c:	078e                	slli	a5,a5,0x3
    80002a8e:	979a                	add	a5,a5,t1
    80002a90:	639c                	ld	a5,0(a5)
    80002a92:	7120                	ld	s0,96(a0)
    80002a94:	02b703b3          	mul	t2,a4,a1
    80002a98:	02f40733          	mul	a4,s0,a5
    80002a9c:	ff863783          	ld	a5,-8(a2)
    80002aa0:	7520                	ld	s0,104(a0)
    80002aa2:	620c                	ld	a1,0(a2)
    80002aa4:	7928                	ld	a0,112(a0)
    80002aa6:	02f407b3          	mul	a5,s0,a5
    80002aaa:	02b50533          	mul	a0,a0,a1
    80002aae:	005385b3          	add	a1,t2,t0
    80002ab2:	95ba                	add	a1,a1,a4
    80002ab4:	95be                	add	a1,a1,a5
    80002ab6:	00a582b3          	add	t0,a1,a0
    80002aba:	0491                	addi	s1,s1,4
    80002abc:	02068693          	addi	a3,a3,32
    80002ac0:	1601                	addi	a2,a2,-32
    80002ac2:	fedd                	bnez	a3,80002a80 <main+0x928>
    80002ac4:	4901                	li	s2,0
    80002ac6:	005dbc23          	sd	t0,24(s11)
    80002aca:	00083503          	ld	a0,0(a6)
    80002ace:	65e2                	ld	a1,24(sp)
    80002ad0:	618c                	ld	a1,0(a1)
    80002ad2:	0000b603          	ld	a2,0(ra)
    80002ad6:	0080b683          	ld	a3,8(ra)
    80002ada:	0100b703          	ld	a4,16(ra)
    80002ade:	0180b783          	ld	a5,24(ra)
    80002ae2:	0200b403          	ld	s0,32(ra)
    80002ae6:	0280b283          	ld	t0,40(ra)
    80002aea:	0300b383          	ld	t2,48(ra)
    80002aee:	0380be03          	ld	t3,56(ra)
    80002af2:	0000000b          	.insn	4, 0x000b
    80002af6:	f02a                	sd	a0,32(sp)
    80002af8:	f42a                	sd	a0,40(sp)
    80002afa:	f82a                	sd	a0,48(sp)
    80002afc:	fc2a                	sd	a0,56(sp)
    80002afe:	e0ae                	sd	a1,64(sp)
    80002b00:	e4ae                	sd	a1,72(sp)
    80002b02:	e8ae                	sd	a1,80(sp)
    80002b04:	ecae                	sd	a1,88(sp)
    80002b06:	4511                	li	a0,4
    80002b08:	f0aa                	sd	a0,96(sp)
    80002b0a:	f4b2                	sd	a2,104(sp)
    80002b0c:	f8b6                	sd	a3,112(sp)
    80002b0e:	fcba                	sd	a4,120(sp)
    80002b10:	e13e                	sd	a5,128(sp)
    80002b12:	e522                	sd	s0,136(sp)
    80002b14:	e916                	sd	t0,144(sp)
    80002b16:	ed1e                	sd	t2,152(sp)
    80002b18:	f172                	sd	t3,160(sp)
    80002b1a:	02000613          	li	a2,32
    80002b1e:	86fe                	mv	a3,t6
    80002b20:	00cf8533          	add	a0,t6,a2
    80002b24:	fa053583          	ld	a1,-96(a0)
    80002b28:	fe86b703          	ld	a4,-24(a3)
    80002b2c:	fa853783          	ld	a5,-88(a0)
    80002b30:	ff06b403          	ld	s0,-16(a3)
    80002b34:	02b705b3          	mul	a1,a4,a1
    80002b38:	02f40733          	mul	a4,s0,a5
    80002b3c:	fb053783          	ld	a5,-80(a0)
    80002b40:	ff86b403          	ld	s0,-8(a3)
    80002b44:	fb853503          	ld	a0,-72(a0)
    80002b48:	6284                	ld	s1,0(a3)
    80002b4a:	02f407b3          	mul	a5,s0,a5
    80002b4e:	02a48533          	mul	a0,s1,a0
    80002b52:	95ca                	add	a1,a1,s2
    80002b54:	95ba                	add	a1,a1,a4
    80002b56:	95be                	add	a1,a1,a5
    80002b58:	00a58933          	add	s2,a1,a0
    80002b5c:	1601                	addi	a2,a2,-32
    80002b5e:	02068693          	addi	a3,a3,32
    80002b62:	fb761fe3          	bne	a2,s7,80002b20 <main+0x9c8>
    80002b66:	4981                	li	s3,0
    80002b68:	032db023          	sd	s2,32(s11)
    80002b6c:	00083503          	ld	a0,0(a6)
    80002b70:	65e2                	ld	a1,24(sp)
    80002b72:	618c                	ld	a1,0(a1)
    80002b74:	0000b603          	ld	a2,0(ra)
    80002b78:	0080b703          	ld	a4,8(ra)
    80002b7c:	0100b783          	ld	a5,16(ra)
    80002b80:	0180b483          	ld	s1,24(ra)
    80002b84:	0200b403          	ld	s0,32(ra)
    80002b88:	0280b283          	ld	t0,40(ra)
    80002b8c:	0300b383          	ld	t2,48(ra)
    80002b90:	0380be03          	ld	t3,56(ra)
    80002b94:	0000000b          	.insn	4, 0x000b
    80002b98:	f02a                	sd	a0,32(sp)
    80002b9a:	f42a                	sd	a0,40(sp)
    80002b9c:	f82a                	sd	a0,48(sp)
    80002b9e:	fc2a                	sd	a0,56(sp)
    80002ba0:	e0aa                	sd	a0,64(sp)
    80002ba2:	e4ae                	sd	a1,72(sp)
    80002ba4:	e8ae                	sd	a1,80(sp)
    80002ba6:	ecae                	sd	a1,88(sp)
    80002ba8:	4515                	li	a0,5
    80002baa:	f0aa                	sd	a0,96(sp)
    80002bac:	f4b2                	sd	a2,104(sp)
    80002bae:	f8ba                	sd	a4,112(sp)
    80002bb0:	fcbe                	sd	a5,120(sp)
    80002bb2:	e126                	sd	s1,128(sp)
    80002bb4:	e522                	sd	s0,136(sp)
    80002bb6:	e916                	sd	t0,144(sp)
    80002bb8:	ed1e                	sd	t2,152(sp)
    80002bba:	f172                	sd	t3,160(sp)
    80002bbc:	02800613          	li	a2,40
    80002bc0:	06000493          	li	s1,96
    80002bc4:	00c30533          	add	a0,t1,a2
    80002bc8:	610c                	ld	a1,0(a0)
    80002bca:	00930733          	add	a4,t1,s1
    80002bce:	fe873783          	ld	a5,-24(a4)
    80002bd2:	6500                	ld	s0,8(a0)
    80002bd4:	ff073683          	ld	a3,-16(a4)
    80002bd8:	02b785b3          	mul	a1,a5,a1
    80002bdc:	028686b3          	mul	a3,a3,s0
    80002be0:	6908                	ld	a0,16(a0)
    80002be2:	ff873783          	ld	a5,-8(a4)
    80002be6:	fa073403          	ld	s0,-96(a4)
    80002bea:	6318                	ld	a4,0(a4)
    80002bec:	02a78533          	mul	a0,a5,a0
    80002bf0:	02870733          	mul	a4,a4,s0
    80002bf4:	95ce                	add	a1,a1,s3
    80002bf6:	95b6                	add	a1,a1,a3
    80002bf8:	952e                	add	a0,a0,a1
    80002bfa:	00e509b3          	add	s3,a0,a4
    80002bfe:	1601                	addi	a2,a2,-32
    80002c00:	02048493          	addi	s1,s1,32
    80002c04:	fda610e3          	bne	a2,s10,80002bc4 <main+0xa6c>
    80002c08:	4901                	li	s2,0
    80002c0a:	033db423          	sd	s3,40(s11)
    80002c0e:	00083503          	ld	a0,0(a6)
    80002c12:	65e2                	ld	a1,24(sp)
    80002c14:	618c                	ld	a1,0(a1)
    80002c16:	0000b603          	ld	a2,0(ra)
    80002c1a:	0080b683          	ld	a3,8(ra)
    80002c1e:	0100b703          	ld	a4,16(ra)
    80002c22:	0180b783          	ld	a5,24(ra)
    80002c26:	0200b403          	ld	s0,32(ra)
    80002c2a:	0280b283          	ld	t0,40(ra)
    80002c2e:	0300b383          	ld	t2,48(ra)
    80002c32:	0380be03          	ld	t3,56(ra)
    80002c36:	0000000b          	.insn	4, 0x000b
    80002c3a:	f02a                	sd	a0,32(sp)
    80002c3c:	f42a                	sd	a0,40(sp)
    80002c3e:	f82a                	sd	a0,48(sp)
    80002c40:	fc2a                	sd	a0,56(sp)
    80002c42:	e0aa                	sd	a0,64(sp)
    80002c44:	e4aa                	sd	a0,72(sp)
    80002c46:	e8ae                	sd	a1,80(sp)
    80002c48:	ecae                	sd	a1,88(sp)
    80002c4a:	4519                	li	a0,6
    80002c4c:	f0aa                	sd	a0,96(sp)
    80002c4e:	f4b2                	sd	a2,104(sp)
    80002c50:	f8b6                	sd	a3,112(sp)
    80002c52:	fcba                	sd	a4,120(sp)
    80002c54:	e13e                	sd	a5,128(sp)
    80002c56:	e522                	sd	s0,136(sp)
    80002c58:	e916                	sd	t0,144(sp)
    80002c5a:	ed1e                	sd	t2,152(sp)
    80002c5c:	f172                	sd	t3,160(sp)
    80002c5e:	fc000613          	li	a2,-64
    80002c62:	86fa                	mv	a3,t5
    80002c64:	ff86b503          	ld	a0,-8(a3)
    80002c68:	00ca85b3          	add	a1,s5,a2
    80002c6c:	6db8                	ld	a4,88(a1)
    80002c6e:	629c                	ld	a5,0(a3)
    80002c70:	71a0                	ld	s0,96(a1)
    80002c72:	02a70533          	mul	a0,a4,a0
    80002c76:	02f40733          	mul	a4,s0,a5
    80002c7a:	699c                	ld	a5,16(a1)
    80002c7c:	75a0                	ld	s0,104(a1)
    80002c7e:	6d84                	ld	s1,24(a1)
    80002c80:	79ac                	ld	a1,112(a1)
    80002c82:	02f407b3          	mul	a5,s0,a5
    80002c86:	029585b3          	mul	a1,a1,s1
    80002c8a:	954a                	add	a0,a0,s2
    80002c8c:	953a                	add	a0,a0,a4
    80002c8e:	953e                	add	a0,a0,a5
    80002c90:	00b50933          	add	s2,a0,a1
    80002c94:	02060613          	addi	a2,a2,32
    80002c98:	1681                	addi	a3,a3,-32
    80002c9a:	f669                	bnez	a2,80002c64 <main+0xb0c>
    80002c9c:	4981                	li	s3,0
    80002c9e:	032db823          	sd	s2,48(s11)
    80002ca2:	00083503          	ld	a0,0(a6)
    80002ca6:	65e2                	ld	a1,24(sp)
    80002ca8:	618c                	ld	a1,0(a1)
    80002caa:	0000b603          	ld	a2,0(ra)
    80002cae:	0080b703          	ld	a4,8(ra)
    80002cb2:	0100b783          	ld	a5,16(ra)
    80002cb6:	0180b483          	ld	s1,24(ra)
    80002cba:	0200b403          	ld	s0,32(ra)
    80002cbe:	0280b283          	ld	t0,40(ra)
    80002cc2:	0300b383          	ld	t2,48(ra)
    80002cc6:	0380be03          	ld	t3,56(ra)
    80002cca:	0000000b          	.insn	4, 0x000b
    80002cce:	f02a                	sd	a0,32(sp)
    80002cd0:	f42a                	sd	a0,40(sp)
    80002cd2:	f82a                	sd	a0,48(sp)
    80002cd4:	fc2a                	sd	a0,56(sp)
    80002cd6:	e0aa                	sd	a0,64(sp)
    80002cd8:	e4aa                	sd	a0,72(sp)
    80002cda:	e8aa                	sd	a0,80(sp)
    80002cdc:	ecae                	sd	a1,88(sp)
    80002cde:	451d                	li	a0,7
    80002ce0:	f0aa                	sd	a0,96(sp)
    80002ce2:	f4b2                	sd	a2,104(sp)
    80002ce4:	f8ba                	sd	a4,112(sp)
    80002ce6:	fcbe                	sd	a5,120(sp)
    80002ce8:	e126                	sd	s1,128(sp)
    80002cea:	e522                	sd	s0,136(sp)
    80002cec:	e916                	sd	t0,144(sp)
    80002cee:	ed1e                	sd	t2,152(sp)
    80002cf0:	f172                	sd	t3,160(sp)
    80002cf2:	03800613          	li	a2,56
    80002cf6:	06000493          	li	s1,96
    80002cfa:	00c30533          	add	a0,t1,a2
    80002cfe:	6108                	ld	a0,0(a0)
    80002d00:	009305b3          	add	a1,t1,s1
    80002d04:	fe85b703          	ld	a4,-24(a1)
    80002d08:	fa05b783          	ld	a5,-96(a1)
    80002d0c:	ff05b403          	ld	s0,-16(a1)
    80002d10:	02a70533          	mul	a0,a4,a0
    80002d14:	02f40733          	mul	a4,s0,a5
    80002d18:	fa85b783          	ld	a5,-88(a1)
    80002d1c:	ff85b403          	ld	s0,-8(a1)
    80002d20:	fb05b683          	ld	a3,-80(a1)
    80002d24:	618c                	ld	a1,0(a1)
    80002d26:	02f407b3          	mul	a5,s0,a5
    80002d2a:	02d585b3          	mul	a1,a1,a3
    80002d2e:	954e                	add	a0,a0,s3
    80002d30:	953a                	add	a0,a0,a4
    80002d32:	953e                	add	a0,a0,a5
    80002d34:	00b509b3          	add	s3,a0,a1
    80002d38:	1601                	addi	a2,a2,-32
    80002d3a:	02048493          	addi	s1,s1,32
    80002d3e:	fb161ee3          	bne	a2,a7,80002cfa <main+0xba2>
    80002d42:	4401                	li	s0,0
    80002d44:	033dbc23          	sd	s3,56(s11)
    80002d48:	00083503          	ld	a0,0(a6)
    80002d4c:	0000b583          	ld	a1,0(ra)
    80002d50:	0080b603          	ld	a2,8(ra)
    80002d54:	0100b683          	ld	a3,16(ra)
    80002d58:	0180b703          	ld	a4,24(ra)
    80002d5c:	0200b783          	ld	a5,32(ra)
    80002d60:	0280b483          	ld	s1,40(ra)
    80002d64:	0300b283          	ld	t0,48(ra)
    80002d68:	0380b383          	ld	t2,56(ra)
    80002d6c:	0000000b          	.insn	4, 0x000b
    80002d70:	f02a                	sd	a0,32(sp)
    80002d72:	f42a                	sd	a0,40(sp)
    80002d74:	f82a                	sd	a0,48(sp)
    80002d76:	fc2a                	sd	a0,56(sp)
    80002d78:	e0aa                	sd	a0,64(sp)
    80002d7a:	e4aa                	sd	a0,72(sp)
    80002d7c:	e8aa                	sd	a0,80(sp)
    80002d7e:	ecaa                	sd	a0,88(sp)
    80002d80:	f082                	sd	zero,96(sp)
    80002d82:	f4ae                	sd	a1,104(sp)
    80002d84:	f8b2                	sd	a2,112(sp)
    80002d86:	fcb6                	sd	a3,120(sp)
    80002d88:	e13a                	sd	a4,128(sp)
    80002d8a:	e53e                	sd	a5,136(sp)
    80002d8c:	e926                	sd	s1,144(sp)
    80002d8e:	ed16                	sd	t0,152(sp)
    80002d90:	f11e                	sd	t2,160(sp)
    80002d92:	4641                	li	a2,16
    80002d94:	00c30533          	add	a0,t1,a2
    80002d98:	ff053583          	ld	a1,-16(a0)
    80002d9c:	7d14                	ld	a3,56(a0)
    80002d9e:	02b685b3          	mul	a1,a3,a1
    80002da2:	ff853683          	ld	a3,-8(a0)
    80002da6:	6138                	ld	a4,64(a0)
    80002da8:	611c                	ld	a5,0(a0)
    80002daa:	6524                	ld	s1,72(a0)
    80002dac:	02d706b3          	mul	a3,a4,a3
    80002db0:	02f48733          	mul	a4,s1,a5
    80002db4:	651c                	ld	a5,8(a0)
    80002db6:	6928                	ld	a0,80(a0)
    80002db8:	95a2                	add	a1,a1,s0
    80002dba:	02f50533          	mul	a0,a0,a5
    80002dbe:	95b6                	add	a1,a1,a3
    80002dc0:	95ba                	add	a1,a1,a4
    80002dc2:	02060613          	addi	a2,a2,32
    80002dc6:	00a58433          	add	s0,a1,a0
    80002dca:	fdd615e3          	bne	a2,t4,80002d94 <main+0xc3c>
    80002dce:	4681                	li	a3,0
    80002dd0:	4a01                	li	s4,0
    80002dd2:	048db023          	sd	s0,64(s11)
    80002dd6:	64e2                	ld	s1,24(sp)
    80002dd8:	60c8                	ld	a0,128(s1)
    80002dda:	00083583          	ld	a1,0(a6)
    80002dde:	0000b603          	ld	a2,0(ra)
    80002de2:	0080b703          	ld	a4,8(ra)
    80002de6:	0100b783          	ld	a5,16(ra)
    80002dea:	0180b403          	ld	s0,24(ra)
    80002dee:	0200b283          	ld	t0,32(ra)
    80002df2:	0280b383          	ld	t2,40(ra)
    80002df6:	0300b903          	ld	s2,48(ra)
    80002dfa:	0380b983          	ld	s3,56(ra)
    80002dfe:	0000000b          	.insn	4, 0x000b
    80002e02:	f02a                	sd	a0,32(sp)
    80002e04:	f42e                	sd	a1,40(sp)
    80002e06:	f82e                	sd	a1,48(sp)
    80002e08:	fc2e                	sd	a1,56(sp)
    80002e0a:	e0ae                	sd	a1,64(sp)
    80002e0c:	e4ae                	sd	a1,72(sp)
    80002e0e:	e8ae                	sd	a1,80(sp)
    80002e10:	ecae                	sd	a1,88(sp)
    80002e12:	08048e13          	addi	t3,s1,128
    80002e16:	4505                	li	a0,1
    80002e18:	f0aa                	sd	a0,96(sp)
    80002e1a:	f4b2                	sd	a2,104(sp)
    80002e1c:	f8ba                	sd	a4,112(sp)
    80002e1e:	fcbe                	sd	a5,120(sp)
    80002e20:	e122                	sd	s0,128(sp)
    80002e22:	e516                	sd	t0,136(sp)
    80002e24:	e91e                	sd	t2,144(sp)
    80002e26:	ed4a                	sd	s2,152(sp)
    80002e28:	f14e                	sd	s3,160(sp)
    80002e2a:	10b0                	addi	a2,sp,104
    80002e2c:	fc063503          	ld	a0,-64(a2)
    80002e30:	620c                	ld	a1,0(a2)
    80002e32:	fc863703          	ld	a4,-56(a2)
    80002e36:	661c                	ld	a5,8(a2)
    80002e38:	02a58533          	mul	a0,a1,a0
    80002e3c:	02e785b3          	mul	a1,a5,a4
    80002e40:	fd063703          	ld	a4,-48(a2)
    80002e44:	6a1c                	ld	a5,16(a2)
    80002e46:	0046c413          	xori	s0,a3,4
    80002e4a:	040e                	slli	s0,s0,0x3
    80002e4c:	941a                	add	s0,s0,t1
    80002e4e:	6000                	ld	s0,0(s0)
    80002e50:	6e04                	ld	s1,24(a2)
    80002e52:	02e78733          	mul	a4,a5,a4
    80002e56:	028487b3          	mul	a5,s1,s0
    80002e5a:	9552                	add	a0,a0,s4
    80002e5c:	952e                	add	a0,a0,a1
    80002e5e:	953a                	add	a0,a0,a4
    80002e60:	00f50a33          	add	s4,a0,a5
    80002e64:	0691                	addi	a3,a3,4
    80002e66:	02060613          	addi	a2,a2,32
    80002e6a:	fd6691e3          	bne	a3,s6,80002e2c <main+0xcd4>
    80002e6e:	4401                	li	s0,0
    80002e70:	4c01                	li	s8,0
    80002e72:	054db423          	sd	s4,72(s11)
    80002e76:	000e3503          	ld	a0,0(t3)
    80002e7a:	00083583          	ld	a1,0(a6)
    80002e7e:	0000b603          	ld	a2,0(ra)
    80002e82:	0080b703          	ld	a4,8(ra)
    80002e86:	0100b783          	ld	a5,16(ra)
    80002e8a:	0180b483          	ld	s1,24(ra)
    80002e8e:	0200b283          	ld	t0,32(ra)
    80002e92:	0280b383          	ld	t2,40(ra)
    80002e96:	0300b903          	ld	s2,48(ra)
    80002e9a:	0380b983          	ld	s3,56(ra)
    80002e9e:	0000000b          	.insn	4, 0x000b
    80002ea2:	f02a                	sd	a0,32(sp)
    80002ea4:	f42a                	sd	a0,40(sp)
    80002ea6:	f82e                	sd	a1,48(sp)
    80002ea8:	fc2e                	sd	a1,56(sp)
    80002eaa:	e0ae                	sd	a1,64(sp)
    80002eac:	e4ae                	sd	a1,72(sp)
    80002eae:	e8ae                	sd	a1,80(sp)
    80002eb0:	ecae                	sd	a1,88(sp)
    80002eb2:	4509                	li	a0,2
    80002eb4:	f0aa                	sd	a0,96(sp)
    80002eb6:	f4b2                	sd	a2,104(sp)
    80002eb8:	f8ba                	sd	a4,112(sp)
    80002eba:	fcbe                	sd	a5,120(sp)
    80002ebc:	e126                	sd	s1,128(sp)
    80002ebe:	e516                	sd	t0,136(sp)
    80002ec0:	e91e                	sd	t2,144(sp)
    80002ec2:	ed4a                	sd	s2,152(sp)
    80002ec4:	f14e                	sd	s3,160(sp)
    80002ec6:	867e                	mv	a2,t6
    80002ec8:	00a4                	addi	s1,sp,72
    80002eca:	fb063503          	ld	a0,-80(a2)
    80002ece:	fe863583          	ld	a1,-24(a2)
    80002ed2:	fb863703          	ld	a4,-72(a2)
    80002ed6:	ff063783          	ld	a5,-16(a2)
    80002eda:	02a582b3          	mul	t0,a1,a0
    80002ede:	02e785b3          	mul	a1,a5,a4
    80002ee2:	00444713          	xori	a4,s0,4
    80002ee6:	070e                	slli	a4,a4,0x3
    80002ee8:	971a                	add	a4,a4,t1
    80002eea:	6318                	ld	a4,0(a4)
    80002eec:	ff863783          	ld	a5,-8(a2)
    80002ef0:	6094                	ld	a3,0(s1)
    80002ef2:	6208                	ld	a0,0(a2)
    80002ef4:	02e78733          	mul	a4,a5,a4
    80002ef8:	02d50533          	mul	a0,a0,a3
    80002efc:	018286b3          	add	a3,t0,s8
    80002f00:	95b6                	add	a1,a1,a3
    80002f02:	95ba                	add	a1,a1,a4
    80002f04:	00a58c33          	add	s8,a1,a0
    80002f08:	0411                	addi	s0,s0,4
    80002f0a:	1481                	addi	s1,s1,-32
    80002f0c:	02060613          	addi	a2,a2,32
    80002f10:	fb641de3          	bne	s0,s6,80002eca <main+0xd72>
    80002f14:	4481                	li	s1,0
    80002f16:	4a01                	li	s4,0
    80002f18:	058db823          	sd	s8,80(s11)
    80002f1c:	000e3503          	ld	a0,0(t3)
    80002f20:	00083583          	ld	a1,0(a6)
    80002f24:	0000b603          	ld	a2,0(ra)
    80002f28:	0080b683          	ld	a3,8(ra)
    80002f2c:	0100b703          	ld	a4,16(ra)
    80002f30:	0180b783          	ld	a5,24(ra)
    80002f34:	0200b283          	ld	t0,32(ra)
    80002f38:	0280b383          	ld	t2,40(ra)
    80002f3c:	0300b903          	ld	s2,48(ra)
    80002f40:	0380b983          	ld	s3,56(ra)
    80002f44:	0000000b          	.insn	4, 0x000b
    80002f48:	f02a                	sd	a0,32(sp)
    80002f4a:	f42a                	sd	a0,40(sp)
    80002f4c:	f82a                	sd	a0,48(sp)
    80002f4e:	fc2e                	sd	a1,56(sp)
    80002f50:	e0ae                	sd	a1,64(sp)
    80002f52:	e4ae                	sd	a1,72(sp)
    80002f54:	e8ae                	sd	a1,80(sp)
    80002f56:	ecae                	sd	a1,88(sp)
    80002f58:	450d                	li	a0,3
    80002f5a:	f0aa                	sd	a0,96(sp)
    80002f5c:	f4b2                	sd	a2,104(sp)
    80002f5e:	f8b6                	sd	a3,112(sp)
    80002f60:	fcba                	sd	a4,120(sp)
    80002f62:	e13e                	sd	a5,128(sp)
    80002f64:	e516                	sd	t0,136(sp)
    80002f66:	e91e                	sd	t2,144(sp)
    80002f68:	ed4a                	sd	s2,152(sp)
    80002f6a:	f14e                	sd	s3,160(sp)
    80002f6c:	fc000693          	li	a3,-64
    80002f70:	8656                	mv	a2,s5
    80002f72:	00da8533          	add	a0,s5,a3
    80002f76:	750c                	ld	a1,40(a0)
    80002f78:	6d38                	ld	a4,88(a0)
    80002f7a:	0044c793          	xori	a5,s1,4
    80002f7e:	078e                	slli	a5,a5,0x3
    80002f80:	979a                	add	a5,a5,t1
    80002f82:	639c                	ld	a5,0(a5)
    80002f84:	7120                	ld	s0,96(a0)
    80002f86:	02b702b3          	mul	t0,a4,a1
    80002f8a:	02f40733          	mul	a4,s0,a5
    80002f8e:	ff863783          	ld	a5,-8(a2)
    80002f92:	7520                	ld	s0,104(a0)
    80002f94:	620c                	ld	a1,0(a2)
    80002f96:	7928                	ld	a0,112(a0)
    80002f98:	02f407b3          	mul	a5,s0,a5
    80002f9c:	02b50533          	mul	a0,a0,a1
    80002fa0:	014285b3          	add	a1,t0,s4
    80002fa4:	95ba                	add	a1,a1,a4
    80002fa6:	95be                	add	a1,a1,a5
    80002fa8:	00a58a33          	add	s4,a1,a0
    80002fac:	0491                	addi	s1,s1,4
    80002fae:	02068693          	addi	a3,a3,32
    80002fb2:	1601                	addi	a2,a2,-32
    80002fb4:	fedd                	bnez	a3,80002f72 <main+0xe1a>
    80002fb6:	4981                	li	s3,0
    80002fb8:	054dbc23          	sd	s4,88(s11)
    80002fbc:	000e3503          	ld	a0,0(t3)
    80002fc0:	00083583          	ld	a1,0(a6)
    80002fc4:	0000b603          	ld	a2,0(ra)
    80002fc8:	0080b683          	ld	a3,8(ra)
    80002fcc:	0100b703          	ld	a4,16(ra)
    80002fd0:	0180b783          	ld	a5,24(ra)
    80002fd4:	0200b403          	ld	s0,32(ra)
    80002fd8:	0280b283          	ld	t0,40(ra)
    80002fdc:	0300b383          	ld	t2,48(ra)
    80002fe0:	0380b903          	ld	s2,56(ra)
    80002fe4:	0000000b          	.insn	4, 0x000b
    80002fe8:	f02a                	sd	a0,32(sp)
    80002fea:	f42a                	sd	a0,40(sp)
    80002fec:	f82a                	sd	a0,48(sp)
    80002fee:	fc2a                	sd	a0,56(sp)
    80002ff0:	e0ae                	sd	a1,64(sp)
    80002ff2:	e4ae                	sd	a1,72(sp)
    80002ff4:	e8ae                	sd	a1,80(sp)
    80002ff6:	ecae                	sd	a1,88(sp)
    80002ff8:	4511                	li	a0,4
    80002ffa:	f0aa                	sd	a0,96(sp)
    80002ffc:	f4b2                	sd	a2,104(sp)
    80002ffe:	f8b6                	sd	a3,112(sp)
    80003000:	fcba                	sd	a4,120(sp)
    80003002:	e13e                	sd	a5,128(sp)
    80003004:	e522                	sd	s0,136(sp)
    80003006:	e916                	sd	t0,144(sp)
    80003008:	ed1e                	sd	t2,152(sp)
    8000300a:	f14a                	sd	s2,160(sp)
    8000300c:	02000613          	li	a2,32
    80003010:	86fe                	mv	a3,t6
    80003012:	00cf8533          	add	a0,t6,a2
    80003016:	fa053583          	ld	a1,-96(a0)
    8000301a:	fe86b703          	ld	a4,-24(a3)
    8000301e:	fa853783          	ld	a5,-88(a0)
    80003022:	ff06b403          	ld	s0,-16(a3)
    80003026:	02b705b3          	mul	a1,a4,a1
    8000302a:	02f40733          	mul	a4,s0,a5
    8000302e:	fb053783          	ld	a5,-80(a0)
    80003032:	ff86b403          	ld	s0,-8(a3)
    80003036:	fb853503          	ld	a0,-72(a0)
    8000303a:	6284                	ld	s1,0(a3)
    8000303c:	02f407b3          	mul	a5,s0,a5
    80003040:	02a48533          	mul	a0,s1,a0
    80003044:	95ce                	add	a1,a1,s3
    80003046:	95ba                	add	a1,a1,a4
    80003048:	95be                	add	a1,a1,a5
    8000304a:	00a589b3          	add	s3,a1,a0
    8000304e:	1601                	addi	a2,a2,-32
    80003050:	02068693          	addi	a3,a3,32
    80003054:	fb761fe3          	bne	a2,s7,80003012 <main+0xeba>
    80003058:	4a01                	li	s4,0
    8000305a:	073db023          	sd	s3,96(s11)
    8000305e:	000e3503          	ld	a0,0(t3)
    80003062:	00083583          	ld	a1,0(a6)
    80003066:	0000b603          	ld	a2,0(ra)
    8000306a:	0080b703          	ld	a4,8(ra)
    8000306e:	0100b783          	ld	a5,16(ra)
    80003072:	0180b483          	ld	s1,24(ra)
    80003076:	0200b403          	ld	s0,32(ra)
    8000307a:	0280b283          	ld	t0,40(ra)
    8000307e:	0300b383          	ld	t2,48(ra)
    80003082:	0380b903          	ld	s2,56(ra)
    80003086:	0000000b          	.insn	4, 0x000b
    8000308a:	f02a                	sd	a0,32(sp)
    8000308c:	f42a                	sd	a0,40(sp)
    8000308e:	f82a                	sd	a0,48(sp)
    80003090:	fc2a                	sd	a0,56(sp)
    80003092:	e0aa                	sd	a0,64(sp)
    80003094:	e4ae                	sd	a1,72(sp)
    80003096:	e8ae                	sd	a1,80(sp)
    80003098:	ecae                	sd	a1,88(sp)
    8000309a:	4515                	li	a0,5
    8000309c:	f0aa                	sd	a0,96(sp)
    8000309e:	f4b2                	sd	a2,104(sp)
    800030a0:	f8ba                	sd	a4,112(sp)
    800030a2:	fcbe                	sd	a5,120(sp)
    800030a4:	e126                	sd	s1,128(sp)
    800030a6:	e522                	sd	s0,136(sp)
    800030a8:	e916                	sd	t0,144(sp)
    800030aa:	ed1e                	sd	t2,152(sp)
    800030ac:	f14a                	sd	s2,160(sp)
    800030ae:	02800613          	li	a2,40
    800030b2:	06000413          	li	s0,96
    800030b6:	00c30533          	add	a0,t1,a2
    800030ba:	610c                	ld	a1,0(a0)
    800030bc:	00830733          	add	a4,t1,s0
    800030c0:	fe873783          	ld	a5,-24(a4)
    800030c4:	6504                	ld	s1,8(a0)
    800030c6:	ff073683          	ld	a3,-16(a4)
    800030ca:	02b785b3          	mul	a1,a5,a1
    800030ce:	029686b3          	mul	a3,a3,s1
    800030d2:	6908                	ld	a0,16(a0)
    800030d4:	ff873783          	ld	a5,-8(a4)
    800030d8:	fa073483          	ld	s1,-96(a4)
    800030dc:	6318                	ld	a4,0(a4)
    800030de:	02a78533          	mul	a0,a5,a0
    800030e2:	02970733          	mul	a4,a4,s1
    800030e6:	95d2                	add	a1,a1,s4
    800030e8:	95b6                	add	a1,a1,a3
    800030ea:	952e                	add	a0,a0,a1
    800030ec:	00e50a33          	add	s4,a0,a4
    800030f0:	1601                	addi	a2,a2,-32
    800030f2:	02040413          	addi	s0,s0,32
    800030f6:	fda610e3          	bne	a2,s10,800030b6 <main+0xf5e>
    800030fa:	4981                	li	s3,0
    800030fc:	074db423          	sd	s4,104(s11)
    80003100:	000e3503          	ld	a0,0(t3)
    80003104:	00083583          	ld	a1,0(a6)
    80003108:	0000b603          	ld	a2,0(ra)
    8000310c:	0080b683          	ld	a3,8(ra)
    80003110:	0100b703          	ld	a4,16(ra)
    80003114:	0180b783          	ld	a5,24(ra)
    80003118:	0200b483          	ld	s1,32(ra)
    8000311c:	0280b283          	ld	t0,40(ra)
    80003120:	0300b383          	ld	t2,48(ra)
    80003124:	0380b903          	ld	s2,56(ra)
    80003128:	0000000b          	.insn	4, 0x000b
    8000312c:	f02a                	sd	a0,32(sp)
    8000312e:	f42a                	sd	a0,40(sp)
    80003130:	f82a                	sd	a0,48(sp)
    80003132:	fc2a                	sd	a0,56(sp)
    80003134:	e0aa                	sd	a0,64(sp)
    80003136:	e4aa                	sd	a0,72(sp)
    80003138:	e8ae                	sd	a1,80(sp)
    8000313a:	ecae                	sd	a1,88(sp)
    8000313c:	4519                	li	a0,6
    8000313e:	f0aa                	sd	a0,96(sp)
    80003140:	f4b2                	sd	a2,104(sp)
    80003142:	f8b6                	sd	a3,112(sp)
    80003144:	fcba                	sd	a4,120(sp)
    80003146:	e13e                	sd	a5,128(sp)
    80003148:	e526                	sd	s1,136(sp)
    8000314a:	e916                	sd	t0,144(sp)
    8000314c:	ed1e                	sd	t2,152(sp)
    8000314e:	f14a                	sd	s2,160(sp)
    80003150:	fc000613          	li	a2,-64
    80003154:	86fa                	mv	a3,t5
    80003156:	ff86b503          	ld	a0,-8(a3)
    8000315a:	00ca85b3          	add	a1,s5,a2
    8000315e:	6db8                	ld	a4,88(a1)
    80003160:	629c                	ld	a5,0(a3)
    80003162:	71a4                	ld	s1,96(a1)
    80003164:	02a70533          	mul	a0,a4,a0
    80003168:	02f48733          	mul	a4,s1,a5
    8000316c:	699c                	ld	a5,16(a1)
    8000316e:	75a4                	ld	s1,104(a1)
    80003170:	6d80                	ld	s0,24(a1)
    80003172:	79ac                	ld	a1,112(a1)
    80003174:	02f487b3          	mul	a5,s1,a5
    80003178:	028585b3          	mul	a1,a1,s0
    8000317c:	954e                	add	a0,a0,s3
    8000317e:	953a                	add	a0,a0,a4
    80003180:	953e                	add	a0,a0,a5
    80003182:	00b509b3          	add	s3,a0,a1
    80003186:	02060613          	addi	a2,a2,32
    8000318a:	1681                	addi	a3,a3,-32
    8000318c:	f669                	bnez	a2,80003156 <main+0xffe>
    8000318e:	4901                	li	s2,0
    80003190:	073db823          	sd	s3,112(s11)
    80003194:	000e3503          	ld	a0,0(t3)
    80003198:	00083583          	ld	a1,0(a6)
    8000319c:	0000b603          	ld	a2,0(ra)
    800031a0:	0080b703          	ld	a4,8(ra)
    800031a4:	0100b783          	ld	a5,16(ra)
    800031a8:	0180b483          	ld	s1,24(ra)
    800031ac:	0200b403          	ld	s0,32(ra)
    800031b0:	0280b803          	ld	a6,40(ra)
    800031b4:	0300b283          	ld	t0,48(ra)
    800031b8:	0380b383          	ld	t2,56(ra)
    800031bc:	0000000b          	.insn	4, 0x000b
    800031c0:	f02a                	sd	a0,32(sp)
    800031c2:	f42a                	sd	a0,40(sp)
    800031c4:	f82a                	sd	a0,48(sp)
    800031c6:	fc2a                	sd	a0,56(sp)
    800031c8:	e0aa                	sd	a0,64(sp)
    800031ca:	e4aa                	sd	a0,72(sp)
    800031cc:	e8aa                	sd	a0,80(sp)
    800031ce:	ecae                	sd	a1,88(sp)
    800031d0:	451d                	li	a0,7
    800031d2:	f0aa                	sd	a0,96(sp)
    800031d4:	f4b2                	sd	a2,104(sp)
    800031d6:	f8ba                	sd	a4,112(sp)
    800031d8:	fcbe                	sd	a5,120(sp)
    800031da:	e126                	sd	s1,128(sp)
    800031dc:	e522                	sd	s0,136(sp)
    800031de:	e942                	sd	a6,144(sp)
    800031e0:	ed16                	sd	t0,152(sp)
    800031e2:	f11e                	sd	t2,160(sp)
    800031e4:	03800613          	li	a2,56
    800031e8:	06000493          	li	s1,96
    800031ec:	00c30533          	add	a0,t1,a2
    800031f0:	6108                	ld	a0,0(a0)
    800031f2:	009305b3          	add	a1,t1,s1
    800031f6:	fe85b703          	ld	a4,-24(a1)
    800031fa:	fa05b783          	ld	a5,-96(a1)
    800031fe:	ff05b403          	ld	s0,-16(a1)
    80003202:	02a70533          	mul	a0,a4,a0
    80003206:	02f40733          	mul	a4,s0,a5
    8000320a:	fa85b783          	ld	a5,-88(a1)
    8000320e:	ff85b403          	ld	s0,-8(a1)
    80003212:	fb05b683          	ld	a3,-80(a1)
    80003216:	618c                	ld	a1,0(a1)
    80003218:	02f407b3          	mul	a5,s0,a5
    8000321c:	02d585b3          	mul	a1,a1,a3
    80003220:	954a                	add	a0,a0,s2
    80003222:	953a                	add	a0,a0,a4
    80003224:	953e                	add	a0,a0,a5
    80003226:	00b50933          	add	s2,a0,a1
    8000322a:	1601                	addi	a2,a2,-32
    8000322c:	02048493          	addi	s1,s1,32
    80003230:	fb161ee3          	bne	a2,a7,800031ec <main+0x1094>
    80003234:	4401                	li	s0,0
    80003236:	072dbc23          	sd	s2,120(s11)
    8000323a:	000e3503          	ld	a0,0(t3)
    8000323e:	0000b583          	ld	a1,0(ra)
    80003242:	0080b603          	ld	a2,8(ra)
    80003246:	0100b683          	ld	a3,16(ra)
    8000324a:	0180b703          	ld	a4,24(ra)
    8000324e:	0200b783          	ld	a5,32(ra)
    80003252:	0280b483          	ld	s1,40(ra)
    80003256:	0300b803          	ld	a6,48(ra)
    8000325a:	0380b283          	ld	t0,56(ra)
    8000325e:	0000000b          	.insn	4, 0x000b
    80003262:	f02a                	sd	a0,32(sp)
    80003264:	f42a                	sd	a0,40(sp)
    80003266:	f82a                	sd	a0,48(sp)
    80003268:	fc2a                	sd	a0,56(sp)
    8000326a:	e0aa                	sd	a0,64(sp)
    8000326c:	e4aa                	sd	a0,72(sp)
    8000326e:	e8aa                	sd	a0,80(sp)
    80003270:	ecaa                	sd	a0,88(sp)
    80003272:	f082                	sd	zero,96(sp)
    80003274:	f4ae                	sd	a1,104(sp)
    80003276:	f8b2                	sd	a2,112(sp)
    80003278:	fcb6                	sd	a3,120(sp)
    8000327a:	e13a                	sd	a4,128(sp)
    8000327c:	e53e                	sd	a5,136(sp)
    8000327e:	e926                	sd	s1,144(sp)
    80003280:	ed42                	sd	a6,152(sp)
    80003282:	f116                	sd	t0,160(sp)
    80003284:	4641                	li	a2,16
    80003286:	00c30533          	add	a0,t1,a2
    8000328a:	ff053583          	ld	a1,-16(a0)
    8000328e:	7d14                	ld	a3,56(a0)
    80003290:	02b685b3          	mul	a1,a3,a1
    80003294:	ff853683          	ld	a3,-8(a0)
    80003298:	6138                	ld	a4,64(a0)
    8000329a:	611c                	ld	a5,0(a0)
    8000329c:	6524                	ld	s1,72(a0)
    8000329e:	02d706b3          	mul	a3,a4,a3
    800032a2:	02f48733          	mul	a4,s1,a5
    800032a6:	651c                	ld	a5,8(a0)
    800032a8:	6928                	ld	a0,80(a0)
    800032aa:	95a2                	add	a1,a1,s0
    800032ac:	02f50533          	mul	a0,a0,a5
    800032b0:	95b6                	add	a1,a1,a3
    800032b2:	95ba                	add	a1,a1,a4
    800032b4:	02060613          	addi	a2,a2,32
    800032b8:	00a58433          	add	s0,a1,a0
    800032bc:	fdd615e3          	bne	a2,t4,80003286 <main+0x112e>
    800032c0:	4681                	li	a3,0
    800032c2:	4a01                	li	s4,0
    800032c4:	088db023          	sd	s0,128(s11)
    800032c8:	64e2                	ld	s1,24(sp)
    800032ca:	60e8                	ld	a0,192(s1)
    800032cc:	000e3583          	ld	a1,0(t3)
    800032d0:	0000b603          	ld	a2,0(ra)
    800032d4:	0080b703          	ld	a4,8(ra)
    800032d8:	0100b783          	ld	a5,16(ra)
    800032dc:	0180b403          	ld	s0,24(ra)
    800032e0:	0200b283          	ld	t0,32(ra)
    800032e4:	0280b383          	ld	t2,40(ra)
    800032e8:	0300b903          	ld	s2,48(ra)
    800032ec:	0380b983          	ld	s3,56(ra)
    800032f0:	0000000b          	.insn	4, 0x000b
    800032f4:	f02a                	sd	a0,32(sp)
    800032f6:	f42e                	sd	a1,40(sp)
    800032f8:	f82e                	sd	a1,48(sp)
    800032fa:	fc2e                	sd	a1,56(sp)
    800032fc:	e0ae                	sd	a1,64(sp)
    800032fe:	e4ae                	sd	a1,72(sp)
    80003300:	e8ae                	sd	a1,80(sp)
    80003302:	ecae                	sd	a1,88(sp)
    80003304:	0c048813          	addi	a6,s1,192
    80003308:	4505                	li	a0,1
    8000330a:	f0aa                	sd	a0,96(sp)
    8000330c:	f4b2                	sd	a2,104(sp)
    8000330e:	f8ba                	sd	a4,112(sp)
    80003310:	fcbe                	sd	a5,120(sp)
    80003312:	e122                	sd	s0,128(sp)
    80003314:	e516                	sd	t0,136(sp)
    80003316:	e91e                	sd	t2,144(sp)
    80003318:	ed4a                	sd	s2,152(sp)
    8000331a:	f14e                	sd	s3,160(sp)
    8000331c:	10b0                	addi	a2,sp,104
    8000331e:	fc063503          	ld	a0,-64(a2)
    80003322:	620c                	ld	a1,0(a2)
    80003324:	fc863703          	ld	a4,-56(a2)
    80003328:	661c                	ld	a5,8(a2)
    8000332a:	02a58533          	mul	a0,a1,a0
    8000332e:	02e785b3          	mul	a1,a5,a4
    80003332:	fd063703          	ld	a4,-48(a2)
    80003336:	6a1c                	ld	a5,16(a2)
    80003338:	0046c413          	xori	s0,a3,4
    8000333c:	040e                	slli	s0,s0,0x3
    8000333e:	941a                	add	s0,s0,t1
    80003340:	6000                	ld	s0,0(s0)
    80003342:	6e04                	ld	s1,24(a2)
    80003344:	02e78733          	mul	a4,a5,a4
    80003348:	028487b3          	mul	a5,s1,s0
    8000334c:	9552                	add	a0,a0,s4
    8000334e:	952e                	add	a0,a0,a1
    80003350:	953a                	add	a0,a0,a4
    80003352:	00f50a33          	add	s4,a0,a5
    80003356:	0691                	addi	a3,a3,4
    80003358:	02060613          	addi	a2,a2,32
    8000335c:	fd6691e3          	bne	a3,s6,8000331e <main+0x11c6>
    80003360:	4401                	li	s0,0
    80003362:	4c01                	li	s8,0
    80003364:	094db423          	sd	s4,136(s11)
    80003368:	00083503          	ld	a0,0(a6)
    8000336c:	000e3583          	ld	a1,0(t3)
    80003370:	0000b603          	ld	a2,0(ra)
    80003374:	0080b703          	ld	a4,8(ra)
    80003378:	0100b783          	ld	a5,16(ra)
    8000337c:	0180b483          	ld	s1,24(ra)
    80003380:	0200b283          	ld	t0,32(ra)
    80003384:	0280b383          	ld	t2,40(ra)
    80003388:	0300b903          	ld	s2,48(ra)
    8000338c:	0380b983          	ld	s3,56(ra)
    80003390:	0000000b          	.insn	4, 0x000b
    80003394:	f02a                	sd	a0,32(sp)
    80003396:	f42a                	sd	a0,40(sp)
    80003398:	f82e                	sd	a1,48(sp)
    8000339a:	fc2e                	sd	a1,56(sp)
    8000339c:	e0ae                	sd	a1,64(sp)
    8000339e:	e4ae                	sd	a1,72(sp)
    800033a0:	e8ae                	sd	a1,80(sp)
    800033a2:	ecae                	sd	a1,88(sp)
    800033a4:	4509                	li	a0,2
    800033a6:	f0aa                	sd	a0,96(sp)
    800033a8:	f4b2                	sd	a2,104(sp)
    800033aa:	f8ba                	sd	a4,112(sp)
    800033ac:	fcbe                	sd	a5,120(sp)
    800033ae:	e126                	sd	s1,128(sp)
    800033b0:	e516                	sd	t0,136(sp)
    800033b2:	e91e                	sd	t2,144(sp)
    800033b4:	ed4a                	sd	s2,152(sp)
    800033b6:	f14e                	sd	s3,160(sp)
    800033b8:	867e                	mv	a2,t6
    800033ba:	00a4                	addi	s1,sp,72
    800033bc:	fb063503          	ld	a0,-80(a2)
    800033c0:	fe863583          	ld	a1,-24(a2)
    800033c4:	fb863703          	ld	a4,-72(a2)
    800033c8:	ff063783          	ld	a5,-16(a2)
    800033cc:	02a582b3          	mul	t0,a1,a0
    800033d0:	02e785b3          	mul	a1,a5,a4
    800033d4:	00444713          	xori	a4,s0,4
    800033d8:	070e                	slli	a4,a4,0x3
    800033da:	971a                	add	a4,a4,t1
    800033dc:	6318                	ld	a4,0(a4)
    800033de:	ff863783          	ld	a5,-8(a2)
    800033e2:	6094                	ld	a3,0(s1)
    800033e4:	6208                	ld	a0,0(a2)
    800033e6:	02e78733          	mul	a4,a5,a4
    800033ea:	02d50533          	mul	a0,a0,a3
    800033ee:	018286b3          	add	a3,t0,s8
    800033f2:	95b6                	add	a1,a1,a3
    800033f4:	95ba                	add	a1,a1,a4
    800033f6:	00a58c33          	add	s8,a1,a0
    800033fa:	0411                	addi	s0,s0,4
    800033fc:	1481                	addi	s1,s1,-32
    800033fe:	02060613          	addi	a2,a2,32
    80003402:	fb641de3          	bne	s0,s6,800033bc <main+0x1264>
    80003406:	4481                	li	s1,0
    80003408:	4a01                	li	s4,0
    8000340a:	098db823          	sd	s8,144(s11)
    8000340e:	00083503          	ld	a0,0(a6)
    80003412:	000e3583          	ld	a1,0(t3)
    80003416:	0000b603          	ld	a2,0(ra)
    8000341a:	0080b683          	ld	a3,8(ra)
    8000341e:	0100b703          	ld	a4,16(ra)
    80003422:	0180b783          	ld	a5,24(ra)
    80003426:	0200b283          	ld	t0,32(ra)
    8000342a:	0280b383          	ld	t2,40(ra)
    8000342e:	0300b903          	ld	s2,48(ra)
    80003432:	0380b983          	ld	s3,56(ra)
    80003436:	0000000b          	.insn	4, 0x000b
    8000343a:	f02a                	sd	a0,32(sp)
    8000343c:	f42a                	sd	a0,40(sp)
    8000343e:	f82a                	sd	a0,48(sp)
    80003440:	fc2e                	sd	a1,56(sp)
    80003442:	e0ae                	sd	a1,64(sp)
    80003444:	e4ae                	sd	a1,72(sp)
    80003446:	e8ae                	sd	a1,80(sp)
    80003448:	ecae                	sd	a1,88(sp)
    8000344a:	450d                	li	a0,3
    8000344c:	f0aa                	sd	a0,96(sp)
    8000344e:	f4b2                	sd	a2,104(sp)
    80003450:	f8b6                	sd	a3,112(sp)
    80003452:	fcba                	sd	a4,120(sp)
    80003454:	e13e                	sd	a5,128(sp)
    80003456:	e516                	sd	t0,136(sp)
    80003458:	e91e                	sd	t2,144(sp)
    8000345a:	ed4a                	sd	s2,152(sp)
    8000345c:	f14e                	sd	s3,160(sp)
    8000345e:	fc000693          	li	a3,-64
    80003462:	8656                	mv	a2,s5
    80003464:	00da8533          	add	a0,s5,a3
    80003468:	750c                	ld	a1,40(a0)
    8000346a:	6d38                	ld	a4,88(a0)
    8000346c:	0044c793          	xori	a5,s1,4
    80003470:	078e                	slli	a5,a5,0x3
    80003472:	979a                	add	a5,a5,t1
    80003474:	639c                	ld	a5,0(a5)
    80003476:	7120                	ld	s0,96(a0)
    80003478:	02b702b3          	mul	t0,a4,a1
    8000347c:	02f40733          	mul	a4,s0,a5
    80003480:	ff863783          	ld	a5,-8(a2)
    80003484:	7520                	ld	s0,104(a0)
    80003486:	620c                	ld	a1,0(a2)
    80003488:	7928                	ld	a0,112(a0)
    8000348a:	02f407b3          	mul	a5,s0,a5
    8000348e:	02b50533          	mul	a0,a0,a1
    80003492:	014285b3          	add	a1,t0,s4
    80003496:	95ba                	add	a1,a1,a4
    80003498:	95be                	add	a1,a1,a5
    8000349a:	00a58a33          	add	s4,a1,a0
    8000349e:	0491                	addi	s1,s1,4
    800034a0:	02068693          	addi	a3,a3,32
    800034a4:	1601                	addi	a2,a2,-32
    800034a6:	fedd                	bnez	a3,80003464 <main+0x130c>
    800034a8:	4981                	li	s3,0
    800034aa:	094dbc23          	sd	s4,152(s11)
    800034ae:	00083503          	ld	a0,0(a6)
    800034b2:	000e3583          	ld	a1,0(t3)
    800034b6:	0000b603          	ld	a2,0(ra)
    800034ba:	0080b683          	ld	a3,8(ra)
    800034be:	0100b703          	ld	a4,16(ra)
    800034c2:	0180b783          	ld	a5,24(ra)
    800034c6:	0200b403          	ld	s0,32(ra)
    800034ca:	0280b283          	ld	t0,40(ra)
    800034ce:	0300b383          	ld	t2,48(ra)
    800034d2:	0380b903          	ld	s2,56(ra)
    800034d6:	0000000b          	.insn	4, 0x000b
    800034da:	f02a                	sd	a0,32(sp)
    800034dc:	f42a                	sd	a0,40(sp)
    800034de:	f82a                	sd	a0,48(sp)
    800034e0:	fc2a                	sd	a0,56(sp)
    800034e2:	e0ae                	sd	a1,64(sp)
    800034e4:	e4ae                	sd	a1,72(sp)
    800034e6:	e8ae                	sd	a1,80(sp)
    800034e8:	ecae                	sd	a1,88(sp)
    800034ea:	4511                	li	a0,4
    800034ec:	f0aa                	sd	a0,96(sp)
    800034ee:	f4b2                	sd	a2,104(sp)
    800034f0:	f8b6                	sd	a3,112(sp)
    800034f2:	fcba                	sd	a4,120(sp)
    800034f4:	e13e                	sd	a5,128(sp)
    800034f6:	e522                	sd	s0,136(sp)
    800034f8:	e916                	sd	t0,144(sp)
    800034fa:	ed1e                	sd	t2,152(sp)
    800034fc:	f14a                	sd	s2,160(sp)
    800034fe:	02000613          	li	a2,32
    80003502:	86fe                	mv	a3,t6
    80003504:	00cf8533          	add	a0,t6,a2
    80003508:	fa053583          	ld	a1,-96(a0)
    8000350c:	fe86b703          	ld	a4,-24(a3)
    80003510:	fa853783          	ld	a5,-88(a0)
    80003514:	ff06b403          	ld	s0,-16(a3)
    80003518:	02b705b3          	mul	a1,a4,a1
    8000351c:	02f40733          	mul	a4,s0,a5
    80003520:	fb053783          	ld	a5,-80(a0)
    80003524:	ff86b403          	ld	s0,-8(a3)
    80003528:	fb853503          	ld	a0,-72(a0)
    8000352c:	6284                	ld	s1,0(a3)
    8000352e:	02f407b3          	mul	a5,s0,a5
    80003532:	02a48533          	mul	a0,s1,a0
    80003536:	95ce                	add	a1,a1,s3
    80003538:	95ba                	add	a1,a1,a4
    8000353a:	95be                	add	a1,a1,a5
    8000353c:	00a589b3          	add	s3,a1,a0
    80003540:	1601                	addi	a2,a2,-32
    80003542:	02068693          	addi	a3,a3,32
    80003546:	fb761fe3          	bne	a2,s7,80003504 <main+0x13ac>
    8000354a:	4a01                	li	s4,0
    8000354c:	0b3db023          	sd	s3,160(s11)
    80003550:	00083503          	ld	a0,0(a6)
    80003554:	000e3583          	ld	a1,0(t3)
    80003558:	0000b603          	ld	a2,0(ra)
    8000355c:	0080b703          	ld	a4,8(ra)
    80003560:	0100b783          	ld	a5,16(ra)
    80003564:	0180b483          	ld	s1,24(ra)
    80003568:	0200b403          	ld	s0,32(ra)
    8000356c:	0280b283          	ld	t0,40(ra)
    80003570:	0300b383          	ld	t2,48(ra)
    80003574:	0380b903          	ld	s2,56(ra)
    80003578:	0000000b          	.insn	4, 0x000b
    8000357c:	f02a                	sd	a0,32(sp)
    8000357e:	f42a                	sd	a0,40(sp)
    80003580:	f82a                	sd	a0,48(sp)
    80003582:	fc2a                	sd	a0,56(sp)
    80003584:	e0aa                	sd	a0,64(sp)
    80003586:	e4ae                	sd	a1,72(sp)
    80003588:	e8ae                	sd	a1,80(sp)
    8000358a:	ecae                	sd	a1,88(sp)
    8000358c:	4515                	li	a0,5
    8000358e:	f0aa                	sd	a0,96(sp)
    80003590:	f4b2                	sd	a2,104(sp)
    80003592:	f8ba                	sd	a4,112(sp)
    80003594:	fcbe                	sd	a5,120(sp)
    80003596:	e126                	sd	s1,128(sp)
    80003598:	e522                	sd	s0,136(sp)
    8000359a:	e916                	sd	t0,144(sp)
    8000359c:	ed1e                	sd	t2,152(sp)
    8000359e:	f14a                	sd	s2,160(sp)
    800035a0:	02800613          	li	a2,40
    800035a4:	06000413          	li	s0,96
    800035a8:	00c30533          	add	a0,t1,a2
    800035ac:	610c                	ld	a1,0(a0)
    800035ae:	00830733          	add	a4,t1,s0
    800035b2:	fe873783          	ld	a5,-24(a4)
    800035b6:	6504                	ld	s1,8(a0)
    800035b8:	ff073683          	ld	a3,-16(a4)
    800035bc:	02b785b3          	mul	a1,a5,a1
    800035c0:	029686b3          	mul	a3,a3,s1
    800035c4:	6908                	ld	a0,16(a0)
    800035c6:	ff873783          	ld	a5,-8(a4)
    800035ca:	fa073483          	ld	s1,-96(a4)
    800035ce:	6318                	ld	a4,0(a4)
    800035d0:	02a78533          	mul	a0,a5,a0
    800035d4:	02970733          	mul	a4,a4,s1
    800035d8:	95d2                	add	a1,a1,s4
    800035da:	95b6                	add	a1,a1,a3
    800035dc:	952e                	add	a0,a0,a1
    800035de:	00e50a33          	add	s4,a0,a4
    800035e2:	1601                	addi	a2,a2,-32
    800035e4:	02040413          	addi	s0,s0,32
    800035e8:	fda610e3          	bne	a2,s10,800035a8 <main+0x1450>
    800035ec:	4981                	li	s3,0
    800035ee:	0b4db423          	sd	s4,168(s11)
    800035f2:	00083503          	ld	a0,0(a6)
    800035f6:	000e3583          	ld	a1,0(t3)
    800035fa:	0000b603          	ld	a2,0(ra)
    800035fe:	0080b683          	ld	a3,8(ra)
    80003602:	0100b703          	ld	a4,16(ra)
    80003606:	0180b783          	ld	a5,24(ra)
    8000360a:	0200b483          	ld	s1,32(ra)
    8000360e:	0280b283          	ld	t0,40(ra)
    80003612:	0300b383          	ld	t2,48(ra)
    80003616:	0380b903          	ld	s2,56(ra)
    8000361a:	0000000b          	.insn	4, 0x000b
    8000361e:	f02a                	sd	a0,32(sp)
    80003620:	f42a                	sd	a0,40(sp)
    80003622:	f82a                	sd	a0,48(sp)
    80003624:	fc2a                	sd	a0,56(sp)
    80003626:	e0aa                	sd	a0,64(sp)
    80003628:	e4aa                	sd	a0,72(sp)
    8000362a:	e8ae                	sd	a1,80(sp)
    8000362c:	ecae                	sd	a1,88(sp)
    8000362e:	4519                	li	a0,6
    80003630:	f0aa                	sd	a0,96(sp)
    80003632:	f4b2                	sd	a2,104(sp)
    80003634:	f8b6                	sd	a3,112(sp)
    80003636:	fcba                	sd	a4,120(sp)
    80003638:	e13e                	sd	a5,128(sp)
    8000363a:	e526                	sd	s1,136(sp)
    8000363c:	e916                	sd	t0,144(sp)
    8000363e:	ed1e                	sd	t2,152(sp)
    80003640:	f14a                	sd	s2,160(sp)
    80003642:	fc000613          	li	a2,-64
    80003646:	86fa                	mv	a3,t5
    80003648:	ff86b503          	ld	a0,-8(a3)
    8000364c:	00ca85b3          	add	a1,s5,a2
    80003650:	6db8                	ld	a4,88(a1)
    80003652:	629c                	ld	a5,0(a3)
    80003654:	71a4                	ld	s1,96(a1)
    80003656:	02a70533          	mul	a0,a4,a0
    8000365a:	02f48733          	mul	a4,s1,a5
    8000365e:	699c                	ld	a5,16(a1)
    80003660:	75a4                	ld	s1,104(a1)
    80003662:	6d80                	ld	s0,24(a1)
    80003664:	79ac                	ld	a1,112(a1)
    80003666:	02f487b3          	mul	a5,s1,a5
    8000366a:	028585b3          	mul	a1,a1,s0
    8000366e:	954e                	add	a0,a0,s3
    80003670:	953a                	add	a0,a0,a4
    80003672:	953e                	add	a0,a0,a5
    80003674:	00b509b3          	add	s3,a0,a1
    80003678:	02060613          	addi	a2,a2,32
    8000367c:	1681                	addi	a3,a3,-32
    8000367e:	f669                	bnez	a2,80003648 <main+0x14f0>
    80003680:	4901                	li	s2,0
    80003682:	0b3db823          	sd	s3,176(s11)
    80003686:	00083503          	ld	a0,0(a6)
    8000368a:	000e3583          	ld	a1,0(t3)
    8000368e:	0000b603          	ld	a2,0(ra)
    80003692:	0080b703          	ld	a4,8(ra)
    80003696:	0100b783          	ld	a5,16(ra)
    8000369a:	0180b483          	ld	s1,24(ra)
    8000369e:	0200b403          	ld	s0,32(ra)
    800036a2:	0280b283          	ld	t0,40(ra)
    800036a6:	0300b383          	ld	t2,48(ra)
    800036aa:	0380be03          	ld	t3,56(ra)
    800036ae:	0000000b          	.insn	4, 0x000b
    800036b2:	f02a                	sd	a0,32(sp)
    800036b4:	f42a                	sd	a0,40(sp)
    800036b6:	f82a                	sd	a0,48(sp)
    800036b8:	fc2a                	sd	a0,56(sp)
    800036ba:	e0aa                	sd	a0,64(sp)
    800036bc:	e4aa                	sd	a0,72(sp)
    800036be:	e8aa                	sd	a0,80(sp)
    800036c0:	ecae                	sd	a1,88(sp)
    800036c2:	451d                	li	a0,7
    800036c4:	f0aa                	sd	a0,96(sp)
    800036c6:	f4b2                	sd	a2,104(sp)
    800036c8:	f8ba                	sd	a4,112(sp)
    800036ca:	fcbe                	sd	a5,120(sp)
    800036cc:	e126                	sd	s1,128(sp)
    800036ce:	e522                	sd	s0,136(sp)
    800036d0:	e916                	sd	t0,144(sp)
    800036d2:	ed1e                	sd	t2,152(sp)
    800036d4:	f172                	sd	t3,160(sp)
    800036d6:	03800613          	li	a2,56
    800036da:	06000493          	li	s1,96
    800036de:	00c30533          	add	a0,t1,a2
    800036e2:	6108                	ld	a0,0(a0)
    800036e4:	009305b3          	add	a1,t1,s1
    800036e8:	fe85b703          	ld	a4,-24(a1)
    800036ec:	fa05b783          	ld	a5,-96(a1)
    800036f0:	ff05b403          	ld	s0,-16(a1)
    800036f4:	02a70533          	mul	a0,a4,a0
    800036f8:	02f40733          	mul	a4,s0,a5
    800036fc:	fa85b783          	ld	a5,-88(a1)
    80003700:	ff85b403          	ld	s0,-8(a1)
    80003704:	fb05b683          	ld	a3,-80(a1)
    80003708:	618c                	ld	a1,0(a1)
    8000370a:	02f407b3          	mul	a5,s0,a5
    8000370e:	02d585b3          	mul	a1,a1,a3
    80003712:	954a                	add	a0,a0,s2
    80003714:	953a                	add	a0,a0,a4
    80003716:	953e                	add	a0,a0,a5
    80003718:	00b50933          	add	s2,a0,a1
    8000371c:	1601                	addi	a2,a2,-32
    8000371e:	02048493          	addi	s1,s1,32
    80003722:	fb161ee3          	bne	a2,a7,800036de <main+0x1586>
    80003726:	4401                	li	s0,0
    80003728:	0b2dbc23          	sd	s2,184(s11)
    8000372c:	00083503          	ld	a0,0(a6)
    80003730:	0000b583          	ld	a1,0(ra)
    80003734:	0080b603          	ld	a2,8(ra)
    80003738:	0100b683          	ld	a3,16(ra)
    8000373c:	0180b703          	ld	a4,24(ra)
    80003740:	0200b783          	ld	a5,32(ra)
    80003744:	0280b483          	ld	s1,40(ra)
    80003748:	0300b283          	ld	t0,48(ra)
    8000374c:	0380b383          	ld	t2,56(ra)
    80003750:	0000000b          	.insn	4, 0x000b
    80003754:	f02a                	sd	a0,32(sp)
    80003756:	f42a                	sd	a0,40(sp)
    80003758:	f82a                	sd	a0,48(sp)
    8000375a:	fc2a                	sd	a0,56(sp)
    8000375c:	e0aa                	sd	a0,64(sp)
    8000375e:	e4aa                	sd	a0,72(sp)
    80003760:	e8aa                	sd	a0,80(sp)
    80003762:	ecaa                	sd	a0,88(sp)
    80003764:	f082                	sd	zero,96(sp)
    80003766:	f4ae                	sd	a1,104(sp)
    80003768:	f8b2                	sd	a2,112(sp)
    8000376a:	fcb6                	sd	a3,120(sp)
    8000376c:	e13a                	sd	a4,128(sp)
    8000376e:	e53e                	sd	a5,136(sp)
    80003770:	e926                	sd	s1,144(sp)
    80003772:	ed16                	sd	t0,152(sp)
    80003774:	f11e                	sd	t2,160(sp)
    80003776:	4641                	li	a2,16
    80003778:	00c30533          	add	a0,t1,a2
    8000377c:	ff053583          	ld	a1,-16(a0)
    80003780:	7d14                	ld	a3,56(a0)
    80003782:	02b685b3          	mul	a1,a3,a1
    80003786:	ff853683          	ld	a3,-8(a0)
    8000378a:	6138                	ld	a4,64(a0)
    8000378c:	611c                	ld	a5,0(a0)
    8000378e:	6524                	ld	s1,72(a0)
    80003790:	02d706b3          	mul	a3,a4,a3
    80003794:	02f48733          	mul	a4,s1,a5
    80003798:	651c                	ld	a5,8(a0)
    8000379a:	6928                	ld	a0,80(a0)
    8000379c:	95a2                	add	a1,a1,s0
    8000379e:	02f50533          	mul	a0,a0,a5
    800037a2:	95b6                	add	a1,a1,a3
    800037a4:	95ba                	add	a1,a1,a4
    800037a6:	02060613          	addi	a2,a2,32
    800037aa:	00a58433          	add	s0,a1,a0
    800037ae:	fdd615e3          	bne	a2,t4,80003778 <main+0x1620>
    800037b2:	4681                	li	a3,0
    800037b4:	4a01                	li	s4,0
    800037b6:	0c8db023          	sd	s0,192(s11)
    800037ba:	64e2                	ld	s1,24(sp)
    800037bc:	1004b503          	ld	a0,256(s1)
    800037c0:	00083583          	ld	a1,0(a6)
    800037c4:	0000b603          	ld	a2,0(ra)
    800037c8:	0080b703          	ld	a4,8(ra)
    800037cc:	0100b783          	ld	a5,16(ra)
    800037d0:	0180b403          	ld	s0,24(ra)
    800037d4:	0200b283          	ld	t0,32(ra)
    800037d8:	0280b383          	ld	t2,40(ra)
    800037dc:	0300b903          	ld	s2,48(ra)
    800037e0:	0380b983          	ld	s3,56(ra)
    800037e4:	0000000b          	.insn	4, 0x000b
    800037e8:	f02a                	sd	a0,32(sp)
    800037ea:	f42e                	sd	a1,40(sp)
    800037ec:	f82e                	sd	a1,48(sp)
    800037ee:	fc2e                	sd	a1,56(sp)
    800037f0:	e0ae                	sd	a1,64(sp)
    800037f2:	e4ae                	sd	a1,72(sp)
    800037f4:	e8ae                	sd	a1,80(sp)
    800037f6:	ecae                	sd	a1,88(sp)
    800037f8:	10048e13          	addi	t3,s1,256
    800037fc:	4505                	li	a0,1
    800037fe:	f0aa                	sd	a0,96(sp)
    80003800:	f4b2                	sd	a2,104(sp)
    80003802:	f8ba                	sd	a4,112(sp)
    80003804:	fcbe                	sd	a5,120(sp)
    80003806:	e122                	sd	s0,128(sp)
    80003808:	e516                	sd	t0,136(sp)
    8000380a:	e91e                	sd	t2,144(sp)
    8000380c:	ed4a                	sd	s2,152(sp)
    8000380e:	f14e                	sd	s3,160(sp)
    80003810:	10b0                	addi	a2,sp,104
    80003812:	fc063503          	ld	a0,-64(a2)
    80003816:	620c                	ld	a1,0(a2)
    80003818:	fc863703          	ld	a4,-56(a2)
    8000381c:	661c                	ld	a5,8(a2)
    8000381e:	02a58533          	mul	a0,a1,a0
    80003822:	02e785b3          	mul	a1,a5,a4
    80003826:	fd063703          	ld	a4,-48(a2)
    8000382a:	6a1c                	ld	a5,16(a2)
    8000382c:	0046c413          	xori	s0,a3,4
    80003830:	040e                	slli	s0,s0,0x3
    80003832:	941a                	add	s0,s0,t1
    80003834:	6000                	ld	s0,0(s0)
    80003836:	6e04                	ld	s1,24(a2)
    80003838:	02e78733          	mul	a4,a5,a4
    8000383c:	028487b3          	mul	a5,s1,s0
    80003840:	9552                	add	a0,a0,s4
    80003842:	952e                	add	a0,a0,a1
    80003844:	953a                	add	a0,a0,a4
    80003846:	00f50a33          	add	s4,a0,a5
    8000384a:	0691                	addi	a3,a3,4
    8000384c:	02060613          	addi	a2,a2,32
    80003850:	fd6691e3          	bne	a3,s6,80003812 <main+0x16ba>
    80003854:	4401                	li	s0,0
    80003856:	4c01                	li	s8,0
    80003858:	0d4db423          	sd	s4,200(s11)
    8000385c:	000e3503          	ld	a0,0(t3)
    80003860:	00083583          	ld	a1,0(a6)
    80003864:	0000b603          	ld	a2,0(ra)
    80003868:	0080b703          	ld	a4,8(ra)
    8000386c:	0100b783          	ld	a5,16(ra)
    80003870:	0180b483          	ld	s1,24(ra)
    80003874:	0200b283          	ld	t0,32(ra)
    80003878:	0280b383          	ld	t2,40(ra)
    8000387c:	0300b903          	ld	s2,48(ra)
    80003880:	0380b983          	ld	s3,56(ra)
    80003884:	0000000b          	.insn	4, 0x000b
    80003888:	f02a                	sd	a0,32(sp)
    8000388a:	f42a                	sd	a0,40(sp)
    8000388c:	f82e                	sd	a1,48(sp)
    8000388e:	fc2e                	sd	a1,56(sp)
    80003890:	e0ae                	sd	a1,64(sp)
    80003892:	e4ae                	sd	a1,72(sp)
    80003894:	e8ae                	sd	a1,80(sp)
    80003896:	ecae                	sd	a1,88(sp)
    80003898:	4509                	li	a0,2
    8000389a:	f0aa                	sd	a0,96(sp)
    8000389c:	f4b2                	sd	a2,104(sp)
    8000389e:	f8ba                	sd	a4,112(sp)
    800038a0:	fcbe                	sd	a5,120(sp)
    800038a2:	e126                	sd	s1,128(sp)
    800038a4:	e516                	sd	t0,136(sp)
    800038a6:	e91e                	sd	t2,144(sp)
    800038a8:	ed4a                	sd	s2,152(sp)
    800038aa:	f14e                	sd	s3,160(sp)
    800038ac:	867e                	mv	a2,t6
    800038ae:	00a4                	addi	s1,sp,72
    800038b0:	fb063503          	ld	a0,-80(a2)
    800038b4:	fe863583          	ld	a1,-24(a2)
    800038b8:	fb863703          	ld	a4,-72(a2)
    800038bc:	ff063783          	ld	a5,-16(a2)
    800038c0:	02a582b3          	mul	t0,a1,a0
    800038c4:	02e785b3          	mul	a1,a5,a4
    800038c8:	00444713          	xori	a4,s0,4
    800038cc:	070e                	slli	a4,a4,0x3
    800038ce:	971a                	add	a4,a4,t1
    800038d0:	6318                	ld	a4,0(a4)
    800038d2:	ff863783          	ld	a5,-8(a2)
    800038d6:	6094                	ld	a3,0(s1)
    800038d8:	6208                	ld	a0,0(a2)
    800038da:	02e78733          	mul	a4,a5,a4
    800038de:	02d50533          	mul	a0,a0,a3
    800038e2:	018286b3          	add	a3,t0,s8
    800038e6:	95b6                	add	a1,a1,a3
    800038e8:	95ba                	add	a1,a1,a4
    800038ea:	00a58c33          	add	s8,a1,a0
    800038ee:	0411                	addi	s0,s0,4
    800038f0:	1481                	addi	s1,s1,-32
    800038f2:	02060613          	addi	a2,a2,32
    800038f6:	fb641de3          	bne	s0,s6,800038b0 <main+0x1758>
    800038fa:	4481                	li	s1,0
    800038fc:	4a01                	li	s4,0
    800038fe:	0d8db823          	sd	s8,208(s11)
    80003902:	000e3503          	ld	a0,0(t3)
    80003906:	00083583          	ld	a1,0(a6)
    8000390a:	0000b603          	ld	a2,0(ra)
    8000390e:	0080b683          	ld	a3,8(ra)
    80003912:	0100b703          	ld	a4,16(ra)
    80003916:	0180b783          	ld	a5,24(ra)
    8000391a:	0200b283          	ld	t0,32(ra)
    8000391e:	0280b383          	ld	t2,40(ra)
    80003922:	0300b903          	ld	s2,48(ra)
    80003926:	0380b983          	ld	s3,56(ra)
    8000392a:	0000000b          	.insn	4, 0x000b
    8000392e:	f02a                	sd	a0,32(sp)
    80003930:	f42a                	sd	a0,40(sp)
    80003932:	f82a                	sd	a0,48(sp)
    80003934:	fc2e                	sd	a1,56(sp)
    80003936:	e0ae                	sd	a1,64(sp)
    80003938:	e4ae                	sd	a1,72(sp)
    8000393a:	e8ae                	sd	a1,80(sp)
    8000393c:	ecae                	sd	a1,88(sp)
    8000393e:	450d                	li	a0,3
    80003940:	f0aa                	sd	a0,96(sp)
    80003942:	f4b2                	sd	a2,104(sp)
    80003944:	f8b6                	sd	a3,112(sp)
    80003946:	fcba                	sd	a4,120(sp)
    80003948:	e13e                	sd	a5,128(sp)
    8000394a:	e516                	sd	t0,136(sp)
    8000394c:	e91e                	sd	t2,144(sp)
    8000394e:	ed4a                	sd	s2,152(sp)
    80003950:	f14e                	sd	s3,160(sp)
    80003952:	fc000693          	li	a3,-64
    80003956:	8656                	mv	a2,s5
    80003958:	00da8533          	add	a0,s5,a3
    8000395c:	750c                	ld	a1,40(a0)
    8000395e:	6d38                	ld	a4,88(a0)
    80003960:	0044c793          	xori	a5,s1,4
    80003964:	078e                	slli	a5,a5,0x3
    80003966:	979a                	add	a5,a5,t1
    80003968:	639c                	ld	a5,0(a5)
    8000396a:	7120                	ld	s0,96(a0)
    8000396c:	02b702b3          	mul	t0,a4,a1
    80003970:	02f40733          	mul	a4,s0,a5
    80003974:	ff863783          	ld	a5,-8(a2)
    80003978:	7520                	ld	s0,104(a0)
    8000397a:	620c                	ld	a1,0(a2)
    8000397c:	7928                	ld	a0,112(a0)
    8000397e:	02f407b3          	mul	a5,s0,a5
    80003982:	02b50533          	mul	a0,a0,a1
    80003986:	014285b3          	add	a1,t0,s4
    8000398a:	95ba                	add	a1,a1,a4
    8000398c:	95be                	add	a1,a1,a5
    8000398e:	00a58a33          	add	s4,a1,a0
    80003992:	0491                	addi	s1,s1,4
    80003994:	02068693          	addi	a3,a3,32
    80003998:	1601                	addi	a2,a2,-32
    8000399a:	fedd                	bnez	a3,80003958 <main+0x1800>
    8000399c:	4981                	li	s3,0
    8000399e:	0d4dbc23          	sd	s4,216(s11)
    800039a2:	000e3503          	ld	a0,0(t3)
    800039a6:	00083583          	ld	a1,0(a6)
    800039aa:	0000b603          	ld	a2,0(ra)
    800039ae:	0080b683          	ld	a3,8(ra)
    800039b2:	0100b703          	ld	a4,16(ra)
    800039b6:	0180b783          	ld	a5,24(ra)
    800039ba:	0200b403          	ld	s0,32(ra)
    800039be:	0280b283          	ld	t0,40(ra)
    800039c2:	0300b383          	ld	t2,48(ra)
    800039c6:	0380b903          	ld	s2,56(ra)
    800039ca:	0000000b          	.insn	4, 0x000b
    800039ce:	f02a                	sd	a0,32(sp)
    800039d0:	f42a                	sd	a0,40(sp)
    800039d2:	f82a                	sd	a0,48(sp)
    800039d4:	fc2a                	sd	a0,56(sp)
    800039d6:	e0ae                	sd	a1,64(sp)
    800039d8:	e4ae                	sd	a1,72(sp)
    800039da:	e8ae                	sd	a1,80(sp)
    800039dc:	ecae                	sd	a1,88(sp)
    800039de:	4511                	li	a0,4
    800039e0:	f0aa                	sd	a0,96(sp)
    800039e2:	f4b2                	sd	a2,104(sp)
    800039e4:	f8b6                	sd	a3,112(sp)
    800039e6:	fcba                	sd	a4,120(sp)
    800039e8:	e13e                	sd	a5,128(sp)
    800039ea:	e522                	sd	s0,136(sp)
    800039ec:	e916                	sd	t0,144(sp)
    800039ee:	ed1e                	sd	t2,152(sp)
    800039f0:	f14a                	sd	s2,160(sp)
    800039f2:	02000613          	li	a2,32
    800039f6:	86fe                	mv	a3,t6
    800039f8:	00cf8533          	add	a0,t6,a2
    800039fc:	fa053583          	ld	a1,-96(a0)
    80003a00:	fe86b703          	ld	a4,-24(a3)
    80003a04:	fa853783          	ld	a5,-88(a0)
    80003a08:	ff06b403          	ld	s0,-16(a3)
    80003a0c:	02b705b3          	mul	a1,a4,a1
    80003a10:	02f40733          	mul	a4,s0,a5
    80003a14:	fb053783          	ld	a5,-80(a0)
    80003a18:	ff86b403          	ld	s0,-8(a3)
    80003a1c:	fb853503          	ld	a0,-72(a0)
    80003a20:	6284                	ld	s1,0(a3)
    80003a22:	02f407b3          	mul	a5,s0,a5
    80003a26:	02a48533          	mul	a0,s1,a0
    80003a2a:	95ce                	add	a1,a1,s3
    80003a2c:	95ba                	add	a1,a1,a4
    80003a2e:	95be                	add	a1,a1,a5
    80003a30:	00a589b3          	add	s3,a1,a0
    80003a34:	1601                	addi	a2,a2,-32
    80003a36:	02068693          	addi	a3,a3,32
    80003a3a:	fb761fe3          	bne	a2,s7,800039f8 <main+0x18a0>
    80003a3e:	4a01                	li	s4,0
    80003a40:	0f3db023          	sd	s3,224(s11)
    80003a44:	000e3503          	ld	a0,0(t3)
    80003a48:	00083583          	ld	a1,0(a6)
    80003a4c:	0000b603          	ld	a2,0(ra)
    80003a50:	0080b703          	ld	a4,8(ra)
    80003a54:	0100b783          	ld	a5,16(ra)
    80003a58:	0180b483          	ld	s1,24(ra)
    80003a5c:	0200b403          	ld	s0,32(ra)
    80003a60:	0280b283          	ld	t0,40(ra)
    80003a64:	0300b383          	ld	t2,48(ra)
    80003a68:	0380b903          	ld	s2,56(ra)
    80003a6c:	0000000b          	.insn	4, 0x000b
    80003a70:	f02a                	sd	a0,32(sp)
    80003a72:	f42a                	sd	a0,40(sp)
    80003a74:	f82a                	sd	a0,48(sp)
    80003a76:	fc2a                	sd	a0,56(sp)
    80003a78:	e0aa                	sd	a0,64(sp)
    80003a7a:	e4ae                	sd	a1,72(sp)
    80003a7c:	e8ae                	sd	a1,80(sp)
    80003a7e:	ecae                	sd	a1,88(sp)
    80003a80:	4515                	li	a0,5
    80003a82:	f0aa                	sd	a0,96(sp)
    80003a84:	f4b2                	sd	a2,104(sp)
    80003a86:	f8ba                	sd	a4,112(sp)
    80003a88:	fcbe                	sd	a5,120(sp)
    80003a8a:	e126                	sd	s1,128(sp)
    80003a8c:	e522                	sd	s0,136(sp)
    80003a8e:	e916                	sd	t0,144(sp)
    80003a90:	ed1e                	sd	t2,152(sp)
    80003a92:	f14a                	sd	s2,160(sp)
    80003a94:	02800613          	li	a2,40
    80003a98:	06000413          	li	s0,96
    80003a9c:	00c30533          	add	a0,t1,a2
    80003aa0:	610c                	ld	a1,0(a0)
    80003aa2:	00830733          	add	a4,t1,s0
    80003aa6:	fe873783          	ld	a5,-24(a4)
    80003aaa:	6504                	ld	s1,8(a0)
    80003aac:	ff073683          	ld	a3,-16(a4)
    80003ab0:	02b785b3          	mul	a1,a5,a1
    80003ab4:	029686b3          	mul	a3,a3,s1
    80003ab8:	6908                	ld	a0,16(a0)
    80003aba:	ff873783          	ld	a5,-8(a4)
    80003abe:	fa073483          	ld	s1,-96(a4)
    80003ac2:	6318                	ld	a4,0(a4)
    80003ac4:	02a78533          	mul	a0,a5,a0
    80003ac8:	02970733          	mul	a4,a4,s1
    80003acc:	95d2                	add	a1,a1,s4
    80003ace:	95b6                	add	a1,a1,a3
    80003ad0:	952e                	add	a0,a0,a1
    80003ad2:	00e50a33          	add	s4,a0,a4
    80003ad6:	1601                	addi	a2,a2,-32
    80003ad8:	02040413          	addi	s0,s0,32
    80003adc:	fda610e3          	bne	a2,s10,80003a9c <main+0x1944>
    80003ae0:	4981                	li	s3,0
    80003ae2:	0f4db423          	sd	s4,232(s11)
    80003ae6:	000e3503          	ld	a0,0(t3)
    80003aea:	00083583          	ld	a1,0(a6)
    80003aee:	0000b603          	ld	a2,0(ra)
    80003af2:	0080b683          	ld	a3,8(ra)
    80003af6:	0100b703          	ld	a4,16(ra)
    80003afa:	0180b783          	ld	a5,24(ra)
    80003afe:	0200b483          	ld	s1,32(ra)
    80003b02:	0280b283          	ld	t0,40(ra)
    80003b06:	0300b383          	ld	t2,48(ra)
    80003b0a:	0380b903          	ld	s2,56(ra)
    80003b0e:	0000000b          	.insn	4, 0x000b
    80003b12:	f02a                	sd	a0,32(sp)
    80003b14:	f42a                	sd	a0,40(sp)
    80003b16:	f82a                	sd	a0,48(sp)
    80003b18:	fc2a                	sd	a0,56(sp)
    80003b1a:	e0aa                	sd	a0,64(sp)
    80003b1c:	e4aa                	sd	a0,72(sp)
    80003b1e:	e8ae                	sd	a1,80(sp)
    80003b20:	ecae                	sd	a1,88(sp)
    80003b22:	4519                	li	a0,6
    80003b24:	f0aa                	sd	a0,96(sp)
    80003b26:	f4b2                	sd	a2,104(sp)
    80003b28:	f8b6                	sd	a3,112(sp)
    80003b2a:	fcba                	sd	a4,120(sp)
    80003b2c:	e13e                	sd	a5,128(sp)
    80003b2e:	e526                	sd	s1,136(sp)
    80003b30:	e916                	sd	t0,144(sp)
    80003b32:	ed1e                	sd	t2,152(sp)
    80003b34:	f14a                	sd	s2,160(sp)
    80003b36:	fc000613          	li	a2,-64
    80003b3a:	86fa                	mv	a3,t5
    80003b3c:	ff86b503          	ld	a0,-8(a3)
    80003b40:	00ca85b3          	add	a1,s5,a2
    80003b44:	6db8                	ld	a4,88(a1)
    80003b46:	629c                	ld	a5,0(a3)
    80003b48:	71a4                	ld	s1,96(a1)
    80003b4a:	02a70533          	mul	a0,a4,a0
    80003b4e:	02f48733          	mul	a4,s1,a5
    80003b52:	699c                	ld	a5,16(a1)
    80003b54:	75a4                	ld	s1,104(a1)
    80003b56:	6d80                	ld	s0,24(a1)
    80003b58:	79ac                	ld	a1,112(a1)
    80003b5a:	02f487b3          	mul	a5,s1,a5
    80003b5e:	028585b3          	mul	a1,a1,s0
    80003b62:	954e                	add	a0,a0,s3
    80003b64:	953a                	add	a0,a0,a4
    80003b66:	953e                	add	a0,a0,a5
    80003b68:	00b509b3          	add	s3,a0,a1
    80003b6c:	02060613          	addi	a2,a2,32
    80003b70:	1681                	addi	a3,a3,-32
    80003b72:	f669                	bnez	a2,80003b3c <main+0x19e4>
    80003b74:	4901                	li	s2,0
    80003b76:	0f3db823          	sd	s3,240(s11)
    80003b7a:	000e3503          	ld	a0,0(t3)
    80003b7e:	00083583          	ld	a1,0(a6)
    80003b82:	0000b603          	ld	a2,0(ra)
    80003b86:	0080b703          	ld	a4,8(ra)
    80003b8a:	0100b783          	ld	a5,16(ra)
    80003b8e:	0180b483          	ld	s1,24(ra)
    80003b92:	0200b403          	ld	s0,32(ra)
    80003b96:	0280b803          	ld	a6,40(ra)
    80003b9a:	0300b283          	ld	t0,48(ra)
    80003b9e:	0380b383          	ld	t2,56(ra)
    80003ba2:	0000000b          	.insn	4, 0x000b
    80003ba6:	f02a                	sd	a0,32(sp)
    80003ba8:	f42a                	sd	a0,40(sp)
    80003baa:	f82a                	sd	a0,48(sp)
    80003bac:	fc2a                	sd	a0,56(sp)
    80003bae:	e0aa                	sd	a0,64(sp)
    80003bb0:	e4aa                	sd	a0,72(sp)
    80003bb2:	e8aa                	sd	a0,80(sp)
    80003bb4:	ecae                	sd	a1,88(sp)
    80003bb6:	451d                	li	a0,7
    80003bb8:	f0aa                	sd	a0,96(sp)
    80003bba:	f4b2                	sd	a2,104(sp)
    80003bbc:	f8ba                	sd	a4,112(sp)
    80003bbe:	fcbe                	sd	a5,120(sp)
    80003bc0:	e126                	sd	s1,128(sp)
    80003bc2:	e522                	sd	s0,136(sp)
    80003bc4:	e942                	sd	a6,144(sp)
    80003bc6:	ed16                	sd	t0,152(sp)
    80003bc8:	f11e                	sd	t2,160(sp)
    80003bca:	03800613          	li	a2,56
    80003bce:	06000493          	li	s1,96
    80003bd2:	00c30533          	add	a0,t1,a2
    80003bd6:	6108                	ld	a0,0(a0)
    80003bd8:	009305b3          	add	a1,t1,s1
    80003bdc:	fe85b703          	ld	a4,-24(a1)
    80003be0:	fa05b783          	ld	a5,-96(a1)
    80003be4:	ff05b403          	ld	s0,-16(a1)
    80003be8:	02a70533          	mul	a0,a4,a0
    80003bec:	02f40733          	mul	a4,s0,a5
    80003bf0:	fa85b783          	ld	a5,-88(a1)
    80003bf4:	ff85b403          	ld	s0,-8(a1)
    80003bf8:	fb05b683          	ld	a3,-80(a1)
    80003bfc:	618c                	ld	a1,0(a1)
    80003bfe:	02f407b3          	mul	a5,s0,a5
    80003c02:	02d585b3          	mul	a1,a1,a3
    80003c06:	954a                	add	a0,a0,s2
    80003c08:	953a                	add	a0,a0,a4
    80003c0a:	953e                	add	a0,a0,a5
    80003c0c:	00b50933          	add	s2,a0,a1
    80003c10:	1601                	addi	a2,a2,-32
    80003c12:	02048493          	addi	s1,s1,32
    80003c16:	fb161ee3          	bne	a2,a7,80003bd2 <main+0x1a7a>
    80003c1a:	4401                	li	s0,0
    80003c1c:	0f2dbc23          	sd	s2,248(s11)
    80003c20:	000e3503          	ld	a0,0(t3)
    80003c24:	0000b583          	ld	a1,0(ra)
    80003c28:	0080b603          	ld	a2,8(ra)
    80003c2c:	0100b683          	ld	a3,16(ra)
    80003c30:	0180b703          	ld	a4,24(ra)
    80003c34:	0200b783          	ld	a5,32(ra)
    80003c38:	0280b483          	ld	s1,40(ra)
    80003c3c:	0300b803          	ld	a6,48(ra)
    80003c40:	0380b283          	ld	t0,56(ra)
    80003c44:	0000000b          	.insn	4, 0x000b
    80003c48:	f02a                	sd	a0,32(sp)
    80003c4a:	f42a                	sd	a0,40(sp)
    80003c4c:	f82a                	sd	a0,48(sp)
    80003c4e:	fc2a                	sd	a0,56(sp)
    80003c50:	e0aa                	sd	a0,64(sp)
    80003c52:	e4aa                	sd	a0,72(sp)
    80003c54:	e8aa                	sd	a0,80(sp)
    80003c56:	ecaa                	sd	a0,88(sp)
    80003c58:	f082                	sd	zero,96(sp)
    80003c5a:	f4ae                	sd	a1,104(sp)
    80003c5c:	f8b2                	sd	a2,112(sp)
    80003c5e:	fcb6                	sd	a3,120(sp)
    80003c60:	e13a                	sd	a4,128(sp)
    80003c62:	e53e                	sd	a5,136(sp)
    80003c64:	e926                	sd	s1,144(sp)
    80003c66:	ed42                	sd	a6,152(sp)
    80003c68:	f116                	sd	t0,160(sp)
    80003c6a:	4641                	li	a2,16
    80003c6c:	00c30533          	add	a0,t1,a2
    80003c70:	ff053583          	ld	a1,-16(a0)
    80003c74:	7d14                	ld	a3,56(a0)
    80003c76:	02b685b3          	mul	a1,a3,a1
    80003c7a:	ff853683          	ld	a3,-8(a0)
    80003c7e:	6138                	ld	a4,64(a0)
    80003c80:	611c                	ld	a5,0(a0)
    80003c82:	6524                	ld	s1,72(a0)
    80003c84:	02d706b3          	mul	a3,a4,a3
    80003c88:	02f48733          	mul	a4,s1,a5
    80003c8c:	651c                	ld	a5,8(a0)
    80003c8e:	6928                	ld	a0,80(a0)
    80003c90:	95a2                	add	a1,a1,s0
    80003c92:	02f50533          	mul	a0,a0,a5
    80003c96:	95b6                	add	a1,a1,a3
    80003c98:	95ba                	add	a1,a1,a4
    80003c9a:	02060613          	addi	a2,a2,32
    80003c9e:	00a58433          	add	s0,a1,a0
    80003ca2:	fdd615e3          	bne	a2,t4,80003c6c <main+0x1b14>
    80003ca6:	4681                	li	a3,0
    80003ca8:	4a01                	li	s4,0
    80003caa:	108db023          	sd	s0,256(s11)
    80003cae:	64e2                	ld	s1,24(sp)
    80003cb0:	1404b503          	ld	a0,320(s1)
    80003cb4:	000e3583          	ld	a1,0(t3)
    80003cb8:	0000b603          	ld	a2,0(ra)
    80003cbc:	0080b703          	ld	a4,8(ra)
    80003cc0:	0100b783          	ld	a5,16(ra)
    80003cc4:	0180b403          	ld	s0,24(ra)
    80003cc8:	0200b283          	ld	t0,32(ra)
    80003ccc:	0280b383          	ld	t2,40(ra)
    80003cd0:	0300b903          	ld	s2,48(ra)
    80003cd4:	0380b983          	ld	s3,56(ra)
    80003cd8:	0000000b          	.insn	4, 0x000b
    80003cdc:	f02a                	sd	a0,32(sp)
    80003cde:	f42e                	sd	a1,40(sp)
    80003ce0:	f82e                	sd	a1,48(sp)
    80003ce2:	fc2e                	sd	a1,56(sp)
    80003ce4:	e0ae                	sd	a1,64(sp)
    80003ce6:	e4ae                	sd	a1,72(sp)
    80003ce8:	e8ae                	sd	a1,80(sp)
    80003cea:	ecae                	sd	a1,88(sp)
    80003cec:	14048813          	addi	a6,s1,320
    80003cf0:	4505                	li	a0,1
    80003cf2:	f0aa                	sd	a0,96(sp)
    80003cf4:	f4b2                	sd	a2,104(sp)
    80003cf6:	f8ba                	sd	a4,112(sp)
    80003cf8:	fcbe                	sd	a5,120(sp)
    80003cfa:	e122                	sd	s0,128(sp)
    80003cfc:	e516                	sd	t0,136(sp)
    80003cfe:	e91e                	sd	t2,144(sp)
    80003d00:	ed4a                	sd	s2,152(sp)
    80003d02:	f14e                	sd	s3,160(sp)
    80003d04:	10b0                	addi	a2,sp,104
    80003d06:	fc063503          	ld	a0,-64(a2)
    80003d0a:	620c                	ld	a1,0(a2)
    80003d0c:	fc863703          	ld	a4,-56(a2)
    80003d10:	661c                	ld	a5,8(a2)
    80003d12:	02a58533          	mul	a0,a1,a0
    80003d16:	02e785b3          	mul	a1,a5,a4
    80003d1a:	fd063703          	ld	a4,-48(a2)
    80003d1e:	6a1c                	ld	a5,16(a2)
    80003d20:	0046c413          	xori	s0,a3,4
    80003d24:	040e                	slli	s0,s0,0x3
    80003d26:	941a                	add	s0,s0,t1
    80003d28:	6000                	ld	s0,0(s0)
    80003d2a:	6e04                	ld	s1,24(a2)
    80003d2c:	02e78733          	mul	a4,a5,a4
    80003d30:	028487b3          	mul	a5,s1,s0
    80003d34:	9552                	add	a0,a0,s4
    80003d36:	952e                	add	a0,a0,a1
    80003d38:	953a                	add	a0,a0,a4
    80003d3a:	00f50a33          	add	s4,a0,a5
    80003d3e:	0691                	addi	a3,a3,4
    80003d40:	02060613          	addi	a2,a2,32
    80003d44:	fd6691e3          	bne	a3,s6,80003d06 <main+0x1bae>
    80003d48:	4401                	li	s0,0
    80003d4a:	4c01                	li	s8,0
    80003d4c:	114db423          	sd	s4,264(s11)
    80003d50:	00083503          	ld	a0,0(a6)
    80003d54:	000e3583          	ld	a1,0(t3)
    80003d58:	0000b603          	ld	a2,0(ra)
    80003d5c:	0080b703          	ld	a4,8(ra)
    80003d60:	0100b783          	ld	a5,16(ra)
    80003d64:	0180b483          	ld	s1,24(ra)
    80003d68:	0200b283          	ld	t0,32(ra)
    80003d6c:	0280b383          	ld	t2,40(ra)
    80003d70:	0300b903          	ld	s2,48(ra)
    80003d74:	0380b983          	ld	s3,56(ra)
    80003d78:	0000000b          	.insn	4, 0x000b
    80003d7c:	f02a                	sd	a0,32(sp)
    80003d7e:	f42a                	sd	a0,40(sp)
    80003d80:	f82e                	sd	a1,48(sp)
    80003d82:	fc2e                	sd	a1,56(sp)
    80003d84:	e0ae                	sd	a1,64(sp)
    80003d86:	e4ae                	sd	a1,72(sp)
    80003d88:	e8ae                	sd	a1,80(sp)
    80003d8a:	ecae                	sd	a1,88(sp)
    80003d8c:	4509                	li	a0,2
    80003d8e:	f0aa                	sd	a0,96(sp)
    80003d90:	f4b2                	sd	a2,104(sp)
    80003d92:	f8ba                	sd	a4,112(sp)
    80003d94:	fcbe                	sd	a5,120(sp)
    80003d96:	e126                	sd	s1,128(sp)
    80003d98:	e516                	sd	t0,136(sp)
    80003d9a:	e91e                	sd	t2,144(sp)
    80003d9c:	ed4a                	sd	s2,152(sp)
    80003d9e:	f14e                	sd	s3,160(sp)
    80003da0:	867e                	mv	a2,t6
    80003da2:	00a4                	addi	s1,sp,72
    80003da4:	fb063503          	ld	a0,-80(a2)
    80003da8:	fe863583          	ld	a1,-24(a2)
    80003dac:	fb863703          	ld	a4,-72(a2)
    80003db0:	ff063783          	ld	a5,-16(a2)
    80003db4:	02a582b3          	mul	t0,a1,a0
    80003db8:	02e785b3          	mul	a1,a5,a4
    80003dbc:	00444713          	xori	a4,s0,4
    80003dc0:	070e                	slli	a4,a4,0x3
    80003dc2:	971a                	add	a4,a4,t1
    80003dc4:	6318                	ld	a4,0(a4)
    80003dc6:	ff863783          	ld	a5,-8(a2)
    80003dca:	6094                	ld	a3,0(s1)
    80003dcc:	6208                	ld	a0,0(a2)
    80003dce:	02e78733          	mul	a4,a5,a4
    80003dd2:	02d50533          	mul	a0,a0,a3
    80003dd6:	018286b3          	add	a3,t0,s8
    80003dda:	95b6                	add	a1,a1,a3
    80003ddc:	95ba                	add	a1,a1,a4
    80003dde:	00a58c33          	add	s8,a1,a0
    80003de2:	0411                	addi	s0,s0,4
    80003de4:	1481                	addi	s1,s1,-32
    80003de6:	02060613          	addi	a2,a2,32
    80003dea:	fb641de3          	bne	s0,s6,80003da4 <main+0x1c4c>
    80003dee:	4481                	li	s1,0
    80003df0:	4a01                	li	s4,0
    80003df2:	118db823          	sd	s8,272(s11)
    80003df6:	00083503          	ld	a0,0(a6)
    80003dfa:	000e3583          	ld	a1,0(t3)
    80003dfe:	0000b603          	ld	a2,0(ra)
    80003e02:	0080b683          	ld	a3,8(ra)
    80003e06:	0100b703          	ld	a4,16(ra)
    80003e0a:	0180b783          	ld	a5,24(ra)
    80003e0e:	0200b283          	ld	t0,32(ra)
    80003e12:	0280b383          	ld	t2,40(ra)
    80003e16:	0300b903          	ld	s2,48(ra)
    80003e1a:	0380b983          	ld	s3,56(ra)
    80003e1e:	0000000b          	.insn	4, 0x000b
    80003e22:	f02a                	sd	a0,32(sp)
    80003e24:	f42a                	sd	a0,40(sp)
    80003e26:	f82a                	sd	a0,48(sp)
    80003e28:	fc2e                	sd	a1,56(sp)
    80003e2a:	e0ae                	sd	a1,64(sp)
    80003e2c:	e4ae                	sd	a1,72(sp)
    80003e2e:	e8ae                	sd	a1,80(sp)
    80003e30:	ecae                	sd	a1,88(sp)
    80003e32:	450d                	li	a0,3
    80003e34:	f0aa                	sd	a0,96(sp)
    80003e36:	f4b2                	sd	a2,104(sp)
    80003e38:	f8b6                	sd	a3,112(sp)
    80003e3a:	fcba                	sd	a4,120(sp)
    80003e3c:	e13e                	sd	a5,128(sp)
    80003e3e:	e516                	sd	t0,136(sp)
    80003e40:	e91e                	sd	t2,144(sp)
    80003e42:	ed4a                	sd	s2,152(sp)
    80003e44:	f14e                	sd	s3,160(sp)
    80003e46:	fc000693          	li	a3,-64
    80003e4a:	8656                	mv	a2,s5
    80003e4c:	00da8533          	add	a0,s5,a3
    80003e50:	750c                	ld	a1,40(a0)
    80003e52:	6d38                	ld	a4,88(a0)
    80003e54:	0044c793          	xori	a5,s1,4
    80003e58:	078e                	slli	a5,a5,0x3
    80003e5a:	979a                	add	a5,a5,t1
    80003e5c:	639c                	ld	a5,0(a5)
    80003e5e:	7120                	ld	s0,96(a0)
    80003e60:	02b702b3          	mul	t0,a4,a1
    80003e64:	02f40733          	mul	a4,s0,a5
    80003e68:	ff863783          	ld	a5,-8(a2)
    80003e6c:	7520                	ld	s0,104(a0)
    80003e6e:	620c                	ld	a1,0(a2)
    80003e70:	7928                	ld	a0,112(a0)
    80003e72:	02f407b3          	mul	a5,s0,a5
    80003e76:	02b50533          	mul	a0,a0,a1
    80003e7a:	014285b3          	add	a1,t0,s4
    80003e7e:	95ba                	add	a1,a1,a4
    80003e80:	95be                	add	a1,a1,a5
    80003e82:	00a58a33          	add	s4,a1,a0
    80003e86:	0491                	addi	s1,s1,4
    80003e88:	02068693          	addi	a3,a3,32
    80003e8c:	1601                	addi	a2,a2,-32
    80003e8e:	fedd                	bnez	a3,80003e4c <main+0x1cf4>
    80003e90:	4981                	li	s3,0
    80003e92:	114dbc23          	sd	s4,280(s11)
    80003e96:	00083503          	ld	a0,0(a6)
    80003e9a:	000e3583          	ld	a1,0(t3)
    80003e9e:	0000b603          	ld	a2,0(ra)
    80003ea2:	0080b683          	ld	a3,8(ra)
    80003ea6:	0100b703          	ld	a4,16(ra)
    80003eaa:	0180b783          	ld	a5,24(ra)
    80003eae:	0200b403          	ld	s0,32(ra)
    80003eb2:	0280b283          	ld	t0,40(ra)
    80003eb6:	0300b383          	ld	t2,48(ra)
    80003eba:	0380b903          	ld	s2,56(ra)
    80003ebe:	0000000b          	.insn	4, 0x000b
    80003ec2:	f02a                	sd	a0,32(sp)
    80003ec4:	f42a                	sd	a0,40(sp)
    80003ec6:	f82a                	sd	a0,48(sp)
    80003ec8:	fc2a                	sd	a0,56(sp)
    80003eca:	e0ae                	sd	a1,64(sp)
    80003ecc:	e4ae                	sd	a1,72(sp)
    80003ece:	e8ae                	sd	a1,80(sp)
    80003ed0:	ecae                	sd	a1,88(sp)
    80003ed2:	4511                	li	a0,4
    80003ed4:	f0aa                	sd	a0,96(sp)
    80003ed6:	f4b2                	sd	a2,104(sp)
    80003ed8:	f8b6                	sd	a3,112(sp)
    80003eda:	fcba                	sd	a4,120(sp)
    80003edc:	e13e                	sd	a5,128(sp)
    80003ede:	e522                	sd	s0,136(sp)
    80003ee0:	e916                	sd	t0,144(sp)
    80003ee2:	ed1e                	sd	t2,152(sp)
    80003ee4:	f14a                	sd	s2,160(sp)
    80003ee6:	02000613          	li	a2,32
    80003eea:	86fe                	mv	a3,t6
    80003eec:	00cf8533          	add	a0,t6,a2
    80003ef0:	fa053583          	ld	a1,-96(a0)
    80003ef4:	fe86b703          	ld	a4,-24(a3)
    80003ef8:	fa853783          	ld	a5,-88(a0)
    80003efc:	ff06b403          	ld	s0,-16(a3)
    80003f00:	02b705b3          	mul	a1,a4,a1
    80003f04:	02f40733          	mul	a4,s0,a5
    80003f08:	fb053783          	ld	a5,-80(a0)
    80003f0c:	ff86b403          	ld	s0,-8(a3)
    80003f10:	fb853503          	ld	a0,-72(a0)
    80003f14:	6284                	ld	s1,0(a3)
    80003f16:	02f407b3          	mul	a5,s0,a5
    80003f1a:	02a48533          	mul	a0,s1,a0
    80003f1e:	95ce                	add	a1,a1,s3
    80003f20:	95ba                	add	a1,a1,a4
    80003f22:	95be                	add	a1,a1,a5
    80003f24:	00a589b3          	add	s3,a1,a0
    80003f28:	1601                	addi	a2,a2,-32
    80003f2a:	02068693          	addi	a3,a3,32
    80003f2e:	fb761fe3          	bne	a2,s7,80003eec <main+0x1d94>
    80003f32:	4a01                	li	s4,0
    80003f34:	133db023          	sd	s3,288(s11)
    80003f38:	00083503          	ld	a0,0(a6)
    80003f3c:	000e3583          	ld	a1,0(t3)
    80003f40:	0000b603          	ld	a2,0(ra)
    80003f44:	0080b703          	ld	a4,8(ra)
    80003f48:	0100b783          	ld	a5,16(ra)
    80003f4c:	0180b483          	ld	s1,24(ra)
    80003f50:	0200b403          	ld	s0,32(ra)
    80003f54:	0280b283          	ld	t0,40(ra)
    80003f58:	0300b383          	ld	t2,48(ra)
    80003f5c:	0380b903          	ld	s2,56(ra)
    80003f60:	0000000b          	.insn	4, 0x000b
    80003f64:	f02a                	sd	a0,32(sp)
    80003f66:	f42a                	sd	a0,40(sp)
    80003f68:	f82a                	sd	a0,48(sp)
    80003f6a:	fc2a                	sd	a0,56(sp)
    80003f6c:	e0aa                	sd	a0,64(sp)
    80003f6e:	e4ae                	sd	a1,72(sp)
    80003f70:	e8ae                	sd	a1,80(sp)
    80003f72:	ecae                	sd	a1,88(sp)
    80003f74:	4515                	li	a0,5
    80003f76:	f0aa                	sd	a0,96(sp)
    80003f78:	f4b2                	sd	a2,104(sp)
    80003f7a:	f8ba                	sd	a4,112(sp)
    80003f7c:	fcbe                	sd	a5,120(sp)
    80003f7e:	e126                	sd	s1,128(sp)
    80003f80:	e522                	sd	s0,136(sp)
    80003f82:	e916                	sd	t0,144(sp)
    80003f84:	ed1e                	sd	t2,152(sp)
    80003f86:	f14a                	sd	s2,160(sp)
    80003f88:	02800613          	li	a2,40
    80003f8c:	06000413          	li	s0,96
    80003f90:	00c30533          	add	a0,t1,a2
    80003f94:	610c                	ld	a1,0(a0)
    80003f96:	00830733          	add	a4,t1,s0
    80003f9a:	fe873783          	ld	a5,-24(a4)
    80003f9e:	6504                	ld	s1,8(a0)
    80003fa0:	ff073683          	ld	a3,-16(a4)
    80003fa4:	02b785b3          	mul	a1,a5,a1
    80003fa8:	029686b3          	mul	a3,a3,s1
    80003fac:	6908                	ld	a0,16(a0)
    80003fae:	ff873783          	ld	a5,-8(a4)
    80003fb2:	fa073483          	ld	s1,-96(a4)
    80003fb6:	6318                	ld	a4,0(a4)
    80003fb8:	02a78533          	mul	a0,a5,a0
    80003fbc:	02970733          	mul	a4,a4,s1
    80003fc0:	95d2                	add	a1,a1,s4
    80003fc2:	95b6                	add	a1,a1,a3
    80003fc4:	952e                	add	a0,a0,a1
    80003fc6:	00e50a33          	add	s4,a0,a4
    80003fca:	1601                	addi	a2,a2,-32
    80003fcc:	02040413          	addi	s0,s0,32
    80003fd0:	fda610e3          	bne	a2,s10,80003f90 <main+0x1e38>
    80003fd4:	4981                	li	s3,0
    80003fd6:	134db423          	sd	s4,296(s11)
    80003fda:	00083503          	ld	a0,0(a6)
    80003fde:	000e3583          	ld	a1,0(t3)
    80003fe2:	0000b603          	ld	a2,0(ra)
    80003fe6:	0080b683          	ld	a3,8(ra)
    80003fea:	0100b703          	ld	a4,16(ra)
    80003fee:	0180b783          	ld	a5,24(ra)
    80003ff2:	0200b483          	ld	s1,32(ra)
    80003ff6:	0280b283          	ld	t0,40(ra)
    80003ffa:	0300b383          	ld	t2,48(ra)
    80003ffe:	0380b903          	ld	s2,56(ra)
    80004002:	0000000b          	.insn	4, 0x000b
    80004006:	f02a                	sd	a0,32(sp)
    80004008:	f42a                	sd	a0,40(sp)
    8000400a:	f82a                	sd	a0,48(sp)
    8000400c:	fc2a                	sd	a0,56(sp)
    8000400e:	e0aa                	sd	a0,64(sp)
    80004010:	e4aa                	sd	a0,72(sp)
    80004012:	e8ae                	sd	a1,80(sp)
    80004014:	ecae                	sd	a1,88(sp)
    80004016:	4519                	li	a0,6
    80004018:	f0aa                	sd	a0,96(sp)
    8000401a:	f4b2                	sd	a2,104(sp)
    8000401c:	f8b6                	sd	a3,112(sp)
    8000401e:	fcba                	sd	a4,120(sp)
    80004020:	e13e                	sd	a5,128(sp)
    80004022:	e526                	sd	s1,136(sp)
    80004024:	e916                	sd	t0,144(sp)
    80004026:	ed1e                	sd	t2,152(sp)
    80004028:	f14a                	sd	s2,160(sp)
    8000402a:	fc000613          	li	a2,-64
    8000402e:	86fa                	mv	a3,t5
    80004030:	ff86b503          	ld	a0,-8(a3)
    80004034:	00ca85b3          	add	a1,s5,a2
    80004038:	6db8                	ld	a4,88(a1)
    8000403a:	629c                	ld	a5,0(a3)
    8000403c:	71a4                	ld	s1,96(a1)
    8000403e:	02a70533          	mul	a0,a4,a0
    80004042:	02f48733          	mul	a4,s1,a5
    80004046:	699c                	ld	a5,16(a1)
    80004048:	75a4                	ld	s1,104(a1)
    8000404a:	6d80                	ld	s0,24(a1)
    8000404c:	79ac                	ld	a1,112(a1)
    8000404e:	02f487b3          	mul	a5,s1,a5
    80004052:	028585b3          	mul	a1,a1,s0
    80004056:	954e                	add	a0,a0,s3
    80004058:	953a                	add	a0,a0,a4
    8000405a:	953e                	add	a0,a0,a5
    8000405c:	00b509b3          	add	s3,a0,a1
    80004060:	02060613          	addi	a2,a2,32
    80004064:	1681                	addi	a3,a3,-32
    80004066:	f669                	bnez	a2,80004030 <main+0x1ed8>
    80004068:	4901                	li	s2,0
    8000406a:	133db823          	sd	s3,304(s11)
    8000406e:	00083503          	ld	a0,0(a6)
    80004072:	000e3583          	ld	a1,0(t3)
    80004076:	0000b603          	ld	a2,0(ra)
    8000407a:	0080b703          	ld	a4,8(ra)
    8000407e:	0100b783          	ld	a5,16(ra)
    80004082:	0180b483          	ld	s1,24(ra)
    80004086:	0200b403          	ld	s0,32(ra)
    8000408a:	0280b283          	ld	t0,40(ra)
    8000408e:	0300b383          	ld	t2,48(ra)
    80004092:	0380be03          	ld	t3,56(ra)
    80004096:	0000000b          	.insn	4, 0x000b
    8000409a:	f02a                	sd	a0,32(sp)
    8000409c:	f42a                	sd	a0,40(sp)
    8000409e:	f82a                	sd	a0,48(sp)
    800040a0:	fc2a                	sd	a0,56(sp)
    800040a2:	e0aa                	sd	a0,64(sp)
    800040a4:	e4aa                	sd	a0,72(sp)
    800040a6:	e8aa                	sd	a0,80(sp)
    800040a8:	ecae                	sd	a1,88(sp)
    800040aa:	451d                	li	a0,7
    800040ac:	f0aa                	sd	a0,96(sp)
    800040ae:	f4b2                	sd	a2,104(sp)
    800040b0:	f8ba                	sd	a4,112(sp)
    800040b2:	fcbe                	sd	a5,120(sp)
    800040b4:	e126                	sd	s1,128(sp)
    800040b6:	e522                	sd	s0,136(sp)
    800040b8:	e916                	sd	t0,144(sp)
    800040ba:	ed1e                	sd	t2,152(sp)
    800040bc:	f172                	sd	t3,160(sp)
    800040be:	03800613          	li	a2,56
    800040c2:	06000493          	li	s1,96
    800040c6:	00c30533          	add	a0,t1,a2
    800040ca:	6108                	ld	a0,0(a0)
    800040cc:	009305b3          	add	a1,t1,s1
    800040d0:	fe85b703          	ld	a4,-24(a1)
    800040d4:	fa05b783          	ld	a5,-96(a1)
    800040d8:	ff05b403          	ld	s0,-16(a1)
    800040dc:	02a70533          	mul	a0,a4,a0
    800040e0:	02f40733          	mul	a4,s0,a5
    800040e4:	fa85b783          	ld	a5,-88(a1)
    800040e8:	ff85b403          	ld	s0,-8(a1)
    800040ec:	fb05b683          	ld	a3,-80(a1)
    800040f0:	618c                	ld	a1,0(a1)
    800040f2:	02f407b3          	mul	a5,s0,a5
    800040f6:	02d585b3          	mul	a1,a1,a3
    800040fa:	954a                	add	a0,a0,s2
    800040fc:	953a                	add	a0,a0,a4
    800040fe:	953e                	add	a0,a0,a5
    80004100:	00b50933          	add	s2,a0,a1
    80004104:	1601                	addi	a2,a2,-32
    80004106:	02048493          	addi	s1,s1,32
    8000410a:	fb161ee3          	bne	a2,a7,800040c6 <main+0x1f6e>
    8000410e:	4401                	li	s0,0
    80004110:	132dbc23          	sd	s2,312(s11)
    80004114:	00083503          	ld	a0,0(a6)
    80004118:	0000b583          	ld	a1,0(ra)
    8000411c:	0080b603          	ld	a2,8(ra)
    80004120:	0100b683          	ld	a3,16(ra)
    80004124:	0180b703          	ld	a4,24(ra)
    80004128:	0200b783          	ld	a5,32(ra)
    8000412c:	0280b483          	ld	s1,40(ra)
    80004130:	0300b283          	ld	t0,48(ra)
    80004134:	0380b383          	ld	t2,56(ra)
    80004138:	0000000b          	.insn	4, 0x000b
    8000413c:	f02a                	sd	a0,32(sp)
    8000413e:	f42a                	sd	a0,40(sp)
    80004140:	f82a                	sd	a0,48(sp)
    80004142:	fc2a                	sd	a0,56(sp)
    80004144:	e0aa                	sd	a0,64(sp)
    80004146:	e4aa                	sd	a0,72(sp)
    80004148:	e8aa                	sd	a0,80(sp)
    8000414a:	ecaa                	sd	a0,88(sp)
    8000414c:	f082                	sd	zero,96(sp)
    8000414e:	f4ae                	sd	a1,104(sp)
    80004150:	f8b2                	sd	a2,112(sp)
    80004152:	fcb6                	sd	a3,120(sp)
    80004154:	e13a                	sd	a4,128(sp)
    80004156:	e53e                	sd	a5,136(sp)
    80004158:	e926                	sd	s1,144(sp)
    8000415a:	ed16                	sd	t0,152(sp)
    8000415c:	f11e                	sd	t2,160(sp)
    8000415e:	4641                	li	a2,16
    80004160:	00c30533          	add	a0,t1,a2
    80004164:	ff053583          	ld	a1,-16(a0)
    80004168:	7d14                	ld	a3,56(a0)
    8000416a:	02b685b3          	mul	a1,a3,a1
    8000416e:	ff853683          	ld	a3,-8(a0)
    80004172:	6138                	ld	a4,64(a0)
    80004174:	611c                	ld	a5,0(a0)
    80004176:	6524                	ld	s1,72(a0)
    80004178:	02d706b3          	mul	a3,a4,a3
    8000417c:	02f48733          	mul	a4,s1,a5
    80004180:	651c                	ld	a5,8(a0)
    80004182:	6928                	ld	a0,80(a0)
    80004184:	95a2                	add	a1,a1,s0
    80004186:	02f50533          	mul	a0,a0,a5
    8000418a:	95b6                	add	a1,a1,a3
    8000418c:	95ba                	add	a1,a1,a4
    8000418e:	02060613          	addi	a2,a2,32
    80004192:	00a58433          	add	s0,a1,a0
    80004196:	fdd615e3          	bne	a2,t4,80004160 <main+0x2008>
    8000419a:	4681                	li	a3,0
    8000419c:	4a01                	li	s4,0
    8000419e:	148db023          	sd	s0,320(s11)
    800041a2:	64e2                	ld	s1,24(sp)
    800041a4:	1804b503          	ld	a0,384(s1)
    800041a8:	00083583          	ld	a1,0(a6)
    800041ac:	0000b603          	ld	a2,0(ra)
    800041b0:	0080b703          	ld	a4,8(ra)
    800041b4:	0100b783          	ld	a5,16(ra)
    800041b8:	0180b403          	ld	s0,24(ra)
    800041bc:	0200b283          	ld	t0,32(ra)
    800041c0:	0280b383          	ld	t2,40(ra)
    800041c4:	0300b903          	ld	s2,48(ra)
    800041c8:	0380b983          	ld	s3,56(ra)
    800041cc:	0000000b          	.insn	4, 0x000b
    800041d0:	f02a                	sd	a0,32(sp)
    800041d2:	f42e                	sd	a1,40(sp)
    800041d4:	f82e                	sd	a1,48(sp)
    800041d6:	fc2e                	sd	a1,56(sp)
    800041d8:	e0ae                	sd	a1,64(sp)
    800041da:	e4ae                	sd	a1,72(sp)
    800041dc:	e8ae                	sd	a1,80(sp)
    800041de:	ecae                	sd	a1,88(sp)
    800041e0:	18048e13          	addi	t3,s1,384
    800041e4:	4505                	li	a0,1
    800041e6:	f0aa                	sd	a0,96(sp)
    800041e8:	f4b2                	sd	a2,104(sp)
    800041ea:	f8ba                	sd	a4,112(sp)
    800041ec:	fcbe                	sd	a5,120(sp)
    800041ee:	e122                	sd	s0,128(sp)
    800041f0:	e516                	sd	t0,136(sp)
    800041f2:	e91e                	sd	t2,144(sp)
    800041f4:	ed4a                	sd	s2,152(sp)
    800041f6:	f14e                	sd	s3,160(sp)
    800041f8:	10b0                	addi	a2,sp,104
    800041fa:	fc063503          	ld	a0,-64(a2)
    800041fe:	620c                	ld	a1,0(a2)
    80004200:	fc863703          	ld	a4,-56(a2)
    80004204:	661c                	ld	a5,8(a2)
    80004206:	02a58533          	mul	a0,a1,a0
    8000420a:	02e785b3          	mul	a1,a5,a4
    8000420e:	fd063703          	ld	a4,-48(a2)
    80004212:	6a1c                	ld	a5,16(a2)
    80004214:	0046c413          	xori	s0,a3,4
    80004218:	040e                	slli	s0,s0,0x3
    8000421a:	941a                	add	s0,s0,t1
    8000421c:	6000                	ld	s0,0(s0)
    8000421e:	6e04                	ld	s1,24(a2)
    80004220:	02e78733          	mul	a4,a5,a4
    80004224:	028487b3          	mul	a5,s1,s0
    80004228:	9552                	add	a0,a0,s4
    8000422a:	952e                	add	a0,a0,a1
    8000422c:	953a                	add	a0,a0,a4
    8000422e:	00f50a33          	add	s4,a0,a5
    80004232:	0691                	addi	a3,a3,4
    80004234:	02060613          	addi	a2,a2,32
    80004238:	fd6691e3          	bne	a3,s6,800041fa <main+0x20a2>
    8000423c:	4401                	li	s0,0
    8000423e:	4c01                	li	s8,0
    80004240:	154db423          	sd	s4,328(s11)
    80004244:	000e3503          	ld	a0,0(t3)
    80004248:	00083583          	ld	a1,0(a6)
    8000424c:	0000b603          	ld	a2,0(ra)
    80004250:	0080b703          	ld	a4,8(ra)
    80004254:	0100b783          	ld	a5,16(ra)
    80004258:	0180b483          	ld	s1,24(ra)
    8000425c:	0200b283          	ld	t0,32(ra)
    80004260:	0280b383          	ld	t2,40(ra)
    80004264:	0300b903          	ld	s2,48(ra)
    80004268:	0380b983          	ld	s3,56(ra)
    8000426c:	0000000b          	.insn	4, 0x000b
    80004270:	f02a                	sd	a0,32(sp)
    80004272:	f42a                	sd	a0,40(sp)
    80004274:	f82e                	sd	a1,48(sp)
    80004276:	fc2e                	sd	a1,56(sp)
    80004278:	e0ae                	sd	a1,64(sp)
    8000427a:	e4ae                	sd	a1,72(sp)
    8000427c:	e8ae                	sd	a1,80(sp)
    8000427e:	ecae                	sd	a1,88(sp)
    80004280:	4509                	li	a0,2
    80004282:	f0aa                	sd	a0,96(sp)
    80004284:	f4b2                	sd	a2,104(sp)
    80004286:	f8ba                	sd	a4,112(sp)
    80004288:	fcbe                	sd	a5,120(sp)
    8000428a:	e126                	sd	s1,128(sp)
    8000428c:	e516                	sd	t0,136(sp)
    8000428e:	e91e                	sd	t2,144(sp)
    80004290:	ed4a                	sd	s2,152(sp)
    80004292:	f14e                	sd	s3,160(sp)
    80004294:	867e                	mv	a2,t6
    80004296:	00a4                	addi	s1,sp,72
    80004298:	fb063503          	ld	a0,-80(a2)
    8000429c:	fe863583          	ld	a1,-24(a2)
    800042a0:	fb863703          	ld	a4,-72(a2)
    800042a4:	ff063783          	ld	a5,-16(a2)
    800042a8:	02a582b3          	mul	t0,a1,a0
    800042ac:	02e785b3          	mul	a1,a5,a4
    800042b0:	00444713          	xori	a4,s0,4
    800042b4:	070e                	slli	a4,a4,0x3
    800042b6:	971a                	add	a4,a4,t1
    800042b8:	6318                	ld	a4,0(a4)
    800042ba:	ff863783          	ld	a5,-8(a2)
    800042be:	6094                	ld	a3,0(s1)
    800042c0:	6208                	ld	a0,0(a2)
    800042c2:	02e78733          	mul	a4,a5,a4
    800042c6:	02d50533          	mul	a0,a0,a3
    800042ca:	018286b3          	add	a3,t0,s8
    800042ce:	95b6                	add	a1,a1,a3
    800042d0:	95ba                	add	a1,a1,a4
    800042d2:	00a58c33          	add	s8,a1,a0
    800042d6:	0411                	addi	s0,s0,4
    800042d8:	1481                	addi	s1,s1,-32
    800042da:	02060613          	addi	a2,a2,32
    800042de:	fb641de3          	bne	s0,s6,80004298 <main+0x2140>
    800042e2:	4481                	li	s1,0
    800042e4:	4a01                	li	s4,0
    800042e6:	158db823          	sd	s8,336(s11)
    800042ea:	000e3503          	ld	a0,0(t3)
    800042ee:	00083583          	ld	a1,0(a6)
    800042f2:	0000b603          	ld	a2,0(ra)
    800042f6:	0080b683          	ld	a3,8(ra)
    800042fa:	0100b703          	ld	a4,16(ra)
    800042fe:	0180b783          	ld	a5,24(ra)
    80004302:	0200b283          	ld	t0,32(ra)
    80004306:	0280b383          	ld	t2,40(ra)
    8000430a:	0300b903          	ld	s2,48(ra)
    8000430e:	0380b983          	ld	s3,56(ra)
    80004312:	0000000b          	.insn	4, 0x000b
    80004316:	f02a                	sd	a0,32(sp)
    80004318:	f42a                	sd	a0,40(sp)
    8000431a:	f82a                	sd	a0,48(sp)
    8000431c:	fc2e                	sd	a1,56(sp)
    8000431e:	e0ae                	sd	a1,64(sp)
    80004320:	e4ae                	sd	a1,72(sp)
    80004322:	e8ae                	sd	a1,80(sp)
    80004324:	ecae                	sd	a1,88(sp)
    80004326:	450d                	li	a0,3
    80004328:	f0aa                	sd	a0,96(sp)
    8000432a:	f4b2                	sd	a2,104(sp)
    8000432c:	f8b6                	sd	a3,112(sp)
    8000432e:	fcba                	sd	a4,120(sp)
    80004330:	e13e                	sd	a5,128(sp)
    80004332:	e516                	sd	t0,136(sp)
    80004334:	e91e                	sd	t2,144(sp)
    80004336:	ed4a                	sd	s2,152(sp)
    80004338:	f14e                	sd	s3,160(sp)
    8000433a:	fc000693          	li	a3,-64
    8000433e:	8656                	mv	a2,s5
    80004340:	00da8533          	add	a0,s5,a3
    80004344:	750c                	ld	a1,40(a0)
    80004346:	6d38                	ld	a4,88(a0)
    80004348:	0044c793          	xori	a5,s1,4
    8000434c:	078e                	slli	a5,a5,0x3
    8000434e:	979a                	add	a5,a5,t1
    80004350:	639c                	ld	a5,0(a5)
    80004352:	7120                	ld	s0,96(a0)
    80004354:	02b702b3          	mul	t0,a4,a1
    80004358:	02f40733          	mul	a4,s0,a5
    8000435c:	ff863783          	ld	a5,-8(a2)
    80004360:	7520                	ld	s0,104(a0)
    80004362:	620c                	ld	a1,0(a2)
    80004364:	7928                	ld	a0,112(a0)
    80004366:	02f407b3          	mul	a5,s0,a5
    8000436a:	02b50533          	mul	a0,a0,a1
    8000436e:	014285b3          	add	a1,t0,s4
    80004372:	95ba                	add	a1,a1,a4
    80004374:	95be                	add	a1,a1,a5
    80004376:	00a58a33          	add	s4,a1,a0
    8000437a:	0491                	addi	s1,s1,4
    8000437c:	02068693          	addi	a3,a3,32
    80004380:	1601                	addi	a2,a2,-32
    80004382:	fedd                	bnez	a3,80004340 <main+0x21e8>
    80004384:	4981                	li	s3,0
    80004386:	154dbc23          	sd	s4,344(s11)
    8000438a:	000e3503          	ld	a0,0(t3)
    8000438e:	00083583          	ld	a1,0(a6)
    80004392:	0000b603          	ld	a2,0(ra)
    80004396:	0080b683          	ld	a3,8(ra)
    8000439a:	0100b703          	ld	a4,16(ra)
    8000439e:	0180b783          	ld	a5,24(ra)
    800043a2:	0200b403          	ld	s0,32(ra)
    800043a6:	0280b283          	ld	t0,40(ra)
    800043aa:	0300b383          	ld	t2,48(ra)
    800043ae:	0380b903          	ld	s2,56(ra)
    800043b2:	0000000b          	.insn	4, 0x000b
    800043b6:	f02a                	sd	a0,32(sp)
    800043b8:	f42a                	sd	a0,40(sp)
    800043ba:	f82a                	sd	a0,48(sp)
    800043bc:	fc2a                	sd	a0,56(sp)
    800043be:	e0ae                	sd	a1,64(sp)
    800043c0:	e4ae                	sd	a1,72(sp)
    800043c2:	e8ae                	sd	a1,80(sp)
    800043c4:	ecae                	sd	a1,88(sp)
    800043c6:	4511                	li	a0,4
    800043c8:	f0aa                	sd	a0,96(sp)
    800043ca:	f4b2                	sd	a2,104(sp)
    800043cc:	f8b6                	sd	a3,112(sp)
    800043ce:	fcba                	sd	a4,120(sp)
    800043d0:	e13e                	sd	a5,128(sp)
    800043d2:	e522                	sd	s0,136(sp)
    800043d4:	e916                	sd	t0,144(sp)
    800043d6:	ed1e                	sd	t2,152(sp)
    800043d8:	f14a                	sd	s2,160(sp)
    800043da:	02000613          	li	a2,32
    800043de:	86fe                	mv	a3,t6
    800043e0:	00cf8533          	add	a0,t6,a2
    800043e4:	fa053583          	ld	a1,-96(a0)
    800043e8:	fe86b703          	ld	a4,-24(a3)
    800043ec:	fa853783          	ld	a5,-88(a0)
    800043f0:	ff06b403          	ld	s0,-16(a3)
    800043f4:	02b705b3          	mul	a1,a4,a1
    800043f8:	02f40733          	mul	a4,s0,a5
    800043fc:	fb053783          	ld	a5,-80(a0)
    80004400:	ff86b403          	ld	s0,-8(a3)
    80004404:	fb853503          	ld	a0,-72(a0)
    80004408:	6284                	ld	s1,0(a3)
    8000440a:	02f407b3          	mul	a5,s0,a5
    8000440e:	02a48533          	mul	a0,s1,a0
    80004412:	95ce                	add	a1,a1,s3
    80004414:	95ba                	add	a1,a1,a4
    80004416:	95be                	add	a1,a1,a5
    80004418:	00a589b3          	add	s3,a1,a0
    8000441c:	1601                	addi	a2,a2,-32
    8000441e:	02068693          	addi	a3,a3,32
    80004422:	fb761fe3          	bne	a2,s7,800043e0 <main+0x2288>
    80004426:	4a01                	li	s4,0
    80004428:	173db023          	sd	s3,352(s11)
    8000442c:	000e3503          	ld	a0,0(t3)
    80004430:	00083583          	ld	a1,0(a6)
    80004434:	0000b603          	ld	a2,0(ra)
    80004438:	0080b703          	ld	a4,8(ra)
    8000443c:	0100b783          	ld	a5,16(ra)
    80004440:	0180b483          	ld	s1,24(ra)
    80004444:	0200b403          	ld	s0,32(ra)
    80004448:	0280b283          	ld	t0,40(ra)
    8000444c:	0300b383          	ld	t2,48(ra)
    80004450:	0380b903          	ld	s2,56(ra)
    80004454:	0000000b          	.insn	4, 0x000b
    80004458:	f02a                	sd	a0,32(sp)
    8000445a:	f42a                	sd	a0,40(sp)
    8000445c:	f82a                	sd	a0,48(sp)
    8000445e:	fc2a                	sd	a0,56(sp)
    80004460:	e0aa                	sd	a0,64(sp)
    80004462:	e4ae                	sd	a1,72(sp)
    80004464:	e8ae                	sd	a1,80(sp)
    80004466:	ecae                	sd	a1,88(sp)
    80004468:	4515                	li	a0,5
    8000446a:	f0aa                	sd	a0,96(sp)
    8000446c:	f4b2                	sd	a2,104(sp)
    8000446e:	f8ba                	sd	a4,112(sp)
    80004470:	fcbe                	sd	a5,120(sp)
    80004472:	e126                	sd	s1,128(sp)
    80004474:	e522                	sd	s0,136(sp)
    80004476:	e916                	sd	t0,144(sp)
    80004478:	ed1e                	sd	t2,152(sp)
    8000447a:	f14a                	sd	s2,160(sp)
    8000447c:	02800613          	li	a2,40
    80004480:	06000413          	li	s0,96
    80004484:	00c30533          	add	a0,t1,a2
    80004488:	610c                	ld	a1,0(a0)
    8000448a:	00830733          	add	a4,t1,s0
    8000448e:	fe873783          	ld	a5,-24(a4)
    80004492:	6504                	ld	s1,8(a0)
    80004494:	ff073683          	ld	a3,-16(a4)
    80004498:	02b785b3          	mul	a1,a5,a1
    8000449c:	029686b3          	mul	a3,a3,s1
    800044a0:	6908                	ld	a0,16(a0)
    800044a2:	ff873783          	ld	a5,-8(a4)
    800044a6:	fa073483          	ld	s1,-96(a4)
    800044aa:	6318                	ld	a4,0(a4)
    800044ac:	02a78533          	mul	a0,a5,a0
    800044b0:	02970733          	mul	a4,a4,s1
    800044b4:	95d2                	add	a1,a1,s4
    800044b6:	95b6                	add	a1,a1,a3
    800044b8:	952e                	add	a0,a0,a1
    800044ba:	00e50a33          	add	s4,a0,a4
    800044be:	1601                	addi	a2,a2,-32
    800044c0:	02040413          	addi	s0,s0,32
    800044c4:	fda610e3          	bne	a2,s10,80004484 <main+0x232c>
    800044c8:	4981                	li	s3,0
    800044ca:	174db423          	sd	s4,360(s11)
    800044ce:	000e3503          	ld	a0,0(t3)
    800044d2:	00083583          	ld	a1,0(a6)
    800044d6:	0000b603          	ld	a2,0(ra)
    800044da:	0080b683          	ld	a3,8(ra)
    800044de:	0100b703          	ld	a4,16(ra)
    800044e2:	0180b783          	ld	a5,24(ra)
    800044e6:	0200b483          	ld	s1,32(ra)
    800044ea:	0280b283          	ld	t0,40(ra)
    800044ee:	0300b383          	ld	t2,48(ra)
    800044f2:	0380b903          	ld	s2,56(ra)
    800044f6:	0000000b          	.insn	4, 0x000b
    800044fa:	f02a                	sd	a0,32(sp)
    800044fc:	f42a                	sd	a0,40(sp)
    800044fe:	f82a                	sd	a0,48(sp)
    80004500:	fc2a                	sd	a0,56(sp)
    80004502:	e0aa                	sd	a0,64(sp)
    80004504:	e4aa                	sd	a0,72(sp)
    80004506:	e8ae                	sd	a1,80(sp)
    80004508:	ecae                	sd	a1,88(sp)
    8000450a:	4519                	li	a0,6
    8000450c:	f0aa                	sd	a0,96(sp)
    8000450e:	f4b2                	sd	a2,104(sp)
    80004510:	f8b6                	sd	a3,112(sp)
    80004512:	fcba                	sd	a4,120(sp)
    80004514:	e13e                	sd	a5,128(sp)
    80004516:	e526                	sd	s1,136(sp)
    80004518:	e916                	sd	t0,144(sp)
    8000451a:	ed1e                	sd	t2,152(sp)
    8000451c:	f14a                	sd	s2,160(sp)
    8000451e:	fc000613          	li	a2,-64
    80004522:	86fa                	mv	a3,t5
    80004524:	ff86b503          	ld	a0,-8(a3)
    80004528:	00ca85b3          	add	a1,s5,a2
    8000452c:	6db8                	ld	a4,88(a1)
    8000452e:	629c                	ld	a5,0(a3)
    80004530:	71a4                	ld	s1,96(a1)
    80004532:	02a70533          	mul	a0,a4,a0
    80004536:	02f48733          	mul	a4,s1,a5
    8000453a:	699c                	ld	a5,16(a1)
    8000453c:	75a4                	ld	s1,104(a1)
    8000453e:	6d80                	ld	s0,24(a1)
    80004540:	79ac                	ld	a1,112(a1)
    80004542:	02f487b3          	mul	a5,s1,a5
    80004546:	028585b3          	mul	a1,a1,s0
    8000454a:	954e                	add	a0,a0,s3
    8000454c:	953a                	add	a0,a0,a4
    8000454e:	953e                	add	a0,a0,a5
    80004550:	00b509b3          	add	s3,a0,a1
    80004554:	02060613          	addi	a2,a2,32
    80004558:	1681                	addi	a3,a3,-32
    8000455a:	f669                	bnez	a2,80004524 <main+0x23cc>
    8000455c:	4901                	li	s2,0
    8000455e:	173db823          	sd	s3,368(s11)
    80004562:	000e3503          	ld	a0,0(t3)
    80004566:	00083583          	ld	a1,0(a6)
    8000456a:	0000b603          	ld	a2,0(ra)
    8000456e:	0080b703          	ld	a4,8(ra)
    80004572:	0100b783          	ld	a5,16(ra)
    80004576:	0180b483          	ld	s1,24(ra)
    8000457a:	0200b403          	ld	s0,32(ra)
    8000457e:	0280b803          	ld	a6,40(ra)
    80004582:	0300b283          	ld	t0,48(ra)
    80004586:	0380b383          	ld	t2,56(ra)
    8000458a:	0000000b          	.insn	4, 0x000b
    8000458e:	f02a                	sd	a0,32(sp)
    80004590:	f42a                	sd	a0,40(sp)
    80004592:	f82a                	sd	a0,48(sp)
    80004594:	fc2a                	sd	a0,56(sp)
    80004596:	e0aa                	sd	a0,64(sp)
    80004598:	e4aa                	sd	a0,72(sp)
    8000459a:	e8aa                	sd	a0,80(sp)
    8000459c:	ecae                	sd	a1,88(sp)
    8000459e:	451d                	li	a0,7
    800045a0:	f0aa                	sd	a0,96(sp)
    800045a2:	f4b2                	sd	a2,104(sp)
    800045a4:	f8ba                	sd	a4,112(sp)
    800045a6:	fcbe                	sd	a5,120(sp)
    800045a8:	e126                	sd	s1,128(sp)
    800045aa:	e522                	sd	s0,136(sp)
    800045ac:	e942                	sd	a6,144(sp)
    800045ae:	ed16                	sd	t0,152(sp)
    800045b0:	f11e                	sd	t2,160(sp)
    800045b2:	03800613          	li	a2,56
    800045b6:	06000493          	li	s1,96
    800045ba:	00c30533          	add	a0,t1,a2
    800045be:	6108                	ld	a0,0(a0)
    800045c0:	009305b3          	add	a1,t1,s1
    800045c4:	fe85b703          	ld	a4,-24(a1)
    800045c8:	fa05b783          	ld	a5,-96(a1)
    800045cc:	ff05b403          	ld	s0,-16(a1)
    800045d0:	02a70533          	mul	a0,a4,a0
    800045d4:	02f40733          	mul	a4,s0,a5
    800045d8:	fa85b783          	ld	a5,-88(a1)
    800045dc:	ff85b403          	ld	s0,-8(a1)
    800045e0:	fb05b683          	ld	a3,-80(a1)
    800045e4:	618c                	ld	a1,0(a1)
    800045e6:	02f407b3          	mul	a5,s0,a5
    800045ea:	02d585b3          	mul	a1,a1,a3
    800045ee:	954a                	add	a0,a0,s2
    800045f0:	953a                	add	a0,a0,a4
    800045f2:	953e                	add	a0,a0,a5
    800045f4:	00b50933          	add	s2,a0,a1
    800045f8:	1601                	addi	a2,a2,-32
    800045fa:	02048493          	addi	s1,s1,32
    800045fe:	fb161ee3          	bne	a2,a7,800045ba <main+0x2462>
    80004602:	4401                	li	s0,0
    80004604:	172dbc23          	sd	s2,376(s11)
    80004608:	000e3503          	ld	a0,0(t3)
    8000460c:	0000b583          	ld	a1,0(ra)
    80004610:	0080b603          	ld	a2,8(ra)
    80004614:	0100b683          	ld	a3,16(ra)
    80004618:	0180b703          	ld	a4,24(ra)
    8000461c:	0200b783          	ld	a5,32(ra)
    80004620:	0280b483          	ld	s1,40(ra)
    80004624:	0300b803          	ld	a6,48(ra)
    80004628:	0380b283          	ld	t0,56(ra)
    8000462c:	0000000b          	.insn	4, 0x000b
    80004630:	f02a                	sd	a0,32(sp)
    80004632:	f42a                	sd	a0,40(sp)
    80004634:	f82a                	sd	a0,48(sp)
    80004636:	fc2a                	sd	a0,56(sp)
    80004638:	e0aa                	sd	a0,64(sp)
    8000463a:	e4aa                	sd	a0,72(sp)
    8000463c:	e8aa                	sd	a0,80(sp)
    8000463e:	ecaa                	sd	a0,88(sp)
    80004640:	f082                	sd	zero,96(sp)
    80004642:	f4ae                	sd	a1,104(sp)
    80004644:	f8b2                	sd	a2,112(sp)
    80004646:	fcb6                	sd	a3,120(sp)
    80004648:	e13a                	sd	a4,128(sp)
    8000464a:	e53e                	sd	a5,136(sp)
    8000464c:	e926                	sd	s1,144(sp)
    8000464e:	ed42                	sd	a6,152(sp)
    80004650:	f116                	sd	t0,160(sp)
    80004652:	4641                	li	a2,16
    80004654:	00c30533          	add	a0,t1,a2
    80004658:	ff053583          	ld	a1,-16(a0)
    8000465c:	7d14                	ld	a3,56(a0)
    8000465e:	02b685b3          	mul	a1,a3,a1
    80004662:	ff853683          	ld	a3,-8(a0)
    80004666:	6138                	ld	a4,64(a0)
    80004668:	611c                	ld	a5,0(a0)
    8000466a:	6524                	ld	s1,72(a0)
    8000466c:	02d706b3          	mul	a3,a4,a3
    80004670:	02f48733          	mul	a4,s1,a5
    80004674:	651c                	ld	a5,8(a0)
    80004676:	6928                	ld	a0,80(a0)
    80004678:	95a2                	add	a1,a1,s0
    8000467a:	02f50533          	mul	a0,a0,a5
    8000467e:	95b6                	add	a1,a1,a3
    80004680:	95ba                	add	a1,a1,a4
    80004682:	02060613          	addi	a2,a2,32
    80004686:	00a58433          	add	s0,a1,a0
    8000468a:	fdd615e3          	bne	a2,t4,80004654 <main+0x24fc>
    8000468e:	4681                	li	a3,0
    80004690:	4a01                	li	s4,0
    80004692:	188db023          	sd	s0,384(s11)
    80004696:	64e2                	ld	s1,24(sp)
    80004698:	1c04b503          	ld	a0,448(s1)
    8000469c:	000e3583          	ld	a1,0(t3)
    800046a0:	0000b603          	ld	a2,0(ra)
    800046a4:	0080b703          	ld	a4,8(ra)
    800046a8:	0100b783          	ld	a5,16(ra)
    800046ac:	0180b403          	ld	s0,24(ra)
    800046b0:	0200b283          	ld	t0,32(ra)
    800046b4:	0280b383          	ld	t2,40(ra)
    800046b8:	0300b903          	ld	s2,48(ra)
    800046bc:	0380b983          	ld	s3,56(ra)
    800046c0:	0000000b          	.insn	4, 0x000b
    800046c4:	f02a                	sd	a0,32(sp)
    800046c6:	f42e                	sd	a1,40(sp)
    800046c8:	f82e                	sd	a1,48(sp)
    800046ca:	fc2e                	sd	a1,56(sp)
    800046cc:	e0ae                	sd	a1,64(sp)
    800046ce:	e4ae                	sd	a1,72(sp)
    800046d0:	e8ae                	sd	a1,80(sp)
    800046d2:	ecae                	sd	a1,88(sp)
    800046d4:	1c048813          	addi	a6,s1,448
    800046d8:	4505                	li	a0,1
    800046da:	f0aa                	sd	a0,96(sp)
    800046dc:	f4b2                	sd	a2,104(sp)
    800046de:	f8ba                	sd	a4,112(sp)
    800046e0:	fcbe                	sd	a5,120(sp)
    800046e2:	e122                	sd	s0,128(sp)
    800046e4:	e516                	sd	t0,136(sp)
    800046e6:	e91e                	sd	t2,144(sp)
    800046e8:	ed4a                	sd	s2,152(sp)
    800046ea:	f14e                	sd	s3,160(sp)
    800046ec:	10b0                	addi	a2,sp,104
    800046ee:	fc063503          	ld	a0,-64(a2)
    800046f2:	620c                	ld	a1,0(a2)
    800046f4:	fc863703          	ld	a4,-56(a2)
    800046f8:	661c                	ld	a5,8(a2)
    800046fa:	02a58533          	mul	a0,a1,a0
    800046fe:	02e785b3          	mul	a1,a5,a4
    80004702:	fd063703          	ld	a4,-48(a2)
    80004706:	6a1c                	ld	a5,16(a2)
    80004708:	0046c413          	xori	s0,a3,4
    8000470c:	040e                	slli	s0,s0,0x3
    8000470e:	941a                	add	s0,s0,t1
    80004710:	6000                	ld	s0,0(s0)
    80004712:	6e04                	ld	s1,24(a2)
    80004714:	02e78733          	mul	a4,a5,a4
    80004718:	028487b3          	mul	a5,s1,s0
    8000471c:	9552                	add	a0,a0,s4
    8000471e:	952e                	add	a0,a0,a1
    80004720:	953a                	add	a0,a0,a4
    80004722:	00f50a33          	add	s4,a0,a5
    80004726:	0691                	addi	a3,a3,4
    80004728:	02060613          	addi	a2,a2,32
    8000472c:	fd6691e3          	bne	a3,s6,800046ee <main+0x2596>
    80004730:	4401                	li	s0,0
    80004732:	4c01                	li	s8,0
    80004734:	194db423          	sd	s4,392(s11)
    80004738:	00083503          	ld	a0,0(a6)
    8000473c:	000e3583          	ld	a1,0(t3)
    80004740:	0000b603          	ld	a2,0(ra)
    80004744:	0080b703          	ld	a4,8(ra)
    80004748:	0100b783          	ld	a5,16(ra)
    8000474c:	0180b483          	ld	s1,24(ra)
    80004750:	0200b283          	ld	t0,32(ra)
    80004754:	0280b383          	ld	t2,40(ra)
    80004758:	0300b903          	ld	s2,48(ra)
    8000475c:	0380b983          	ld	s3,56(ra)
    80004760:	0000000b          	.insn	4, 0x000b
    80004764:	f02a                	sd	a0,32(sp)
    80004766:	f42a                	sd	a0,40(sp)
    80004768:	f82e                	sd	a1,48(sp)
    8000476a:	fc2e                	sd	a1,56(sp)
    8000476c:	e0ae                	sd	a1,64(sp)
    8000476e:	e4ae                	sd	a1,72(sp)
    80004770:	e8ae                	sd	a1,80(sp)
    80004772:	ecae                	sd	a1,88(sp)
    80004774:	4509                	li	a0,2
    80004776:	f0aa                	sd	a0,96(sp)
    80004778:	f4b2                	sd	a2,104(sp)
    8000477a:	f8ba                	sd	a4,112(sp)
    8000477c:	fcbe                	sd	a5,120(sp)
    8000477e:	e126                	sd	s1,128(sp)
    80004780:	e516                	sd	t0,136(sp)
    80004782:	e91e                	sd	t2,144(sp)
    80004784:	ed4a                	sd	s2,152(sp)
    80004786:	f14e                	sd	s3,160(sp)
    80004788:	867e                	mv	a2,t6
    8000478a:	00a4                	addi	s1,sp,72
    8000478c:	fb063503          	ld	a0,-80(a2)
    80004790:	fe863583          	ld	a1,-24(a2)
    80004794:	fb863703          	ld	a4,-72(a2)
    80004798:	ff063783          	ld	a5,-16(a2)
    8000479c:	02a582b3          	mul	t0,a1,a0
    800047a0:	02e785b3          	mul	a1,a5,a4
    800047a4:	00444713          	xori	a4,s0,4
    800047a8:	070e                	slli	a4,a4,0x3
    800047aa:	971a                	add	a4,a4,t1
    800047ac:	6318                	ld	a4,0(a4)
    800047ae:	ff863783          	ld	a5,-8(a2)
    800047b2:	6094                	ld	a3,0(s1)
    800047b4:	6208                	ld	a0,0(a2)
    800047b6:	02e78733          	mul	a4,a5,a4
    800047ba:	02d50533          	mul	a0,a0,a3
    800047be:	018286b3          	add	a3,t0,s8
    800047c2:	95b6                	add	a1,a1,a3
    800047c4:	95ba                	add	a1,a1,a4
    800047c6:	00a58c33          	add	s8,a1,a0
    800047ca:	0411                	addi	s0,s0,4
    800047cc:	1481                	addi	s1,s1,-32
    800047ce:	02060613          	addi	a2,a2,32
    800047d2:	fb641de3          	bne	s0,s6,8000478c <main+0x2634>
    800047d6:	4481                	li	s1,0
    800047d8:	4a01                	li	s4,0
    800047da:	198db823          	sd	s8,400(s11)
    800047de:	00083503          	ld	a0,0(a6)
    800047e2:	000e3583          	ld	a1,0(t3)
    800047e6:	0000b603          	ld	a2,0(ra)
    800047ea:	0080b683          	ld	a3,8(ra)
    800047ee:	0100b703          	ld	a4,16(ra)
    800047f2:	0180b783          	ld	a5,24(ra)
    800047f6:	0200b283          	ld	t0,32(ra)
    800047fa:	0280b383          	ld	t2,40(ra)
    800047fe:	0300b903          	ld	s2,48(ra)
    80004802:	0380b983          	ld	s3,56(ra)
    80004806:	0000000b          	.insn	4, 0x000b
    8000480a:	f02a                	sd	a0,32(sp)
    8000480c:	f42a                	sd	a0,40(sp)
    8000480e:	f82a                	sd	a0,48(sp)
    80004810:	fc2e                	sd	a1,56(sp)
    80004812:	e0ae                	sd	a1,64(sp)
    80004814:	e4ae                	sd	a1,72(sp)
    80004816:	e8ae                	sd	a1,80(sp)
    80004818:	ecae                	sd	a1,88(sp)
    8000481a:	450d                	li	a0,3
    8000481c:	f0aa                	sd	a0,96(sp)
    8000481e:	f4b2                	sd	a2,104(sp)
    80004820:	f8b6                	sd	a3,112(sp)
    80004822:	fcba                	sd	a4,120(sp)
    80004824:	e13e                	sd	a5,128(sp)
    80004826:	e516                	sd	t0,136(sp)
    80004828:	e91e                	sd	t2,144(sp)
    8000482a:	ed4a                	sd	s2,152(sp)
    8000482c:	f14e                	sd	s3,160(sp)
    8000482e:	fc000693          	li	a3,-64
    80004832:	8656                	mv	a2,s5
    80004834:	00da8533          	add	a0,s5,a3
    80004838:	750c                	ld	a1,40(a0)
    8000483a:	6d38                	ld	a4,88(a0)
    8000483c:	0044c793          	xori	a5,s1,4
    80004840:	078e                	slli	a5,a5,0x3
    80004842:	979a                	add	a5,a5,t1
    80004844:	639c                	ld	a5,0(a5)
    80004846:	7120                	ld	s0,96(a0)
    80004848:	02b702b3          	mul	t0,a4,a1
    8000484c:	02f40733          	mul	a4,s0,a5
    80004850:	ff863783          	ld	a5,-8(a2)
    80004854:	7520                	ld	s0,104(a0)
    80004856:	620c                	ld	a1,0(a2)
    80004858:	7928                	ld	a0,112(a0)
    8000485a:	02f407b3          	mul	a5,s0,a5
    8000485e:	02b50533          	mul	a0,a0,a1
    80004862:	014285b3          	add	a1,t0,s4
    80004866:	95ba                	add	a1,a1,a4
    80004868:	95be                	add	a1,a1,a5
    8000486a:	00a58a33          	add	s4,a1,a0
    8000486e:	0491                	addi	s1,s1,4
    80004870:	02068693          	addi	a3,a3,32
    80004874:	1601                	addi	a2,a2,-32
    80004876:	fedd                	bnez	a3,80004834 <main+0x26dc>
    80004878:	4981                	li	s3,0
    8000487a:	194dbc23          	sd	s4,408(s11)
    8000487e:	00083503          	ld	a0,0(a6)
    80004882:	000e3583          	ld	a1,0(t3)
    80004886:	0000b603          	ld	a2,0(ra)
    8000488a:	0080b683          	ld	a3,8(ra)
    8000488e:	0100b703          	ld	a4,16(ra)
    80004892:	0180b783          	ld	a5,24(ra)
    80004896:	0200b403          	ld	s0,32(ra)
    8000489a:	0280b283          	ld	t0,40(ra)
    8000489e:	0300b383          	ld	t2,48(ra)
    800048a2:	0380b903          	ld	s2,56(ra)
    800048a6:	0000000b          	.insn	4, 0x000b
    800048aa:	f02a                	sd	a0,32(sp)
    800048ac:	f42a                	sd	a0,40(sp)
    800048ae:	f82a                	sd	a0,48(sp)
    800048b0:	fc2a                	sd	a0,56(sp)
    800048b2:	e0ae                	sd	a1,64(sp)
    800048b4:	e4ae                	sd	a1,72(sp)
    800048b6:	e8ae                	sd	a1,80(sp)
    800048b8:	ecae                	sd	a1,88(sp)
    800048ba:	4511                	li	a0,4
    800048bc:	f0aa                	sd	a0,96(sp)
    800048be:	f4b2                	sd	a2,104(sp)
    800048c0:	f8b6                	sd	a3,112(sp)
    800048c2:	fcba                	sd	a4,120(sp)
    800048c4:	e13e                	sd	a5,128(sp)
    800048c6:	e522                	sd	s0,136(sp)
    800048c8:	e916                	sd	t0,144(sp)
    800048ca:	ed1e                	sd	t2,152(sp)
    800048cc:	f14a                	sd	s2,160(sp)
    800048ce:	02000613          	li	a2,32
    800048d2:	86fe                	mv	a3,t6
    800048d4:	00cf8533          	add	a0,t6,a2
    800048d8:	fa053583          	ld	a1,-96(a0)
    800048dc:	fe86b703          	ld	a4,-24(a3)
    800048e0:	fa853783          	ld	a5,-88(a0)
    800048e4:	ff06b403          	ld	s0,-16(a3)
    800048e8:	02b705b3          	mul	a1,a4,a1
    800048ec:	02f40733          	mul	a4,s0,a5
    800048f0:	fb053783          	ld	a5,-80(a0)
    800048f4:	ff86b403          	ld	s0,-8(a3)
    800048f8:	fb853503          	ld	a0,-72(a0)
    800048fc:	6284                	ld	s1,0(a3)
    800048fe:	02f407b3          	mul	a5,s0,a5
    80004902:	02a48533          	mul	a0,s1,a0
    80004906:	95ce                	add	a1,a1,s3
    80004908:	95ba                	add	a1,a1,a4
    8000490a:	95be                	add	a1,a1,a5
    8000490c:	00a589b3          	add	s3,a1,a0
    80004910:	1601                	addi	a2,a2,-32
    80004912:	02068693          	addi	a3,a3,32
    80004916:	fb761fe3          	bne	a2,s7,800048d4 <main+0x277c>
    8000491a:	4a01                	li	s4,0
    8000491c:	1b3db023          	sd	s3,416(s11)
    80004920:	00083503          	ld	a0,0(a6)
    80004924:	000e3583          	ld	a1,0(t3)
    80004928:	0000b603          	ld	a2,0(ra)
    8000492c:	0080b703          	ld	a4,8(ra)
    80004930:	0100b783          	ld	a5,16(ra)
    80004934:	0180b483          	ld	s1,24(ra)
    80004938:	0200b403          	ld	s0,32(ra)
    8000493c:	0280b283          	ld	t0,40(ra)
    80004940:	0300b383          	ld	t2,48(ra)
    80004944:	0380b903          	ld	s2,56(ra)
    80004948:	0000000b          	.insn	4, 0x000b
    8000494c:	f02a                	sd	a0,32(sp)
    8000494e:	f42a                	sd	a0,40(sp)
    80004950:	f82a                	sd	a0,48(sp)
    80004952:	fc2a                	sd	a0,56(sp)
    80004954:	e0aa                	sd	a0,64(sp)
    80004956:	e4ae                	sd	a1,72(sp)
    80004958:	e8ae                	sd	a1,80(sp)
    8000495a:	ecae                	sd	a1,88(sp)
    8000495c:	4515                	li	a0,5
    8000495e:	f0aa                	sd	a0,96(sp)
    80004960:	f4b2                	sd	a2,104(sp)
    80004962:	f8ba                	sd	a4,112(sp)
    80004964:	fcbe                	sd	a5,120(sp)
    80004966:	e126                	sd	s1,128(sp)
    80004968:	e522                	sd	s0,136(sp)
    8000496a:	e916                	sd	t0,144(sp)
    8000496c:	ed1e                	sd	t2,152(sp)
    8000496e:	f14a                	sd	s2,160(sp)
    80004970:	02800613          	li	a2,40
    80004974:	06000413          	li	s0,96
    80004978:	00c30533          	add	a0,t1,a2
    8000497c:	610c                	ld	a1,0(a0)
    8000497e:	00830733          	add	a4,t1,s0
    80004982:	fe873783          	ld	a5,-24(a4)
    80004986:	6504                	ld	s1,8(a0)
    80004988:	ff073683          	ld	a3,-16(a4)
    8000498c:	02b785b3          	mul	a1,a5,a1
    80004990:	029686b3          	mul	a3,a3,s1
    80004994:	6908                	ld	a0,16(a0)
    80004996:	ff873783          	ld	a5,-8(a4)
    8000499a:	fa073483          	ld	s1,-96(a4)
    8000499e:	6318                	ld	a4,0(a4)
    800049a0:	02a78533          	mul	a0,a5,a0
    800049a4:	02970733          	mul	a4,a4,s1
    800049a8:	95d2                	add	a1,a1,s4
    800049aa:	95b6                	add	a1,a1,a3
    800049ac:	952e                	add	a0,a0,a1
    800049ae:	00e50a33          	add	s4,a0,a4
    800049b2:	1601                	addi	a2,a2,-32
    800049b4:	02040413          	addi	s0,s0,32
    800049b8:	fda610e3          	bne	a2,s10,80004978 <main+0x2820>
    800049bc:	4981                	li	s3,0
    800049be:	1b4db423          	sd	s4,424(s11)
    800049c2:	00083503          	ld	a0,0(a6)
    800049c6:	000e3583          	ld	a1,0(t3)
    800049ca:	0000b603          	ld	a2,0(ra)
    800049ce:	0080b683          	ld	a3,8(ra)
    800049d2:	0100b703          	ld	a4,16(ra)
    800049d6:	0180b783          	ld	a5,24(ra)
    800049da:	0200b483          	ld	s1,32(ra)
    800049de:	0280b283          	ld	t0,40(ra)
    800049e2:	0300b383          	ld	t2,48(ra)
    800049e6:	0380b903          	ld	s2,56(ra)
    800049ea:	0000000b          	.insn	4, 0x000b
    800049ee:	f02a                	sd	a0,32(sp)
    800049f0:	f42a                	sd	a0,40(sp)
    800049f2:	f82a                	sd	a0,48(sp)
    800049f4:	fc2a                	sd	a0,56(sp)
    800049f6:	e0aa                	sd	a0,64(sp)
    800049f8:	e4aa                	sd	a0,72(sp)
    800049fa:	e8ae                	sd	a1,80(sp)
    800049fc:	ecae                	sd	a1,88(sp)
    800049fe:	4519                	li	a0,6
    80004a00:	f0aa                	sd	a0,96(sp)
    80004a02:	f4b2                	sd	a2,104(sp)
    80004a04:	f8b6                	sd	a3,112(sp)
    80004a06:	fcba                	sd	a4,120(sp)
    80004a08:	e13e                	sd	a5,128(sp)
    80004a0a:	e526                	sd	s1,136(sp)
    80004a0c:	e916                	sd	t0,144(sp)
    80004a0e:	ed1e                	sd	t2,152(sp)
    80004a10:	f14a                	sd	s2,160(sp)
    80004a12:	fc000613          	li	a2,-64
    80004a16:	86fa                	mv	a3,t5
    80004a18:	ff86b503          	ld	a0,-8(a3)
    80004a1c:	00ca85b3          	add	a1,s5,a2
    80004a20:	6db8                	ld	a4,88(a1)
    80004a22:	629c                	ld	a5,0(a3)
    80004a24:	71a4                	ld	s1,96(a1)
    80004a26:	02a70533          	mul	a0,a4,a0
    80004a2a:	02f48733          	mul	a4,s1,a5
    80004a2e:	699c                	ld	a5,16(a1)
    80004a30:	75a4                	ld	s1,104(a1)
    80004a32:	6d80                	ld	s0,24(a1)
    80004a34:	79ac                	ld	a1,112(a1)
    80004a36:	02f487b3          	mul	a5,s1,a5
    80004a3a:	028585b3          	mul	a1,a1,s0
    80004a3e:	954e                	add	a0,a0,s3
    80004a40:	953a                	add	a0,a0,a4
    80004a42:	953e                	add	a0,a0,a5
    80004a44:	00b509b3          	add	s3,a0,a1
    80004a48:	02060613          	addi	a2,a2,32
    80004a4c:	1681                	addi	a3,a3,-32
    80004a4e:	f669                	bnez	a2,80004a18 <main+0x28c0>
    80004a50:	4901                	li	s2,0
    80004a52:	1b3db823          	sd	s3,432(s11)
    80004a56:	00083503          	ld	a0,0(a6)
    80004a5a:	000e3583          	ld	a1,0(t3)
    80004a5e:	0000b603          	ld	a2,0(ra)
    80004a62:	0080b703          	ld	a4,8(ra)
    80004a66:	0100b783          	ld	a5,16(ra)
    80004a6a:	0180b483          	ld	s1,24(ra)
    80004a6e:	0200b403          	ld	s0,32(ra)
    80004a72:	0280b283          	ld	t0,40(ra)
    80004a76:	0300b383          	ld	t2,48(ra)
    80004a7a:	0380be03          	ld	t3,56(ra)
    80004a7e:	0000000b          	.insn	4, 0x000b
    80004a82:	f02a                	sd	a0,32(sp)
    80004a84:	f42a                	sd	a0,40(sp)
    80004a86:	f82a                	sd	a0,48(sp)
    80004a88:	fc2a                	sd	a0,56(sp)
    80004a8a:	e0aa                	sd	a0,64(sp)
    80004a8c:	e4aa                	sd	a0,72(sp)
    80004a8e:	e8aa                	sd	a0,80(sp)
    80004a90:	ecae                	sd	a1,88(sp)
    80004a92:	451d                	li	a0,7
    80004a94:	f0aa                	sd	a0,96(sp)
    80004a96:	f4b2                	sd	a2,104(sp)
    80004a98:	f8ba                	sd	a4,112(sp)
    80004a9a:	fcbe                	sd	a5,120(sp)
    80004a9c:	e126                	sd	s1,128(sp)
    80004a9e:	e522                	sd	s0,136(sp)
    80004aa0:	e916                	sd	t0,144(sp)
    80004aa2:	ed1e                	sd	t2,152(sp)
    80004aa4:	f172                	sd	t3,160(sp)
    80004aa6:	03800613          	li	a2,56
    80004aaa:	06000493          	li	s1,96
    80004aae:	00c30533          	add	a0,t1,a2
    80004ab2:	6108                	ld	a0,0(a0)
    80004ab4:	009305b3          	add	a1,t1,s1
    80004ab8:	fe85b703          	ld	a4,-24(a1)
    80004abc:	fa05b783          	ld	a5,-96(a1)
    80004ac0:	ff05b403          	ld	s0,-16(a1)
    80004ac4:	02a70533          	mul	a0,a4,a0
    80004ac8:	02f40733          	mul	a4,s0,a5
    80004acc:	fa85b783          	ld	a5,-88(a1)
    80004ad0:	ff85b403          	ld	s0,-8(a1)
    80004ad4:	fb05b683          	ld	a3,-80(a1)
    80004ad8:	618c                	ld	a1,0(a1)
    80004ada:	02f407b3          	mul	a5,s0,a5
    80004ade:	02d585b3          	mul	a1,a1,a3
    80004ae2:	954a                	add	a0,a0,s2
    80004ae4:	953a                	add	a0,a0,a4
    80004ae6:	953e                	add	a0,a0,a5
    80004ae8:	00b50933          	add	s2,a0,a1
    80004aec:	1601                	addi	a2,a2,-32
    80004aee:	02048493          	addi	s1,s1,32
    80004af2:	fb161ee3          	bne	a2,a7,80004aae <main+0x2956>
    80004af6:	4401                	li	s0,0
    80004af8:	1b2dbc23          	sd	s2,440(s11)
    80004afc:	00083503          	ld	a0,0(a6)
    80004b00:	0000b583          	ld	a1,0(ra)
    80004b04:	0080b603          	ld	a2,8(ra)
    80004b08:	0100b683          	ld	a3,16(ra)
    80004b0c:	0180b703          	ld	a4,24(ra)
    80004b10:	0200b783          	ld	a5,32(ra)
    80004b14:	0280b483          	ld	s1,40(ra)
    80004b18:	0300b283          	ld	t0,48(ra)
    80004b1c:	0380b383          	ld	t2,56(ra)
    80004b20:	0000000b          	.insn	4, 0x000b
    80004b24:	f02a                	sd	a0,32(sp)
    80004b26:	f42a                	sd	a0,40(sp)
    80004b28:	f82a                	sd	a0,48(sp)
    80004b2a:	fc2a                	sd	a0,56(sp)
    80004b2c:	e0aa                	sd	a0,64(sp)
    80004b2e:	e4aa                	sd	a0,72(sp)
    80004b30:	e8aa                	sd	a0,80(sp)
    80004b32:	ecaa                	sd	a0,88(sp)
    80004b34:	f082                	sd	zero,96(sp)
    80004b36:	f4ae                	sd	a1,104(sp)
    80004b38:	f8b2                	sd	a2,112(sp)
    80004b3a:	fcb6                	sd	a3,120(sp)
    80004b3c:	e13a                	sd	a4,128(sp)
    80004b3e:	e53e                	sd	a5,136(sp)
    80004b40:	e926                	sd	s1,144(sp)
    80004b42:	ed16                	sd	t0,152(sp)
    80004b44:	f11e                	sd	t2,160(sp)
    80004b46:	4641                	li	a2,16
    80004b48:	00c30533          	add	a0,t1,a2
    80004b4c:	ff053583          	ld	a1,-16(a0)
    80004b50:	7d14                	ld	a3,56(a0)
    80004b52:	02b685b3          	mul	a1,a3,a1
    80004b56:	ff853683          	ld	a3,-8(a0)
    80004b5a:	6138                	ld	a4,64(a0)
    80004b5c:	611c                	ld	a5,0(a0)
    80004b5e:	6524                	ld	s1,72(a0)
    80004b60:	02d706b3          	mul	a3,a4,a3
    80004b64:	02f48733          	mul	a4,s1,a5
    80004b68:	651c                	ld	a5,8(a0)
    80004b6a:	6928                	ld	a0,80(a0)
    80004b6c:	95a2                	add	a1,a1,s0
    80004b6e:	02f50533          	mul	a0,a0,a5
    80004b72:	95b6                	add	a1,a1,a3
    80004b74:	95ba                	add	a1,a1,a4
    80004b76:	02060613          	addi	a2,a2,32
    80004b7a:	00a58433          	add	s0,a1,a0
    80004b7e:	fdd615e3          	bne	a2,t4,80004b48 <main+0x29f0>
    80004b82:	4681                	li	a3,0
    80004b84:	4a01                	li	s4,0
    80004b86:	1c8db023          	sd	s0,448(s11)
    80004b8a:	64e2                	ld	s1,24(sp)
    80004b8c:	2004b503          	ld	a0,512(s1)
    80004b90:	00083583          	ld	a1,0(a6)
    80004b94:	0000b603          	ld	a2,0(ra)
    80004b98:	0080b703          	ld	a4,8(ra)
    80004b9c:	0100b783          	ld	a5,16(ra)
    80004ba0:	0180b403          	ld	s0,24(ra)
    80004ba4:	0200b283          	ld	t0,32(ra)
    80004ba8:	0280b383          	ld	t2,40(ra)
    80004bac:	0300b903          	ld	s2,48(ra)
    80004bb0:	0380b983          	ld	s3,56(ra)
    80004bb4:	0000000b          	.insn	4, 0x000b
    80004bb8:	f02a                	sd	a0,32(sp)
    80004bba:	f42e                	sd	a1,40(sp)
    80004bbc:	f82e                	sd	a1,48(sp)
    80004bbe:	fc2e                	sd	a1,56(sp)
    80004bc0:	e0ae                	sd	a1,64(sp)
    80004bc2:	e4ae                	sd	a1,72(sp)
    80004bc4:	e8ae                	sd	a1,80(sp)
    80004bc6:	ecae                	sd	a1,88(sp)
    80004bc8:	20048e13          	addi	t3,s1,512
    80004bcc:	4505                	li	a0,1
    80004bce:	f0aa                	sd	a0,96(sp)
    80004bd0:	f4b2                	sd	a2,104(sp)
    80004bd2:	f8ba                	sd	a4,112(sp)
    80004bd4:	fcbe                	sd	a5,120(sp)
    80004bd6:	e122                	sd	s0,128(sp)
    80004bd8:	e516                	sd	t0,136(sp)
    80004bda:	e91e                	sd	t2,144(sp)
    80004bdc:	ed4a                	sd	s2,152(sp)
    80004bde:	f14e                	sd	s3,160(sp)
    80004be0:	10b0                	addi	a2,sp,104
    80004be2:	fc063503          	ld	a0,-64(a2)
    80004be6:	620c                	ld	a1,0(a2)
    80004be8:	fc863703          	ld	a4,-56(a2)
    80004bec:	661c                	ld	a5,8(a2)
    80004bee:	02a58533          	mul	a0,a1,a0
    80004bf2:	02e785b3          	mul	a1,a5,a4
    80004bf6:	fd063703          	ld	a4,-48(a2)
    80004bfa:	6a1c                	ld	a5,16(a2)
    80004bfc:	0046c413          	xori	s0,a3,4
    80004c00:	040e                	slli	s0,s0,0x3
    80004c02:	941a                	add	s0,s0,t1
    80004c04:	6000                	ld	s0,0(s0)
    80004c06:	6e04                	ld	s1,24(a2)
    80004c08:	02e78733          	mul	a4,a5,a4
    80004c0c:	028487b3          	mul	a5,s1,s0
    80004c10:	9552                	add	a0,a0,s4
    80004c12:	952e                	add	a0,a0,a1
    80004c14:	953a                	add	a0,a0,a4
    80004c16:	00f50a33          	add	s4,a0,a5
    80004c1a:	0691                	addi	a3,a3,4
    80004c1c:	02060613          	addi	a2,a2,32
    80004c20:	fd6691e3          	bne	a3,s6,80004be2 <main+0x2a8a>
    80004c24:	4401                	li	s0,0
    80004c26:	4c01                	li	s8,0
    80004c28:	1d4db423          	sd	s4,456(s11)
    80004c2c:	000e3503          	ld	a0,0(t3)
    80004c30:	00083583          	ld	a1,0(a6)
    80004c34:	0000b603          	ld	a2,0(ra)
    80004c38:	0080b703          	ld	a4,8(ra)
    80004c3c:	0100b783          	ld	a5,16(ra)
    80004c40:	0180b483          	ld	s1,24(ra)
    80004c44:	0200b283          	ld	t0,32(ra)
    80004c48:	0280b383          	ld	t2,40(ra)
    80004c4c:	0300b903          	ld	s2,48(ra)
    80004c50:	0380b983          	ld	s3,56(ra)
    80004c54:	0000000b          	.insn	4, 0x000b
    80004c58:	f02a                	sd	a0,32(sp)
    80004c5a:	f42a                	sd	a0,40(sp)
    80004c5c:	f82e                	sd	a1,48(sp)
    80004c5e:	fc2e                	sd	a1,56(sp)
    80004c60:	e0ae                	sd	a1,64(sp)
    80004c62:	e4ae                	sd	a1,72(sp)
    80004c64:	e8ae                	sd	a1,80(sp)
    80004c66:	ecae                	sd	a1,88(sp)
    80004c68:	4509                	li	a0,2
    80004c6a:	f0aa                	sd	a0,96(sp)
    80004c6c:	f4b2                	sd	a2,104(sp)
    80004c6e:	f8ba                	sd	a4,112(sp)
    80004c70:	fcbe                	sd	a5,120(sp)
    80004c72:	e126                	sd	s1,128(sp)
    80004c74:	e516                	sd	t0,136(sp)
    80004c76:	e91e                	sd	t2,144(sp)
    80004c78:	ed4a                	sd	s2,152(sp)
    80004c7a:	f14e                	sd	s3,160(sp)
    80004c7c:	867e                	mv	a2,t6
    80004c7e:	00a4                	addi	s1,sp,72
    80004c80:	fb063503          	ld	a0,-80(a2)
    80004c84:	fe863583          	ld	a1,-24(a2)
    80004c88:	fb863703          	ld	a4,-72(a2)
    80004c8c:	ff063783          	ld	a5,-16(a2)
    80004c90:	02a582b3          	mul	t0,a1,a0
    80004c94:	02e785b3          	mul	a1,a5,a4
    80004c98:	00444713          	xori	a4,s0,4
    80004c9c:	070e                	slli	a4,a4,0x3
    80004c9e:	971a                	add	a4,a4,t1
    80004ca0:	6318                	ld	a4,0(a4)
    80004ca2:	ff863783          	ld	a5,-8(a2)
    80004ca6:	6094                	ld	a3,0(s1)
    80004ca8:	6208                	ld	a0,0(a2)
    80004caa:	02e78733          	mul	a4,a5,a4
    80004cae:	02d50533          	mul	a0,a0,a3
    80004cb2:	018286b3          	add	a3,t0,s8
    80004cb6:	95b6                	add	a1,a1,a3
    80004cb8:	95ba                	add	a1,a1,a4
    80004cba:	00a58c33          	add	s8,a1,a0
    80004cbe:	0411                	addi	s0,s0,4
    80004cc0:	1481                	addi	s1,s1,-32
    80004cc2:	02060613          	addi	a2,a2,32
    80004cc6:	fb641de3          	bne	s0,s6,80004c80 <main+0x2b28>
    80004cca:	4481                	li	s1,0
    80004ccc:	4a01                	li	s4,0
    80004cce:	1d8db823          	sd	s8,464(s11)
    80004cd2:	000e3503          	ld	a0,0(t3)
    80004cd6:	00083583          	ld	a1,0(a6)
    80004cda:	0000b603          	ld	a2,0(ra)
    80004cde:	0080b683          	ld	a3,8(ra)
    80004ce2:	0100b703          	ld	a4,16(ra)
    80004ce6:	0180b783          	ld	a5,24(ra)
    80004cea:	0200b283          	ld	t0,32(ra)
    80004cee:	0280b383          	ld	t2,40(ra)
    80004cf2:	0300b903          	ld	s2,48(ra)
    80004cf6:	0380b983          	ld	s3,56(ra)
    80004cfa:	0000000b          	.insn	4, 0x000b
    80004cfe:	f02a                	sd	a0,32(sp)
    80004d00:	f42a                	sd	a0,40(sp)
    80004d02:	f82a                	sd	a0,48(sp)
    80004d04:	fc2e                	sd	a1,56(sp)
    80004d06:	e0ae                	sd	a1,64(sp)
    80004d08:	e4ae                	sd	a1,72(sp)
    80004d0a:	e8ae                	sd	a1,80(sp)
    80004d0c:	ecae                	sd	a1,88(sp)
    80004d0e:	450d                	li	a0,3
    80004d10:	f0aa                	sd	a0,96(sp)
    80004d12:	f4b2                	sd	a2,104(sp)
    80004d14:	f8b6                	sd	a3,112(sp)
    80004d16:	fcba                	sd	a4,120(sp)
    80004d18:	e13e                	sd	a5,128(sp)
    80004d1a:	e516                	sd	t0,136(sp)
    80004d1c:	e91e                	sd	t2,144(sp)
    80004d1e:	ed4a                	sd	s2,152(sp)
    80004d20:	f14e                	sd	s3,160(sp)
    80004d22:	fc000693          	li	a3,-64
    80004d26:	8656                	mv	a2,s5
    80004d28:	00da8533          	add	a0,s5,a3
    80004d2c:	750c                	ld	a1,40(a0)
    80004d2e:	6d38                	ld	a4,88(a0)
    80004d30:	0044c793          	xori	a5,s1,4
    80004d34:	078e                	slli	a5,a5,0x3
    80004d36:	979a                	add	a5,a5,t1
    80004d38:	639c                	ld	a5,0(a5)
    80004d3a:	7120                	ld	s0,96(a0)
    80004d3c:	02b702b3          	mul	t0,a4,a1
    80004d40:	02f40733          	mul	a4,s0,a5
    80004d44:	ff863783          	ld	a5,-8(a2)
    80004d48:	7520                	ld	s0,104(a0)
    80004d4a:	620c                	ld	a1,0(a2)
    80004d4c:	7928                	ld	a0,112(a0)
    80004d4e:	02f407b3          	mul	a5,s0,a5
    80004d52:	02b50533          	mul	a0,a0,a1
    80004d56:	014285b3          	add	a1,t0,s4
    80004d5a:	95ba                	add	a1,a1,a4
    80004d5c:	95be                	add	a1,a1,a5
    80004d5e:	00a58a33          	add	s4,a1,a0
    80004d62:	0491                	addi	s1,s1,4
    80004d64:	02068693          	addi	a3,a3,32
    80004d68:	1601                	addi	a2,a2,-32
    80004d6a:	fedd                	bnez	a3,80004d28 <main+0x2bd0>
    80004d6c:	4981                	li	s3,0
    80004d6e:	1d4dbc23          	sd	s4,472(s11)
    80004d72:	000e3503          	ld	a0,0(t3)
    80004d76:	00083583          	ld	a1,0(a6)
    80004d7a:	0000b603          	ld	a2,0(ra)
    80004d7e:	0080b683          	ld	a3,8(ra)
    80004d82:	0100b703          	ld	a4,16(ra)
    80004d86:	0180b783          	ld	a5,24(ra)
    80004d8a:	0200b403          	ld	s0,32(ra)
    80004d8e:	0280b283          	ld	t0,40(ra)
    80004d92:	0300b383          	ld	t2,48(ra)
    80004d96:	0380b903          	ld	s2,56(ra)
    80004d9a:	0000000b          	.insn	4, 0x000b
    80004d9e:	f02a                	sd	a0,32(sp)
    80004da0:	f42a                	sd	a0,40(sp)
    80004da2:	f82a                	sd	a0,48(sp)
    80004da4:	fc2a                	sd	a0,56(sp)
    80004da6:	e0ae                	sd	a1,64(sp)
    80004da8:	e4ae                	sd	a1,72(sp)
    80004daa:	e8ae                	sd	a1,80(sp)
    80004dac:	ecae                	sd	a1,88(sp)
    80004dae:	4511                	li	a0,4
    80004db0:	f0aa                	sd	a0,96(sp)
    80004db2:	f4b2                	sd	a2,104(sp)
    80004db4:	f8b6                	sd	a3,112(sp)
    80004db6:	fcba                	sd	a4,120(sp)
    80004db8:	e13e                	sd	a5,128(sp)
    80004dba:	e522                	sd	s0,136(sp)
    80004dbc:	e916                	sd	t0,144(sp)
    80004dbe:	ed1e                	sd	t2,152(sp)
    80004dc0:	f14a                	sd	s2,160(sp)
    80004dc2:	02000613          	li	a2,32
    80004dc6:	86fe                	mv	a3,t6
    80004dc8:	00cf8533          	add	a0,t6,a2
    80004dcc:	fa053583          	ld	a1,-96(a0)
    80004dd0:	fe86b703          	ld	a4,-24(a3)
    80004dd4:	fa853783          	ld	a5,-88(a0)
    80004dd8:	ff06b403          	ld	s0,-16(a3)
    80004ddc:	02b705b3          	mul	a1,a4,a1
    80004de0:	02f40733          	mul	a4,s0,a5
    80004de4:	fb053783          	ld	a5,-80(a0)
    80004de8:	ff86b403          	ld	s0,-8(a3)
    80004dec:	fb853503          	ld	a0,-72(a0)
    80004df0:	6284                	ld	s1,0(a3)
    80004df2:	02f407b3          	mul	a5,s0,a5
    80004df6:	02a48533          	mul	a0,s1,a0
    80004dfa:	95ce                	add	a1,a1,s3
    80004dfc:	95ba                	add	a1,a1,a4
    80004dfe:	95be                	add	a1,a1,a5
    80004e00:	00a589b3          	add	s3,a1,a0
    80004e04:	1601                	addi	a2,a2,-32
    80004e06:	02068693          	addi	a3,a3,32
    80004e0a:	fb761fe3          	bne	a2,s7,80004dc8 <main+0x2c70>
    80004e0e:	4a01                	li	s4,0
    80004e10:	1f3db023          	sd	s3,480(s11)
    80004e14:	000e3503          	ld	a0,0(t3)
    80004e18:	00083583          	ld	a1,0(a6)
    80004e1c:	0000b603          	ld	a2,0(ra)
    80004e20:	0080b703          	ld	a4,8(ra)
    80004e24:	0100b783          	ld	a5,16(ra)
    80004e28:	0180b483          	ld	s1,24(ra)
    80004e2c:	0200b403          	ld	s0,32(ra)
    80004e30:	0280b283          	ld	t0,40(ra)
    80004e34:	0300b383          	ld	t2,48(ra)
    80004e38:	0380b903          	ld	s2,56(ra)
    80004e3c:	0000000b          	.insn	4, 0x000b
    80004e40:	f02a                	sd	a0,32(sp)
    80004e42:	f42a                	sd	a0,40(sp)
    80004e44:	f82a                	sd	a0,48(sp)
    80004e46:	fc2a                	sd	a0,56(sp)
    80004e48:	e0aa                	sd	a0,64(sp)
    80004e4a:	e4ae                	sd	a1,72(sp)
    80004e4c:	e8ae                	sd	a1,80(sp)
    80004e4e:	ecae                	sd	a1,88(sp)
    80004e50:	4515                	li	a0,5
    80004e52:	f0aa                	sd	a0,96(sp)
    80004e54:	f4b2                	sd	a2,104(sp)
    80004e56:	f8ba                	sd	a4,112(sp)
    80004e58:	fcbe                	sd	a5,120(sp)
    80004e5a:	e126                	sd	s1,128(sp)
    80004e5c:	e522                	sd	s0,136(sp)
    80004e5e:	e916                	sd	t0,144(sp)
    80004e60:	ed1e                	sd	t2,152(sp)
    80004e62:	f14a                	sd	s2,160(sp)
    80004e64:	02800613          	li	a2,40
    80004e68:	06000413          	li	s0,96
    80004e6c:	00c30533          	add	a0,t1,a2
    80004e70:	610c                	ld	a1,0(a0)
    80004e72:	00830733          	add	a4,t1,s0
    80004e76:	fe873783          	ld	a5,-24(a4)
    80004e7a:	6504                	ld	s1,8(a0)
    80004e7c:	ff073683          	ld	a3,-16(a4)
    80004e80:	02b785b3          	mul	a1,a5,a1
    80004e84:	029686b3          	mul	a3,a3,s1
    80004e88:	6908                	ld	a0,16(a0)
    80004e8a:	ff873783          	ld	a5,-8(a4)
    80004e8e:	fa073483          	ld	s1,-96(a4)
    80004e92:	6318                	ld	a4,0(a4)
    80004e94:	02a78533          	mul	a0,a5,a0
    80004e98:	02970733          	mul	a4,a4,s1
    80004e9c:	95d2                	add	a1,a1,s4
    80004e9e:	95b6                	add	a1,a1,a3
    80004ea0:	952e                	add	a0,a0,a1
    80004ea2:	00e50a33          	add	s4,a0,a4
    80004ea6:	1601                	addi	a2,a2,-32
    80004ea8:	02040413          	addi	s0,s0,32
    80004eac:	fda610e3          	bne	a2,s10,80004e6c <main+0x2d14>
    80004eb0:	4981                	li	s3,0
    80004eb2:	1f4db423          	sd	s4,488(s11)
    80004eb6:	000e3503          	ld	a0,0(t3)
    80004eba:	00083583          	ld	a1,0(a6)
    80004ebe:	0000b603          	ld	a2,0(ra)
    80004ec2:	0080b683          	ld	a3,8(ra)
    80004ec6:	0100b703          	ld	a4,16(ra)
    80004eca:	0180b783          	ld	a5,24(ra)
    80004ece:	0200b483          	ld	s1,32(ra)
    80004ed2:	0280b283          	ld	t0,40(ra)
    80004ed6:	0300b383          	ld	t2,48(ra)
    80004eda:	0380b903          	ld	s2,56(ra)
    80004ede:	0000000b          	.insn	4, 0x000b
    80004ee2:	f02a                	sd	a0,32(sp)
    80004ee4:	f42a                	sd	a0,40(sp)
    80004ee6:	f82a                	sd	a0,48(sp)
    80004ee8:	fc2a                	sd	a0,56(sp)
    80004eea:	e0aa                	sd	a0,64(sp)
    80004eec:	e4aa                	sd	a0,72(sp)
    80004eee:	e8ae                	sd	a1,80(sp)
    80004ef0:	ecae                	sd	a1,88(sp)
    80004ef2:	4519                	li	a0,6
    80004ef4:	f0aa                	sd	a0,96(sp)
    80004ef6:	f4b2                	sd	a2,104(sp)
    80004ef8:	f8b6                	sd	a3,112(sp)
    80004efa:	fcba                	sd	a4,120(sp)
    80004efc:	e13e                	sd	a5,128(sp)
    80004efe:	e526                	sd	s1,136(sp)
    80004f00:	e916                	sd	t0,144(sp)
    80004f02:	ed1e                	sd	t2,152(sp)
    80004f04:	f14a                	sd	s2,160(sp)
    80004f06:	fc000613          	li	a2,-64
    80004f0a:	86fa                	mv	a3,t5
    80004f0c:	ff86b503          	ld	a0,-8(a3)
    80004f10:	00ca85b3          	add	a1,s5,a2
    80004f14:	6db8                	ld	a4,88(a1)
    80004f16:	629c                	ld	a5,0(a3)
    80004f18:	71a4                	ld	s1,96(a1)
    80004f1a:	02a70533          	mul	a0,a4,a0
    80004f1e:	02f48733          	mul	a4,s1,a5
    80004f22:	699c                	ld	a5,16(a1)
    80004f24:	75a4                	ld	s1,104(a1)
    80004f26:	6d80                	ld	s0,24(a1)
    80004f28:	79ac                	ld	a1,112(a1)
    80004f2a:	02f487b3          	mul	a5,s1,a5
    80004f2e:	028585b3          	mul	a1,a1,s0
    80004f32:	954e                	add	a0,a0,s3
    80004f34:	953a                	add	a0,a0,a4
    80004f36:	953e                	add	a0,a0,a5
    80004f38:	00b509b3          	add	s3,a0,a1
    80004f3c:	02060613          	addi	a2,a2,32
    80004f40:	1681                	addi	a3,a3,-32
    80004f42:	f669                	bnez	a2,80004f0c <main+0x2db4>
    80004f44:	4901                	li	s2,0
    80004f46:	1f3db823          	sd	s3,496(s11)
    80004f4a:	000e3503          	ld	a0,0(t3)
    80004f4e:	00083583          	ld	a1,0(a6)
    80004f52:	0000b603          	ld	a2,0(ra)
    80004f56:	0080b703          	ld	a4,8(ra)
    80004f5a:	0100b783          	ld	a5,16(ra)
    80004f5e:	0180b483          	ld	s1,24(ra)
    80004f62:	0200b403          	ld	s0,32(ra)
    80004f66:	0280b803          	ld	a6,40(ra)
    80004f6a:	0300b283          	ld	t0,48(ra)
    80004f6e:	0380b383          	ld	t2,56(ra)
    80004f72:	0000000b          	.insn	4, 0x000b
    80004f76:	f02a                	sd	a0,32(sp)
    80004f78:	f42a                	sd	a0,40(sp)
    80004f7a:	f82a                	sd	a0,48(sp)
    80004f7c:	fc2a                	sd	a0,56(sp)
    80004f7e:	e0aa                	sd	a0,64(sp)
    80004f80:	e4aa                	sd	a0,72(sp)
    80004f82:	e8aa                	sd	a0,80(sp)
    80004f84:	ecae                	sd	a1,88(sp)
    80004f86:	451d                	li	a0,7
    80004f88:	f0aa                	sd	a0,96(sp)
    80004f8a:	f4b2                	sd	a2,104(sp)
    80004f8c:	f8ba                	sd	a4,112(sp)
    80004f8e:	fcbe                	sd	a5,120(sp)
    80004f90:	e126                	sd	s1,128(sp)
    80004f92:	e522                	sd	s0,136(sp)
    80004f94:	e942                	sd	a6,144(sp)
    80004f96:	ed16                	sd	t0,152(sp)
    80004f98:	f11e                	sd	t2,160(sp)
    80004f9a:	03800613          	li	a2,56
    80004f9e:	06000493          	li	s1,96
    80004fa2:	00c30533          	add	a0,t1,a2
    80004fa6:	6108                	ld	a0,0(a0)
    80004fa8:	009305b3          	add	a1,t1,s1
    80004fac:	fe85b703          	ld	a4,-24(a1)
    80004fb0:	fa05b783          	ld	a5,-96(a1)
    80004fb4:	ff05b403          	ld	s0,-16(a1)
    80004fb8:	02a70533          	mul	a0,a4,a0
    80004fbc:	02f40733          	mul	a4,s0,a5
    80004fc0:	fa85b783          	ld	a5,-88(a1)
    80004fc4:	ff85b403          	ld	s0,-8(a1)
    80004fc8:	fb05b683          	ld	a3,-80(a1)
    80004fcc:	618c                	ld	a1,0(a1)
    80004fce:	02f407b3          	mul	a5,s0,a5
    80004fd2:	02d585b3          	mul	a1,a1,a3
    80004fd6:	954a                	add	a0,a0,s2
    80004fd8:	953a                	add	a0,a0,a4
    80004fda:	953e                	add	a0,a0,a5
    80004fdc:	00b50933          	add	s2,a0,a1
    80004fe0:	1601                	addi	a2,a2,-32
    80004fe2:	02048493          	addi	s1,s1,32
    80004fe6:	fb161ee3          	bne	a2,a7,80004fa2 <main+0x2e4a>
    80004fea:	4401                	li	s0,0
    80004fec:	1f2dbc23          	sd	s2,504(s11)
    80004ff0:	000e3503          	ld	a0,0(t3)
    80004ff4:	0000b583          	ld	a1,0(ra)
    80004ff8:	0080b603          	ld	a2,8(ra)
    80004ffc:	0100b683          	ld	a3,16(ra)
    80005000:	0180b703          	ld	a4,24(ra)
    80005004:	0200b783          	ld	a5,32(ra)
    80005008:	0280b483          	ld	s1,40(ra)
    8000500c:	0300b803          	ld	a6,48(ra)
    80005010:	0380b283          	ld	t0,56(ra)
    80005014:	0000000b          	.insn	4, 0x000b
    80005018:	f02a                	sd	a0,32(sp)
    8000501a:	f42a                	sd	a0,40(sp)
    8000501c:	f82a                	sd	a0,48(sp)
    8000501e:	fc2a                	sd	a0,56(sp)
    80005020:	e0aa                	sd	a0,64(sp)
    80005022:	e4aa                	sd	a0,72(sp)
    80005024:	e8aa                	sd	a0,80(sp)
    80005026:	ecaa                	sd	a0,88(sp)
    80005028:	f082                	sd	zero,96(sp)
    8000502a:	f4ae                	sd	a1,104(sp)
    8000502c:	f8b2                	sd	a2,112(sp)
    8000502e:	fcb6                	sd	a3,120(sp)
    80005030:	e13a                	sd	a4,128(sp)
    80005032:	e53e                	sd	a5,136(sp)
    80005034:	e926                	sd	s1,144(sp)
    80005036:	ed42                	sd	a6,152(sp)
    80005038:	f116                	sd	t0,160(sp)
    8000503a:	4641                	li	a2,16
    8000503c:	00c30533          	add	a0,t1,a2
    80005040:	ff053583          	ld	a1,-16(a0)
    80005044:	7d14                	ld	a3,56(a0)
    80005046:	02b685b3          	mul	a1,a3,a1
    8000504a:	ff853683          	ld	a3,-8(a0)
    8000504e:	6138                	ld	a4,64(a0)
    80005050:	611c                	ld	a5,0(a0)
    80005052:	6524                	ld	s1,72(a0)
    80005054:	02d706b3          	mul	a3,a4,a3
    80005058:	02f48733          	mul	a4,s1,a5
    8000505c:	651c                	ld	a5,8(a0)
    8000505e:	6928                	ld	a0,80(a0)
    80005060:	95a2                	add	a1,a1,s0
    80005062:	02f50533          	mul	a0,a0,a5
    80005066:	95b6                	add	a1,a1,a3
    80005068:	95ba                	add	a1,a1,a4
    8000506a:	02060613          	addi	a2,a2,32
    8000506e:	00a58433          	add	s0,a1,a0
    80005072:	fdd615e3          	bne	a2,t4,8000503c <main+0x2ee4>
    80005076:	4681                	li	a3,0
    80005078:	4a01                	li	s4,0
    8000507a:	208db023          	sd	s0,512(s11)
    8000507e:	64e2                	ld	s1,24(sp)
    80005080:	2404b503          	ld	a0,576(s1)
    80005084:	000e3583          	ld	a1,0(t3)
    80005088:	0000b603          	ld	a2,0(ra)
    8000508c:	0080b703          	ld	a4,8(ra)
    80005090:	0100b783          	ld	a5,16(ra)
    80005094:	0180b403          	ld	s0,24(ra)
    80005098:	0200b283          	ld	t0,32(ra)
    8000509c:	0280b383          	ld	t2,40(ra)
    800050a0:	0300b903          	ld	s2,48(ra)
    800050a4:	0380b983          	ld	s3,56(ra)
    800050a8:	0000000b          	.insn	4, 0x000b
    800050ac:	f02a                	sd	a0,32(sp)
    800050ae:	f42e                	sd	a1,40(sp)
    800050b0:	f82e                	sd	a1,48(sp)
    800050b2:	fc2e                	sd	a1,56(sp)
    800050b4:	e0ae                	sd	a1,64(sp)
    800050b6:	e4ae                	sd	a1,72(sp)
    800050b8:	e8ae                	sd	a1,80(sp)
    800050ba:	ecae                	sd	a1,88(sp)
    800050bc:	24048813          	addi	a6,s1,576
    800050c0:	4505                	li	a0,1
    800050c2:	f0aa                	sd	a0,96(sp)
    800050c4:	f4b2                	sd	a2,104(sp)
    800050c6:	f8ba                	sd	a4,112(sp)
    800050c8:	fcbe                	sd	a5,120(sp)
    800050ca:	e122                	sd	s0,128(sp)
    800050cc:	e516                	sd	t0,136(sp)
    800050ce:	e91e                	sd	t2,144(sp)
    800050d0:	ed4a                	sd	s2,152(sp)
    800050d2:	f14e                	sd	s3,160(sp)
    800050d4:	10b0                	addi	a2,sp,104
    800050d6:	fc063503          	ld	a0,-64(a2)
    800050da:	620c                	ld	a1,0(a2)
    800050dc:	fc863703          	ld	a4,-56(a2)
    800050e0:	661c                	ld	a5,8(a2)
    800050e2:	02a58533          	mul	a0,a1,a0
    800050e6:	02e785b3          	mul	a1,a5,a4
    800050ea:	fd063703          	ld	a4,-48(a2)
    800050ee:	6a1c                	ld	a5,16(a2)
    800050f0:	0046c413          	xori	s0,a3,4
    800050f4:	040e                	slli	s0,s0,0x3
    800050f6:	941a                	add	s0,s0,t1
    800050f8:	6000                	ld	s0,0(s0)
    800050fa:	6e04                	ld	s1,24(a2)
    800050fc:	02e78733          	mul	a4,a5,a4
    80005100:	028487b3          	mul	a5,s1,s0
    80005104:	9552                	add	a0,a0,s4
    80005106:	952e                	add	a0,a0,a1
    80005108:	953a                	add	a0,a0,a4
    8000510a:	00f50a33          	add	s4,a0,a5
    8000510e:	0691                	addi	a3,a3,4
    80005110:	02060613          	addi	a2,a2,32
    80005114:	fd6691e3          	bne	a3,s6,800050d6 <main+0x2f7e>
    80005118:	4401                	li	s0,0
    8000511a:	4c01                	li	s8,0
    8000511c:	214db423          	sd	s4,520(s11)
    80005120:	00083503          	ld	a0,0(a6)
    80005124:	000e3583          	ld	a1,0(t3)
    80005128:	0000b603          	ld	a2,0(ra)
    8000512c:	0080b703          	ld	a4,8(ra)
    80005130:	0100b783          	ld	a5,16(ra)
    80005134:	0180b483          	ld	s1,24(ra)
    80005138:	0200b283          	ld	t0,32(ra)
    8000513c:	0280b383          	ld	t2,40(ra)
    80005140:	0300b903          	ld	s2,48(ra)
    80005144:	0380b983          	ld	s3,56(ra)
    80005148:	0000000b          	.insn	4, 0x000b
    8000514c:	f02a                	sd	a0,32(sp)
    8000514e:	f42a                	sd	a0,40(sp)
    80005150:	f82e                	sd	a1,48(sp)
    80005152:	fc2e                	sd	a1,56(sp)
    80005154:	e0ae                	sd	a1,64(sp)
    80005156:	e4ae                	sd	a1,72(sp)
    80005158:	e8ae                	sd	a1,80(sp)
    8000515a:	ecae                	sd	a1,88(sp)
    8000515c:	4509                	li	a0,2
    8000515e:	f0aa                	sd	a0,96(sp)
    80005160:	f4b2                	sd	a2,104(sp)
    80005162:	f8ba                	sd	a4,112(sp)
    80005164:	fcbe                	sd	a5,120(sp)
    80005166:	e126                	sd	s1,128(sp)
    80005168:	e516                	sd	t0,136(sp)
    8000516a:	e91e                	sd	t2,144(sp)
    8000516c:	ed4a                	sd	s2,152(sp)
    8000516e:	f14e                	sd	s3,160(sp)
    80005170:	867e                	mv	a2,t6
    80005172:	00a4                	addi	s1,sp,72
    80005174:	fb063503          	ld	a0,-80(a2)
    80005178:	fe863583          	ld	a1,-24(a2)
    8000517c:	fb863703          	ld	a4,-72(a2)
    80005180:	ff063783          	ld	a5,-16(a2)
    80005184:	02a582b3          	mul	t0,a1,a0
    80005188:	02e785b3          	mul	a1,a5,a4
    8000518c:	00444713          	xori	a4,s0,4
    80005190:	070e                	slli	a4,a4,0x3
    80005192:	971a                	add	a4,a4,t1
    80005194:	6318                	ld	a4,0(a4)
    80005196:	ff863783          	ld	a5,-8(a2)
    8000519a:	6094                	ld	a3,0(s1)
    8000519c:	6208                	ld	a0,0(a2)
    8000519e:	02e78733          	mul	a4,a5,a4
    800051a2:	02d50533          	mul	a0,a0,a3
    800051a6:	018286b3          	add	a3,t0,s8
    800051aa:	95b6                	add	a1,a1,a3
    800051ac:	95ba                	add	a1,a1,a4
    800051ae:	00a58c33          	add	s8,a1,a0
    800051b2:	0411                	addi	s0,s0,4
    800051b4:	1481                	addi	s1,s1,-32
    800051b6:	02060613          	addi	a2,a2,32
    800051ba:	fb641de3          	bne	s0,s6,80005174 <main+0x301c>
    800051be:	4481                	li	s1,0
    800051c0:	4a01                	li	s4,0
    800051c2:	218db823          	sd	s8,528(s11)
    800051c6:	00083503          	ld	a0,0(a6)
    800051ca:	000e3583          	ld	a1,0(t3)
    800051ce:	0000b603          	ld	a2,0(ra)
    800051d2:	0080b683          	ld	a3,8(ra)
    800051d6:	0100b703          	ld	a4,16(ra)
    800051da:	0180b783          	ld	a5,24(ra)
    800051de:	0200b283          	ld	t0,32(ra)
    800051e2:	0280b383          	ld	t2,40(ra)
    800051e6:	0300b903          	ld	s2,48(ra)
    800051ea:	0380b983          	ld	s3,56(ra)
    800051ee:	0000000b          	.insn	4, 0x000b
    800051f2:	f02a                	sd	a0,32(sp)
    800051f4:	f42a                	sd	a0,40(sp)
    800051f6:	f82a                	sd	a0,48(sp)
    800051f8:	fc2e                	sd	a1,56(sp)
    800051fa:	e0ae                	sd	a1,64(sp)
    800051fc:	e4ae                	sd	a1,72(sp)
    800051fe:	e8ae                	sd	a1,80(sp)
    80005200:	ecae                	sd	a1,88(sp)
    80005202:	450d                	li	a0,3
    80005204:	f0aa                	sd	a0,96(sp)
    80005206:	f4b2                	sd	a2,104(sp)
    80005208:	f8b6                	sd	a3,112(sp)
    8000520a:	fcba                	sd	a4,120(sp)
    8000520c:	e13e                	sd	a5,128(sp)
    8000520e:	e516                	sd	t0,136(sp)
    80005210:	e91e                	sd	t2,144(sp)
    80005212:	ed4a                	sd	s2,152(sp)
    80005214:	f14e                	sd	s3,160(sp)
    80005216:	fc000693          	li	a3,-64
    8000521a:	8656                	mv	a2,s5
    8000521c:	00da8533          	add	a0,s5,a3
    80005220:	750c                	ld	a1,40(a0)
    80005222:	6d38                	ld	a4,88(a0)
    80005224:	0044c793          	xori	a5,s1,4
    80005228:	078e                	slli	a5,a5,0x3
    8000522a:	979a                	add	a5,a5,t1
    8000522c:	639c                	ld	a5,0(a5)
    8000522e:	7120                	ld	s0,96(a0)
    80005230:	02b702b3          	mul	t0,a4,a1
    80005234:	02f40733          	mul	a4,s0,a5
    80005238:	ff863783          	ld	a5,-8(a2)
    8000523c:	7520                	ld	s0,104(a0)
    8000523e:	620c                	ld	a1,0(a2)
    80005240:	7928                	ld	a0,112(a0)
    80005242:	02f407b3          	mul	a5,s0,a5
    80005246:	02b50533          	mul	a0,a0,a1
    8000524a:	014285b3          	add	a1,t0,s4
    8000524e:	95ba                	add	a1,a1,a4
    80005250:	95be                	add	a1,a1,a5
    80005252:	00a58a33          	add	s4,a1,a0
    80005256:	0491                	addi	s1,s1,4
    80005258:	02068693          	addi	a3,a3,32
    8000525c:	1601                	addi	a2,a2,-32
    8000525e:	fedd                	bnez	a3,8000521c <main+0x30c4>
    80005260:	4981                	li	s3,0
    80005262:	214dbc23          	sd	s4,536(s11)
    80005266:	00083503          	ld	a0,0(a6)
    8000526a:	000e3583          	ld	a1,0(t3)
    8000526e:	0000b603          	ld	a2,0(ra)
    80005272:	0080b683          	ld	a3,8(ra)
    80005276:	0100b703          	ld	a4,16(ra)
    8000527a:	0180b783          	ld	a5,24(ra)
    8000527e:	0200b403          	ld	s0,32(ra)
    80005282:	0280b283          	ld	t0,40(ra)
    80005286:	0300b383          	ld	t2,48(ra)
    8000528a:	0380b903          	ld	s2,56(ra)
    8000528e:	0000000b          	.insn	4, 0x000b
    80005292:	f02a                	sd	a0,32(sp)
    80005294:	f42a                	sd	a0,40(sp)
    80005296:	f82a                	sd	a0,48(sp)
    80005298:	fc2a                	sd	a0,56(sp)
    8000529a:	e0ae                	sd	a1,64(sp)
    8000529c:	e4ae                	sd	a1,72(sp)
    8000529e:	e8ae                	sd	a1,80(sp)
    800052a0:	ecae                	sd	a1,88(sp)
    800052a2:	4511                	li	a0,4
    800052a4:	f0aa                	sd	a0,96(sp)
    800052a6:	f4b2                	sd	a2,104(sp)
    800052a8:	f8b6                	sd	a3,112(sp)
    800052aa:	fcba                	sd	a4,120(sp)
    800052ac:	e13e                	sd	a5,128(sp)
    800052ae:	e522                	sd	s0,136(sp)
    800052b0:	e916                	sd	t0,144(sp)
    800052b2:	ed1e                	sd	t2,152(sp)
    800052b4:	f14a                	sd	s2,160(sp)
    800052b6:	02000613          	li	a2,32
    800052ba:	86fe                	mv	a3,t6
    800052bc:	00cf8533          	add	a0,t6,a2
    800052c0:	fa053583          	ld	a1,-96(a0)
    800052c4:	fe86b703          	ld	a4,-24(a3)
    800052c8:	fa853783          	ld	a5,-88(a0)
    800052cc:	ff06b403          	ld	s0,-16(a3)
    800052d0:	02b705b3          	mul	a1,a4,a1
    800052d4:	02f40733          	mul	a4,s0,a5
    800052d8:	fb053783          	ld	a5,-80(a0)
    800052dc:	ff86b403          	ld	s0,-8(a3)
    800052e0:	fb853503          	ld	a0,-72(a0)
    800052e4:	6284                	ld	s1,0(a3)
    800052e6:	02f407b3          	mul	a5,s0,a5
    800052ea:	02a48533          	mul	a0,s1,a0
    800052ee:	95ce                	add	a1,a1,s3
    800052f0:	95ba                	add	a1,a1,a4
    800052f2:	95be                	add	a1,a1,a5
    800052f4:	00a589b3          	add	s3,a1,a0
    800052f8:	1601                	addi	a2,a2,-32
    800052fa:	02068693          	addi	a3,a3,32
    800052fe:	fb761fe3          	bne	a2,s7,800052bc <main+0x3164>
    80005302:	4a01                	li	s4,0
    80005304:	233db023          	sd	s3,544(s11)
    80005308:	00083503          	ld	a0,0(a6)
    8000530c:	000e3583          	ld	a1,0(t3)
    80005310:	0000b603          	ld	a2,0(ra)
    80005314:	0080b703          	ld	a4,8(ra)
    80005318:	0100b783          	ld	a5,16(ra)
    8000531c:	0180b483          	ld	s1,24(ra)
    80005320:	0200b403          	ld	s0,32(ra)
    80005324:	0280b283          	ld	t0,40(ra)
    80005328:	0300b383          	ld	t2,48(ra)
    8000532c:	0380b903          	ld	s2,56(ra)
    80005330:	0000000b          	.insn	4, 0x000b
    80005334:	f02a                	sd	a0,32(sp)
    80005336:	f42a                	sd	a0,40(sp)
    80005338:	f82a                	sd	a0,48(sp)
    8000533a:	fc2a                	sd	a0,56(sp)
    8000533c:	e0aa                	sd	a0,64(sp)
    8000533e:	e4ae                	sd	a1,72(sp)
    80005340:	e8ae                	sd	a1,80(sp)
    80005342:	ecae                	sd	a1,88(sp)
    80005344:	4515                	li	a0,5
    80005346:	f0aa                	sd	a0,96(sp)
    80005348:	f4b2                	sd	a2,104(sp)
    8000534a:	f8ba                	sd	a4,112(sp)
    8000534c:	fcbe                	sd	a5,120(sp)
    8000534e:	e126                	sd	s1,128(sp)
    80005350:	e522                	sd	s0,136(sp)
    80005352:	e916                	sd	t0,144(sp)
    80005354:	ed1e                	sd	t2,152(sp)
    80005356:	f14a                	sd	s2,160(sp)
    80005358:	02800613          	li	a2,40
    8000535c:	06000413          	li	s0,96
    80005360:	00c30533          	add	a0,t1,a2
    80005364:	610c                	ld	a1,0(a0)
    80005366:	00830733          	add	a4,t1,s0
    8000536a:	fe873783          	ld	a5,-24(a4)
    8000536e:	6504                	ld	s1,8(a0)
    80005370:	ff073683          	ld	a3,-16(a4)
    80005374:	02b785b3          	mul	a1,a5,a1
    80005378:	029686b3          	mul	a3,a3,s1
    8000537c:	6908                	ld	a0,16(a0)
    8000537e:	ff873783          	ld	a5,-8(a4)
    80005382:	fa073483          	ld	s1,-96(a4)
    80005386:	6318                	ld	a4,0(a4)
    80005388:	02a78533          	mul	a0,a5,a0
    8000538c:	02970733          	mul	a4,a4,s1
    80005390:	95d2                	add	a1,a1,s4
    80005392:	95b6                	add	a1,a1,a3
    80005394:	952e                	add	a0,a0,a1
    80005396:	00e50a33          	add	s4,a0,a4
    8000539a:	1601                	addi	a2,a2,-32
    8000539c:	02040413          	addi	s0,s0,32
    800053a0:	fda610e3          	bne	a2,s10,80005360 <main+0x3208>
    800053a4:	4981                	li	s3,0
    800053a6:	234db423          	sd	s4,552(s11)
    800053aa:	00083503          	ld	a0,0(a6)
    800053ae:	000e3583          	ld	a1,0(t3)
    800053b2:	0000b603          	ld	a2,0(ra)
    800053b6:	0080b683          	ld	a3,8(ra)
    800053ba:	0100b703          	ld	a4,16(ra)
    800053be:	0180b783          	ld	a5,24(ra)
    800053c2:	0200b483          	ld	s1,32(ra)
    800053c6:	0280b283          	ld	t0,40(ra)
    800053ca:	0300b383          	ld	t2,48(ra)
    800053ce:	0380b903          	ld	s2,56(ra)
    800053d2:	0000000b          	.insn	4, 0x000b
    800053d6:	f02a                	sd	a0,32(sp)
    800053d8:	f42a                	sd	a0,40(sp)
    800053da:	f82a                	sd	a0,48(sp)
    800053dc:	fc2a                	sd	a0,56(sp)
    800053de:	e0aa                	sd	a0,64(sp)
    800053e0:	e4aa                	sd	a0,72(sp)
    800053e2:	e8ae                	sd	a1,80(sp)
    800053e4:	ecae                	sd	a1,88(sp)
    800053e6:	4519                	li	a0,6
    800053e8:	f0aa                	sd	a0,96(sp)
    800053ea:	f4b2                	sd	a2,104(sp)
    800053ec:	f8b6                	sd	a3,112(sp)
    800053ee:	fcba                	sd	a4,120(sp)
    800053f0:	e13e                	sd	a5,128(sp)
    800053f2:	e526                	sd	s1,136(sp)
    800053f4:	e916                	sd	t0,144(sp)
    800053f6:	ed1e                	sd	t2,152(sp)
    800053f8:	f14a                	sd	s2,160(sp)
    800053fa:	fc000613          	li	a2,-64
    800053fe:	86fa                	mv	a3,t5
    80005400:	ff86b503          	ld	a0,-8(a3)
    80005404:	00ca85b3          	add	a1,s5,a2
    80005408:	6db8                	ld	a4,88(a1)
    8000540a:	629c                	ld	a5,0(a3)
    8000540c:	71a4                	ld	s1,96(a1)
    8000540e:	02a70533          	mul	a0,a4,a0
    80005412:	02f48733          	mul	a4,s1,a5
    80005416:	699c                	ld	a5,16(a1)
    80005418:	75a4                	ld	s1,104(a1)
    8000541a:	6d80                	ld	s0,24(a1)
    8000541c:	79ac                	ld	a1,112(a1)
    8000541e:	02f487b3          	mul	a5,s1,a5
    80005422:	028585b3          	mul	a1,a1,s0
    80005426:	954e                	add	a0,a0,s3
    80005428:	953a                	add	a0,a0,a4
    8000542a:	953e                	add	a0,a0,a5
    8000542c:	00b509b3          	add	s3,a0,a1
    80005430:	02060613          	addi	a2,a2,32
    80005434:	1681                	addi	a3,a3,-32
    80005436:	f669                	bnez	a2,80005400 <main+0x32a8>
    80005438:	4901                	li	s2,0
    8000543a:	233db823          	sd	s3,560(s11)
    8000543e:	00083503          	ld	a0,0(a6)
    80005442:	000e3583          	ld	a1,0(t3)
    80005446:	0000b603          	ld	a2,0(ra)
    8000544a:	0080b703          	ld	a4,8(ra)
    8000544e:	0100b783          	ld	a5,16(ra)
    80005452:	0180b483          	ld	s1,24(ra)
    80005456:	0200b403          	ld	s0,32(ra)
    8000545a:	0280b283          	ld	t0,40(ra)
    8000545e:	0300b383          	ld	t2,48(ra)
    80005462:	0380be03          	ld	t3,56(ra)
    80005466:	0000000b          	.insn	4, 0x000b
    8000546a:	f02a                	sd	a0,32(sp)
    8000546c:	f42a                	sd	a0,40(sp)
    8000546e:	f82a                	sd	a0,48(sp)
    80005470:	fc2a                	sd	a0,56(sp)
    80005472:	e0aa                	sd	a0,64(sp)
    80005474:	e4aa                	sd	a0,72(sp)
    80005476:	e8aa                	sd	a0,80(sp)
    80005478:	ecae                	sd	a1,88(sp)
    8000547a:	451d                	li	a0,7
    8000547c:	f0aa                	sd	a0,96(sp)
    8000547e:	f4b2                	sd	a2,104(sp)
    80005480:	f8ba                	sd	a4,112(sp)
    80005482:	fcbe                	sd	a5,120(sp)
    80005484:	e126                	sd	s1,128(sp)
    80005486:	e522                	sd	s0,136(sp)
    80005488:	e916                	sd	t0,144(sp)
    8000548a:	ed1e                	sd	t2,152(sp)
    8000548c:	f172                	sd	t3,160(sp)
    8000548e:	03800613          	li	a2,56
    80005492:	06000493          	li	s1,96
    80005496:	00c30533          	add	a0,t1,a2
    8000549a:	6108                	ld	a0,0(a0)
    8000549c:	009305b3          	add	a1,t1,s1
    800054a0:	fe85b703          	ld	a4,-24(a1)
    800054a4:	fa05b783          	ld	a5,-96(a1)
    800054a8:	ff05b403          	ld	s0,-16(a1)
    800054ac:	02a70533          	mul	a0,a4,a0
    800054b0:	02f40733          	mul	a4,s0,a5
    800054b4:	fa85b783          	ld	a5,-88(a1)
    800054b8:	ff85b403          	ld	s0,-8(a1)
    800054bc:	fb05b683          	ld	a3,-80(a1)
    800054c0:	618c                	ld	a1,0(a1)
    800054c2:	02f407b3          	mul	a5,s0,a5
    800054c6:	02d585b3          	mul	a1,a1,a3
    800054ca:	954a                	add	a0,a0,s2
    800054cc:	953a                	add	a0,a0,a4
    800054ce:	953e                	add	a0,a0,a5
    800054d0:	00b50933          	add	s2,a0,a1
    800054d4:	1601                	addi	a2,a2,-32
    800054d6:	02048493          	addi	s1,s1,32
    800054da:	fb161ee3          	bne	a2,a7,80005496 <main+0x333e>
    800054de:	4401                	li	s0,0
    800054e0:	232dbc23          	sd	s2,568(s11)
    800054e4:	00083503          	ld	a0,0(a6)
    800054e8:	0000b583          	ld	a1,0(ra)
    800054ec:	0080b603          	ld	a2,8(ra)
    800054f0:	0100b683          	ld	a3,16(ra)
    800054f4:	0180b703          	ld	a4,24(ra)
    800054f8:	0200b783          	ld	a5,32(ra)
    800054fc:	0280b483          	ld	s1,40(ra)
    80005500:	0300b283          	ld	t0,48(ra)
    80005504:	0380b383          	ld	t2,56(ra)
    80005508:	0000000b          	.insn	4, 0x000b
    8000550c:	f02a                	sd	a0,32(sp)
    8000550e:	f42a                	sd	a0,40(sp)
    80005510:	f82a                	sd	a0,48(sp)
    80005512:	fc2a                	sd	a0,56(sp)
    80005514:	e0aa                	sd	a0,64(sp)
    80005516:	e4aa                	sd	a0,72(sp)
    80005518:	e8aa                	sd	a0,80(sp)
    8000551a:	ecaa                	sd	a0,88(sp)
    8000551c:	f082                	sd	zero,96(sp)
    8000551e:	f4ae                	sd	a1,104(sp)
    80005520:	f8b2                	sd	a2,112(sp)
    80005522:	fcb6                	sd	a3,120(sp)
    80005524:	e13a                	sd	a4,128(sp)
    80005526:	e53e                	sd	a5,136(sp)
    80005528:	e926                	sd	s1,144(sp)
    8000552a:	ed16                	sd	t0,152(sp)
    8000552c:	f11e                	sd	t2,160(sp)
    8000552e:	4641                	li	a2,16
    80005530:	00c30533          	add	a0,t1,a2
    80005534:	ff053583          	ld	a1,-16(a0)
    80005538:	7d14                	ld	a3,56(a0)
    8000553a:	02b685b3          	mul	a1,a3,a1
    8000553e:	ff853683          	ld	a3,-8(a0)
    80005542:	6138                	ld	a4,64(a0)
    80005544:	611c                	ld	a5,0(a0)
    80005546:	6524                	ld	s1,72(a0)
    80005548:	02d706b3          	mul	a3,a4,a3
    8000554c:	02f48733          	mul	a4,s1,a5
    80005550:	651c                	ld	a5,8(a0)
    80005552:	6928                	ld	a0,80(a0)
    80005554:	95a2                	add	a1,a1,s0
    80005556:	02f50533          	mul	a0,a0,a5
    8000555a:	95b6                	add	a1,a1,a3
    8000555c:	95ba                	add	a1,a1,a4
    8000555e:	02060613          	addi	a2,a2,32
    80005562:	00a58433          	add	s0,a1,a0
    80005566:	fdd615e3          	bne	a2,t4,80005530 <main+0x33d8>
    8000556a:	4681                	li	a3,0
    8000556c:	4a01                	li	s4,0
    8000556e:	248db023          	sd	s0,576(s11)
    80005572:	64e2                	ld	s1,24(sp)
    80005574:	2804b503          	ld	a0,640(s1)
    80005578:	00083583          	ld	a1,0(a6)
    8000557c:	0000b603          	ld	a2,0(ra)
    80005580:	0080b703          	ld	a4,8(ra)
    80005584:	0100b783          	ld	a5,16(ra)
    80005588:	0180b403          	ld	s0,24(ra)
    8000558c:	0200b283          	ld	t0,32(ra)
    80005590:	0280b383          	ld	t2,40(ra)
    80005594:	0300b903          	ld	s2,48(ra)
    80005598:	0380b983          	ld	s3,56(ra)
    8000559c:	0000000b          	.insn	4, 0x000b
    800055a0:	f02a                	sd	a0,32(sp)
    800055a2:	f42e                	sd	a1,40(sp)
    800055a4:	f82e                	sd	a1,48(sp)
    800055a6:	fc2e                	sd	a1,56(sp)
    800055a8:	e0ae                	sd	a1,64(sp)
    800055aa:	e4ae                	sd	a1,72(sp)
    800055ac:	e8ae                	sd	a1,80(sp)
    800055ae:	ecae                	sd	a1,88(sp)
    800055b0:	28048e13          	addi	t3,s1,640
    800055b4:	4505                	li	a0,1
    800055b6:	f0aa                	sd	a0,96(sp)
    800055b8:	f4b2                	sd	a2,104(sp)
    800055ba:	f8ba                	sd	a4,112(sp)
    800055bc:	fcbe                	sd	a5,120(sp)
    800055be:	e122                	sd	s0,128(sp)
    800055c0:	e516                	sd	t0,136(sp)
    800055c2:	e91e                	sd	t2,144(sp)
    800055c4:	ed4a                	sd	s2,152(sp)
    800055c6:	f14e                	sd	s3,160(sp)
    800055c8:	10b0                	addi	a2,sp,104
    800055ca:	fc063503          	ld	a0,-64(a2)
    800055ce:	620c                	ld	a1,0(a2)
    800055d0:	fc863703          	ld	a4,-56(a2)
    800055d4:	661c                	ld	a5,8(a2)
    800055d6:	02a58533          	mul	a0,a1,a0
    800055da:	02e785b3          	mul	a1,a5,a4
    800055de:	fd063703          	ld	a4,-48(a2)
    800055e2:	6a1c                	ld	a5,16(a2)
    800055e4:	0046c413          	xori	s0,a3,4
    800055e8:	040e                	slli	s0,s0,0x3
    800055ea:	941a                	add	s0,s0,t1
    800055ec:	6000                	ld	s0,0(s0)
    800055ee:	6e04                	ld	s1,24(a2)
    800055f0:	02e78733          	mul	a4,a5,a4
    800055f4:	028487b3          	mul	a5,s1,s0
    800055f8:	9552                	add	a0,a0,s4
    800055fa:	952e                	add	a0,a0,a1
    800055fc:	953a                	add	a0,a0,a4
    800055fe:	00f50a33          	add	s4,a0,a5
    80005602:	0691                	addi	a3,a3,4
    80005604:	02060613          	addi	a2,a2,32
    80005608:	fd6691e3          	bne	a3,s6,800055ca <main+0x3472>
    8000560c:	4401                	li	s0,0
    8000560e:	4c01                	li	s8,0
    80005610:	254db423          	sd	s4,584(s11)
    80005614:	000e3503          	ld	a0,0(t3)
    80005618:	00083583          	ld	a1,0(a6)
    8000561c:	0000b603          	ld	a2,0(ra)
    80005620:	0080b703          	ld	a4,8(ra)
    80005624:	0100b783          	ld	a5,16(ra)
    80005628:	0180b483          	ld	s1,24(ra)
    8000562c:	0200b283          	ld	t0,32(ra)
    80005630:	0280b383          	ld	t2,40(ra)
    80005634:	0300b903          	ld	s2,48(ra)
    80005638:	0380b983          	ld	s3,56(ra)
    8000563c:	0000000b          	.insn	4, 0x000b
    80005640:	f02a                	sd	a0,32(sp)
    80005642:	f42a                	sd	a0,40(sp)
    80005644:	f82e                	sd	a1,48(sp)
    80005646:	fc2e                	sd	a1,56(sp)
    80005648:	e0ae                	sd	a1,64(sp)
    8000564a:	e4ae                	sd	a1,72(sp)
    8000564c:	e8ae                	sd	a1,80(sp)
    8000564e:	ecae                	sd	a1,88(sp)
    80005650:	4509                	li	a0,2
    80005652:	f0aa                	sd	a0,96(sp)
    80005654:	f4b2                	sd	a2,104(sp)
    80005656:	f8ba                	sd	a4,112(sp)
    80005658:	fcbe                	sd	a5,120(sp)
    8000565a:	e126                	sd	s1,128(sp)
    8000565c:	e516                	sd	t0,136(sp)
    8000565e:	e91e                	sd	t2,144(sp)
    80005660:	ed4a                	sd	s2,152(sp)
    80005662:	f14e                	sd	s3,160(sp)
    80005664:	867e                	mv	a2,t6
    80005666:	00a4                	addi	s1,sp,72
    80005668:	fb063503          	ld	a0,-80(a2)
    8000566c:	fe863583          	ld	a1,-24(a2)
    80005670:	fb863703          	ld	a4,-72(a2)
    80005674:	ff063783          	ld	a5,-16(a2)
    80005678:	02a582b3          	mul	t0,a1,a0
    8000567c:	02e785b3          	mul	a1,a5,a4
    80005680:	00444713          	xori	a4,s0,4
    80005684:	070e                	slli	a4,a4,0x3
    80005686:	971a                	add	a4,a4,t1
    80005688:	6318                	ld	a4,0(a4)
    8000568a:	ff863783          	ld	a5,-8(a2)
    8000568e:	6094                	ld	a3,0(s1)
    80005690:	6208                	ld	a0,0(a2)
    80005692:	02e78733          	mul	a4,a5,a4
    80005696:	02d50533          	mul	a0,a0,a3
    8000569a:	018286b3          	add	a3,t0,s8
    8000569e:	95b6                	add	a1,a1,a3
    800056a0:	95ba                	add	a1,a1,a4
    800056a2:	00a58c33          	add	s8,a1,a0
    800056a6:	0411                	addi	s0,s0,4
    800056a8:	1481                	addi	s1,s1,-32
    800056aa:	02060613          	addi	a2,a2,32
    800056ae:	fb641de3          	bne	s0,s6,80005668 <main+0x3510>
    800056b2:	4481                	li	s1,0
    800056b4:	4a01                	li	s4,0
    800056b6:	258db823          	sd	s8,592(s11)
    800056ba:	000e3503          	ld	a0,0(t3)
    800056be:	00083583          	ld	a1,0(a6)
    800056c2:	0000b603          	ld	a2,0(ra)
    800056c6:	0080b683          	ld	a3,8(ra)
    800056ca:	0100b703          	ld	a4,16(ra)
    800056ce:	0180b783          	ld	a5,24(ra)
    800056d2:	0200b283          	ld	t0,32(ra)
    800056d6:	0280b383          	ld	t2,40(ra)
    800056da:	0300b903          	ld	s2,48(ra)
    800056de:	0380b983          	ld	s3,56(ra)
    800056e2:	0000000b          	.insn	4, 0x000b
    800056e6:	f02a                	sd	a0,32(sp)
    800056e8:	f42a                	sd	a0,40(sp)
    800056ea:	f82a                	sd	a0,48(sp)
    800056ec:	fc2e                	sd	a1,56(sp)
    800056ee:	e0ae                	sd	a1,64(sp)
    800056f0:	e4ae                	sd	a1,72(sp)
    800056f2:	e8ae                	sd	a1,80(sp)
    800056f4:	ecae                	sd	a1,88(sp)
    800056f6:	450d                	li	a0,3
    800056f8:	f0aa                	sd	a0,96(sp)
    800056fa:	f4b2                	sd	a2,104(sp)
    800056fc:	f8b6                	sd	a3,112(sp)
    800056fe:	fcba                	sd	a4,120(sp)
    80005700:	e13e                	sd	a5,128(sp)
    80005702:	e516                	sd	t0,136(sp)
    80005704:	e91e                	sd	t2,144(sp)
    80005706:	ed4a                	sd	s2,152(sp)
    80005708:	f14e                	sd	s3,160(sp)
    8000570a:	fc000693          	li	a3,-64
    8000570e:	8656                	mv	a2,s5
    80005710:	00da8533          	add	a0,s5,a3
    80005714:	750c                	ld	a1,40(a0)
    80005716:	6d38                	ld	a4,88(a0)
    80005718:	0044c793          	xori	a5,s1,4
    8000571c:	078e                	slli	a5,a5,0x3
    8000571e:	979a                	add	a5,a5,t1
    80005720:	639c                	ld	a5,0(a5)
    80005722:	7120                	ld	s0,96(a0)
    80005724:	02b702b3          	mul	t0,a4,a1
    80005728:	02f40733          	mul	a4,s0,a5
    8000572c:	ff863783          	ld	a5,-8(a2)
    80005730:	7520                	ld	s0,104(a0)
    80005732:	620c                	ld	a1,0(a2)
    80005734:	7928                	ld	a0,112(a0)
    80005736:	02f407b3          	mul	a5,s0,a5
    8000573a:	02b50533          	mul	a0,a0,a1
    8000573e:	014285b3          	add	a1,t0,s4
    80005742:	95ba                	add	a1,a1,a4
    80005744:	95be                	add	a1,a1,a5
    80005746:	00a58a33          	add	s4,a1,a0
    8000574a:	0491                	addi	s1,s1,4
    8000574c:	02068693          	addi	a3,a3,32
    80005750:	1601                	addi	a2,a2,-32
    80005752:	fedd                	bnez	a3,80005710 <main+0x35b8>
    80005754:	4981                	li	s3,0
    80005756:	254dbc23          	sd	s4,600(s11)
    8000575a:	000e3503          	ld	a0,0(t3)
    8000575e:	00083583          	ld	a1,0(a6)
    80005762:	0000b603          	ld	a2,0(ra)
    80005766:	0080b683          	ld	a3,8(ra)
    8000576a:	0100b703          	ld	a4,16(ra)
    8000576e:	0180b783          	ld	a5,24(ra)
    80005772:	0200b403          	ld	s0,32(ra)
    80005776:	0280b283          	ld	t0,40(ra)
    8000577a:	0300b383          	ld	t2,48(ra)
    8000577e:	0380b903          	ld	s2,56(ra)
    80005782:	0000000b          	.insn	4, 0x000b
    80005786:	f02a                	sd	a0,32(sp)
    80005788:	f42a                	sd	a0,40(sp)
    8000578a:	f82a                	sd	a0,48(sp)
    8000578c:	fc2a                	sd	a0,56(sp)
    8000578e:	e0ae                	sd	a1,64(sp)
    80005790:	e4ae                	sd	a1,72(sp)
    80005792:	e8ae                	sd	a1,80(sp)
    80005794:	ecae                	sd	a1,88(sp)
    80005796:	4511                	li	a0,4
    80005798:	f0aa                	sd	a0,96(sp)
    8000579a:	f4b2                	sd	a2,104(sp)
    8000579c:	f8b6                	sd	a3,112(sp)
    8000579e:	fcba                	sd	a4,120(sp)
    800057a0:	e13e                	sd	a5,128(sp)
    800057a2:	e522                	sd	s0,136(sp)
    800057a4:	e916                	sd	t0,144(sp)
    800057a6:	ed1e                	sd	t2,152(sp)
    800057a8:	f14a                	sd	s2,160(sp)
    800057aa:	02000613          	li	a2,32
    800057ae:	86fe                	mv	a3,t6
    800057b0:	00cf8533          	add	a0,t6,a2
    800057b4:	fa053583          	ld	a1,-96(a0)
    800057b8:	fe86b703          	ld	a4,-24(a3)
    800057bc:	fa853783          	ld	a5,-88(a0)
    800057c0:	ff06b403          	ld	s0,-16(a3)
    800057c4:	02b705b3          	mul	a1,a4,a1
    800057c8:	02f40733          	mul	a4,s0,a5
    800057cc:	fb053783          	ld	a5,-80(a0)
    800057d0:	ff86b403          	ld	s0,-8(a3)
    800057d4:	fb853503          	ld	a0,-72(a0)
    800057d8:	6284                	ld	s1,0(a3)
    800057da:	02f407b3          	mul	a5,s0,a5
    800057de:	02a48533          	mul	a0,s1,a0
    800057e2:	95ce                	add	a1,a1,s3
    800057e4:	95ba                	add	a1,a1,a4
    800057e6:	95be                	add	a1,a1,a5
    800057e8:	00a589b3          	add	s3,a1,a0
    800057ec:	1601                	addi	a2,a2,-32
    800057ee:	02068693          	addi	a3,a3,32
    800057f2:	fb761fe3          	bne	a2,s7,800057b0 <main+0x3658>
    800057f6:	4a01                	li	s4,0
    800057f8:	273db023          	sd	s3,608(s11)
    800057fc:	000e3503          	ld	a0,0(t3)
    80005800:	00083583          	ld	a1,0(a6)
    80005804:	0000b603          	ld	a2,0(ra)
    80005808:	0080b703          	ld	a4,8(ra)
    8000580c:	0100b783          	ld	a5,16(ra)
    80005810:	0180b483          	ld	s1,24(ra)
    80005814:	0200b403          	ld	s0,32(ra)
    80005818:	0280b283          	ld	t0,40(ra)
    8000581c:	0300b383          	ld	t2,48(ra)
    80005820:	0380b903          	ld	s2,56(ra)
    80005824:	0000000b          	.insn	4, 0x000b
    80005828:	f02a                	sd	a0,32(sp)
    8000582a:	f42a                	sd	a0,40(sp)
    8000582c:	f82a                	sd	a0,48(sp)
    8000582e:	fc2a                	sd	a0,56(sp)
    80005830:	e0aa                	sd	a0,64(sp)
    80005832:	e4ae                	sd	a1,72(sp)
    80005834:	e8ae                	sd	a1,80(sp)
    80005836:	ecae                	sd	a1,88(sp)
    80005838:	4515                	li	a0,5
    8000583a:	f0aa                	sd	a0,96(sp)
    8000583c:	f4b2                	sd	a2,104(sp)
    8000583e:	f8ba                	sd	a4,112(sp)
    80005840:	fcbe                	sd	a5,120(sp)
    80005842:	e126                	sd	s1,128(sp)
    80005844:	e522                	sd	s0,136(sp)
    80005846:	e916                	sd	t0,144(sp)
    80005848:	ed1e                	sd	t2,152(sp)
    8000584a:	f14a                	sd	s2,160(sp)
    8000584c:	02800613          	li	a2,40
    80005850:	06000413          	li	s0,96
    80005854:	00c30533          	add	a0,t1,a2
    80005858:	610c                	ld	a1,0(a0)
    8000585a:	00830733          	add	a4,t1,s0
    8000585e:	fe873783          	ld	a5,-24(a4)
    80005862:	6504                	ld	s1,8(a0)
    80005864:	ff073683          	ld	a3,-16(a4)
    80005868:	02b785b3          	mul	a1,a5,a1
    8000586c:	029686b3          	mul	a3,a3,s1
    80005870:	6908                	ld	a0,16(a0)
    80005872:	ff873783          	ld	a5,-8(a4)
    80005876:	fa073483          	ld	s1,-96(a4)
    8000587a:	6318                	ld	a4,0(a4)
    8000587c:	02a78533          	mul	a0,a5,a0
    80005880:	02970733          	mul	a4,a4,s1
    80005884:	95d2                	add	a1,a1,s4
    80005886:	95b6                	add	a1,a1,a3
    80005888:	952e                	add	a0,a0,a1
    8000588a:	00e50a33          	add	s4,a0,a4
    8000588e:	1601                	addi	a2,a2,-32
    80005890:	02040413          	addi	s0,s0,32
    80005894:	fda610e3          	bne	a2,s10,80005854 <main+0x36fc>
    80005898:	4981                	li	s3,0
    8000589a:	274db423          	sd	s4,616(s11)
    8000589e:	000e3503          	ld	a0,0(t3)
    800058a2:	00083583          	ld	a1,0(a6)
    800058a6:	0000b603          	ld	a2,0(ra)
    800058aa:	0080b683          	ld	a3,8(ra)
    800058ae:	0100b703          	ld	a4,16(ra)
    800058b2:	0180b783          	ld	a5,24(ra)
    800058b6:	0200b483          	ld	s1,32(ra)
    800058ba:	0280b283          	ld	t0,40(ra)
    800058be:	0300b383          	ld	t2,48(ra)
    800058c2:	0380b903          	ld	s2,56(ra)
    800058c6:	0000000b          	.insn	4, 0x000b
    800058ca:	f02a                	sd	a0,32(sp)
    800058cc:	f42a                	sd	a0,40(sp)
    800058ce:	f82a                	sd	a0,48(sp)
    800058d0:	fc2a                	sd	a0,56(sp)
    800058d2:	e0aa                	sd	a0,64(sp)
    800058d4:	e4aa                	sd	a0,72(sp)
    800058d6:	e8ae                	sd	a1,80(sp)
    800058d8:	ecae                	sd	a1,88(sp)
    800058da:	4519                	li	a0,6
    800058dc:	f0aa                	sd	a0,96(sp)
    800058de:	f4b2                	sd	a2,104(sp)
    800058e0:	f8b6                	sd	a3,112(sp)
    800058e2:	fcba                	sd	a4,120(sp)
    800058e4:	e13e                	sd	a5,128(sp)
    800058e6:	e526                	sd	s1,136(sp)
    800058e8:	e916                	sd	t0,144(sp)
    800058ea:	ed1e                	sd	t2,152(sp)
    800058ec:	f14a                	sd	s2,160(sp)
    800058ee:	fc000613          	li	a2,-64
    800058f2:	86fa                	mv	a3,t5
    800058f4:	ff86b503          	ld	a0,-8(a3)
    800058f8:	00ca85b3          	add	a1,s5,a2
    800058fc:	6db8                	ld	a4,88(a1)
    800058fe:	629c                	ld	a5,0(a3)
    80005900:	71a4                	ld	s1,96(a1)
    80005902:	02a70533          	mul	a0,a4,a0
    80005906:	02f48733          	mul	a4,s1,a5
    8000590a:	699c                	ld	a5,16(a1)
    8000590c:	75a4                	ld	s1,104(a1)
    8000590e:	6d80                	ld	s0,24(a1)
    80005910:	79ac                	ld	a1,112(a1)
    80005912:	02f487b3          	mul	a5,s1,a5
    80005916:	028585b3          	mul	a1,a1,s0
    8000591a:	954e                	add	a0,a0,s3
    8000591c:	953a                	add	a0,a0,a4
    8000591e:	953e                	add	a0,a0,a5
    80005920:	00b509b3          	add	s3,a0,a1
    80005924:	02060613          	addi	a2,a2,32
    80005928:	1681                	addi	a3,a3,-32
    8000592a:	f669                	bnez	a2,800058f4 <main+0x379c>
    8000592c:	4901                	li	s2,0
    8000592e:	273db823          	sd	s3,624(s11)
    80005932:	000e3503          	ld	a0,0(t3)
    80005936:	00083583          	ld	a1,0(a6)
    8000593a:	0000b603          	ld	a2,0(ra)
    8000593e:	0080b703          	ld	a4,8(ra)
    80005942:	0100b783          	ld	a5,16(ra)
    80005946:	0180b483          	ld	s1,24(ra)
    8000594a:	0200b403          	ld	s0,32(ra)
    8000594e:	0280b803          	ld	a6,40(ra)
    80005952:	0300b283          	ld	t0,48(ra)
    80005956:	0380b383          	ld	t2,56(ra)
    8000595a:	0000000b          	.insn	4, 0x000b
    8000595e:	f02a                	sd	a0,32(sp)
    80005960:	f42a                	sd	a0,40(sp)
    80005962:	f82a                	sd	a0,48(sp)
    80005964:	fc2a                	sd	a0,56(sp)
    80005966:	e0aa                	sd	a0,64(sp)
    80005968:	e4aa                	sd	a0,72(sp)
    8000596a:	e8aa                	sd	a0,80(sp)
    8000596c:	ecae                	sd	a1,88(sp)
    8000596e:	451d                	li	a0,7
    80005970:	f0aa                	sd	a0,96(sp)
    80005972:	f4b2                	sd	a2,104(sp)
    80005974:	f8ba                	sd	a4,112(sp)
    80005976:	fcbe                	sd	a5,120(sp)
    80005978:	e126                	sd	s1,128(sp)
    8000597a:	e522                	sd	s0,136(sp)
    8000597c:	e942                	sd	a6,144(sp)
    8000597e:	ed16                	sd	t0,152(sp)
    80005980:	f11e                	sd	t2,160(sp)
    80005982:	03800613          	li	a2,56
    80005986:	06000493          	li	s1,96
    8000598a:	00c30533          	add	a0,t1,a2
    8000598e:	6108                	ld	a0,0(a0)
    80005990:	009305b3          	add	a1,t1,s1
    80005994:	fe85b703          	ld	a4,-24(a1)
    80005998:	fa05b783          	ld	a5,-96(a1)
    8000599c:	ff05b403          	ld	s0,-16(a1)
    800059a0:	02a70533          	mul	a0,a4,a0
    800059a4:	02f40733          	mul	a4,s0,a5
    800059a8:	fa85b783          	ld	a5,-88(a1)
    800059ac:	ff85b403          	ld	s0,-8(a1)
    800059b0:	fb05b683          	ld	a3,-80(a1)
    800059b4:	618c                	ld	a1,0(a1)
    800059b6:	02f407b3          	mul	a5,s0,a5
    800059ba:	02d585b3          	mul	a1,a1,a3
    800059be:	954a                	add	a0,a0,s2
    800059c0:	953a                	add	a0,a0,a4
    800059c2:	953e                	add	a0,a0,a5
    800059c4:	00b50933          	add	s2,a0,a1
    800059c8:	1601                	addi	a2,a2,-32
    800059ca:	02048493          	addi	s1,s1,32
    800059ce:	fb161ee3          	bne	a2,a7,8000598a <main+0x3832>
    800059d2:	4401                	li	s0,0
    800059d4:	272dbc23          	sd	s2,632(s11)
    800059d8:	000e3503          	ld	a0,0(t3)
    800059dc:	0000b583          	ld	a1,0(ra)
    800059e0:	0080b603          	ld	a2,8(ra)
    800059e4:	0100b683          	ld	a3,16(ra)
    800059e8:	0180b703          	ld	a4,24(ra)
    800059ec:	0200b783          	ld	a5,32(ra)
    800059f0:	0280b483          	ld	s1,40(ra)
    800059f4:	0300b803          	ld	a6,48(ra)
    800059f8:	0380b283          	ld	t0,56(ra)
    800059fc:	0000000b          	.insn	4, 0x000b
    80005a00:	f02a                	sd	a0,32(sp)
    80005a02:	f42a                	sd	a0,40(sp)
    80005a04:	f82a                	sd	a0,48(sp)
    80005a06:	fc2a                	sd	a0,56(sp)
    80005a08:	e0aa                	sd	a0,64(sp)
    80005a0a:	e4aa                	sd	a0,72(sp)
    80005a0c:	e8aa                	sd	a0,80(sp)
    80005a0e:	ecaa                	sd	a0,88(sp)
    80005a10:	f082                	sd	zero,96(sp)
    80005a12:	f4ae                	sd	a1,104(sp)
    80005a14:	f8b2                	sd	a2,112(sp)
    80005a16:	fcb6                	sd	a3,120(sp)
    80005a18:	e13a                	sd	a4,128(sp)
    80005a1a:	e53e                	sd	a5,136(sp)
    80005a1c:	e926                	sd	s1,144(sp)
    80005a1e:	ed42                	sd	a6,152(sp)
    80005a20:	f116                	sd	t0,160(sp)
    80005a22:	4641                	li	a2,16
    80005a24:	00c30533          	add	a0,t1,a2
    80005a28:	ff053583          	ld	a1,-16(a0)
    80005a2c:	7d14                	ld	a3,56(a0)
    80005a2e:	02b685b3          	mul	a1,a3,a1
    80005a32:	ff853683          	ld	a3,-8(a0)
    80005a36:	6138                	ld	a4,64(a0)
    80005a38:	611c                	ld	a5,0(a0)
    80005a3a:	6524                	ld	s1,72(a0)
    80005a3c:	02d706b3          	mul	a3,a4,a3
    80005a40:	02f48733          	mul	a4,s1,a5
    80005a44:	651c                	ld	a5,8(a0)
    80005a46:	6928                	ld	a0,80(a0)
    80005a48:	95a2                	add	a1,a1,s0
    80005a4a:	02f50533          	mul	a0,a0,a5
    80005a4e:	95b6                	add	a1,a1,a3
    80005a50:	95ba                	add	a1,a1,a4
    80005a52:	02060613          	addi	a2,a2,32
    80005a56:	00a58433          	add	s0,a1,a0
    80005a5a:	fdd615e3          	bne	a2,t4,80005a24 <main+0x38cc>
    80005a5e:	4681                	li	a3,0
    80005a60:	4a01                	li	s4,0
    80005a62:	288db023          	sd	s0,640(s11)
    80005a66:	64e2                	ld	s1,24(sp)
    80005a68:	2c04b503          	ld	a0,704(s1)
    80005a6c:	000e3583          	ld	a1,0(t3)
    80005a70:	0000b603          	ld	a2,0(ra)
    80005a74:	0080b703          	ld	a4,8(ra)
    80005a78:	0100b783          	ld	a5,16(ra)
    80005a7c:	0180b403          	ld	s0,24(ra)
    80005a80:	0200b283          	ld	t0,32(ra)
    80005a84:	0280b383          	ld	t2,40(ra)
    80005a88:	0300b903          	ld	s2,48(ra)
    80005a8c:	0380b983          	ld	s3,56(ra)
    80005a90:	0000000b          	.insn	4, 0x000b
    80005a94:	f02a                	sd	a0,32(sp)
    80005a96:	f42e                	sd	a1,40(sp)
    80005a98:	f82e                	sd	a1,48(sp)
    80005a9a:	fc2e                	sd	a1,56(sp)
    80005a9c:	e0ae                	sd	a1,64(sp)
