
mainop_O2U4_YY.riscv:     file format elf64-littleriscv


Disassembly of section .text.init:

0000000080000000 <_start>:
    80000000:	4081                	li	ra,0
    80000002:	4101                	li	sp,0
    80000004:	4181                	li	gp,0
    80000006:	4201                	li	tp,0
    80000008:	4281                	li	t0,0
    8000000a:	4301                	li	t1,0
    8000000c:	4381                	li	t2,0
    8000000e:	4401                	li	s0,0
    80000010:	4481                	li	s1,0
    80000012:	4501                	li	a0,0
    80000014:	4581                	li	a1,0
    80000016:	4601                	li	a2,0
    80000018:	4681                	li	a3,0
    8000001a:	4701                	li	a4,0
    8000001c:	4781                	li	a5,0
    8000001e:	4801                	li	a6,0
    80000020:	4881                	li	a7,0
    80000022:	4901                	li	s2,0
    80000024:	4981                	li	s3,0
    80000026:	4a01                	li	s4,0
    80000028:	4a81                	li	s5,0
    8000002a:	4b01                	li	s6,0
    8000002c:	4b81                	li	s7,0
    8000002e:	4c01                	li	s8,0
    80000030:	4c81                	li	s9,0
    80000032:	4d01                	li	s10,0
    80000034:	4d81                	li	s11,0
    80000036:	4e01                	li	t3,0
    80000038:	4e81                	li	t4,0
    8000003a:	4f01                	li	t5,0
    8000003c:	4f81                	li	t6,0
    8000003e:	62f9                	lui	t0,0x1e
    80000040:	3002a073          	csrs	mstatus,t0
    80000044:	4285                	li	t0,1
    80000046:	02fe                	slli	t0,t0,0x1f
    80000048:	0002d863          	bgez	t0,80000058 <_start+0x58>
    8000004c:	4505                	li	a0,1
    8000004e:	00001297          	auipc	t0,0x1
    80000052:	faa2a923          	sw	a0,-78(t0) # 80001000 <tohost>
    80000056:	bfdd                	j	8000004c <_start+0x4c>
    80000058:	00000297          	auipc	t0,0x0
    8000005c:	09028293          	addi	t0,t0,144 # 800000e8 <_start+0xe8>
    80000060:	30529073          	csrw	mtvec,t0
    80000064:	00301073          	fscsr	zero
    80000068:	f0000053          	fmv.w.x	ft0,zero
    8000006c:	f00000d3          	fmv.w.x	ft1,zero
    80000070:	f0000153          	fmv.w.x	ft2,zero
    80000074:	f00001d3          	fmv.w.x	ft3,zero
    80000078:	f0000253          	fmv.w.x	ft4,zero
    8000007c:	f00002d3          	fmv.w.x	ft5,zero
    80000080:	f0000353          	fmv.w.x	ft6,zero
    80000084:	f00003d3          	fmv.w.x	ft7,zero
    80000088:	f0000453          	fmv.w.x	fs0,zero
    8000008c:	f00004d3          	fmv.w.x	fs1,zero
    80000090:	f0000553          	fmv.w.x	fa0,zero
    80000094:	f00005d3          	fmv.w.x	fa1,zero
    80000098:	f0000653          	fmv.w.x	fa2,zero
    8000009c:	f00006d3          	fmv.w.x	fa3,zero
    800000a0:	f0000753          	fmv.w.x	fa4,zero
    800000a4:	f00007d3          	fmv.w.x	fa5,zero
    800000a8:	f0000853          	fmv.w.x	fa6,zero
    800000ac:	f00008d3          	fmv.w.x	fa7,zero
    800000b0:	f0000953          	fmv.w.x	fs2,zero
    800000b4:	f00009d3          	fmv.w.x	fs3,zero
    800000b8:	f0000a53          	fmv.w.x	fs4,zero
    800000bc:	f0000ad3          	fmv.w.x	fs5,zero
    800000c0:	f0000b53          	fmv.w.x	fs6,zero
    800000c4:	f0000bd3          	fmv.w.x	fs7,zero
    800000c8:	f0000c53          	fmv.w.x	fs8,zero
    800000cc:	f0000cd3          	fmv.w.x	fs9,zero
    800000d0:	f0000d53          	fmv.w.x	fs10,zero
    800000d4:	f0000dd3          	fmv.w.x	fs11,zero
    800000d8:	f0000e53          	fmv.w.x	ft8,zero
    800000dc:	f0000ed3          	fmv.w.x	ft9,zero
    800000e0:	f0000f53          	fmv.w.x	ft10,zero
    800000e4:	f0000fd3          	fmv.w.x	ft11,zero
    800000e8:	00000297          	auipc	t0,0x0
    800000ec:	03c28293          	addi	t0,t0,60 # 80000124 <trap_entry>
    800000f0:	30529073          	csrw	mtvec,t0
    800000f4:	0000b197          	auipc	gp,0xb
    800000f8:	b7418193          	addi	gp,gp,-1164 # 8000ac68 <__global_pointer$>
    800000fc:	00010217          	auipc	tp,0x10
    80000100:	1c320213          	addi	tp,tp,451 # 800102bf <_end+0x3f>
    80000104:	fc027213          	andi	tp,tp,-64
    80000108:	f1402573          	csrr	a0,mhartid
    8000010c:	4585                	li	a1,1
    8000010e:	00b57063          	bgeu	a0,a1,8000010e <_start+0x10e>
    80000112:	00150113          	addi	sp,a0,1
    80000116:	0146                	slli	sp,sp,0x11
    80000118:	9112                	add	sp,sp,tp
    8000011a:	01151613          	slli	a2,a0,0x11
    8000011e:	9232                	add	tp,tp,a2
    80000120:	2f30906f          	j	80009c12 <_init>

0000000080000124 <trap_entry>:
    80000124:	716d                	addi	sp,sp,-272
    80000126:	e406                	sd	ra,8(sp)
    80000128:	e80a                	sd	sp,16(sp)
    8000012a:	ec0e                	sd	gp,24(sp)
    8000012c:	f012                	sd	tp,32(sp)
    8000012e:	f416                	sd	t0,40(sp)
    80000130:	f81a                	sd	t1,48(sp)
    80000132:	fc1e                	sd	t2,56(sp)
    80000134:	e0a2                	sd	s0,64(sp)
    80000136:	e4a6                	sd	s1,72(sp)
    80000138:	e8aa                	sd	a0,80(sp)
    8000013a:	ecae                	sd	a1,88(sp)
    8000013c:	f0b2                	sd	a2,96(sp)
    8000013e:	f4b6                	sd	a3,104(sp)
    80000140:	f8ba                	sd	a4,112(sp)
    80000142:	fcbe                	sd	a5,120(sp)
    80000144:	e142                	sd	a6,128(sp)
    80000146:	e546                	sd	a7,136(sp)
    80000148:	e94a                	sd	s2,144(sp)
    8000014a:	ed4e                	sd	s3,152(sp)
    8000014c:	f152                	sd	s4,160(sp)
    8000014e:	f556                	sd	s5,168(sp)
    80000150:	f95a                	sd	s6,176(sp)
    80000152:	fd5e                	sd	s7,184(sp)
    80000154:	e1e2                	sd	s8,192(sp)
    80000156:	e5e6                	sd	s9,200(sp)
    80000158:	e9ea                	sd	s10,208(sp)
    8000015a:	edee                	sd	s11,216(sp)
    8000015c:	f1f2                	sd	t3,224(sp)
    8000015e:	f5f6                	sd	t4,232(sp)
    80000160:	f9fa                	sd	t5,240(sp)
    80000162:	fdfe                	sd	t6,248(sp)
    80000164:	34202573          	csrr	a0,mcause
    80000168:	341025f3          	csrr	a1,mepc
    8000016c:	860a                	mv	a2,sp
    8000016e:	0dd090ef          	jal	80009a4a <handle_trap>
    80000172:	34151073          	csrw	mepc,a0
    80000176:	6289                	lui	t0,0x2
    80000178:	8002829b          	addiw	t0,t0,-2048 # 1800 <buflen.1+0x17c0>
    8000017c:	3002a073          	csrs	mstatus,t0
    80000180:	60a2                	ld	ra,8(sp)
    80000182:	6142                	ld	sp,16(sp)
    80000184:	61e2                	ld	gp,24(sp)
    80000186:	7202                	ld	tp,32(sp)
    80000188:	72a2                	ld	t0,40(sp)
    8000018a:	7342                	ld	t1,48(sp)
    8000018c:	73e2                	ld	t2,56(sp)
    8000018e:	6406                	ld	s0,64(sp)
    80000190:	64a6                	ld	s1,72(sp)
    80000192:	6546                	ld	a0,80(sp)
    80000194:	65e6                	ld	a1,88(sp)
    80000196:	7606                	ld	a2,96(sp)
    80000198:	76a6                	ld	a3,104(sp)
    8000019a:	7746                	ld	a4,112(sp)
    8000019c:	77e6                	ld	a5,120(sp)
    8000019e:	680a                	ld	a6,128(sp)
    800001a0:	68aa                	ld	a7,136(sp)
    800001a2:	694a                	ld	s2,144(sp)
    800001a4:	69ea                	ld	s3,152(sp)
    800001a6:	7a0a                	ld	s4,160(sp)
    800001a8:	7aaa                	ld	s5,168(sp)
    800001aa:	7b4a                	ld	s6,176(sp)
    800001ac:	7bea                	ld	s7,184(sp)
    800001ae:	6c0e                	ld	s8,192(sp)
    800001b0:	6cae                	ld	s9,200(sp)
    800001b2:	6d4e                	ld	s10,208(sp)
    800001b4:	6dee                	ld	s11,216(sp)
    800001b6:	7e0e                	ld	t3,224(sp)
    800001b8:	7eae                	ld	t4,232(sp)
    800001ba:	7f4e                	ld	t5,240(sp)
    800001bc:	7fee                	ld	t6,248(sp)
    800001be:	6151                	addi	sp,sp,272
    800001c0:	30200073          	mret
    800001c4:	0000                	unimp

Disassembly of section .text:

0000000080002000 <d2ull>:
    80002000:	e2050553          	fmv.x.d	a0,fa0
    80002004:	8082                	ret

0000000080002006 <ull2d>:
    80002006:	f2050553          	fmv.d.x	fa0,a0
    8000200a:	8082                	ret

000000008000200c <main>:
    8000200c:	81010113          	addi	sp,sp,-2032
    80002010:	7e113423          	sd	ra,2024(sp)
    80002014:	7e813023          	sd	s0,2016(sp)
    80002018:	7c913c23          	sd	s1,2008(sp)
    8000201c:	7d213823          	sd	s2,2000(sp)
    80002020:	7d313423          	sd	s3,1992(sp)
    80002024:	7d413023          	sd	s4,1984(sp)
    80002028:	7b513c23          	sd	s5,1976(sp)
    8000202c:	7b613823          	sd	s6,1968(sp)
    80002030:	7b713423          	sd	s7,1960(sp)
    80002034:	7b813023          	sd	s8,1952(sp)
    80002038:	79913c23          	sd	s9,1944(sp)
    8000203c:	79a13823          	sd	s10,1936(sp)
    80002040:	79b13423          	sd	s11,1928(sp)
    80002044:	80010113          	addi	sp,sp,-2048
    80002048:	c5010113          	addi	sp,sp,-944
    8000204c:	4701                	li	a4,0
    8000204e:	00008517          	auipc	a0,0x8
    80002052:	43a50513          	addi	a0,a0,1082 # 8000a488 <gen2+0x1d0>
    80002056:	610c                	ld	a1,0(a0)
    80002058:	00008817          	auipc	a6,0x8
    8000205c:	44080813          	addi	a6,a6,1088 # 8000a498 <gen1>
    80002060:	00083683          	ld	a3,0(a6)
    80002064:	00008a17          	auipc	s4,0x8
    80002068:	444a0a13          	addi	s4,s4,1092 # 8000a4a8 <input>
    8000206c:	00008617          	auipc	a2,0x8
    80002070:	42460613          	addi	a2,a2,1060 # 8000a490 <gen2+0x1d8>
    80002074:	6210                	ld	a2,0(a2)
    80002076:	3b9ad7b7          	lui	a5,0x3b9ad
    8000207a:	a077829b          	addiw	t0,a5,-1529 # 3b9aca07 <buflen.1+0x3b9ac9c7>
    8000207e:	40000893          	li	a7,1024
    80002082:	02b68533          	mul	a0,a3,a1
    80002086:	02c53433          	mulhu	s0,a0,a2
    8000208a:	8075                	srli	s0,s0,0x1d
    8000208c:	02540433          	mul	s0,s0,t0
    80002090:	8d01                	sub	a0,a0,s0
    80002092:	02b50433          	mul	s0,a0,a1
    80002096:	02c434b3          	mulhu	s1,s0,a2
    8000209a:	80f5                	srli	s1,s1,0x1d
    8000209c:	025484b3          	mul	s1,s1,t0
    800020a0:	409404b3          	sub	s1,s0,s1
    800020a4:	02b48433          	mul	s0,s1,a1
    800020a8:	02c437b3          	mulhu	a5,s0,a2
    800020ac:	83f5                	srli	a5,a5,0x1d
    800020ae:	025787b3          	mul	a5,a5,t0
    800020b2:	00b68333          	add	t1,a3,a1
    800020b6:	40f407b3          	sub	a5,s0,a5
    800020ba:	02b78433          	mul	s0,a5,a1
    800020be:	00ea06b3          	add	a3,s4,a4
    800020c2:	0066b023          	sd	t1,0(a3)
    800020c6:	952e                	add	a0,a0,a1
    800020c8:	02c43333          	mulhu	t1,s0,a2
    800020cc:	e688                	sd	a0,8(a3)
    800020ce:	00b48533          	add	a0,s1,a1
    800020d2:	ea88                	sd	a0,16(a3)
    800020d4:	01d35513          	srli	a0,t1,0x1d
    800020d8:	02550533          	mul	a0,a0,t0
    800020dc:	97ae                	add	a5,a5,a1
    800020de:	ee9c                	sd	a5,24(a3)
    800020e0:	02070713          	addi	a4,a4,32
    800020e4:	40a406b3          	sub	a3,s0,a0
    800020e8:	f9171de3          	bne	a4,a7,80002082 <main+0x76>
    800020ec:	4701                	li	a4,0
    800020ee:	3b9ad537          	lui	a0,0x3b9ad
    800020f2:	a075029b          	addiw	t0,a0,-1529 # 3b9aca07 <buflen.1+0x3b9ac9c7>
    800020f6:	40000893          	li	a7,1024
    800020fa:	02b68433          	mul	s0,a3,a1
    800020fe:	02c43533          	mulhu	a0,s0,a2
    80002102:	8175                	srli	a0,a0,0x1d
    80002104:	02550533          	mul	a0,a0,t0
    80002108:	40a40533          	sub	a0,s0,a0
    8000210c:	02b50433          	mul	s0,a0,a1
    80002110:	02c434b3          	mulhu	s1,s0,a2
    80002114:	80f5                	srli	s1,s1,0x1d
    80002116:	025484b3          	mul	s1,s1,t0
    8000211a:	409404b3          	sub	s1,s0,s1
    8000211e:	02b48433          	mul	s0,s1,a1
    80002122:	02c437b3          	mulhu	a5,s0,a2
    80002126:	83f5                	srli	a5,a5,0x1d
    80002128:	025787b3          	mul	a5,a5,t0
    8000212c:	00b68333          	add	t1,a3,a1
    80002130:	40f407b3          	sub	a5,s0,a5
    80002134:	02b78433          	mul	s0,a5,a1
    80002138:	00ea06b3          	add	a3,s4,a4
    8000213c:	4066b023          	sd	t1,1024(a3)
    80002140:	952e                	add	a0,a0,a1
    80002142:	02c43333          	mulhu	t1,s0,a2
    80002146:	40a6b423          	sd	a0,1032(a3)
    8000214a:	00b48533          	add	a0,s1,a1
    8000214e:	40a6b823          	sd	a0,1040(a3)
    80002152:	01d35513          	srli	a0,t1,0x1d
    80002156:	02550533          	mul	a0,a0,t0
    8000215a:	97ae                	add	a5,a5,a1
    8000215c:	40f6bc23          	sd	a5,1048(a3)
    80002160:	02070713          	addi	a4,a4,32
    80002164:	40a406b3          	sub	a3,s0,a0
    80002168:	f91719e3          	bne	a4,a7,800020fa <main+0xee>
    8000216c:	7ffa0893          	addi	a7,s4,2047
    80002170:	01988793          	addi	a5,a7,25
    80002174:	08000493          	li	s1,128
    80002178:	3b9ad537          	lui	a0,0x3b9ad
    8000217c:	a075029b          	addiw	t0,a0,-1529 # 3b9aca07 <buflen.1+0x3b9ac9c7>
    80002180:	02b68533          	mul	a0,a3,a1
    80002184:	02c53733          	mulhu	a4,a0,a2
    80002188:	8375                	srli	a4,a4,0x1d
    8000218a:	02570733          	mul	a4,a4,t0
    8000218e:	40e50333          	sub	t1,a0,a4
    80002192:	02b30733          	mul	a4,t1,a1
    80002196:	02c73433          	mulhu	s0,a4,a2
    8000219a:	8075                	srli	s0,s0,0x1d
    8000219c:	02540433          	mul	s0,s0,t0
    800021a0:	8f01                	sub	a4,a4,s0
    800021a2:	02b70433          	mul	s0,a4,a1
    800021a6:	02c43533          	mulhu	a0,s0,a2
    800021aa:	8175                	srli	a0,a0,0x1d
    800021ac:	02550533          	mul	a0,a0,t0
    800021b0:	40a40533          	sub	a0,s0,a0
    800021b4:	02b50433          	mul	s0,a0,a1
    800021b8:	96ae                	add	a3,a3,a1
    800021ba:	fed7b423          	sd	a3,-24(a5)
    800021be:	02c433b3          	mulhu	t2,s0,a2
    800021c2:	00b306b3          	add	a3,t1,a1
    800021c6:	fed7b823          	sd	a3,-16(a5)
    800021ca:	00b706b3          	add	a3,a4,a1
    800021ce:	01d3d713          	srli	a4,t2,0x1d
    800021d2:	02570733          	mul	a4,a4,t0
    800021d6:	fed7bc23          	sd	a3,-8(a5)
    800021da:	952e                	add	a0,a0,a1
    800021dc:	e388                	sd	a0,0(a5)
    800021de:	40e406b3          	sub	a3,s0,a4
    800021e2:	14f1                	addi	s1,s1,-4
    800021e4:	02078793          	addi	a5,a5,32
    800021e8:	fcc1                	bnez	s1,80002180 <main+0x174>
    800021ea:	41988713          	addi	a4,a7,1049
    800021ee:	08000793          	li	a5,128
    800021f2:	3b9ad537          	lui	a0,0x3b9ad
    800021f6:	a075089b          	addiw	a7,a0,-1529 # 3b9aca07 <buflen.1+0x3b9ac9c7>
    800021fa:	02b68533          	mul	a0,a3,a1
    800021fe:	02c53433          	mulhu	s0,a0,a2
    80002202:	8075                	srli	s0,s0,0x1d
    80002204:	03140433          	mul	s0,s0,a7
    80002208:	408502b3          	sub	t0,a0,s0
    8000220c:	02b28433          	mul	s0,t0,a1
    80002210:	02c434b3          	mulhu	s1,s0,a2
    80002214:	80f5                	srli	s1,s1,0x1d
    80002216:	031484b3          	mul	s1,s1,a7
    8000221a:	409404b3          	sub	s1,s0,s1
    8000221e:	02b48433          	mul	s0,s1,a1
    80002222:	02c43533          	mulhu	a0,s0,a2
    80002226:	8175                	srli	a0,a0,0x1d
    80002228:	03150533          	mul	a0,a0,a7
    8000222c:	40a40533          	sub	a0,s0,a0
    80002230:	02b50433          	mul	s0,a0,a1
    80002234:	96ae                	add	a3,a3,a1
    80002236:	fed73423          	sd	a3,-24(a4)
    8000223a:	02c43333          	mulhu	t1,s0,a2
    8000223e:	00b286b3          	add	a3,t0,a1
    80002242:	fed73823          	sd	a3,-16(a4)
    80002246:	00b486b3          	add	a3,s1,a1
    8000224a:	01d35493          	srli	s1,t1,0x1d
    8000224e:	031484b3          	mul	s1,s1,a7
    80002252:	fed73c23          	sd	a3,-8(a4)
    80002256:	952e                	add	a0,a0,a1
    80002258:	e308                	sd	a0,0(a4)
    8000225a:	409406b3          	sub	a3,s0,s1
    8000225e:	17f1                	addi	a5,a5,-4
    80002260:	02070713          	addi	a4,a4,32
    80002264:	fbd9                	bnez	a5,800021fa <main+0x1ee>
    80002266:	6505                	lui	a0,0x1
    80002268:	2561                	addiw	a0,a0,24 # 1018 <buflen.1+0xfd8>
    8000226a:	00aa0733          	add	a4,s4,a0
    8000226e:	08000793          	li	a5,128
    80002272:	3b9ad537          	lui	a0,0x3b9ad
    80002276:	a075089b          	addiw	a7,a0,-1529 # 3b9aca07 <buflen.1+0x3b9ac9c7>
    8000227a:	02b68533          	mul	a0,a3,a1
    8000227e:	02c53433          	mulhu	s0,a0,a2
    80002282:	8075                	srli	s0,s0,0x1d
    80002284:	03140433          	mul	s0,s0,a7
    80002288:	408502b3          	sub	t0,a0,s0
    8000228c:	02b28433          	mul	s0,t0,a1
    80002290:	02c434b3          	mulhu	s1,s0,a2
    80002294:	80f5                	srli	s1,s1,0x1d
    80002296:	031484b3          	mul	s1,s1,a7
    8000229a:	409404b3          	sub	s1,s0,s1
    8000229e:	02b48433          	mul	s0,s1,a1
    800022a2:	02c43533          	mulhu	a0,s0,a2
    800022a6:	8175                	srli	a0,a0,0x1d
    800022a8:	03150533          	mul	a0,a0,a7
    800022ac:	40a40533          	sub	a0,s0,a0
    800022b0:	02b50433          	mul	s0,a0,a1
    800022b4:	96ae                	add	a3,a3,a1
    800022b6:	fed73423          	sd	a3,-24(a4)
    800022ba:	02c43333          	mulhu	t1,s0,a2
    800022be:	00b286b3          	add	a3,t0,a1
    800022c2:	fed73823          	sd	a3,-16(a4)
    800022c6:	00b486b3          	add	a3,s1,a1
    800022ca:	01d35493          	srli	s1,t1,0x1d
    800022ce:	031484b3          	mul	s1,s1,a7
    800022d2:	fed73c23          	sd	a3,-8(a4)
    800022d6:	952e                	add	a0,a0,a1
    800022d8:	e308                	sd	a0,0(a4)
    800022da:	409406b3          	sub	a3,s0,s1
    800022de:	17f1                	addi	a5,a5,-4
    800022e0:	02070713          	addi	a4,a4,32
    800022e4:	fbd9                	bnez	a5,8000227a <main+0x26e>
    800022e6:	6505                	lui	a0,0x1
    800022e8:	4185051b          	addiw	a0,a0,1048 # 1418 <buflen.1+0x13d8>
    800022ec:	00aa0733          	add	a4,s4,a0
    800022f0:	08000793          	li	a5,128
    800022f4:	3b9ad537          	lui	a0,0x3b9ad
    800022f8:	a075089b          	addiw	a7,a0,-1529 # 3b9aca07 <buflen.1+0x3b9ac9c7>
    800022fc:	02b68533          	mul	a0,a3,a1
    80002300:	02c53433          	mulhu	s0,a0,a2
    80002304:	8075                	srli	s0,s0,0x1d
    80002306:	03140433          	mul	s0,s0,a7
    8000230a:	408502b3          	sub	t0,a0,s0
    8000230e:	02b28433          	mul	s0,t0,a1
    80002312:	02c434b3          	mulhu	s1,s0,a2
    80002316:	80f5                	srli	s1,s1,0x1d
    80002318:	031484b3          	mul	s1,s1,a7
    8000231c:	409404b3          	sub	s1,s0,s1
    80002320:	02b48433          	mul	s0,s1,a1
    80002324:	02c43533          	mulhu	a0,s0,a2
    80002328:	8175                	srli	a0,a0,0x1d
    8000232a:	03150533          	mul	a0,a0,a7
    8000232e:	40a40533          	sub	a0,s0,a0
    80002332:	02b50433          	mul	s0,a0,a1
    80002336:	96ae                	add	a3,a3,a1
    80002338:	fed73423          	sd	a3,-24(a4)
    8000233c:	02c43333          	mulhu	t1,s0,a2
    80002340:	00b286b3          	add	a3,t0,a1
    80002344:	fed73823          	sd	a3,-16(a4)
    80002348:	00b486b3          	add	a3,s1,a1
    8000234c:	01d35493          	srli	s1,t1,0x1d
    80002350:	031484b3          	mul	s1,s1,a7
    80002354:	fed73c23          	sd	a3,-8(a4)
    80002358:	952e                	add	a0,a0,a1
    8000235a:	e308                	sd	a0,0(a4)
    8000235c:	409406b3          	sub	a3,s0,s1
    80002360:	17f1                	addi	a5,a5,-4
    80002362:	02070713          	addi	a4,a4,32
    80002366:	fbd9                	bnez	a5,800022fc <main+0x2f0>
    80002368:	6509                	lui	a0,0x2
    8000236a:	8185051b          	addiw	a0,a0,-2024 # 1818 <buflen.1+0x17d8>
    8000236e:	00aa0733          	add	a4,s4,a0
    80002372:	08000793          	li	a5,128
    80002376:	3b9ad537          	lui	a0,0x3b9ad
    8000237a:	a075089b          	addiw	a7,a0,-1529 # 3b9aca07 <buflen.1+0x3b9ac9c7>
    8000237e:	02b68533          	mul	a0,a3,a1
    80002382:	02c53433          	mulhu	s0,a0,a2
    80002386:	8075                	srli	s0,s0,0x1d
    80002388:	03140433          	mul	s0,s0,a7
    8000238c:	408502b3          	sub	t0,a0,s0
    80002390:	02b28433          	mul	s0,t0,a1
    80002394:	02c434b3          	mulhu	s1,s0,a2
    80002398:	80f5                	srli	s1,s1,0x1d
    8000239a:	031484b3          	mul	s1,s1,a7
    8000239e:	409404b3          	sub	s1,s0,s1
    800023a2:	02b48433          	mul	s0,s1,a1
    800023a6:	02c43533          	mulhu	a0,s0,a2
    800023aa:	8175                	srli	a0,a0,0x1d
    800023ac:	03150533          	mul	a0,a0,a7
    800023b0:	40a40533          	sub	a0,s0,a0
    800023b4:	02b50433          	mul	s0,a0,a1
    800023b8:	96ae                	add	a3,a3,a1
    800023ba:	fed73423          	sd	a3,-24(a4)
    800023be:	02c43333          	mulhu	t1,s0,a2
    800023c2:	00b286b3          	add	a3,t0,a1
    800023c6:	fed73823          	sd	a3,-16(a4)
    800023ca:	00b486b3          	add	a3,s1,a1
    800023ce:	01d35493          	srli	s1,t1,0x1d
    800023d2:	031484b3          	mul	s1,s1,a7
    800023d6:	fed73c23          	sd	a3,-8(a4)
    800023da:	952e                	add	a0,a0,a1
    800023dc:	e308                	sd	a0,0(a4)
    800023de:	409406b3          	sub	a3,s0,s1
    800023e2:	17f1                	addi	a5,a5,-4
    800023e4:	02070713          	addi	a4,a4,32
    800023e8:	fbd9                	bnez	a5,8000237e <main+0x372>
    800023ea:	6509                	lui	a0,0x2
    800023ec:	c185051b          	addiw	a0,a0,-1000 # 1c18 <buflen.1+0x1bd8>
    800023f0:	00aa0733          	add	a4,s4,a0
    800023f4:	08000793          	li	a5,128
    800023f8:	3b9ad537          	lui	a0,0x3b9ad
    800023fc:	a075089b          	addiw	a7,a0,-1529 # 3b9aca07 <buflen.1+0x3b9ac9c7>
    80002400:	02b68533          	mul	a0,a3,a1
    80002404:	02c53433          	mulhu	s0,a0,a2
    80002408:	8075                	srli	s0,s0,0x1d
    8000240a:	03140433          	mul	s0,s0,a7
    8000240e:	408502b3          	sub	t0,a0,s0
    80002412:	02b28433          	mul	s0,t0,a1
    80002416:	02c434b3          	mulhu	s1,s0,a2
    8000241a:	80f5                	srli	s1,s1,0x1d
    8000241c:	031484b3          	mul	s1,s1,a7
    80002420:	409404b3          	sub	s1,s0,s1
    80002424:	02b48433          	mul	s0,s1,a1
    80002428:	02c43533          	mulhu	a0,s0,a2
    8000242c:	8175                	srli	a0,a0,0x1d
    8000242e:	03150533          	mul	a0,a0,a7
    80002432:	40a40533          	sub	a0,s0,a0
    80002436:	02b50433          	mul	s0,a0,a1
    8000243a:	96ae                	add	a3,a3,a1
    8000243c:	fed73423          	sd	a3,-24(a4)
    80002440:	02c43333          	mulhu	t1,s0,a2
    80002444:	00b286b3          	add	a3,t0,a1
    80002448:	fed73823          	sd	a3,-16(a4)
    8000244c:	00b486b3          	add	a3,s1,a1
    80002450:	01d35493          	srli	s1,t1,0x1d
    80002454:	031484b3          	mul	s1,s1,a7
    80002458:	fed73c23          	sd	a3,-8(a4)
    8000245c:	952e                	add	a0,a0,a1
    8000245e:	e308                	sd	a0,0(a4)
    80002460:	409406b3          	sub	a3,s0,s1
    80002464:	17f1                	addi	a5,a5,-4
    80002466:	02070713          	addi	a4,a4,32
    8000246a:	fbd9                	bnez	a5,80002400 <main+0x3f4>
    8000246c:	6509                	lui	a0,0x2
    8000246e:	2561                	addiw	a0,a0,24 # 2018 <buflen.1+0x1fd8>
    80002470:	00aa0733          	add	a4,s4,a0
    80002474:	08000793          	li	a5,128
    80002478:	3b9ad537          	lui	a0,0x3b9ad
    8000247c:	a075089b          	addiw	a7,a0,-1529 # 3b9aca07 <buflen.1+0x3b9ac9c7>
    80002480:	02b68533          	mul	a0,a3,a1
    80002484:	02c53433          	mulhu	s0,a0,a2
    80002488:	8075                	srli	s0,s0,0x1d
    8000248a:	03140433          	mul	s0,s0,a7
    8000248e:	408502b3          	sub	t0,a0,s0
    80002492:	02b28433          	mul	s0,t0,a1
    80002496:	02c434b3          	mulhu	s1,s0,a2
    8000249a:	80f5                	srli	s1,s1,0x1d
    8000249c:	031484b3          	mul	s1,s1,a7
    800024a0:	409404b3          	sub	s1,s0,s1
    800024a4:	02b48433          	mul	s0,s1,a1
    800024a8:	02c43533          	mulhu	a0,s0,a2
    800024ac:	8175                	srli	a0,a0,0x1d
    800024ae:	03150533          	mul	a0,a0,a7
    800024b2:	40a40533          	sub	a0,s0,a0
    800024b6:	02b50433          	mul	s0,a0,a1
    800024ba:	96ae                	add	a3,a3,a1
    800024bc:	fed73423          	sd	a3,-24(a4)
    800024c0:	02c43333          	mulhu	t1,s0,a2
    800024c4:	00b286b3          	add	a3,t0,a1
    800024c8:	fed73823          	sd	a3,-16(a4)
    800024cc:	00b486b3          	add	a3,s1,a1
    800024d0:	01d35493          	srli	s1,t1,0x1d
    800024d4:	031484b3          	mul	s1,s1,a7
    800024d8:	fed73c23          	sd	a3,-8(a4)
    800024dc:	952e                	add	a0,a0,a1
    800024de:	e308                	sd	a0,0(a4)
    800024e0:	409406b3          	sub	a3,s0,s1
    800024e4:	17f1                	addi	a5,a5,-4
    800024e6:	02070713          	addi	a4,a4,32
    800024ea:	fbd9                	bnez	a5,80002480 <main+0x474>
    800024ec:	6509                	lui	a0,0x2
    800024ee:	4185051b          	addiw	a0,a0,1048 # 2418 <buflen.1+0x23d8>
    800024f2:	00aa0733          	add	a4,s4,a0
    800024f6:	08000793          	li	a5,128
    800024fa:	3b9ad537          	lui	a0,0x3b9ad
    800024fe:	a075089b          	addiw	a7,a0,-1529 # 3b9aca07 <buflen.1+0x3b9ac9c7>
    80002502:	02b68533          	mul	a0,a3,a1
    80002506:	02c53433          	mulhu	s0,a0,a2
    8000250a:	8075                	srli	s0,s0,0x1d
    8000250c:	03140433          	mul	s0,s0,a7
    80002510:	408502b3          	sub	t0,a0,s0
    80002514:	02b28433          	mul	s0,t0,a1
    80002518:	02c434b3          	mulhu	s1,s0,a2
    8000251c:	80f5                	srli	s1,s1,0x1d
    8000251e:	031484b3          	mul	s1,s1,a7
    80002522:	409404b3          	sub	s1,s0,s1
    80002526:	02b48433          	mul	s0,s1,a1
    8000252a:	02c43533          	mulhu	a0,s0,a2
    8000252e:	8175                	srli	a0,a0,0x1d
    80002530:	03150533          	mul	a0,a0,a7
    80002534:	40a40533          	sub	a0,s0,a0
    80002538:	02b50433          	mul	s0,a0,a1
    8000253c:	96ae                	add	a3,a3,a1
    8000253e:	fed73423          	sd	a3,-24(a4)
    80002542:	02c43333          	mulhu	t1,s0,a2
    80002546:	00b286b3          	add	a3,t0,a1
    8000254a:	fed73823          	sd	a3,-16(a4)
    8000254e:	00b486b3          	add	a3,s1,a1
    80002552:	01d35493          	srli	s1,t1,0x1d
    80002556:	031484b3          	mul	s1,s1,a7
    8000255a:	fed73c23          	sd	a3,-8(a4)
    8000255e:	952e                	add	a0,a0,a1
    80002560:	e308                	sd	a0,0(a4)
    80002562:	409406b3          	sub	a3,s0,s1
    80002566:	17f1                	addi	a5,a5,-4
    80002568:	02070713          	addi	a4,a4,32
    8000256c:	fbd9                	bnez	a5,80002502 <main+0x4f6>
    8000256e:	650d                	lui	a0,0x3
    80002570:	8185051b          	addiw	a0,a0,-2024 # 2818 <buflen.1+0x27d8>
    80002574:	00aa0733          	add	a4,s4,a0
    80002578:	08000793          	li	a5,128
    8000257c:	3b9ad537          	lui	a0,0x3b9ad
    80002580:	a075089b          	addiw	a7,a0,-1529 # 3b9aca07 <buflen.1+0x3b9ac9c7>
    80002584:	02b68533          	mul	a0,a3,a1
    80002588:	02c53433          	mulhu	s0,a0,a2
    8000258c:	8075                	srli	s0,s0,0x1d
    8000258e:	03140433          	mul	s0,s0,a7
    80002592:	408502b3          	sub	t0,a0,s0
    80002596:	02b28433          	mul	s0,t0,a1
    8000259a:	02c434b3          	mulhu	s1,s0,a2
    8000259e:	80f5                	srli	s1,s1,0x1d
    800025a0:	031484b3          	mul	s1,s1,a7
    800025a4:	409404b3          	sub	s1,s0,s1
    800025a8:	02b48433          	mul	s0,s1,a1
    800025ac:	02c43533          	mulhu	a0,s0,a2
    800025b0:	8175                	srli	a0,a0,0x1d
    800025b2:	03150533          	mul	a0,a0,a7
    800025b6:	40a40533          	sub	a0,s0,a0
    800025ba:	02b50433          	mul	s0,a0,a1
    800025be:	96ae                	add	a3,a3,a1
    800025c0:	fed73423          	sd	a3,-24(a4)
    800025c4:	02c43333          	mulhu	t1,s0,a2
    800025c8:	00b286b3          	add	a3,t0,a1
    800025cc:	fed73823          	sd	a3,-16(a4)
    800025d0:	00b486b3          	add	a3,s1,a1
    800025d4:	01d35493          	srli	s1,t1,0x1d
    800025d8:	031484b3          	mul	s1,s1,a7
    800025dc:	fed73c23          	sd	a3,-8(a4)
    800025e0:	952e                	add	a0,a0,a1
    800025e2:	e308                	sd	a0,0(a4)
    800025e4:	409406b3          	sub	a3,s0,s1
    800025e8:	17f1                	addi	a5,a5,-4
    800025ea:	02070713          	addi	a4,a4,32
    800025ee:	fbd9                	bnez	a5,80002584 <main+0x578>
    800025f0:	650d                	lui	a0,0x3
    800025f2:	c185051b          	addiw	a0,a0,-1000 # 2c18 <buflen.1+0x2bd8>
    800025f6:	00aa0733          	add	a4,s4,a0
    800025fa:	08000793          	li	a5,128
    800025fe:	3b9ad537          	lui	a0,0x3b9ad
    80002602:	a075089b          	addiw	a7,a0,-1529 # 3b9aca07 <buflen.1+0x3b9ac9c7>
    80002606:	02b68533          	mul	a0,a3,a1
    8000260a:	02c53433          	mulhu	s0,a0,a2
    8000260e:	8075                	srli	s0,s0,0x1d
    80002610:	03140433          	mul	s0,s0,a7
    80002614:	408502b3          	sub	t0,a0,s0
    80002618:	02b28433          	mul	s0,t0,a1
    8000261c:	02c434b3          	mulhu	s1,s0,a2
    80002620:	80f5                	srli	s1,s1,0x1d
    80002622:	031484b3          	mul	s1,s1,a7
    80002626:	409404b3          	sub	s1,s0,s1
    8000262a:	02b48433          	mul	s0,s1,a1
    8000262e:	02c43533          	mulhu	a0,s0,a2
    80002632:	8175                	srli	a0,a0,0x1d
    80002634:	03150533          	mul	a0,a0,a7
    80002638:	40a40533          	sub	a0,s0,a0
    8000263c:	02b50433          	mul	s0,a0,a1
    80002640:	96ae                	add	a3,a3,a1
    80002642:	fed73423          	sd	a3,-24(a4)
    80002646:	02c43333          	mulhu	t1,s0,a2
    8000264a:	00b286b3          	add	a3,t0,a1
    8000264e:	fed73823          	sd	a3,-16(a4)
    80002652:	00b486b3          	add	a3,s1,a1
    80002656:	01d35493          	srli	s1,t1,0x1d
    8000265a:	031484b3          	mul	s1,s1,a7
    8000265e:	fed73c23          	sd	a3,-8(a4)
    80002662:	952e                	add	a0,a0,a1
    80002664:	e308                	sd	a0,0(a4)
    80002666:	409406b3          	sub	a3,s0,s1
    8000266a:	17f1                	addi	a5,a5,-4
    8000266c:	02070713          	addi	a4,a4,32
    80002670:	fbd9                	bnez	a5,80002606 <main+0x5fa>
    80002672:	0000b297          	auipc	t0,0xb
    80002676:	e3628293          	addi	t0,t0,-458 # 8000d4a8 <kernel>
    8000267a:	3b9ad537          	lui	a0,0x3b9ad
    8000267e:	a075031b          	addiw	t1,a0,-1529 # 3b9aca07 <buflen.1+0x3b9ac9c7>
    80002682:	04000893          	li	a7,64
    80002686:	02b68533          	mul	a0,a3,a1
    8000268a:	02c53433          	mulhu	s0,a0,a2
    8000268e:	8075                	srli	s0,s0,0x1d
    80002690:	02640433          	mul	s0,s0,t1
    80002694:	8d01                	sub	a0,a0,s0
    80002696:	02b50433          	mul	s0,a0,a1
    8000269a:	02c43733          	mulhu	a4,s0,a2
    8000269e:	8375                	srli	a4,a4,0x1d
    800026a0:	02670733          	mul	a4,a4,t1
    800026a4:	40e40733          	sub	a4,s0,a4
    800026a8:	02b70433          	mul	s0,a4,a1
    800026ac:	02c434b3          	mulhu	s1,s0,a2
    800026b0:	80f5                	srli	s1,s1,0x1d
    800026b2:	026484b3          	mul	s1,s1,t1
    800026b6:	00b683b3          	add	t2,a3,a1
    800026ba:	409404b3          	sub	s1,s0,s1
    800026be:	02b48433          	mul	s0,s1,a1
    800026c2:	00f286b3          	add	a3,t0,a5
    800026c6:	0076b023          	sd	t2,0(a3)
    800026ca:	952e                	add	a0,a0,a1
    800026cc:	02c433b3          	mulhu	t2,s0,a2
    800026d0:	e688                	sd	a0,8(a3)
    800026d2:	00b70533          	add	a0,a4,a1
    800026d6:	ea88                	sd	a0,16(a3)
    800026d8:	01d3d513          	srli	a0,t2,0x1d
    800026dc:	02650533          	mul	a0,a0,t1
    800026e0:	00b48733          	add	a4,s1,a1
    800026e4:	ee98                	sd	a4,24(a3)
    800026e6:	02078793          	addi	a5,a5,32
    800026ea:	40a406b3          	sub	a3,s0,a0
    800026ee:	f9179ce3          	bne	a5,a7,80002686 <main+0x67a>
    800026f2:	4581                	li	a1,0
    800026f4:	00d83023          	sd	a3,0(a6)
    800026f8:	b0002573          	csrr	a0,mcycle
    800026fc:	e82a                	sd	a0,16(sp)
    800026fe:	0002bd03          	ld	s10,0(t0)
    80002702:	0082b503          	ld	a0,8(t0)
    80002706:	ecaa                	sd	a0,88(sp)
    80002708:	0102b503          	ld	a0,16(t0)
    8000270c:	e8aa                	sd	a0,80(sp)
    8000270e:	0182b503          	ld	a0,24(t0)
    80002712:	e4aa                	sd	a0,72(sp)
    80002714:	0202b503          	ld	a0,32(t0)
    80002718:	e0aa                	sd	a0,64(sp)
    8000271a:	0282b503          	ld	a0,40(t0)
    8000271e:	fc2a                	sd	a0,56(sp)
    80002720:	0302b503          	ld	a0,48(t0)
    80002724:	f82a                	sd	a0,48(sp)
    80002726:	0382b503          	ld	a0,56(t0)
    8000272a:	f42a                	sd	a0,40(sp)
    8000272c:	0000b517          	auipc	a0,0xb
    80002730:	dbc50513          	addi	a0,a0,-580 # 8000d4e8 <output>
    80002734:	f02a                	sd	a0,32(sp)
    80002736:	6505                	lui	a0,0x1
    80002738:	2e85051b          	addiw	a0,a0,744 # 12e8 <buflen.1+0x12a8>
    8000273c:	ec2a                	sd	a0,24(sp)
    8000273e:	f0d2                	sd	s4,96(sp)
    80002740:	6505                	lui	a0,0x1
    80002742:	3305051b          	addiw	a0,a0,816 # 1330 <buflen.1+0x12f0>
    80002746:	950a                	add	a0,a0,sp
    80002748:	e10c                	sd	a1,0(a0)
    8000274a:	00a59513          	slli	a0,a1,0xa
    8000274e:	00aa0833          	add	a6,s4,a0
    80002752:	00083603          	ld	a2,0(a6)
    80002756:	72a2                	ld	t0,40(sp)
    80002758:	0052858b          	.insn	4, 0x0052858b
    8000275c:	78e2                	ld	a7,56(sp)
    8000275e:	7542                	ld	a0,48(sp)
    80002760:	e0a8858b          	.insn	4, 0xe0a8858b
    80002764:	64a6                	ld	s1,72(sp)
    80002766:	6406                	ld	s0,64(sp)
    80002768:	c084858b          	.insn	4, 0xc084858b
    8000276c:	6766                	ld	a4,88(sp)
    8000276e:	67c6                	ld	a5,80(sp)
    80002770:	a0f7058b          	.insn	4, 0xa0f7058b
    80002774:	81a0058b          	.insn	4, 0x81a0058b
    80002778:	60c6058b          	.insn	4, 0x60c6058b
    8000277c:	40c6058b          	.insn	4, 0x40c6058b
    80002780:	20c6058b          	.insn	4, 0x20c6058b
    80002784:	00c605fb          	.insn	4, 0x00c605fb
    80002788:	6685                	lui	a3,0x1
    8000278a:	2f86869b          	addiw	a3,a3,760 # 12f8 <buflen.1+0x12b8>
    8000278e:	968a                	add	a3,a3,sp
    80002790:	e28c                	sd	a1,0(a3)
    80002792:	04083583          	ld	a1,64(a6)
    80002796:	4685                	li	a3,1
    80002798:	85a6868b          	.insn	4, 0x85a6868b
    8000279c:	4385                	li	t2,1
    8000279e:	a4f7068b          	.insn	4, 0xa4f7068b
    800027a2:	c484868b          	.insn	4, 0xc484868b
    800027a6:	e4a8868b          	.insn	4, 0xe4a8868b
    800027aa:	0452868b          	.insn	4, 0x0452868b
    800027ae:	64c6068b          	.insn	4, 0x64c6068b
    800027b2:	44c6068b          	.insn	4, 0x44c6068b
    800027b6:	24c6068b          	.insn	4, 0x24c6068b
    800027ba:	40c586fb          	.insn	4, 0x40c586fb
    800027be:	6305                	lui	t1,0x1
    800027c0:	2f03031b          	addiw	t1,t1,752 # 12f0 <buflen.1+0x12b0>
    800027c4:	930a                	add	t1,t1,sp
    800027c6:	00d33023          	sd	a3,0(t1)
    800027ca:	4689                	li	a3,2
    800027cc:	89a6868b          	.insn	4, 0x89a6868b
    800027d0:	4309                	li	t1,2
    800027d2:	a8f7068b          	.insn	4, 0xa8f7068b
    800027d6:	c884868b          	.insn	4, 0xc884868b
    800027da:	e8a8868b          	.insn	4, 0xe8a8868b
    800027de:	0852868b          	.insn	4, 0x0852868b
    800027e2:	68c6068b          	.insn	4, 0x68c6068b
    800027e6:	48c6068b          	.insn	4, 0x48c6068b
    800027ea:	28c6068b          	.insn	4, 0x28c6068b
    800027ee:	80b586fb          	.insn	4, 0x80b586fb
    800027f2:	6e05                	lui	t3,0x1
    800027f4:	2e8e0e1b          	addiw	t3,t3,744 # 12e8 <buflen.1+0x12a8>
    800027f8:	9e0a                	add	t3,t3,sp
    800027fa:	00de3023          	sd	a3,0(t3)
    800027fe:	468d                	li	a3,3
    80002800:	8da6868b          	.insn	4, 0x8da6868b
    80002804:	4e0d                	li	t3,3
    80002806:	acf7068b          	.insn	4, 0xacf7068b
    8000280a:	cc84868b          	.insn	4, 0xcc84868b
    8000280e:	eca8868b          	.insn	4, 0xeca8868b
    80002812:	0c52868b          	.insn	4, 0x0c52868b
    80002816:	6cc6068b          	.insn	4, 0x6cc6068b
    8000281a:	4cc6068b          	.insn	4, 0x4cc6068b
    8000281e:	2cc5868b          	.insn	4, 0x2cc5868b
    80002822:	c0b586fb          	.insn	4, 0xc0b586fb
    80002826:	6e85                	lui	t4,0x1
    80002828:	2e0e8e9b          	addiw	t4,t4,736 # 12e0 <buflen.1+0x12a0>
    8000282c:	9e8a                	add	t4,t4,sp
    8000282e:	00deb023          	sd	a3,0(t4)
    80002832:	4691                	li	a3,4
    80002834:	9da6868b          	.insn	4, 0x9da6868b
    80002838:	bcf7068b          	.insn	4, 0xbcf7068b
    8000283c:	dc84868b          	.insn	4, 0xdc84868b
    80002840:	fca8868b          	.insn	4, 0xfca8868b
    80002844:	1c52868b          	.insn	4, 0x1c52868b
    80002848:	7cc6068b          	.insn	4, 0x7cc6068b
    8000284c:	5cc6068b          	.insn	4, 0x5cc6068b
    80002850:	3cb5868b          	.insn	4, 0x3cb5868b
    80002854:	c0b5857b          	.insn	4, 0xc0b5857b
    80002858:	6685                	lui	a3,0x1
    8000285a:	2c06869b          	addiw	a3,a3,704 # 12c0 <buflen.1+0x1280>
    8000285e:	968a                	add	a3,a3,sp
    80002860:	e288                	sd	a0,0(a3)
    80002862:	4515                	li	a0,5
    80002864:	9da5068b          	.insn	4, 0x9da5068b
    80002868:	4e95                	li	t4,5
    8000286a:	c8c5857b          	.insn	4, 0xc8c5857b
    8000286e:	6685                	lui	a3,0x1
    80002870:	2d86869b          	addiw	a3,a3,728 # 12d8 <buflen.1+0x1298>
    80002874:	968a                	add	a3,a3,sp
    80002876:	e288                	sd	a0,0(a3)
    80002878:	4519                	li	a0,6
    8000287a:	9da5068b          	.insn	4, 0x9da5068b
    8000287e:	4999                	li	s3,6
    80002880:	c8b5857b          	.insn	4, 0xc8b5857b
    80002884:	6685                	lui	a3,0x1
    80002886:	2d06869b          	addiw	a3,a3,720 # 12d0 <buflen.1+0x1290>
    8000288a:	968a                	add	a3,a3,sp
    8000288c:	e288                	sd	a0,0(a3)
    8000288e:	451d                	li	a0,7
    80002890:	9da5068b          	.insn	4, 0x9da5068b
    80002894:	471d                	li	a4,7
    80002896:	7cc5860b          	.insn	4, 0x7cc5860b
    8000289a:	c8b5857b          	.insn	4, 0xc8b5857b
    8000289e:	6605                	lui	a2,0x1
    800028a0:	2c86061b          	addiw	a2,a2,712 # 12c8 <buflen.1+0x1288>
    800028a4:	960a                	add	a2,a2,sp
    800028a6:	e208                	sd	a0,0(a2)
    800028a8:	7cb5860b          	.insn	4, 0x7cb5860b
    800028ac:	c8b5857b          	.insn	4, 0xc8b5857b
    800028b0:	6605                	lui	a2,0x1
    800028b2:	2b86061b          	addiw	a2,a2,696 # 12b8 <buflen.1+0x1278>
    800028b6:	960a                	add	a2,a2,sp
    800028b8:	e208                	sd	a0,0(a2)
    800028ba:	08083603          	ld	a2,128(a6)
    800028be:	9da3868b          	.insn	4, 0x9da3868b
    800028c2:	7cb5868b          	.insn	4, 0x7cb5868b
    800028c6:	5cb5868b          	.insn	4, 0x5cb5868b
    800028ca:	c0b6057b          	.insn	4, 0xc0b6057b
    800028ce:	6685                	lui	a3,0x1
    800028d0:	2a86869b          	addiw	a3,a3,680 # 12a8 <buflen.1+0x1268>
    800028d4:	968a                	add	a3,a3,sp
    800028d6:	e288                	sd	a0,0(a3)
    800028d8:	9da3068b          	.insn	4, 0x9da3068b
    800028dc:	7cb5868b          	.insn	4, 0x7cb5868b
    800028e0:	5cb5868b          	.insn	4, 0x5cb5868b
    800028e4:	c0c6057b          	.insn	4, 0xc0c6057b
    800028e8:	6685                	lui	a3,0x1
    800028ea:	2b06869b          	addiw	a3,a3,688 # 12b0 <buflen.1+0x1270>
    800028ee:	968a                	add	a3,a3,sp
    800028f0:	e288                	sd	a0,0(a3)
    800028f2:	9dae068b          	.insn	4, 0x9dae068b
    800028f6:	7cb5868b          	.insn	4, 0x7cb5868b
    800028fa:	5cb5868b          	.insn	4, 0x5cb5868b
    800028fe:	3cb6068b          	.insn	4, 0x3cb6068b
    80002902:	c0c6057b          	.insn	4, 0xc0c6057b
    80002906:	6685                	lui	a3,0x1
    80002908:	2a06869b          	addiw	a3,a3,672 # 12a0 <buflen.1+0x1260>
    8000290c:	968a                	add	a3,a3,sp
    8000290e:	e288                	sd	a0,0(a3)
    80002910:	7cb5868b          	.insn	4, 0x7cb5868b
    80002914:	5cb5868b          	.insn	4, 0x5cb5868b
    80002918:	3cc6068b          	.insn	4, 0x3cc6068b
    8000291c:	c0c6057b          	.insn	4, 0xc0c6057b
    80002920:	6685                	lui	a3,0x1
    80002922:	2986869b          	addiw	a3,a3,664 # 1298 <buflen.1+0x1258>
    80002926:	968a                	add	a3,a3,sp
    80002928:	e288                	sd	a0,0(a3)
    8000292a:	9dae868b          	.insn	4, 0x9dae868b
    8000292e:	7cb5868b          	.insn	4, 0x7cb5868b
    80002932:	5cb6068b          	.insn	4, 0x5cb6068b
    80002936:	3cc6068b          	.insn	4, 0x3cc6068b
    8000293a:	c0c6057b          	.insn	4, 0xc0c6057b
    8000293e:	6685                	lui	a3,0x1
    80002940:	2906869b          	addiw	a3,a3,656 # 1290 <buflen.1+0x1250>
    80002944:	968a                	add	a3,a3,sp
    80002946:	e288                	sd	a0,0(a3)
    80002948:	9da9868b          	.insn	4, 0x9da9868b
    8000294c:	7cb5868b          	.insn	4, 0x7cb5868b
    80002950:	5cc6068b          	.insn	4, 0x5cc6068b
    80002954:	3cc6068b          	.insn	4, 0x3cc6068b
    80002958:	c0c6057b          	.insn	4, 0xc0c6057b
    8000295c:	6685                	lui	a3,0x1
    8000295e:	2806869b          	addiw	a3,a3,640 # 1280 <buflen.1+0x1240>
    80002962:	968a                	add	a3,a3,sp
    80002964:	e288                	sd	a0,0(a3)
    80002966:	9da7068b          	.insn	4, 0x9da7068b
    8000296a:	7cb6058b          	.insn	4, 0x7cb6058b
    8000296e:	5cc6058b          	.insn	4, 0x5cc6058b
    80002972:	3cc6058b          	.insn	4, 0x3cc6058b
    80002976:	c0c6057b          	.insn	4, 0xc0c6057b
    8000297a:	6585                	lui	a1,0x1
    8000297c:	2885859b          	addiw	a1,a1,648 # 1288 <buflen.1+0x1248>
    80002980:	958a                	add	a1,a1,sp
    80002982:	e188                	sd	a0,0(a1)
    80002984:	7cc6058b          	.insn	4, 0x7cc6058b
    80002988:	5cc6058b          	.insn	4, 0x5cc6058b
    8000298c:	3cc6058b          	.insn	4, 0x3cc6058b
    80002990:	c0c6057b          	.insn	4, 0xc0c6057b
    80002994:	6585                	lui	a1,0x1
    80002996:	2785859b          	addiw	a1,a1,632 # 1278 <buflen.1+0x1238>
    8000299a:	958a                	add	a1,a1,sp
    8000299c:	e188                	sd	a0,0(a1)
    8000299e:	0c083583          	ld	a1,192(a6)
    800029a2:	9da3868b          	.insn	4, 0x9da3868b
    800029a6:	7cc6068b          	.insn	4, 0x7cc6068b
    800029aa:	5cc6068b          	.insn	4, 0x5cc6068b
    800029ae:	3cc6068b          	.insn	4, 0x3cc6068b
    800029b2:	c0c5857b          	.insn	4, 0xc0c5857b
    800029b6:	6685                	lui	a3,0x1
    800029b8:	2706869b          	addiw	a3,a3,624 # 1270 <buflen.1+0x1230>
    800029bc:	968a                	add	a3,a3,sp
    800029be:	e288                	sd	a0,0(a3)
    800029c0:	9da3068b          	.insn	4, 0x9da3068b
    800029c4:	7cc6068b          	.insn	4, 0x7cc6068b
    800029c8:	5cc6068b          	.insn	4, 0x5cc6068b
    800029cc:	3cc6068b          	.insn	4, 0x3cc6068b
    800029d0:	c0b5857b          	.insn	4, 0xc0b5857b
    800029d4:	6685                	lui	a3,0x1
    800029d6:	2686869b          	addiw	a3,a3,616 # 1268 <buflen.1+0x1228>
    800029da:	968a                	add	a3,a3,sp
    800029dc:	e288                	sd	a0,0(a3)
    800029de:	9dae068b          	.insn	4, 0x9dae068b
    800029e2:	7cc6068b          	.insn	4, 0x7cc6068b
    800029e6:	5cc6068b          	.insn	4, 0x5cc6068b
    800029ea:	3cc5868b          	.insn	4, 0x3cc5868b
    800029ee:	c0b5857b          	.insn	4, 0xc0b5857b
    800029f2:	6685                	lui	a3,0x1
    800029f4:	2586869b          	addiw	a3,a3,600 # 1258 <buflen.1+0x1218>
    800029f8:	968a                	add	a3,a3,sp
    800029fa:	e288                	sd	a0,0(a3)
    800029fc:	7cc6068b          	.insn	4, 0x7cc6068b
    80002a00:	5cc6068b          	.insn	4, 0x5cc6068b
    80002a04:	3cb5868b          	.insn	4, 0x3cb5868b
    80002a08:	c0b5857b          	.insn	4, 0xc0b5857b
    80002a0c:	6685                	lui	a3,0x1
    80002a0e:	2606869b          	addiw	a3,a3,608 # 1260 <buflen.1+0x1220>
    80002a12:	968a                	add	a3,a3,sp
    80002a14:	e288                	sd	a0,0(a3)
    80002a16:	9dae868b          	.insn	4, 0x9dae868b
    80002a1a:	7cc6068b          	.insn	4, 0x7cc6068b
    80002a1e:	5cc5868b          	.insn	4, 0x5cc5868b
    80002a22:	3cb5868b          	.insn	4, 0x3cb5868b
    80002a26:	c0b5857b          	.insn	4, 0xc0b5857b
    80002a2a:	6685                	lui	a3,0x1
    80002a2c:	2506869b          	addiw	a3,a3,592 # 1250 <buflen.1+0x1210>
    80002a30:	968a                	add	a3,a3,sp
    80002a32:	e288                	sd	a0,0(a3)
    80002a34:	9da9868b          	.insn	4, 0x9da9868b
    80002a38:	7cc6068b          	.insn	4, 0x7cc6068b
    80002a3c:	5cb5868b          	.insn	4, 0x5cb5868b
    80002a40:	3cb5868b          	.insn	4, 0x3cb5868b
    80002a44:	c0b5857b          	.insn	4, 0xc0b5857b
    80002a48:	6685                	lui	a3,0x1
    80002a4a:	2486869b          	addiw	a3,a3,584 # 1248 <buflen.1+0x1208>
    80002a4e:	968a                	add	a3,a3,sp
    80002a50:	e288                	sd	a0,0(a3)
    80002a52:	9da7068b          	.insn	4, 0x9da7068b
    80002a56:	7cc5860b          	.insn	4, 0x7cc5860b
    80002a5a:	5cb5860b          	.insn	4, 0x5cb5860b
    80002a5e:	3cb5860b          	.insn	4, 0x3cb5860b
    80002a62:	c0b5857b          	.insn	4, 0xc0b5857b
    80002a66:	6605                	lui	a2,0x1
    80002a68:	2406061b          	addiw	a2,a2,576 # 1240 <buflen.1+0x1200>
    80002a6c:	960a                	add	a2,a2,sp
    80002a6e:	e208                	sd	a0,0(a2)
    80002a70:	7cb5860b          	.insn	4, 0x7cb5860b
    80002a74:	5cb5860b          	.insn	4, 0x5cb5860b
    80002a78:	3cb5860b          	.insn	4, 0x3cb5860b
    80002a7c:	c0b5857b          	.insn	4, 0xc0b5857b
    80002a80:	6605                	lui	a2,0x1
    80002a82:	2386061b          	addiw	a2,a2,568 # 1238 <buflen.1+0x11f8>
    80002a86:	960a                	add	a2,a2,sp
    80002a88:	e208                	sd	a0,0(a2)
    80002a8a:	10083603          	ld	a2,256(a6)
    80002a8e:	9da3868b          	.insn	4, 0x9da3868b
    80002a92:	7cb5868b          	.insn	4, 0x7cb5868b
    80002a96:	5cb5868b          	.insn	4, 0x5cb5868b
    80002a9a:	3cb5868b          	.insn	4, 0x3cb5868b
    80002a9e:	c0b6057b          	.insn	4, 0xc0b6057b
    80002aa2:	6685                	lui	a3,0x1
    80002aa4:	2286869b          	addiw	a3,a3,552 # 1228 <buflen.1+0x11e8>
    80002aa8:	968a                	add	a3,a3,sp
    80002aaa:	e288                	sd	a0,0(a3)
    80002aac:	9da3068b          	.insn	4, 0x9da3068b
    80002ab0:	7cb5868b          	.insn	4, 0x7cb5868b
    80002ab4:	5cb5868b          	.insn	4, 0x5cb5868b
    80002ab8:	3cb5868b          	.insn	4, 0x3cb5868b
    80002abc:	c0c6057b          	.insn	4, 0xc0c6057b
    80002ac0:	6685                	lui	a3,0x1
    80002ac2:	2306869b          	addiw	a3,a3,560 # 1230 <buflen.1+0x11f0>
    80002ac6:	968a                	add	a3,a3,sp
    80002ac8:	e288                	sd	a0,0(a3)
    80002aca:	9dae068b          	.insn	4, 0x9dae068b
    80002ace:	7cb5868b          	.insn	4, 0x7cb5868b
    80002ad2:	5cb5868b          	.insn	4, 0x5cb5868b
    80002ad6:	3cb6068b          	.insn	4, 0x3cb6068b
    80002ada:	c0c6057b          	.insn	4, 0xc0c6057b
    80002ade:	6685                	lui	a3,0x1
    80002ae0:	2206869b          	addiw	a3,a3,544 # 1220 <buflen.1+0x11e0>
    80002ae4:	968a                	add	a3,a3,sp
    80002ae6:	e288                	sd	a0,0(a3)
    80002ae8:	7cb5868b          	.insn	4, 0x7cb5868b
    80002aec:	5cb5868b          	.insn	4, 0x5cb5868b
    80002af0:	3cc6068b          	.insn	4, 0x3cc6068b
    80002af4:	c0c6057b          	.insn	4, 0xc0c6057b
    80002af8:	6685                	lui	a3,0x1
    80002afa:	2186869b          	addiw	a3,a3,536 # 1218 <buflen.1+0x11d8>
    80002afe:	968a                	add	a3,a3,sp
    80002b00:	e288                	sd	a0,0(a3)
    80002b02:	9dae868b          	.insn	4, 0x9dae868b
    80002b06:	7cb5868b          	.insn	4, 0x7cb5868b
    80002b0a:	5cb6068b          	.insn	4, 0x5cb6068b
    80002b0e:	3cc6068b          	.insn	4, 0x3cc6068b
    80002b12:	c0c6057b          	.insn	4, 0xc0c6057b
    80002b16:	6685                	lui	a3,0x1
    80002b18:	2106869b          	addiw	a3,a3,528 # 1210 <buflen.1+0x11d0>
    80002b1c:	968a                	add	a3,a3,sp
    80002b1e:	e288                	sd	a0,0(a3)
    80002b20:	9da9868b          	.insn	4, 0x9da9868b
    80002b24:	7cb5868b          	.insn	4, 0x7cb5868b
    80002b28:	5cc6068b          	.insn	4, 0x5cc6068b
    80002b2c:	3cc6068b          	.insn	4, 0x3cc6068b
    80002b30:	c0c6057b          	.insn	4, 0xc0c6057b
    80002b34:	6685                	lui	a3,0x1
    80002b36:	2006869b          	addiw	a3,a3,512 # 1200 <buflen.1+0x11c0>
    80002b3a:	968a                	add	a3,a3,sp
    80002b3c:	e288                	sd	a0,0(a3)
    80002b3e:	7cb6058b          	.insn	4, 0x7cb6058b
    80002b42:	9da7058b          	.insn	4, 0x9da7058b
    80002b46:	5cc6058b          	.insn	4, 0x5cc6058b
    80002b4a:	3cc6058b          	.insn	4, 0x3cc6058b
    80002b4e:	c0c6057b          	.insn	4, 0xc0c6057b
    80002b52:	6585                	lui	a1,0x1
    80002b54:	2085859b          	addiw	a1,a1,520 # 1208 <buflen.1+0x11c8>
    80002b58:	958a                	add	a1,a1,sp
    80002b5a:	e188                	sd	a0,0(a1)
    80002b5c:	7cc6058b          	.insn	4, 0x7cc6058b
    80002b60:	5cc6058b          	.insn	4, 0x5cc6058b
    80002b64:	3cc6058b          	.insn	4, 0x3cc6058b
    80002b68:	c0c6057b          	.insn	4, 0xc0c6057b
    80002b6c:	6585                	lui	a1,0x1
    80002b6e:	1f85859b          	addiw	a1,a1,504 # 11f8 <buflen.1+0x11b8>
    80002b72:	958a                	add	a1,a1,sp
    80002b74:	e188                	sd	a0,0(a1)
    80002b76:	9da3858b          	.insn	4, 0x9da3858b
    80002b7a:	7cc6058b          	.insn	4, 0x7cc6058b
    80002b7e:	5cc6058b          	.insn	4, 0x5cc6058b
    80002b82:	14083583          	ld	a1,320(a6)
    80002b86:	3cc6068b          	.insn	4, 0x3cc6068b
    80002b8a:	c0c5857b          	.insn	4, 0xc0c5857b
    80002b8e:	6685                	lui	a3,0x1
    80002b90:	1f06869b          	addiw	a3,a3,496 # 11f0 <buflen.1+0x11b0>
    80002b94:	968a                	add	a3,a3,sp
    80002b96:	e288                	sd	a0,0(a3)
    80002b98:	9da3068b          	.insn	4, 0x9da3068b
    80002b9c:	7cc6068b          	.insn	4, 0x7cc6068b
    80002ba0:	5cc6068b          	.insn	4, 0x5cc6068b
    80002ba4:	3cc6068b          	.insn	4, 0x3cc6068b
    80002ba8:	c0b5857b          	.insn	4, 0xc0b5857b
    80002bac:	6685                	lui	a3,0x1
    80002bae:	1e06869b          	addiw	a3,a3,480 # 11e0 <buflen.1+0x11a0>
    80002bb2:	968a                	add	a3,a3,sp
    80002bb4:	e288                	sd	a0,0(a3)
    80002bb6:	9dae068b          	.insn	4, 0x9dae068b
    80002bba:	7cc6068b          	.insn	4, 0x7cc6068b
    80002bbe:	5cc6068b          	.insn	4, 0x5cc6068b
    80002bc2:	3cc5868b          	.insn	4, 0x3cc5868b
    80002bc6:	c0b5857b          	.insn	4, 0xc0b5857b
    80002bca:	6685                	lui	a3,0x1
    80002bcc:	1c86869b          	addiw	a3,a3,456 # 11c8 <buflen.1+0x1188>
    80002bd0:	968a                	add	a3,a3,sp
    80002bd2:	e288                	sd	a0,0(a3)
    80002bd4:	7cc6068b          	.insn	4, 0x7cc6068b
    80002bd8:	5cc6068b          	.insn	4, 0x5cc6068b
    80002bdc:	3cb5868b          	.insn	4, 0x3cb5868b
    80002be0:	c0b5857b          	.insn	4, 0xc0b5857b
    80002be4:	6685                	lui	a3,0x1
    80002be6:	1d86869b          	addiw	a3,a3,472 # 11d8 <buflen.1+0x1198>
    80002bea:	968a                	add	a3,a3,sp
    80002bec:	e288                	sd	a0,0(a3)
    80002bee:	9dae868b          	.insn	4, 0x9dae868b
    80002bf2:	7cc6068b          	.insn	4, 0x7cc6068b
    80002bf6:	5cc5868b          	.insn	4, 0x5cc5868b
    80002bfa:	3cb5868b          	.insn	4, 0x3cb5868b
    80002bfe:	c0b5857b          	.insn	4, 0xc0b5857b
    80002c02:	6685                	lui	a3,0x1
    80002c04:	1c06869b          	addiw	a3,a3,448 # 11c0 <buflen.1+0x1180>
    80002c08:	968a                	add	a3,a3,sp
    80002c0a:	e288                	sd	a0,0(a3)
    80002c0c:	9da9868b          	.insn	4, 0x9da9868b
    80002c10:	7cc6068b          	.insn	4, 0x7cc6068b
    80002c14:	5cb5868b          	.insn	4, 0x5cb5868b
    80002c18:	3cb5868b          	.insn	4, 0x3cb5868b
    80002c1c:	c0b5857b          	.insn	4, 0xc0b5857b
    80002c20:	6685                	lui	a3,0x1
    80002c22:	1b86869b          	addiw	a3,a3,440 # 11b8 <buflen.1+0x1178>
    80002c26:	968a                	add	a3,a3,sp
    80002c28:	e288                	sd	a0,0(a3)
    80002c2a:	7cc5860b          	.insn	4, 0x7cc5860b
    80002c2e:	9da7060b          	.insn	4, 0x9da7060b
    80002c32:	5cb5860b          	.insn	4, 0x5cb5860b
    80002c36:	3cb5860b          	.insn	4, 0x3cb5860b
    80002c3a:	c0b5857b          	.insn	4, 0xc0b5857b
    80002c3e:	6605                	lui	a2,0x1
    80002c40:	1a86061b          	addiw	a2,a2,424 # 11a8 <buflen.1+0x1168>
    80002c44:	960a                	add	a2,a2,sp
    80002c46:	e208                	sd	a0,0(a2)
    80002c48:	7cb5860b          	.insn	4, 0x7cb5860b
    80002c4c:	5cb5860b          	.insn	4, 0x5cb5860b
    80002c50:	3cb5860b          	.insn	4, 0x3cb5860b
    80002c54:	c0b5857b          	.insn	4, 0xc0b5857b
    80002c58:	6605                	lui	a2,0x1
    80002c5a:	1986061b          	addiw	a2,a2,408 # 1198 <buflen.1+0x1158>
    80002c5e:	960a                	add	a2,a2,sp
    80002c60:	e208                	sd	a0,0(a2)
    80002c62:	9da3860b          	.insn	4, 0x9da3860b
    80002c66:	7cb5860b          	.insn	4, 0x7cb5860b
    80002c6a:	5cb5860b          	.insn	4, 0x5cb5860b
    80002c6e:	18083603          	ld	a2,384(a6)
    80002c72:	3cb5868b          	.insn	4, 0x3cb5868b
    80002c76:	c0b6057b          	.insn	4, 0xc0b6057b
    80002c7a:	6685                	lui	a3,0x1
    80002c7c:	1a06869b          	addiw	a3,a3,416 # 11a0 <buflen.1+0x1160>
    80002c80:	968a                	add	a3,a3,sp
    80002c82:	e288                	sd	a0,0(a3)
    80002c84:	9da3068b          	.insn	4, 0x9da3068b
    80002c88:	7cb5868b          	.insn	4, 0x7cb5868b
    80002c8c:	5cb5868b          	.insn	4, 0x5cb5868b
    80002c90:	3cb5868b          	.insn	4, 0x3cb5868b
    80002c94:	c0c6057b          	.insn	4, 0xc0c6057b
    80002c98:	6685                	lui	a3,0x1
    80002c9a:	1886869b          	addiw	a3,a3,392 # 1188 <buflen.1+0x1148>
    80002c9e:	968a                	add	a3,a3,sp
    80002ca0:	e288                	sd	a0,0(a3)
    80002ca2:	9dae068b          	.insn	4, 0x9dae068b
    80002ca6:	7cb5868b          	.insn	4, 0x7cb5868b
    80002caa:	5cb5868b          	.insn	4, 0x5cb5868b
    80002cae:	3cb6068b          	.insn	4, 0x3cb6068b
    80002cb2:	c0c6057b          	.insn	4, 0xc0c6057b
    80002cb6:	6685                	lui	a3,0x1
    80002cb8:	1806869b          	addiw	a3,a3,384 # 1180 <buflen.1+0x1140>
    80002cbc:	968a                	add	a3,a3,sp
    80002cbe:	e288                	sd	a0,0(a3)
    80002cc0:	7cb5868b          	.insn	4, 0x7cb5868b
    80002cc4:	5cb5868b          	.insn	4, 0x5cb5868b
    80002cc8:	3cc6068b          	.insn	4, 0x3cc6068b
    80002ccc:	c0c6057b          	.insn	4, 0xc0c6057b
    80002cd0:	6685                	lui	a3,0x1
    80002cd2:	1786869b          	addiw	a3,a3,376 # 1178 <buflen.1+0x1138>
    80002cd6:	968a                	add	a3,a3,sp
    80002cd8:	e288                	sd	a0,0(a3)
    80002cda:	9dae868b          	.insn	4, 0x9dae868b
    80002cde:	7cb5868b          	.insn	4, 0x7cb5868b
    80002ce2:	5cb6068b          	.insn	4, 0x5cb6068b
    80002ce6:	3cc6068b          	.insn	4, 0x3cc6068b
    80002cea:	c0c6057b          	.insn	4, 0xc0c6057b
    80002cee:	6685                	lui	a3,0x1
    80002cf0:	1606869b          	addiw	a3,a3,352 # 1160 <buflen.1+0x1120>
    80002cf4:	968a                	add	a3,a3,sp
    80002cf6:	e288                	sd	a0,0(a3)
    80002cf8:	9da9868b          	.insn	4, 0x9da9868b
    80002cfc:	7cb5868b          	.insn	4, 0x7cb5868b
    80002d00:	5cc6068b          	.insn	4, 0x5cc6068b
    80002d04:	3cc6068b          	.insn	4, 0x3cc6068b
    80002d08:	c0c6057b          	.insn	4, 0xc0c6057b
    80002d0c:	6685                	lui	a3,0x1
    80002d0e:	1686869b          	addiw	a3,a3,360 # 1168 <buflen.1+0x1128>
    80002d12:	968a                	add	a3,a3,sp
    80002d14:	e288                	sd	a0,0(a3)
    80002d16:	7cb6058b          	.insn	4, 0x7cb6058b
    80002d1a:	9da7058b          	.insn	4, 0x9da7058b
    80002d1e:	5cc6058b          	.insn	4, 0x5cc6058b
    80002d22:	3cc6058b          	.insn	4, 0x3cc6058b
    80002d26:	c0c6057b          	.insn	4, 0xc0c6057b
    80002d2a:	6585                	lui	a1,0x1
    80002d2c:	1505859b          	addiw	a1,a1,336 # 1150 <buflen.1+0x1110>
    80002d30:	958a                	add	a1,a1,sp
    80002d32:	e188                	sd	a0,0(a1)
    80002d34:	7cc6058b          	.insn	4, 0x7cc6058b
    80002d38:	5cc6058b          	.insn	4, 0x5cc6058b
    80002d3c:	3cc6058b          	.insn	4, 0x3cc6058b
    80002d40:	c0c6057b          	.insn	4, 0xc0c6057b
    80002d44:	6585                	lui	a1,0x1
    80002d46:	1485859b          	addiw	a1,a1,328 # 1148 <buflen.1+0x1108>
    80002d4a:	958a                	add	a1,a1,sp
    80002d4c:	e188                	sd	a0,0(a1)
    80002d4e:	9da3858b          	.insn	4, 0x9da3858b
    80002d52:	7cc6058b          	.insn	4, 0x7cc6058b
    80002d56:	5cc6058b          	.insn	4, 0x5cc6058b
    80002d5a:	1c083583          	ld	a1,448(a6)
    80002d5e:	3cc6068b          	.insn	4, 0x3cc6068b
    80002d62:	c0c5857b          	.insn	4, 0xc0c5857b
    80002d66:	6685                	lui	a3,0x1
    80002d68:	1386869b          	addiw	a3,a3,312 # 1138 <buflen.1+0x10f8>
    80002d6c:	968a                	add	a3,a3,sp
    80002d6e:	e288                	sd	a0,0(a3)
    80002d70:	9da3068b          	.insn	4, 0x9da3068b
    80002d74:	7cc6068b          	.insn	4, 0x7cc6068b
    80002d78:	5cc6068b          	.insn	4, 0x5cc6068b
    80002d7c:	3cc6068b          	.insn	4, 0x3cc6068b
    80002d80:	c0b5857b          	.insn	4, 0xc0b5857b
    80002d84:	6685                	lui	a3,0x1
    80002d86:	1306869b          	addiw	a3,a3,304 # 1130 <buflen.1+0x10f0>
    80002d8a:	968a                	add	a3,a3,sp
    80002d8c:	e288                	sd	a0,0(a3)
    80002d8e:	9dae068b          	.insn	4, 0x9dae068b
    80002d92:	7cc6068b          	.insn	4, 0x7cc6068b
    80002d96:	5cc6068b          	.insn	4, 0x5cc6068b
    80002d9a:	3cc5868b          	.insn	4, 0x3cc5868b
    80002d9e:	c0b5857b          	.insn	4, 0xc0b5857b
    80002da2:	6685                	lui	a3,0x1
    80002da4:	1186869b          	addiw	a3,a3,280 # 1118 <buflen.1+0x10d8>
    80002da8:	968a                	add	a3,a3,sp
    80002daa:	e288                	sd	a0,0(a3)
    80002dac:	7cc6068b          	.insn	4, 0x7cc6068b
    80002db0:	5cc6068b          	.insn	4, 0x5cc6068b
    80002db4:	3cb5868b          	.insn	4, 0x3cb5868b
    80002db8:	c0b5857b          	.insn	4, 0xc0b5857b
    80002dbc:	6685                	lui	a3,0x1
    80002dbe:	1286869b          	addiw	a3,a3,296 # 1128 <buflen.1+0x10e8>
    80002dc2:	968a                	add	a3,a3,sp
    80002dc4:	e288                	sd	a0,0(a3)
    80002dc6:	9dae868b          	.insn	4, 0x9dae868b
    80002dca:	7cc6068b          	.insn	4, 0x7cc6068b
    80002dce:	5cc5868b          	.insn	4, 0x5cc5868b
    80002dd2:	3cb5868b          	.insn	4, 0x3cb5868b
    80002dd6:	c0b5857b          	.insn	4, 0xc0b5857b
    80002dda:	6685                	lui	a3,0x1
    80002ddc:	1106869b          	addiw	a3,a3,272 # 1110 <buflen.1+0x10d0>
    80002de0:	968a                	add	a3,a3,sp
    80002de2:	e288                	sd	a0,0(a3)
    80002de4:	9da9868b          	.insn	4, 0x9da9868b
    80002de8:	7cc6068b          	.insn	4, 0x7cc6068b
    80002dec:	5cb5868b          	.insn	4, 0x5cb5868b
    80002df0:	3cb5868b          	.insn	4, 0x3cb5868b
    80002df4:	c0b5857b          	.insn	4, 0xc0b5857b
    80002df8:	6685                	lui	a3,0x1
    80002dfa:	1006869b          	addiw	a3,a3,256 # 1100 <buflen.1+0x10c0>
    80002dfe:	968a                	add	a3,a3,sp
    80002e00:	e288                	sd	a0,0(a3)
    80002e02:	7cc5860b          	.insn	4, 0x7cc5860b
    80002e06:	9da7060b          	.insn	4, 0x9da7060b
    80002e0a:	5cb5860b          	.insn	4, 0x5cb5860b
    80002e0e:	3cb5860b          	.insn	4, 0x3cb5860b
    80002e12:	c0b5857b          	.insn	4, 0xc0b5857b
    80002e16:	6605                	lui	a2,0x1
    80002e18:	0f06061b          	addiw	a2,a2,240 # 10f0 <buflen.1+0x10b0>
    80002e1c:	960a                	add	a2,a2,sp
    80002e1e:	e208                	sd	a0,0(a2)
    80002e20:	7cb5860b          	.insn	4, 0x7cb5860b
    80002e24:	5cb5860b          	.insn	4, 0x5cb5860b
    80002e28:	3cb5860b          	.insn	4, 0x3cb5860b
    80002e2c:	c0b5857b          	.insn	4, 0xc0b5857b
    80002e30:	6605                	lui	a2,0x1
    80002e32:	0e06061b          	addiw	a2,a2,224 # 10e0 <buflen.1+0x10a0>
    80002e36:	960a                	add	a2,a2,sp
    80002e38:	e208                	sd	a0,0(a2)
    80002e3a:	9da3860b          	.insn	4, 0x9da3860b
    80002e3e:	7cb5860b          	.insn	4, 0x7cb5860b
    80002e42:	5cb5860b          	.insn	4, 0x5cb5860b
    80002e46:	20083603          	ld	a2,512(a6)
    80002e4a:	3cb5868b          	.insn	4, 0x3cb5868b
    80002e4e:	c0b6057b          	.insn	4, 0xc0b6057b
    80002e52:	6685                	lui	a3,0x1
    80002e54:	0e86869b          	addiw	a3,a3,232 # 10e8 <buflen.1+0x10a8>
    80002e58:	968a                	add	a3,a3,sp
    80002e5a:	e288                	sd	a0,0(a3)
    80002e5c:	9da3068b          	.insn	4, 0x9da3068b
    80002e60:	7cb5868b          	.insn	4, 0x7cb5868b
    80002e64:	5cb5868b          	.insn	4, 0x5cb5868b
    80002e68:	3cb5868b          	.insn	4, 0x3cb5868b
    80002e6c:	c0c6057b          	.insn	4, 0xc0c6057b
    80002e70:	6685                	lui	a3,0x1
    80002e72:	0d06869b          	addiw	a3,a3,208 # 10d0 <buflen.1+0x1090>
    80002e76:	968a                	add	a3,a3,sp
    80002e78:	e288                	sd	a0,0(a3)
    80002e7a:	9dae068b          	.insn	4, 0x9dae068b
    80002e7e:	7cb5868b          	.insn	4, 0x7cb5868b
    80002e82:	5cb5868b          	.insn	4, 0x5cb5868b
    80002e86:	3cb6068b          	.insn	4, 0x3cb6068b
    80002e8a:	c0c6057b          	.insn	4, 0xc0c6057b
    80002e8e:	6685                	lui	a3,0x1
    80002e90:	0c86869b          	addiw	a3,a3,200 # 10c8 <buflen.1+0x1088>
    80002e94:	968a                	add	a3,a3,sp
    80002e96:	e288                	sd	a0,0(a3)
    80002e98:	7cb5868b          	.insn	4, 0x7cb5868b
    80002e9c:	5cb5868b          	.insn	4, 0x5cb5868b
    80002ea0:	3cc6068b          	.insn	4, 0x3cc6068b
    80002ea4:	c0c6057b          	.insn	4, 0xc0c6057b
    80002ea8:	6685                	lui	a3,0x1
    80002eaa:	0c06869b          	addiw	a3,a3,192 # 10c0 <buflen.1+0x1080>
    80002eae:	968a                	add	a3,a3,sp
    80002eb0:	e288                	sd	a0,0(a3)
    80002eb2:	9dae868b          	.insn	4, 0x9dae868b
    80002eb6:	7cb5868b          	.insn	4, 0x7cb5868b
    80002eba:	5cb6068b          	.insn	4, 0x5cb6068b
    80002ebe:	3cc6068b          	.insn	4, 0x3cc6068b
    80002ec2:	c0c6057b          	.insn	4, 0xc0c6057b
    80002ec6:	6685                	lui	a3,0x1
    80002ec8:	0a86869b          	addiw	a3,a3,168 # 10a8 <buflen.1+0x1068>
    80002ecc:	968a                	add	a3,a3,sp
    80002ece:	e288                	sd	a0,0(a3)
    80002ed0:	9da9868b          	.insn	4, 0x9da9868b
    80002ed4:	7cb5868b          	.insn	4, 0x7cb5868b
    80002ed8:	5cc6068b          	.insn	4, 0x5cc6068b
    80002edc:	3cc6068b          	.insn	4, 0x3cc6068b
    80002ee0:	c0c6057b          	.insn	4, 0xc0c6057b
    80002ee4:	6685                	lui	a3,0x1
    80002ee6:	0b86869b          	addiw	a3,a3,184 # 10b8 <buflen.1+0x1078>
    80002eea:	968a                	add	a3,a3,sp
    80002eec:	e288                	sd	a0,0(a3)
    80002eee:	7cb6058b          	.insn	4, 0x7cb6058b
    80002ef2:	9da7058b          	.insn	4, 0x9da7058b
    80002ef6:	5cc6058b          	.insn	4, 0x5cc6058b
    80002efa:	3cc6058b          	.insn	4, 0x3cc6058b
    80002efe:	c0c6057b          	.insn	4, 0xc0c6057b
    80002f02:	6585                	lui	a1,0x1
    80002f04:	0a05859b          	addiw	a1,a1,160 # 10a0 <buflen.1+0x1060>
    80002f08:	958a                	add	a1,a1,sp
    80002f0a:	e188                	sd	a0,0(a1)
    80002f0c:	7cc6058b          	.insn	4, 0x7cc6058b
    80002f10:	5cc6058b          	.insn	4, 0x5cc6058b
    80002f14:	3cc6058b          	.insn	4, 0x3cc6058b
    80002f18:	c0c6057b          	.insn	4, 0xc0c6057b
    80002f1c:	6585                	lui	a1,0x1
    80002f1e:	0905859b          	addiw	a1,a1,144 # 1090 <buflen.1+0x1050>
    80002f22:	958a                	add	a1,a1,sp
    80002f24:	e188                	sd	a0,0(a1)
    80002f26:	9da3858b          	.insn	4, 0x9da3858b
    80002f2a:	7cc6058b          	.insn	4, 0x7cc6058b
    80002f2e:	5cc6058b          	.insn	4, 0x5cc6058b
    80002f32:	24083583          	ld	a1,576(a6)
    80002f36:	3cc6068b          	.insn	4, 0x3cc6068b
    80002f3a:	c0c5857b          	.insn	4, 0xc0c5857b
    80002f3e:	6685                	lui	a3,0x1
    80002f40:	0806869b          	addiw	a3,a3,128 # 1080 <buflen.1+0x1040>
    80002f44:	968a                	add	a3,a3,sp
    80002f46:	e288                	sd	a0,0(a3)
    80002f48:	9da3068b          	.insn	4, 0x9da3068b
    80002f4c:	7cc6068b          	.insn	4, 0x7cc6068b
    80002f50:	5cc6068b          	.insn	4, 0x5cc6068b
    80002f54:	3cc6068b          	.insn	4, 0x3cc6068b
    80002f58:	c0b5857b          	.insn	4, 0xc0b5857b
    80002f5c:	6685                	lui	a3,0x1
    80002f5e:	0706869b          	addiw	a3,a3,112 # 1070 <buflen.1+0x1030>
    80002f62:	968a                	add	a3,a3,sp
    80002f64:	e288                	sd	a0,0(a3)
    80002f66:	9dae068b          	.insn	4, 0x9dae068b
    80002f6a:	7cc6068b          	.insn	4, 0x7cc6068b
    80002f6e:	5cc6068b          	.insn	4, 0x5cc6068b
    80002f72:	3cc5868b          	.insn	4, 0x3cc5868b
    80002f76:	c0b5857b          	.insn	4, 0xc0b5857b
    80002f7a:	6685                	lui	a3,0x1
    80002f7c:	0606869b          	addiw	a3,a3,96 # 1060 <buflen.1+0x1020>
    80002f80:	968a                	add	a3,a3,sp
    80002f82:	e288                	sd	a0,0(a3)
    80002f84:	7cc6068b          	.insn	4, 0x7cc6068b
    80002f88:	5cc6068b          	.insn	4, 0x5cc6068b
    80002f8c:	3cb5868b          	.insn	4, 0x3cb5868b
    80002f90:	c0b5857b          	.insn	4, 0xc0b5857b
    80002f94:	6685                	lui	a3,0x1
    80002f96:	0686869b          	addiw	a3,a3,104 # 1068 <buflen.1+0x1028>
    80002f9a:	968a                	add	a3,a3,sp
    80002f9c:	e288                	sd	a0,0(a3)
    80002f9e:	9dae868b          	.insn	4, 0x9dae868b
    80002fa2:	7cc6068b          	.insn	4, 0x7cc6068b
    80002fa6:	5cc5868b          	.insn	4, 0x5cc5868b
    80002faa:	3cb5868b          	.insn	4, 0x3cb5868b
    80002fae:	c0b5857b          	.insn	4, 0xc0b5857b
    80002fb2:	6685                	lui	a3,0x1
    80002fb4:	0586869b          	addiw	a3,a3,88 # 1058 <buflen.1+0x1018>
    80002fb8:	968a                	add	a3,a3,sp
    80002fba:	e288                	sd	a0,0(a3)
    80002fbc:	9da9868b          	.insn	4, 0x9da9868b
    80002fc0:	7cc6068b          	.insn	4, 0x7cc6068b
    80002fc4:	5cb5868b          	.insn	4, 0x5cb5868b
    80002fc8:	3cb5868b          	.insn	4, 0x3cb5868b
    80002fcc:	c0b5857b          	.insn	4, 0xc0b5857b
    80002fd0:	6685                	lui	a3,0x1
    80002fd2:	0506869b          	addiw	a3,a3,80 # 1050 <buflen.1+0x1010>
    80002fd6:	968a                	add	a3,a3,sp
    80002fd8:	e288                	sd	a0,0(a3)
    80002fda:	7cc5860b          	.insn	4, 0x7cc5860b
    80002fde:	9da7060b          	.insn	4, 0x9da7060b
    80002fe2:	5cb5860b          	.insn	4, 0x5cb5860b
    80002fe6:	3cb5860b          	.insn	4, 0x3cb5860b
    80002fea:	c0b5857b          	.insn	4, 0xc0b5857b
    80002fee:	6605                	lui	a2,0x1
    80002ff0:	0486061b          	addiw	a2,a2,72 # 1048 <buflen.1+0x1008>
    80002ff4:	960a                	add	a2,a2,sp
    80002ff6:	e208                	sd	a0,0(a2)
    80002ff8:	7cb5860b          	.insn	4, 0x7cb5860b
    80002ffc:	5cb5860b          	.insn	4, 0x5cb5860b
    80003000:	3cb5860b          	.insn	4, 0x3cb5860b
    80003004:	c0b5857b          	.insn	4, 0xc0b5857b
    80003008:	6605                	lui	a2,0x1
    8000300a:	0386061b          	addiw	a2,a2,56 # 1038 <buflen.1+0xff8>
    8000300e:	960a                	add	a2,a2,sp
    80003010:	e208                	sd	a0,0(a2)
    80003012:	9da3860b          	.insn	4, 0x9da3860b
    80003016:	7cb5860b          	.insn	4, 0x7cb5860b
    8000301a:	5cb5860b          	.insn	4, 0x5cb5860b
    8000301e:	28083603          	ld	a2,640(a6)
    80003022:	3cb5868b          	.insn	4, 0x3cb5868b
    80003026:	c0b6057b          	.insn	4, 0xc0b6057b
    8000302a:	6685                	lui	a3,0x1
    8000302c:	0406869b          	addiw	a3,a3,64 # 1040 <buflen.1+0x1000>
    80003030:	968a                	add	a3,a3,sp
    80003032:	e288                	sd	a0,0(a3)
    80003034:	9da3068b          	.insn	4, 0x9da3068b
    80003038:	7cb5868b          	.insn	4, 0x7cb5868b
    8000303c:	5cb5868b          	.insn	4, 0x5cb5868b
    80003040:	3cb5868b          	.insn	4, 0x3cb5868b
    80003044:	c0c6057b          	.insn	4, 0xc0c6057b
    80003048:	6685                	lui	a3,0x1
    8000304a:	0306869b          	addiw	a3,a3,48 # 1030 <buflen.1+0xff0>
    8000304e:	968a                	add	a3,a3,sp
    80003050:	e288                	sd	a0,0(a3)
    80003052:	9dae068b          	.insn	4, 0x9dae068b
    80003056:	7cb5868b          	.insn	4, 0x7cb5868b
    8000305a:	5cb5868b          	.insn	4, 0x5cb5868b
    8000305e:	3cb6068b          	.insn	4, 0x3cb6068b
    80003062:	c0c6057b          	.insn	4, 0xc0c6057b
    80003066:	6685                	lui	a3,0x1
    80003068:	0286869b          	addiw	a3,a3,40 # 1028 <buflen.1+0xfe8>
    8000306c:	968a                	add	a3,a3,sp
    8000306e:	e288                	sd	a0,0(a3)
    80003070:	7cb5868b          	.insn	4, 0x7cb5868b
    80003074:	5cb5868b          	.insn	4, 0x5cb5868b
    80003078:	3cc6068b          	.insn	4, 0x3cc6068b
    8000307c:	c0c6057b          	.insn	4, 0xc0c6057b
    80003080:	6685                	lui	a3,0x1
    80003082:	0206869b          	addiw	a3,a3,32 # 1020 <buflen.1+0xfe0>
    80003086:	968a                	add	a3,a3,sp
    80003088:	e288                	sd	a0,0(a3)
    8000308a:	9dae868b          	.insn	4, 0x9dae868b
    8000308e:	7cb5868b          	.insn	4, 0x7cb5868b
    80003092:	5cb6068b          	.insn	4, 0x5cb6068b
    80003096:	3cc6068b          	.insn	4, 0x3cc6068b
    8000309a:	c0c6057b          	.insn	4, 0xc0c6057b
    8000309e:	6685                	lui	a3,0x1
    800030a0:	26c1                	addiw	a3,a3,16 # 1010 <buflen.1+0xfd0>
    800030a2:	968a                	add	a3,a3,sp
    800030a4:	e288                	sd	a0,0(a3)
    800030a6:	9da9868b          	.insn	4, 0x9da9868b
    800030aa:	7cb5868b          	.insn	4, 0x7cb5868b
    800030ae:	5cc6068b          	.insn	4, 0x5cc6068b
    800030b2:	3cc6068b          	.insn	4, 0x3cc6068b
    800030b6:	c0c6057b          	.insn	4, 0xc0c6057b
    800030ba:	6685                	lui	a3,0x1
    800030bc:	26e1                	addiw	a3,a3,24 # 1018 <buflen.1+0xfd8>
    800030be:	968a                	add	a3,a3,sp
    800030c0:	e288                	sd	a0,0(a3)
    800030c2:	7cb6058b          	.insn	4, 0x7cb6058b
    800030c6:	9da7058b          	.insn	4, 0x9da7058b
    800030ca:	5cc6058b          	.insn	4, 0x5cc6058b
    800030ce:	3cc6058b          	.insn	4, 0x3cc6058b
    800030d2:	c0c6057b          	.insn	4, 0xc0c6057b
    800030d6:	6585                	lui	a1,0x1
    800030d8:	25a1                	addiw	a1,a1,8 # 1008 <buflen.1+0xfc8>
    800030da:	958a                	add	a1,a1,sp
    800030dc:	e188                	sd	a0,0(a1)
    800030de:	7cc6058b          	.insn	4, 0x7cc6058b
    800030e2:	5cc6058b          	.insn	4, 0x5cc6058b
    800030e6:	3cc6058b          	.insn	4, 0x3cc6058b
    800030ea:	c0c6057b          	.insn	4, 0xc0c6057b
    800030ee:	6585                	lui	a1,0x1
    800030f0:	958a                	add	a1,a1,sp
    800030f2:	e188                	sd	a0,0(a1)
    800030f4:	9da3858b          	.insn	4, 0x9da3858b
    800030f8:	7cc6058b          	.insn	4, 0x7cc6058b
    800030fc:	5cc6058b          	.insn	4, 0x5cc6058b
    80003100:	2c083583          	ld	a1,704(a6)
    80003104:	3cc6068b          	.insn	4, 0x3cc6068b
    80003108:	c0c5857b          	.insn	4, 0xc0c5857b
    8000310c:	6685                	lui	a3,0x1
    8000310e:	36e1                	addiw	a3,a3,-8 # ff8 <buflen.1+0xfb8>
    80003110:	968a                	add	a3,a3,sp
    80003112:	e288                	sd	a0,0(a3)
    80003114:	9da3068b          	.insn	4, 0x9da3068b
    80003118:	7cc6068b          	.insn	4, 0x7cc6068b
    8000311c:	5cc6068b          	.insn	4, 0x5cc6068b
    80003120:	3cc6068b          	.insn	4, 0x3cc6068b
    80003124:	c0b5857b          	.insn	4, 0xc0b5857b
    80003128:	6685                	lui	a3,0x1
    8000312a:	36a1                	addiw	a3,a3,-24 # fe8 <buflen.1+0xfa8>
    8000312c:	968a                	add	a3,a3,sp
    8000312e:	e288                	sd	a0,0(a3)
    80003130:	9dae068b          	.insn	4, 0x9dae068b
    80003134:	7cc6068b          	.insn	4, 0x7cc6068b
    80003138:	5cc6068b          	.insn	4, 0x5cc6068b
    8000313c:	3cc5868b          	.insn	4, 0x3cc5868b
    80003140:	c0b5857b          	.insn	4, 0xc0b5857b
    80003144:	6685                	lui	a3,0x1
    80003146:	36c1                	addiw	a3,a3,-16 # ff0 <buflen.1+0xfb0>
    80003148:	968a                	add	a3,a3,sp
    8000314a:	e288                	sd	a0,0(a3)
    8000314c:	7cc6068b          	.insn	4, 0x7cc6068b
    80003150:	5cc6068b          	.insn	4, 0x5cc6068b
    80003154:	3cb5868b          	.insn	4, 0x3cb5868b
    80003158:	c0b5857b          	.insn	4, 0xc0b5857b
    8000315c:	6685                	lui	a3,0x1
    8000315e:	3681                	addiw	a3,a3,-32 # fe0 <buflen.1+0xfa0>
    80003160:	968a                	add	a3,a3,sp
    80003162:	e288                	sd	a0,0(a3)
    80003164:	9dae868b          	.insn	4, 0x9dae868b
    80003168:	7cc6068b          	.insn	4, 0x7cc6068b
    8000316c:	5cc5868b          	.insn	4, 0x5cc5868b
    80003170:	3cb5868b          	.insn	4, 0x3cb5868b
    80003174:	c0b5857b          	.insn	4, 0xc0b5857b
    80003178:	6685                	lui	a3,0x1
    8000317a:	fd86869b          	addiw	a3,a3,-40 # fd8 <buflen.1+0xf98>
    8000317e:	968a                	add	a3,a3,sp
    80003180:	e288                	sd	a0,0(a3)
    80003182:	9da9868b          	.insn	4, 0x9da9868b
    80003186:	7cc6068b          	.insn	4, 0x7cc6068b
    8000318a:	5cb5868b          	.insn	4, 0x5cb5868b
    8000318e:	3cb5868b          	.insn	4, 0x3cb5868b
    80003192:	c0b5857b          	.insn	4, 0xc0b5857b
    80003196:	6685                	lui	a3,0x1
    80003198:	fd06869b          	addiw	a3,a3,-48 # fd0 <buflen.1+0xf90>
    8000319c:	968a                	add	a3,a3,sp
    8000319e:	e288                	sd	a0,0(a3)
    800031a0:	7cc5860b          	.insn	4, 0x7cc5860b
    800031a4:	9da7060b          	.insn	4, 0x9da7060b
    800031a8:	5cb5860b          	.insn	4, 0x5cb5860b
    800031ac:	3cb5860b          	.insn	4, 0x3cb5860b
    800031b0:	c0b5857b          	.insn	4, 0xc0b5857b
    800031b4:	6605                	lui	a2,0x1
    800031b6:	fc06061b          	addiw	a2,a2,-64 # fc0 <buflen.1+0xf80>
    800031ba:	960a                	add	a2,a2,sp
    800031bc:	e208                	sd	a0,0(a2)
    800031be:	7cb5860b          	.insn	4, 0x7cb5860b
    800031c2:	5cb5860b          	.insn	4, 0x5cb5860b
    800031c6:	3cb5860b          	.insn	4, 0x3cb5860b
    800031ca:	c0b5857b          	.insn	4, 0xc0b5857b
    800031ce:	6605                	lui	a2,0x1
    800031d0:	fc86061b          	addiw	a2,a2,-56 # fc8 <buflen.1+0xf88>
    800031d4:	960a                	add	a2,a2,sp
    800031d6:	e208                	sd	a0,0(a2)
    800031d8:	9da3860b          	.insn	4, 0x9da3860b
    800031dc:	7cb5860b          	.insn	4, 0x7cb5860b
    800031e0:	5cb5860b          	.insn	4, 0x5cb5860b
    800031e4:	30083603          	ld	a2,768(a6)
    800031e8:	3cb5868b          	.insn	4, 0x3cb5868b
    800031ec:	c0b6057b          	.insn	4, 0xc0b6057b
    800031f0:	6685                	lui	a3,0x1
    800031f2:	fb86869b          	addiw	a3,a3,-72 # fb8 <buflen.1+0xf78>
    800031f6:	968a                	add	a3,a3,sp
    800031f8:	e288                	sd	a0,0(a3)
    800031fa:	9da3068b          	.insn	4, 0x9da3068b
    800031fe:	7cb5868b          	.insn	4, 0x7cb5868b
    80003202:	5cb5868b          	.insn	4, 0x5cb5868b
    80003206:	3cb5868b          	.insn	4, 0x3cb5868b
    8000320a:	c0c6057b          	.insn	4, 0xc0c6057b
    8000320e:	6685                	lui	a3,0x1
    80003210:	fb06869b          	addiw	a3,a3,-80 # fb0 <buflen.1+0xf70>
    80003214:	968a                	add	a3,a3,sp
    80003216:	e288                	sd	a0,0(a3)
    80003218:	9dae068b          	.insn	4, 0x9dae068b
    8000321c:	7cb5868b          	.insn	4, 0x7cb5868b
    80003220:	5cb5868b          	.insn	4, 0x5cb5868b
    80003224:	3cb6068b          	.insn	4, 0x3cb6068b
    80003228:	c0c6057b          	.insn	4, 0xc0c6057b
    8000322c:	6685                	lui	a3,0x1
    8000322e:	fa86869b          	addiw	a3,a3,-88 # fa8 <buflen.1+0xf68>
    80003232:	968a                	add	a3,a3,sp
    80003234:	e288                	sd	a0,0(a3)
    80003236:	7cb5868b          	.insn	4, 0x7cb5868b
    8000323a:	5cb5868b          	.insn	4, 0x5cb5868b
    8000323e:	3cc6068b          	.insn	4, 0x3cc6068b
    80003242:	c0c6057b          	.insn	4, 0xc0c6057b
    80003246:	6685                	lui	a3,0x1
    80003248:	fa06869b          	addiw	a3,a3,-96 # fa0 <buflen.1+0xf60>
    8000324c:	968a                	add	a3,a3,sp
    8000324e:	e288                	sd	a0,0(a3)
    80003250:	9dae868b          	.insn	4, 0x9dae868b
    80003254:	7cb5868b          	.insn	4, 0x7cb5868b
    80003258:	5cb6068b          	.insn	4, 0x5cb6068b
    8000325c:	3cc6068b          	.insn	4, 0x3cc6068b
    80003260:	c0c6057b          	.insn	4, 0xc0c6057b
    80003264:	6685                	lui	a3,0x1
    80003266:	f906869b          	addiw	a3,a3,-112 # f90 <buflen.1+0xf50>
    8000326a:	968a                	add	a3,a3,sp
    8000326c:	e288                	sd	a0,0(a3)
    8000326e:	9da9868b          	.insn	4, 0x9da9868b
    80003272:	7cb5868b          	.insn	4, 0x7cb5868b
    80003276:	5cc6068b          	.insn	4, 0x5cc6068b
    8000327a:	3cc6068b          	.insn	4, 0x3cc6068b
    8000327e:	c0c6057b          	.insn	4, 0xc0c6057b
    80003282:	6685                	lui	a3,0x1
    80003284:	f986869b          	addiw	a3,a3,-104 # f98 <buflen.1+0xf58>
    80003288:	968a                	add	a3,a3,sp
    8000328a:	e288                	sd	a0,0(a3)
    8000328c:	7cb6058b          	.insn	4, 0x7cb6058b
    80003290:	9da7058b          	.insn	4, 0x9da7058b
    80003294:	5cc6058b          	.insn	4, 0x5cc6058b
    80003298:	3cc6058b          	.insn	4, 0x3cc6058b
    8000329c:	c0c6057b          	.insn	4, 0xc0c6057b
    800032a0:	6585                	lui	a1,0x1
    800032a2:	f885859b          	addiw	a1,a1,-120 # f88 <buflen.1+0xf48>
    800032a6:	958a                	add	a1,a1,sp
    800032a8:	e188                	sd	a0,0(a1)
    800032aa:	7cc6058b          	.insn	4, 0x7cc6058b
    800032ae:	5cc6058b          	.insn	4, 0x5cc6058b
    800032b2:	3cc6058b          	.insn	4, 0x3cc6058b
    800032b6:	c0c6057b          	.insn	4, 0xc0c6057b
    800032ba:	6585                	lui	a1,0x1
    800032bc:	f805859b          	addiw	a1,a1,-128 # f80 <buflen.1+0xf40>
    800032c0:	958a                	add	a1,a1,sp
    800032c2:	e188                	sd	a0,0(a1)
    800032c4:	9da3858b          	.insn	4, 0x9da3858b
    800032c8:	7cc6058b          	.insn	4, 0x7cc6058b
    800032cc:	5cc6058b          	.insn	4, 0x5cc6058b
    800032d0:	34083583          	ld	a1,832(a6)
    800032d4:	3cc6068b          	.insn	4, 0x3cc6068b
    800032d8:	c0c5857b          	.insn	4, 0xc0c5857b
    800032dc:	6685                	lui	a3,0x1
    800032de:	f786869b          	addiw	a3,a3,-136 # f78 <buflen.1+0xf38>
    800032e2:	968a                	add	a3,a3,sp
    800032e4:	e288                	sd	a0,0(a3)
    800032e6:	9da3068b          	.insn	4, 0x9da3068b
    800032ea:	7cc6068b          	.insn	4, 0x7cc6068b
    800032ee:	5cc6068b          	.insn	4, 0x5cc6068b
    800032f2:	3cc6068b          	.insn	4, 0x3cc6068b
    800032f6:	c0b5857b          	.insn	4, 0xc0b5857b
    800032fa:	6685                	lui	a3,0x1
    800032fc:	f706869b          	addiw	a3,a3,-144 # f70 <buflen.1+0xf30>
    80003300:	968a                	add	a3,a3,sp
    80003302:	e288                	sd	a0,0(a3)
    80003304:	9dae068b          	.insn	4, 0x9dae068b
    80003308:	7cc6068b          	.insn	4, 0x7cc6068b
    8000330c:	5cc6068b          	.insn	4, 0x5cc6068b
    80003310:	3cc5868b          	.insn	4, 0x3cc5868b
    80003314:	c0b5857b          	.insn	4, 0xc0b5857b
    80003318:	6685                	lui	a3,0x1
    8000331a:	f606869b          	addiw	a3,a3,-160 # f60 <buflen.1+0xf20>
    8000331e:	968a                	add	a3,a3,sp
    80003320:	e288                	sd	a0,0(a3)
    80003322:	7cc6068b          	.insn	4, 0x7cc6068b
    80003326:	5cc6068b          	.insn	4, 0x5cc6068b
    8000332a:	3cb5868b          	.insn	4, 0x3cb5868b
    8000332e:	c0b5857b          	.insn	4, 0xc0b5857b
    80003332:	6685                	lui	a3,0x1
    80003334:	f686869b          	addiw	a3,a3,-152 # f68 <buflen.1+0xf28>
    80003338:	968a                	add	a3,a3,sp
    8000333a:	e288                	sd	a0,0(a3)
    8000333c:	9dae868b          	.insn	4, 0x9dae868b
    80003340:	7cc6068b          	.insn	4, 0x7cc6068b
    80003344:	5cc5868b          	.insn	4, 0x5cc5868b
    80003348:	3cb5868b          	.insn	4, 0x3cb5868b
    8000334c:	c0b5857b          	.insn	4, 0xc0b5857b
    80003350:	6685                	lui	a3,0x1
    80003352:	f586869b          	addiw	a3,a3,-168 # f58 <buflen.1+0xf18>
    80003356:	968a                	add	a3,a3,sp
    80003358:	e288                	sd	a0,0(a3)
    8000335a:	9da9868b          	.insn	4, 0x9da9868b
    8000335e:	7cc6068b          	.insn	4, 0x7cc6068b
    80003362:	5cb5868b          	.insn	4, 0x5cb5868b
    80003366:	3cb5868b          	.insn	4, 0x3cb5868b
    8000336a:	c0b5857b          	.insn	4, 0xc0b5857b
    8000336e:	6685                	lui	a3,0x1
    80003370:	f506869b          	addiw	a3,a3,-176 # f50 <buflen.1+0xf10>
    80003374:	968a                	add	a3,a3,sp
    80003376:	e288                	sd	a0,0(a3)
    80003378:	7cc5860b          	.insn	4, 0x7cc5860b
    8000337c:	9da7060b          	.insn	4, 0x9da7060b
    80003380:	5cb5860b          	.insn	4, 0x5cb5860b
    80003384:	3cb5860b          	.insn	4, 0x3cb5860b
    80003388:	c0b5857b          	.insn	4, 0xc0b5857b
    8000338c:	6605                	lui	a2,0x1
    8000338e:	f486061b          	addiw	a2,a2,-184 # f48 <buflen.1+0xf08>
    80003392:	960a                	add	a2,a2,sp
    80003394:	e208                	sd	a0,0(a2)
    80003396:	7cb5860b          	.insn	4, 0x7cb5860b
    8000339a:	5cb5860b          	.insn	4, 0x5cb5860b
    8000339e:	3cb5860b          	.insn	4, 0x3cb5860b
    800033a2:	c0b5857b          	.insn	4, 0xc0b5857b
    800033a6:	6605                	lui	a2,0x1
    800033a8:	f306061b          	addiw	a2,a2,-208 # f30 <buflen.1+0xef0>
    800033ac:	960a                	add	a2,a2,sp
    800033ae:	e208                	sd	a0,0(a2)
    800033b0:	9da3860b          	.insn	4, 0x9da3860b
    800033b4:	7cb5860b          	.insn	4, 0x7cb5860b
    800033b8:	5cb5860b          	.insn	4, 0x5cb5860b
    800033bc:	38083603          	ld	a2,896(a6)
    800033c0:	3cb5868b          	.insn	4, 0x3cb5868b
    800033c4:	c0b6057b          	.insn	4, 0xc0b6057b
    800033c8:	6685                	lui	a3,0x1
    800033ca:	f406869b          	addiw	a3,a3,-192 # f40 <buflen.1+0xf00>
    800033ce:	968a                	add	a3,a3,sp
    800033d0:	e288                	sd	a0,0(a3)
    800033d2:	9da3068b          	.insn	4, 0x9da3068b
    800033d6:	7cb5868b          	.insn	4, 0x7cb5868b
    800033da:	5cb5868b          	.insn	4, 0x5cb5868b
    800033de:	3cb5868b          	.insn	4, 0x3cb5868b
    800033e2:	c0c6057b          	.insn	4, 0xc0c6057b
    800033e6:	6685                	lui	a3,0x1
    800033e8:	f286869b          	addiw	a3,a3,-216 # f28 <buflen.1+0xee8>
    800033ec:	968a                	add	a3,a3,sp
    800033ee:	e288                	sd	a0,0(a3)
    800033f0:	9dae068b          	.insn	4, 0x9dae068b
    800033f4:	7cb5868b          	.insn	4, 0x7cb5868b
    800033f8:	5cb5868b          	.insn	4, 0x5cb5868b
    800033fc:	3cb6068b          	.insn	4, 0x3cb6068b
    80003400:	c0c6057b          	.insn	4, 0xc0c6057b
    80003404:	6685                	lui	a3,0x1
    80003406:	f186869b          	addiw	a3,a3,-232 # f18 <buflen.1+0xed8>
    8000340a:	968a                	add	a3,a3,sp
    8000340c:	e288                	sd	a0,0(a3)
    8000340e:	7cb5868b          	.insn	4, 0x7cb5868b
    80003412:	5cb5868b          	.insn	4, 0x5cb5868b
    80003416:	3cc6068b          	.insn	4, 0x3cc6068b
    8000341a:	c0c6057b          	.insn	4, 0xc0c6057b
    8000341e:	6685                	lui	a3,0x1
    80003420:	f106869b          	addiw	a3,a3,-240 # f10 <buflen.1+0xed0>
    80003424:	968a                	add	a3,a3,sp
    80003426:	e288                	sd	a0,0(a3)
    80003428:	9dae868b          	.insn	4, 0x9dae868b
    8000342c:	7cb5868b          	.insn	4, 0x7cb5868b
    80003430:	5cb6068b          	.insn	4, 0x5cb6068b
    80003434:	3cc6068b          	.insn	4, 0x3cc6068b
    80003438:	c0c6057b          	.insn	4, 0xc0c6057b
    8000343c:	6685                	lui	a3,0x1
    8000343e:	f086869b          	addiw	a3,a3,-248 # f08 <buflen.1+0xec8>
    80003442:	968a                	add	a3,a3,sp
    80003444:	e288                	sd	a0,0(a3)
    80003446:	9da9868b          	.insn	4, 0x9da9868b
    8000344a:	7cb5868b          	.insn	4, 0x7cb5868b
    8000344e:	5cc6068b          	.insn	4, 0x5cc6068b
    80003452:	3cc6068b          	.insn	4, 0x3cc6068b
    80003456:	c0c6057b          	.insn	4, 0xc0c6057b
    8000345a:	6685                	lui	a3,0x1
    8000345c:	ee86869b          	addiw	a3,a3,-280 # ee8 <buflen.1+0xea8>
    80003460:	968a                	add	a3,a3,sp
    80003462:	e288                	sd	a0,0(a3)
    80003464:	7cb6058b          	.insn	4, 0x7cb6058b
    80003468:	9da7058b          	.insn	4, 0x9da7058b
    8000346c:	5cc6058b          	.insn	4, 0x5cc6058b
    80003470:	3cc6058b          	.insn	4, 0x3cc6058b
    80003474:	c0c6057b          	.insn	4, 0xc0c6057b
    80003478:	6585                	lui	a1,0x1
    8000347a:	ef85859b          	addiw	a1,a1,-264 # ef8 <buflen.1+0xeb8>
    8000347e:	958a                	add	a1,a1,sp
    80003480:	e188                	sd	a0,0(a1)
    80003482:	7cc6058b          	.insn	4, 0x7cc6058b
    80003486:	5cc6058b          	.insn	4, 0x5cc6058b
    8000348a:	3cc6058b          	.insn	4, 0x3cc6058b
    8000348e:	c0c6057b          	.insn	4, 0xc0c6057b
    80003492:	6585                	lui	a1,0x1
    80003494:	ed85859b          	addiw	a1,a1,-296 # ed8 <buflen.1+0xe98>
    80003498:	958a                	add	a1,a1,sp
    8000349a:	e188                	sd	a0,0(a1)
    8000349c:	3c083503          	ld	a0,960(a6)
    800034a0:	9da3858b          	.insn	4, 0x9da3858b
    800034a4:	7cc6058b          	.insn	4, 0x7cc6058b
    800034a8:	5cc6058b          	.insn	4, 0x5cc6058b
    800034ac:	3cc6058b          	.insn	4, 0x3cc6058b
    800034b0:	c0c505fb          	.insn	4, 0xc0c505fb
    800034b4:	6685                	lui	a3,0x1
    800034b6:	ec06869b          	addiw	a3,a3,-320 # ec0 <buflen.1+0xe80>
    800034ba:	968a                	add	a3,a3,sp
    800034bc:	e28c                	sd	a1,0(a3)
    800034be:	9da3058b          	.insn	4, 0x9da3058b
    800034c2:	7cc6058b          	.insn	4, 0x7cc6058b
    800034c6:	5cc6058b          	.insn	4, 0x5cc6058b
    800034ca:	3cc6058b          	.insn	4, 0x3cc6058b
    800034ce:	c0a505fb          	.insn	4, 0xc0a505fb
    800034d2:	6685                	lui	a3,0x1
    800034d4:	eb06869b          	addiw	a3,a3,-336 # eb0 <buflen.1+0xe70>
    800034d8:	968a                	add	a3,a3,sp
    800034da:	e28c                	sd	a1,0(a3)
    800034dc:	9dae058b          	.insn	4, 0x9dae058b
    800034e0:	7cc6058b          	.insn	4, 0x7cc6058b
    800034e4:	5cc6058b          	.insn	4, 0x5cc6058b
    800034e8:	3cc5058b          	.insn	4, 0x3cc5058b
    800034ec:	c0a505fb          	.insn	4, 0xc0a505fb
    800034f0:	6685                	lui	a3,0x1
    800034f2:	e986869b          	addiw	a3,a3,-360 # e98 <buflen.1+0xe58>
    800034f6:	968a                	add	a3,a3,sp
    800034f8:	e28c                	sd	a1,0(a3)
    800034fa:	7cc6058b          	.insn	4, 0x7cc6058b
    800034fe:	5cc6058b          	.insn	4, 0x5cc6058b
    80003502:	3ca5058b          	.insn	4, 0x3ca5058b
    80003506:	c0a505fb          	.insn	4, 0xc0a505fb
    8000350a:	6685                	lui	a3,0x1
    8000350c:	ea06869b          	addiw	a3,a3,-352 # ea0 <buflen.1+0xe60>
    80003510:	968a                	add	a3,a3,sp
    80003512:	e28c                	sd	a1,0(a3)
    80003514:	9dae858b          	.insn	4, 0x9dae858b
    80003518:	7cc6058b          	.insn	4, 0x7cc6058b
    8000351c:	5cc5058b          	.insn	4, 0x5cc5058b
    80003520:	3ca5058b          	.insn	4, 0x3ca5058b
    80003524:	c0a505fb          	.insn	4, 0xc0a505fb
    80003528:	6685                	lui	a3,0x1
    8000352a:	e906869b          	addiw	a3,a3,-368 # e90 <buflen.1+0xe50>
    8000352e:	968a                	add	a3,a3,sp
    80003530:	e28c                	sd	a1,0(a3)
    80003532:	9da9858b          	.insn	4, 0x9da9858b
    80003536:	7cc6058b          	.insn	4, 0x7cc6058b
    8000353a:	5ca5058b          	.insn	4, 0x5ca5058b
    8000353e:	3ca5058b          	.insn	4, 0x3ca5058b
    80003542:	c0a505fb          	.insn	4, 0xc0a505fb
    80003546:	6685                	lui	a3,0x1
    80003548:	e806869b          	addiw	a3,a3,-384 # e80 <buflen.1+0xe40>
    8000354c:	968a                	add	a3,a3,sp
    8000354e:	e28c                	sd	a1,0(a3)
    80003550:	7cc5058b          	.insn	4, 0x7cc5058b
    80003554:	9da7058b          	.insn	4, 0x9da7058b
    80003558:	5ca5058b          	.insn	4, 0x5ca5058b
    8000355c:	3ca5058b          	.insn	4, 0x3ca5058b
    80003560:	c0a505fb          	.insn	4, 0xc0a505fb
    80003564:	6605                	lui	a2,0x1
    80003566:	e686061b          	addiw	a2,a2,-408 # e68 <buflen.1+0xe28>
    8000356a:	960a                	add	a2,a2,sp
    8000356c:	e20c                	sd	a1,0(a2)
    8000356e:	7ca5058b          	.insn	4, 0x7ca5058b
    80003572:	5ca5058b          	.insn	4, 0x5ca5058b
    80003576:	3ca5058b          	.insn	4, 0x3ca5058b
    8000357a:	c0a5057b          	.insn	4, 0xc0a5057b
    8000357e:	6585                	lui	a1,0x1
    80003580:	e785859b          	addiw	a1,a1,-392 # e78 <buflen.1+0xe38>
    80003584:	958a                	add	a1,a1,sp
    80003586:	e188                	sd	a0,0(a1)
    80003588:	6505                	lui	a0,0x1
    8000358a:	3305051b          	addiw	a0,a0,816 # 1330 <buflen.1+0x12f0>
    8000358e:	950a                	add	a0,a0,sp
    80003590:	6108                	ld	a0,0(a0)
    80003592:	00156513          	ori	a0,a0,1
    80003596:	6585                	lui	a1,0x1
    80003598:	e485859b          	addiw	a1,a1,-440 # e48 <buflen.1+0xe08>
    8000359c:	958a                	add	a1,a1,sp
    8000359e:	e188                	sd	a0,0(a1)
    800035a0:	052a                	slli	a0,a0,0xa
    800035a2:	9552                	add	a0,a0,s4
    800035a4:	6110                	ld	a2,0(a0)
    800035a6:	7cc6058b          	.insn	4, 0x7cc6058b
    800035aa:	5cc6058b          	.insn	4, 0x5cc6058b
    800035ae:	3cc6058b          	.insn	4, 0x3cc6058b
    800035b2:	c0c605fb          	.insn	4, 0xc0c605fb
    800035b6:	6685                	lui	a3,0x1
    800035b8:	e506869b          	addiw	a3,a3,-432 # e50 <buflen.1+0xe10>
    800035bc:	968a                	add	a3,a3,sp
    800035be:	e28c                	sd	a1,0(a3)
    800035c0:	9da3858b          	.insn	4, 0x9da3858b
    800035c4:	7cc6058b          	.insn	4, 0x7cc6058b
    800035c8:	5cc6058b          	.insn	4, 0x5cc6058b
    800035cc:	612c                	ld	a1,64(a0)
    800035ce:	3cc6068b          	.insn	4, 0x3cc6068b
    800035d2:	c0c586fb          	.insn	4, 0xc0c586fb
    800035d6:	6785                	lui	a5,0x1
    800035d8:	e387879b          	addiw	a5,a5,-456 # e38 <buflen.1+0xdf8>
    800035dc:	978a                	add	a5,a5,sp
    800035de:	e394                	sd	a3,0(a5)
    800035e0:	9da3068b          	.insn	4, 0x9da3068b
    800035e4:	7cc6068b          	.insn	4, 0x7cc6068b
    800035e8:	5cc6068b          	.insn	4, 0x5cc6068b
    800035ec:	3cc6068b          	.insn	4, 0x3cc6068b
    800035f0:	c0b586fb          	.insn	4, 0xc0b586fb
    800035f4:	6785                	lui	a5,0x1
    800035f6:	e207879b          	addiw	a5,a5,-480 # e20 <buflen.1+0xde0>
    800035fa:	978a                	add	a5,a5,sp
    800035fc:	e394                	sd	a3,0(a5)
    800035fe:	9dae068b          	.insn	4, 0x9dae068b
    80003602:	7cc6068b          	.insn	4, 0x7cc6068b
    80003606:	5cc6068b          	.insn	4, 0x5cc6068b
    8000360a:	3cc5868b          	.insn	4, 0x3cc5868b
    8000360e:	c0b586fb          	.insn	4, 0xc0b586fb
    80003612:	6785                	lui	a5,0x1
    80003614:	e307879b          	addiw	a5,a5,-464 # e30 <buflen.1+0xdf0>
    80003618:	978a                	add	a5,a5,sp
    8000361a:	e394                	sd	a3,0(a5)
    8000361c:	7cc6068b          	.insn	4, 0x7cc6068b
    80003620:	5cc6068b          	.insn	4, 0x5cc6068b
    80003624:	3cb5868b          	.insn	4, 0x3cb5868b
    80003628:	c0b586fb          	.insn	4, 0xc0b586fb
    8000362c:	6785                	lui	a5,0x1
    8000362e:	e187879b          	addiw	a5,a5,-488 # e18 <buflen.1+0xdd8>
    80003632:	978a                	add	a5,a5,sp
    80003634:	e394                	sd	a3,0(a5)
    80003636:	9dae868b          	.insn	4, 0x9dae868b
    8000363a:	7cc6068b          	.insn	4, 0x7cc6068b
    8000363e:	5cc5868b          	.insn	4, 0x5cc5868b
    80003642:	3cb5868b          	.insn	4, 0x3cb5868b
    80003646:	c0b586fb          	.insn	4, 0xc0b586fb
    8000364a:	6785                	lui	a5,0x1
    8000364c:	e107879b          	addiw	a5,a5,-496 # e10 <buflen.1+0xdd0>
    80003650:	978a                	add	a5,a5,sp
    80003652:	e394                	sd	a3,0(a5)
    80003654:	9da9868b          	.insn	4, 0x9da9868b
    80003658:	7cc6068b          	.insn	4, 0x7cc6068b
    8000365c:	5cb5868b          	.insn	4, 0x5cb5868b
    80003660:	3cb5868b          	.insn	4, 0x3cb5868b
    80003664:	c0b586fb          	.insn	4, 0xc0b586fb
    80003668:	6785                	lui	a5,0x1
    8000366a:	df87879b          	addiw	a5,a5,-520 # df8 <buflen.1+0xdb8>
    8000366e:	978a                	add	a5,a5,sp
    80003670:	e394                	sd	a3,0(a5)
    80003672:	7cc5860b          	.insn	4, 0x7cc5860b
    80003676:	9da7060b          	.insn	4, 0x9da7060b
    8000367a:	5cb5860b          	.insn	4, 0x5cb5860b
    8000367e:	3cb5860b          	.insn	4, 0x3cb5860b
    80003682:	c0b5867b          	.insn	4, 0xc0b5867b
    80003686:	6685                	lui	a3,0x1
    80003688:	de06869b          	addiw	a3,a3,-544 # de0 <buflen.1+0xda0>
    8000368c:	968a                	add	a3,a3,sp
    8000368e:	e290                	sd	a2,0(a3)
    80003690:	7cb5860b          	.insn	4, 0x7cb5860b
    80003694:	5cb5860b          	.insn	4, 0x5cb5860b
    80003698:	3cb5860b          	.insn	4, 0x3cb5860b
    8000369c:	c0b5867b          	.insn	4, 0xc0b5867b
    800036a0:	6685                	lui	a3,0x1
    800036a2:	dd86869b          	addiw	a3,a3,-552 # dd8 <buflen.1+0xd98>
    800036a6:	968a                	add	a3,a3,sp
    800036a8:	e290                	sd	a2,0(a3)
    800036aa:	9da3860b          	.insn	4, 0x9da3860b
    800036ae:	7cb5860b          	.insn	4, 0x7cb5860b
    800036b2:	5cb5860b          	.insn	4, 0x5cb5860b
    800036b6:	6150                	ld	a2,128(a0)
    800036b8:	3cb5868b          	.insn	4, 0x3cb5868b
    800036bc:	c0b606fb          	.insn	4, 0xc0b606fb
    800036c0:	6785                	lui	a5,0x1
    800036c2:	dd07879b          	addiw	a5,a5,-560 # dd0 <buflen.1+0xd90>
    800036c6:	978a                	add	a5,a5,sp
    800036c8:	e394                	sd	a3,0(a5)
    800036ca:	9da3068b          	.insn	4, 0x9da3068b
    800036ce:	7cb5868b          	.insn	4, 0x7cb5868b
    800036d2:	5cb5868b          	.insn	4, 0x5cb5868b
    800036d6:	3cb5868b          	.insn	4, 0x3cb5868b
    800036da:	c0c606fb          	.insn	4, 0xc0c606fb
    800036de:	6785                	lui	a5,0x1
    800036e0:	dc07879b          	addiw	a5,a5,-576 # dc0 <buflen.1+0xd80>
    800036e4:	978a                	add	a5,a5,sp
    800036e6:	e394                	sd	a3,0(a5)
    800036e8:	9dae068b          	.insn	4, 0x9dae068b
    800036ec:	7cb5868b          	.insn	4, 0x7cb5868b
    800036f0:	5cb5868b          	.insn	4, 0x5cb5868b
    800036f4:	3cb6068b          	.insn	4, 0x3cb6068b
    800036f8:	c0c606fb          	.insn	4, 0xc0c606fb
    800036fc:	6785                	lui	a5,0x1
    800036fe:	db87879b          	addiw	a5,a5,-584 # db8 <buflen.1+0xd78>
    80003702:	978a                	add	a5,a5,sp
    80003704:	e394                	sd	a3,0(a5)
    80003706:	7cb5868b          	.insn	4, 0x7cb5868b
    8000370a:	5cb5868b          	.insn	4, 0x5cb5868b
    8000370e:	3cc6068b          	.insn	4, 0x3cc6068b
    80003712:	c0c606fb          	.insn	4, 0xc0c606fb
    80003716:	6785                	lui	a5,0x1
    80003718:	db07879b          	addiw	a5,a5,-592 # db0 <buflen.1+0xd70>
    8000371c:	978a                	add	a5,a5,sp
    8000371e:	e394                	sd	a3,0(a5)
    80003720:	9dae868b          	.insn	4, 0x9dae868b
    80003724:	7cb5868b          	.insn	4, 0x7cb5868b
    80003728:	5cb6068b          	.insn	4, 0x5cb6068b
    8000372c:	3cc6068b          	.insn	4, 0x3cc6068b
    80003730:	c0c606fb          	.insn	4, 0xc0c606fb
    80003734:	6785                	lui	a5,0x1
    80003736:	da07879b          	addiw	a5,a5,-608 # da0 <buflen.1+0xd60>
    8000373a:	978a                	add	a5,a5,sp
    8000373c:	e394                	sd	a3,0(a5)
    8000373e:	9da9868b          	.insn	4, 0x9da9868b
    80003742:	7cb5868b          	.insn	4, 0x7cb5868b
    80003746:	5cc6068b          	.insn	4, 0x5cc6068b
    8000374a:	3cc6068b          	.insn	4, 0x3cc6068b
    8000374e:	c0c606fb          	.insn	4, 0xc0c606fb
    80003752:	6785                	lui	a5,0x1
    80003754:	d907879b          	addiw	a5,a5,-624 # d90 <buflen.1+0xd50>
    80003758:	978a                	add	a5,a5,sp
    8000375a:	e394                	sd	a3,0(a5)
    8000375c:	7cb6058b          	.insn	4, 0x7cb6058b
    80003760:	9da7058b          	.insn	4, 0x9da7058b
    80003764:	5cc6058b          	.insn	4, 0x5cc6058b
    80003768:	3cc6058b          	.insn	4, 0x3cc6058b
    8000376c:	c0c605fb          	.insn	4, 0xc0c605fb
    80003770:	6685                	lui	a3,0x1
    80003772:	d986869b          	addiw	a3,a3,-616 # d98 <buflen.1+0xd58>
    80003776:	968a                	add	a3,a3,sp
    80003778:	e28c                	sd	a1,0(a3)
    8000377a:	7cc6058b          	.insn	4, 0x7cc6058b
    8000377e:	5cc6058b          	.insn	4, 0x5cc6058b
    80003782:	3cc6058b          	.insn	4, 0x3cc6058b
    80003786:	c0c605fb          	.insn	4, 0xc0c605fb
    8000378a:	6685                	lui	a3,0x1
    8000378c:	d886869b          	addiw	a3,a3,-632 # d88 <buflen.1+0xd48>
    80003790:	968a                	add	a3,a3,sp
    80003792:	e28c                	sd	a1,0(a3)
    80003794:	9da3858b          	.insn	4, 0x9da3858b
    80003798:	7cc6058b          	.insn	4, 0x7cc6058b
    8000379c:	5cc6058b          	.insn	4, 0x5cc6058b
    800037a0:	616c                	ld	a1,192(a0)
    800037a2:	3cc6068b          	.insn	4, 0x3cc6068b
    800037a6:	c0c586fb          	.insn	4, 0xc0c586fb
    800037aa:	6785                	lui	a5,0x1
    800037ac:	d787879b          	addiw	a5,a5,-648 # d78 <buflen.1+0xd38>
    800037b0:	978a                	add	a5,a5,sp
    800037b2:	e394                	sd	a3,0(a5)
    800037b4:	9da3068b          	.insn	4, 0x9da3068b
    800037b8:	7cc6068b          	.insn	4, 0x7cc6068b
    800037bc:	5cc6068b          	.insn	4, 0x5cc6068b
    800037c0:	3cc6068b          	.insn	4, 0x3cc6068b
    800037c4:	c0b586fb          	.insn	4, 0xc0b586fb
    800037c8:	6785                	lui	a5,0x1
    800037ca:	d707879b          	addiw	a5,a5,-656 # d70 <buflen.1+0xd30>
    800037ce:	978a                	add	a5,a5,sp
    800037d0:	e394                	sd	a3,0(a5)
    800037d2:	9dae068b          	.insn	4, 0x9dae068b
    800037d6:	7cc6068b          	.insn	4, 0x7cc6068b
    800037da:	5cc6068b          	.insn	4, 0x5cc6068b
    800037de:	3cc5868b          	.insn	4, 0x3cc5868b
    800037e2:	c0b586fb          	.insn	4, 0xc0b586fb
    800037e6:	6785                	lui	a5,0x1
    800037e8:	d607879b          	addiw	a5,a5,-672 # d60 <buflen.1+0xd20>
    800037ec:	978a                	add	a5,a5,sp
    800037ee:	e394                	sd	a3,0(a5)
    800037f0:	7cc6068b          	.insn	4, 0x7cc6068b
    800037f4:	5cc6068b          	.insn	4, 0x5cc6068b
    800037f8:	3cb5868b          	.insn	4, 0x3cb5868b
    800037fc:	c0b586fb          	.insn	4, 0xc0b586fb
    80003800:	6785                	lui	a5,0x1
    80003802:	d687879b          	addiw	a5,a5,-664 # d68 <buflen.1+0xd28>
    80003806:	978a                	add	a5,a5,sp
    80003808:	e394                	sd	a3,0(a5)
    8000380a:	9dae868b          	.insn	4, 0x9dae868b
    8000380e:	7cc6068b          	.insn	4, 0x7cc6068b
    80003812:	5cc5868b          	.insn	4, 0x5cc5868b
    80003816:	3cb5868b          	.insn	4, 0x3cb5868b
    8000381a:	c0b586fb          	.insn	4, 0xc0b586fb
    8000381e:	6785                	lui	a5,0x1
    80003820:	d587879b          	addiw	a5,a5,-680 # d58 <buflen.1+0xd18>
    80003824:	978a                	add	a5,a5,sp
    80003826:	e394                	sd	a3,0(a5)
    80003828:	9da9868b          	.insn	4, 0x9da9868b
    8000382c:	7cc6068b          	.insn	4, 0x7cc6068b
    80003830:	5cb5868b          	.insn	4, 0x5cb5868b
    80003834:	3cb5868b          	.insn	4, 0x3cb5868b
    80003838:	c0b586fb          	.insn	4, 0xc0b586fb
    8000383c:	6785                	lui	a5,0x1
    8000383e:	d487879b          	addiw	a5,a5,-696 # d48 <buflen.1+0xd08>
    80003842:	978a                	add	a5,a5,sp
    80003844:	e394                	sd	a3,0(a5)
    80003846:	7cc5860b          	.insn	4, 0x7cc5860b
    8000384a:	9da7060b          	.insn	4, 0x9da7060b
    8000384e:	5cb5860b          	.insn	4, 0x5cb5860b
    80003852:	3cb5860b          	.insn	4, 0x3cb5860b
    80003856:	c0b5867b          	.insn	4, 0xc0b5867b
    8000385a:	6685                	lui	a3,0x1
    8000385c:	d386869b          	addiw	a3,a3,-712 # d38 <buflen.1+0xcf8>
    80003860:	968a                	add	a3,a3,sp
    80003862:	e290                	sd	a2,0(a3)
    80003864:	7cb5860b          	.insn	4, 0x7cb5860b
    80003868:	5cb5860b          	.insn	4, 0x5cb5860b
    8000386c:	3cb5860b          	.insn	4, 0x3cb5860b
    80003870:	c0b5867b          	.insn	4, 0xc0b5867b
    80003874:	6685                	lui	a3,0x1
    80003876:	d286869b          	addiw	a3,a3,-728 # d28 <buflen.1+0xce8>
    8000387a:	968a                	add	a3,a3,sp
    8000387c:	e290                	sd	a2,0(a3)
    8000387e:	9da3860b          	.insn	4, 0x9da3860b
    80003882:	7cb5860b          	.insn	4, 0x7cb5860b
    80003886:	5cb5860b          	.insn	4, 0x5cb5860b
    8000388a:	10053603          	ld	a2,256(a0)
    8000388e:	3cb5868b          	.insn	4, 0x3cb5868b
    80003892:	c0b606fb          	.insn	4, 0xc0b606fb
    80003896:	6785                	lui	a5,0x1
    80003898:	d307879b          	addiw	a5,a5,-720 # d30 <buflen.1+0xcf0>
    8000389c:	978a                	add	a5,a5,sp
    8000389e:	e394                	sd	a3,0(a5)
    800038a0:	9da3068b          	.insn	4, 0x9da3068b
    800038a4:	7cb5868b          	.insn	4, 0x7cb5868b
    800038a8:	5cb5868b          	.insn	4, 0x5cb5868b
    800038ac:	3cb5868b          	.insn	4, 0x3cb5868b
    800038b0:	c0c606fb          	.insn	4, 0xc0c606fb
    800038b4:	6785                	lui	a5,0x1
    800038b6:	d207879b          	addiw	a5,a5,-736 # d20 <buflen.1+0xce0>
    800038ba:	978a                	add	a5,a5,sp
    800038bc:	e394                	sd	a3,0(a5)
    800038be:	9dae068b          	.insn	4, 0x9dae068b
    800038c2:	7cb5868b          	.insn	4, 0x7cb5868b
    800038c6:	5cb5868b          	.insn	4, 0x5cb5868b
    800038ca:	3cb6068b          	.insn	4, 0x3cb6068b
    800038ce:	c0c606fb          	.insn	4, 0xc0c606fb
    800038d2:	6785                	lui	a5,0x1
    800038d4:	d107879b          	addiw	a5,a5,-752 # d10 <buflen.1+0xcd0>
    800038d8:	978a                	add	a5,a5,sp
    800038da:	e394                	sd	a3,0(a5)
    800038dc:	7cb5868b          	.insn	4, 0x7cb5868b
    800038e0:	5cb5868b          	.insn	4, 0x5cb5868b
    800038e4:	3cc6068b          	.insn	4, 0x3cc6068b
    800038e8:	c0c606fb          	.insn	4, 0xc0c606fb
    800038ec:	6785                	lui	a5,0x1
    800038ee:	cf87879b          	addiw	a5,a5,-776 # cf8 <buflen.1+0xcb8>
    800038f2:	978a                	add	a5,a5,sp
    800038f4:	e394                	sd	a3,0(a5)
    800038f6:	9dae868b          	.insn	4, 0x9dae868b
    800038fa:	7cb5868b          	.insn	4, 0x7cb5868b
    800038fe:	5cb6068b          	.insn	4, 0x5cb6068b
    80003902:	3cc6068b          	.insn	4, 0x3cc6068b
    80003906:	c0c606fb          	.insn	4, 0xc0c606fb
    8000390a:	6785                	lui	a5,0x1
    8000390c:	ce07879b          	addiw	a5,a5,-800 # ce0 <buflen.1+0xca0>
    80003910:	978a                	add	a5,a5,sp
    80003912:	e394                	sd	a3,0(a5)
    80003914:	9da9868b          	.insn	4, 0x9da9868b
    80003918:	7cb5868b          	.insn	4, 0x7cb5868b
    8000391c:	5cc6068b          	.insn	4, 0x5cc6068b
    80003920:	3cc6068b          	.insn	4, 0x3cc6068b
    80003924:	c0c606fb          	.insn	4, 0xc0c606fb
    80003928:	6785                	lui	a5,0x1
    8000392a:	cf07879b          	addiw	a5,a5,-784 # cf0 <buflen.1+0xcb0>
    8000392e:	978a                	add	a5,a5,sp
    80003930:	e394                	sd	a3,0(a5)
    80003932:	7cb6058b          	.insn	4, 0x7cb6058b
    80003936:	9da7058b          	.insn	4, 0x9da7058b
    8000393a:	5cc6058b          	.insn	4, 0x5cc6058b
    8000393e:	3cc6058b          	.insn	4, 0x3cc6058b
    80003942:	c0c605fb          	.insn	4, 0xc0c605fb
    80003946:	6685                	lui	a3,0x1
    80003948:	cd86869b          	addiw	a3,a3,-808 # cd8 <buflen.1+0xc98>
    8000394c:	968a                	add	a3,a3,sp
    8000394e:	e28c                	sd	a1,0(a3)
    80003950:	7cc6058b          	.insn	4, 0x7cc6058b
    80003954:	5cc6058b          	.insn	4, 0x5cc6058b
    80003958:	3cc6058b          	.insn	4, 0x3cc6058b
    8000395c:	c0c605fb          	.insn	4, 0xc0c605fb
    80003960:	6685                	lui	a3,0x1
    80003962:	cd06869b          	addiw	a3,a3,-816 # cd0 <buflen.1+0xc90>
    80003966:	968a                	add	a3,a3,sp
    80003968:	e28c                	sd	a1,0(a3)
    8000396a:	9da3858b          	.insn	4, 0x9da3858b
    8000396e:	7cc6058b          	.insn	4, 0x7cc6058b
    80003972:	5cc6058b          	.insn	4, 0x5cc6058b
    80003976:	14053583          	ld	a1,320(a0)
    8000397a:	3cc6068b          	.insn	4, 0x3cc6068b
    8000397e:	c0c586fb          	.insn	4, 0xc0c586fb
    80003982:	6785                	lui	a5,0x1
    80003984:	cc87879b          	addiw	a5,a5,-824 # cc8 <buflen.1+0xc88>
    80003988:	978a                	add	a5,a5,sp
    8000398a:	e394                	sd	a3,0(a5)
    8000398c:	9da3068b          	.insn	4, 0x9da3068b
    80003990:	7cc6068b          	.insn	4, 0x7cc6068b
    80003994:	5cc6068b          	.insn	4, 0x5cc6068b
    80003998:	3cc6068b          	.insn	4, 0x3cc6068b
    8000399c:	c0b586fb          	.insn	4, 0xc0b586fb
    800039a0:	6785                	lui	a5,0x1
    800039a2:	cb07879b          	addiw	a5,a5,-848 # cb0 <buflen.1+0xc70>
    800039a6:	978a                	add	a5,a5,sp
    800039a8:	e394                	sd	a3,0(a5)
    800039aa:	9dae068b          	.insn	4, 0x9dae068b
    800039ae:	7cc6068b          	.insn	4, 0x7cc6068b
    800039b2:	5cc6068b          	.insn	4, 0x5cc6068b
    800039b6:	3cc5868b          	.insn	4, 0x3cc5868b
    800039ba:	c0b586fb          	.insn	4, 0xc0b586fb
    800039be:	6785                	lui	a5,0x1
    800039c0:	cb87879b          	addiw	a5,a5,-840 # cb8 <buflen.1+0xc78>
    800039c4:	978a                	add	a5,a5,sp
    800039c6:	e394                	sd	a3,0(a5)
    800039c8:	7cc6068b          	.insn	4, 0x7cc6068b
    800039cc:	5cc6068b          	.insn	4, 0x5cc6068b
    800039d0:	3cb5868b          	.insn	4, 0x3cb5868b
    800039d4:	c0b586fb          	.insn	4, 0xc0b586fb
    800039d8:	6785                	lui	a5,0x1
    800039da:	ca87879b          	addiw	a5,a5,-856 # ca8 <buflen.1+0xc68>
    800039de:	978a                	add	a5,a5,sp
    800039e0:	e394                	sd	a3,0(a5)
    800039e2:	9dae868b          	.insn	4, 0x9dae868b
    800039e6:	7cc6068b          	.insn	4, 0x7cc6068b
    800039ea:	5cc5868b          	.insn	4, 0x5cc5868b
    800039ee:	3cb5868b          	.insn	4, 0x3cb5868b
    800039f2:	c0b586fb          	.insn	4, 0xc0b586fb
    800039f6:	6785                	lui	a5,0x1
    800039f8:	c987879b          	addiw	a5,a5,-872 # c98 <buflen.1+0xc58>
    800039fc:	978a                	add	a5,a5,sp
    800039fe:	e394                	sd	a3,0(a5)
    80003a00:	9da9868b          	.insn	4, 0x9da9868b
    80003a04:	7cc6068b          	.insn	4, 0x7cc6068b
    80003a08:	5cb5868b          	.insn	4, 0x5cb5868b
    80003a0c:	3cb5868b          	.insn	4, 0x3cb5868b
    80003a10:	c0b586fb          	.insn	4, 0xc0b586fb
    80003a14:	6785                	lui	a5,0x1
    80003a16:	c887879b          	addiw	a5,a5,-888 # c88 <buflen.1+0xc48>
    80003a1a:	978a                	add	a5,a5,sp
    80003a1c:	e394                	sd	a3,0(a5)
    80003a1e:	7cc5860b          	.insn	4, 0x7cc5860b
    80003a22:	9da7060b          	.insn	4, 0x9da7060b
    80003a26:	5cb5860b          	.insn	4, 0x5cb5860b
    80003a2a:	3cb5860b          	.insn	4, 0x3cb5860b
    80003a2e:	c0b5867b          	.insn	4, 0xc0b5867b
    80003a32:	6685                	lui	a3,0x1
    80003a34:	c806869b          	addiw	a3,a3,-896 # c80 <buflen.1+0xc40>
    80003a38:	968a                	add	a3,a3,sp
    80003a3a:	e290                	sd	a2,0(a3)
    80003a3c:	7cb5860b          	.insn	4, 0x7cb5860b
    80003a40:	5cb5860b          	.insn	4, 0x5cb5860b
    80003a44:	3cb5860b          	.insn	4, 0x3cb5860b
    80003a48:	c0b5867b          	.insn	4, 0xc0b5867b
    80003a4c:	6685                	lui	a3,0x1
    80003a4e:	c786869b          	addiw	a3,a3,-904 # c78 <buflen.1+0xc38>
    80003a52:	968a                	add	a3,a3,sp
    80003a54:	e290                	sd	a2,0(a3)
    80003a56:	9da3860b          	.insn	4, 0x9da3860b
    80003a5a:	7cb5860b          	.insn	4, 0x7cb5860b
    80003a5e:	5cb5860b          	.insn	4, 0x5cb5860b
    80003a62:	18053603          	ld	a2,384(a0)
    80003a66:	3cb5868b          	.insn	4, 0x3cb5868b
    80003a6a:	c0b606fb          	.insn	4, 0xc0b606fb
    80003a6e:	6785                	lui	a5,0x1
    80003a70:	c707879b          	addiw	a5,a5,-912 # c70 <buflen.1+0xc30>
    80003a74:	978a                	add	a5,a5,sp
    80003a76:	e394                	sd	a3,0(a5)
    80003a78:	9da3068b          	.insn	4, 0x9da3068b
    80003a7c:	7cb5868b          	.insn	4, 0x7cb5868b
    80003a80:	5cb5868b          	.insn	4, 0x5cb5868b
    80003a84:	3cb5868b          	.insn	4, 0x3cb5868b
    80003a88:	c0c606fb          	.insn	4, 0xc0c606fb
    80003a8c:	6785                	lui	a5,0x1
    80003a8e:	c607879b          	addiw	a5,a5,-928 # c60 <buflen.1+0xc20>
    80003a92:	978a                	add	a5,a5,sp
    80003a94:	e394                	sd	a3,0(a5)
    80003a96:	9dae068b          	.insn	4, 0x9dae068b
    80003a9a:	7cb5868b          	.insn	4, 0x7cb5868b
    80003a9e:	5cb5868b          	.insn	4, 0x5cb5868b
    80003aa2:	3cb6068b          	.insn	4, 0x3cb6068b
    80003aa6:	c0c606fb          	.insn	4, 0xc0c606fb
    80003aaa:	6785                	lui	a5,0x1
    80003aac:	c507879b          	addiw	a5,a5,-944 # c50 <buflen.1+0xc10>
    80003ab0:	978a                	add	a5,a5,sp
    80003ab2:	e394                	sd	a3,0(a5)
    80003ab4:	7cb5868b          	.insn	4, 0x7cb5868b
    80003ab8:	5cb5868b          	.insn	4, 0x5cb5868b
    80003abc:	3cc6068b          	.insn	4, 0x3cc6068b
    80003ac0:	c0c606fb          	.insn	4, 0xc0c606fb
    80003ac4:	6785                	lui	a5,0x1
    80003ac6:	c487879b          	addiw	a5,a5,-952 # c48 <buflen.1+0xc08>
    80003aca:	978a                	add	a5,a5,sp
    80003acc:	e394                	sd	a3,0(a5)
    80003ace:	9dae868b          	.insn	4, 0x9dae868b
    80003ad2:	7cb5868b          	.insn	4, 0x7cb5868b
    80003ad6:	5cb6068b          	.insn	4, 0x5cb6068b
    80003ada:	3cc6068b          	.insn	4, 0x3cc6068b
    80003ade:	c0c606fb          	.insn	4, 0xc0c606fb
    80003ae2:	6785                	lui	a5,0x1
    80003ae4:	c287879b          	addiw	a5,a5,-984 # c28 <buflen.1+0xbe8>
    80003ae8:	978a                	add	a5,a5,sp
    80003aea:	e394                	sd	a3,0(a5)
    80003aec:	9da9868b          	.insn	4, 0x9da9868b
    80003af0:	7cb5868b          	.insn	4, 0x7cb5868b
    80003af4:	5cc6068b          	.insn	4, 0x5cc6068b
    80003af8:	3cc6068b          	.insn	4, 0x3cc6068b
    80003afc:	c0c606fb          	.insn	4, 0xc0c606fb
    80003b00:	6785                	lui	a5,0x1
    80003b02:	c407879b          	addiw	a5,a5,-960 # c40 <buflen.1+0xc00>
    80003b06:	978a                	add	a5,a5,sp
    80003b08:	e394                	sd	a3,0(a5)
    80003b0a:	7cb6058b          	.insn	4, 0x7cb6058b
    80003b0e:	9da7058b          	.insn	4, 0x9da7058b
    80003b12:	5cc6058b          	.insn	4, 0x5cc6058b
    80003b16:	3cc6058b          	.insn	4, 0x3cc6058b
    80003b1a:	c0c605fb          	.insn	4, 0xc0c605fb
    80003b1e:	6685                	lui	a3,0x1
    80003b20:	c206869b          	addiw	a3,a3,-992 # c20 <buflen.1+0xbe0>
    80003b24:	968a                	add	a3,a3,sp
    80003b26:	e28c                	sd	a1,0(a3)
    80003b28:	7cc6058b          	.insn	4, 0x7cc6058b
    80003b2c:	5cc6058b          	.insn	4, 0x5cc6058b
    80003b30:	3cc6058b          	.insn	4, 0x3cc6058b
    80003b34:	c0c605fb          	.insn	4, 0xc0c605fb
    80003b38:	6685                	lui	a3,0x1
    80003b3a:	c106869b          	addiw	a3,a3,-1008 # c10 <buflen.1+0xbd0>
    80003b3e:	968a                	add	a3,a3,sp
    80003b40:	e28c                	sd	a1,0(a3)
    80003b42:	9da3858b          	.insn	4, 0x9da3858b
    80003b46:	7cc6058b          	.insn	4, 0x7cc6058b
    80003b4a:	5cc6058b          	.insn	4, 0x5cc6058b
    80003b4e:	1c053583          	ld	a1,448(a0)
    80003b52:	3cc6068b          	.insn	4, 0x3cc6068b
    80003b56:	c0c586fb          	.insn	4, 0xc0c586fb
    80003b5a:	6785                	lui	a5,0x1
    80003b5c:	c007879b          	addiw	a5,a5,-1024 # c00 <buflen.1+0xbc0>
    80003b60:	978a                	add	a5,a5,sp
    80003b62:	e394                	sd	a3,0(a5)
    80003b64:	9da3068b          	.insn	4, 0x9da3068b
    80003b68:	7cc6068b          	.insn	4, 0x7cc6068b
    80003b6c:	5cc6068b          	.insn	4, 0x5cc6068b
    80003b70:	3cc6068b          	.insn	4, 0x3cc6068b
    80003b74:	c0b586fb          	.insn	4, 0xc0b586fb
    80003b78:	6785                	lui	a5,0x1
    80003b7a:	bf07879b          	addiw	a5,a5,-1040 # bf0 <buflen.1+0xbb0>
    80003b7e:	978a                	add	a5,a5,sp
    80003b80:	e394                	sd	a3,0(a5)
    80003b82:	9dae068b          	.insn	4, 0x9dae068b
    80003b86:	7cc6068b          	.insn	4, 0x7cc6068b
    80003b8a:	5cc6068b          	.insn	4, 0x5cc6068b
    80003b8e:	3cc5868b          	.insn	4, 0x3cc5868b
    80003b92:	c0b586fb          	.insn	4, 0xc0b586fb
    80003b96:	6785                	lui	a5,0x1
    80003b98:	bf87879b          	addiw	a5,a5,-1032 # bf8 <buflen.1+0xbb8>
    80003b9c:	978a                	add	a5,a5,sp
    80003b9e:	e394                	sd	a3,0(a5)
    80003ba0:	7cc6068b          	.insn	4, 0x7cc6068b
    80003ba4:	5cc6068b          	.insn	4, 0x5cc6068b
    80003ba8:	3cb5868b          	.insn	4, 0x3cb5868b
    80003bac:	c0b586fb          	.insn	4, 0xc0b586fb
    80003bb0:	6785                	lui	a5,0x1
    80003bb2:	be87879b          	addiw	a5,a5,-1048 # be8 <buflen.1+0xba8>
    80003bb6:	978a                	add	a5,a5,sp
    80003bb8:	e394                	sd	a3,0(a5)
    80003bba:	9dae868b          	.insn	4, 0x9dae868b
    80003bbe:	7cc6068b          	.insn	4, 0x7cc6068b
    80003bc2:	5cc5868b          	.insn	4, 0x5cc5868b
    80003bc6:	3cb5868b          	.insn	4, 0x3cb5868b
    80003bca:	c0b586fb          	.insn	4, 0xc0b586fb
    80003bce:	6785                	lui	a5,0x1
    80003bd0:	be07879b          	addiw	a5,a5,-1056 # be0 <buflen.1+0xba0>
    80003bd4:	978a                	add	a5,a5,sp
    80003bd6:	e394                	sd	a3,0(a5)
    80003bd8:	9da9868b          	.insn	4, 0x9da9868b
    80003bdc:	7cc6068b          	.insn	4, 0x7cc6068b
    80003be0:	5cb5868b          	.insn	4, 0x5cb5868b
    80003be4:	3cb5868b          	.insn	4, 0x3cb5868b
    80003be8:	c0b586fb          	.insn	4, 0xc0b586fb
    80003bec:	6785                	lui	a5,0x1
    80003bee:	bd07879b          	addiw	a5,a5,-1072 # bd0 <buflen.1+0xb90>
    80003bf2:	978a                	add	a5,a5,sp
    80003bf4:	e394                	sd	a3,0(a5)
    80003bf6:	7cc5860b          	.insn	4, 0x7cc5860b
    80003bfa:	9da7060b          	.insn	4, 0x9da7060b
    80003bfe:	5cb5860b          	.insn	4, 0x5cb5860b
    80003c02:	3cb5860b          	.insn	4, 0x3cb5860b
    80003c06:	c0b5867b          	.insn	4, 0xc0b5867b
    80003c0a:	6685                	lui	a3,0x1
    80003c0c:	bb86869b          	addiw	a3,a3,-1096 # bb8 <buflen.1+0xb78>
    80003c10:	968a                	add	a3,a3,sp
    80003c12:	e290                	sd	a2,0(a3)
    80003c14:	7cb5860b          	.insn	4, 0x7cb5860b
    80003c18:	5cb5860b          	.insn	4, 0x5cb5860b
    80003c1c:	3cb5860b          	.insn	4, 0x3cb5860b
    80003c20:	c0b5867b          	.insn	4, 0xc0b5867b
    80003c24:	6685                	lui	a3,0x1
    80003c26:	ba86869b          	addiw	a3,a3,-1112 # ba8 <buflen.1+0xb68>
    80003c2a:	968a                	add	a3,a3,sp
    80003c2c:	e290                	sd	a2,0(a3)
    80003c2e:	9da3860b          	.insn	4, 0x9da3860b
    80003c32:	7cb5860b          	.insn	4, 0x7cb5860b
    80003c36:	5cb5860b          	.insn	4, 0x5cb5860b
    80003c3a:	20053603          	ld	a2,512(a0)
    80003c3e:	3cb5868b          	.insn	4, 0x3cb5868b
    80003c42:	c0b606fb          	.insn	4, 0xc0b606fb
    80003c46:	6785                	lui	a5,0x1
    80003c48:	bb07879b          	addiw	a5,a5,-1104 # bb0 <buflen.1+0xb70>
    80003c4c:	978a                	add	a5,a5,sp
    80003c4e:	e394                	sd	a3,0(a5)
    80003c50:	9da3068b          	.insn	4, 0x9da3068b
    80003c54:	7cb5868b          	.insn	4, 0x7cb5868b
    80003c58:	5cb5868b          	.insn	4, 0x5cb5868b
    80003c5c:	3cb5868b          	.insn	4, 0x3cb5868b
    80003c60:	c0c606fb          	.insn	4, 0xc0c606fb
    80003c64:	6785                	lui	a5,0x1
    80003c66:	b987879b          	addiw	a5,a5,-1128 # b98 <buflen.1+0xb58>
    80003c6a:	978a                	add	a5,a5,sp
    80003c6c:	e394                	sd	a3,0(a5)
    80003c6e:	9dae068b          	.insn	4, 0x9dae068b
    80003c72:	7cb5868b          	.insn	4, 0x7cb5868b
    80003c76:	5cb5868b          	.insn	4, 0x5cb5868b
    80003c7a:	3cb6068b          	.insn	4, 0x3cb6068b
    80003c7e:	c0c606fb          	.insn	4, 0xc0c606fb
    80003c82:	6785                	lui	a5,0x1
    80003c84:	b887879b          	addiw	a5,a5,-1144 # b88 <buflen.1+0xb48>
    80003c88:	978a                	add	a5,a5,sp
    80003c8a:	e394                	sd	a3,0(a5)
    80003c8c:	7cb5868b          	.insn	4, 0x7cb5868b
    80003c90:	5cb5868b          	.insn	4, 0x5cb5868b
    80003c94:	3cc6068b          	.insn	4, 0x3cc6068b
    80003c98:	c0c606fb          	.insn	4, 0xc0c606fb
    80003c9c:	6785                	lui	a5,0x1
    80003c9e:	b807879b          	addiw	a5,a5,-1152 # b80 <buflen.1+0xb40>
    80003ca2:	978a                	add	a5,a5,sp
    80003ca4:	e394                	sd	a3,0(a5)
    80003ca6:	9dae868b          	.insn	4, 0x9dae868b
    80003caa:	7cb5868b          	.insn	4, 0x7cb5868b
    80003cae:	5cb6068b          	.insn	4, 0x5cb6068b
    80003cb2:	3cc6068b          	.insn	4, 0x3cc6068b
    80003cb6:	c0c606fb          	.insn	4, 0xc0c606fb
    80003cba:	6785                	lui	a5,0x1
    80003cbc:	b787879b          	addiw	a5,a5,-1160 # b78 <buflen.1+0xb38>
    80003cc0:	978a                	add	a5,a5,sp
    80003cc2:	e394                	sd	a3,0(a5)
    80003cc4:	9da9868b          	.insn	4, 0x9da9868b
    80003cc8:	7cb5868b          	.insn	4, 0x7cb5868b
    80003ccc:	5cc6068b          	.insn	4, 0x5cc6068b
    80003cd0:	3cc6068b          	.insn	4, 0x3cc6068b
    80003cd4:	c0c606fb          	.insn	4, 0xc0c606fb
    80003cd8:	6785                	lui	a5,0x1
    80003cda:	b507879b          	addiw	a5,a5,-1200 # b50 <buflen.1+0xb10>
    80003cde:	978a                	add	a5,a5,sp
    80003ce0:	e394                	sd	a3,0(a5)
    80003ce2:	7cb6058b          	.insn	4, 0x7cb6058b
    80003ce6:	9da7058b          	.insn	4, 0x9da7058b
    80003cea:	5cc6058b          	.insn	4, 0x5cc6058b
    80003cee:	3cc6058b          	.insn	4, 0x3cc6058b
    80003cf2:	c0c605fb          	.insn	4, 0xc0c605fb
    80003cf6:	6685                	lui	a3,0x1
    80003cf8:	b606869b          	addiw	a3,a3,-1184 # b60 <buflen.1+0xb20>
    80003cfc:	968a                	add	a3,a3,sp
    80003cfe:	e28c                	sd	a1,0(a3)
    80003d00:	7cc6058b          	.insn	4, 0x7cc6058b
    80003d04:	5cc6058b          	.insn	4, 0x5cc6058b
    80003d08:	3cc6058b          	.insn	4, 0x3cc6058b
    80003d0c:	c0c605fb          	.insn	4, 0xc0c605fb
    80003d10:	6685                	lui	a3,0x1
    80003d12:	b486869b          	addiw	a3,a3,-1208 # b48 <buflen.1+0xb08>
    80003d16:	968a                	add	a3,a3,sp
    80003d18:	e28c                	sd	a1,0(a3)
    80003d1a:	9da3858b          	.insn	4, 0x9da3858b
    80003d1e:	7cc6058b          	.insn	4, 0x7cc6058b
    80003d22:	5cc6058b          	.insn	4, 0x5cc6058b
    80003d26:	24053583          	ld	a1,576(a0)
    80003d2a:	3cc6068b          	.insn	4, 0x3cc6068b
    80003d2e:	c0c586fb          	.insn	4, 0xc0c586fb
    80003d32:	6785                	lui	a5,0x1
    80003d34:	b387879b          	addiw	a5,a5,-1224 # b38 <buflen.1+0xaf8>
    80003d38:	978a                	add	a5,a5,sp
    80003d3a:	e394                	sd	a3,0(a5)
    80003d3c:	9da3068b          	.insn	4, 0x9da3068b
    80003d40:	7cc6068b          	.insn	4, 0x7cc6068b
    80003d44:	5cc6068b          	.insn	4, 0x5cc6068b
    80003d48:	3cc6068b          	.insn	4, 0x3cc6068b
    80003d4c:	c0b586fb          	.insn	4, 0xc0b586fb
    80003d50:	6785                	lui	a5,0x1
    80003d52:	b207879b          	addiw	a5,a5,-1248 # b20 <buflen.1+0xae0>
    80003d56:	978a                	add	a5,a5,sp
    80003d58:	e394                	sd	a3,0(a5)
    80003d5a:	9dae068b          	.insn	4, 0x9dae068b
    80003d5e:	7cc6068b          	.insn	4, 0x7cc6068b
    80003d62:	5cc6068b          	.insn	4, 0x5cc6068b
    80003d66:	3cc5868b          	.insn	4, 0x3cc5868b
    80003d6a:	c0b586fb          	.insn	4, 0xc0b586fb
    80003d6e:	6785                	lui	a5,0x1
    80003d70:	b087879b          	addiw	a5,a5,-1272 # b08 <buflen.1+0xac8>
    80003d74:	978a                	add	a5,a5,sp
    80003d76:	e394                	sd	a3,0(a5)
    80003d78:	7cc6068b          	.insn	4, 0x7cc6068b
    80003d7c:	5cc6068b          	.insn	4, 0x5cc6068b
    80003d80:	3cb5868b          	.insn	4, 0x3cb5868b
    80003d84:	c0b586fb          	.insn	4, 0xc0b586fb
    80003d88:	6785                	lui	a5,0x1
    80003d8a:	b107879b          	addiw	a5,a5,-1264 # b10 <buflen.1+0xad0>
    80003d8e:	978a                	add	a5,a5,sp
    80003d90:	e394                	sd	a3,0(a5)
    80003d92:	9dae868b          	.insn	4, 0x9dae868b
    80003d96:	7cc6068b          	.insn	4, 0x7cc6068b
    80003d9a:	5cc5868b          	.insn	4, 0x5cc5868b
    80003d9e:	3cb5868b          	.insn	4, 0x3cb5868b
    80003da2:	c0b586fb          	.insn	4, 0xc0b586fb
    80003da6:	6785                	lui	a5,0x1
    80003da8:	b007879b          	addiw	a5,a5,-1280 # b00 <buflen.1+0xac0>
    80003dac:	978a                	add	a5,a5,sp
    80003dae:	e394                	sd	a3,0(a5)
    80003db0:	9da9868b          	.insn	4, 0x9da9868b
    80003db4:	7cc6068b          	.insn	4, 0x7cc6068b
    80003db8:	5cb5868b          	.insn	4, 0x5cb5868b
    80003dbc:	3cb5868b          	.insn	4, 0x3cb5868b
    80003dc0:	c0b586fb          	.insn	4, 0xc0b586fb
    80003dc4:	6785                	lui	a5,0x1
    80003dc6:	ae87879b          	addiw	a5,a5,-1304 # ae8 <buflen.1+0xaa8>
    80003dca:	978a                	add	a5,a5,sp
    80003dcc:	e394                	sd	a3,0(a5)
    80003dce:	7cc5860b          	.insn	4, 0x7cc5860b
    80003dd2:	9da7060b          	.insn	4, 0x9da7060b
    80003dd6:	5cb5860b          	.insn	4, 0x5cb5860b
    80003dda:	3cb5860b          	.insn	4, 0x3cb5860b
    80003dde:	c0b5867b          	.insn	4, 0xc0b5867b
    80003de2:	6685                	lui	a3,0x1
    80003de4:	ad06869b          	addiw	a3,a3,-1328 # ad0 <buflen.1+0xa90>
    80003de8:	968a                	add	a3,a3,sp
    80003dea:	e290                	sd	a2,0(a3)
    80003dec:	7cb5860b          	.insn	4, 0x7cb5860b
    80003df0:	5cb5860b          	.insn	4, 0x5cb5860b
    80003df4:	3cb5860b          	.insn	4, 0x3cb5860b
    80003df8:	c0b5867b          	.insn	4, 0xc0b5867b
    80003dfc:	6685                	lui	a3,0x1
    80003dfe:	ab86869b          	addiw	a3,a3,-1352 # ab8 <buflen.1+0xa78>
    80003e02:	968a                	add	a3,a3,sp
    80003e04:	e290                	sd	a2,0(a3)
    80003e06:	9da3860b          	.insn	4, 0x9da3860b
    80003e0a:	7cb5860b          	.insn	4, 0x7cb5860b
    80003e0e:	5cb5860b          	.insn	4, 0x5cb5860b
    80003e12:	28053603          	ld	a2,640(a0)
    80003e16:	3cb5868b          	.insn	4, 0x3cb5868b
    80003e1a:	c0b606fb          	.insn	4, 0xc0b606fb
    80003e1e:	6785                	lui	a5,0x1
    80003e20:	ac87879b          	addiw	a5,a5,-1336 # ac8 <buflen.1+0xa88>
    80003e24:	978a                	add	a5,a5,sp
    80003e26:	e394                	sd	a3,0(a5)
    80003e28:	9da3068b          	.insn	4, 0x9da3068b
    80003e2c:	7cb5868b          	.insn	4, 0x7cb5868b
    80003e30:	5cb5868b          	.insn	4, 0x5cb5868b
    80003e34:	3cb5868b          	.insn	4, 0x3cb5868b
    80003e38:	c0c606fb          	.insn	4, 0xc0c606fb
    80003e3c:	6785                	lui	a5,0x1
    80003e3e:	ab07879b          	addiw	a5,a5,-1360 # ab0 <buflen.1+0xa70>
    80003e42:	978a                	add	a5,a5,sp
    80003e44:	e394                	sd	a3,0(a5)
    80003e46:	9dae068b          	.insn	4, 0x9dae068b
    80003e4a:	7cb5868b          	.insn	4, 0x7cb5868b
    80003e4e:	5cb5868b          	.insn	4, 0x5cb5868b
    80003e52:	3cb6068b          	.insn	4, 0x3cb6068b
    80003e56:	c0c606fb          	.insn	4, 0xc0c606fb
    80003e5a:	6785                	lui	a5,0x1
    80003e5c:	aa87879b          	addiw	a5,a5,-1368 # aa8 <buflen.1+0xa68>
    80003e60:	978a                	add	a5,a5,sp
    80003e62:	e394                	sd	a3,0(a5)
    80003e64:	7cb5868b          	.insn	4, 0x7cb5868b
    80003e68:	5cb5868b          	.insn	4, 0x5cb5868b
    80003e6c:	3cc6068b          	.insn	4, 0x3cc6068b
    80003e70:	c0c606fb          	.insn	4, 0xc0c606fb
    80003e74:	6785                	lui	a5,0x1
    80003e76:	a987879b          	addiw	a5,a5,-1384 # a98 <buflen.1+0xa58>
    80003e7a:	978a                	add	a5,a5,sp
    80003e7c:	e394                	sd	a3,0(a5)
    80003e7e:	9dae868b          	.insn	4, 0x9dae868b
    80003e82:	7cb5868b          	.insn	4, 0x7cb5868b
    80003e86:	5cb6068b          	.insn	4, 0x5cb6068b
    80003e8a:	3cc6068b          	.insn	4, 0x3cc6068b
    80003e8e:	c0c606fb          	.insn	4, 0xc0c606fb
    80003e92:	6785                	lui	a5,0x1
    80003e94:	a807879b          	addiw	a5,a5,-1408 # a80 <buflen.1+0xa40>
    80003e98:	978a                	add	a5,a5,sp
    80003e9a:	e394                	sd	a3,0(a5)
    80003e9c:	9da9868b          	.insn	4, 0x9da9868b
    80003ea0:	7cb5868b          	.insn	4, 0x7cb5868b
    80003ea4:	5cc6068b          	.insn	4, 0x5cc6068b
    80003ea8:	3cc6068b          	.insn	4, 0x3cc6068b
    80003eac:	c0c606fb          	.insn	4, 0xc0c606fb
    80003eb0:	6785                	lui	a5,0x1
    80003eb2:	a887879b          	addiw	a5,a5,-1400 # a88 <buflen.1+0xa48>
    80003eb6:	978a                	add	a5,a5,sp
    80003eb8:	e394                	sd	a3,0(a5)
    80003eba:	7cb6058b          	.insn	4, 0x7cb6058b
    80003ebe:	9da7058b          	.insn	4, 0x9da7058b
    80003ec2:	5cc6058b          	.insn	4, 0x5cc6058b
    80003ec6:	3cc6058b          	.insn	4, 0x3cc6058b
    80003eca:	c0c605fb          	.insn	4, 0xc0c605fb
    80003ece:	6685                	lui	a3,0x1
    80003ed0:	a706869b          	addiw	a3,a3,-1424 # a70 <buflen.1+0xa30>
    80003ed4:	968a                	add	a3,a3,sp
    80003ed6:	e28c                	sd	a1,0(a3)
    80003ed8:	7cc6058b          	.insn	4, 0x7cc6058b
    80003edc:	5cc6058b          	.insn	4, 0x5cc6058b
    80003ee0:	3cc6058b          	.insn	4, 0x3cc6058b
    80003ee4:	c0c605fb          	.insn	4, 0xc0c605fb
    80003ee8:	6685                	lui	a3,0x1
    80003eea:	a686869b          	addiw	a3,a3,-1432 # a68 <buflen.1+0xa28>
    80003eee:	968a                	add	a3,a3,sp
    80003ef0:	e28c                	sd	a1,0(a3)
    80003ef2:	9da3858b          	.insn	4, 0x9da3858b
    80003ef6:	7cc6058b          	.insn	4, 0x7cc6058b
    80003efa:	5cc6058b          	.insn	4, 0x5cc6058b
    80003efe:	2c053583          	ld	a1,704(a0)
    80003f02:	3cc6068b          	.insn	4, 0x3cc6068b
    80003f06:	c0c586fb          	.insn	4, 0xc0c586fb
    80003f0a:	6785                	lui	a5,0x1
    80003f0c:	a507879b          	addiw	a5,a5,-1456 # a50 <buflen.1+0xa10>
    80003f10:	978a                	add	a5,a5,sp
    80003f12:	e394                	sd	a3,0(a5)
    80003f14:	9da3068b          	.insn	4, 0x9da3068b
    80003f18:	7cc6068b          	.insn	4, 0x7cc6068b
    80003f1c:	5cc6068b          	.insn	4, 0x5cc6068b
    80003f20:	3cc6068b          	.insn	4, 0x3cc6068b
    80003f24:	c0b586fb          	.insn	4, 0xc0b586fb
    80003f28:	6785                	lui	a5,0x1
    80003f2a:	a407879b          	addiw	a5,a5,-1472 # a40 <buflen.1+0xa00>
    80003f2e:	978a                	add	a5,a5,sp
    80003f30:	e394                	sd	a3,0(a5)
    80003f32:	9dae068b          	.insn	4, 0x9dae068b
    80003f36:	7cc6068b          	.insn	4, 0x7cc6068b
    80003f3a:	5cc6068b          	.insn	4, 0x5cc6068b
    80003f3e:	3cc5868b          	.insn	4, 0x3cc5868b
    80003f42:	c0b586fb          	.insn	4, 0xc0b586fb
    80003f46:	6785                	lui	a5,0x1
    80003f48:	a487879b          	addiw	a5,a5,-1464 # a48 <buflen.1+0xa08>
    80003f4c:	978a                	add	a5,a5,sp
    80003f4e:	e394                	sd	a3,0(a5)
    80003f50:	7cc6068b          	.insn	4, 0x7cc6068b
    80003f54:	5cc6068b          	.insn	4, 0x5cc6068b
    80003f58:	3cb5868b          	.insn	4, 0x3cb5868b
    80003f5c:	c0b586fb          	.insn	4, 0xc0b586fb
    80003f60:	6785                	lui	a5,0x1
    80003f62:	a387879b          	addiw	a5,a5,-1480 # a38 <buflen.1+0x9f8>
    80003f66:	978a                	add	a5,a5,sp
    80003f68:	e394                	sd	a3,0(a5)
    80003f6a:	9dae868b          	.insn	4, 0x9dae868b
    80003f6e:	7cc6068b          	.insn	4, 0x7cc6068b
    80003f72:	5cc5868b          	.insn	4, 0x5cc5868b
    80003f76:	3cb5868b          	.insn	4, 0x3cb5868b
    80003f7a:	c0b586fb          	.insn	4, 0xc0b586fb
    80003f7e:	6785                	lui	a5,0x1
    80003f80:	a287879b          	addiw	a5,a5,-1496 # a28 <buflen.1+0x9e8>
    80003f84:	978a                	add	a5,a5,sp
    80003f86:	e394                	sd	a3,0(a5)
    80003f88:	9da9868b          	.insn	4, 0x9da9868b
    80003f8c:	7cc6068b          	.insn	4, 0x7cc6068b
    80003f90:	5cb5868b          	.insn	4, 0x5cb5868b
    80003f94:	3cb5868b          	.insn	4, 0x3cb5868b
    80003f98:	c0b586fb          	.insn	4, 0xc0b586fb
    80003f9c:	6785                	lui	a5,0x1
    80003f9e:	a187879b          	addiw	a5,a5,-1512 # a18 <buflen.1+0x9d8>
    80003fa2:	978a                	add	a5,a5,sp
    80003fa4:	e394                	sd	a3,0(a5)
    80003fa6:	7cc5860b          	.insn	4, 0x7cc5860b
    80003faa:	9da7060b          	.insn	4, 0x9da7060b
    80003fae:	5cb5860b          	.insn	4, 0x5cb5860b
    80003fb2:	3cb5860b          	.insn	4, 0x3cb5860b
    80003fb6:	c0b5867b          	.insn	4, 0xc0b5867b
    80003fba:	6685                	lui	a3,0x1
    80003fbc:	a086869b          	addiw	a3,a3,-1528 # a08 <buflen.1+0x9c8>
    80003fc0:	968a                	add	a3,a3,sp
    80003fc2:	e290                	sd	a2,0(a3)
    80003fc4:	7cb5860b          	.insn	4, 0x7cb5860b
    80003fc8:	5cb5860b          	.insn	4, 0x5cb5860b
    80003fcc:	3cb5860b          	.insn	4, 0x3cb5860b
    80003fd0:	c0b5867b          	.insn	4, 0xc0b5867b
    80003fd4:	6685                	lui	a3,0x1
    80003fd6:	a106869b          	addiw	a3,a3,-1520 # a10 <buflen.1+0x9d0>
    80003fda:	968a                	add	a3,a3,sp
    80003fdc:	e290                	sd	a2,0(a3)
    80003fde:	9da3860b          	.insn	4, 0x9da3860b
    80003fe2:	7cb5860b          	.insn	4, 0x7cb5860b
    80003fe6:	5cb5860b          	.insn	4, 0x5cb5860b
    80003fea:	30053603          	ld	a2,768(a0)
    80003fee:	3cb5868b          	.insn	4, 0x3cb5868b
    80003ff2:	c0b606fb          	.insn	4, 0xc0b606fb
    80003ff6:	6785                	lui	a5,0x1
    80003ff8:	9f87879b          	addiw	a5,a5,-1544 # 9f8 <buflen.1+0x9b8>
    80003ffc:	978a                	add	a5,a5,sp
    80003ffe:	e394                	sd	a3,0(a5)
    80004000:	9da3068b          	.insn	4, 0x9da3068b
    80004004:	7cb5868b          	.insn	4, 0x7cb5868b
    80004008:	5cb5868b          	.insn	4, 0x5cb5868b
    8000400c:	3cb5868b          	.insn	4, 0x3cb5868b
    80004010:	c0c606fb          	.insn	4, 0xc0c606fb
    80004014:	6785                	lui	a5,0x1
    80004016:	9e87879b          	addiw	a5,a5,-1560 # 9e8 <buflen.1+0x9a8>
    8000401a:	978a                	add	a5,a5,sp
    8000401c:	e394                	sd	a3,0(a5)
    8000401e:	9dae068b          	.insn	4, 0x9dae068b
    80004022:	7cb5868b          	.insn	4, 0x7cb5868b
    80004026:	5cb5868b          	.insn	4, 0x5cb5868b
    8000402a:	3cb6068b          	.insn	4, 0x3cb6068b
    8000402e:	c0c606fb          	.insn	4, 0xc0c606fb
    80004032:	6785                	lui	a5,0x1
    80004034:	9d87879b          	addiw	a5,a5,-1576 # 9d8 <buflen.1+0x998>
    80004038:	978a                	add	a5,a5,sp
    8000403a:	e394                	sd	a3,0(a5)
    8000403c:	7cb5868b          	.insn	4, 0x7cb5868b
    80004040:	5cb5868b          	.insn	4, 0x5cb5868b
    80004044:	3cc6068b          	.insn	4, 0x3cc6068b
    80004048:	c0c606fb          	.insn	4, 0xc0c606fb
    8000404c:	6785                	lui	a5,0x1
    8000404e:	9c87879b          	addiw	a5,a5,-1592 # 9c8 <buflen.1+0x988>
    80004052:	978a                	add	a5,a5,sp
    80004054:	e394                	sd	a3,0(a5)
    80004056:	9dae868b          	.insn	4, 0x9dae868b
    8000405a:	7cb5868b          	.insn	4, 0x7cb5868b
    8000405e:	5cb6068b          	.insn	4, 0x5cb6068b
    80004062:	3cc6068b          	.insn	4, 0x3cc6068b
    80004066:	c0c606fb          	.insn	4, 0xc0c606fb
    8000406a:	6785                	lui	a5,0x1
    8000406c:	9b07879b          	addiw	a5,a5,-1616 # 9b0 <buflen.1+0x970>
    80004070:	978a                	add	a5,a5,sp
    80004072:	e394                	sd	a3,0(a5)
    80004074:	9da9868b          	.insn	4, 0x9da9868b
    80004078:	7cb5868b          	.insn	4, 0x7cb5868b
    8000407c:	5cc6068b          	.insn	4, 0x5cc6068b
    80004080:	3cc6068b          	.insn	4, 0x3cc6068b
    80004084:	c0c606fb          	.insn	4, 0xc0c606fb
    80004088:	6785                	lui	a5,0x1
    8000408a:	9c07879b          	addiw	a5,a5,-1600 # 9c0 <buflen.1+0x980>
    8000408e:	978a                	add	a5,a5,sp
    80004090:	e394                	sd	a3,0(a5)
    80004092:	7cb6058b          	.insn	4, 0x7cb6058b
    80004096:	9da7058b          	.insn	4, 0x9da7058b
    8000409a:	5cc6058b          	.insn	4, 0x5cc6058b
    8000409e:	3cc6058b          	.insn	4, 0x3cc6058b
    800040a2:	c0c605fb          	.insn	4, 0xc0c605fb
    800040a6:	6685                	lui	a3,0x1
    800040a8:	9a86869b          	addiw	a3,a3,-1624 # 9a8 <buflen.1+0x968>
    800040ac:	968a                	add	a3,a3,sp
    800040ae:	e28c                	sd	a1,0(a3)
    800040b0:	7cc6058b          	.insn	4, 0x7cc6058b
    800040b4:	5cc6058b          	.insn	4, 0x5cc6058b
    800040b8:	3cc6058b          	.insn	4, 0x3cc6058b
    800040bc:	c0c605fb          	.insn	4, 0xc0c605fb
    800040c0:	6685                	lui	a3,0x1
    800040c2:	9a06869b          	addiw	a3,a3,-1632 # 9a0 <buflen.1+0x960>
    800040c6:	968a                	add	a3,a3,sp
    800040c8:	e28c                	sd	a1,0(a3)
    800040ca:	9da3858b          	.insn	4, 0x9da3858b
    800040ce:	7cc6058b          	.insn	4, 0x7cc6058b
    800040d2:	5cc6058b          	.insn	4, 0x5cc6058b
    800040d6:	34053583          	ld	a1,832(a0)
    800040da:	3cc6068b          	.insn	4, 0x3cc6068b
    800040de:	c0c586fb          	.insn	4, 0xc0c586fb
    800040e2:	6785                	lui	a5,0x1
    800040e4:	9907879b          	addiw	a5,a5,-1648 # 990 <buflen.1+0x950>
    800040e8:	978a                	add	a5,a5,sp
    800040ea:	e394                	sd	a3,0(a5)
    800040ec:	9da3068b          	.insn	4, 0x9da3068b
    800040f0:	7cc6068b          	.insn	4, 0x7cc6068b
    800040f4:	5cc6068b          	.insn	4, 0x5cc6068b
    800040f8:	3cc6068b          	.insn	4, 0x3cc6068b
    800040fc:	c0b586fb          	.insn	4, 0xc0b586fb
    80004100:	6785                	lui	a5,0x1
    80004102:	9787879b          	addiw	a5,a5,-1672 # 978 <buflen.1+0x938>
    80004106:	978a                	add	a5,a5,sp
    80004108:	e394                	sd	a3,0(a5)
    8000410a:	9dae068b          	.insn	4, 0x9dae068b
    8000410e:	7cc6068b          	.insn	4, 0x7cc6068b
    80004112:	5cc6068b          	.insn	4, 0x5cc6068b
    80004116:	3cc5868b          	.insn	4, 0x3cc5868b
    8000411a:	c0b586fb          	.insn	4, 0xc0b586fb
    8000411e:	6785                	lui	a5,0x1
    80004120:	9807879b          	addiw	a5,a5,-1664 # 980 <buflen.1+0x940>
    80004124:	978a                	add	a5,a5,sp
    80004126:	e394                	sd	a3,0(a5)
    80004128:	7cc6068b          	.insn	4, 0x7cc6068b
    8000412c:	5cc6068b          	.insn	4, 0x5cc6068b
    80004130:	3cb5868b          	.insn	4, 0x3cb5868b
    80004134:	c0b586fb          	.insn	4, 0xc0b586fb
    80004138:	6785                	lui	a5,0x1
    8000413a:	9707879b          	addiw	a5,a5,-1680 # 970 <buflen.1+0x930>
    8000413e:	978a                	add	a5,a5,sp
    80004140:	e394                	sd	a3,0(a5)
    80004142:	9dae868b          	.insn	4, 0x9dae868b
    80004146:	7cc6068b          	.insn	4, 0x7cc6068b
    8000414a:	5cc5868b          	.insn	4, 0x5cc5868b
    8000414e:	3cb5868b          	.insn	4, 0x3cb5868b
    80004152:	c0b586fb          	.insn	4, 0xc0b586fb
    80004156:	6785                	lui	a5,0x1
    80004158:	9587879b          	addiw	a5,a5,-1704 # 958 <buflen.1+0x918>
    8000415c:	978a                	add	a5,a5,sp
    8000415e:	e394                	sd	a3,0(a5)
    80004160:	9da9868b          	.insn	4, 0x9da9868b
    80004164:	7cc6068b          	.insn	4, 0x7cc6068b
    80004168:	5cb5868b          	.insn	4, 0x5cb5868b
    8000416c:	3cb5868b          	.insn	4, 0x3cb5868b
    80004170:	c0b586fb          	.insn	4, 0xc0b586fb
    80004174:	6785                	lui	a5,0x1
    80004176:	9487879b          	addiw	a5,a5,-1720 # 948 <buflen.1+0x908>
    8000417a:	978a                	add	a5,a5,sp
    8000417c:	e394                	sd	a3,0(a5)
    8000417e:	7cc5860b          	.insn	4, 0x7cc5860b
    80004182:	9da7060b          	.insn	4, 0x9da7060b
    80004186:	5cb5860b          	.insn	4, 0x5cb5860b
    8000418a:	3cb5860b          	.insn	4, 0x3cb5860b
    8000418e:	c0b5867b          	.insn	4, 0xc0b5867b
    80004192:	6685                	lui	a3,0x1
    80004194:	9386869b          	addiw	a3,a3,-1736 # 938 <buflen.1+0x8f8>
    80004198:	968a                	add	a3,a3,sp
    8000419a:	e290                	sd	a2,0(a3)
    8000419c:	7cb5860b          	.insn	4, 0x7cb5860b
    800041a0:	5cb5860b          	.insn	4, 0x5cb5860b
    800041a4:	3cb5860b          	.insn	4, 0x3cb5860b
    800041a8:	c0b5867b          	.insn	4, 0xc0b5867b
    800041ac:	6685                	lui	a3,0x1
    800041ae:	9286869b          	addiw	a3,a3,-1752 # 928 <buflen.1+0x8e8>
    800041b2:	968a                	add	a3,a3,sp
    800041b4:	e290                	sd	a2,0(a3)
    800041b6:	9da3860b          	.insn	4, 0x9da3860b
    800041ba:	7cb5860b          	.insn	4, 0x7cb5860b
    800041be:	5cb5860b          	.insn	4, 0x5cb5860b
    800041c2:	38053603          	ld	a2,896(a0)
    800041c6:	3cb5868b          	.insn	4, 0x3cb5868b
    800041ca:	c0b606fb          	.insn	4, 0xc0b606fb
    800041ce:	6785                	lui	a5,0x1
    800041d0:	9307879b          	addiw	a5,a5,-1744 # 930 <buflen.1+0x8f0>
    800041d4:	978a                	add	a5,a5,sp
    800041d6:	e394                	sd	a3,0(a5)
    800041d8:	9da3068b          	.insn	4, 0x9da3068b
    800041dc:	7cb5868b          	.insn	4, 0x7cb5868b
    800041e0:	5cb5868b          	.insn	4, 0x5cb5868b
    800041e4:	3cb5868b          	.insn	4, 0x3cb5868b
    800041e8:	c0c606fb          	.insn	4, 0xc0c606fb
    800041ec:	6785                	lui	a5,0x1
    800041ee:	9207879b          	addiw	a5,a5,-1760 # 920 <buflen.1+0x8e0>
    800041f2:	978a                	add	a5,a5,sp
    800041f4:	e394                	sd	a3,0(a5)
    800041f6:	9dae068b          	.insn	4, 0x9dae068b
    800041fa:	7cb5868b          	.insn	4, 0x7cb5868b
    800041fe:	5cb5868b          	.insn	4, 0x5cb5868b
    80004202:	3cb6068b          	.insn	4, 0x3cb6068b
    80004206:	c0c606fb          	.insn	4, 0xc0c606fb
    8000420a:	6785                	lui	a5,0x1
    8000420c:	9107879b          	addiw	a5,a5,-1776 # 910 <buflen.1+0x8d0>
    80004210:	978a                	add	a5,a5,sp
    80004212:	e394                	sd	a3,0(a5)
    80004214:	7cb5868b          	.insn	4, 0x7cb5868b
    80004218:	5cb5868b          	.insn	4, 0x5cb5868b
    8000421c:	3cc6068b          	.insn	4, 0x3cc6068b
    80004220:	c0c606fb          	.insn	4, 0xc0c606fb
    80004224:	6785                	lui	a5,0x1
    80004226:	9087879b          	addiw	a5,a5,-1784 # 908 <buflen.1+0x8c8>
    8000422a:	978a                	add	a5,a5,sp
    8000422c:	e394                	sd	a3,0(a5)
    8000422e:	9dae868b          	.insn	4, 0x9dae868b
    80004232:	7cb5868b          	.insn	4, 0x7cb5868b
    80004236:	5cb6068b          	.insn	4, 0x5cb6068b
    8000423a:	3cc6068b          	.insn	4, 0x3cc6068b
    8000423e:	c0c606fb          	.insn	4, 0xc0c606fb
    80004242:	6785                	lui	a5,0x1
    80004244:	8f87879b          	addiw	a5,a5,-1800 # 8f8 <buflen.1+0x8b8>
    80004248:	978a                	add	a5,a5,sp
    8000424a:	e394                	sd	a3,0(a5)
    8000424c:	9da9868b          	.insn	4, 0x9da9868b
    80004250:	7cb5868b          	.insn	4, 0x7cb5868b
    80004254:	5cc6068b          	.insn	4, 0x5cc6068b
    80004258:	3cc6068b          	.insn	4, 0x3cc6068b
    8000425c:	c0c606fb          	.insn	4, 0xc0c606fb
    80004260:	6785                	lui	a5,0x1
    80004262:	9007879b          	addiw	a5,a5,-1792 # 900 <buflen.1+0x8c0>
    80004266:	978a                	add	a5,a5,sp
    80004268:	e394                	sd	a3,0(a5)
    8000426a:	7cb6058b          	.insn	4, 0x7cb6058b
    8000426e:	9da7058b          	.insn	4, 0x9da7058b
    80004272:	5cc6058b          	.insn	4, 0x5cc6058b
    80004276:	3cc6058b          	.insn	4, 0x3cc6058b
    8000427a:	c0c605fb          	.insn	4, 0xc0c605fb
    8000427e:	6685                	lui	a3,0x1
    80004280:	8e86869b          	addiw	a3,a3,-1816 # 8e8 <buflen.1+0x8a8>
    80004284:	968a                	add	a3,a3,sp
    80004286:	e28c                	sd	a1,0(a3)
    80004288:	7cc6058b          	.insn	4, 0x7cc6058b
    8000428c:	5cc6058b          	.insn	4, 0x5cc6058b
    80004290:	3cc6058b          	.insn	4, 0x3cc6058b
    80004294:	c0c605fb          	.insn	4, 0xc0c605fb
    80004298:	6685                	lui	a3,0x1
    8000429a:	8d86869b          	addiw	a3,a3,-1832 # 8d8 <buflen.1+0x898>
    8000429e:	968a                	add	a3,a3,sp
    800042a0:	e28c                	sd	a1,0(a3)
    800042a2:	3c053503          	ld	a0,960(a0)
    800042a6:	9da3858b          	.insn	4, 0x9da3858b
    800042aa:	7cc6058b          	.insn	4, 0x7cc6058b
    800042ae:	5cc6058b          	.insn	4, 0x5cc6058b
    800042b2:	3cc6058b          	.insn	4, 0x3cc6058b
    800042b6:	c0c505fb          	.insn	4, 0xc0c505fb
    800042ba:	6685                	lui	a3,0x1
    800042bc:	8c86869b          	addiw	a3,a3,-1848 # 8c8 <buflen.1+0x888>
    800042c0:	968a                	add	a3,a3,sp
    800042c2:	e28c                	sd	a1,0(a3)
    800042c4:	9da3058b          	.insn	4, 0x9da3058b
    800042c8:	7cc6058b          	.insn	4, 0x7cc6058b
    800042cc:	5cc6058b          	.insn	4, 0x5cc6058b
    800042d0:	3cc6058b          	.insn	4, 0x3cc6058b
    800042d4:	c0a505fb          	.insn	4, 0xc0a505fb
    800042d8:	6685                	lui	a3,0x1
    800042da:	8b86869b          	addiw	a3,a3,-1864 # 8b8 <buflen.1+0x878>
    800042de:	968a                	add	a3,a3,sp
    800042e0:	e28c                	sd	a1,0(a3)
    800042e2:	9dae058b          	.insn	4, 0x9dae058b
    800042e6:	7cc6058b          	.insn	4, 0x7cc6058b
    800042ea:	5cc6058b          	.insn	4, 0x5cc6058b
    800042ee:	3cc5058b          	.insn	4, 0x3cc5058b
    800042f2:	c0a505fb          	.insn	4, 0xc0a505fb
    800042f6:	6685                	lui	a3,0x1
    800042f8:	8c06869b          	addiw	a3,a3,-1856 # 8c0 <buflen.1+0x880>
    800042fc:	968a                	add	a3,a3,sp
    800042fe:	e28c                	sd	a1,0(a3)
    80004300:	7cc6058b          	.insn	4, 0x7cc6058b
    80004304:	5cc6058b          	.insn	4, 0x5cc6058b
    80004308:	3ca5058b          	.insn	4, 0x3ca5058b
    8000430c:	c0a505fb          	.insn	4, 0xc0a505fb
    80004310:	6685                	lui	a3,0x1
    80004312:	8a86869b          	addiw	a3,a3,-1880 # 8a8 <buflen.1+0x868>
    80004316:	968a                	add	a3,a3,sp
    80004318:	e28c                	sd	a1,0(a3)
    8000431a:	9dae858b          	.insn	4, 0x9dae858b
    8000431e:	7cc6058b          	.insn	4, 0x7cc6058b
    80004322:	5cc5058b          	.insn	4, 0x5cc5058b
    80004326:	3ca5058b          	.insn	4, 0x3ca5058b
    8000432a:	c0a505fb          	.insn	4, 0xc0a505fb
    8000432e:	6685                	lui	a3,0x1
    80004330:	8a06869b          	addiw	a3,a3,-1888 # 8a0 <buflen.1+0x860>
    80004334:	968a                	add	a3,a3,sp
    80004336:	e28c                	sd	a1,0(a3)
    80004338:	9da9858b          	.insn	4, 0x9da9858b
    8000433c:	7cc6058b          	.insn	4, 0x7cc6058b
    80004340:	5ca5058b          	.insn	4, 0x5ca5058b
    80004344:	3ca5058b          	.insn	4, 0x3ca5058b
    80004348:	c0a505fb          	.insn	4, 0xc0a505fb
    8000434c:	6685                	lui	a3,0x1
    8000434e:	8986869b          	addiw	a3,a3,-1896 # 898 <buflen.1+0x858>
    80004352:	968a                	add	a3,a3,sp
    80004354:	e28c                	sd	a1,0(a3)
    80004356:	7cc5058b          	.insn	4, 0x7cc5058b
    8000435a:	9da7058b          	.insn	4, 0x9da7058b
    8000435e:	5ca5058b          	.insn	4, 0x5ca5058b
    80004362:	3ca5058b          	.insn	4, 0x3ca5058b
    80004366:	c0a505fb          	.insn	4, 0xc0a505fb
    8000436a:	6605                	lui	a2,0x1
    8000436c:	8786061b          	addiw	a2,a2,-1928 # 878 <buflen.1+0x838>
    80004370:	960a                	add	a2,a2,sp
    80004372:	e20c                	sd	a1,0(a2)
    80004374:	7ca5058b          	.insn	4, 0x7ca5058b
    80004378:	5ca5058b          	.insn	4, 0x5ca5058b
    8000437c:	3ca5058b          	.insn	4, 0x3ca5058b
    80004380:	c0a5057b          	.insn	4, 0xc0a5057b
    80004384:	6585                	lui	a1,0x1
    80004386:	8905859b          	addiw	a1,a1,-1904 # 890 <buflen.1+0x850>
    8000438a:	958a                	add	a1,a1,sp
    8000438c:	e188                	sd	a0,0(a1)
    8000438e:	6505                	lui	a0,0x1
    80004390:	3305051b          	addiw	a0,a0,816 # 1330 <buflen.1+0x12f0>
    80004394:	950a                	add	a0,a0,sp
    80004396:	6108                	ld	a0,0(a0)
    80004398:	0509                	addi	a0,a0,2
    8000439a:	052a                	slli	a0,a0,0xa
    8000439c:	00aa0633          	add	a2,s4,a0
    800043a0:	620c                	ld	a1,0(a2)
    800043a2:	7cb5850b          	.insn	4, 0x7cb5850b
    800043a6:	5cb5850b          	.insn	4, 0x5cb5850b
    800043aa:	3cb5850b          	.insn	4, 0x3cb5850b
    800043ae:	c0b5857b          	.insn	4, 0xc0b5857b
    800043b2:	6685                	lui	a3,0x1
    800043b4:	8706869b          	addiw	a3,a3,-1936 # 870 <buflen.1+0x830>
    800043b8:	968a                	add	a3,a3,sp
    800043ba:	e288                	sd	a0,0(a3)
    800043bc:	9da3850b          	.insn	4, 0x9da3850b
    800043c0:	7cb5850b          	.insn	4, 0x7cb5850b
    800043c4:	5cb5850b          	.insn	4, 0x5cb5850b
    800043c8:	6228                	ld	a0,64(a2)
    800043ca:	86b2                	mv	a3,a2
    800043cc:	6785                	lui	a5,0x1
    800043ce:	3107879b          	addiw	a5,a5,784 # 1310 <buflen.1+0x12d0>
    800043d2:	978a                	add	a5,a5,sp
    800043d4:	e390                	sd	a2,0(a5)
    800043d6:	3cb5860b          	.insn	4, 0x3cb5860b
    800043da:	c0b5067b          	.insn	4, 0xc0b5067b
    800043de:	6785                	lui	a5,0x1
    800043e0:	8507879b          	addiw	a5,a5,-1968 # 850 <buflen.1+0x810>
    800043e4:	978a                	add	a5,a5,sp
    800043e6:	e390                	sd	a2,0(a5)
    800043e8:	9da3060b          	.insn	4, 0x9da3060b
    800043ec:	7cb5860b          	.insn	4, 0x7cb5860b
    800043f0:	5cb5860b          	.insn	4, 0x5cb5860b
    800043f4:	3cb5860b          	.insn	4, 0x3cb5860b
    800043f8:	c0a5067b          	.insn	4, 0xc0a5067b
    800043fc:	6785                	lui	a5,0x1
    800043fe:	8407879b          	addiw	a5,a5,-1984 # 840 <buflen.1+0x800>
    80004402:	978a                	add	a5,a5,sp
    80004404:	e390                	sd	a2,0(a5)
    80004406:	9dae060b          	.insn	4, 0x9dae060b
    8000440a:	7cb5860b          	.insn	4, 0x7cb5860b
    8000440e:	5cb5860b          	.insn	4, 0x5cb5860b
    80004412:	3cb5060b          	.insn	4, 0x3cb5060b
    80004416:	c0a5067b          	.insn	4, 0xc0a5067b
    8000441a:	6785                	lui	a5,0x1
    8000441c:	8287879b          	addiw	a5,a5,-2008 # 828 <buflen.1+0x7e8>
    80004420:	978a                	add	a5,a5,sp
    80004422:	e390                	sd	a2,0(a5)
    80004424:	7cb5860b          	.insn	4, 0x7cb5860b
    80004428:	5cb5860b          	.insn	4, 0x5cb5860b
    8000442c:	3ca5060b          	.insn	4, 0x3ca5060b
    80004430:	c0a5067b          	.insn	4, 0xc0a5067b
    80004434:	6785                	lui	a5,0x1
    80004436:	8387879b          	addiw	a5,a5,-1992 # 838 <buflen.1+0x7f8>
    8000443a:	978a                	add	a5,a5,sp
    8000443c:	e390                	sd	a2,0(a5)
    8000443e:	9dae860b          	.insn	4, 0x9dae860b
    80004442:	7cb5860b          	.insn	4, 0x7cb5860b
    80004446:	5cb5060b          	.insn	4, 0x5cb5060b
    8000444a:	3ca5060b          	.insn	4, 0x3ca5060b
    8000444e:	c0a5067b          	.insn	4, 0xc0a5067b
    80004452:	6785                	lui	a5,0x1
    80004454:	8207879b          	addiw	a5,a5,-2016 # 820 <buflen.1+0x7e0>
    80004458:	978a                	add	a5,a5,sp
    8000445a:	e390                	sd	a2,0(a5)
    8000445c:	9da9860b          	.insn	4, 0x9da9860b
    80004460:	7cb5860b          	.insn	4, 0x7cb5860b
    80004464:	5ca5060b          	.insn	4, 0x5ca5060b
    80004468:	3ca5060b          	.insn	4, 0x3ca5060b
    8000446c:	c0a5067b          	.insn	4, 0xc0a5067b
    80004470:	6785                	lui	a5,0x1
    80004472:	8107879b          	addiw	a5,a5,-2032 # 810 <buflen.1+0x7d0>
    80004476:	978a                	add	a5,a5,sp
    80004478:	e390                	sd	a2,0(a5)
    8000447a:	7cb5058b          	.insn	4, 0x7cb5058b
    8000447e:	9da7058b          	.insn	4, 0x9da7058b
    80004482:	5ca5058b          	.insn	4, 0x5ca5058b
    80004486:	3ca5058b          	.insn	4, 0x3ca5058b
    8000448a:	c0a505fb          	.insn	4, 0xc0a505fb
    8000448e:	6605                	lui	a2,0x1
    80004490:	8086061b          	addiw	a2,a2,-2040 # 808 <buflen.1+0x7c8>
    80004494:	960a                	add	a2,a2,sp
    80004496:	e20c                	sd	a1,0(a2)
    80004498:	7ca5058b          	.insn	4, 0x7ca5058b
    8000449c:	5ca5058b          	.insn	4, 0x5ca5058b
    800044a0:	3ca5058b          	.insn	4, 0x3ca5058b
    800044a4:	c0a505fb          	.insn	4, 0xc0a505fb
    800044a8:	7eb13c23          	sd	a1,2040(sp)
    800044ac:	9da3858b          	.insn	4, 0x9da3858b
    800044b0:	7ca5058b          	.insn	4, 0x7ca5058b
    800044b4:	5ca5058b          	.insn	4, 0x5ca5058b
    800044b8:	0806b083          	ld	ra,128(a3)
    800044bc:	3ca5058b          	.insn	4, 0x3ca5058b
    800044c0:	c0a085fb          	.insn	4, 0xc0a085fb
    800044c4:	7eb13023          	sd	a1,2016(sp)
    800044c8:	9da3058b          	.insn	4, 0x9da3058b
    800044cc:	7ca5058b          	.insn	4, 0x7ca5058b
    800044d0:	5ca5058b          	.insn	4, 0x5ca5058b
    800044d4:	3ca5058b          	.insn	4, 0x3ca5058b
    800044d8:	c01085fb          	.insn	4, 0xc01085fb
    800044dc:	7eb13423          	sd	a1,2024(sp)
    800044e0:	9dae058b          	.insn	4, 0x9dae058b
    800044e4:	7ca5058b          	.insn	4, 0x7ca5058b
    800044e8:	5ca5058b          	.insn	4, 0x5ca5058b
    800044ec:	3ca0858b          	.insn	4, 0x3ca0858b
    800044f0:	c01085fb          	.insn	4, 0xc01085fb
    800044f4:	7cb13823          	sd	a1,2000(sp)
    800044f8:	7ca5058b          	.insn	4, 0x7ca5058b
    800044fc:	5ca5058b          	.insn	4, 0x5ca5058b
    80004500:	3c10858b          	.insn	4, 0x3c10858b
    80004504:	c01085fb          	.insn	4, 0xc01085fb
    80004508:	7cb13423          	sd	a1,1992(sp)
    8000450c:	9dae858b          	.insn	4, 0x9dae858b
    80004510:	7ca5058b          	.insn	4, 0x7ca5058b
    80004514:	5ca0858b          	.insn	4, 0x5ca0858b
    80004518:	3c10858b          	.insn	4, 0x3c10858b
    8000451c:	c01085fb          	.insn	4, 0xc01085fb
    80004520:	7ab13c23          	sd	a1,1976(sp)
    80004524:	9da9858b          	.insn	4, 0x9da9858b
    80004528:	7ca5058b          	.insn	4, 0x7ca5058b
    8000452c:	5c10858b          	.insn	4, 0x5c10858b
    80004530:	3c10858b          	.insn	4, 0x3c10858b
    80004534:	c01085fb          	.insn	4, 0xc01085fb
    80004538:	7ab13423          	sd	a1,1960(sp)
    8000453c:	7ca0850b          	.insn	4, 0x7ca0850b
    80004540:	459d                	li	a1,7
    80004542:	9da5850b          	.insn	4, 0x9da5850b
    80004546:	5c10850b          	.insn	4, 0x5c10850b
    8000454a:	3c10850b          	.insn	4, 0x3c10850b
    8000454e:	c010857b          	.insn	4, 0xc010857b
    80004552:	7aa13823          	sd	a0,1968(sp)
    80004556:	6505                	lui	a0,0x1
    80004558:	3305051b          	addiw	a0,a0,816 # 1330 <buflen.1+0x12f0>
    8000455c:	950a                	add	a0,a0,sp
    8000455e:	6108                	ld	a0,0(a0)
    80004560:	050d                	addi	a0,a0,3
    80004562:	052a                	slli	a0,a0,0xa
    80004564:	00aa0433          	add	s0,s4,a0
    80004568:	6010                	ld	a2,0(s0)
    8000456a:	6505                	lui	a0,0x1
    8000456c:	3205051b          	addiw	a0,a0,800 # 1320 <buflen.1+0x12e0>
    80004570:	950a                	add	a0,a0,sp
    80004572:	e110                	sd	a2,0(a0)
    80004574:	04043b83          	ld	s7,64(s0)
    80004578:	9da5850b          	.insn	4, 0x9da5850b
    8000457c:	431d                	li	t1,7
    8000457e:	7ccb850b          	.insn	4, 0x7ccb850b
    80004582:	5d7b850b          	.insn	4, 0x5d7b850b
    80004586:	3d7b850b          	.insn	4, 0x3d7b850b
    8000458a:	c17b857b          	.insn	4, 0xc17b857b
    8000458e:	6585                	lui	a1,0x1
    80004590:	ac05859b          	addiw	a1,a1,-1344 # ac0 <buflen.1+0xa80>
    80004594:	958a                	add	a1,a1,sp
    80004596:	e188                	sd	a0,0(a1)
    80004598:	604c                	ld	a1,128(s0)
    8000459a:	f4ae                	sd	a1,104(sp)
    8000459c:	7cb5850b          	.insn	4, 0x7cb5850b
    800045a0:	5cb5850b          	.insn	4, 0x5cb5850b
    800045a4:	3cb5850b          	.insn	4, 0x3cb5850b
    800045a8:	c0b5857b          	.insn	4, 0xc0b5857b
    800045ac:	6585                	lui	a1,0x1
    800045ae:	af85859b          	addiw	a1,a1,-1288 # af8 <buflen.1+0xab8>
    800045b2:	958a                	add	a1,a1,sp
    800045b4:	e188                	sd	a0,0(a1)
    800045b6:	6505                	lui	a0,0x1
    800045b8:	3305051b          	addiw	a0,a0,816 # 1330 <buflen.1+0x12f0>
    800045bc:	950a                	add	a0,a0,sp
    800045be:	6108                	ld	a0,0(a0)
    800045c0:	0511                	addi	a0,a0,4
    800045c2:	052a                	slli	a0,a0,0xa
    800045c4:	00aa0e33          	add	t3,s4,a0
    800045c8:	100e3f83          	ld	t6,256(t3)
    800045cc:	9da3850b          	.insn	4, 0x9da3850b
    800045d0:	7dff850b          	.insn	4, 0x7dff850b
    800045d4:	5dff850b          	.insn	4, 0x5dff850b
    800045d8:	140e3603          	ld	a2,320(t3)
    800045dc:	3dff850b          	.insn	4, 0x3dff850b
    800045e0:	c1f6057b          	.insn	4, 0xc1f6057b
    800045e4:	6585                	lui	a1,0x1
    800045e6:	eb85859b          	addiw	a1,a1,-328 # eb8 <buflen.1+0xe78>
    800045ea:	958a                	add	a1,a1,sp
    800045ec:	e188                	sd	a0,0(a1)
    800045ee:	4589                	li	a1,2
    800045f0:	9da5850b          	.insn	4, 0x9da5850b
    800045f4:	7cc6050b          	.insn	4, 0x7cc6050b
    800045f8:	5cc6050b          	.insn	4, 0x5cc6050b
    800045fc:	180e3783          	ld	a5,384(t3)
    80004600:	3cc6050b          	.insn	4, 0x3cc6050b
    80004604:	6505                	lui	a0,0x1
    80004606:	3185051b          	addiw	a0,a0,792 # 1318 <buflen.1+0x12d8>
    8000460a:	950a                	add	a0,a0,sp
    8000460c:	e110                	sd	a2,0(a0)
    8000460e:	c0f7857b          	.insn	4, 0xc0f7857b
    80004612:	6685                	lui	a3,0x1
    80004614:	ed06869b          	addiw	a3,a3,-304 # ed0 <buflen.1+0xe90>
    80004618:	968a                	add	a3,a3,sp
    8000461a:	e288                	sd	a0,0(a3)
    8000461c:	080e3703          	ld	a4,128(t3)
    80004620:	6505                	lui	a0,0x1
    80004622:	3005051b          	addiw	a0,a0,768 # 1300 <buflen.1+0x12c0>
    80004626:	950a                	add	a0,a0,sp
    80004628:	e118                	sd	a4,0(a0)
    8000462a:	7ce7050b          	.insn	4, 0x7ce7050b
    8000462e:	0c0e3683          	ld	a3,192(t3)
    80004632:	6505                	lui	a0,0x1
    80004634:	3085051b          	addiw	a0,a0,776 # 1308 <buflen.1+0x12c8>
    80004638:	950a                	add	a0,a0,sp
    8000463a:	e114                	sd	a3,0(a0)
    8000463c:	5ce7050b          	.insn	4, 0x5ce7050b
    80004640:	3cd6850b          	.insn	4, 0x3cd6850b
    80004644:	c0d6857b          	.insn	4, 0xc0d6857b
    80004648:	6685                	lui	a3,0x1
    8000464a:	e086869b          	addiw	a3,a3,-504 # e08 <buflen.1+0xdc8>
    8000464e:	968a                	add	a3,a3,sp
    80004650:	e288                	sd	a0,0(a3)
    80004652:	9da5850b          	.insn	4, 0x9da5850b
    80004656:	7dff850b          	.insn	4, 0x7dff850b
    8000465a:	5dff850b          	.insn	4, 0x5dff850b
    8000465e:	3dff850b          	.insn	4, 0x3dff850b
    80004662:	c0c6057b          	.insn	4, 0xc0c6057b
    80004666:	6605                	lui	a2,0x1
    80004668:	e706061b          	addiw	a2,a2,-400 # e70 <buflen.1+0xe30>
    8000466c:	960a                	add	a2,a2,sp
    8000466e:	e208                	sd	a0,0(a2)
    80004670:	6505                	lui	a0,0x1
    80004672:	3305051b          	addiw	a0,a0,816 # 1330 <buflen.1+0x12f0>
    80004676:	950a                	add	a0,a0,sp
    80004678:	6108                	ld	a0,0(a0)
    8000467a:	0515                	addi	a0,a0,5
    8000467c:	052a                	slli	a0,a0,0xa
    8000467e:	00aa0633          	add	a2,s4,a0
    80004682:	20063683          	ld	a3,512(a2)
    80004686:	9da5850b          	.insn	4, 0x9da5850b
    8000468a:	7cd6850b          	.insn	4, 0x7cd6850b
    8000468e:	5cd6850b          	.insn	4, 0x5cd6850b
    80004692:	24063583          	ld	a1,576(a2)
    80004696:	6505                	lui	a0,0x1
    80004698:	c385051b          	addiw	a0,a0,-968 # c38 <buflen.1+0xbf8>
    8000469c:	950a                	add	a0,a0,sp
    8000469e:	e10c                	sd	a1,0(a0)
    800046a0:	3cd6850b          	.insn	4, 0x3cd6850b
    800046a4:	c0b5857b          	.insn	4, 0xc0b5857b
    800046a8:	6705                	lui	a4,0x1
    800046aa:	1e87071b          	addiw	a4,a4,488 # 11e8 <buflen.1+0x11a8>
    800046ae:	970a                	add	a4,a4,sp
    800046b0:	e308                	sd	a0,0(a4)
    800046b2:	9da3850b          	.insn	4, 0x9da3850b
    800046b6:	7cd6850b          	.insn	4, 0x7cd6850b
    800046ba:	5cd6850b          	.insn	4, 0x5cd6850b
    800046be:	3cd6850b          	.insn	4, 0x3cd6850b
    800046c2:	c0d5857b          	.insn	4, 0xc0d5857b
    800046c6:	6585                	lui	a1,0x1
    800046c8:	1d05859b          	addiw	a1,a1,464 # 11d0 <buflen.1+0x1190>
    800046cc:	958a                	add	a1,a1,sp
    800046ce:	e188                	sd	a0,0(a1)
    800046d0:	7cd6850b          	.insn	4, 0x7cd6850b
    800046d4:	5cd6850b          	.insn	4, 0x5cd6850b
    800046d8:	3cd6850b          	.insn	4, 0x3cd6850b
    800046dc:	c0d6857b          	.insn	4, 0xc0d6857b
    800046e0:	6585                	lui	a1,0x1
    800046e2:	1b05859b          	addiw	a1,a1,432 # 11b0 <buflen.1+0x1170>
    800046e6:	958a                	add	a1,a1,sp
    800046e8:	e188                	sd	a0,0(a1)
    800046ea:	9da3050b          	.insn	4, 0x9da3050b
    800046ee:	5cd6850b          	.insn	4, 0x5cd6850b
    800046f2:	3cd6850b          	.insn	4, 0x3cd6850b
    800046f6:	1c063703          	ld	a4,448(a2)
    800046fa:	76e13823          	sd	a4,1904(sp)
    800046fe:	1cd6850b          	.insn	4, 0x1cd6850b
    80004702:	cce6857b          	.insn	4, 0xcce6857b
    80004706:	6585                	lui	a1,0x1
    80004708:	1905859b          	addiw	a1,a1,400 # 1190 <buflen.1+0x1150>
    8000470c:	958a                	add	a1,a1,sp
    8000470e:	e188                	sd	a0,0(a1)
    80004710:	458d                	li	a1,3
    80004712:	9da5850b          	.insn	4, 0x9da5850b
    80004716:	70f13423          	sd	a5,1800(sp)
    8000471a:	7cf7850b          	.insn	4, 0x7cf7850b
    8000471e:	1c0e3483          	ld	s1,448(t3)
    80004722:	6505                	lui	a0,0x1
    80004724:	3285051b          	addiw	a0,a0,808 # 1328 <buflen.1+0x12e8>
    80004728:	950a                	add	a0,a0,sp
    8000472a:	e104                	sd	s1,0(a0)
    8000472c:	5cf7850b          	.insn	4, 0x5cf7850b
    80004730:	3cf4850b          	.insn	4, 0x3cf4850b
    80004734:	c094857b          	.insn	4, 0xc094857b
    80004738:	6785                	lui	a5,0x1
    8000473a:	e607879b          	addiw	a5,a5,-416 # e60 <buflen.1+0xe20>
    8000473e:	978a                	add	a5,a5,sp
    80004740:	e388                	sd	a0,0(a5)
    80004742:	9da9850b          	.insn	4, 0x9da9850b
    80004746:	5cd6850b          	.insn	4, 0x5cd6850b
    8000474a:	3cd6850b          	.insn	4, 0x3cd6850b
    8000474e:	1cd6850b          	.insn	4, 0x1cd6850b
    80004752:	cce7057b          	.insn	4, 0xcce7057b
    80004756:	6785                	lui	a5,0x1
    80004758:	1707879b          	addiw	a5,a5,368 # 1170 <buflen.1+0x1130>
    8000475c:	978a                	add	a5,a5,sp
    8000475e:	e388                	sd	a0,0(a5)
    80004760:	9dae850b          	.insn	4, 0x9dae850b
    80004764:	3cd6850b          	.insn	4, 0x3cd6850b
    80004768:	1cd6850b          	.insn	4, 0x1cd6850b
    8000476c:	7ce7050b          	.insn	4, 0x7ce7050b
    80004770:	c8e6857b          	.insn	4, 0xc8e6857b
    80004774:	6785                	lui	a5,0x1
    80004776:	1587879b          	addiw	a5,a5,344 # 1158 <buflen.1+0x1118>
    8000477a:	978a                	add	a5,a5,sp
    8000477c:	e388                	sd	a0,0(a5)
    8000477e:	3cd6850b          	.insn	4, 0x3cd6850b
    80004782:	1cd6850b          	.insn	4, 0x1cd6850b
    80004786:	78d13023          	sd	a3,1920(sp)
    8000478a:	7ce7050b          	.insn	4, 0x7ce7050b
    8000478e:	c8e7057b          	.insn	4, 0xc8e7057b
    80004792:	6785                	lui	a5,0x1
    80004794:	1407879b          	addiw	a5,a5,320 # 1140 <buflen.1+0x1100>
    80004798:	978a                	add	a5,a5,sp
    8000479a:	e388                	sd	a0,0(a5)
    8000479c:	9da5850b          	.insn	4, 0x9da5850b
    800047a0:	480d                	li	a6,3
    800047a2:	1cd6850b          	.insn	4, 0x1cd6850b
    800047a6:	7ce7050b          	.insn	4, 0x7ce7050b
    800047aa:	5ce7050b          	.insn	4, 0x5ce7050b
    800047ae:	c4e6857b          	.insn	4, 0xc4e6857b
    800047b2:	6585                	lui	a1,0x1
    800047b4:	1205859b          	addiw	a1,a1,288 # 1120 <buflen.1+0x10e0>
    800047b8:	958a                	add	a1,a1,sp
    800047ba:	e188                	sd	a0,0(a1)
    800047bc:	9da3850b          	.insn	4, 0x9da3850b
    800047c0:	7ce7050b          	.insn	4, 0x7ce7050b
    800047c4:	5ce7050b          	.insn	4, 0x5ce7050b
    800047c8:	3ce7050b          	.insn	4, 0x3ce7050b
    800047cc:	c0e6857b          	.insn	4, 0xc0e6857b
    800047d0:	6585                	lui	a1,0x1
    800047d2:	1085859b          	addiw	a1,a1,264 # 1108 <buflen.1+0x10c8>
    800047d6:	958a                	add	a1,a1,sp
    800047d8:	e188                	sd	a0,0(a1)
    800047da:	7ce7050b          	.insn	4, 0x7ce7050b
    800047de:	5ce7050b          	.insn	4, 0x5ce7050b
    800047e2:	3ce7050b          	.insn	4, 0x3ce7050b
    800047e6:	c0e7057b          	.insn	4, 0xc0e7057b
    800047ea:	6585                	lui	a1,0x1
    800047ec:	0f85859b          	addiw	a1,a1,248 # 10f8 <buflen.1+0x10b8>
    800047f0:	958a                	add	a1,a1,sp
    800047f2:	e188                	sd	a0,0(a1)
    800047f4:	9da3050b          	.insn	4, 0x9da3050b
    800047f8:	5ce7050b          	.insn	4, 0x5ce7050b
    800047fc:	3ce7050b          	.insn	4, 0x3ce7050b
    80004800:	18063683          	ld	a3,384(a2)
    80004804:	74d13823          	sd	a3,1872(sp)
    80004808:	1ce7050b          	.insn	4, 0x1ce7050b
    8000480c:	ccd7057b          	.insn	4, 0xccd7057b
    80004810:	6585                	lui	a1,0x1
    80004812:	0d85859b          	addiw	a1,a1,216 # 10d8 <buflen.1+0x1098>
    80004816:	958a                	add	a1,a1,sp
    80004818:	e188                	sd	a0,0(a1)
    8000481a:	9da9850b          	.insn	4, 0x9da9850b
    8000481e:	5ce7050b          	.insn	4, 0x5ce7050b
    80004822:	3ce7050b          	.insn	4, 0x3ce7050b
    80004826:	1ce7050b          	.insn	4, 0x1ce7050b
    8000482a:	ccd6857b          	.insn	4, 0xccd6857b
    8000482e:	6585                	lui	a1,0x1
    80004830:	0b05859b          	addiw	a1,a1,176 # 10b0 <buflen.1+0x1070>
    80004834:	958a                	add	a1,a1,sp
    80004836:	e188                	sd	a0,0(a1)
    80004838:	3ce7050b          	.insn	4, 0x3ce7050b
    8000483c:	1ce7050b          	.insn	4, 0x1ce7050b
    80004840:	7cd6850b          	.insn	4, 0x7cd6850b
    80004844:	c8d6857b          	.insn	4, 0xc8d6857b
    80004848:	6585                	lui	a1,0x1
    8000484a:	0985859b          	addiw	a1,a1,152 # 1098 <buflen.1+0x1058>
    8000484e:	958a                	add	a1,a1,sp
    80004850:	e188                	sd	a0,0(a1)
    80004852:	9da8050b          	.insn	4, 0x9da8050b
    80004856:	1ce7050b          	.insn	4, 0x1ce7050b
    8000485a:	7cd6850b          	.insn	4, 0x7cd6850b
    8000485e:	5cd6850b          	.insn	4, 0x5cd6850b
    80004862:	c4d7057b          	.insn	4, 0xc4d7057b
    80004866:	6585                	lui	a1,0x1
    80004868:	0885859b          	addiw	a1,a1,136 # 1088 <buflen.1+0x1048>
    8000486c:	958a                	add	a1,a1,sp
    8000486e:	e188                	sd	a0,0(a1)
    80004870:	4589                	li	a1,2
    80004872:	9da5850b          	.insn	4, 0x9da5850b
    80004876:	1ce7050b          	.insn	4, 0x1ce7050b
    8000487a:	7cd6850b          	.insn	4, 0x7cd6850b
    8000487e:	5cd6850b          	.insn	4, 0x5cd6850b
    80004882:	c4d6857b          	.insn	4, 0xc4d6857b
    80004886:	6685                	lui	a3,0x1
    80004888:	0786869b          	addiw	a3,a3,120 # 1078 <buflen.1+0x1038>
    8000488c:	968a                	add	a3,a3,sp
    8000488e:	e288                	sd	a0,0(a3)
    80004890:	10043683          	ld	a3,256(s0)
    80004894:	fcb6                	sd	a3,120(sp)
    80004896:	9da5850b          	.insn	4, 0x9da5850b
    8000489a:	4c89                	li	s9,2
    8000489c:	7cd6850b          	.insn	4, 0x7cd6850b
    800048a0:	5cd6850b          	.insn	4, 0x5cd6850b
    800048a4:	14043c03          	ld	s8,320(s0)
    800048a8:	3cd6850b          	.insn	4, 0x3cd6850b
    800048ac:	c18c057b          	.insn	4, 0xc18c057b
    800048b0:	6585                	lui	a1,0x1
    800048b2:	9985859b          	addiw	a1,a1,-1640 # 998 <buflen.1+0x958>
    800048b6:	958a                	add	a1,a1,sp
    800048b8:	e188                	sd	a0,0(a1)
    800048ba:	18043b03          	ld	s6,384(s0)
    800048be:	9da8050b          	.insn	4, 0x9da8050b
    800048c2:	7d6b050b          	.insn	4, 0x7d6b050b
    800048c6:	1c043483          	ld	s1,448(s0)
    800048ca:	5d6b050b          	.insn	4, 0x5d6b050b
    800048ce:	3d64850b          	.insn	4, 0x3d64850b
    800048d2:	c094857b          	.insn	4, 0xc094857b
    800048d6:	6585                	lui	a1,0x1
    800048d8:	9f05859b          	addiw	a1,a1,-1552 # 9f0 <buflen.1+0x9b0>
    800048dc:	958a                	add	a1,a1,sp
    800048de:	e188                	sd	a0,0(a1)
    800048e0:	2c043883          	ld	a7,704(s0)
    800048e4:	7d18850b          	.insn	4, 0x7d18850b
    800048e8:	30043783          	ld	a5,768(s0)
    800048ec:	5d18850b          	.insn	4, 0x5d18850b
    800048f0:	3cf7850b          	.insn	4, 0x3cf7850b
    800048f4:	c0f7857b          	.insn	4, 0xc0f7857b
    800048f8:	6585                	lui	a1,0x1
    800048fa:	af05859b          	addiw	a1,a1,-1296 # af0 <buflen.1+0xab0>
    800048fe:	958a                	add	a1,a1,sp
    80004900:	e188                	sd	a0,0(a1)
    80004902:	38043583          	ld	a1,896(s0)
    80004906:	3c043f03          	ld	t5,960(s0)
    8000490a:	82a2                	mv	t0,s0
    8000490c:	9da3050b          	.insn	4, 0x9da3050b
    80004910:	7cbf050b          	.insn	4, 0x7cbf050b
    80004914:	5def050b          	.insn	4, 0x5def050b
    80004918:	3def050b          	.insn	4, 0x3def050b
    8000491c:	c1ef057b          	.insn	4, 0xc1ef057b
    80004920:	6685                	lui	a3,0x1
    80004922:	bc86869b          	addiw	a3,a3,-1080 # bc8 <buflen.1+0xb88>
    80004926:	968a                	add	a3,a3,sp
    80004928:	e288                	sd	a0,0(a3)
    8000492a:	9da9850b          	.insn	4, 0x9da9850b
    8000492e:	5cb5850b          	.insn	4, 0x5cb5850b
    80004932:	3cb5850b          	.insn	4, 0x3cb5850b
    80004936:	34043683          	ld	a3,832(s0)
    8000493a:	1cb5850b          	.insn	4, 0x1cb5850b
    8000493e:	ccd6857b          	.insn	4, 0xccd6857b
    80004942:	6705                	lui	a4,0x1
    80004944:	b707071b          	addiw	a4,a4,-1168 # b70 <buflen.1+0xb30>
    80004948:	970a                	add	a4,a4,sp
    8000494a:	e308                	sd	a0,0(a4)
    8000494c:	9da3850b          	.insn	4, 0x9da3850b
    80004950:	7cd6850b          	.insn	4, 0x7cd6850b
    80004954:	5cd6850b          	.insn	4, 0x5cd6850b
    80004958:	3cd6850b          	.insn	4, 0x3cd6850b
    8000495c:	c0d5857b          	.insn	4, 0xc0d5857b
    80004960:	6705                	lui	a4,0x1
    80004962:	b287071b          	addiw	a4,a4,-1240 # b28 <buflen.1+0xae8>
    80004966:	970a                	add	a4,a4,sp
    80004968:	e308                	sd	a0,0(a4)
    8000496a:	9dae850b          	.insn	4, 0x9dae850b
    8000496e:	7cf7850b          	.insn	4, 0x7cf7850b
    80004972:	5cf6850b          	.insn	4, 0x5cf6850b
    80004976:	3cd6850b          	.insn	4, 0x3cd6850b
    8000497a:	c0d6857b          	.insn	4, 0xc0d6857b
    8000497e:	6705                	lui	a4,0x1
    80004980:	ae07071b          	addiw	a4,a4,-1312 # ae0 <buflen.1+0xaa0>
    80004984:	970a                	add	a4,a4,sp
    80004986:	e308                	sd	a0,0(a4)
    80004988:	8432                	mv	s0,a2
    8000498a:	72c13423          	sd	a2,1832(sp)
    8000498e:	6208                	ld	a0,0(a2)
    80004990:	9da3860b          	.insn	4, 0x9da3860b
    80004994:	7ca5060b          	.insn	4, 0x7ca5060b
    80004998:	5ca5060b          	.insn	4, 0x5ca5060b
    8000499c:	6030                	ld	a2,64(s0)
    8000499e:	3ca5070b          	.insn	4, 0x3ca5070b
    800049a2:	c0a6077b          	.insn	4, 0xc0a6077b
    800049a6:	6905                	lui	s2,0x1
    800049a8:	ef09091b          	addiw	s2,s2,-272 # ef0 <buflen.1+0xeb0>
    800049ac:	990a                	add	s2,s2,sp
    800049ae:	00e93023          	sd	a4,0(s2)
    800049b2:	6040                	ld	s0,128(s0)
    800049b4:	9da3070b          	.insn	4, 0x9da3070b
    800049b8:	7cc4070b          	.insn	4, 0x7cc4070b
    800049bc:	5c84070b          	.insn	4, 0x5c84070b
    800049c0:	3c84070b          	.insn	4, 0x3c84070b
    800049c4:	c084077b          	.insn	4, 0xc084077b
    800049c8:	6905                	lui	s2,0x1
    800049ca:	f389091b          	addiw	s2,s2,-200 # f38 <buflen.1+0xef8>
    800049ce:	990a                	add	s2,s2,sp
    800049d0:	00e93023          	sd	a4,0(s2)
    800049d4:	9da9870b          	.insn	4, 0x9da9870b
    800049d8:	7cc6070b          	.insn	4, 0x7cc6070b
    800049dc:	5c84070b          	.insn	4, 0x5c84070b
    800049e0:	3c84070b          	.insn	4, 0x3c84070b
    800049e4:	c084077b          	.insn	4, 0xc084077b
    800049e8:	6905                	lui	s2,0x1
    800049ea:	f209091b          	addiw	s2,s2,-224 # f20 <buflen.1+0xee0>
    800049ee:	990a                	add	s2,s2,sp
    800049f0:	00e93023          	sd	a4,0(s2)
    800049f4:	9dae870b          	.insn	4, 0x9dae870b
    800049f8:	7cc6070b          	.insn	4, 0x7cc6070b
    800049fc:	5cc4070b          	.insn	4, 0x5cc4070b
    80004a00:	3c84070b          	.insn	4, 0x3c84070b
    80004a04:	c084077b          	.insn	4, 0xc084077b
    80004a08:	6905                	lui	s2,0x1
    80004a0a:	f009091b          	addiw	s2,s2,-256 # f00 <buflen.1+0xec0>
    80004a0e:	990a                	add	s2,s2,sp
    80004a10:	00e93023          	sd	a4,0(s2)
    80004a14:	7cc6070b          	.insn	4, 0x7cc6070b
    80004a18:	5cc6070b          	.insn	4, 0x5cc6070b
    80004a1c:	3c84070b          	.insn	4, 0x3c84070b
    80004a20:	c084077b          	.insn	4, 0xc084077b
    80004a24:	6905                	lui	s2,0x1
    80004a26:	ee09091b          	addiw	s2,s2,-288 # ee0 <buflen.1+0xea0>
    80004a2a:	990a                	add	s2,s2,sp
    80004a2c:	00e93023          	sd	a4,0(s2)
    80004a30:	9da8070b          	.insn	4, 0x9da8070b
    80004a34:	7cc6070b          	.insn	4, 0x7cc6070b
    80004a38:	5cc6070b          	.insn	4, 0x5cc6070b
    80004a3c:	3cc4070b          	.insn	4, 0x3cc4070b
    80004a40:	c084077b          	.insn	4, 0xc084077b
    80004a44:	6905                	lui	s2,0x1
    80004a46:	8689091b          	addiw	s2,s2,-1944 # 868 <buflen.1+0x828>
    80004a4a:	990a                	add	s2,s2,sp
    80004a4c:	00893023          	sd	s0,0(s2)
    80004a50:	6905                	lui	s2,0x1
    80004a52:	ec89091b          	addiw	s2,s2,-312 # ec8 <buflen.1+0xe88>
    80004a56:	990a                	add	s2,s2,sp
    80004a58:	00e93023          	sd	a4,0(s2)
    80004a5c:	9dac870b          	.insn	4, 0x9dac870b
    80004a60:	7cc6070b          	.insn	4, 0x7cc6070b
    80004a64:	5cc6070b          	.insn	4, 0x5cc6070b
    80004a68:	3cc6070b          	.insn	4, 0x3cc6070b
    80004a6c:	c084077b          	.insn	4, 0xc084077b
    80004a70:	6905                	lui	s2,0x1
    80004a72:	ea89091b          	addiw	s2,s2,-344 # ea8 <buflen.1+0xe68>
    80004a76:	990a                	add	s2,s2,sp
    80004a78:	00e93023          	sd	a4,0(s2)
    80004a7c:	9da3870b          	.insn	4, 0x9da3870b
    80004a80:	7cc6070b          	.insn	4, 0x7cc6070b
    80004a84:	5cc6070b          	.insn	4, 0x5cc6070b
    80004a88:	3cc6070b          	.insn	4, 0x3cc6070b
    80004a8c:	c0c4077b          	.insn	4, 0xc0c4077b
    80004a90:	6405                	lui	s0,0x1
    80004a92:	e884041b          	addiw	s0,s0,-376 # e88 <buflen.1+0xe48>
    80004a96:	940a                	add	s0,s0,sp
    80004a98:	e018                	sd	a4,0(s0)
    80004a9a:	7cc6070b          	.insn	4, 0x7cc6070b
    80004a9e:	5cc6070b          	.insn	4, 0x5cc6070b
    80004aa2:	3cc6070b          	.insn	4, 0x3cc6070b
    80004aa6:	c0c6077b          	.insn	4, 0xc0c6077b
    80004aaa:	6405                	lui	s0,0x1
    80004aac:	e584041b          	addiw	s0,s0,-424 # e58 <buflen.1+0xe18>
    80004ab0:	940a                	add	s0,s0,sp
    80004ab2:	e018                	sd	a4,0(s0)
    80004ab4:	9da3070b          	.insn	4, 0x9da3070b
    80004ab8:	7ca6070b          	.insn	4, 0x7ca6070b
    80004abc:	5cc6070b          	.insn	4, 0x5cc6070b
    80004ac0:	3cc6070b          	.insn	4, 0x3cc6070b
    80004ac4:	c0c6077b          	.insn	4, 0xc0c6077b
    80004ac8:	6405                	lui	s0,0x1
    80004aca:	e404041b          	addiw	s0,s0,-448 # e40 <buflen.1+0xe00>
    80004ace:	940a                	add	s0,s0,sp
    80004ad0:	e018                	sd	a4,0(s0)
    80004ad2:	9da9870b          	.insn	4, 0x9da9870b
    80004ad6:	7ca5070b          	.insn	4, 0x7ca5070b
    80004ada:	5cc6070b          	.insn	4, 0x5cc6070b
    80004ade:	3cc6070b          	.insn	4, 0x3cc6070b
    80004ae2:	c0c6077b          	.insn	4, 0xc0c6077b
    80004ae6:	6405                	lui	s0,0x1
    80004ae8:	e284041b          	addiw	s0,s0,-472 # e28 <buflen.1+0xde8>
    80004aec:	940a                	add	s0,s0,sp
    80004aee:	e018                	sd	a4,0(s0)
    80004af0:	9dac870b          	.insn	4, 0x9dac870b
    80004af4:	7ca5070b          	.insn	4, 0x7ca5070b
    80004af8:	5ca5070b          	.insn	4, 0x5ca5070b
    80004afc:	3ca5070b          	.insn	4, 0x3ca5070b
    80004b00:	c0c6077b          	.insn	4, 0xc0c6077b
    80004b04:	6405                	lui	s0,0x1
    80004b06:	df04041b          	addiw	s0,s0,-528 # df0 <buflen.1+0xdb0>
    80004b0a:	940a                	add	s0,s0,sp
    80004b0c:	e018                	sd	a4,0(s0)
    80004b0e:	9dae870b          	.insn	4, 0x9dae870b
    80004b12:	7ca5070b          	.insn	4, 0x7ca5070b
    80004b16:	5ca6070b          	.insn	4, 0x5ca6070b
    80004b1a:	3cc6070b          	.insn	4, 0x3cc6070b
    80004b1e:	c0c6077b          	.insn	4, 0xc0c6077b
    80004b22:	6405                	lui	s0,0x1
    80004b24:	e004041b          	addiw	s0,s0,-512 # e00 <buflen.1+0xdc0>
    80004b28:	940a                	add	s0,s0,sp
    80004b2a:	e018                	sd	a4,0(s0)
    80004b2c:	7ca5070b          	.insn	4, 0x7ca5070b
    80004b30:	5ca5070b          	.insn	4, 0x5ca5070b
    80004b34:	3cc6070b          	.insn	4, 0x3cc6070b
    80004b38:	c0c6077b          	.insn	4, 0xc0c6077b
    80004b3c:	6405                	lui	s0,0x1
    80004b3e:	de84041b          	addiw	s0,s0,-536 # de8 <buflen.1+0xda8>
    80004b42:	940a                	add	s0,s0,sp
    80004b44:	e018                	sd	a4,0(s0)
    80004b46:	9da8070b          	.insn	4, 0x9da8070b
    80004b4a:	7ca5070b          	.insn	4, 0x7ca5070b
    80004b4e:	5ca5070b          	.insn	4, 0x5ca5070b
    80004b52:	3ca6070b          	.insn	4, 0x3ca6070b
    80004b56:	c0c6067b          	.insn	4, 0xc0c6067b
    80004b5a:	6705                	lui	a4,0x1
    80004b5c:	dc87071b          	addiw	a4,a4,-568 # dc8 <buflen.1+0xd88>
    80004b60:	970a                	add	a4,a4,sp
    80004b62:	e310                	sd	a2,0(a4)
    80004b64:	7ca5060b          	.insn	4, 0x7ca5060b
    80004b68:	5ca5060b          	.insn	4, 0x5ca5060b
    80004b6c:	3ca5060b          	.insn	4, 0x3ca5060b
    80004b70:	c0a5057b          	.insn	4, 0xc0a5057b
    80004b74:	6605                	lui	a2,0x1
    80004b76:	da86061b          	addiw	a2,a2,-600 # da8 <buflen.1+0xd68>
    80004b7a:	960a                	add	a2,a2,sp
    80004b7c:	e208                	sd	a0,0(a2)
    80004b7e:	8616                	mv	a2,t0
    80004b80:	52513823          	sd	t0,1328(sp)
    80004b84:	2002b283          	ld	t0,512(t0)
    80004b88:	9da3850b          	.insn	4, 0x9da3850b
    80004b8c:	7c52850b          	.insn	4, 0x7c52850b
    80004b90:	5c52850b          	.insn	4, 0x5c52850b
    80004b94:	24063703          	ld	a4,576(a2)
    80004b98:	3c52850b          	.insn	4, 0x3c52850b
    80004b9c:	c057057b          	.insn	4, 0xc057057b
    80004ba0:	6605                	lui	a2,0x1
    80004ba2:	8886061b          	addiw	a2,a2,-1912 # 888 <buflen.1+0x848>
    80004ba6:	960a                	add	a2,a2,sp
    80004ba8:	e208                	sd	a0,0(a2)
    80004baa:	3c0e3503          	ld	a0,960(t3)
    80004bae:	7ca5060b          	.insn	4, 0x7ca5060b
    80004bb2:	5ca5060b          	.insn	4, 0x5ca5060b
    80004bb6:	3ca5060b          	.insn	4, 0x3ca5060b
    80004bba:	c0a5067b          	.insn	4, 0xc0a5067b
    80004bbe:	6405                	lui	s0,0x1
    80004bc0:	d804041b          	addiw	s0,s0,-640 # d80 <buflen.1+0xd40>
    80004bc4:	940a                	add	s0,s0,sp
    80004bc6:	e010                	sd	a2,0(s0)
    80004bc8:	9da3060b          	.insn	4, 0x9da3060b
    80004bcc:	5ca5060b          	.insn	4, 0x5ca5060b
    80004bd0:	3ca5060b          	.insn	4, 0x3ca5060b
    80004bd4:	380e3603          	ld	a2,896(t3)
    80004bd8:	1ca5040b          	.insn	4, 0x1ca5040b
    80004bdc:	ccc5047b          	.insn	4, 0xccc5047b
    80004be0:	6905                	lui	s2,0x1
    80004be2:	d509091b          	addiw	s2,s2,-688 # d50 <buflen.1+0xd10>
    80004be6:	990a                	add	s2,s2,sp
    80004be8:	00893023          	sd	s0,0(s2)
    80004bec:	9da9840b          	.insn	4, 0x9da9840b
    80004bf0:	5ca5040b          	.insn	4, 0x5ca5040b
    80004bf4:	3ca5040b          	.insn	4, 0x3ca5040b
    80004bf8:	1ca5040b          	.insn	4, 0x1ca5040b
    80004bfc:	ccc6047b          	.insn	4, 0xccc6047b
    80004c00:	6905                	lui	s2,0x1
    80004c02:	d409091b          	addiw	s2,s2,-704 # d40 <buflen.1+0xd00>
    80004c06:	990a                	add	s2,s2,sp
    80004c08:	00893023          	sd	s0,0(s2)
    80004c0c:	9da3840b          	.insn	4, 0x9da3840b
    80004c10:	7cc6040b          	.insn	4, 0x7cc6040b
    80004c14:	5cc6040b          	.insn	4, 0x5cc6040b
    80004c18:	3cc6040b          	.insn	4, 0x3cc6040b
    80004c1c:	c0c5047b          	.insn	4, 0xc0c5047b
    80004c20:	6385                	lui	t2,0x1
    80004c22:	d003839b          	addiw	t2,t2,-768 # d00 <buflen.1+0xcc0>
    80004c26:	938a                	add	t2,t2,sp
    80004c28:	0083b023          	sd	s0,0(t2)
    80004c2c:	9dae840b          	.insn	4, 0x9dae840b
    80004c30:	3ca5040b          	.insn	4, 0x3ca5040b
    80004c34:	1ca5040b          	.insn	4, 0x1ca5040b
    80004c38:	7cc6040b          	.insn	4, 0x7cc6040b
    80004c3c:	c8c5047b          	.insn	4, 0xc8c5047b
    80004c40:	6385                	lui	t2,0x1
    80004c42:	d183839b          	addiw	t2,t2,-744 # d18 <buflen.1+0xcd8>
    80004c46:	938a                	add	t2,t2,sp
    80004c48:	0083b023          	sd	s0,0(t2)
    80004c4c:	3ca5040b          	.insn	4, 0x3ca5040b
    80004c50:	1ca5040b          	.insn	4, 0x1ca5040b
    80004c54:	7cc6040b          	.insn	4, 0x7cc6040b
    80004c58:	c8c6047b          	.insn	4, 0xc8c6047b
    80004c5c:	6385                	lui	t2,0x1
    80004c5e:	d083839b          	addiw	t2,t2,-760 # d08 <buflen.1+0xcc8>
    80004c62:	938a                	add	t2,t2,sp
    80004c64:	0083b023          	sd	s0,0(t2)
    80004c68:	9da8040b          	.insn	4, 0x9da8040b
    80004c6c:	1ca5040b          	.insn	4, 0x1ca5040b
    80004c70:	7cc6040b          	.insn	4, 0x7cc6040b
    80004c74:	5cc6040b          	.insn	4, 0x5cc6040b
    80004c78:	c4c5047b          	.insn	4, 0xc4c5047b
    80004c7c:	6385                	lui	t2,0x1
    80004c7e:	ce83839b          	addiw	t2,t2,-792 # ce8 <buflen.1+0xca8>
    80004c82:	938a                	add	t2,t2,sp
    80004c84:	0083b023          	sd	s0,0(t2)
    80004c88:	1ca5050b          	.insn	4, 0x1ca5050b
    80004c8c:	9dac850b          	.insn	4, 0x9dac850b
    80004c90:	7cc6050b          	.insn	4, 0x7cc6050b
    80004c94:	5cc6050b          	.insn	4, 0x5cc6050b
    80004c98:	c4c6057b          	.insn	4, 0xc4c6057b
    80004c9c:	6385                	lui	t2,0x1
    80004c9e:	cc03839b          	addiw	t2,t2,-832 # cc0 <buflen.1+0xc80>
    80004ca2:	938a                	add	t2,t2,sp
    80004ca4:	00a3b023          	sd	a0,0(t2)
    80004ca8:	7cc6050b          	.insn	4, 0x7cc6050b
    80004cac:	5cc6050b          	.insn	4, 0x5cc6050b
    80004cb0:	3cc6050b          	.insn	4, 0x3cc6050b
    80004cb4:	c0c6057b          	.insn	4, 0xc0c6057b
    80004cb8:	6385                	lui	t2,0x1
    80004cba:	ca03839b          	addiw	t2,t2,-864 # ca0 <buflen.1+0xc60>
    80004cbe:	938a                	add	t2,t2,sp
    80004cc0:	00a3b023          	sd	a0,0(t2)
    80004cc4:	9da3050b          	.insn	4, 0x9da3050b
    80004cc8:	5cc6050b          	.insn	4, 0x5cc6050b
    80004ccc:	3cc6050b          	.insn	4, 0x3cc6050b
    80004cd0:	340e3e83          	ld	t4,832(t3)
    80004cd4:	1cc6050b          	.insn	4, 0x1cc6050b
    80004cd8:	cdd6057b          	.insn	4, 0xcdd6057b
    80004cdc:	6385                	lui	t2,0x1
    80004cde:	c903839b          	addiw	t2,t2,-880 # c90 <buflen.1+0xc50>
    80004ce2:	938a                	add	t2,t2,sp
    80004ce4:	00a3b023          	sd	a0,0(t2)
    80004ce8:	9da9850b          	.insn	4, 0x9da9850b
    80004cec:	5cc6050b          	.insn	4, 0x5cc6050b
    80004cf0:	3cc6050b          	.insn	4, 0x3cc6050b
    80004cf4:	1cc6050b          	.insn	4, 0x1cc6050b
    80004cf8:	cdde857b          	.insn	4, 0xcdde857b
    80004cfc:	6385                	lui	t2,0x1
    80004cfe:	c683839b          	addiw	t2,t2,-920 # c68 <buflen.1+0xc28>
    80004d02:	938a                	add	t2,t2,sp
    80004d04:	00a3b023          	sd	a0,0(t2)
    80004d08:	4415                	li	s0,5
    80004d0a:	9da4050b          	.insn	4, 0x9da4050b
    80004d0e:	3cc6050b          	.insn	4, 0x3cc6050b
    80004d12:	1cc6050b          	.insn	4, 0x1cc6050b
    80004d16:	7dde850b          	.insn	4, 0x7dde850b
    80004d1a:	c9d6057b          	.insn	4, 0xc9d6057b
    80004d1e:	6385                	lui	t2,0x1
    80004d20:	c583839b          	addiw	t2,t2,-936 # c58 <buflen.1+0xc18>
    80004d24:	938a                	add	t2,t2,sp
    80004d26:	00a3b023          	sd	a0,0(t2)
    80004d2a:	7cf7850b          	.insn	4, 0x7cf7850b
    80004d2e:	5cf7850b          	.insn	4, 0x5cf7850b
    80004d32:	3cf7850b          	.insn	4, 0x3cf7850b
    80004d36:	c0f7857b          	.insn	4, 0xc0f7857b
    80004d3a:	6385                	lui	t2,0x1
    80004d3c:	8583839b          	addiw	t2,t2,-1960 # 858 <buflen.1+0x818>
    80004d40:	938a                	add	t2,t2,sp
    80004d42:	00a3b023          	sd	a0,0(t2)
    80004d46:	3cc6050b          	.insn	4, 0x3cc6050b
    80004d4a:	1cc6050b          	.insn	4, 0x1cc6050b
    80004d4e:	7dde850b          	.insn	4, 0x7dde850b
    80004d52:	c9de857b          	.insn	4, 0xc9de857b
    80004d56:	6385                	lui	t2,0x1
    80004d58:	c303839b          	addiw	t2,t2,-976 # c30 <buflen.1+0xbf0>
    80004d5c:	938a                	add	t2,t2,sp
    80004d5e:	00a3b023          	sd	a0,0(t2)
    80004d62:	9da8050b          	.insn	4, 0x9da8050b
    80004d66:	1cc6050b          	.insn	4, 0x1cc6050b
    80004d6a:	7dde850b          	.insn	4, 0x7dde850b
    80004d6e:	5dde850b          	.insn	4, 0x5dde850b
    80004d72:	c5d6057b          	.insn	4, 0xc5d6057b
    80004d76:	6385                	lui	t2,0x1
    80004d78:	c183839b          	addiw	t2,t2,-1000 # c18 <buflen.1+0xbd8>
    80004d7c:	938a                	add	t2,t2,sp
    80004d7e:	00a3b023          	sd	a0,0(t2)
    80004d82:	9dac850b          	.insn	4, 0x9dac850b
    80004d86:	1cc6050b          	.insn	4, 0x1cc6050b
    80004d8a:	7dde850b          	.insn	4, 0x7dde850b
    80004d8e:	5dde850b          	.insn	4, 0x5dde850b
    80004d92:	c5de857b          	.insn	4, 0xc5de857b
    80004d96:	6385                	lui	t2,0x1
    80004d98:	c083839b          	addiw	t2,t2,-1016 # c08 <buflen.1+0xbc8>
    80004d9c:	938a                	add	t2,t2,sp
    80004d9e:	00a3b023          	sd	a0,0(t2)
    80004da2:	9da3050b          	.insn	4, 0x9da3050b
    80004da6:	5dde850b          	.insn	4, 0x5dde850b
    80004daa:	3dde850b          	.insn	4, 0x3dde850b
    80004dae:	300e3383          	ld	t2,768(t3)
    80004db2:	1dde850b          	.insn	4, 0x1dde850b
    80004db6:	cc7e857b          	.insn	4, 0xcc7e857b
    80004dba:	6305                	lui	t1,0x1
    80004dbc:	bd83031b          	addiw	t1,t1,-1064 # bd8 <buflen.1+0xb98>
    80004dc0:	930a                	add	t1,t1,sp
    80004dc2:	00a33023          	sd	a0,0(t1)
    80004dc6:	9da9850b          	.insn	4, 0x9da9850b
    80004dca:	5dde850b          	.insn	4, 0x5dde850b
    80004dce:	3dde850b          	.insn	4, 0x3dde850b
    80004dd2:	1dde850b          	.insn	4, 0x1dde850b
    80004dd6:	cc73857b          	.insn	4, 0xcc73857b
    80004dda:	6305                	lui	t1,0x1
    80004ddc:	bc03031b          	addiw	t1,t1,-1088 # bc0 <buflen.1+0xb80>
    80004de0:	930a                	add	t1,t1,sp
    80004de2:	00a33023          	sd	a0,0(t1)
    80004de6:	9da4050b          	.insn	4, 0x9da4050b
    80004dea:	4315                	li	t1,5
    80004dec:	3dde850b          	.insn	4, 0x3dde850b
    80004df0:	1dde850b          	.insn	4, 0x1dde850b
    80004df4:	7c73850b          	.insn	4, 0x7c73850b
    80004df8:	c87e857b          	.insn	4, 0xc87e857b
    80004dfc:	6405                	lui	s0,0x1
    80004dfe:	ba04041b          	addiw	s0,s0,-1120 # ba0 <buflen.1+0xb60>
    80004e02:	940a                	add	s0,s0,sp
    80004e04:	e008                	sd	a0,0(s0)
    80004e06:	3dde850b          	.insn	4, 0x3dde850b
    80004e0a:	1dde850b          	.insn	4, 0x1dde850b
    80004e0e:	7c73850b          	.insn	4, 0x7c73850b
    80004e12:	c873857b          	.insn	4, 0xc873857b
    80004e16:	6405                	lui	s0,0x1
    80004e18:	b904041b          	addiw	s0,s0,-1136 # b90 <buflen.1+0xb50>
    80004e1c:	940a                	add	s0,s0,sp
    80004e1e:	e008                	sd	a0,0(s0)
    80004e20:	9da8050b          	.insn	4, 0x9da8050b
    80004e24:	1dde850b          	.insn	4, 0x1dde850b
    80004e28:	7c73850b          	.insn	4, 0x7c73850b
    80004e2c:	5c73850b          	.insn	4, 0x5c73850b
    80004e30:	c47e857b          	.insn	4, 0xc47e857b
    80004e34:	6805                	lui	a6,0x1
    80004e36:	b688081b          	addiw	a6,a6,-1176 # b68 <buflen.1+0xb28>
    80004e3a:	980a                	add	a6,a6,sp
    80004e3c:	00a83023          	sd	a0,0(a6)
    80004e40:	9dac850b          	.insn	4, 0x9dac850b
    80004e44:	1dde850b          	.insn	4, 0x1dde850b
    80004e48:	7c73850b          	.insn	4, 0x7c73850b
    80004e4c:	5c73850b          	.insn	4, 0x5c73850b
    80004e50:	c473857b          	.insn	4, 0xc473857b
    80004e54:	6805                	lui	a6,0x1
    80004e56:	b408081b          	addiw	a6,a6,-1216 # b40 <buflen.1+0xb00>
    80004e5a:	980a                	add	a6,a6,sp
    80004e5c:	00a83023          	sd	a0,0(a6)
    80004e60:	4405                	li	s0,1
    80004e62:	9da4050b          	.insn	4, 0x9da4050b
    80004e66:	7c73850b          	.insn	4, 0x7c73850b
    80004e6a:	5c73850b          	.insn	4, 0x5c73850b
    80004e6e:	3c73850b          	.insn	4, 0x3c73850b
    80004e72:	c07e857b          	.insn	4, 0xc07e857b
    80004e76:	6805                	lui	a6,0x1
    80004e78:	b308081b          	addiw	a6,a6,-1232 # b30 <buflen.1+0xaf0>
    80004e7c:	980a                	add	a6,a6,sp
    80004e7e:	00a83023          	sd	a0,0(a6)
    80004e82:	7c73850b          	.insn	4, 0x7c73850b
    80004e86:	5c73850b          	.insn	4, 0x5c73850b
    80004e8a:	3c73850b          	.insn	4, 0x3c73850b
    80004e8e:	c073857b          	.insn	4, 0xc073857b
    80004e92:	6805                	lui	a6,0x1
    80004e94:	b188081b          	addiw	a6,a6,-1256 # b18 <buflen.1+0xad8>
    80004e98:	980a                	add	a6,a6,sp
    80004e9a:	00a83023          	sd	a0,0(a6)
    80004e9e:	9da4050b          	.insn	4, 0x9da4050b
    80004ea2:	4405                	li	s0,1
    80004ea4:	7dde850b          	.insn	4, 0x7dde850b
    80004ea8:	5dde850b          	.insn	4, 0x5dde850b
    80004eac:	3dde850b          	.insn	4, 0x3dde850b
    80004eb0:	c1d6057b          	.insn	4, 0xc1d6057b
    80004eb4:	6605                	lui	a2,0x1
    80004eb6:	b586061b          	addiw	a2,a2,-1192 # b58 <buflen.1+0xb18>
    80004eba:	960a                	add	a2,a2,sp
    80004ebc:	e208                	sd	a0,0(a2)
    80004ebe:	461d                	li	a2,7
    80004ec0:	9da6050b          	.insn	4, 0x9da6050b
    80004ec4:	5c73850b          	.insn	4, 0x5c73850b
    80004ec8:	3c73850b          	.insn	4, 0x3c73850b
    80004ecc:	2c0e3803          	ld	a6,704(t3)
    80004ed0:	1c73850b          	.insn	4, 0x1c73850b
    80004ed4:	cd03857b          	.insn	4, 0xcd03857b
    80004ed8:	6905                	lui	s2,0x1
    80004eda:	ad89091b          	addiw	s2,s2,-1320 # ad8 <buflen.1+0xa98>
    80004ede:	990a                	add	s2,s2,sp
    80004ee0:	00a93023          	sd	a0,0(s2)
    80004ee4:	9da9850b          	.insn	4, 0x9da9850b
    80004ee8:	5c73850b          	.insn	4, 0x5c73850b
    80004eec:	3c73850b          	.insn	4, 0x3c73850b
    80004ef0:	1c73850b          	.insn	4, 0x1c73850b
    80004ef4:	cd08057b          	.insn	4, 0xcd08057b
    80004ef8:	6905                	lui	s2,0x1
    80004efa:	aa09091b          	addiw	s2,s2,-1376 # aa0 <buflen.1+0xa60>
    80004efe:	990a                	add	s2,s2,sp
    80004f00:	00a93023          	sd	a0,0(s2)
    80004f04:	9da3050b          	.insn	4, 0x9da3050b
    80004f08:	3c73850b          	.insn	4, 0x3c73850b
    80004f0c:	1c73850b          	.insn	4, 0x1c73850b
    80004f10:	7d08050b          	.insn	4, 0x7d08050b
    80004f14:	c903857b          	.insn	4, 0xc903857b
    80004f18:	6905                	lui	s2,0x1
    80004f1a:	a909091b          	addiw	s2,s2,-1392 # a90 <buflen.1+0xa50>
    80004f1e:	990a                	add	s2,s2,sp
    80004f20:	00a93023          	sd	a0,0(s2)
    80004f24:	3c73850b          	.insn	4, 0x3c73850b
    80004f28:	1c73850b          	.insn	4, 0x1c73850b
    80004f2c:	7d08050b          	.insn	4, 0x7d08050b
    80004f30:	c908057b          	.insn	4, 0xc908057b
    80004f34:	6905                	lui	s2,0x1
    80004f36:	a789091b          	addiw	s2,s2,-1416 # a78 <buflen.1+0xa38>
    80004f3a:	990a                	add	s2,s2,sp
    80004f3c:	00a93023          	sd	a0,0(s2)
    80004f40:	9dac850b          	.insn	4, 0x9dac850b
    80004f44:	1c73850b          	.insn	4, 0x1c73850b
    80004f48:	7d08050b          	.insn	4, 0x7d08050b
    80004f4c:	5d08050b          	.insn	4, 0x5d08050b
    80004f50:	c508057b          	.insn	4, 0xc508057b
    80004f54:	6905                	lui	s2,0x1
    80004f56:	a589091b          	addiw	s2,s2,-1448 # a58 <buflen.1+0xa18>
    80004f5a:	990a                	add	s2,s2,sp
    80004f5c:	00a93023          	sd	a0,0(s2)
    80004f60:	9da4050b          	.insn	4, 0x9da4050b
    80004f64:	4905                	li	s2,1
    80004f66:	7d08050b          	.insn	4, 0x7d08050b
    80004f6a:	5d08050b          	.insn	4, 0x5d08050b
    80004f6e:	3d08050b          	.insn	4, 0x3d08050b
    80004f72:	c103857b          	.insn	4, 0xc103857b
    80004f76:	6405                	lui	s0,0x1
    80004f78:	a304041b          	addiw	s0,s0,-1488 # a30 <buflen.1+0x9f0>
    80004f7c:	940a                	add	s0,s0,sp
    80004f7e:	e008                	sd	a0,0(s0)
    80004f80:	7d08050b          	.insn	4, 0x7d08050b
    80004f84:	5d08050b          	.insn	4, 0x5d08050b
    80004f88:	3d08050b          	.insn	4, 0x3d08050b
    80004f8c:	c108057b          	.insn	4, 0xc108057b
    80004f90:	6405                	lui	s0,0x1
    80004f92:	a204041b          	addiw	s0,s0,-1504 # a20 <buflen.1+0x9e0>
    80004f96:	940a                	add	s0,s0,sp
    80004f98:	e008                	sd	a0,0(s0)
    80004f9a:	9da6050b          	.insn	4, 0x9da6050b
    80004f9e:	5d08050b          	.insn	4, 0x5d08050b
    80004fa2:	3d08050b          	.insn	4, 0x3d08050b
    80004fa6:	280e3a83          	ld	s5,640(t3)
    80004faa:	1d08050b          	.insn	4, 0x1d08050b
    80004fae:	cd58057b          	.insn	4, 0xcd58057b
    80004fb2:	6605                	lui	a2,0x1
    80004fb4:	a006061b          	addiw	a2,a2,-1536 # a00 <buflen.1+0x9c0>
    80004fb8:	960a                	add	a2,a2,sp
    80004fba:	e208                	sd	a0,0(a2)
    80004fbc:	7dde850b          	.insn	4, 0x7dde850b
    80004fc0:	5dde850b          	.insn	4, 0x5dde850b
    80004fc4:	3dde850b          	.insn	4, 0x3dde850b
    80004fc8:	c1de857b          	.insn	4, 0xc1de857b
    80004fcc:	6605                	lui	a2,0x1
    80004fce:	a606061b          	addiw	a2,a2,-1440 # a60 <buflen.1+0xa20>
    80004fd2:	960a                	add	a2,a2,sp
    80004fd4:	e208                	sd	a0,0(a2)
    80004fd6:	4419                	li	s0,6
    80004fd8:	9da4050b          	.insn	4, 0x9da4050b
    80004fdc:	5d08050b          	.insn	4, 0x5d08050b
    80004fe0:	3d08050b          	.insn	4, 0x3d08050b
    80004fe4:	1d08050b          	.insn	4, 0x1d08050b
    80004fe8:	cd5a857b          	.insn	4, 0xcd5a857b
    80004fec:	6605                	lui	a2,0x1
    80004fee:	9e06061b          	addiw	a2,a2,-1568 # 9e0 <buflen.1+0x9a0>
    80004ff2:	960a                	add	a2,a2,sp
    80004ff4:	e208                	sd	a0,0(a2)
    80004ff6:	9da3050b          	.insn	4, 0x9da3050b
    80004ffa:	3d08050b          	.insn	4, 0x3d08050b
    80004ffe:	1d08050b          	.insn	4, 0x1d08050b
    80005002:	7d5a850b          	.insn	4, 0x7d5a850b
    80005006:	c958057b          	.insn	4, 0xc958057b
    8000500a:	6605                	lui	a2,0x1
    8000500c:	9d06061b          	addiw	a2,a2,-1584 # 9d0 <buflen.1+0x990>
    80005010:	960a                	add	a2,a2,sp
    80005012:	e208                	sd	a0,0(a2)
    80005014:	3d08050b          	.insn	4, 0x3d08050b
    80005018:	1d08050b          	.insn	4, 0x1d08050b
    8000501c:	7d5a850b          	.insn	4, 0x7d5a850b
    80005020:	c95a857b          	.insn	4, 0xc95a857b
    80005024:	6605                	lui	a2,0x1
    80005026:	9b86061b          	addiw	a2,a2,-1608 # 9b8 <buflen.1+0x978>
    8000502a:	960a                	add	a2,a2,sp
    8000502c:	e208                	sd	a0,0(a2)
    8000502e:	460d                	li	a2,3
    80005030:	9da6050b          	.insn	4, 0x9da6050b
    80005034:	1d08050b          	.insn	4, 0x1d08050b
    80005038:	7d5a850b          	.insn	4, 0x7d5a850b
    8000503c:	5d5a850b          	.insn	4, 0x5d5a850b
    80005040:	c558057b          	.insn	4, 0xc558057b
    80005044:	6305                	lui	t1,0x1
    80005046:	9883031b          	addiw	t1,t1,-1656 # 988 <buflen.1+0x948>
    8000504a:	930a                	add	t1,t1,sp
    8000504c:	00a33023          	sd	a0,0(t1)
    80005050:	9da9050b          	.insn	4, 0x9da9050b
    80005054:	4905                	li	s2,1
    80005056:	7d5a850b          	.insn	4, 0x7d5a850b
    8000505a:	5d5a850b          	.insn	4, 0x5d5a850b
    8000505e:	3d5a850b          	.insn	4, 0x3d5a850b
    80005062:	c158057b          	.insn	4, 0xc158057b
    80005066:	6305                	lui	t1,0x1
    80005068:	9683031b          	addiw	t1,t1,-1688 # 968 <buflen.1+0x928>
    8000506c:	930a                	add	t1,t1,sp
    8000506e:	00a33023          	sd	a0,0(t1)
    80005072:	7d5a850b          	.insn	4, 0x7d5a850b
    80005076:	5d5a850b          	.insn	4, 0x5d5a850b
    8000507a:	3d5a850b          	.insn	4, 0x3d5a850b
    8000507e:	c15a857b          	.insn	4, 0xc15a857b
    80005082:	6305                	lui	t1,0x1
    80005084:	9503031b          	addiw	t1,t1,-1712 # 950 <buflen.1+0x910>
    80005088:	930a                	add	t1,t1,sp
    8000508a:	00a33023          	sd	a0,0(t1)
    8000508e:	4e9d                	li	t4,7
    80005090:	9dae850b          	.insn	4, 0x9dae850b
    80005094:	5d5a850b          	.insn	4, 0x5d5a850b
    80005098:	3d5a850b          	.insn	4, 0x3d5a850b
    8000509c:	240e3a03          	ld	s4,576(t3)
    800050a0:	1d5a850b          	.insn	4, 0x1d5a850b
    800050a4:	cd4a857b          	.insn	4, 0xcd4a857b
    800050a8:	6305                	lui	t1,0x1
    800050aa:	9403031b          	addiw	t1,t1,-1728 # 940 <buflen.1+0x900>
    800050ae:	930a                	add	t1,t1,sp
    800050b0:	00a33023          	sd	a0,0(t1)
    800050b4:	9da4050b          	.insn	4, 0x9da4050b
    800050b8:	4c99                	li	s9,6
    800050ba:	5d5a850b          	.insn	4, 0x5d5a850b
    800050be:	3d5a850b          	.insn	4, 0x3d5a850b
    800050c2:	1d5a850b          	.insn	4, 0x1d5a850b
    800050c6:	cd4a057b          	.insn	4, 0xcd4a057b
    800050ca:	6305                	lui	t1,0x1
    800050cc:	9183031b          	addiw	t1,t1,-1768 # 918 <buflen.1+0x8d8>
    800050d0:	930a                	add	t1,t1,sp
    800050d2:	00a33023          	sd	a0,0(t1)
    800050d6:	9da6050b          	.insn	4, 0x9da6050b
    800050da:	1c73850b          	.insn	4, 0x1c73850b
    800050de:	7d08050b          	.insn	4, 0x7d08050b
    800050e2:	5d08050b          	.insn	4, 0x5d08050b
    800050e6:	c503857b          	.insn	4, 0xc503857b
    800050ea:	6305                	lui	t1,0x1
    800050ec:	9603031b          	addiw	t1,t1,-1696 # 960 <buflen.1+0x920>
    800050f0:	930a                	add	t1,t1,sp
    800050f2:	00a33023          	sd	a0,0(t1)
    800050f6:	4395                	li	t2,5
    800050f8:	9da3850b          	.insn	4, 0x9da3850b
    800050fc:	3d5a850b          	.insn	4, 0x3d5a850b
    80005100:	1d5a850b          	.insn	4, 0x1d5a850b
    80005104:	7d4a050b          	.insn	4, 0x7d4a050b
    80005108:	c94a857b          	.insn	4, 0xc94a857b
    8000510c:	6305                	lui	t1,0x1
    8000510e:	8f03031b          	addiw	t1,t1,-1808 # 8f0 <buflen.1+0x8b0>
    80005112:	930a                	add	t1,t1,sp
    80005114:	00a33023          	sd	a0,0(t1)
    80005118:	3d5a850b          	.insn	4, 0x3d5a850b
    8000511c:	1d5a850b          	.insn	4, 0x1d5a850b
    80005120:	7d4a050b          	.insn	4, 0x7d4a050b
    80005124:	c94a057b          	.insn	4, 0xc94a057b
    80005128:	6305                	lui	t1,0x1
    8000512a:	8e03031b          	addiw	t1,t1,-1824 # 8e0 <buflen.1+0x8a0>
    8000512e:	930a                	add	t1,t1,sp
    80005130:	00a33023          	sd	a0,0(t1)
    80005134:	9da6050b          	.insn	4, 0x9da6050b
    80005138:	440d                	li	s0,3
    8000513a:	1d5a850b          	.insn	4, 0x1d5a850b
    8000513e:	7d4a050b          	.insn	4, 0x7d4a050b
    80005142:	5d4a050b          	.insn	4, 0x5d4a050b
    80005146:	c54a857b          	.insn	4, 0xc54a857b
    8000514a:	6605                	lui	a2,0x1
    8000514c:	8d06061b          	addiw	a2,a2,-1840 # 8d0 <buflen.1+0x890>
    80005150:	960a                	add	a2,a2,sp
    80005152:	e208                	sd	a0,0(a2)
    80005154:	4609                	li	a2,2
    80005156:	9da6050b          	.insn	4, 0x9da6050b
    8000515a:	1d5a850b          	.insn	4, 0x1d5a850b
    8000515e:	7d4a050b          	.insn	4, 0x7d4a050b
    80005162:	5d4a050b          	.insn	4, 0x5d4a050b
    80005166:	c54a057b          	.insn	4, 0xc54a057b
    8000516a:	6305                	lui	t1,0x1
    8000516c:	8b03031b          	addiw	t1,t1,-1872 # 8b0 <buflen.1+0x870>
    80005170:	930a                	add	t1,t1,sp
    80005172:	00a33023          	sd	a0,0(t1)
    80005176:	7d4a050b          	.insn	4, 0x7d4a050b
    8000517a:	5d4a050b          	.insn	4, 0x5d4a050b
    8000517e:	3d4a050b          	.insn	4, 0x3d4a050b
    80005182:	c14a057b          	.insn	4, 0xc14a057b
    80005186:	6305                	lui	t1,0x1
    80005188:	8803031b          	addiw	t1,t1,-1920 # 880 <buflen.1+0x840>
    8000518c:	930a                	add	t1,t1,sp
    8000518e:	00a33023          	sd	a0,0(t1)
    80005192:	9dae850b          	.insn	4, 0x9dae850b
    80005196:	4e9d                	li	t4,7
    80005198:	5d4a050b          	.insn	4, 0x5d4a050b
    8000519c:	3d4a050b          	.insn	4, 0x3d4a050b
    800051a0:	200e3983          	ld	s3,512(t3)
    800051a4:	1d4a050b          	.insn	4, 0x1d4a050b
    800051a8:	cd3a057b          	.insn	4, 0xcd3a057b
    800051ac:	6305                	lui	t1,0x1
    800051ae:	8603031b          	addiw	t1,t1,-1952 # 860 <buflen.1+0x820>
    800051b2:	930a                	add	t1,t1,sp
    800051b4:	00a33023          	sd	a0,0(t1)
    800051b8:	9dac850b          	.insn	4, 0x9dac850b
    800051bc:	5d4a050b          	.insn	4, 0x5d4a050b
    800051c0:	3d4a050b          	.insn	4, 0x3d4a050b
    800051c4:	1d4a050b          	.insn	4, 0x1d4a050b
    800051c8:	cd39857b          	.insn	4, 0xcd39857b
    800051cc:	6305                	lui	t1,0x1
    800051ce:	8483031b          	addiw	t1,t1,-1976 # 848 <buflen.1+0x808>
    800051d2:	930a                	add	t1,t1,sp
    800051d4:	00a33023          	sd	a0,0(t1)
    800051d8:	9da3850b          	.insn	4, 0x9da3850b
    800051dc:	4d95                	li	s11,5
    800051de:	3d4a050b          	.insn	4, 0x3d4a050b
    800051e2:	1d4a050b          	.insn	4, 0x1d4a050b
    800051e6:	7d39850b          	.insn	4, 0x7d39850b
    800051ea:	c93a057b          	.insn	4, 0xc93a057b
    800051ee:	6305                	lui	t1,0x1
    800051f0:	8183031b          	addiw	t1,t1,-2024 # 818 <buflen.1+0x7d8>
    800051f4:	930a                	add	t1,t1,sp
    800051f6:	00a33023          	sd	a0,0(t1)
    800051fa:	9da4050b          	.insn	4, 0x9da4050b
    800051fe:	430d                	li	t1,3
    80005200:	1d4a050b          	.insn	4, 0x1d4a050b
    80005204:	7d39850b          	.insn	4, 0x7d39850b
    80005208:	5d39850b          	.insn	4, 0x5d39850b
    8000520c:	c53a057b          	.insn	4, 0xc53a057b
    80005210:	6385                	lui	t2,0x1
    80005212:	8003839b          	addiw	t2,t2,-2048 # 800 <buflen.1+0x7c0>
    80005216:	938a                	add	t2,t2,sp
    80005218:	00a3b023          	sd	a0,0(t2)
    8000521c:	9da6050b          	.insn	4, 0x9da6050b
    80005220:	1d4a050b          	.insn	4, 0x1d4a050b
    80005224:	7d39850b          	.insn	4, 0x7d39850b
    80005228:	5d39850b          	.insn	4, 0x5d39850b
    8000522c:	c539857b          	.insn	4, 0xc539857b
    80005230:	7ea13823          	sd	a0,2032(sp)
    80005234:	9da9050b          	.insn	4, 0x9da9050b
    80005238:	7d39850b          	.insn	4, 0x7d39850b
    8000523c:	5d39850b          	.insn	4, 0x5d39850b
    80005240:	3d39850b          	.insn	4, 0x3d39850b
    80005244:	c13a057b          	.insn	4, 0xc13a057b
    80005248:	7ca13c23          	sd	a0,2008(sp)
    8000524c:	1d08050b          	.insn	4, 0x1d08050b
    80005250:	9da6050b          	.insn	4, 0x9da6050b
    80005254:	7d5a850b          	.insn	4, 0x7d5a850b
    80005258:	5d5a850b          	.insn	4, 0x5d5a850b
    8000525c:	c55a857b          	.insn	4, 0xc55a857b
    80005260:	6605                	lui	a2,0x1
    80005262:	8306061b          	addiw	a2,a2,-2000 # 830 <buflen.1+0x7f0>
    80005266:	960a                	add	a2,a2,sp
    80005268:	e208                	sd	a0,0(a2)
    8000526a:	7d39850b          	.insn	4, 0x7d39850b
    8000526e:	5d39850b          	.insn	4, 0x5d39850b
    80005272:	3d39850b          	.insn	4, 0x3d39850b
    80005276:	c139857b          	.insn	4, 0xc139857b
    8000527a:	7ca13023          	sd	a0,1984(sp)
    8000527e:	9dae850b          	.insn	4, 0x9dae850b
    80005282:	4e9d                	li	t4,7
    80005284:	6505                	lui	a0,0x1
    80005286:	3285051b          	addiw	a0,a0,808 # 1328 <buflen.1+0x12e8>
    8000528a:	950a                	add	a0,a0,sp
    8000528c:	6100                	ld	s0,0(a0)
    8000528e:	7c89850b          	.insn	4, 0x7c89850b
    80005292:	5d39850b          	.insn	4, 0x5d39850b
    80005296:	3d39850b          	.insn	4, 0x3d39850b
    8000529a:	c139857b          	.insn	4, 0xc139857b
    8000529e:	7aa13023          	sd	a0,1952(sp)
    800052a2:	4619                	li	a2,6
    800052a4:	9da6050b          	.insn	4, 0x9da6050b
    800052a8:	7c84050b          	.insn	4, 0x7c84050b
    800052ac:	5d39850b          	.insn	4, 0x5d39850b
    800052b0:	3d39850b          	.insn	4, 0x3d39850b
    800052b4:	c139857b          	.insn	4, 0xc139857b
    800052b8:	78a13c23          	sd	a0,1944(sp)
    800052bc:	9dad850b          	.insn	4, 0x9dad850b
    800052c0:	7c84050b          	.insn	4, 0x7c84050b
    800052c4:	5c89850b          	.insn	4, 0x5c89850b
    800052c8:	3d39850b          	.insn	4, 0x3d39850b
    800052cc:	c139857b          	.insn	4, 0xc139857b
    800052d0:	78a13823          	sd	a0,1936(sp)
    800052d4:	9da3050b          	.insn	4, 0x9da3050b
    800052d8:	430d                	li	t1,3
    800052da:	7c84050b          	.insn	4, 0x7c84050b
    800052de:	5c84050b          	.insn	4, 0x5c84050b
    800052e2:	3c89850b          	.insn	4, 0x3c89850b
    800052e6:	c139857b          	.insn	4, 0xc139857b
    800052ea:	78a13423          	sd	a0,1928(sp)
    800052ee:	9da6050b          	.insn	4, 0x9da6050b
    800052f2:	6505                	lui	a0,0x1
    800052f4:	3105051b          	addiw	a0,a0,784 # 1310 <buflen.1+0x12d0>
    800052f8:	950a                	add	a0,a0,sp
    800052fa:	6100                	ld	s0,0(a0)
    800052fc:	0c043383          	ld	t2,192(s0)
    80005300:	7c10850b          	.insn	4, 0x7c10850b
    80005304:	5c73850b          	.insn	4, 0x5c73850b
    80005308:	3c73850b          	.insn	4, 0x3c73850b
    8000530c:	c073857b          	.insn	4, 0xc073857b
    80005310:	52a13c23          	sd	a0,1336(sp)
    80005314:	9da6050b          	.insn	4, 0x9da6050b
    80005318:	4c99                	li	s9,6
    8000531a:	30043803          	ld	a6,768(s0)
    8000531e:	34043603          	ld	a2,832(s0)
    80005322:	7d08050b          	.insn	4, 0x7d08050b
    80005326:	5cc6050b          	.insn	4, 0x5cc6050b
    8000532a:	3cc6050b          	.insn	4, 0x3cc6050b
    8000532e:	c0c6057b          	.insn	4, 0xc0c6057b
    80005332:	60a13423          	sd	a0,1544(sp)
    80005336:	7dff850b          	.insn	4, 0x7dff850b
    8000533a:	5dff850b          	.insn	4, 0x5dff850b
    8000533e:	3dff850b          	.insn	4, 0x3dff850b
    80005342:	c1ff857b          	.insn	4, 0xc1ff857b
    80005346:	76a13c23          	sd	a0,1912(sp)
    8000534a:	9dae850b          	.insn	4, 0x9dae850b
    8000534e:	5dff850b          	.insn	4, 0x5dff850b
    80005352:	3dff850b          	.insn	4, 0x3dff850b
    80005356:	1dff850b          	.insn	4, 0x1dff850b
    8000535a:	6505                	lui	a0,0x1
    8000535c:	3085051b          	addiw	a0,a0,776 # 1308 <buflen.1+0x12c8>
    80005360:	950a                	add	a0,a0,sp
    80005362:	00053e83          	ld	t4,0(a0)
    80005366:	cddf857b          	.insn	4, 0xcddf857b
    8000536a:	76a13423          	sd	a0,1896(sp)
    8000536e:	9dac850b          	.insn	4, 0x9dac850b
    80005372:	5dff850b          	.insn	4, 0x5dff850b
    80005376:	3dff850b          	.insn	4, 0x3dff850b
    8000537a:	1dff850b          	.insn	4, 0x1dff850b
    8000537e:	cdde857b          	.insn	4, 0xcdde857b
    80005382:	76a13023          	sd	a0,1888(sp)
    80005386:	9dad850b          	.insn	4, 0x9dad850b
    8000538a:	3dff850b          	.insn	4, 0x3dff850b
    8000538e:	1dff850b          	.insn	4, 0x1dff850b
    80005392:	7dde850b          	.insn	4, 0x7dde850b
    80005396:	c9df857b          	.insn	4, 0xc9df857b
    8000539a:	74a13c23          	sd	a0,1880(sp)
    8000539e:	3dff850b          	.insn	4, 0x3dff850b
    800053a2:	1dff850b          	.insn	4, 0x1dff850b
    800053a6:	8cfe                	mv	s9,t6
    800053a8:	7dde850b          	.insn	4, 0x7dde850b
    800053ac:	c9de857b          	.insn	4, 0xc9de857b
    800053b0:	74a13423          	sd	a0,1864(sp)
    800053b4:	9da3050b          	.insn	4, 0x9da3050b
    800053b8:	4d8d                	li	s11,3
    800053ba:	1dff850b          	.insn	4, 0x1dff850b
    800053be:	7dde850b          	.insn	4, 0x7dde850b
    800053c2:	5dde850b          	.insn	4, 0x5dde850b
    800053c6:	c5df857b          	.insn	4, 0xc5df857b
    800053ca:	74a13023          	sd	a0,1856(sp)
    800053ce:	4309                	li	t1,2
    800053d0:	9da3050b          	.insn	4, 0x9da3050b
    800053d4:	1dff850b          	.insn	4, 0x1dff850b
    800053d8:	7dde850b          	.insn	4, 0x7dde850b
    800053dc:	5dde850b          	.insn	4, 0x5dde850b
    800053e0:	c5de857b          	.insn	4, 0xc5de857b
    800053e4:	72a13c23          	sd	a0,1848(sp)
    800053e8:	4f85                	li	t6,1
    800053ea:	9daf850b          	.insn	4, 0x9daf850b
    800053ee:	7dde850b          	.insn	4, 0x7dde850b
    800053f2:	5dde850b          	.insn	4, 0x5dde850b
    800053f6:	3dde850b          	.insn	4, 0x3dde850b
    800053fa:	c1dc857b          	.insn	4, 0xc1dc857b
    800053fe:	72a13823          	sd	a0,1840(sp)
    80005402:	000e3503          	ld	a0,0(t3)
    80005406:	040e3e03          	ld	t3,64(t3)
    8000540a:	9daf840b          	.insn	4, 0x9daf840b
    8000540e:	4f85                	li	t6,1
    80005410:	7ca5040b          	.insn	4, 0x7ca5040b
    80005414:	5ca5040b          	.insn	4, 0x5ca5040b
    80005418:	3ca5040b          	.insn	4, 0x3ca5040b
    8000541c:	c0ae047b          	.insn	4, 0xc0ae047b
    80005420:	6e813823          	sd	s0,1776(sp)
    80005424:	9da3040b          	.insn	4, 0x9da3040b
    80005428:	7ca5040b          	.insn	4, 0x7ca5040b
    8000542c:	5ca5040b          	.insn	4, 0x5ca5040b
    80005430:	3ca5040b          	.insn	4, 0x3ca5040b
    80005434:	c1ce047b          	.insn	4, 0xc1ce047b
    80005438:	6e813c23          	sd	s0,1784(sp)
    8000543c:	9dad840b          	.insn	4, 0x9dad840b
    80005440:	490d                	li	s2,3
    80005442:	6405                	lui	s0,0x1
    80005444:	3004041b          	addiw	s0,s0,768 # 1300 <buflen.1+0x12c0>
    80005448:	940a                	add	s0,s0,sp
    8000544a:	00043d83          	ld	s11,0(s0)
    8000544e:	7dbd840b          	.insn	4, 0x7dbd840b
    80005452:	5dbd840b          	.insn	4, 0x5dbd840b
    80005456:	3dbe840b          	.insn	4, 0x3dbe840b
    8000545a:	c1de847b          	.insn	4, 0xc1de847b
    8000545e:	72813023          	sd	s0,1824(sp)
    80005462:	9da3040b          	.insn	4, 0x9da3040b
    80005466:	7dbd840b          	.insn	4, 0x7dbd840b
    8000546a:	5dbd840b          	.insn	4, 0x5dbd840b
    8000546e:	3dbd840b          	.insn	4, 0x3dbd840b
    80005472:	c1de847b          	.insn	4, 0xc1de847b
    80005476:	70813c23          	sd	s0,1816(sp)
    8000547a:	9daf840b          	.insn	4, 0x9daf840b
    8000547e:	7dbd840b          	.insn	4, 0x7dbd840b
    80005482:	5dbd840b          	.insn	4, 0x5dbd840b
    80005486:	3dbd840b          	.insn	4, 0x3dbd840b
    8000548a:	c1be847b          	.insn	4, 0xc1be847b
    8000548e:	70813823          	sd	s0,1808(sp)
    80005492:	7dbd840b          	.insn	4, 0x7dbd840b
    80005496:	5dbd840b          	.insn	4, 0x5dbd840b
    8000549a:	3dbd840b          	.insn	4, 0x3dbd840b
    8000549e:	c1bd847b          	.insn	4, 0xc1bd847b
    800054a2:	70813023          	sd	s0,1792(sp)
    800054a6:	9da9040b          	.insn	4, 0x9da9040b
    800054aa:	1dbd840b          	.insn	4, 0x1dbd840b
    800054ae:	7dce040b          	.insn	4, 0x7dce040b
    800054b2:	5dce040b          	.insn	4, 0x5dce040b
    800054b6:	c5cd847b          	.insn	4, 0xc5cd847b
    800054ba:	6e813023          	sd	s0,1760(sp)
    800054be:	4f9d                	li	t6,7
    800054c0:	9daf840b          	.insn	4, 0x9daf840b
    800054c4:	5dbd840b          	.insn	4, 0x5dbd840b
    800054c8:	3dbd840b          	.insn	4, 0x3dbd840b
    800054cc:	1dbd840b          	.insn	4, 0x1dbd840b
    800054d0:	cdcd847b          	.insn	4, 0xcdcd847b
    800054d4:	6e813423          	sd	s0,1768(sp)
    800054d8:	4e99                	li	t4,6
    800054da:	9dae840b          	.insn	4, 0x9dae840b
    800054de:	5dbd840b          	.insn	4, 0x5dbd840b
    800054e2:	3dbd840b          	.insn	4, 0x3dbd840b
    800054e6:	1dbd840b          	.insn	4, 0x1dbd840b
    800054ea:	cdce047b          	.insn	4, 0xcdce047b
    800054ee:	6c813c23          	sd	s0,1752(sp)
    800054f2:	4315                	li	t1,5
    800054f4:	9da3040b          	.insn	4, 0x9da3040b
    800054f8:	3dbd840b          	.insn	4, 0x3dbd840b
    800054fc:	1dbd840b          	.insn	4, 0x1dbd840b
    80005500:	7dce040b          	.insn	4, 0x7dce040b
    80005504:	c9cd847b          	.insn	4, 0xc9cd847b
    80005508:	6c813823          	sd	s0,1744(sp)
    8000550c:	3dbd840b          	.insn	4, 0x3dbd840b
    80005510:	1dbd840b          	.insn	4, 0x1dbd840b
    80005514:	7dce040b          	.insn	4, 0x7dce040b
    80005518:	c9ce047b          	.insn	4, 0xc9ce047b
    8000551c:	6c813423          	sd	s0,1736(sp)
    80005520:	4409                	li	s0,2
    80005522:	9da4040b          	.insn	4, 0x9da4040b
    80005526:	1dbd840b          	.insn	4, 0x1dbd840b
    8000552a:	7dce040b          	.insn	4, 0x7dce040b
    8000552e:	5dce040b          	.insn	4, 0x5dce040b
    80005532:	c5ce047b          	.insn	4, 0xc5ce047b
    80005536:	6c813023          	sd	s0,1728(sp)
    8000553a:	4905                	li	s2,1
    8000553c:	9da9040b          	.insn	4, 0x9da9040b
    80005540:	7dce040b          	.insn	4, 0x7dce040b
    80005544:	5dce040b          	.insn	4, 0x5dce040b
    80005548:	3dce040b          	.insn	4, 0x3dce040b
    8000554c:	c1cd847b          	.insn	4, 0xc1cd847b
    80005550:	6a813c23          	sd	s0,1720(sp)
    80005554:	7dce040b          	.insn	4, 0x7dce040b
    80005558:	5dce040b          	.insn	4, 0x5dce040b
    8000555c:	3dce040b          	.insn	4, 0x3dce040b
    80005560:	c1ce047b          	.insn	4, 0xc1ce047b
    80005564:	6a813823          	sd	s0,1712(sp)
    80005568:	9daf840b          	.insn	4, 0x9daf840b
    8000556c:	7cae040b          	.insn	4, 0x7cae040b
    80005570:	5dce040b          	.insn	4, 0x5dce040b
    80005574:	3dce040b          	.insn	4, 0x3dce040b
    80005578:	c1ce047b          	.insn	4, 0xc1ce047b
    8000557c:	6a813423          	sd	s0,1704(sp)
    80005580:	9dae840b          	.insn	4, 0x9dae840b
    80005584:	4e99                	li	t4,6
    80005586:	7ca5040b          	.insn	4, 0x7ca5040b
    8000558a:	5dce040b          	.insn	4, 0x5dce040b
    8000558e:	3dce040b          	.insn	4, 0x3dce040b
    80005592:	c1ce047b          	.insn	4, 0xc1ce047b
    80005596:	6a813023          	sd	s0,1696(sp)
    8000559a:	9da3040b          	.insn	4, 0x9da3040b
    8000559e:	7ca5040b          	.insn	4, 0x7ca5040b
    800055a2:	5cae040b          	.insn	4, 0x5cae040b
    800055a6:	3dce040b          	.insn	4, 0x3dce040b
    800055aa:	c1ce047b          	.insn	4, 0xc1ce047b
    800055ae:	68813c23          	sd	s0,1688(sp)
    800055b2:	7ca5040b          	.insn	4, 0x7ca5040b
    800055b6:	5ca5040b          	.insn	4, 0x5ca5040b
    800055ba:	3dce040b          	.insn	4, 0x3dce040b
    800055be:	c1ce047b          	.insn	4, 0xc1ce047b
    800055c2:	68813823          	sd	s0,1680(sp)
    800055c6:	440d                	li	s0,3
    800055c8:	9da4040b          	.insn	4, 0x9da4040b
    800055cc:	7ca5040b          	.insn	4, 0x7ca5040b
    800055d0:	5ca5040b          	.insn	4, 0x5ca5040b
    800055d4:	3cae040b          	.insn	4, 0x3cae040b
    800055d8:	c1ce047b          	.insn	4, 0xc1ce047b
    800055dc:	68813423          	sd	s0,1672(sp)
    800055e0:	7ca5040b          	.insn	4, 0x7ca5040b
    800055e4:	5ca5040b          	.insn	4, 0x5ca5040b
    800055e8:	3ca5040b          	.insn	4, 0x3ca5040b
    800055ec:	c0a5057b          	.insn	4, 0xc0a5057b
    800055f0:	68a13023          	sd	a0,1664(sp)
    800055f4:	9da9050b          	.insn	4, 0x9da9050b
    800055f8:	4f85                	li	t6,1
    800055fa:	7cb5850b          	.insn	4, 0x7cb5850b
    800055fe:	5cb5850b          	.insn	4, 0x5cb5850b
    80005602:	3cb5850b          	.insn	4, 0x3cb5850b
    80005606:	c0bf057b          	.insn	4, 0xc0bf057b
    8000560a:	66a13423          	sd	a0,1640(sp)
    8000560e:	4309                	li	t1,2
    80005610:	9da3050b          	.insn	4, 0x9da3050b
    80005614:	7cb5850b          	.insn	4, 0x7cb5850b
    80005618:	5cb5850b          	.insn	4, 0x5cb5850b
    8000561c:	3cb5850b          	.insn	4, 0x3cb5850b
    80005620:	c1ef057b          	.insn	4, 0xc1ef057b
    80005624:	66a13823          	sd	a0,1648(sp)
    80005628:	4e0d                	li	t3,3
    8000562a:	9dae050b          	.insn	4, 0x9dae050b
    8000562e:	7cb5850b          	.insn	4, 0x7cb5850b
    80005632:	5cb5850b          	.insn	4, 0x5cb5850b
    80005636:	3cbf050b          	.insn	4, 0x3cbf050b
    8000563a:	c1ef057b          	.insn	4, 0xc1ef057b
    8000563e:	66a13023          	sd	a0,1632(sp)
    80005642:	7def050b          	.insn	4, 0x7def050b
    80005646:	5def050b          	.insn	4, 0x5def050b
    8000564a:	3def050b          	.insn	4, 0x3def050b
    8000564e:	c1ef057b          	.insn	4, 0xc1ef057b
    80005652:	66a13c23          	sd	a0,1656(sp)
    80005656:	9dae850b          	.insn	4, 0x9dae850b
    8000565a:	7cb5850b          	.insn	4, 0x7cb5850b
    8000565e:	5def050b          	.insn	4, 0x5def050b
    80005662:	3def050b          	.insn	4, 0x3def050b
    80005666:	c1ef057b          	.insn	4, 0xc1ef057b
    8000566a:	64a13c23          	sd	a0,1624(sp)
    8000566e:	4415                	li	s0,5
    80005670:	9da4050b          	.insn	4, 0x9da4050b
    80005674:	7cb5850b          	.insn	4, 0x7cb5850b
    80005678:	5cbf050b          	.insn	4, 0x5cbf050b
    8000567c:	3def050b          	.insn	4, 0x3def050b
    80005680:	c1ef057b          	.insn	4, 0xc1ef057b
    80005684:	64a13823          	sd	a0,1616(sp)
    80005688:	7cb5850b          	.insn	4, 0x7cb5850b
    8000568c:	5cb5850b          	.insn	4, 0x5cb5850b
    80005690:	3def050b          	.insn	4, 0x3def050b
    80005694:	c1ef057b          	.insn	4, 0xc1ef057b
    80005698:	64a13423          	sd	a0,1608(sp)
    8000569c:	7c94850b          	.insn	4, 0x7c94850b
    800056a0:	5c94850b          	.insn	4, 0x5c94850b
    800056a4:	3c94850b          	.insn	4, 0x3c94850b
    800056a8:	c094857b          	.insn	4, 0xc094857b
    800056ac:	5ca13423          	sd	a0,1480(sp)
    800056b0:	9da3050b          	.insn	4, 0x9da3050b
    800056b4:	1cb5850b          	.insn	4, 0x1cb5850b
    800056b8:	7cd6850b          	.insn	4, 0x7cd6850b
    800056bc:	5cd6850b          	.insn	4, 0x5cd6850b
    800056c0:	c4d6857b          	.insn	4, 0xc4d6857b
    800056c4:	64a13023          	sd	a0,1600(sp)
    800056c8:	9dae050b          	.insn	4, 0x9dae050b
    800056cc:	4e0d                	li	t3,3
    800056ce:	1cb5850b          	.insn	4, 0x1cb5850b
    800056d2:	7cd6850b          	.insn	4, 0x7cd6850b
    800056d6:	5cd6850b          	.insn	4, 0x5cd6850b
    800056da:	c4d5857b          	.insn	4, 0xc4d5857b
    800056de:	62a13823          	sd	a0,1584(sp)
    800056e2:	3cb5850b          	.insn	4, 0x3cb5850b
    800056e6:	1cb5850b          	.insn	4, 0x1cb5850b
    800056ea:	7cd6850b          	.insn	4, 0x7cd6850b
    800056ee:	c8d6857b          	.insn	4, 0xc8d6857b
    800056f2:	62a13423          	sd	a0,1576(sp)
    800056f6:	7cb5850b          	.insn	4, 0x7cb5850b
    800056fa:	5cb5850b          	.insn	4, 0x5cb5850b
    800056fe:	3cb5850b          	.insn	4, 0x3cb5850b
    80005702:	c0b5857b          	.insn	4, 0xc0b5857b
    80005706:	62a13c23          	sd	a0,1592(sp)
    8000570a:	431d                	li	t1,7
    8000570c:	9da3050b          	.insn	4, 0x9da3050b
    80005710:	5cb5850b          	.insn	4, 0x5cb5850b
    80005714:	3cb5850b          	.insn	4, 0x3cb5850b
    80005718:	1cb5850b          	.insn	4, 0x1cb5850b
    8000571c:	ccd5857b          	.insn	4, 0xccd5857b
    80005720:	62a13023          	sd	a0,1568(sp)
    80005724:	9da4050b          	.insn	4, 0x9da4050b
    80005728:	3cb5850b          	.insn	4, 0x3cb5850b
    8000572c:	1cb5850b          	.insn	4, 0x1cb5850b
    80005730:	7cd6850b          	.insn	4, 0x7cd6850b
    80005734:	c8d5857b          	.insn	4, 0xc8d5857b
    80005738:	60a13c23          	sd	a0,1560(sp)
    8000573c:	7c94850b          	.insn	4, 0x7c94850b
    80005740:	5c94850b          	.insn	4, 0x5c94850b
    80005744:	3c52850b          	.insn	4, 0x3c52850b
    80005748:	c052857b          	.insn	4, 0xc052857b
    8000574c:	5aa13c23          	sd	a0,1464(sp)
    80005750:	9da4050b          	.insn	4, 0x9da4050b
    80005754:	4d95                	li	s11,5
    80005756:	7c52850b          	.insn	4, 0x7c52850b
    8000575a:	5c57050b          	.insn	4, 0x5c57050b
    8000575e:	3ce7050b          	.insn	4, 0x3ce7050b
    80005762:	c0e7057b          	.insn	4, 0xc0e7057b
    80005766:	5ca13023          	sd	a0,1472(sp)
    8000576a:	9daf850b          	.insn	4, 0x9daf850b
    8000576e:	7cf7850b          	.insn	4, 0x7cf7850b
    80005772:	5cf7850b          	.insn	4, 0x5cf7850b
    80005776:	3cf7850b          	.insn	4, 0x3cf7850b
    8000577a:	c0f6857b          	.insn	4, 0xc0f6857b
    8000577e:	5ea13c23          	sd	a0,1528(sp)
    80005782:	4589                	li	a1,2
    80005784:	9da5850b          	.insn	4, 0x9da5850b
    80005788:	7cf7850b          	.insn	4, 0x7cf7850b
    8000578c:	5cf7850b          	.insn	4, 0x5cf7850b
    80005790:	3cf7850b          	.insn	4, 0x3cf7850b
    80005794:	c0d6857b          	.insn	4, 0xc0d6857b
    80005798:	5ea13423          	sd	a0,1512(sp)
    8000579c:	9dae050b          	.insn	4, 0x9dae050b
    800057a0:	7cf7850b          	.insn	4, 0x7cf7850b
    800057a4:	5cf7850b          	.insn	4, 0x5cf7850b
    800057a8:	3cf6850b          	.insn	4, 0x3cf6850b
    800057ac:	c0d6857b          	.insn	4, 0xc0d6857b
    800057b0:	5ea13823          	sd	a0,1520(sp)
    800057b4:	7cd6850b          	.insn	4, 0x7cd6850b
    800057b8:	5cd6850b          	.insn	4, 0x5cd6850b
    800057bc:	3cd6850b          	.insn	4, 0x3cd6850b
    800057c0:	c0d6857b          	.insn	4, 0xc0d6857b
    800057c4:	60a13023          	sd	a0,1536(sp)
    800057c8:	9da3050b          	.insn	4, 0x9da3050b
    800057cc:	7cf6850b          	.insn	4, 0x7cf6850b
    800057d0:	5cd6850b          	.insn	4, 0x5cd6850b
    800057d4:	3cd6850b          	.insn	4, 0x3cd6850b
    800057d8:	c0d6857b          	.insn	4, 0xc0d6857b
    800057dc:	5ea13023          	sd	a0,1504(sp)
    800057e0:	9dae850b          	.insn	4, 0x9dae850b
    800057e4:	7cf7850b          	.insn	4, 0x7cf7850b
    800057e8:	5cd6850b          	.insn	4, 0x5cd6850b
    800057ec:	3cd6850b          	.insn	4, 0x3cd6850b
    800057f0:	c0d6857b          	.insn	4, 0xc0d6857b
    800057f4:	5ca13c23          	sd	a0,1496(sp)
    800057f8:	7cf7850b          	.insn	4, 0x7cf7850b
    800057fc:	5cf7850b          	.insn	4, 0x5cf7850b
    80005800:	3cd6850b          	.insn	4, 0x3cd6850b
    80005804:	c0d6857b          	.insn	4, 0xc0d6857b
    80005808:	5ca13823          	sd	a0,1488(sp)
    8000580c:	9da5850b          	.insn	4, 0x9da5850b
    80005810:	4f09                	li	t5,2
    80005812:	7ce7050b          	.insn	4, 0x7ce7050b
    80005816:	5ce7050b          	.insn	4, 0x5ce7050b
    8000581a:	53013403          	ld	s0,1328(sp)
    8000581e:	28043503          	ld	a0,640(s0)
    80005822:	3ce7058b          	.insn	4, 0x3ce7058b
    80005826:	c0a505fb          	.insn	4, 0xc0a505fb
    8000582a:	58b13023          	sd	a1,1408(sp)
    8000582e:	9dae058b          	.insn	4, 0x9dae058b
    80005832:	1d18858b          	.insn	4, 0x1d18858b
    80005836:	7ca5058b          	.insn	4, 0x7ca5058b
    8000583a:	5ca5058b          	.insn	4, 0x5ca5058b
    8000583e:	c4a885fb          	.insn	4, 0xc4a885fb
    80005842:	5ab13423          	sd	a1,1448(sp)
    80005846:	4685                	li	a3,1
    80005848:	9da6858b          	.insn	4, 0x9da6858b
    8000584c:	7d18858b          	.insn	4, 0x7d18858b
    80005850:	5d18858b          	.insn	4, 0x5d18858b
    80005854:	3d18858b          	.insn	4, 0x3d18858b
    80005858:	c11785fb          	.insn	4, 0xc11785fb
    8000585c:	5ab13823          	sd	a1,1456(sp)
    80005860:	9daf058b          	.insn	4, 0x9daf058b
    80005864:	7d18858b          	.insn	4, 0x7d18858b
    80005868:	5d18858b          	.insn	4, 0x5d18858b
    8000586c:	3d18858b          	.insn	4, 0x3d18858b
    80005870:	c0f785fb          	.insn	4, 0xc0f785fb
    80005874:	5ab13023          	sd	a1,1440(sp)
    80005878:	9dae058b          	.insn	4, 0x9dae058b
    8000587c:	7d18858b          	.insn	4, 0x7d18858b
    80005880:	5d18858b          	.insn	4, 0x5d18858b
    80005884:	3d17858b          	.insn	4, 0x3d17858b
    80005888:	c0f785fb          	.insn	4, 0xc0f785fb
    8000588c:	58b13823          	sd	a1,1424(sp)
    80005890:	431d                	li	t1,7
    80005892:	9da3058b          	.insn	4, 0x9da3058b
    80005896:	7d17858b          	.insn	4, 0x7d17858b
    8000589a:	5cf7858b          	.insn	4, 0x5cf7858b
    8000589e:	3cf7858b          	.insn	4, 0x3cf7858b
    800058a2:	c0f785fb          	.insn	4, 0xc0f785fb
    800058a6:	58b13c23          	sd	a1,1432(sp)
    800058aa:	9dae858b          	.insn	4, 0x9dae858b
    800058ae:	7d18858b          	.insn	4, 0x7d18858b
    800058b2:	5cf7858b          	.insn	4, 0x5cf7858b
    800058b6:	3cf7858b          	.insn	4, 0x3cf7858b
    800058ba:	c0f785fb          	.insn	4, 0xc0f785fb
    800058be:	58b13423          	sd	a1,1416(sp)
    800058c2:	9dad858b          	.insn	4, 0x9dad858b
    800058c6:	7d18858b          	.insn	4, 0x7d18858b
    800058ca:	5d17858b          	.insn	4, 0x5d17858b
    800058ce:	3cf7858b          	.insn	4, 0x3cf7858b
    800058d2:	c0f785fb          	.insn	4, 0xc0f785fb
    800058d6:	56b13c23          	sd	a1,1400(sp)
    800058da:	9da6858b          	.insn	4, 0x9da6858b
    800058de:	4e85                	li	t4,1
    800058e0:	7ca5058b          	.insn	4, 0x7ca5058b
    800058e4:	5ca5058b          	.insn	4, 0x5ca5058b
    800058e8:	3ca5058b          	.insn	4, 0x3ca5058b
    800058ec:	c0a885fb          	.insn	4, 0xc0a885fb
    800058f0:	56b13823          	sd	a1,1392(sp)
    800058f4:	9daf058b          	.insn	4, 0x9daf058b
    800058f8:	1d18858b          	.insn	4, 0x1d18858b
    800058fc:	7ca5058b          	.insn	4, 0x7ca5058b
    80005900:	5ca5058b          	.insn	4, 0x5ca5058b
    80005904:	c4a505fb          	.insn	4, 0xc4a505fb
    80005908:	54b13c23          	sd	a1,1368(sp)
    8000590c:	3d18858b          	.insn	4, 0x3d18858b
    80005910:	1d18858b          	.insn	4, 0x1d18858b
    80005914:	7ca5058b          	.insn	4, 0x7ca5058b
    80005918:	c8a505fb          	.insn	4, 0xc8a505fb
    8000591c:	56b13423          	sd	a1,1384(sp)
    80005920:	7d18858b          	.insn	4, 0x7d18858b
    80005924:	5d18858b          	.insn	4, 0x5d18858b
    80005928:	3d18858b          	.insn	4, 0x3d18858b
    8000592c:	c11885fb          	.insn	4, 0xc11885fb
    80005930:	56b13023          	sd	a1,1376(sp)
    80005934:	9da3058b          	.insn	4, 0x9da3058b
    80005938:	479d                	li	a5,7
    8000593a:	5d18858b          	.insn	4, 0x5d18858b
    8000593e:	3d18858b          	.insn	4, 0x3d18858b
    80005942:	1d18858b          	.insn	4, 0x1d18858b
    80005946:	cca885fb          	.insn	4, 0xcca885fb
    8000594a:	54b13823          	sd	a1,1360(sp)
    8000594e:	9dae058b          	.insn	4, 0x9dae058b
    80005952:	f8e6                	sd	s9,112(sp)
    80005954:	7d9c858b          	.insn	4, 0x7d9c858b
    80005958:	5d9c858b          	.insn	4, 0x5d9c858b
    8000595c:	6585                	lui	a1,0x1
    8000595e:	3185859b          	addiw	a1,a1,792 # 1318 <buflen.1+0x12d8>
    80005962:	958a                	add	a1,a1,sp
    80005964:	6194                	ld	a3,0(a1)
    80005966:	3d96858b          	.insn	4, 0x3d96858b
    8000596a:	c0d685fb          	.insn	4, 0xc0d685fb
    8000596e:	60b13823          	sd	a1,1552(sp)
    80005972:	4699                	li	a3,6
    80005974:	9da6858b          	.insn	4, 0x9da6858b
    80005978:	5d18858b          	.insn	4, 0x5d18858b
    8000597c:	3d18858b          	.insn	4, 0x3d18858b
    80005980:	1d18858b          	.insn	4, 0x1d18858b
    80005984:	cca505fb          	.insn	4, 0xcca505fb
    80005988:	54b13423          	sd	a1,1352(sp)
    8000598c:	9dad858b          	.insn	4, 0x9dad858b
    80005990:	3d18858b          	.insn	4, 0x3d18858b
    80005994:	1d18858b          	.insn	4, 0x1d18858b
    80005998:	7ca5058b          	.insn	4, 0x7ca5058b
    8000599c:	c8a885fb          	.insn	4, 0xc8a885fb
    800059a0:	54b13023          	sd	a1,1344(sp)
    800059a4:	6060                	ld	s0,192(s0)
    800059a6:	7ca6                	ld	s9,104(sp)
    800059a8:	7d9c858b          	.insn	4, 0x7d9c858b
    800059ac:	5d9c858b          	.insn	4, 0x5d9c858b
    800059b0:	3c84058b          	.insn	4, 0x3c84058b
    800059b4:	c08405fb          	.insn	4, 0xc08405fb
    800059b8:	4cb13423          	sd	a1,1224(sp)
    800059bc:	9dae858b          	.insn	4, 0x9dae858b
    800059c0:	7ce7058b          	.insn	4, 0x7ce7058b
    800059c4:	5ce7058b          	.insn	4, 0x5ce7058b
    800059c8:	3ce7058b          	.insn	4, 0x3ce7058b
    800059cc:	c0e505fb          	.insn	4, 0xc0e505fb
    800059d0:	52b13823          	sd	a1,1328(sp)
    800059d4:	9dae058b          	.insn	4, 0x9dae058b
    800059d8:	7ce7058b          	.insn	4, 0x7ce7058b
    800059dc:	5ce7058b          	.insn	4, 0x5ce7058b
    800059e0:	3ce5058b          	.insn	4, 0x3ce5058b
    800059e4:	c0a505fb          	.insn	4, 0xc0a505fb
    800059e8:	52b13023          	sd	a1,1312(sp)
    800059ec:	7ca5058b          	.insn	4, 0x7ca5058b
    800059f0:	5ca5058b          	.insn	4, 0x5ca5058b
    800059f4:	3ca5058b          	.insn	4, 0x3ca5058b
    800059f8:	c0a505fb          	.insn	4, 0xc0a505fb
    800059fc:	52b13423          	sd	a1,1320(sp)
    80005a00:	9da7858b          	.insn	4, 0x9da7858b
    80005a04:	7ce5058b          	.insn	4, 0x7ce5058b
    80005a08:	5ca5058b          	.insn	4, 0x5ca5058b
    80005a0c:	3ca5058b          	.insn	4, 0x3ca5058b
    80005a10:	c0a505fb          	.insn	4, 0xc0a505fb
    80005a14:	50b13c23          	sd	a1,1304(sp)
    80005a18:	9da6858b          	.insn	4, 0x9da6858b
    80005a1c:	4319                	li	t1,6
    80005a1e:	7ce7058b          	.insn	4, 0x7ce7058b
    80005a22:	5ca5058b          	.insn	4, 0x5ca5058b
    80005a26:	3ca5058b          	.insn	4, 0x3ca5058b
    80005a2a:	c0a505fb          	.insn	4, 0xc0a505fb
    80005a2e:	50b13823          	sd	a1,1296(sp)
    80005a32:	7ce7058b          	.insn	4, 0x7ce7058b
    80005a36:	5ce7058b          	.insn	4, 0x5ce7058b
    80005a3a:	3ca5058b          	.insn	4, 0x3ca5058b
    80005a3e:	c0a505fb          	.insn	4, 0xc0a505fb
    80005a42:	50b13423          	sd	a1,1288(sp)
    80005a46:	9dad858b          	.insn	4, 0x9dad858b
    80005a4a:	7ce7058b          	.insn	4, 0x7ce7058b
    80005a4e:	5ce5058b          	.insn	4, 0x5ce5058b
    80005a52:	3ca5058b          	.insn	4, 0x3ca5058b
    80005a56:	c0a5057b          	.insn	4, 0xc0a5057b
    80005a5a:	50a13023          	sd	a0,1280(sp)
    80005a5e:	9daf050b          	.insn	4, 0x9daf050b
    80005a62:	7c52850b          	.insn	4, 0x7c52850b
    80005a66:	5c52850b          	.insn	4, 0x5c52850b
    80005a6a:	3c52850b          	.insn	4, 0x3c52850b
    80005a6e:	c0e7057b          	.insn	4, 0xc0e7057b
    80005a72:	4ea13423          	sd	a0,1256(sp)
    80005a76:	9dae050b          	.insn	4, 0x9dae050b
    80005a7a:	7c52850b          	.insn	4, 0x7c52850b
    80005a7e:	5c52850b          	.insn	4, 0x5c52850b
    80005a82:	3c57050b          	.insn	4, 0x3c57050b
    80005a86:	c0e7057b          	.insn	4, 0xc0e7057b
    80005a8a:	4ea13823          	sd	a0,1264(sp)
    80005a8e:	7c52850b          	.insn	4, 0x7c52850b
    80005a92:	5c52850b          	.insn	4, 0x5c52850b
    80005a96:	3ce7050b          	.insn	4, 0x3ce7050b
    80005a9a:	c0e7057b          	.insn	4, 0xc0e7057b
    80005a9e:	4ea13023          	sd	a0,1248(sp)
    80005aa2:	7ce7050b          	.insn	4, 0x7ce7050b
    80005aa6:	5ce7050b          	.insn	4, 0x5ce7050b
    80005aaa:	3ce7050b          	.insn	4, 0x3ce7050b
    80005aae:	c0e7057b          	.insn	4, 0xc0e7057b
    80005ab2:	4ea13c23          	sd	a0,1272(sp)
    80005ab6:	9da7850b          	.insn	4, 0x9da7850b
    80005aba:	7c57050b          	.insn	4, 0x7c57050b
    80005abe:	5ce7050b          	.insn	4, 0x5ce7050b
    80005ac2:	3ce7050b          	.insn	4, 0x3ce7050b
    80005ac6:	c0e7057b          	.insn	4, 0xc0e7057b
    80005aca:	4ca13c23          	sd	a0,1240(sp)
    80005ace:	9da3050b          	.insn	4, 0x9da3050b
    80005ad2:	7c52850b          	.insn	4, 0x7c52850b
    80005ad6:	5ce7050b          	.insn	4, 0x5ce7050b
    80005ada:	3ce7050b          	.insn	4, 0x3ce7050b
    80005ade:	c0e7057b          	.insn	4, 0xc0e7057b
    80005ae2:	4ca13823          	sd	a0,1232(sp)
    80005ae6:	4585                	li	a1,1
    80005ae8:	9da5850b          	.insn	4, 0x9da5850b
    80005aec:	7c84050b          	.insn	4, 0x7c84050b
    80005af0:	5c84050b          	.insn	4, 0x5c84050b
    80005af4:	3c84050b          	.insn	4, 0x3c84050b
    80005af8:	7ee6                	ld	t4,120(sp)
    80005afa:	c08e857b          	.insn	4, 0xc08e857b
    80005afe:	48a13423          	sd	a0,1160(sp)
    80005b02:	4695                	li	a3,5
    80005b04:	9da6850b          	.insn	4, 0x9da6850b
    80005b08:	3dde850b          	.insn	4, 0x3dde850b
    80005b0c:	1dde850b          	.insn	4, 0x1dde850b
    80005b10:	7c84050b          	.insn	4, 0x7c84050b
    80005b14:	c88e857b          	.insn	4, 0xc88e857b
    80005b18:	48a13023          	sd	a0,1152(sp)
    80005b1c:	9da5850b          	.insn	4, 0x9da5850b
    80005b20:	7c94850b          	.insn	4, 0x7c94850b
    80005b24:	5c94850b          	.insn	4, 0x5c94850b
    80005b28:	3c94850b          	.insn	4, 0x3c94850b
    80005b2c:	c092857b          	.insn	4, 0xc092857b
    80005b30:	4ca13023          	sd	a0,1216(sp)
    80005b34:	9daf050b          	.insn	4, 0x9daf050b
    80005b38:	7c94850b          	.insn	4, 0x7c94850b
    80005b3c:	5c94850b          	.insn	4, 0x5c94850b
    80005b40:	3c94850b          	.insn	4, 0x3c94850b
    80005b44:	c052857b          	.insn	4, 0xc052857b
    80005b48:	4aa13823          	sd	a0,1200(sp)
    80005b4c:	9dae050b          	.insn	4, 0x9dae050b
    80005b50:	7c94850b          	.insn	4, 0x7c94850b
    80005b54:	5c94850b          	.insn	4, 0x5c94850b
    80005b58:	3c92850b          	.insn	4, 0x3c92850b
    80005b5c:	c052857b          	.insn	4, 0xc052857b
    80005b60:	4aa13423          	sd	a0,1192(sp)
    80005b64:	7c52850b          	.insn	4, 0x7c52850b
    80005b68:	5c52850b          	.insn	4, 0x5c52850b
    80005b6c:	3c52850b          	.insn	4, 0x3c52850b
    80005b70:	c052857b          	.insn	4, 0xc052857b
    80005b74:	4aa13c23          	sd	a0,1208(sp)
    80005b78:	9da7850b          	.insn	4, 0x9da7850b
    80005b7c:	7c92850b          	.insn	4, 0x7c92850b
    80005b80:	5c52850b          	.insn	4, 0x5c52850b
    80005b84:	3c52850b          	.insn	4, 0x3c52850b
    80005b88:	c052857b          	.insn	4, 0xc052857b
    80005b8c:	4aa13023          	sd	a0,1184(sp)
    80005b90:	9da3050b          	.insn	4, 0x9da3050b
    80005b94:	7c94850b          	.insn	4, 0x7c94850b
    80005b98:	5c52850b          	.insn	4, 0x5c52850b
    80005b9c:	3c52850b          	.insn	4, 0x3c52850b
    80005ba0:	c052857b          	.insn	4, 0xc052857b
    80005ba4:	48a13c23          	sd	a0,1176(sp)
    80005ba8:	9da6850b          	.insn	4, 0x9da6850b
    80005bac:	4f95                	li	t6,5
    80005bae:	7c94850b          	.insn	4, 0x7c94850b
    80005bb2:	5c92850b          	.insn	4, 0x5c92850b
    80005bb6:	3c52850b          	.insn	4, 0x3c52850b
    80005bba:	c052857b          	.insn	4, 0xc052857b
    80005bbe:	48a13823          	sd	a0,1168(sp)
    80005bc2:	9da3050b          	.insn	4, 0x9da3050b
    80005bc6:	7dde850b          	.insn	4, 0x7dde850b
    80005bca:	5d8c050b          	.insn	4, 0x5d8c050b
    80005bce:	3d8c050b          	.insn	4, 0x3d8c050b
    80005bd2:	c18c057b          	.insn	4, 0xc18c057b
    80005bd6:	44a13823          	sd	a0,1104(sp)
    80005bda:	9dae050b          	.insn	4, 0x9dae050b
    80005bde:	7d8c050b          	.insn	4, 0x7d8c050b
    80005be2:	5d8c050b          	.insn	4, 0x5d8c050b
    80005be6:	3d8b050b          	.insn	4, 0x3d8b050b
    80005bea:	c16b057b          	.insn	4, 0xc16b057b
    80005bee:	46a13423          	sd	a0,1128(sp)
    80005bf2:	4685                	li	a3,1
    80005bf4:	9da6850b          	.insn	4, 0x9da6850b
    80005bf8:	7d6b050b          	.insn	4, 0x7d6b050b
    80005bfc:	5d6b050b          	.insn	4, 0x5d6b050b
    80005c00:	3d6b050b          	.insn	4, 0x3d6b050b
    80005c04:	c164857b          	.insn	4, 0xc164857b
    80005c08:	46a13c23          	sd	a0,1144(sp)
    80005c0c:	9daf050b          	.insn	4, 0x9daf050b
    80005c10:	7d6b050b          	.insn	4, 0x7d6b050b
    80005c14:	5d6b050b          	.insn	4, 0x5d6b050b
    80005c18:	3d6b050b          	.insn	4, 0x3d6b050b
    80005c1c:	c094857b          	.insn	4, 0xc094857b
    80005c20:	46a13023          	sd	a0,1120(sp)
    80005c24:	7d6b050b          	.insn	4, 0x7d6b050b
    80005c28:	5d6b050b          	.insn	4, 0x5d6b050b
    80005c2c:	3c94850b          	.insn	4, 0x3c94850b
    80005c30:	c094857b          	.insn	4, 0xc094857b
    80005c34:	46a13823          	sd	a0,1136(sp)
    80005c38:	9da7850b          	.insn	4, 0x9da7850b
    80005c3c:	7d64850b          	.insn	4, 0x7d64850b
    80005c40:	5c94850b          	.insn	4, 0x5c94850b
    80005c44:	3c94850b          	.insn	4, 0x3c94850b
    80005c48:	c094857b          	.insn	4, 0xc094857b
    80005c4c:	44a13c23          	sd	a0,1112(sp)
    80005c50:	9da3050b          	.insn	4, 0x9da3050b
    80005c54:	7d6b050b          	.insn	4, 0x7d6b050b
    80005c58:	5c94850b          	.insn	4, 0x5c94850b
    80005c5c:	3c94850b          	.insn	4, 0x3c94850b
    80005c60:	c094857b          	.insn	4, 0xc094857b
    80005c64:	44a13423          	sd	a0,1096(sp)
    80005c68:	9daf850b          	.insn	4, 0x9daf850b
    80005c6c:	7d6b050b          	.insn	4, 0x7d6b050b
    80005c70:	5d64850b          	.insn	4, 0x5d64850b
    80005c74:	3c94850b          	.insn	4, 0x3c94850b
    80005c78:	c094857b          	.insn	4, 0xc094857b
    80005c7c:	44a13023          	sd	a0,1088(sp)
    80005c80:	6505                	lui	a0,0x1
    80005c82:	3105051b          	addiw	a0,a0,784 # 1310 <buflen.1+0x12d0>
    80005c86:	950a                	add	a0,a0,sp
    80005c88:	00053883          	ld	a7,0(a0)
    80005c8c:	2c08b503          	ld	a0,704(a7)
    80005c90:	9da6858b          	.insn	4, 0x9da6858b
    80005c94:	7ca5058b          	.insn	4, 0x7ca5058b
    80005c98:	5ca5058b          	.insn	4, 0x5ca5058b
    80005c9c:	3ca5058b          	.insn	4, 0x3ca5058b
    80005ca0:	c0a805fb          	.insn	4, 0xc0a805fb
    80005ca4:	3cb13423          	sd	a1,968(sp)
    80005ca8:	9da3058b          	.insn	4, 0x9da3058b
    80005cac:	5d08058b          	.insn	4, 0x5d08058b
    80005cb0:	3d08058b          	.insn	4, 0x3d08058b
    80005cb4:	1d08058b          	.insn	4, 0x1d08058b
    80005cb8:	cca505fb          	.insn	4, 0xcca505fb
    80005cbc:	3cb13c23          	sd	a1,984(sp)
    80005cc0:	3808b583          	ld	a1,896(a7)
    80005cc4:	9da6868b          	.insn	4, 0x9da6868b
    80005cc8:	4285                	li	t0,1
    80005cca:	7cb5868b          	.insn	4, 0x7cb5868b
    80005cce:	5cb5868b          	.insn	4, 0x5cb5868b
    80005cd2:	3c08b703          	ld	a4,960(a7)
    80005cd6:	8f46                	mv	t5,a7
    80005cd8:	3cb5868b          	.insn	4, 0x3cb5868b
    80005cdc:	c0b706fb          	.insn	4, 0xc0b706fb
    80005ce0:	40d13023          	sd	a3,1024(sp)
    80005ce4:	7d6b068b          	.insn	4, 0x7d6b068b
    80005ce8:	5d6b068b          	.insn	4, 0x5d6b068b
    80005cec:	3d6b068b          	.insn	4, 0x3d6b068b
    80005cf0:	c16b06fb          	.insn	4, 0xc16b06fb
    80005cf4:	42d13c23          	sd	a3,1080(sp)
    80005cf8:	491d                	li	s2,7
    80005cfa:	9da9068b          	.insn	4, 0x9da9068b
    80005cfe:	7d8b068b          	.insn	4, 0x7d8b068b
    80005d02:	5d6b068b          	.insn	4, 0x5d6b068b
    80005d06:	3d6b068b          	.insn	4, 0x3d6b068b
    80005d0a:	c16b06fb          	.insn	4, 0xc16b06fb
    80005d0e:	42d13823          	sd	a3,1072(sp)
    80005d12:	4789                	li	a5,2
    80005d14:	9da7868b          	.insn	4, 0x9da7868b
    80005d18:	7cb5868b          	.insn	4, 0x7cb5868b
    80005d1c:	5cb5868b          	.insn	4, 0x5cb5868b
    80005d20:	3cb5868b          	.insn	4, 0x3cb5868b
    80005d24:	c0e706fb          	.insn	4, 0xc0e706fb
    80005d28:	3ed13823          	sd	a3,1008(sp)
    80005d2c:	4e0d                	li	t3,3
    80005d2e:	9dae068b          	.insn	4, 0x9dae068b
    80005d32:	7d9c868b          	.insn	4, 0x7d9c868b
    80005d36:	5d9c868b          	.insn	4, 0x5d9c868b
    80005d3a:	3d94068b          	.insn	4, 0x3d94068b
    80005d3e:	c08406fb          	.insn	4, 0xc08406fb
    80005d42:	42d13423          	sd	a3,1064(sp)
    80005d46:	9da7868b          	.insn	4, 0x9da7868b
    80005d4a:	4889                	li	a7,2
    80005d4c:	7d9c868b          	.insn	4, 0x7d9c868b
    80005d50:	5d9c868b          	.insn	4, 0x5d9c868b
    80005d54:	3d9c868b          	.insn	4, 0x3d9c868b
    80005d58:	c08406fb          	.insn	4, 0xc08406fb
    80005d5c:	42d13023          	sd	a3,1056(sp)
    80005d60:	9da9068b          	.insn	4, 0x9da9068b
    80005d64:	491d                	li	s2,7
    80005d66:	7d7c868b          	.insn	4, 0x7d7c868b
    80005d6a:	5d9c868b          	.insn	4, 0x5d9c868b
    80005d6e:	3d9c868b          	.insn	4, 0x3d9c868b
    80005d72:	c19c86fb          	.insn	4, 0xc19c86fb
    80005d76:	40d13c23          	sd	a3,1048(sp)
    80005d7a:	9da3068b          	.insn	4, 0x9da3068b
    80005d7e:	7d7b868b          	.insn	4, 0x7d7b868b
    80005d82:	5d9c868b          	.insn	4, 0x5d9c868b
    80005d86:	3d9c868b          	.insn	4, 0x3d9c868b
    80005d8a:	c19c86fb          	.insn	4, 0xc19c86fb
    80005d8e:	40d13823          	sd	a3,1040(sp)
    80005d92:	9daf868b          	.insn	4, 0x9daf868b
    80005d96:	7d7b868b          	.insn	4, 0x7d7b868b
    80005d9a:	5d7c868b          	.insn	4, 0x5d7c868b
    80005d9e:	3d9c868b          	.insn	4, 0x3d9c868b
    80005da2:	c19c86fb          	.insn	4, 0xc19c86fb
    80005da6:	40d13423          	sd	a3,1032(sp)
    80005daa:	7d7b868b          	.insn	4, 0x7d7b868b
    80005dae:	5d7b868b          	.insn	4, 0x5d7b868b
    80005db2:	3d9c868b          	.insn	4, 0x3d9c868b
    80005db6:	c19c86fb          	.insn	4, 0xc19c86fb
    80005dba:	3ed13c23          	sd	a3,1016(sp)
    80005dbe:	9dae068b          	.insn	4, 0x9dae068b
    80005dc2:	4e0d                	li	t3,3
    80005dc4:	7cb5868b          	.insn	4, 0x7cb5868b
    80005dc8:	5cb5868b          	.insn	4, 0x5cb5868b
    80005dcc:	3cb7068b          	.insn	4, 0x3cb7068b
    80005dd0:	c0e706fb          	.insn	4, 0xc0e706fb
    80005dd4:	3ad13823          	sd	a3,944(sp)
    80005dd8:	9da8868b          	.insn	4, 0x9da8868b
    80005ddc:	7d7b868b          	.insn	4, 0x7d7b868b
    80005de0:	5d7b868b          	.insn	4, 0x5d7b868b
    80005de4:	3d7b868b          	.insn	4, 0x3d7b868b
    80005de8:	c19c86fb          	.insn	4, 0xc19c86fb
    80005dec:	3ed13423          	sd	a3,1000(sp)
