
mainop_BASELINE_O3_NY.riscv:     file format elf64-littleriscv


Disassembly of section .text.init:

0000000080000000 <_start>:
    80000000:	4081                	li	ra,0
    80000002:	4101                	li	sp,0
    80000004:	4181                	li	gp,0
    80000006:	4201                	li	tp,0
    80000008:	4281                	li	t0,0
    8000000a:	4301                	li	t1,0
    8000000c:	4381                	li	t2,0
    8000000e:	4401                	li	s0,0
    80000010:	4481                	li	s1,0
    80000012:	4501                	li	a0,0
    80000014:	4581                	li	a1,0
    80000016:	4601                	li	a2,0
    80000018:	4681                	li	a3,0
    8000001a:	4701                	li	a4,0
    8000001c:	4781                	li	a5,0
    8000001e:	4801                	li	a6,0
    80000020:	4881                	li	a7,0
    80000022:	4901                	li	s2,0
    80000024:	4981                	li	s3,0
    80000026:	4a01                	li	s4,0
    80000028:	4a81                	li	s5,0
    8000002a:	4b01                	li	s6,0
    8000002c:	4b81                	li	s7,0
    8000002e:	4c01                	li	s8,0
    80000030:	4c81                	li	s9,0
    80000032:	4d01                	li	s10,0
    80000034:	4d81                	li	s11,0
    80000036:	4e01                	li	t3,0
    80000038:	4e81                	li	t4,0
    8000003a:	4f01                	li	t5,0
    8000003c:	4f81                	li	t6,0
    8000003e:	62f9                	lui	t0,0x1e
    80000040:	3002a073          	csrs	mstatus,t0
    80000044:	4285                	li	t0,1
    80000046:	02fe                	slli	t0,t0,0x1f
    80000048:	0002d863          	bgez	t0,80000058 <_start+0x58>
    8000004c:	4505                	li	a0,1
    8000004e:	00001297          	auipc	t0,0x1
    80000052:	faa2a923          	sw	a0,-78(t0) # 80001000 <tohost>
    80000056:	bfdd                	j	8000004c <_start+0x4c>
    80000058:	00000297          	auipc	t0,0x0
    8000005c:	09028293          	addi	t0,t0,144 # 800000e8 <_start+0xe8>
    80000060:	30529073          	csrw	mtvec,t0
    80000064:	00301073          	fscsr	zero
    80000068:	f0000053          	fmv.w.x	ft0,zero
    8000006c:	f00000d3          	fmv.w.x	ft1,zero
    80000070:	f0000153          	fmv.w.x	ft2,zero
    80000074:	f00001d3          	fmv.w.x	ft3,zero
    80000078:	f0000253          	fmv.w.x	ft4,zero
    8000007c:	f00002d3          	fmv.w.x	ft5,zero
    80000080:	f0000353          	fmv.w.x	ft6,zero
    80000084:	f00003d3          	fmv.w.x	ft7,zero
    80000088:	f0000453          	fmv.w.x	fs0,zero
    8000008c:	f00004d3          	fmv.w.x	fs1,zero
    80000090:	f0000553          	fmv.w.x	fa0,zero
    80000094:	f00005d3          	fmv.w.x	fa1,zero
    80000098:	f0000653          	fmv.w.x	fa2,zero
    8000009c:	f00006d3          	fmv.w.x	fa3,zero
    800000a0:	f0000753          	fmv.w.x	fa4,zero
    800000a4:	f00007d3          	fmv.w.x	fa5,zero
    800000a8:	f0000853          	fmv.w.x	fa6,zero
    800000ac:	f00008d3          	fmv.w.x	fa7,zero
    800000b0:	f0000953          	fmv.w.x	fs2,zero
    800000b4:	f00009d3          	fmv.w.x	fs3,zero
    800000b8:	f0000a53          	fmv.w.x	fs4,zero
    800000bc:	f0000ad3          	fmv.w.x	fs5,zero
    800000c0:	f0000b53          	fmv.w.x	fs6,zero
    800000c4:	f0000bd3          	fmv.w.x	fs7,zero
    800000c8:	f0000c53          	fmv.w.x	fs8,zero
    800000cc:	f0000cd3          	fmv.w.x	fs9,zero
    800000d0:	f0000d53          	fmv.w.x	fs10,zero
    800000d4:	f0000dd3          	fmv.w.x	fs11,zero
    800000d8:	f0000e53          	fmv.w.x	ft8,zero
    800000dc:	f0000ed3          	fmv.w.x	ft9,zero
    800000e0:	f0000f53          	fmv.w.x	ft10,zero
    800000e4:	f0000fd3          	fmv.w.x	ft11,zero
    800000e8:	00000297          	auipc	t0,0x0
    800000ec:	03c28293          	addi	t0,t0,60 # 80000124 <trap_entry>
    800000f0:	30529073          	csrw	mtvec,t0
    800000f4:	00005197          	auipc	gp,0x5
    800000f8:	ccc18193          	addi	gp,gp,-820 # 80004dc0 <__global_pointer$>
    800000fc:	00006217          	auipc	tp,0x6
    80000100:	fc320213          	addi	tp,tp,-61 # 800060bf <_end+0x3f>
    80000104:	fc027213          	andi	tp,tp,-64
    80000108:	f1402573          	csrr	a0,mhartid
    8000010c:	4585                	li	a1,1
    8000010e:	00b57063          	bgeu	a0,a1,8000010e <_start+0x10e>
    80000112:	00150113          	addi	sp,a0,1
    80000116:	0146                	slli	sp,sp,0x11
    80000118:	9112                	add	sp,sp,tp
    8000011a:	01151613          	slli	a2,a0,0x11
    8000011e:	9232                	add	tp,tp,a2
    80000120:	0ab0306f          	j	800039ca <_init>

0000000080000124 <trap_entry>:
    80000124:	716d                	addi	sp,sp,-272
    80000126:	e406                	sd	ra,8(sp)
    80000128:	e80a                	sd	sp,16(sp)
    8000012a:	ec0e                	sd	gp,24(sp)
    8000012c:	f012                	sd	tp,32(sp)
    8000012e:	f416                	sd	t0,40(sp)
    80000130:	f81a                	sd	t1,48(sp)
    80000132:	fc1e                	sd	t2,56(sp)
    80000134:	e0a2                	sd	s0,64(sp)
    80000136:	e4a6                	sd	s1,72(sp)
    80000138:	e8aa                	sd	a0,80(sp)
    8000013a:	ecae                	sd	a1,88(sp)
    8000013c:	f0b2                	sd	a2,96(sp)
    8000013e:	f4b6                	sd	a3,104(sp)
    80000140:	f8ba                	sd	a4,112(sp)
    80000142:	fcbe                	sd	a5,120(sp)
    80000144:	e142                	sd	a6,128(sp)
    80000146:	e546                	sd	a7,136(sp)
    80000148:	e94a                	sd	s2,144(sp)
    8000014a:	ed4e                	sd	s3,152(sp)
    8000014c:	f152                	sd	s4,160(sp)
    8000014e:	f556                	sd	s5,168(sp)
    80000150:	f95a                	sd	s6,176(sp)
    80000152:	fd5e                	sd	s7,184(sp)
    80000154:	e1e2                	sd	s8,192(sp)
    80000156:	e5e6                	sd	s9,200(sp)
    80000158:	e9ea                	sd	s10,208(sp)
    8000015a:	edee                	sd	s11,216(sp)
    8000015c:	f1f2                	sd	t3,224(sp)
    8000015e:	f5f6                	sd	t4,232(sp)
    80000160:	f9fa                	sd	t5,240(sp)
    80000162:	fdfe                	sd	t6,248(sp)
    80000164:	34202573          	csrr	a0,mcause
    80000168:	341025f3          	csrr	a1,mepc
    8000016c:	860a                	mv	a2,sp
    8000016e:	694030ef          	jal	80003802 <handle_trap>
    80000172:	34151073          	csrw	mepc,a0
    80000176:	6289                	lui	t0,0x2
    80000178:	8002829b          	addiw	t0,t0,-2048 # 1800 <buflen.1+0x17c0>
    8000017c:	3002a073          	csrs	mstatus,t0
    80000180:	60a2                	ld	ra,8(sp)
    80000182:	6142                	ld	sp,16(sp)
    80000184:	61e2                	ld	gp,24(sp)
    80000186:	7202                	ld	tp,32(sp)
    80000188:	72a2                	ld	t0,40(sp)
    8000018a:	7342                	ld	t1,48(sp)
    8000018c:	73e2                	ld	t2,56(sp)
    8000018e:	6406                	ld	s0,64(sp)
    80000190:	64a6                	ld	s1,72(sp)
    80000192:	6546                	ld	a0,80(sp)
    80000194:	65e6                	ld	a1,88(sp)
    80000196:	7606                	ld	a2,96(sp)
    80000198:	76a6                	ld	a3,104(sp)
    8000019a:	7746                	ld	a4,112(sp)
    8000019c:	77e6                	ld	a5,120(sp)
    8000019e:	680a                	ld	a6,128(sp)
    800001a0:	68aa                	ld	a7,136(sp)
    800001a2:	694a                	ld	s2,144(sp)
    800001a4:	69ea                	ld	s3,152(sp)
    800001a6:	7a0a                	ld	s4,160(sp)
    800001a8:	7aaa                	ld	s5,168(sp)
    800001aa:	7b4a                	ld	s6,176(sp)
    800001ac:	7bea                	ld	s7,184(sp)
    800001ae:	6c0e                	ld	s8,192(sp)
    800001b0:	6cae                	ld	s9,200(sp)
    800001b2:	6d4e                	ld	s10,208(sp)
    800001b4:	6dee                	ld	s11,216(sp)
    800001b6:	7e0e                	ld	t3,224(sp)
    800001b8:	7eae                	ld	t4,232(sp)
    800001ba:	7f4e                	ld	t5,240(sp)
    800001bc:	7fee                	ld	t6,248(sp)
    800001be:	6151                	addi	sp,sp,272
    800001c0:	30200073          	mret
    800001c4:	0000                	unimp

Disassembly of section .text:

0000000080002000 <d2ull>:
    80002000:	e2050553          	fmv.x.d	a0,fa0
    80002004:	8082                	ret

0000000080002006 <ull2d>:
    80002006:	f2050553          	fmv.d.x	fa0,a0
    8000200a:	8082                	ret

000000008000200c <PickResult>:
    8000200c:	058e                	slli	a1,a1,0x3
    8000200e:	952e                	add	a0,a0,a1
    80002010:	6108                	ld	a0,0(a0)
    80002012:	8082                	ret

0000000080002014 <Impl_SBOX>:
    80002014:	6114                	ld	a3,0(a0)
    80002016:	0ff6f713          	zext.b	a4,a3
    8000201a:	00002617          	auipc	a2,0x2
    8000201e:	20760613          	addi	a2,a2,519 # 80004221 <__sbox>
    80002022:	9732                	add	a4,a4,a2
    80002024:	03769793          	slli	a5,a3,0x37
    80002028:	93e1                	srli	a5,a5,0x38
    8000202a:	97b2                	add	a5,a5,a2
    8000202c:	0007c783          	lbu	a5,0(a5)
    80002030:	00074703          	lbu	a4,0(a4)
    80002034:	0786                	slli	a5,a5,0x1
    80002036:	00e7e833          	or	a6,a5,a4
    8000203a:	03669793          	slli	a5,a3,0x36
    8000203e:	93e1                	srli	a5,a5,0x38
    80002040:	97b2                	add	a5,a5,a2
    80002042:	0007c783          	lbu	a5,0(a5)
    80002046:	03569713          	slli	a4,a3,0x35
    8000204a:	9361                	srli	a4,a4,0x38
    8000204c:	9732                	add	a4,a4,a2
    8000204e:	00074703          	lbu	a4,0(a4)
    80002052:	078a                	slli	a5,a5,0x2
    80002054:	0107e7b3          	or	a5,a5,a6
    80002058:	070e                	slli	a4,a4,0x3
    8000205a:	00f76833          	or	a6,a4,a5
    8000205e:	03069793          	slli	a5,a3,0x30
    80002062:	93e1                	srli	a5,a5,0x38
    80002064:	97b2                	add	a5,a5,a2
    80002066:	0007c783          	lbu	a5,0(a5)
    8000206a:	02f69713          	slli	a4,a3,0x2f
    8000206e:	9361                	srli	a4,a4,0x38
    80002070:	9732                	add	a4,a4,a2
    80002072:	00074703          	lbu	a4,0(a4)
    80002076:	07a2                	slli	a5,a5,0x8
    80002078:	0107e7b3          	or	a5,a5,a6
    8000207c:	0726                	slli	a4,a4,0x9
    8000207e:	00f76833          	or	a6,a4,a5
    80002082:	02e69793          	slli	a5,a3,0x2e
    80002086:	93e1                	srli	a5,a5,0x38
    80002088:	97b2                	add	a5,a5,a2
    8000208a:	0007c783          	lbu	a5,0(a5)
    8000208e:	02d69713          	slli	a4,a3,0x2d
    80002092:	9361                	srli	a4,a4,0x38
    80002094:	9732                	add	a4,a4,a2
    80002096:	00074703          	lbu	a4,0(a4)
    8000209a:	07aa                	slli	a5,a5,0xa
    8000209c:	0107e7b3          	or	a5,a5,a6
    800020a0:	072e                	slli	a4,a4,0xb
    800020a2:	00f76833          	or	a6,a4,a5
    800020a6:	02869793          	slli	a5,a3,0x28
    800020aa:	93e1                	srli	a5,a5,0x38
    800020ac:	97b2                	add	a5,a5,a2
    800020ae:	0007c783          	lbu	a5,0(a5)
    800020b2:	02769713          	slli	a4,a3,0x27
    800020b6:	9361                	srli	a4,a4,0x38
    800020b8:	9732                	add	a4,a4,a2
    800020ba:	00074703          	lbu	a4,0(a4)
    800020be:	07c2                	slli	a5,a5,0x10
    800020c0:	0107e7b3          	or	a5,a5,a6
    800020c4:	0746                	slli	a4,a4,0x11
    800020c6:	00f76833          	or	a6,a4,a5
    800020ca:	02669793          	slli	a5,a3,0x26
    800020ce:	93e1                	srli	a5,a5,0x38
    800020d0:	97b2                	add	a5,a5,a2
    800020d2:	0007c783          	lbu	a5,0(a5)
    800020d6:	02569713          	slli	a4,a3,0x25
    800020da:	9361                	srli	a4,a4,0x38
    800020dc:	9732                	add	a4,a4,a2
    800020de:	00074703          	lbu	a4,0(a4)
    800020e2:	07ca                	slli	a5,a5,0x12
    800020e4:	0107e7b3          	or	a5,a5,a6
    800020e8:	074e                	slli	a4,a4,0x13
    800020ea:	00f76833          	or	a6,a4,a5
    800020ee:	0186d79b          	srliw	a5,a3,0x18
    800020f2:	97b2                	add	a5,a5,a2
    800020f4:	0007c783          	lbu	a5,0(a5)
    800020f8:	01f69713          	slli	a4,a3,0x1f
    800020fc:	9361                	srli	a4,a4,0x38
    800020fe:	9732                	add	a4,a4,a2
    80002100:	00074703          	lbu	a4,0(a4)
    80002104:	07e2                	slli	a5,a5,0x18
    80002106:	0107e7b3          	or	a5,a5,a6
    8000210a:	0766                	slli	a4,a4,0x19
    8000210c:	8f5d                	or	a4,a4,a5
    8000210e:	01e69793          	slli	a5,a3,0x1e
    80002112:	93e1                	srli	a5,a5,0x38
    80002114:	97b2                	add	a5,a5,a2
    80002116:	0007c783          	lbu	a5,0(a5)
    8000211a:	06f6                	slli	a3,a3,0x1d
    8000211c:	92e1                	srli	a3,a3,0x38
    8000211e:	96b2                	add	a3,a3,a2
    80002120:	0006c683          	lbu	a3,0(a3)
    80002124:	07ea                	slli	a5,a5,0x1a
    80002126:	8f5d                	or	a4,a4,a5
    80002128:	06ee                	slli	a3,a3,0x1b
    8000212a:	8ed9                	or	a3,a3,a4
    8000212c:	e194                	sd	a3,0(a1)
    8000212e:	6508                	ld	a0,8(a0)
    80002130:	0ff57693          	zext.b	a3,a0
    80002134:	96b2                	add	a3,a3,a2
    80002136:	03751713          	slli	a4,a0,0x37
    8000213a:	9361                	srli	a4,a4,0x38
    8000213c:	9732                	add	a4,a4,a2
    8000213e:	00074703          	lbu	a4,0(a4)
    80002142:	0006c683          	lbu	a3,0(a3)
    80002146:	0706                	slli	a4,a4,0x1
    80002148:	8ed9                	or	a3,a3,a4
    8000214a:	03651713          	slli	a4,a0,0x36
    8000214e:	9361                	srli	a4,a4,0x38
    80002150:	9732                	add	a4,a4,a2
    80002152:	00074703          	lbu	a4,0(a4)
    80002156:	03551793          	slli	a5,a0,0x35
    8000215a:	93e1                	srli	a5,a5,0x38
    8000215c:	97b2                	add	a5,a5,a2
    8000215e:	0007c783          	lbu	a5,0(a5)
    80002162:	070a                	slli	a4,a4,0x2
    80002164:	8ed9                	or	a3,a3,a4
    80002166:	00379713          	slli	a4,a5,0x3
    8000216a:	8ed9                	or	a3,a3,a4
    8000216c:	03051713          	slli	a4,a0,0x30
    80002170:	9361                	srli	a4,a4,0x38
    80002172:	9732                	add	a4,a4,a2
    80002174:	00074703          	lbu	a4,0(a4)
    80002178:	02f51793          	slli	a5,a0,0x2f
    8000217c:	93e1                	srli	a5,a5,0x38
    8000217e:	97b2                	add	a5,a5,a2
    80002180:	0007c783          	lbu	a5,0(a5)
    80002184:	0722                	slli	a4,a4,0x8
    80002186:	8ed9                	or	a3,a3,a4
    80002188:	00979713          	slli	a4,a5,0x9
    8000218c:	8ed9                	or	a3,a3,a4
    8000218e:	02e51713          	slli	a4,a0,0x2e
    80002192:	9361                	srli	a4,a4,0x38
    80002194:	9732                	add	a4,a4,a2
    80002196:	00074703          	lbu	a4,0(a4)
    8000219a:	02d51793          	slli	a5,a0,0x2d
    8000219e:	93e1                	srli	a5,a5,0x38
    800021a0:	97b2                	add	a5,a5,a2
    800021a2:	0007c783          	lbu	a5,0(a5)
    800021a6:	072a                	slli	a4,a4,0xa
    800021a8:	8ed9                	or	a3,a3,a4
    800021aa:	00b79713          	slli	a4,a5,0xb
    800021ae:	8ed9                	or	a3,a3,a4
    800021b0:	02851713          	slli	a4,a0,0x28
    800021b4:	9361                	srli	a4,a4,0x38
    800021b6:	9732                	add	a4,a4,a2
    800021b8:	00074703          	lbu	a4,0(a4)
    800021bc:	02751793          	slli	a5,a0,0x27
    800021c0:	93e1                	srli	a5,a5,0x38
    800021c2:	97b2                	add	a5,a5,a2
    800021c4:	0007c783          	lbu	a5,0(a5)
    800021c8:	0742                	slli	a4,a4,0x10
    800021ca:	8ed9                	or	a3,a3,a4
    800021cc:	01179713          	slli	a4,a5,0x11
    800021d0:	8ed9                	or	a3,a3,a4
    800021d2:	02651713          	slli	a4,a0,0x26
    800021d6:	9361                	srli	a4,a4,0x38
    800021d8:	9732                	add	a4,a4,a2
    800021da:	00074703          	lbu	a4,0(a4)
    800021de:	02551793          	slli	a5,a0,0x25
    800021e2:	93e1                	srli	a5,a5,0x38
    800021e4:	97b2                	add	a5,a5,a2
    800021e6:	0007c783          	lbu	a5,0(a5)
    800021ea:	074a                	slli	a4,a4,0x12
    800021ec:	8ed9                	or	a3,a3,a4
    800021ee:	01379713          	slli	a4,a5,0x13
    800021f2:	8ed9                	or	a3,a3,a4
    800021f4:	0185571b          	srliw	a4,a0,0x18
    800021f8:	9732                	add	a4,a4,a2
    800021fa:	00074703          	lbu	a4,0(a4)
    800021fe:	01f51793          	slli	a5,a0,0x1f
    80002202:	93e1                	srli	a5,a5,0x38
    80002204:	97b2                	add	a5,a5,a2
    80002206:	0007c783          	lbu	a5,0(a5)
    8000220a:	0762                	slli	a4,a4,0x18
    8000220c:	8ed9                	or	a3,a3,a4
    8000220e:	01979713          	slli	a4,a5,0x19
    80002212:	8ed9                	or	a3,a3,a4
    80002214:	01e51713          	slli	a4,a0,0x1e
    80002218:	9361                	srli	a4,a4,0x38
    8000221a:	9732                	add	a4,a4,a2
    8000221c:	00074703          	lbu	a4,0(a4)
    80002220:	0576                	slli	a0,a0,0x1d
    80002222:	9161                	srli	a0,a0,0x38
    80002224:	9532                	add	a0,a0,a2
    80002226:	00054503          	lbu	a0,0(a0)
    8000222a:	01a71613          	slli	a2,a4,0x1a
    8000222e:	8e55                	or	a2,a2,a3
    80002230:	056e                	slli	a0,a0,0x1b
    80002232:	8d51                	or	a0,a0,a2
    80002234:	e588                	sd	a0,8(a1)
    80002236:	8082                	ret

0000000080002238 <gmul_>:
    80002238:	03851613          	slli	a2,a0,0x38
    8000223c:	9661                	srai	a2,a2,0x38
    8000223e:	00151813          	slli	a6,a0,0x1
    80002242:	00065463          	bgez	a2,8000224a <gmul_+0x12>
    80002246:	01b84813          	xori	a6,a6,27
    8000224a:	0085571b          	srliw	a4,a0,0x8
    8000224e:	03051613          	slli	a2,a0,0x30
    80002252:	9661                	srai	a2,a2,0x38
    80002254:	00171693          	slli	a3,a4,0x1
    80002258:	00065463          	bgez	a2,80002260 <gmul_+0x28>
    8000225c:	01b6c693          	xori	a3,a3,27
    80002260:	00a84333          	xor	t1,a6,a0
    80002264:	01055e1b          	srliw	t3,a0,0x10
    80002268:	02851793          	slli	a5,a0,0x28
    8000226c:	4387d893          	srai	a7,a5,0x38
    80002270:	001e1793          	slli	a5,t3,0x1
    80002274:	0008d463          	bgez	a7,8000227c <gmul_+0x44>
    80002278:	01b7c793          	xori	a5,a5,27
    8000227c:	00e6c633          	xor	a2,a3,a4
    80002280:	010648b3          	xor	a7,a2,a6
    80002284:	00a6c2b3          	xor	t0,a3,a0
    80002288:	00a743b3          	xor	t2,a4,a0
    8000228c:	00674833          	xor	a6,a4,t1
    80002290:	0185569b          	srliw	a3,a0,0x18
    80002294:	00169713          	slli	a4,a3,0x1
    80002298:	00055463          	bgez	a0,800022a0 <gmul_+0x68>
    8000229c:	01b74713          	xori	a4,a4,27
    800022a0:	00d74533          	xor	a0,a4,a3
    800022a4:	0077c633          	xor	a2,a5,t2
    800022a8:	8d31                	xor	a0,a0,a2
    800022aa:	0ff57513          	zext.b	a0,a0
    800022ae:	0542                	slli	a0,a0,0x10
    800022b0:	01c7c633          	xor	a2,a5,t3
    800022b4:	00564633          	xor	a2,a2,t0
    800022b8:	8e35                	xor	a2,a2,a3
    800022ba:	0ff67613          	zext.b	a2,a2
    800022be:	0622                	slli	a2,a2,0x8
    800022c0:	011e47b3          	xor	a5,t3,a7
    800022c4:	8ebd                	xor	a3,a3,a5
    800022c6:	0ff6f693          	zext.b	a3,a3
    800022ca:	8e55                	or	a2,a2,a3
    800022cc:	8d51                	or	a0,a0,a2
    800022ce:	010e4633          	xor	a2,t3,a6
    800022d2:	8e39                	xor	a2,a2,a4
    800022d4:	0662                	slli	a2,a2,0x18
    800022d6:	8d51                	or	a0,a0,a2
    800022d8:	c188                	sw	a0,0(a1)
    800022da:	8082                	ret

00000000800022dc <Impl_gmul>:
    800022dc:	7139                	addi	sp,sp,-64
    800022de:	fc06                	sd	ra,56(sp)
    800022e0:	f822                	sd	s0,48(sp)
    800022e2:	f426                	sd	s1,40(sp)
    800022e4:	f04a                	sd	s2,32(sp)
    800022e6:	ec4e                	sd	s3,24(sp)
    800022e8:	89ae                	mv	s3,a1
    800022ea:	6104                	ld	s1,0(a0)
    800022ec:	6500                	ld	s0,8(a0)
    800022ee:	c802                	sw	zero,16(sp)
    800022f0:	e402                	sd	zero,8(sp)
    800022f2:	01010913          	addi	s2,sp,16
    800022f6:	4204d513          	srai	a0,s1,0x20
    800022fa:	002c                	addi	a1,sp,8
    800022fc:	00000097          	auipc	ra,0x0
    80002300:	f3c080e7          	jalr	-196(ra) # 80002238 <gmul_>
    80002304:	006c                	addi	a1,sp,12
    80002306:	0004051b          	sext.w	a0,s0
    8000230a:	00000097          	auipc	ra,0x0
    8000230e:	f2e080e7          	jalr	-210(ra) # 80002238 <gmul_>
    80002312:	42045513          	srai	a0,s0,0x20
    80002316:	85ca                	mv	a1,s2
    80002318:	00000097          	auipc	ra,0x0
    8000231c:	f20080e7          	jalr	-224(ra) # 80002238 <gmul_>
    80002320:	02049513          	slli	a0,s1,0x20
    80002324:	45a2                	lw	a1,8(sp)
    80002326:	9101                	srli	a0,a0,0x20
    80002328:	1582                	slli	a1,a1,0x20
    8000232a:	8d4d                	or	a0,a0,a1
    8000232c:	45c2                	lw	a1,16(sp)
    8000232e:	00c16603          	lwu	a2,12(sp)
    80002332:	1582                	slli	a1,a1,0x20
    80002334:	8dd1                	or	a1,a1,a2
    80002336:	00a9b023          	sd	a0,0(s3)
    8000233a:	00b9b423          	sd	a1,8(s3)
    8000233e:	70e2                	ld	ra,56(sp)
    80002340:	7442                	ld	s0,48(sp)
    80002342:	74a2                	ld	s1,40(sp)
    80002344:	7902                	ld	s2,32(sp)
    80002346:	69e2                	ld	s3,24(sp)
    80002348:	6121                	addi	sp,sp,64
    8000234a:	8082                	ret

000000008000234c <Impl_ShiftRows>:
    8000234c:	7159                	addi	sp,sp,-112
    8000234e:	f486                	sd	ra,104(sp)
    80002350:	f0a2                	sd	s0,96(sp)
    80002352:	eca6                	sd	s1,88(sp)
    80002354:	e8ca                	sd	s2,80(sp)
    80002356:	e4ce                	sd	s3,72(sp)
    80002358:	e0d2                	sd	s4,64(sp)
    8000235a:	fc56                	sd	s5,56(sp)
    8000235c:	f85a                	sd	s6,48(sp)
    8000235e:	f45e                	sd	s7,40(sp)
    80002360:	f062                	sd	s8,32(sp)
    80002362:	ec66                	sd	s9,24(sp)
    80002364:	e86a                	sd	s10,16(sp)
    80002366:	e46e                	sd	s11,8(sp)
    80002368:	00053b03          	ld	s6,0(a0)
    8000236c:	892e                	mv	s2,a1
    8000236e:	020b1593          	slli	a1,s6,0x20
    80002372:	0205da93          	srli	s5,a1,0x20
    80002376:	6504                	ld	s1,8(a0)
    80002378:	020b5a13          	srli	s4,s6,0x20
    8000237c:	0204d993          	srli	s3,s1,0x20
    80002380:	c202                	sw	zero,4(sp)
    80002382:	0ffb7513          	zext.b	a0,s6
    80002386:	018b5593          	srli	a1,s6,0x18
    8000238a:	6641                	lui	a2,0x10
    8000238c:	f006041b          	addiw	s0,a2,-256 # ff00 <buflen.1+0xfec0>
    80002390:	8de1                	and	a1,a1,s0
    80002392:	03849613          	slli	a2,s1,0x38
    80002396:	9221                	srli	a2,a2,0x28
    80002398:	0189969b          	slliw	a3,s3,0x18
    8000239c:	8d4d                	or	a0,a0,a1
    8000239e:	8d51                	or	a0,a0,a2
    800023a0:	8d55                	or	a0,a0,a3
    800023a2:	004c                	addi	a1,sp,4
    800023a4:	00000097          	auipc	ra,0x0
    800023a8:	e94080e7          	jalr	-364(ra) # 80002238 <gmul_>
    800023ac:	00416503          	lwu	a0,4(sp)
    800023b0:	0ff57b93          	zext.b	s7,a0
    800023b4:	03051593          	slli	a1,a0,0x30
    800023b8:	0385dc13          	srli	s8,a1,0x38
    800023bc:	02851593          	slli	a1,a0,0x28
    800023c0:	0385dc93          	srli	s9,a1,0x38
    800023c4:	01855d13          	srli	s10,a0,0x18
    800023c8:	c202                	sw	zero,4(sp)
    800023ca:	030a9513          	slli	a0,s5,0x30
    800023ce:	9161                	srli	a0,a0,0x38
    800023d0:	008a75b3          	and	a1,s4,s0
    800023d4:	8d4d                	or	a0,a0,a1
    800023d6:	00849593          	slli	a1,s1,0x8
    800023da:	00ff0db7          	lui	s11,0xff0
    800023de:	01b5f5b3          	and	a1,a1,s11
    800023e2:	8d4d                	or	a0,a0,a1
    800023e4:	0104d593          	srli	a1,s1,0x10
    800023e8:	2581                	sext.w	a1,a1
    800023ea:	ff000a37          	lui	s4,0xff000
    800023ee:	0145f5b3          	and	a1,a1,s4
    800023f2:	8d4d                	or	a0,a0,a1
    800023f4:	004c                	addi	a1,sp,4
    800023f6:	00000097          	auipc	ra,0x0
    800023fa:	e42080e7          	jalr	-446(ra) # 80002238 <gmul_>
    800023fe:	00416503          	lwu	a0,4(sp)
    80002402:	03851593          	slli	a1,a0,0x38
    80002406:	91c1                	srli	a1,a1,0x30
    80002408:	0175ebb3          	or	s7,a1,s7
    8000240c:	008575b3          	and	a1,a0,s0
    80002410:	0185ec33          	or	s8,a1,s8
    80002414:	00855593          	srli	a1,a0,0x8
    80002418:	8de1                	and	a1,a1,s0
    8000241a:	0195ecb3          	or	s9,a1,s9
    8000241e:	8161                	srli	a0,a0,0x18
    80002420:	0522                	slli	a0,a0,0x8
    80002422:	01a56d33          	or	s10,a0,s10
    80002426:	c202                	sw	zero,4(sp)
    80002428:	028a9513          	slli	a0,s5,0x28
    8000242c:	9161                	srli	a0,a0,0x38
    8000242e:	028b5593          	srli	a1,s6,0x28
    80002432:	8de1                	and	a1,a1,s0
    80002434:	01b4f633          	and	a2,s1,s11
    80002438:	0184d693          	srli	a3,s1,0x18
    8000243c:	2681                	sext.w	a3,a3
    8000243e:	0146f6b3          	and	a3,a3,s4
    80002442:	8d51                	or	a0,a0,a2
    80002444:	8d4d                	or	a0,a0,a1
    80002446:	8d55                	or	a0,a0,a3
    80002448:	004c                	addi	a1,sp,4
    8000244a:	00000097          	auipc	ra,0x0
    8000244e:	dee080e7          	jalr	-530(ra) # 80002238 <gmul_>
    80002452:	00416503          	lwu	a0,4(sp)
    80002456:	03851593          	slli	a1,a0,0x38
    8000245a:	91a1                	srli	a1,a1,0x28
    8000245c:	00bbe433          	or	s0,s7,a1
    80002460:	00851593          	slli	a1,a0,0x8
    80002464:	01b5f5b3          	and	a1,a1,s11
    80002468:	00bc6ab3          	or	s5,s8,a1
    8000246c:	01b575b3          	and	a1,a0,s11
    80002470:	00bcebb3          	or	s7,s9,a1
    80002474:	0185551b          	srliw	a0,a0,0x18
    80002478:	0542                	slli	a0,a0,0x10
    8000247a:	00ad6c33          	or	s8,s10,a0
    8000247e:	c202                	sw	zero,4(sp)
    80002480:	018b551b          	srliw	a0,s6,0x18
    80002484:	038b5593          	srli	a1,s6,0x38
    80002488:	05a2                	slli	a1,a1,0x8
    8000248a:	8d4d                	or	a0,a0,a1
    8000248c:	0184d59b          	srliw	a1,s1,0x18
    80002490:	05c2                	slli	a1,a1,0x10
    80002492:	8d4d                	or	a0,a0,a1
    80002494:	0149f5b3          	and	a1,s3,s4
    80002498:	8d4d                	or	a0,a0,a1
    8000249a:	2501                	sext.w	a0,a0
    8000249c:	004c                	addi	a1,sp,4
    8000249e:	00000097          	auipc	ra,0x0
    800024a2:	d9a080e7          	jalr	-614(ra) # 80002238 <gmul_>
    800024a6:	00416503          	lwu	a0,4(sp)
    800024aa:	01851593          	slli	a1,a0,0x18
    800024ae:	8dc1                	or	a1,a1,s0
    800024b0:	00855613          	srli	a2,a0,0x8
    800024b4:	0662                	slli	a2,a2,0x18
    800024b6:	00cae633          	or	a2,s5,a2
    800024ba:	00851693          	slli	a3,a0,0x8
    800024be:	0ff00713          	li	a4,255
    800024c2:	0762                	slli	a4,a4,0x18
    800024c4:	8ef9                	and	a3,a3,a4
    800024c6:	00dbe6b3          	or	a3,s7,a3
    800024ca:	01457533          	and	a0,a0,s4
    800024ce:	00ac6533          	or	a0,s8,a0
    800024d2:	1582                	slli	a1,a1,0x20
    800024d4:	9181                	srli	a1,a1,0x20
    800024d6:	1602                	slli	a2,a2,0x20
    800024d8:	8dd1                	or	a1,a1,a2
    800024da:	1502                	slli	a0,a0,0x20
    800024dc:	8d55                	or	a0,a0,a3
    800024de:	00b93023          	sd	a1,0(s2)
    800024e2:	00a93423          	sd	a0,8(s2)
    800024e6:	70a6                	ld	ra,104(sp)
    800024e8:	7406                	ld	s0,96(sp)
    800024ea:	64e6                	ld	s1,88(sp)
    800024ec:	6946                	ld	s2,80(sp)
    800024ee:	69a6                	ld	s3,72(sp)
    800024f0:	6a06                	ld	s4,64(sp)
    800024f2:	7ae2                	ld	s5,56(sp)
    800024f4:	7b42                	ld	s6,48(sp)
    800024f6:	7ba2                	ld	s7,40(sp)
    800024f8:	7c02                	ld	s8,32(sp)
    800024fa:	6ce2                	ld	s9,24(sp)
    800024fc:	6d42                	ld	s10,16(sp)
    800024fe:	6da2                	ld	s11,8(sp)
    80002500:	6165                	addi	sp,sp,112
    80002502:	8082                	ret

0000000080002504 <OP_ShiftRows>:
    80002504:	1101                	addi	sp,sp,-32
    80002506:	ec06                	sd	ra,24(sp)
    80002508:	86aa                	mv	a3,a0
    8000250a:	e42e                	sd	a1,8(sp)
    8000250c:	e832                	sd	a2,16(sp)
    8000250e:	0028                	addi	a0,sp,8
    80002510:	85b6                	mv	a1,a3
    80002512:	00000097          	auipc	ra,0x0
    80002516:	e3a080e7          	jalr	-454(ra) # 8000234c <Impl_ShiftRows>
    8000251a:	60e2                	ld	ra,24(sp)
    8000251c:	6105                	addi	sp,sp,32
    8000251e:	8082                	ret

0000000080002520 <OP_gmul>:
    80002520:	7139                	addi	sp,sp,-64
    80002522:	fc06                	sd	ra,56(sp)
    80002524:	f822                	sd	s0,48(sp)
    80002526:	f426                	sd	s1,40(sp)
    80002528:	f04a                	sd	s2,32(sp)
    8000252a:	ec4e                	sd	s3,24(sp)
    8000252c:	8432                	mv	s0,a2
    8000252e:	84ae                	mv	s1,a1
    80002530:	892a                	mv	s2,a0
    80002532:	c802                	sw	zero,16(sp)
    80002534:	e402                	sd	zero,8(sp)
    80002536:	01010993          	addi	s3,sp,16
    8000253a:	4205d513          	srai	a0,a1,0x20
    8000253e:	002c                	addi	a1,sp,8
    80002540:	00000097          	auipc	ra,0x0
    80002544:	cf8080e7          	jalr	-776(ra) # 80002238 <gmul_>
    80002548:	006c                	addi	a1,sp,12
    8000254a:	0004051b          	sext.w	a0,s0
    8000254e:	00000097          	auipc	ra,0x0
    80002552:	cea080e7          	jalr	-790(ra) # 80002238 <gmul_>
    80002556:	42045513          	srai	a0,s0,0x20
    8000255a:	85ce                	mv	a1,s3
    8000255c:	00000097          	auipc	ra,0x0
    80002560:	cdc080e7          	jalr	-804(ra) # 80002238 <gmul_>
    80002564:	02049513          	slli	a0,s1,0x20
    80002568:	45a2                	lw	a1,8(sp)
    8000256a:	9101                	srli	a0,a0,0x20
    8000256c:	1582                	slli	a1,a1,0x20
    8000256e:	8d4d                	or	a0,a0,a1
    80002570:	45c2                	lw	a1,16(sp)
    80002572:	00c16603          	lwu	a2,12(sp)
    80002576:	1582                	slli	a1,a1,0x20
    80002578:	8dd1                	or	a1,a1,a2
    8000257a:	00a93023          	sd	a0,0(s2)
    8000257e:	00b93423          	sd	a1,8(s2)
    80002582:	70e2                	ld	ra,56(sp)
    80002584:	7442                	ld	s0,48(sp)
    80002586:	74a2                	ld	s1,40(sp)
    80002588:	7902                	ld	s2,32(sp)
    8000258a:	69e2                	ld	s3,24(sp)
    8000258c:	6121                	addi	sp,sp,64
    8000258e:	8082                	ret

0000000080002590 <OP_SBOX>:
    80002590:	1101                	addi	sp,sp,-32
    80002592:	ec06                	sd	ra,24(sp)
    80002594:	86aa                	mv	a3,a0
    80002596:	e42e                	sd	a1,8(sp)
    80002598:	e832                	sd	a2,16(sp)
    8000259a:	0028                	addi	a0,sp,8
    8000259c:	85b6                	mv	a1,a3
    8000259e:	00000097          	auipc	ra,0x0
    800025a2:	a76080e7          	jalr	-1418(ra) # 80002014 <Impl_SBOX>
    800025a6:	60e2                	ld	ra,24(sp)
    800025a8:	6105                	addi	sp,sp,32
    800025aa:	8082                	ret

00000000800025ac <KeyExpansion>:
    800025ac:	00050603          	lb	a2,0(a0)
    800025b0:	00c58023          	sb	a2,0(a1)
    800025b4:	00150603          	lb	a2,1(a0)
    800025b8:	00c580a3          	sb	a2,1(a1)
    800025bc:	00250603          	lb	a2,2(a0)
    800025c0:	00c58123          	sb	a2,2(a1)
    800025c4:	00350603          	lb	a2,3(a0)
    800025c8:	00c581a3          	sb	a2,3(a1)
    800025cc:	00450603          	lb	a2,4(a0)
    800025d0:	00c58223          	sb	a2,4(a1)
    800025d4:	00550603          	lb	a2,5(a0)
    800025d8:	00c582a3          	sb	a2,5(a1)
    800025dc:	00650603          	lb	a2,6(a0)
    800025e0:	00c58323          	sb	a2,6(a1)
    800025e4:	00750603          	lb	a2,7(a0)
    800025e8:	00c583a3          	sb	a2,7(a1)
    800025ec:	00850603          	lb	a2,8(a0)
    800025f0:	00c58423          	sb	a2,8(a1)
    800025f4:	00950603          	lb	a2,9(a0)
    800025f8:	00c584a3          	sb	a2,9(a1)
    800025fc:	00a50603          	lb	a2,10(a0)
    80002600:	00c58523          	sb	a2,10(a1)
    80002604:	00b50603          	lb	a2,11(a0)
    80002608:	00c585a3          	sb	a2,11(a1)
    8000260c:	00c50603          	lb	a2,12(a0)
    80002610:	00c58623          	sb	a2,12(a1)
    80002614:	00d50603          	lb	a2,13(a0)
    80002618:	00c586a3          	sb	a2,13(a1)
    8000261c:	00e50603          	lb	a2,14(a0)
    80002620:	00c58723          	sb	a2,14(a1)
    80002624:	00f50503          	lb	a0,15(a0)
    80002628:	00a587a3          	sb	a0,15(a1)
    8000262c:	ffc58293          	addi	t0,a1,-4
    80002630:	4641                	li	a2,16
    80002632:	00002317          	auipc	t1,0x2
    80002636:	cef30313          	addi	t1,t1,-785 # 80004321 <sbox>
    8000263a:	00002817          	auipc	a6,0x2
    8000263e:	de780813          	addi	a6,a6,-537 # 80004421 <Rcon>
    80002642:	0af00893          	li	a7,175
    80002646:	a0b1                	j	80002692 <KeyExpansion+0xe6>
    80002648:	00c58733          	add	a4,a1,a2
    8000264c:	ff070783          	lb	a5,-16(a4)
    80002650:	8ebd                	xor	a3,a3,a5
    80002652:	ff170783          	lb	a5,-15(a4)
    80002656:	00d70023          	sb	a3,0(a4)
    8000265a:	00166693          	ori	a3,a2,1
    8000265e:	8d3d                	xor	a0,a0,a5
    80002660:	96ae                	add	a3,a3,a1
    80002662:	00a68023          	sb	a0,0(a3)
    80002666:	ff270503          	lb	a0,-14(a4)
    8000266a:	00266693          	ori	a3,a2,2
    8000266e:	00aec533          	xor	a0,t4,a0
    80002672:	96ae                	add	a3,a3,a1
    80002674:	00a68023          	sb	a0,0(a3)
    80002678:	ff370503          	lb	a0,-13(a4)
    8000267c:	00366693          	ori	a3,a2,3
    80002680:	00a3c533          	xor	a0,t2,a0
    80002684:	00d58733          	add	a4,a1,a3
    80002688:	00a70023          	sb	a0,0(a4)
    8000268c:	2611                	addiw	a2,a2,4
    8000268e:	0516d563          	bge	a3,a7,800026d8 <KeyExpansion+0x12c>
    80002692:	00c28733          	add	a4,t0,a2
    80002696:	00074683          	lbu	a3,0(a4)
    8000269a:	00174503          	lbu	a0,1(a4)
    8000269e:	00274e83          	lbu	t4,2(a4)
    800026a2:	00374383          	lbu	t2,3(a4)
    800026a6:	00c67713          	andi	a4,a2,12
    800026aa:	ff59                	bnez	a4,80002648 <KeyExpansion+0x9c>
    800026ac:	951a                	add	a0,a0,t1
    800026ae:	00050e03          	lb	t3,0(a0)
    800026b2:	01d30533          	add	a0,t1,t4
    800026b6:	00054503          	lbu	a0,0(a0)
    800026ba:	007307b3          	add	a5,t1,t2
    800026be:	0007ce83          	lbu	t4,0(a5)
    800026c2:	969a                	add	a3,a3,t1
    800026c4:	0046571b          	srliw	a4,a2,0x4
    800026c8:	9742                	add	a4,a4,a6
    800026ca:	00070703          	lb	a4,0(a4)
    800026ce:	0006c383          	lbu	t2,0(a3)
    800026d2:	01c746b3          	xor	a3,a4,t3
    800026d6:	bf8d                	j	80002648 <KeyExpansion+0x9c>
    800026d8:	8082                	ret

00000000800026da <AES_Encrypt>:
    800026da:	bc010113          	addi	sp,sp,-1088
    800026de:	42113c23          	sd	ra,1080(sp)
    800026e2:	42813823          	sd	s0,1072(sp)
    800026e6:	42913423          	sd	s1,1064(sp)
    800026ea:	43213023          	sd	s2,1056(sp)
    800026ee:	41313c23          	sd	s3,1048(sp)
    800026f2:	41413823          	sd	s4,1040(sp)
    800026f6:	41513423          	sd	s5,1032(sp)
    800026fa:	41613023          	sd	s6,1024(sp)
    800026fe:	3f713c23          	sd	s7,1016(sp)
    80002702:	3f813823          	sd	s8,1008(sp)
    80002706:	3f913423          	sd	s9,1000(sp)
    8000270a:	3fa13023          	sd	s10,992(sp)
    8000270e:	3db13c23          	sd	s11,984(sp)
    80002712:	8436                	mv	s0,a3
    80002714:	e832                	sd	a2,16(sp)
    80002716:	8a2a                	mv	s4,a0
    80002718:	00002497          	auipc	s1,0x2
    8000271c:	ee848493          	addi	s1,s1,-280 # 80004600 <expandedKey>
    80002720:	852e                	mv	a0,a1
    80002722:	85a6                	mv	a1,s1
    80002724:	00000097          	auipc	ra,0x0
    80002728:	e88080e7          	jalr	-376(ra) # 800025ac <KeyExpansion>
    8000272c:	82a6                	mv	t0,s1
    8000272e:	00141513          	slli	a0,s0,0x1
    80002732:	9171                	srli	a0,a0,0x3c
    80002734:	9d21                	addw	a0,a0,s0
    80002736:	4045551b          	sraiw	a0,a0,0x4
    8000273a:	45c1                	li	a1,16
    8000273c:	1502                	slli	a0,a0,0x20
    8000273e:	ec2a                	sd	a0,24(sp)
    80002740:	00002617          	auipc	a2,0x2
    80002744:	ea860613          	addi	a2,a2,-344 # 800045e8 <pstate>
    80002748:	f422                	sd	s0,40(sp)
    8000274a:	14b44b63          	blt	s0,a1,800028a0 <AES_Encrypt+0x1c6>
    8000274e:	6562                	ld	a0,24(sp)
    80002750:	9101                	srli	a0,a0,0x20
    80002752:	45bd                	li	a1,15
    80002754:	00ba04b3          	add	s1,s4,a1
    80002758:	ff148683          	lb	a3,-15(s1)
    8000275c:	00028703          	lb	a4,0(t0)
    80002760:	621c                	ld	a5,0(a2)
    80002762:	8eb9                	xor	a3,a3,a4
    80002764:	00b78733          	add	a4,a5,a1
    80002768:	fed708a3          	sb	a3,-15(a4)
    8000276c:	ff248683          	lb	a3,-14(s1)
    80002770:	00128703          	lb	a4,1(t0)
    80002774:	621c                	ld	a5,0(a2)
    80002776:	8eb9                	xor	a3,a3,a4
    80002778:	00b78733          	add	a4,a5,a1
    8000277c:	fed70aa3          	sb	a3,-11(a4)
    80002780:	ff348683          	lb	a3,-13(s1)
    80002784:	00228703          	lb	a4,2(t0)
    80002788:	621c                	ld	a5,0(a2)
    8000278a:	8eb9                	xor	a3,a3,a4
    8000278c:	00b78733          	add	a4,a5,a1
    80002790:	fed70ca3          	sb	a3,-7(a4)
    80002794:	ff448683          	lb	a3,-12(s1)
    80002798:	00328703          	lb	a4,3(t0)
    8000279c:	621c                	ld	a5,0(a2)
    8000279e:	8eb9                	xor	a3,a3,a4
    800027a0:	00b78733          	add	a4,a5,a1
    800027a4:	fed70ea3          	sb	a3,-3(a4)
    800027a8:	ff548683          	lb	a3,-11(s1)
    800027ac:	00428703          	lb	a4,4(t0)
    800027b0:	621c                	ld	a5,0(a2)
    800027b2:	8eb9                	xor	a3,a3,a4
    800027b4:	00b78733          	add	a4,a5,a1
    800027b8:	fed70923          	sb	a3,-14(a4)
    800027bc:	ff648683          	lb	a3,-10(s1)
    800027c0:	00528703          	lb	a4,5(t0)
    800027c4:	621c                	ld	a5,0(a2)
    800027c6:	8eb9                	xor	a3,a3,a4
    800027c8:	00b78733          	add	a4,a5,a1
    800027cc:	fed70b23          	sb	a3,-10(a4)
    800027d0:	ff748683          	lb	a3,-9(s1)
    800027d4:	00628703          	lb	a4,6(t0)
    800027d8:	621c                	ld	a5,0(a2)
    800027da:	8eb9                	xor	a3,a3,a4
    800027dc:	00b78733          	add	a4,a5,a1
    800027e0:	fed70d23          	sb	a3,-6(a4)
    800027e4:	ff848683          	lb	a3,-8(s1)
    800027e8:	00728703          	lb	a4,7(t0)
    800027ec:	621c                	ld	a5,0(a2)
    800027ee:	8eb9                	xor	a3,a3,a4
    800027f0:	00b78733          	add	a4,a5,a1
    800027f4:	fed70f23          	sb	a3,-2(a4)
    800027f8:	ff948683          	lb	a3,-7(s1)
    800027fc:	00828703          	lb	a4,8(t0)
    80002800:	621c                	ld	a5,0(a2)
    80002802:	8eb9                	xor	a3,a3,a4
    80002804:	00b78733          	add	a4,a5,a1
    80002808:	fed709a3          	sb	a3,-13(a4)
    8000280c:	ffa48683          	lb	a3,-6(s1)
    80002810:	00928703          	lb	a4,9(t0)
    80002814:	621c                	ld	a5,0(a2)
    80002816:	8eb9                	xor	a3,a3,a4
    80002818:	00b78733          	add	a4,a5,a1
    8000281c:	fed70ba3          	sb	a3,-9(a4)
    80002820:	ffb48683          	lb	a3,-5(s1)
    80002824:	00a28703          	lb	a4,10(t0)
    80002828:	621c                	ld	a5,0(a2)
    8000282a:	8eb9                	xor	a3,a3,a4
    8000282c:	00b78733          	add	a4,a5,a1
    80002830:	fed70da3          	sb	a3,-5(a4)
    80002834:	ffc48683          	lb	a3,-4(s1)
    80002838:	00b28703          	lb	a4,11(t0)
    8000283c:	621c                	ld	a5,0(a2)
    8000283e:	8eb9                	xor	a3,a3,a4
    80002840:	00b78733          	add	a4,a5,a1
    80002844:	fed70fa3          	sb	a3,-1(a4)
    80002848:	ffd48683          	lb	a3,-3(s1)
    8000284c:	00c28703          	lb	a4,12(t0)
    80002850:	621c                	ld	a5,0(a2)
    80002852:	8eb9                	xor	a3,a3,a4
    80002854:	00b78733          	add	a4,a5,a1
    80002858:	fed70a23          	sb	a3,-12(a4)
    8000285c:	ffe48683          	lb	a3,-2(s1)
    80002860:	00d28703          	lb	a4,13(t0)
    80002864:	621c                	ld	a5,0(a2)
    80002866:	8eb9                	xor	a3,a3,a4
    80002868:	00b78733          	add	a4,a5,a1
    8000286c:	fed70c23          	sb	a3,-8(a4)
    80002870:	fff48683          	lb	a3,-1(s1)
    80002874:	00e28703          	lb	a4,14(t0)
    80002878:	621c                	ld	a5,0(a2)
    8000287a:	8eb9                	xor	a3,a3,a4
    8000287c:	00b78733          	add	a4,a5,a1
    80002880:	fed70e23          	sb	a3,-4(a4)
    80002884:	00048783          	lb	a5,0(s1)
    80002888:	00f28683          	lb	a3,15(t0)
    8000288c:	6218                	ld	a4,0(a2)
    8000288e:	8fb5                	xor	a5,a5,a3
    80002890:	00b706b3          	add	a3,a4,a1
    80002894:	00f68023          	sb	a5,0(a3)
    80002898:	157d                	addi	a0,a0,-1
    8000289a:	05c1                	addi	a1,a1,16
    8000289c:	ea051ce3          	bnez	a0,80002754 <AES_Encrypt+0x7a>
    800028a0:	557d                	li	a0,-1
    800028a2:	9101                	srli	a0,a0,0x20
    800028a4:	e12a                	sd	a0,128(sp)
    800028a6:	6541                	lui	a0,0x10
    800028a8:	f005051b          	addiw	a0,a0,-256 # ff00 <buflen.1+0xfec0>
    800028ac:	fc2a                	sd	a0,56(sp)
    800028ae:	6562                	ld	a0,24(sp)
    800028b0:	9101                	srli	a0,a0,0x20
    800028b2:	f02a                	sd	a0,32(sp)
    800028b4:	4505                	li	a0,1
    800028b6:	f82a                	sd	a0,48(sp)
    800028b8:	00002917          	auipc	s2,0x2
    800028bc:	d3890913          	addi	s2,s2,-712 # 800045f0 <pullstate>
    800028c0:	e54a                	sd	s2,136(sp)
    800028c2:	e4b2                	sd	a2,72(sp)
    800028c4:	e096                	sd	t0,64(sp)
    800028c6:	a039                	j	800028d4 <AES_Encrypt+0x1fa>
    800028c8:	7542                	ld	a0,48(sp)
    800028ca:	0505                	addi	a0,a0,1
    800028cc:	f82a                	sd	a0,48(sp)
    800028ce:	45a9                	li	a1,10
    800028d0:	2eb503e3          	beq	a0,a1,800033b6 <AES_Encrypt+0xcdc>
    800028d4:	7522                	ld	a0,40(sp)
    800028d6:	45c1                	li	a1,16
    800028d8:	feb548e3          	blt	a0,a1,800028c8 <AES_Encrypt+0x1ee>
    800028dc:	4401                	li	s0,0
    800028de:	00093503          	ld	a0,0(s2)
    800028e2:	7482                	ld	s1,32(sp)
    800028e4:	9522                	add	a0,a0,s0
    800028e6:	610c                	ld	a1,0(a0)
    800028e8:	6508                	ld	a0,8(a0)
    800028ea:	3cb13423          	sd	a1,968(sp)
    800028ee:	3ca13823          	sd	a0,976(sp)
    800028f2:	07a8                	addi	a0,sp,968
    800028f4:	112c                	addi	a1,sp,168
    800028f6:	fffff097          	auipc	ra,0xfffff
    800028fa:	71e080e7          	jalr	1822(ra) # 80002014 <Impl_SBOX>
    800028fe:	00093503          	ld	a0,0(s2)
    80002902:	75aa                	ld	a1,168(sp)
    80002904:	00850633          	add	a2,a0,s0
    80002908:	e20c                	sd	a1,0(a2)
    8000290a:	75ca                	ld	a1,176(sp)
    8000290c:	e60c                	sd	a1,8(a2)
    8000290e:	14fd                	addi	s1,s1,-1
    80002910:	0441                	addi	s0,s0,16
    80002912:	f8e9                	bnez	s1,800028e4 <AES_Encrypt+0x20a>
    80002914:	7522                	ld	a0,40(sp)
    80002916:	45c1                	li	a1,16
    80002918:	fab548e3          	blt	a0,a1,800028c8 <AES_Encrypt+0x1ee>
    8000291c:	00093503          	ld	a0,0(s2)
    80002920:	00850813          	addi	a6,a0,8
    80002924:	7602                	ld	a2,32(sp)
    80002926:	aa29                	j	80002a40 <AES_Encrypt+0x366>
    80002928:	00a3c4b3          	xor	s1,t2,a0
    8000292c:	00a9c533          	xor	a0,s3,a0
    80002930:	00af4533          	xor	a0,t5,a0
    80002934:	01e4c7b3          	xor	a5,s1,t5
    80002938:	0134c4b3          	xor	s1,s1,s3
    8000293c:	0079c433          	xor	s0,s3,t2
    80002940:	760a                	ld	a2,160(sp)
    80002942:	8cb1                	xor	s1,s1,a2
    80002944:	8c31                	xor	s0,s0,a2
    80002946:	664a                	ld	a2,144(sp)
    80002948:	8fb1                	xor	a5,a5,a2
    8000294a:	8c31                	xor	s0,s0,a2
    8000294c:	01944f33          	xor	t5,s0,s9
    80002950:	0197c7b3          	xor	a5,a5,s9
    80002954:	01954533          	xor	a0,a0,s9
    80002958:	01c543b3          	xor	t2,a0,t3
    8000295c:	01c4ce33          	xor	t3,s1,t3
    80002960:	00bb4533          	xor	a0,s6,a1
    80002964:	00bd45b3          	xor	a1,s10,a1
    80002968:	00bc45b3          	xor	a1,s8,a1
    8000296c:	018544b3          	xor	s1,a0,s8
    80002970:	01a54533          	xor	a0,a0,s10
    80002974:	016d4433          	xor	s0,s10,s6
    80002978:	01d54533          	xor	a0,a0,t4
    8000297c:	01d44433          	xor	s0,s0,t4
    80002980:	01f4c4b3          	xor	s1,s1,t6
    80002984:	01f44433          	xor	s0,s0,t6
    80002988:	00544433          	xor	s0,s0,t0
    8000298c:	0ff47413          	zext.b	s0,s0
    80002990:	0054c4b3          	xor	s1,s1,t0
    80002994:	0ff4f493          	zext.b	s1,s1
    80002998:	04a2                	slli	s1,s1,0x8
    8000299a:	8cc1                	or	s1,s1,s0
    8000299c:	0055c5b3          	xor	a1,a1,t0
    800029a0:	0145c5b3          	xor	a1,a1,s4
    800029a4:	0ff5f593          	zext.b	a1,a1
    800029a8:	05c2                	slli	a1,a1,0x10
    800029aa:	8dc5                	or	a1,a1,s1
    800029ac:	01454533          	xor	a0,a0,s4
    800029b0:	0ff57513          	zext.b	a0,a0
    800029b4:	0562                	slli	a0,a0,0x18
    800029b6:	8d4d                	or	a0,a0,a1
    800029b8:	015dc5b3          	xor	a1,s11,s5
    800029bc:	015744b3          	xor	s1,a4,s5
    800029c0:	0098c4b3          	xor	s1,a7,s1
    800029c4:	0115c433          	xor	s0,a1,a7
    800029c8:	8db9                	xor	a1,a1,a4
    800029ca:	01b74733          	xor	a4,a4,s11
    800029ce:	0125c5b3          	xor	a1,a1,s2
    800029d2:	01274733          	xor	a4,a4,s2
    800029d6:	01744433          	xor	s0,s0,s7
    800029da:	01774733          	xor	a4,a4,s7
    800029de:	8f35                	xor	a4,a4,a3
    800029e0:	8c35                	xor	s0,s0,a3
    800029e2:	8ea5                	xor	a3,a3,s1
    800029e4:	0016c6b3          	xor	a3,a3,ra
    800029e8:	0015c5b3          	xor	a1,a1,ra
    800029ec:	0fff7493          	zext.b	s1,t5
    800029f0:	0ff7f793          	zext.b	a5,a5
    800029f4:	17a2                	slli	a5,a5,0x28
    800029f6:	1482                	slli	s1,s1,0x20
    800029f8:	8fc5                	or	a5,a5,s1
    800029fa:	0ff3f493          	zext.b	s1,t2
    800029fe:	14c2                	slli	s1,s1,0x30
    80002a00:	8fc5                	or	a5,a5,s1
    80002a02:	038e1493          	slli	s1,t3,0x38
    80002a06:	8fc5                	or	a5,a5,s1
    80002a08:	648a                	ld	s1,128(sp)
    80002a0a:	00937633          	and	a2,t1,s1
    80002a0e:	8e5d                	or	a2,a2,a5
    80002a10:	0ff77713          	zext.b	a4,a4
    80002a14:	0ff47793          	zext.b	a5,s0
    80002a18:	17a2                	slli	a5,a5,0x28
    80002a1a:	1702                	slli	a4,a4,0x20
    80002a1c:	8f5d                	or	a4,a4,a5
    80002a1e:	0ff6f693          	zext.b	a3,a3
    80002a22:	16c2                	slli	a3,a3,0x30
    80002a24:	8ed9                	or	a3,a3,a4
    80002a26:	15e2                	slli	a1,a1,0x38
    80002a28:	8dd5                	or	a1,a1,a3
    80002a2a:	8d4d                	or	a0,a0,a1
    80002a2c:	fec83c23          	sd	a2,-8(a6)
    80002a30:	00a83023          	sd	a0,0(a6)
    80002a34:	666a                	ld	a2,152(sp)
    80002a36:	167d                	addi	a2,a2,-1
    80002a38:	0841                	addi	a6,a6,16
    80002a3a:	692a                	ld	s2,136(sp)
    80002a3c:	10060563          	beqz	a2,80002b46 <AES_Encrypt+0x46c>
    80002a40:	ff883303          	ld	t1,-8(a6)
    80002a44:	02035513          	srli	a0,t1,0x20
    80002a48:	01831593          	slli	a1,t1,0x18
    80002a4c:	95e1                	srai	a1,a1,0x38
    80002a4e:	00151693          	slli	a3,a0,0x1
    80002a52:	0005d463          	bgez	a1,80002a5a <AES_Encrypt+0x380>
    80002a56:	01b6c693          	xori	a3,a3,27
    80002a5a:	02835993          	srli	s3,t1,0x28
    80002a5e:	01031593          	slli	a1,t1,0x10
    80002a62:	95e1                	srai	a1,a1,0x38
    80002a64:	00199713          	slli	a4,s3,0x1
    80002a68:	0005d463          	bgez	a1,80002a70 <AES_Encrypt+0x396>
    80002a6c:	01b74713          	xori	a4,a4,27
    80002a70:	03035393          	srli	t2,t1,0x30
    80002a74:	00831593          	slli	a1,t1,0x8
    80002a78:	95e1                	srai	a1,a1,0x38
    80002a7a:	00139f13          	slli	t5,t2,0x1
    80002a7e:	0005d463          	bgez	a1,80002a86 <AES_Encrypt+0x3ac>
    80002a82:	01bf4f13          	xori	t5,t5,27
    80002a86:	03835c93          	srli	s9,t1,0x38
    80002a8a:	001c9e13          	slli	t3,s9,0x1
    80002a8e:	f136                	sd	a3,160(sp)
    80002a90:	00035463          	bgez	t1,80002a98 <AES_Encrypt+0x3be>
    80002a94:	01be4e13          	xori	t3,t3,27
    80002a98:	00083583          	ld	a1,0(a6)
    80002a9c:	03859693          	slli	a3,a1,0x38
    80002aa0:	96e1                	srai	a3,a3,0x38
    80002aa2:	00159e93          	slli	t4,a1,0x1
    80002aa6:	0006d463          	bgez	a3,80002aae <AES_Encrypt+0x3d4>
    80002aaa:	01bece93          	xori	t4,t4,27
    80002aae:	0085dd1b          	srliw	s10,a1,0x8
    80002ab2:	03059693          	slli	a3,a1,0x30
    80002ab6:	96e1                	srai	a3,a3,0x38
    80002ab8:	001d1f93          	slli	t6,s10,0x1
    80002abc:	0006d463          	bgez	a3,80002ac4 <AES_Encrypt+0x3ea>
    80002ac0:	01bfcf93          	xori	t6,t6,27
    80002ac4:	0105db13          	srli	s6,a1,0x10
    80002ac8:	02859693          	slli	a3,a1,0x28
    80002acc:	96e1                	srai	a3,a3,0x38
    80002ace:	001b1c13          	slli	s8,s6,0x1
    80002ad2:	0006d463          	bgez	a3,80002ada <AES_Encrypt+0x400>
    80002ad6:	01bc4c13          	xori	s8,s8,27
    80002ada:	0005869b          	sext.w	a3,a1
    80002ade:	0185d293          	srli	t0,a1,0x18
    80002ae2:	00129a13          	slli	s4,t0,0x1
    80002ae6:	0006d463          	bgez	a3,80002aee <AES_Encrypt+0x414>
    80002aea:	01ba4a13          	xori	s4,s4,27
    80002aee:	0205da93          	srli	s5,a1,0x20
    80002af2:	01859693          	slli	a3,a1,0x18
    80002af6:	96e1                	srai	a3,a3,0x38
    80002af8:	001a9913          	slli	s2,s5,0x1
    80002afc:	e93a                	sd	a4,144(sp)
    80002afe:	0006d463          	bgez	a3,80002b06 <AES_Encrypt+0x42c>
    80002b02:	01b94913          	xori	s2,s2,27
    80002b06:	0285d713          	srli	a4,a1,0x28
    80002b0a:	01059693          	slli	a3,a1,0x10
    80002b0e:	96e1                	srai	a3,a3,0x38
    80002b10:	00171b93          	slli	s7,a4,0x1
    80002b14:	0006d463          	bgez	a3,80002b1c <AES_Encrypt+0x442>
    80002b18:	01bbcb93          	xori	s7,s7,27
    80002b1c:	0305dd93          	srli	s11,a1,0x30
    80002b20:	00859693          	slli	a3,a1,0x8
    80002b24:	96e1                	srai	a3,a3,0x38
    80002b26:	001d9893          	slli	a7,s11,0x1
    80002b2a:	0006d463          	bgez	a3,80002b32 <AES_Encrypt+0x458>
    80002b2e:	01b8c893          	xori	a7,a7,27
    80002b32:	0385d693          	srli	a3,a1,0x38
    80002b36:	00169093          	slli	ra,a3,0x1
    80002b3a:	ed32                	sd	a2,152(sp)
    80002b3c:	de05d6e3          	bgez	a1,80002928 <AES_Encrypt+0x24e>
    80002b40:	01b0c093          	xori	ra,ra,27
    80002b44:	b3d5                	j	80002928 <AES_Encrypt+0x24e>
    80002b46:	7522                	ld	a0,40(sp)
    80002b48:	45c1                	li	a1,16
    80002b4a:	d6b54fe3          	blt	a0,a1,800028c8 <AES_Encrypt+0x1ee>
    80002b4e:	00093503          	ld	a0,0(s2)
    80002b52:	00850f13          	addi	t5,a0,8
    80002b56:	7502                	ld	a0,32(sp)
    80002b58:	a2bd                	j	80002cc6 <AES_Encrypt+0x5ec>
    80002b5a:	6446                	ld	s0,80(sp)
    80002b5c:	00d7c533          	xor	a0,a5,a3
    80002b60:	74c6                	ld	s1,112(sp)
    80002b62:	8ea5                	xor	a3,a3,s1
    80002b64:	8eb9                	xor	a3,a3,a4
    80002b66:	8f29                	xor	a4,a4,a0
    80002b68:	8d21                	xor	a0,a0,s0
    80002b6a:	8fa1                	xor	a5,a5,s0
    80002b6c:	8d25                	xor	a0,a0,s1
    80002b6e:	8fa5                	xor	a5,a5,s1
    80002b70:	64ea                	ld	s1,152(sp)
    80002b72:	8f25                	xor	a4,a4,s1
    80002b74:	8fa5                	xor	a5,a5,s1
    80002b76:	01f7c4b3          	xor	s1,a5,t6
    80002b7a:	01f74733          	xor	a4,a4,t6
    80002b7e:	f8ba                	sd	a4,112(sp)
    80002b80:	01f6c6b3          	xor	a3,a3,t6
    80002b84:	77a6                	ld	a5,104(sp)
    80002b86:	00f6c733          	xor	a4,a3,a5
    80002b8a:	8d3d                	xor	a0,a0,a5
    80002b8c:	ed2a                	sd	a0,152(sp)
    80002b8e:	654a                	ld	a0,144(sp)
    80002b90:	01554533          	xor	a0,a0,s5
    80002b94:	01d54533          	xor	a0,a0,t4
    80002b98:	00cec433          	xor	s0,t4,a2
    80002b9c:	008c4433          	xor	s0,s8,s0
    80002ba0:	00cac6b3          	xor	a3,s5,a2
    80002ba4:	0186c6b3          	xor	a3,a3,s8
    80002ba8:	8e29                	xor	a2,a2,a0
    80002baa:	77e6                	ld	a5,120(sp)
    80002bac:	8ebd                	xor	a3,a3,a5
    80002bae:	8d3d                	xor	a0,a0,a5
    80002bb0:	01354c33          	xor	s8,a0,s3
    80002bb4:	0136cab3          	xor	s5,a3,s3
    80002bb8:	01344433          	xor	s0,s0,s3
    80002bbc:	6566                	ld	a0,88(sp)
    80002bbe:	8c29                	xor	s0,s0,a0
    80002bc0:	00a64fb3          	xor	t6,a2,a0
    80002bc4:	00bd4633          	xor	a2,s10,a1
    80002bc8:	00bdc5b3          	xor	a1,s11,a1
    80002bcc:	00b345b3          	xor	a1,t1,a1
    80002bd0:	006646b3          	xor	a3,a2,t1
    80002bd4:	7506                	ld	a0,96(sp)
    80002bd6:	8e29                	xor	a2,a2,a0
    80002bd8:	01a54533          	xor	a0,a0,s10
    80002bdc:	01b64633          	xor	a2,a2,s11
    80002be0:	01b54533          	xor	a0,a0,s11
    80002be4:	0126c6b3          	xor	a3,a3,s2
    80002be8:	01254533          	xor	a0,a0,s2
    80002bec:	01754533          	xor	a0,a0,s7
    80002bf0:	0176c933          	xor	s2,a3,s7
    80002bf4:	0175c5b3          	xor	a1,a1,s7
    80002bf8:	0165c5b3          	xor	a1,a1,s6
    80002bfc:	01664333          	xor	t1,a2,s6
    80002c00:	0ff4f493          	zext.b	s1,s1
    80002c04:	0ffc7793          	zext.b	a5,s8
    80002c08:	07a2                	slli	a5,a5,0x8
    80002c0a:	8fc5                	or	a5,a5,s1
    80002c0c:	0ff77713          	zext.b	a4,a4
    80002c10:	0ff47493          	zext.b	s1,s0
    80002c14:	04a2                	slli	s1,s1,0x8
    80002c16:	8f45                	or	a4,a4,s1
    80002c18:	0140c4b3          	xor	s1,ra,s4
    80002c1c:	01484433          	xor	s0,a6,s4
    80002c20:	008e4433          	xor	s0,t3,s0
    80002c24:	01c4c633          	xor	a2,s1,t3
    80002c28:	0194c4b3          	xor	s1,s1,s9
    80002c2c:	001cc6b3          	xor	a3,s9,ra
    80002c30:	0104c4b3          	xor	s1,s1,a6
    80002c34:	0106c6b3          	xor	a3,a3,a6
    80002c38:	01164633          	xor	a2,a2,a7
    80002c3c:	0116c6b3          	xor	a3,a3,a7
    80002c40:	0076c6b3          	xor	a3,a3,t2
    80002c44:	00764633          	xor	a2,a2,t2
    80002c48:	00744433          	xor	s0,s0,t2
    80002c4c:	00544433          	xor	s0,s0,t0
    80002c50:	0054c4b3          	xor	s1,s1,t0
    80002c54:	0ff57513          	zext.b	a0,a0
    80002c58:	0542                	slli	a0,a0,0x10
    80002c5a:	8d5d                	or	a0,a0,a5
    80002c5c:	0ff5f593          	zext.b	a1,a1
    80002c60:	05c2                	slli	a1,a1,0x10
    80002c62:	8dd9                	or	a1,a1,a4
    80002c64:	0ff6f693          	zext.b	a3,a3
    80002c68:	06e2                	slli	a3,a3,0x18
    80002c6a:	8d55                	or	a0,a0,a3
    80002c6c:	0ff47693          	zext.b	a3,s0
    80002c70:	06e2                	slli	a3,a3,0x18
    80002c72:	8dd5                	or	a1,a1,a3
    80002c74:	07014683          	lbu	a3,112(sp)
    80002c78:	0ffaf713          	zext.b	a4,s5
    80002c7c:	1722                	slli	a4,a4,0x28
    80002c7e:	1682                	slli	a3,a3,0x20
    80002c80:	8ed9                	or	a3,a3,a4
    80002c82:	0ff97713          	zext.b	a4,s2
    80002c86:	1742                	slli	a4,a4,0x30
    80002c88:	8ed9                	or	a3,a3,a4
    80002c8a:	1662                	slli	a2,a2,0x38
    80002c8c:	8e55                	or	a2,a2,a3
    80002c8e:	8d51                	or	a0,a0,a2
    80002c90:	09814603          	lbu	a2,152(sp)
    80002c94:	0ffff693          	zext.b	a3,t6
    80002c98:	16a2                	slli	a3,a3,0x28
    80002c9a:	1602                	slli	a2,a2,0x20
    80002c9c:	8e55                	or	a2,a2,a3
    80002c9e:	0ff37693          	zext.b	a3,t1
    80002ca2:	16c2                	slli	a3,a3,0x30
    80002ca4:	8e55                	or	a2,a2,a3
    80002ca6:	03849693          	slli	a3,s1,0x38
    80002caa:	8e55                	or	a2,a2,a3
    80002cac:	8dd1                	or	a1,a1,a2
    80002cae:	feaf3c23          	sd	a0,-8(t5)
    80002cb2:	00bf3023          	sd	a1,0(t5)
    80002cb6:	750a                	ld	a0,160(sp)
    80002cb8:	157d                	addi	a0,a0,-1
    80002cba:	0f41                	addi	t5,t5,16
    80002cbc:	6626                	ld	a2,72(sp)
    80002cbe:	6286                	ld	t0,64(sp)
    80002cc0:	692a                	ld	s2,136(sp)
    80002cc2:	1e050263          	beqz	a0,80002ea6 <AES_Encrypt+0x7cc>
    80002cc6:	ff8f3683          	ld	a3,-8(t5)
    80002cca:	03869593          	slli	a1,a3,0x38
    80002cce:	95e1                	srai	a1,a1,0x38
    80002cd0:	00169613          	slli	a2,a3,0x1
    80002cd4:	f12a                	sd	a0,160(sp)
    80002cd6:	0005d463          	bgez	a1,80002cde <AES_Encrypt+0x604>
    80002cda:	01b64613          	xori	a2,a2,27
    80002cde:	e8b2                	sd	a2,80(sp)
    80002ce0:	7862                	ld	a6,56(sp)
    80002ce2:	00ff08b7          	lui	a7,0xff0
    80002ce6:	ff0002b7          	lui	t0,0xff000
    80002cea:	000f3783          	ld	a5,0(t5)
    80002cee:	0206de13          	srli	t3,a3,0x20
    80002cf2:	0207df93          	srli	t6,a5,0x20
    80002cf6:	0ff6f613          	zext.b	a2,a3
    80002cfa:	008e1493          	slli	s1,t3,0x8
    80002cfe:	0104f433          	and	s0,s1,a6
    80002d02:	03879493          	slli	s1,a5,0x38
    80002d06:	0284d513          	srli	a0,s1,0x28
    80002d0a:	018f971b          	slliw	a4,t6,0x18
    80002d0e:	8e41                	or	a2,a2,s0
    80002d10:	8d51                	or	a0,a0,a2
    80002d12:	00e56633          	or	a2,a0,a4
    80002d16:	0086559b          	srliw	a1,a2,0x8
    80002d1a:	03041513          	slli	a0,s0,0x30
    80002d1e:	9561                	srai	a0,a0,0x38
    80002d20:	00159713          	slli	a4,a1,0x1
    80002d24:	00055463          	bgez	a0,80002d2c <AES_Encrypt+0x652>
    80002d28:	01b74713          	xori	a4,a4,27
    80002d2c:	4384d513          	srai	a0,s1,0x38
    80002d30:	00179393          	slli	t2,a5,0x1
    80002d34:	00055463          	bgez	a0,80002d3c <AES_Encrypt+0x662>
    80002d38:	01b3c393          	xori	t2,t2,27
    80002d3c:	001f9513          	slli	a0,t6,0x1
    80002d40:	f8ae                	sd	a1,112(sp)
    80002d42:	00065463          	bgez	a2,80002d4a <AES_Encrypt+0x670>
    80002d46:	01b54513          	xori	a0,a0,27
    80002d4a:	f4aa                	sd	a0,104(sp)
    80002d4c:	0086d61b          	srliw	a2,a3,0x8
    80002d50:	03069513          	slli	a0,a3,0x30
    80002d54:	9561                	srai	a0,a0,0x38
    80002d56:	00161313          	slli	t1,a2,0x1
    80002d5a:	ed3a                	sd	a4,152(sp)
    80002d5c:	00055463          	bgez	a0,80002d64 <AES_Encrypt+0x68a>
    80002d60:	01b34313          	xori	t1,t1,27
    80002d64:	0ff67513          	zext.b	a0,a2
    80002d68:	010e7733          	and	a4,t3,a6
    80002d6c:	8d59                	or	a0,a0,a4
    80002d6e:	00879593          	slli	a1,a5,0x8
    80002d72:	0115f5b3          	and	a1,a1,a7
    80002d76:	8d4d                	or	a0,a0,a1
    80002d78:	0107d593          	srli	a1,a5,0x10
    80002d7c:	2581                	sext.w	a1,a1
    80002d7e:	0055f5b3          	and	a1,a1,t0
    80002d82:	8dc9                	or	a1,a1,a0
    80002d84:	0085de9b          	srliw	t4,a1,0x8
    80002d88:	1742                	slli	a4,a4,0x30
    80002d8a:	9761                	srai	a4,a4,0x38
    80002d8c:	001e9513          	slli	a0,t4,0x1
    80002d90:	00075463          	bgez	a4,80002d98 <AES_Encrypt+0x6be>
    80002d94:	01b54513          	xori	a0,a0,27
    80002d98:	03079713          	slli	a4,a5,0x30
    80002d9c:	9761                	srai	a4,a4,0x38
    80002d9e:	0087da9b          	srliw	s5,a5,0x8
    80002da2:	001a9c13          	slli	s8,s5,0x1
    80002da6:	00075463          	bgez	a4,80002dae <AES_Encrypt+0x6d4>
    80002daa:	01bc4c13          	xori	s8,s8,27
    80002dae:	0287d993          	srli	s3,a5,0x28
    80002db2:	00199713          	slli	a4,s3,0x1
    80002db6:	0005d463          	bgez	a1,80002dbe <AES_Encrypt+0x6e4>
    80002dba:	01b74713          	xori	a4,a4,27
    80002dbe:	ecba                	sd	a4,88(sp)
    80002dc0:	0106d59b          	srliw	a1,a3,0x10
    80002dc4:	02869713          	slli	a4,a3,0x28
    80002dc8:	43875493          	srai	s1,a4,0x38
    80002dcc:	00159713          	slli	a4,a1,0x1
    80002dd0:	fcaa                	sd	a0,120(sp)
    80002dd2:	0004d463          	bgez	s1,80002dda <AES_Encrypt+0x700>
    80002dd6:	01b74713          	xori	a4,a4,27
    80002dda:	f0ba                	sd	a4,96(sp)
    80002ddc:	0ff5f413          	zext.b	s0,a1
    80002de0:	0286d493          	srli	s1,a3,0x28
    80002de4:	0104f533          	and	a0,s1,a6
    80002de8:	0117f733          	and	a4,a5,a7
    80002dec:	0187d093          	srli	ra,a5,0x18
    80002df0:	0000849b          	sext.w	s1,ra
    80002df4:	0054f4b3          	and	s1,s1,t0
    80002df8:	8f41                	or	a4,a4,s0
    80002dfa:	8f49                	or	a4,a4,a0
    80002dfc:	00976433          	or	s0,a4,s1
    80002e00:	00845d9b          	srliw	s11,s0,0x8
    80002e04:	1542                	slli	a0,a0,0x30
    80002e06:	9561                	srai	a0,a0,0x38
    80002e08:	001d9913          	slli	s2,s11,0x1
    80002e0c:	e91a                	sd	t1,144(sp)
    80002e0e:	00055463          	bgez	a0,80002e16 <AES_Encrypt+0x73c>
    80002e12:	01b94913          	xori	s2,s2,27
    80002e16:	0107dd1b          	srliw	s10,a5,0x10
    80002e1a:	02879513          	slli	a0,a5,0x28
    80002e1e:	9561                	srai	a0,a0,0x38
    80002e20:	001d1313          	slli	t1,s10,0x1
    80002e24:	00055463          	bgez	a0,80002e2c <AES_Encrypt+0x752>
    80002e28:	01b34313          	xori	t1,t1,27
    80002e2c:	0307db93          	srli	s7,a5,0x30
    80002e30:	001b9b13          	slli	s6,s7,0x1
    80002e34:	00045463          	bgez	s0,80002e3c <AES_Encrypt+0x762>
    80002e38:	01bb4b13          	xori	s6,s6,27
    80002e3c:	0006851b          	sext.w	a0,a3
    80002e40:	0186da1b          	srliw	s4,a3,0x18
    80002e44:	001a1c93          	slli	s9,s4,0x1
    80002e48:	00055463          	bgez	a0,80002e50 <AES_Encrypt+0x776>
    80002e4c:	01bccc93          	xori	s9,s9,27
    80002e50:	0306d513          	srli	a0,a3,0x30
    80002e54:	01057533          	and	a0,a0,a6
    80002e58:	01456733          	or	a4,a0,s4
    80002e5c:	011af4b3          	and	s1,s5,a7
    80002e60:	8f45                	or	a4,a4,s1
    80002e62:	005ff4b3          	and	s1,t6,t0
    80002e66:	00976433          	or	s0,a4,s1
    80002e6a:	00845813          	srli	a6,s0,0x8
    80002e6e:	1542                	slli	a0,a0,0x30
    80002e70:	9561                	srai	a0,a0,0x38
    80002e72:	00181893          	slli	a7,a6,0x1
    80002e76:	00055463          	bgez	a0,80002e7e <AES_Encrypt+0x7a4>
    80002e7a:	01b8c893          	xori	a7,a7,27
    80002e7e:	871e                	mv	a4,t2
    80002e80:	4187d51b          	sraiw	a0,a5,0x18
    80002e84:	00109e13          	slli	t3,ra,0x1
    80002e88:	00055463          	bgez	a0,80002e90 <AES_Encrypt+0x7b6>
    80002e8c:	01be4e13          	xori	t3,t3,27
    80002e90:	0004051b          	sext.w	a0,s0
    80002e94:	0387d393          	srli	t2,a5,0x38
    80002e98:	00139293          	slli	t0,t2,0x1
    80002e9c:	ca055fe3          	bgez	a0,80002b5a <AES_Encrypt+0x480>
    80002ea0:	01b2c293          	xori	t0,t0,27
    80002ea4:	b95d                	j	80002b5a <AES_Encrypt+0x480>
    80002ea6:	7522                	ld	a0,40(sp)
    80002ea8:	45c1                	li	a1,16
    80002eaa:	a0b54fe3          	blt	a0,a1,800028c8 <AES_Encrypt+0x1ee>
    80002eae:	7542                	ld	a0,48(sp)
    80002eb0:	0512                	slli	a0,a0,0x4
    80002eb2:	9516                	add	a0,a0,t0
    80002eb4:	00150813          	addi	a6,a0,1
    80002eb8:	00250893          	addi	a7,a0,2
    80002ebc:	00350693          	addi	a3,a0,3
    80002ec0:	473d                	li	a4,15
    80002ec2:	7782                	ld	a5,32(sp)
    80002ec4:	6204                	ld	s1,0(a2)
    80002ec6:	00050403          	lb	s0,0(a0)
    80002eca:	94ba                	add	s1,s1,a4
    80002ecc:	ff148583          	lb	a1,-15(s1)
    80002ed0:	8da1                	xor	a1,a1,s0
    80002ed2:	feb488a3          	sb	a1,-15(s1)
    80002ed6:	620c                	ld	a1,0(a2)
    80002ed8:	00080483          	lb	s1,0(a6)
    80002edc:	95ba                	add	a1,a1,a4
    80002ede:	ff258403          	lb	s0,-14(a1)
    80002ee2:	8ca1                	xor	s1,s1,s0
    80002ee4:	fe958923          	sb	s1,-14(a1)
    80002ee8:	620c                	ld	a1,0(a2)
    80002eea:	00088483          	lb	s1,0(a7) # ff0000 <buflen.1+0xfeffc0>
    80002eee:	95ba                	add	a1,a1,a4
    80002ef0:	ff358403          	lb	s0,-13(a1)
    80002ef4:	8ca1                	xor	s1,s1,s0
    80002ef6:	fe9589a3          	sb	s1,-13(a1)
    80002efa:	620c                	ld	a1,0(a2)
    80002efc:	00068483          	lb	s1,0(a3)
    80002f00:	95ba                	add	a1,a1,a4
    80002f02:	ff458403          	lb	s0,-12(a1)
    80002f06:	8ca1                	xor	s1,s1,s0
    80002f08:	fe958a23          	sb	s1,-12(a1)
    80002f0c:	620c                	ld	a1,0(a2)
    80002f0e:	00450483          	lb	s1,4(a0)
    80002f12:	95ba                	add	a1,a1,a4
    80002f14:	ff558403          	lb	s0,-11(a1)
    80002f18:	8ca1                	xor	s1,s1,s0
    80002f1a:	fe958aa3          	sb	s1,-11(a1)
    80002f1e:	620c                	ld	a1,0(a2)
    80002f20:	00550483          	lb	s1,5(a0)
    80002f24:	95ba                	add	a1,a1,a4
    80002f26:	ff658403          	lb	s0,-10(a1)
    80002f2a:	8ca1                	xor	s1,s1,s0
    80002f2c:	fe958b23          	sb	s1,-10(a1)
    80002f30:	620c                	ld	a1,0(a2)
    80002f32:	00650483          	lb	s1,6(a0)
    80002f36:	95ba                	add	a1,a1,a4
    80002f38:	ff758403          	lb	s0,-9(a1)
    80002f3c:	8ca1                	xor	s1,s1,s0
    80002f3e:	fe958ba3          	sb	s1,-9(a1)
    80002f42:	620c                	ld	a1,0(a2)
    80002f44:	00750483          	lb	s1,7(a0)
    80002f48:	95ba                	add	a1,a1,a4
    80002f4a:	ff858403          	lb	s0,-8(a1)
    80002f4e:	8ca1                	xor	s1,s1,s0
    80002f50:	fe958c23          	sb	s1,-8(a1)
    80002f54:	620c                	ld	a1,0(a2)
    80002f56:	00850483          	lb	s1,8(a0)
    80002f5a:	95ba                	add	a1,a1,a4
    80002f5c:	ff958403          	lb	s0,-7(a1)
    80002f60:	8ca1                	xor	s1,s1,s0
    80002f62:	fe958ca3          	sb	s1,-7(a1)
    80002f66:	620c                	ld	a1,0(a2)
    80002f68:	00950483          	lb	s1,9(a0)
    80002f6c:	95ba                	add	a1,a1,a4
    80002f6e:	ffa58403          	lb	s0,-6(a1)
    80002f72:	8ca1                	xor	s1,s1,s0
    80002f74:	fe958d23          	sb	s1,-6(a1)
    80002f78:	620c                	ld	a1,0(a2)
    80002f7a:	00a50483          	lb	s1,10(a0)
    80002f7e:	95ba                	add	a1,a1,a4
    80002f80:	ffb58403          	lb	s0,-5(a1)
    80002f84:	8ca1                	xor	s1,s1,s0
    80002f86:	fe958da3          	sb	s1,-5(a1)
    80002f8a:	620c                	ld	a1,0(a2)
    80002f8c:	00b50483          	lb	s1,11(a0)
    80002f90:	95ba                	add	a1,a1,a4
    80002f92:	ffc58403          	lb	s0,-4(a1)
    80002f96:	8ca1                	xor	s1,s1,s0
    80002f98:	fe958e23          	sb	s1,-4(a1)
    80002f9c:	620c                	ld	a1,0(a2)
    80002f9e:	00c50483          	lb	s1,12(a0)
    80002fa2:	95ba                	add	a1,a1,a4
    80002fa4:	ffd58403          	lb	s0,-3(a1)
    80002fa8:	8ca1                	xor	s1,s1,s0
    80002faa:	fe958ea3          	sb	s1,-3(a1)
    80002fae:	620c                	ld	a1,0(a2)
    80002fb0:	00d50483          	lb	s1,13(a0)
    80002fb4:	95ba                	add	a1,a1,a4
    80002fb6:	ffe58403          	lb	s0,-2(a1)
    80002fba:	8ca1                	xor	s1,s1,s0
    80002fbc:	fe958f23          	sb	s1,-2(a1)
    80002fc0:	620c                	ld	a1,0(a2)
    80002fc2:	00e50483          	lb	s1,14(a0)
    80002fc6:	95ba                	add	a1,a1,a4
    80002fc8:	fff58403          	lb	s0,-1(a1)
    80002fcc:	8ca1                	xor	s1,s1,s0
    80002fce:	fe958fa3          	sb	s1,-1(a1)
    80002fd2:	620c                	ld	a1,0(a2)
    80002fd4:	00f50483          	lb	s1,15(a0)
    80002fd8:	95ba                	add	a1,a1,a4
    80002fda:	00058403          	lb	s0,0(a1)
    80002fde:	8ca1                	xor	s1,s1,s0
    80002fe0:	00958023          	sb	s1,0(a1)
    80002fe4:	17fd                	addi	a5,a5,-1
    80002fe6:	0741                	addi	a4,a4,16
    80002fe8:	ec079ee3          	bnez	a5,80002ec4 <AES_Encrypt+0x7ea>
    80002fec:	7542                	ld	a0,48(sp)
    80002fee:	0505                	addi	a0,a0,1
    80002ff0:	f82a                	sd	a0,48(sp)
    80002ff2:	45a9                	li	a1,10
    80002ff4:	8eb510e3          	bne	a0,a1,800028d4 <AES_Encrypt+0x1fa>
    80002ff8:	4541                	li	a0,16
    80002ffa:	75a2                	ld	a1,40(sp)
    80002ffc:	3aa5cd63          	blt	a1,a0,800033b6 <AES_Encrypt+0xcdc>
    80003000:	453d                	li	a0,15
    80003002:	00001597          	auipc	a1,0x1
    80003006:	31f58593          	addi	a1,a1,799 # 80004321 <sbox>
    8000300a:	7782                	ld	a5,32(sp)
    8000300c:	6214                	ld	a3,0(a2)
    8000300e:	96aa                	add	a3,a3,a0
    80003010:	ff16c703          	lbu	a4,-15(a3)
    80003014:	972e                	add	a4,a4,a1
    80003016:	00070703          	lb	a4,0(a4)
    8000301a:	fee688a3          	sb	a4,-15(a3)
    8000301e:	6214                	ld	a3,0(a2)
    80003020:	96aa                	add	a3,a3,a0
    80003022:	ff26c703          	lbu	a4,-14(a3)
    80003026:	972e                	add	a4,a4,a1
    80003028:	00070703          	lb	a4,0(a4)
    8000302c:	fee68923          	sb	a4,-14(a3)
    80003030:	6214                	ld	a3,0(a2)
    80003032:	96aa                	add	a3,a3,a0
    80003034:	ff36c703          	lbu	a4,-13(a3)
    80003038:	972e                	add	a4,a4,a1
    8000303a:	00070703          	lb	a4,0(a4)
    8000303e:	fee689a3          	sb	a4,-13(a3)
    80003042:	6214                	ld	a3,0(a2)
    80003044:	96aa                	add	a3,a3,a0
    80003046:	ff46c703          	lbu	a4,-12(a3)
    8000304a:	972e                	add	a4,a4,a1
    8000304c:	00070703          	lb	a4,0(a4)
    80003050:	fee68a23          	sb	a4,-12(a3)
    80003054:	6214                	ld	a3,0(a2)
    80003056:	96aa                	add	a3,a3,a0
    80003058:	ff56c703          	lbu	a4,-11(a3)
    8000305c:	972e                	add	a4,a4,a1
    8000305e:	00070703          	lb	a4,0(a4)
    80003062:	fee68aa3          	sb	a4,-11(a3)
    80003066:	6214                	ld	a3,0(a2)
    80003068:	96aa                	add	a3,a3,a0
    8000306a:	ff66c703          	lbu	a4,-10(a3)
    8000306e:	972e                	add	a4,a4,a1
    80003070:	00070703          	lb	a4,0(a4)
    80003074:	fee68b23          	sb	a4,-10(a3)
    80003078:	6214                	ld	a3,0(a2)
    8000307a:	96aa                	add	a3,a3,a0
    8000307c:	ff76c703          	lbu	a4,-9(a3)
    80003080:	972e                	add	a4,a4,a1
    80003082:	00070703          	lb	a4,0(a4)
    80003086:	fee68ba3          	sb	a4,-9(a3)
    8000308a:	6214                	ld	a3,0(a2)
    8000308c:	96aa                	add	a3,a3,a0
    8000308e:	ff86c703          	lbu	a4,-8(a3)
    80003092:	972e                	add	a4,a4,a1
    80003094:	00070703          	lb	a4,0(a4)
    80003098:	fee68c23          	sb	a4,-8(a3)
    8000309c:	6214                	ld	a3,0(a2)
    8000309e:	96aa                	add	a3,a3,a0
    800030a0:	ff96c703          	lbu	a4,-7(a3)
    800030a4:	972e                	add	a4,a4,a1
    800030a6:	00070703          	lb	a4,0(a4)
    800030aa:	fee68ca3          	sb	a4,-7(a3)
    800030ae:	6214                	ld	a3,0(a2)
    800030b0:	96aa                	add	a3,a3,a0
    800030b2:	ffa6c703          	lbu	a4,-6(a3)
    800030b6:	972e                	add	a4,a4,a1
    800030b8:	00070703          	lb	a4,0(a4)
    800030bc:	fee68d23          	sb	a4,-6(a3)
    800030c0:	6214                	ld	a3,0(a2)
    800030c2:	96aa                	add	a3,a3,a0
    800030c4:	ffb6c703          	lbu	a4,-5(a3)
    800030c8:	972e                	add	a4,a4,a1
    800030ca:	00070703          	lb	a4,0(a4)
    800030ce:	fee68da3          	sb	a4,-5(a3)
    800030d2:	6214                	ld	a3,0(a2)
    800030d4:	96aa                	add	a3,a3,a0
    800030d6:	ffc6c703          	lbu	a4,-4(a3)
    800030da:	972e                	add	a4,a4,a1
    800030dc:	00070703          	lb	a4,0(a4)
    800030e0:	fee68e23          	sb	a4,-4(a3)
    800030e4:	6214                	ld	a3,0(a2)
    800030e6:	96aa                	add	a3,a3,a0
    800030e8:	ffd6c703          	lbu	a4,-3(a3)
    800030ec:	972e                	add	a4,a4,a1
    800030ee:	00070703          	lb	a4,0(a4)
    800030f2:	fee68ea3          	sb	a4,-3(a3)
    800030f6:	6214                	ld	a3,0(a2)
    800030f8:	96aa                	add	a3,a3,a0
    800030fa:	ffe6c703          	lbu	a4,-2(a3)
    800030fe:	972e                	add	a4,a4,a1
    80003100:	00070703          	lb	a4,0(a4)
    80003104:	fee68f23          	sb	a4,-2(a3)
    80003108:	6214                	ld	a3,0(a2)
    8000310a:	96aa                	add	a3,a3,a0
    8000310c:	fff6c703          	lbu	a4,-1(a3)
    80003110:	972e                	add	a4,a4,a1
    80003112:	00070703          	lb	a4,0(a4)
    80003116:	fee68fa3          	sb	a4,-1(a3)
    8000311a:	6214                	ld	a3,0(a2)
    8000311c:	96aa                	add	a3,a3,a0
    8000311e:	0006c703          	lbu	a4,0(a3)
    80003122:	972e                	add	a4,a4,a1
    80003124:	00070703          	lb	a4,0(a4)
    80003128:	00e68023          	sb	a4,0(a3)
    8000312c:	17fd                	addi	a5,a5,-1
    8000312e:	0541                	addi	a0,a0,16
    80003130:	ec079ee3          	bnez	a5,8000300c <AES_Encrypt+0x932>
    80003134:	4541                	li	a0,16
    80003136:	75a2                	ld	a1,40(sp)
    80003138:	26a5cf63          	blt	a1,a0,800033b6 <AES_Encrypt+0xcdc>
    8000313c:	00093503          	ld	a0,0(s2)
    80003140:	0ac10a13          	addi	s4,sp,172
    80003144:	0b010a93          	addi	s5,sp,176
    80003148:	00850413          	addi	s0,a0,8
    8000314c:	7482                	ld	s1,32(sp)
    8000314e:	6b0a                	ld	s6,128(sp)
    80003150:	ff843903          	ld	s2,-8(s0)
    80003154:	00043983          	ld	s3,0(s0)
    80003158:	d902                	sw	zero,176(sp)
    8000315a:	f502                	sd	zero,168(sp)
    8000315c:	42095513          	srai	a0,s2,0x20
    80003160:	112c                	addi	a1,sp,168
    80003162:	fffff097          	auipc	ra,0xfffff
    80003166:	0d6080e7          	jalr	214(ra) # 80002238 <gmul_>
    8000316a:	0009851b          	sext.w	a0,s3
    8000316e:	85d2                	mv	a1,s4
    80003170:	fffff097          	auipc	ra,0xfffff
    80003174:	0c8080e7          	jalr	200(ra) # 80002238 <gmul_>
    80003178:	4209d513          	srai	a0,s3,0x20
    8000317c:	85d6                	mv	a1,s5
    8000317e:	fffff097          	auipc	ra,0xfffff
    80003182:	0ba080e7          	jalr	186(ra) # 80002238 <gmul_>
    80003186:	552a                	lw	a0,168(sp)
    80003188:	016975b3          	and	a1,s2,s6
    8000318c:	1502                	slli	a0,a0,0x20
    8000318e:	8d4d                	or	a0,a0,a1
    80003190:	55ca                	lw	a1,176(sp)
    80003192:	0ac16603          	lwu	a2,172(sp)
    80003196:	1582                	slli	a1,a1,0x20
    80003198:	8dd1                	or	a1,a1,a2
    8000319a:	fea43c23          	sd	a0,-8(s0)
    8000319e:	e00c                	sd	a1,0(s0)
    800031a0:	14fd                	addi	s1,s1,-1
    800031a2:	0441                	addi	s0,s0,16
    800031a4:	f4d5                	bnez	s1,80003150 <AES_Encrypt+0xa76>
    800031a6:	4541                	li	a0,16
    800031a8:	6726                	ld	a4,72(sp)
    800031aa:	75a2                	ld	a1,40(sp)
    800031ac:	6786                	ld	a5,64(sp)
    800031ae:	20a5c463          	blt	a1,a0,800033b6 <AES_Encrypt+0xcdc>
    800031b2:	453d                	li	a0,15
    800031b4:	7482                	ld	s1,32(sp)
    800031b6:	630c                	ld	a1,0(a4)
    800031b8:	0a078603          	lb	a2,160(a5)
    800031bc:	95aa                	add	a1,a1,a0
    800031be:	ff158683          	lb	a3,-15(a1)
    800031c2:	8e35                	xor	a2,a2,a3
    800031c4:	fec588a3          	sb	a2,-15(a1)
    800031c8:	630c                	ld	a1,0(a4)
    800031ca:	0a178603          	lb	a2,161(a5)
    800031ce:	95aa                	add	a1,a1,a0
    800031d0:	ff258683          	lb	a3,-14(a1)
    800031d4:	8e35                	xor	a2,a2,a3
    800031d6:	fec58923          	sb	a2,-14(a1)
    800031da:	630c                	ld	a1,0(a4)
    800031dc:	0a278603          	lb	a2,162(a5)
    800031e0:	95aa                	add	a1,a1,a0
    800031e2:	ff358683          	lb	a3,-13(a1)
    800031e6:	8e35                	xor	a2,a2,a3
    800031e8:	fec589a3          	sb	a2,-13(a1)
    800031ec:	630c                	ld	a1,0(a4)
    800031ee:	0a378603          	lb	a2,163(a5)
    800031f2:	95aa                	add	a1,a1,a0
    800031f4:	ff458683          	lb	a3,-12(a1)
    800031f8:	8e35                	xor	a2,a2,a3
    800031fa:	fec58a23          	sb	a2,-12(a1)
    800031fe:	630c                	ld	a1,0(a4)
    80003200:	0a478603          	lb	a2,164(a5)
    80003204:	95aa                	add	a1,a1,a0
    80003206:	ff558683          	lb	a3,-11(a1)
    8000320a:	8e35                	xor	a2,a2,a3
    8000320c:	fec58aa3          	sb	a2,-11(a1)
    80003210:	630c                	ld	a1,0(a4)
    80003212:	0a578603          	lb	a2,165(a5)
    80003216:	95aa                	add	a1,a1,a0
    80003218:	ff658683          	lb	a3,-10(a1)
    8000321c:	8e35                	xor	a2,a2,a3
    8000321e:	fec58b23          	sb	a2,-10(a1)
    80003222:	630c                	ld	a1,0(a4)
    80003224:	0a678603          	lb	a2,166(a5)
    80003228:	95aa                	add	a1,a1,a0
    8000322a:	ff758683          	lb	a3,-9(a1)
    8000322e:	8e35                	xor	a2,a2,a3
    80003230:	fec58ba3          	sb	a2,-9(a1)
    80003234:	630c                	ld	a1,0(a4)
    80003236:	0a778603          	lb	a2,167(a5)
    8000323a:	95aa                	add	a1,a1,a0
    8000323c:	ff858683          	lb	a3,-8(a1)
    80003240:	8e35                	xor	a2,a2,a3
    80003242:	fec58c23          	sb	a2,-8(a1)
    80003246:	630c                	ld	a1,0(a4)
    80003248:	0a878603          	lb	a2,168(a5)
    8000324c:	95aa                	add	a1,a1,a0
    8000324e:	ff958683          	lb	a3,-7(a1)
    80003252:	8e35                	xor	a2,a2,a3
    80003254:	fec58ca3          	sb	a2,-7(a1)
    80003258:	630c                	ld	a1,0(a4)
    8000325a:	0a978603          	lb	a2,169(a5)
    8000325e:	95aa                	add	a1,a1,a0
    80003260:	ffa58683          	lb	a3,-6(a1)
    80003264:	8e35                	xor	a2,a2,a3
    80003266:	fec58d23          	sb	a2,-6(a1)
    8000326a:	630c                	ld	a1,0(a4)
    8000326c:	0aa78603          	lb	a2,170(a5)
    80003270:	95aa                	add	a1,a1,a0
    80003272:	ffb58683          	lb	a3,-5(a1)
    80003276:	8e35                	xor	a2,a2,a3
    80003278:	fec58da3          	sb	a2,-5(a1)
    8000327c:	630c                	ld	a1,0(a4)
    8000327e:	0ab78603          	lb	a2,171(a5)
    80003282:	95aa                	add	a1,a1,a0
    80003284:	ffc58683          	lb	a3,-4(a1)
    80003288:	8e35                	xor	a2,a2,a3
    8000328a:	fec58e23          	sb	a2,-4(a1)
    8000328e:	630c                	ld	a1,0(a4)
    80003290:	0ac78603          	lb	a2,172(a5)
    80003294:	95aa                	add	a1,a1,a0
    80003296:	ffd58683          	lb	a3,-3(a1)
    8000329a:	8e35                	xor	a2,a2,a3
    8000329c:	fec58ea3          	sb	a2,-3(a1)
    800032a0:	630c                	ld	a1,0(a4)
    800032a2:	0ad78603          	lb	a2,173(a5)
    800032a6:	95aa                	add	a1,a1,a0
    800032a8:	ffe58683          	lb	a3,-2(a1)
    800032ac:	8e35                	xor	a2,a2,a3
    800032ae:	fec58f23          	sb	a2,-2(a1)
    800032b2:	630c                	ld	a1,0(a4)
    800032b4:	0ae78603          	lb	a2,174(a5)
    800032b8:	95aa                	add	a1,a1,a0
    800032ba:	fff58683          	lb	a3,-1(a1)
    800032be:	8e35                	xor	a2,a2,a3
    800032c0:	fec58fa3          	sb	a2,-1(a1)
    800032c4:	630c                	ld	a1,0(a4)
    800032c6:	0af78603          	lb	a2,175(a5)
    800032ca:	95aa                	add	a1,a1,a0
    800032cc:	00058683          	lb	a3,0(a1)
    800032d0:	8e35                	xor	a2,a2,a3
    800032d2:	00c58023          	sb	a2,0(a1)
    800032d6:	14fd                	addi	s1,s1,-1
    800032d8:	0541                	addi	a0,a0,16
    800032da:	ec049ee3          	bnez	s1,800031b6 <AES_Encrypt+0xadc>
    800032de:	4541                	li	a0,16
    800032e0:	75a2                	ld	a1,40(sp)
    800032e2:	0ca5ca63          	blt	a1,a0,800033b6 <AES_Encrypt+0xcdc>
    800032e6:	6562                	ld	a0,24(sp)
    800032e8:	9101                	srli	a0,a0,0x20
    800032ea:	45bd                	li	a1,15
    800032ec:	6310                	ld	a2,0(a4)
    800032ee:	962e                	add	a2,a2,a1
    800032f0:	ff160683          	lb	a3,-15(a2)
    800032f4:	6642                	ld	a2,16(sp)
    800032f6:	962e                	add	a2,a2,a1
    800032f8:	fed608a3          	sb	a3,-15(a2)
    800032fc:	6314                	ld	a3,0(a4)
    800032fe:	96ae                	add	a3,a3,a1
    80003300:	ff568683          	lb	a3,-11(a3)
    80003304:	fed60923          	sb	a3,-14(a2)
    80003308:	6314                	ld	a3,0(a4)
    8000330a:	96ae                	add	a3,a3,a1
    8000330c:	ff968683          	lb	a3,-7(a3)
    80003310:	fed609a3          	sb	a3,-13(a2)
    80003314:	6314                	ld	a3,0(a4)
    80003316:	96ae                	add	a3,a3,a1
    80003318:	ffd68683          	lb	a3,-3(a3)
    8000331c:	fed60a23          	sb	a3,-12(a2)
    80003320:	6314                	ld	a3,0(a4)
    80003322:	96ae                	add	a3,a3,a1
    80003324:	ff268683          	lb	a3,-14(a3)
    80003328:	fed60aa3          	sb	a3,-11(a2)
    8000332c:	6314                	ld	a3,0(a4)
    8000332e:	96ae                	add	a3,a3,a1
    80003330:	ff668683          	lb	a3,-10(a3)
    80003334:	fed60b23          	sb	a3,-10(a2)
    80003338:	6314                	ld	a3,0(a4)
    8000333a:	96ae                	add	a3,a3,a1
    8000333c:	ffa68683          	lb	a3,-6(a3)
    80003340:	fed60ba3          	sb	a3,-9(a2)
    80003344:	6314                	ld	a3,0(a4)
    80003346:	96ae                	add	a3,a3,a1
    80003348:	ffe68683          	lb	a3,-2(a3)
    8000334c:	fed60c23          	sb	a3,-8(a2)
    80003350:	6314                	ld	a3,0(a4)
    80003352:	96ae                	add	a3,a3,a1
    80003354:	ff368683          	lb	a3,-13(a3)
    80003358:	fed60ca3          	sb	a3,-7(a2)
    8000335c:	6314                	ld	a3,0(a4)
    8000335e:	96ae                	add	a3,a3,a1
    80003360:	ff768683          	lb	a3,-9(a3)
    80003364:	fed60d23          	sb	a3,-6(a2)
    80003368:	6314                	ld	a3,0(a4)
    8000336a:	96ae                	add	a3,a3,a1
    8000336c:	ffb68683          	lb	a3,-5(a3)
    80003370:	fed60da3          	sb	a3,-5(a2)
    80003374:	6314                	ld	a3,0(a4)
    80003376:	96ae                	add	a3,a3,a1
    80003378:	fff68683          	lb	a3,-1(a3)
    8000337c:	fed60e23          	sb	a3,-4(a2)
    80003380:	6314                	ld	a3,0(a4)
    80003382:	96ae                	add	a3,a3,a1
    80003384:	ff468683          	lb	a3,-12(a3)
    80003388:	fed60ea3          	sb	a3,-3(a2)
    8000338c:	6314                	ld	a3,0(a4)
    8000338e:	96ae                	add	a3,a3,a1
    80003390:	ff868683          	lb	a3,-8(a3)
    80003394:	fed60f23          	sb	a3,-2(a2)
    80003398:	6314                	ld	a3,0(a4)
    8000339a:	96ae                	add	a3,a3,a1
    8000339c:	ffc68683          	lb	a3,-4(a3)
    800033a0:	fed60fa3          	sb	a3,-1(a2)
    800033a4:	6314                	ld	a3,0(a4)
    800033a6:	96ae                	add	a3,a3,a1
    800033a8:	00068683          	lb	a3,0(a3)
    800033ac:	00d60023          	sb	a3,0(a2)
    800033b0:	157d                	addi	a0,a0,-1
    800033b2:	05c1                	addi	a1,a1,16
    800033b4:	fd05                	bnez	a0,800032ec <AES_Encrypt+0xc12>
    800033b6:	43813083          	ld	ra,1080(sp)
    800033ba:	43013403          	ld	s0,1072(sp)
    800033be:	42813483          	ld	s1,1064(sp)
    800033c2:	42013903          	ld	s2,1056(sp)
    800033c6:	41813983          	ld	s3,1048(sp)
    800033ca:	41013a03          	ld	s4,1040(sp)
    800033ce:	40813a83          	ld	s5,1032(sp)
    800033d2:	40013b03          	ld	s6,1024(sp)
    800033d6:	3f813b83          	ld	s7,1016(sp)
    800033da:	3f013c03          	ld	s8,1008(sp)
    800033de:	3e813c83          	ld	s9,1000(sp)
    800033e2:	3e013d03          	ld	s10,992(sp)
    800033e6:	3d813d83          	ld	s11,984(sp)
    800033ea:	44010113          	addi	sp,sp,1088
    800033ee:	8082                	ret

00000000800033f0 <main>:
    800033f0:	1141                	addi	sp,sp,-16
    800033f2:	e406                	sd	ra,8(sp)
    800033f4:	e022                	sd	s0,0(sp)
    800033f6:	00001517          	auipc	a0,0x1
    800033fa:	1f250513          	addi	a0,a0,498 # 800045e8 <pstate>
    800033fe:	00001597          	auipc	a1,0x1
    80003402:	2b258593          	addi	a1,a1,690 # 800046b0 <pintstate>
    80003406:	e10c                	sd	a1,0(a0)
    80003408:	00001517          	auipc	a0,0x1
    8000340c:	1e850513          	addi	a0,a0,488 # 800045f0 <pullstate>
    80003410:	e10c                	sd	a1,0(a0)
    80003412:	b0002473          	csrr	s0,mcycle
    80003416:	00001517          	auipc	a0,0x1
    8000341a:	01650513          	addi	a0,a0,22 # 8000442c <plaintext>
    8000341e:	00001597          	auipc	a1,0x1
    80003422:	18e58593          	addi	a1,a1,398 # 800045ac <key>
    80003426:	00003617          	auipc	a2,0x3
    8000342a:	a8a60613          	addi	a2,a2,-1398 # 80005eb0 <encrypted>
    8000342e:	18000693          	li	a3,384
    80003432:	fffff097          	auipc	ra,0xfffff
    80003436:	2a8080e7          	jalr	680(ra) # 800026da <AES_Encrypt>
    8000343a:	b0002573          	csrr	a0,mcycle
    8000343e:	9d01                	subw	a0,a0,s0
    80003440:	60a2                	ld	ra,8(sp)
    80003442:	6402                	ld	s0,0(sp)
    80003444:	0141                	addi	sp,sp,16
    80003446:	8082                	ret

0000000080003448 <vprintfmt>:
    80003448:	7149                	addi	sp,sp,-368
    8000344a:	f2a2                	sd	s0,352(sp)
    8000344c:	eea6                	sd	s1,344(sp)
    8000344e:	eaca                	sd	s2,336(sp)
    80003450:	e2d2                	sd	s4,320(sp)
    80003452:	fe56                	sd	s5,312(sp)
    80003454:	fa5a                	sd	s6,304(sp)
    80003456:	f65e                	sd	s7,296(sp)
    80003458:	f686                	sd	ra,360(sp)
    8000345a:	e6ce                	sd	s3,328(sp)
    8000345c:	f262                	sd	s8,288(sp)
    8000345e:	ee66                	sd	s9,280(sp)
    80003460:	e66e                	sd	s11,264(sp)
    80003462:	892a                	mv	s2,a0
    80003464:	84ae                	mv	s1,a1
    80003466:	8432                	mv	s0,a2
    80003468:	8bb6                	mv	s7,a3
    8000346a:	02500a13          	li	s4,37
    8000346e:	05500b13          	li	s6,85
    80003472:	00001a97          	auipc	s5,0x1
    80003476:	c0aa8a93          	addi	s5,s5,-1014 # 8000407c <Nr+0x4>
    8000347a:	a029                	j	80003484 <vprintfmt+0x3c>
    8000347c:	cd1d                	beqz	a0,800034ba <vprintfmt+0x72>
    8000347e:	85a6                	mv	a1,s1
    80003480:	0405                	addi	s0,s0,1
    80003482:	9902                	jalr	s2
    80003484:	00044503          	lbu	a0,0(s0)
    80003488:	ff451ae3          	bne	a0,s4,8000347c <vprintfmt+0x34>
    8000348c:	00144683          	lbu	a3,1(s0)
    80003490:	00140993          	addi	s3,s0,1
    80003494:	874e                	mv	a4,s3
    80003496:	02000c93          	li	s9,32
    8000349a:	5c7d                	li	s8,-1
    8000349c:	5dfd                	li	s11,-1
    8000349e:	4581                	li	a1,0
    800034a0:	fdd6879b          	addiw	a5,a3,-35
    800034a4:	0ff7f793          	zext.b	a5,a5
    800034a8:	00170413          	addi	s0,a4,1
    800034ac:	04fb6163          	bltu	s6,a5,800034ee <vprintfmt+0xa6>
    800034b0:	078a                	slli	a5,a5,0x2
    800034b2:	97d6                	add	a5,a5,s5
    800034b4:	439c                	lw	a5,0(a5)
    800034b6:	97d6                	add	a5,a5,s5
    800034b8:	8782                	jr	a5
    800034ba:	70b6                	ld	ra,360(sp)
    800034bc:	7416                	ld	s0,352(sp)
    800034be:	64f6                	ld	s1,344(sp)
    800034c0:	6956                	ld	s2,336(sp)
    800034c2:	69b6                	ld	s3,328(sp)
    800034c4:	6a16                	ld	s4,320(sp)
    800034c6:	7af2                	ld	s5,312(sp)
    800034c8:	7b52                	ld	s6,304(sp)
    800034ca:	7bb2                	ld	s7,296(sp)
    800034cc:	7c12                	ld	s8,288(sp)
    800034ce:	6cf2                	ld	s9,280(sp)
    800034d0:	6db2                	ld	s11,264(sp)
    800034d2:	6175                	addi	sp,sp,368
    800034d4:	8082                	ret
    800034d6:	8cb6                	mv	s9,a3
    800034d8:	00174683          	lbu	a3,1(a4)
    800034dc:	8722                	mv	a4,s0
    800034de:	00170413          	addi	s0,a4,1
    800034e2:	fdd6879b          	addiw	a5,a3,-35
    800034e6:	0ff7f793          	zext.b	a5,a5
    800034ea:	fcfb73e3          	bgeu	s6,a5,800034b0 <vprintfmt+0x68>
    800034ee:	85a6                	mv	a1,s1
    800034f0:	02500513          	li	a0,37
    800034f4:	9902                	jalr	s2
    800034f6:	844e                	mv	s0,s3
    800034f8:	b771                	j	80003484 <vprintfmt+0x3c>
    800034fa:	fd068c1b          	addiw	s8,a3,-48
    800034fe:	00174683          	lbu	a3,1(a4)
    80003502:	47a5                	li	a5,9
    80003504:	fd06871b          	addiw	a4,a3,-48
    80003508:	0006861b          	sext.w	a2,a3
    8000350c:	20e7ef63          	bltu	a5,a4,8000372a <vprintfmt+0x2e2>
    80003510:	8722                	mv	a4,s0
    80003512:	4825                	li	a6,9
    80003514:	00174683          	lbu	a3,1(a4)
    80003518:	002c179b          	slliw	a5,s8,0x2
    8000351c:	018787bb          	addw	a5,a5,s8
    80003520:	0017979b          	slliw	a5,a5,0x1
    80003524:	9fb1                	addw	a5,a5,a2
    80003526:	fd06851b          	addiw	a0,a3,-48
    8000352a:	0705                	addi	a4,a4,1
    8000352c:	fd078c1b          	addiw	s8,a5,-48
    80003530:	0006861b          	sext.w	a2,a3
    80003534:	fea870e3          	bgeu	a6,a0,80003514 <vprintfmt+0xcc>
    80003538:	f60dd4e3          	bgez	s11,800034a0 <vprintfmt+0x58>
    8000353c:	8de2                	mv	s11,s8
    8000353e:	5c7d                	li	s8,-1
    80003540:	b785                	j	800034a0 <vprintfmt+0x58>
    80003542:	00174683          	lbu	a3,1(a4)
    80003546:	8722                	mv	a4,s0
    80003548:	bfa1                	j	800034a0 <vprintfmt+0x58>
    8000354a:	85a6                	mv	a1,s1
    8000354c:	02500513          	li	a0,37
    80003550:	9902                	jalr	s2
    80003552:	bf0d                	j	80003484 <vprintfmt+0x3c>
    80003554:	000bac03          	lw	s8,0(s7)
    80003558:	00174683          	lbu	a3,1(a4)
    8000355c:	0ba1                	addi	s7,s7,8
    8000355e:	8722                	mv	a4,s0
    80003560:	bfe1                	j	80003538 <vprintfmt+0xf0>
    80003562:	85a6                	mv	a1,s1
    80003564:	03000513          	li	a0,48
    80003568:	ea6a                	sd	s10,272(sp)
    8000356a:	9902                	jalr	s2
    8000356c:	85a6                	mv	a1,s1
    8000356e:	07800513          	li	a0,120
    80003572:	9902                	jalr	s2
    80003574:	4641                	li	a2,16
    80003576:	008b8713          	addi	a4,s7,8
    8000357a:	000bb783          	ld	a5,0(s7)
    8000357e:	8bba                	mv	s7,a4
    80003580:	02c7f5b3          	remu	a1,a5,a2
    80003584:	000c899b          	sext.w	s3,s9
    80003588:	0054                	addi	a3,sp,4
    8000358a:	4705                	li	a4,1
    8000358c:	c02e                	sw	a1,0(sp)
    8000358e:	16c7ea63          	bltu	a5,a2,80003702 <vprintfmt+0x2ba>
    80003592:	02c7d7b3          	divu	a5,a5,a2
    80003596:	0691                	addi	a3,a3,4
    80003598:	8c3a                	mv	s8,a4
    8000359a:	2705                	addiw	a4,a4,1
    8000359c:	02c7f5b3          	remu	a1,a5,a2
    800035a0:	feb6ae23          	sw	a1,-4(a3)
    800035a4:	fec7f7e3          	bgeu	a5,a2,80003592 <vprintfmt+0x14a>
    800035a8:	fffd8c9b          	addiw	s9,s11,-1 # feffff <buflen.1+0xfeffbf>
    800035ac:	fff70d1b          	addiw	s10,a4,-1
    800035b0:	01b75863          	bge	a4,s11,800035c0 <vprintfmt+0x178>
    800035b4:	85a6                	mv	a1,s1
    800035b6:	854e                	mv	a0,s3
    800035b8:	3cfd                	addiw	s9,s9,-1
    800035ba:	9902                	jalr	s2
    800035bc:	ffac9ce3          	bne	s9,s10,800035b4 <vprintfmt+0x16c>
    800035c0:	0c0a                	slli	s8,s8,0x2
    800035c2:	018109b3          	add	s3,sp,s8
    800035c6:	ffc10c93          	addi	s9,sp,-4
    800035ca:	4c25                	li	s8,9
    800035cc:	0009a783          	lw	a5,0(s3)
    800035d0:	03000513          	li	a0,48
    800035d4:	00fc7463          	bgeu	s8,a5,800035dc <vprintfmt+0x194>
    800035d8:	05700513          	li	a0,87
    800035dc:	85a6                	mv	a1,s1
    800035de:	9d3d                	addw	a0,a0,a5
    800035e0:	19f1                	addi	s3,s3,-4
    800035e2:	9902                	jalr	s2
    800035e4:	ff9994e3          	bne	s3,s9,800035cc <vprintfmt+0x184>
    800035e8:	6d52                	ld	s10,272(sp)
    800035ea:	bd69                	j	80003484 <vprintfmt+0x3c>
    800035ec:	ea6a                	sd	s10,272(sp)
    800035ee:	4785                	li	a5,1
    800035f0:	008b8c13          	addi	s8,s7,8
    800035f4:	00b7c463          	blt	a5,a1,800035fc <vprintfmt+0x1b4>
    800035f8:	10058763          	beqz	a1,80003706 <vprintfmt+0x2be>
    800035fc:	000bb983          	ld	s3,0(s7)
    80003600:	1009cc63          	bltz	s3,80003718 <vprintfmt+0x2d0>
    80003604:	87ce                	mv	a5,s3
    80003606:	8be2                	mv	s7,s8
    80003608:	4629                	li	a2,10
    8000360a:	bf9d                	j	80003580 <vprintfmt+0x138>
    8000360c:	00174683          	lbu	a3,1(a4)
    80003610:	2585                	addiw	a1,a1,1
    80003612:	8722                	mv	a4,s0
    80003614:	b571                	j	800034a0 <vprintfmt+0x58>
    80003616:	ea6a                	sd	s10,272(sp)
    80003618:	4641                	li	a2,16
    8000361a:	4785                	li	a5,1
    8000361c:	008b8713          	addi	a4,s7,8
    80003620:	f4b7cde3          	blt	a5,a1,8000357a <vprintfmt+0x132>
    80003624:	f9b9                	bnez	a1,8000357a <vprintfmt+0x132>
    80003626:	000be783          	lwu	a5,0(s7)
    8000362a:	8bba                	mv	s7,a4
    8000362c:	bf91                	j	80003580 <vprintfmt+0x138>
    8000362e:	ea6a                	sd	s10,272(sp)
    80003630:	000bbd03          	ld	s10,0(s7)
    80003634:	0ba1                	addi	s7,s7,8
    80003636:	040d0363          	beqz	s10,8000367c <vprintfmt+0x234>
    8000363a:	09b05e63          	blez	s11,800036d6 <vprintfmt+0x28e>
    8000363e:	02d00793          	li	a5,45
    80003642:	04fc9f63          	bne	s9,a5,800036a0 <vprintfmt+0x258>
    80003646:	000d4503          	lbu	a0,0(s10)
    8000364a:	c105                	beqz	a0,8000366a <vprintfmt+0x222>
    8000364c:	59fd                	li	s3,-1
    8000364e:	000c4563          	bltz	s8,80003658 <vprintfmt+0x210>
    80003652:	3c7d                	addiw	s8,s8,-1
    80003654:	013c0963          	beq	s8,s3,80003666 <vprintfmt+0x21e>
    80003658:	85a6                	mv	a1,s1
    8000365a:	9902                	jalr	s2
    8000365c:	001d4503          	lbu	a0,1(s10)
    80003660:	3dfd                	addiw	s11,s11,-1
    80003662:	0d05                	addi	s10,s10,1
    80003664:	f56d                	bnez	a0,8000364e <vprintfmt+0x206>
    80003666:	f9b051e3          	blez	s11,800035e8 <vprintfmt+0x1a0>
    8000366a:	85a6                	mv	a1,s1
    8000366c:	02000513          	li	a0,32
    80003670:	3dfd                	addiw	s11,s11,-1
    80003672:	9902                	jalr	s2
    80003674:	fe0d9be3          	bnez	s11,8000366a <vprintfmt+0x222>
    80003678:	6d52                	ld	s10,272(sp)
    8000367a:	b529                	j	80003484 <vprintfmt+0x3c>
    8000367c:	00001d17          	auipc	s10,0x1
    80003680:	b5cd0d13          	addi	s10,s10,-1188 # 800041d8 <Nr+0x160>
    80003684:	02800513          	li	a0,40
    80003688:	fdb052e3          	blez	s11,8000364c <vprintfmt+0x204>
    8000368c:	02d00793          	li	a5,45
    80003690:	00001d17          	auipc	s10,0x1
    80003694:	b48d0d13          	addi	s10,s10,-1208 # 800041d8 <Nr+0x160>
    80003698:	02800513          	li	a0,40
    8000369c:	fafc88e3          	beq	s9,a5,8000364c <vprintfmt+0x204>
    800036a0:	000d861b          	sext.w	a2,s11
    800036a4:	87ea                	mv	a5,s10
    800036a6:	018d06b3          	add	a3,s10,s8
    800036aa:	000c1663          	bnez	s8,800036b6 <vprintfmt+0x26e>
    800036ae:	a829                	j	800036c8 <vprintfmt+0x280>
    800036b0:	0785                	addi	a5,a5,1
    800036b2:	00d78563          	beq	a5,a3,800036bc <vprintfmt+0x274>
    800036b6:	0007c703          	lbu	a4,0(a5)
    800036ba:	fb7d                	bnez	a4,800036b0 <vprintfmt+0x268>
    800036bc:	41a787b3          	sub	a5,a5,s10
    800036c0:	40f60dbb          	subw	s11,a2,a5
    800036c4:	01b05963          	blez	s11,800036d6 <vprintfmt+0x28e>
    800036c8:	2c81                	sext.w	s9,s9
    800036ca:	85a6                	mv	a1,s1
    800036cc:	8566                	mv	a0,s9
    800036ce:	3dfd                	addiw	s11,s11,-1
    800036d0:	9902                	jalr	s2
    800036d2:	fe0d9ce3          	bnez	s11,800036ca <vprintfmt+0x282>
    800036d6:	000d4503          	lbu	a0,0(s10)
    800036da:	d519                	beqz	a0,800035e8 <vprintfmt+0x1a0>
    800036dc:	59fd                	li	s3,-1
    800036de:	bf85                	j	8000364e <vprintfmt+0x206>
    800036e0:	fffdc793          	not	a5,s11
    800036e4:	97fd                	srai	a5,a5,0x3f
    800036e6:	00fdf7b3          	and	a5,s11,a5
    800036ea:	00174683          	lbu	a3,1(a4)
    800036ee:	00078d9b          	sext.w	s11,a5
    800036f2:	8722                	mv	a4,s0
    800036f4:	b375                	j	800034a0 <vprintfmt+0x58>
    800036f6:	000ba503          	lw	a0,0(s7)
    800036fa:	85a6                	mv	a1,s1
    800036fc:	0ba1                	addi	s7,s7,8
    800036fe:	9902                	jalr	s2
    80003700:	b351                	j	80003484 <vprintfmt+0x3c>
    80003702:	4c01                	li	s8,0
    80003704:	b555                	j	800035a8 <vprintfmt+0x160>
    80003706:	000ba983          	lw	s3,0(s7)
    8000370a:	bddd                	j	80003600 <vprintfmt+0x1b8>
    8000370c:	ea6a                	sd	s10,272(sp)
    8000370e:	4629                	li	a2,10
    80003710:	b729                	j	8000361a <vprintfmt+0x1d2>
    80003712:	ea6a                	sd	s10,272(sp)
    80003714:	4621                	li	a2,8
    80003716:	b711                	j	8000361a <vprintfmt+0x1d2>
    80003718:	85a6                	mv	a1,s1
    8000371a:	02d00513          	li	a0,45
    8000371e:	9902                	jalr	s2
    80003720:	413007b3          	neg	a5,s3
    80003724:	8be2                	mv	s7,s8
    80003726:	4629                	li	a2,10
    80003728:	bda1                	j	80003580 <vprintfmt+0x138>
    8000372a:	8722                	mv	a4,s0
    8000372c:	b531                	j	80003538 <vprintfmt+0xf0>

000000008000372e <sprintf_putch.0>:
    8000372e:	619c                	ld	a5,0(a1)
    80003730:	00a78023          	sb	a0,0(a5)
    80003734:	619c                	ld	a5,0(a1)
    80003736:	0785                	addi	a5,a5,1
    80003738:	e19c                	sd	a5,0(a1)
    8000373a:	8082                	ret

000000008000373c <putchar>:
    8000373c:	04022803          	lw	a6,64(tp) # 40 <buflen.1>
    80003740:	00020793          	mv	a5,tp
    80003744:	97c2                	add	a5,a5,a6
    80003746:	7159                	addi	sp,sp,-112
    80003748:	0018069b          	addiw	a3,a6,1
    8000374c:	04d22023          	sw	a3,64(tp) # 40 <buflen.1>
    80003750:	00a78023          	sb	a0,0(a5)
    80003754:	03f10713          	addi	a4,sp,63
    80003758:	47a9                	li	a5,10
    8000375a:	fc077713          	andi	a4,a4,-64
    8000375e:	00f50963          	beq	a0,a5,80003770 <putchar+0x34>
    80003762:	04000793          	li	a5,64
    80003766:	00f68563          	beq	a3,a5,80003770 <putchar+0x34>
    8000376a:	4501                	li	a0,0
    8000376c:	6165                	addi	sp,sp,112
    8000376e:	8082                	ret
    80003770:	04000793          	li	a5,64
    80003774:	e31c                	sd	a5,0(a4)
    80003776:	4785                	li	a5,1
    80003778:	e71c                	sd	a5,8(a4)
    8000377a:	00020613          	mv	a2,tp
    8000377e:	eb10                	sd	a2,16(a4)
    80003780:	ef14                	sd	a3,24(a4)
    80003782:	0ff0000f          	fence
    80003786:	ffffe697          	auipc	a3,0xffffe
    8000378a:	8ba68693          	addi	a3,a3,-1862 # 80001040 <fromhost>
    8000378e:	ffffe797          	auipc	a5,0xffffe
    80003792:	86e7b923          	sd	a4,-1934(a5) # 80001000 <tohost>
    80003796:	629c                	ld	a5,0(a3)
    80003798:	dffd                	beqz	a5,80003796 <putchar+0x5a>
    8000379a:	ffffe797          	auipc	a5,0xffffe
    8000379e:	8a07b323          	sd	zero,-1882(a5) # 80001040 <fromhost>
    800037a2:	0ff0000f          	fence
    800037a6:	04022023          	sw	zero,64(tp) # 40 <buflen.1>
    800037aa:	631c                	ld	a5,0(a4)
    800037ac:	4501                	li	a0,0
    800037ae:	6165                	addi	sp,sp,112
    800037b0:	8082                	ret

00000000800037b2 <setStats>:
    800037b2:	b0002773          	csrr	a4,mcycle
    800037b6:	00003797          	auipc	a5,0x3
    800037ba:	87a78793          	addi	a5,a5,-1926 # 80006030 <counters>
    800037be:	c511                	beqz	a0,800037ca <setStats+0x18>
    800037c0:	e398                	sd	a4,0(a5)
    800037c2:	b0202773          	csrr	a4,minstret
    800037c6:	e798                	sd	a4,8(a5)
    800037c8:	8082                	ret
    800037ca:	6394                	ld	a3,0(a5)
    800037cc:	00001617          	auipc	a2,0x1
    800037d0:	a1c60613          	addi	a2,a2,-1508 # 800041e8 <Nr+0x170>
    800037d4:	eb90                	sd	a2,16(a5)
    800037d6:	8f15                	sub	a4,a4,a3
    800037d8:	e398                	sd	a4,0(a5)
    800037da:	b0202773          	csrr	a4,minstret
    800037de:	6794                	ld	a3,8(a5)
    800037e0:	00001617          	auipc	a2,0x1
    800037e4:	a1060613          	addi	a2,a2,-1520 # 800041f0 <Nr+0x178>
    800037e8:	ef90                	sd	a2,24(a5)
    800037ea:	8f15                	sub	a4,a4,a3
    800037ec:	e798                	sd	a4,8(a5)
    800037ee:	8082                	ret

00000000800037f0 <tohost_exit>:
    800037f0:	00151793          	slli	a5,a0,0x1
    800037f4:	0017e793          	ori	a5,a5,1
    800037f8:	ffffe717          	auipc	a4,0xffffe
    800037fc:	80f73423          	sd	a5,-2040(a4) # 80001000 <tohost>
    80003800:	a001                	j	80003800 <tohost_exit+0x10>

0000000080003802 <handle_trap>:
    80003802:	6785                	lui	a5,0x1
    80003804:	a7378793          	addi	a5,a5,-1421 # a73 <buflen.1+0xa33>
    80003808:	ffffd717          	auipc	a4,0xffffd
    8000380c:	7ef73c23          	sd	a5,2040(a4) # 80001000 <tohost>
    80003810:	a001                	j	80003810 <handle_trap+0xe>

0000000080003812 <exit>:
    80003812:	1141                	addi	sp,sp,-16
    80003814:	e406                	sd	ra,8(sp)
    80003816:	fdbff0ef          	jal	800037f0 <tohost_exit>

000000008000381a <abort>:
    8000381a:	10d00793          	li	a5,269
    8000381e:	ffffd717          	auipc	a4,0xffffd
    80003822:	7ef73123          	sd	a5,2018(a4) # 80001000 <tohost>
    80003826:	a001                	j	80003826 <abort+0xc>

0000000080003828 <printstr>:
    80003828:	00054783          	lbu	a5,0(a0)
    8000382c:	7159                	addi	sp,sp,-112
    8000382e:	03f10693          	addi	a3,sp,63
    80003832:	fc06f693          	andi	a3,a3,-64
    80003836:	c3b9                	beqz	a5,8000387c <printstr+0x54>
    80003838:	87aa                	mv	a5,a0
    8000383a:	0017c703          	lbu	a4,1(a5)
    8000383e:	0785                	addi	a5,a5,1
    80003840:	ff6d                	bnez	a4,8000383a <printstr+0x12>
    80003842:	8f89                	sub	a5,a5,a0
    80003844:	04000713          	li	a4,64
    80003848:	e298                	sd	a4,0(a3)
    8000384a:	4705                	li	a4,1
    8000384c:	e698                	sd	a4,8(a3)
    8000384e:	ea88                	sd	a0,16(a3)
    80003850:	ee9c                	sd	a5,24(a3)
    80003852:	0ff0000f          	fence
    80003856:	ffffd717          	auipc	a4,0xffffd
    8000385a:	7ea70713          	addi	a4,a4,2026 # 80001040 <fromhost>
    8000385e:	ffffd797          	auipc	a5,0xffffd
    80003862:	7ad7b123          	sd	a3,1954(a5) # 80001000 <tohost>
    80003866:	631c                	ld	a5,0(a4)
    80003868:	dffd                	beqz	a5,80003866 <printstr+0x3e>
    8000386a:	ffffd797          	auipc	a5,0xffffd
    8000386e:	7c07bb23          	sd	zero,2006(a5) # 80001040 <fromhost>
    80003872:	0ff0000f          	fence
    80003876:	629c                	ld	a5,0(a3)
    80003878:	6165                	addi	sp,sp,112
    8000387a:	8082                	ret
    8000387c:	4781                	li	a5,0
    8000387e:	b7d9                	j	80003844 <printstr+0x1c>

0000000080003880 <thread_entry>:
    80003880:	c111                	beqz	a0,80003884 <thread_entry+0x4>
    80003882:	a001                	j	80003882 <thread_entry+0x2>
    80003884:	8082                	ret

0000000080003886 <printhex>:
    80003886:	7179                	addi	sp,sp,-48
    80003888:	87aa                	mv	a5,a0
    8000388a:	f406                	sd	ra,40(sp)
    8000388c:	0028                	addi	a0,sp,8
    8000388e:	01710713          	addi	a4,sp,23
    80003892:	4825                	li	a6,9
    80003894:	a011                	j	80003898 <printhex+0x12>
    80003896:	8736                	mv	a4,a3
    80003898:	00f7f613          	andi	a2,a5,15
    8000389c:	86b2                	mv	a3,a2
    8000389e:	03000593          	li	a1,48
    800038a2:	00c87463          	bgeu	a6,a2,800038aa <printhex+0x24>
    800038a6:	05700593          	li	a1,87
    800038aa:	9ead                	addw	a3,a3,a1
    800038ac:	00d70023          	sb	a3,0(a4)
    800038b0:	8391                	srli	a5,a5,0x4
    800038b2:	fff70693          	addi	a3,a4,-1
    800038b6:	fee510e3          	bne	a0,a4,80003896 <printhex+0x10>
    800038ba:	00010c23          	sb	zero,24(sp)
    800038be:	f6bff0ef          	jal	80003828 <printstr>
    800038c2:	70a2                	ld	ra,40(sp)
    800038c4:	6145                	addi	sp,sp,48
    800038c6:	8082                	ret

00000000800038c8 <printf>:
    800038c8:	711d                	addi	sp,sp,-96
    800038ca:	02810313          	addi	t1,sp,40
    800038ce:	f42e                	sd	a1,40(sp)
    800038d0:	f832                	sd	a2,48(sp)
    800038d2:	fc36                	sd	a3,56(sp)
    800038d4:	862a                	mv	a2,a0
    800038d6:	869a                	mv	a3,t1
    800038d8:	00000517          	auipc	a0,0x0
    800038dc:	e6450513          	addi	a0,a0,-412 # 8000373c <putchar>
    800038e0:	4581                	li	a1,0
    800038e2:	ec06                	sd	ra,24(sp)
    800038e4:	e0ba                	sd	a4,64(sp)
    800038e6:	e4be                	sd	a5,72(sp)
    800038e8:	e8c2                	sd	a6,80(sp)
    800038ea:	ecc6                	sd	a7,88(sp)
    800038ec:	e41a                	sd	t1,8(sp)
    800038ee:	b5bff0ef          	jal	80003448 <vprintfmt>
    800038f2:	60e2                	ld	ra,24(sp)
    800038f4:	4501                	li	a0,0
    800038f6:	6125                	addi	sp,sp,96
    800038f8:	8082                	ret

00000000800038fa <sprintf>:
    800038fa:	711d                	addi	sp,sp,-96
    800038fc:	03010e13          	addi	t3,sp,48
    80003900:	f022                	sd	s0,32(sp)
    80003902:	e42a                	sd	a0,8(sp)
    80003904:	842a                	mv	s0,a0
    80003906:	f832                	sd	a2,48(sp)
    80003908:	fc36                	sd	a3,56(sp)
    8000390a:	862e                	mv	a2,a1
    8000390c:	00000517          	auipc	a0,0x0
    80003910:	e2250513          	addi	a0,a0,-478 # 8000372e <sprintf_putch.0>
    80003914:	002c                	addi	a1,sp,8
    80003916:	86f2                	mv	a3,t3
    80003918:	f406                	sd	ra,40(sp)
    8000391a:	e4be                	sd	a5,72(sp)
    8000391c:	e0ba                	sd	a4,64(sp)
    8000391e:	e8c2                	sd	a6,80(sp)
    80003920:	ecc6                	sd	a7,88(sp)
    80003922:	ec72                	sd	t3,24(sp)
    80003924:	b25ff0ef          	jal	80003448 <vprintfmt>
    80003928:	67a2                	ld	a5,8(sp)
    8000392a:	00078023          	sb	zero,0(a5)
    8000392e:	6522                	ld	a0,8(sp)
    80003930:	70a2                	ld	ra,40(sp)
    80003932:	9d01                	subw	a0,a0,s0
    80003934:	7402                	ld	s0,32(sp)
    80003936:	6125                	addi	sp,sp,96
    80003938:	8082                	ret

000000008000393a <memcpy>:
    8000393a:	00c5e7b3          	or	a5,a1,a2
    8000393e:	8fc9                	or	a5,a5,a0
    80003940:	8b9d                	andi	a5,a5,7
    80003942:	00c506b3          	add	a3,a0,a2
    80003946:	cf91                	beqz	a5,80003962 <memcpy+0x28>
    80003948:	962e                	add	a2,a2,a1
    8000394a:	87aa                	mv	a5,a0
    8000394c:	02d57663          	bgeu	a0,a3,80003978 <memcpy+0x3e>
    80003950:	0005c703          	lbu	a4,0(a1)
    80003954:	0585                	addi	a1,a1,1
    80003956:	0785                	addi	a5,a5,1
    80003958:	fee78fa3          	sb	a4,-1(a5)
    8000395c:	feb61ae3          	bne	a2,a1,80003950 <memcpy+0x16>
    80003960:	8082                	ret
    80003962:	fed57fe3          	bgeu	a0,a3,80003960 <memcpy+0x26>
    80003966:	87aa                	mv	a5,a0
    80003968:	6198                	ld	a4,0(a1)
    8000396a:	07a1                	addi	a5,a5,8
    8000396c:	05a1                	addi	a1,a1,8
    8000396e:	fee7bc23          	sd	a4,-8(a5)
    80003972:	fed7ebe3          	bltu	a5,a3,80003968 <memcpy+0x2e>
    80003976:	8082                	ret
    80003978:	8082                	ret

000000008000397a <memset>:
    8000397a:	00c567b3          	or	a5,a0,a2
    8000397e:	8b9d                	andi	a5,a5,7
    80003980:	962a                	add	a2,a2,a0
    80003982:	cf81                	beqz	a5,8000399a <memset+0x20>
    80003984:	0ff5f713          	zext.b	a4,a1
    80003988:	87aa                	mv	a5,a0
    8000398a:	02c57f63          	bgeu	a0,a2,800039c8 <memset+0x4e>
    8000398e:	0785                	addi	a5,a5,1
    80003990:	fee78fa3          	sb	a4,-1(a5)
    80003994:	fec79de3          	bne	a5,a2,8000398e <memset+0x14>
    80003998:	8082                	ret
    8000399a:	010107b7          	lui	a5,0x1010
    8000399e:	10178793          	addi	a5,a5,257 # 1010101 <buflen.1+0x10100c1>
    800039a2:	07c2                	slli	a5,a5,0x10
    800039a4:	10178793          	addi	a5,a5,257
    800039a8:	07c2                	slli	a5,a5,0x10
    800039aa:	0ff5f713          	zext.b	a4,a1
    800039ae:	10178793          	addi	a5,a5,257
    800039b2:	02f70733          	mul	a4,a4,a5
    800039b6:	fec571e3          	bgeu	a0,a2,80003998 <memset+0x1e>
    800039ba:	87aa                	mv	a5,a0
    800039bc:	07a1                	addi	a5,a5,8
    800039be:	fee7bc23          	sd	a4,-8(a5)
    800039c2:	fec7ede3          	bltu	a5,a2,800039bc <memset+0x42>
    800039c6:	8082                	ret
    800039c8:	8082                	ret

00000000800039ca <_init>:
    800039ca:	7171                	addi	sp,sp,-176
    800039cc:	00002797          	auipc	a5,0x2
    800039d0:	68478793          	addi	a5,a5,1668 # 80006050 <_tdata_begin>
    800039d4:	e152                	sd	s4,128(sp)
    800039d6:	00002a17          	auipc	s4,0x2
    800039da:	67aa0a13          	addi	s4,s4,1658 # 80006050 <_tdata_begin>
    800039de:	e54e                	sd	s3,136(sp)
    800039e0:	40fa09b3          	sub	s3,s4,a5
    800039e4:	ed26                	sd	s1,152(sp)
    800039e6:	e94a                	sd	s2,144(sp)
    800039e8:	84aa                	mv	s1,a0
    800039ea:	892e                	mv	s2,a1
    800039ec:	8512                	mv	a0,tp
    800039ee:	85be                	mv	a1,a5
    800039f0:	864e                	mv	a2,s3
    800039f2:	f506                	sd	ra,168(sp)
    800039f4:	f122                	sd	s0,160(sp)
    800039f6:	fcd6                	sd	s5,120(sp)
    800039f8:	8a92                	mv	s5,tp
    800039fa:	f41ff0ef          	jal	8000393a <memcpy>
    800039fe:	00002617          	auipc	a2,0x2
    80003a02:	6c660613          	addi	a2,a2,1734 # 800060c4 <_tbss_end>
    80003a06:	41460633          	sub	a2,a2,s4
    80003a0a:	4581                	li	a1,0
    80003a0c:	013a8533          	add	a0,s5,s3
    80003a10:	f6bff0ef          	jal	8000397a <memset>
    80003a14:	85ca                	mv	a1,s2
    80003a16:	8526                	mv	a0,s1
    80003a18:	e69ff0ef          	jal	80003880 <thread_entry>
    80003a1c:	4581                	li	a1,0
    80003a1e:	4501                	li	a0,0
    80003a20:	9d1ff0ef          	jal	800033f0 <main>
    80003a24:	00002917          	auipc	s2,0x2
    80003a28:	60c90913          	addi	s2,s2,1548 # 80006030 <counters>
    80003a2c:	00093683          	ld	a3,0(s2)
    80003a30:	03f10413          	addi	s0,sp,63
    80003a34:	fc047413          	andi	s0,s0,-64
    80003a38:	84aa                	mv	s1,a0
    80003a3a:	ea85                	bnez	a3,80003a6a <_init+0xa0>
    80003a3c:	00893683          	ld	a3,8(s2)
    80003a40:	e681                	bnez	a3,80003a48 <_init+0x7e>
    80003a42:	8526                	mv	a0,s1
    80003a44:	dadff0ef          	jal	800037f0 <tohost_exit>
    80003a48:	89a2                	mv	s3,s0
    80003a4a:	01893603          	ld	a2,24(s2)
    80003a4e:	854e                	mv	a0,s3
    80003a50:	00000597          	auipc	a1,0x0
    80003a54:	7c858593          	addi	a1,a1,1992 # 80004218 <Nr+0x1a0>
    80003a58:	ea3ff0ef          	jal	800038fa <sprintf>
    80003a5c:	99aa                	add	s3,s3,a0
    80003a5e:	ff3402e3          	beq	s0,s3,80003a42 <_init+0x78>
    80003a62:	8522                	mv	a0,s0
    80003a64:	dc5ff0ef          	jal	80003828 <printstr>
    80003a68:	bfe9                	j	80003a42 <_init+0x78>
    80003a6a:	01093603          	ld	a2,16(s2)
    80003a6e:	00000597          	auipc	a1,0x0
    80003a72:	7aa58593          	addi	a1,a1,1962 # 80004218 <Nr+0x1a0>
    80003a76:	8522                	mv	a0,s0
    80003a78:	e83ff0ef          	jal	800038fa <sprintf>
    80003a7c:	00893683          	ld	a3,8(s2)
    80003a80:	00a409b3          	add	s3,s0,a0
    80003a84:	dee9                	beqz	a3,80003a5e <_init+0x94>
    80003a86:	b7d1                	j	80003a4a <_init+0x80>

0000000080003a88 <strlen>:
    80003a88:	00054783          	lbu	a5,0(a0)
    80003a8c:	cb89                	beqz	a5,80003a9e <strlen+0x16>
    80003a8e:	87aa                	mv	a5,a0
    80003a90:	0017c703          	lbu	a4,1(a5)
    80003a94:	0785                	addi	a5,a5,1
    80003a96:	ff6d                	bnez	a4,80003a90 <strlen+0x8>
    80003a98:	40a78533          	sub	a0,a5,a0
    80003a9c:	8082                	ret
    80003a9e:	4501                	li	a0,0
    80003aa0:	8082                	ret

0000000080003aa2 <strnlen>:
    80003aa2:	00b506b3          	add	a3,a0,a1
    80003aa6:	87aa                	mv	a5,a0
    80003aa8:	e589                	bnez	a1,80003ab2 <strnlen+0x10>
    80003aaa:	a829                	j	80003ac4 <strnlen+0x22>
    80003aac:	0785                	addi	a5,a5,1
    80003aae:	00f68863          	beq	a3,a5,80003abe <strnlen+0x1c>
    80003ab2:	0007c703          	lbu	a4,0(a5)
    80003ab6:	fb7d                	bnez	a4,80003aac <strnlen+0xa>
    80003ab8:	40a78533          	sub	a0,a5,a0
    80003abc:	8082                	ret
    80003abe:	40a68533          	sub	a0,a3,a0
    80003ac2:	8082                	ret
    80003ac4:	4501                	li	a0,0
    80003ac6:	8082                	ret

0000000080003ac8 <strcmp>:
    80003ac8:	00054783          	lbu	a5,0(a0)
    80003acc:	0585                	addi	a1,a1,1
    80003ace:	0505                	addi	a0,a0,1
    80003ad0:	fff5c703          	lbu	a4,-1(a1)
    80003ad4:	c799                	beqz	a5,80003ae2 <strcmp+0x1a>
    80003ad6:	fee789e3          	beq	a5,a4,80003ac8 <strcmp>
    80003ada:	0007851b          	sext.w	a0,a5
    80003ade:	9d19                	subw	a0,a0,a4
    80003ae0:	8082                	ret
    80003ae2:	4501                	li	a0,0
    80003ae4:	bfed                	j	80003ade <strcmp+0x16>

0000000080003ae6 <strcpy>:
    80003ae6:	87aa                	mv	a5,a0
    80003ae8:	0005c703          	lbu	a4,0(a1)
    80003aec:	0785                	addi	a5,a5,1
    80003aee:	0585                	addi	a1,a1,1
    80003af0:	fee78fa3          	sb	a4,-1(a5)
    80003af4:	fb75                	bnez	a4,80003ae8 <strcpy+0x2>
    80003af6:	8082                	ret

0000000080003af8 <atol>:
    80003af8:	00054703          	lbu	a4,0(a0)
    80003afc:	02000693          	li	a3,32
    80003b00:	87aa                	mv	a5,a0
    80003b02:	00d71763          	bne	a4,a3,80003b10 <atol+0x18>
    80003b06:	0017c703          	lbu	a4,1(a5)
    80003b0a:	0785                	addi	a5,a5,1
    80003b0c:	fed70de3          	beq	a4,a3,80003b06 <atol+0xe>
    80003b10:	02d00693          	li	a3,45
    80003b14:	04d70163          	beq	a4,a3,80003b56 <atol+0x5e>
    80003b18:	02b00693          	li	a3,43
    80003b1c:	02d70763          	beq	a4,a3,80003b4a <atol+0x52>
    80003b20:	0007c683          	lbu	a3,0(a5)
    80003b24:	4581                	li	a1,0
    80003b26:	ce8d                	beqz	a3,80003b60 <atol+0x68>
    80003b28:	4501                	li	a0,0
    80003b2a:	0785                	addi	a5,a5,1
    80003b2c:	00251713          	slli	a4,a0,0x2
    80003b30:	fd06861b          	addiw	a2,a3,-48
    80003b34:	0007c683          	lbu	a3,0(a5)
    80003b38:	972a                	add	a4,a4,a0
    80003b3a:	0706                	slli	a4,a4,0x1
    80003b3c:	00e60533          	add	a0,a2,a4
    80003b40:	f6ed                	bnez	a3,80003b2a <atol+0x32>
    80003b42:	c185                	beqz	a1,80003b62 <atol+0x6a>
    80003b44:	40a00533          	neg	a0,a0
    80003b48:	8082                	ret
    80003b4a:	0017c683          	lbu	a3,1(a5)
    80003b4e:	0785                	addi	a5,a5,1
    80003b50:	ca81                	beqz	a3,80003b60 <atol+0x68>
    80003b52:	4581                	li	a1,0
    80003b54:	bfd1                	j	80003b28 <atol+0x30>
    80003b56:	0017c683          	lbu	a3,1(a5)
    80003b5a:	4585                	li	a1,1
    80003b5c:	0785                	addi	a5,a5,1
    80003b5e:	f6e9                	bnez	a3,80003b28 <atol+0x30>
    80003b60:	4501                	li	a0,0
    80003b62:	8082                	ret

0000000080003b64 <__errno>:
    80003b64:	83818513          	addi	a0,gp,-1992 # 800045f8 <__errno_location>
    80003b68:	8082                	ret

0000000080003b6a <atoi>:
    80003b6a:	cd41                	beqz	a0,80003c02 <atoi+0x98>
    80003b6c:	02000693          	li	a3,32
    80003b70:	4611                	li	a2,4
    80003b72:	00054783          	lbu	a5,0(a0)
    80003b76:	ff77871b          	addiw	a4,a5,-9
    80003b7a:	0ff77713          	zext.b	a4,a4
    80003b7e:	06d78863          	beq	a5,a3,80003bee <atoi+0x84>
    80003b82:	06e67663          	bgeu	a2,a4,80003bee <atoi+0x84>
    80003b86:	02b00713          	li	a4,43
    80003b8a:	06e78763          	beq	a5,a4,80003bf8 <atoi+0x8e>
    80003b8e:	02d00713          	li	a4,45
    80003b92:	4305                	li	t1,1
    80003b94:	06e78963          	beq	a5,a4,80003c06 <atoi+0x9c>
    80003b98:	fd07879b          	addiw	a5,a5,-48
    80003b9c:	0ff7f693          	zext.b	a3,a5
    80003ba0:	4725                	li	a4,9
    80003ba2:	06d76063          	bltu	a4,a3,80003c02 <atoi+0x98>
    80003ba6:	800005b7          	lui	a1,0x80000
    80003baa:	4681                	li	a3,0
    80003bac:	35fd                	addiw	a1,a1,-1 # 7fffffff <buflen.1+0x7fffffbf>
    80003bae:	4829                	li	a6,10
    80003bb0:	48a5                	li	a7,9
    80003bb2:	a819                	j	80003bc8 <atoi+0x5e>
    80003bb4:	00054783          	lbu	a5,0(a0)
    80003bb8:	0007069b          	sext.w	a3,a4
    80003bbc:	fd07879b          	addiw	a5,a5,-48
    80003bc0:	0ff7f613          	zext.b	a2,a5
    80003bc4:	02c8e763          	bltu	a7,a2,80003bf2 <atoi+0x88>
    80003bc8:	40f5863b          	subw	a2,a1,a5
    80003bcc:	0306463b          	divw	a2,a2,a6
    80003bd0:	0026971b          	slliw	a4,a3,0x2
    80003bd4:	9f35                	addw	a4,a4,a3
    80003bd6:	0017171b          	slliw	a4,a4,0x1
    80003bda:	0505                	addi	a0,a0,1
    80003bdc:	9f3d                	addw	a4,a4,a5
    80003bde:	fcd65be3          	bge	a2,a3,80003bb4 <atoi+0x4a>
    80003be2:	4785                	li	a5,1
    80003be4:	80000537          	lui	a0,0x80000
    80003be8:	02f30163          	beq	t1,a5,80003c0a <atoi+0xa0>
    80003bec:	8082                	ret
    80003bee:	0505                	addi	a0,a0,1 # ffffffff80000001 <_tbss_end+0xfffffffeffff9f3d>
    80003bf0:	b749                	j	80003b72 <atoi+0x8>
    80003bf2:	0267053b          	mulw	a0,a4,t1
    80003bf6:	8082                	ret
    80003bf8:	4305                	li	t1,1
    80003bfa:	00154783          	lbu	a5,1(a0)
    80003bfe:	0505                	addi	a0,a0,1
    80003c00:	bf61                	j	80003b98 <atoi+0x2e>
    80003c02:	4501                	li	a0,0
    80003c04:	8082                	ret
    80003c06:	537d                	li	t1,-1
    80003c08:	bfcd                	j	80003bfa <atoi+0x90>
    80003c0a:	fff54513          	not	a0,a0
    80003c0e:	8082                	ret

0000000080003c10 <strtol>:
    80003c10:	872a                	mv	a4,a0
    80003c12:	4811                	li	a6,4
    80003c14:	02000513          	li	a0,32
    80003c18:	00074683          	lbu	a3,0(a4)
    80003c1c:	ff76879b          	addiw	a5,a3,-9
    80003c20:	0ff7f793          	zext.b	a5,a5
    80003c24:	04a68b63          	beq	a3,a0,80003c7a <strtol+0x6a>
    80003c28:	04f87963          	bgeu	a6,a5,80003c7a <strtol+0x6a>
    80003c2c:	02d00793          	li	a5,45
    80003c30:	08f68963          	beq	a3,a5,80003cc2 <strtol+0xb2>
    80003c34:	02b00793          	li	a5,43
    80003c38:	4e01                	li	t3,0
    80003c3a:	08f68063          	beq	a3,a5,80003cba <strtol+0xaa>
    80003c3e:	ee29                	bnez	a2,80003c98 <strtol+0x88>
    80003c40:	03000793          	li	a5,48
    80003c44:	4629                	li	a2,10
    80003c46:	08f68363          	beq	a3,a5,80003ccc <strtol+0xbc>
    80003c4a:	4501                	li	a0,0
    80003c4c:	48a5                	li	a7,9
    80003c4e:	4365                	li	t1,25
    80003c50:	00074683          	lbu	a3,0(a4)
    80003c54:	fd06879b          	addiw	a5,a3,-48
    80003c58:	f9f6881b          	addiw	a6,a3,-97
    80003c5c:	00f8f863          	bgeu	a7,a5,80003c6c <strtol+0x5c>
    80003c60:	fbf6879b          	addiw	a5,a3,-65
    80003c64:	01036d63          	bltu	t1,a6,80003c7e <strtol+0x6e>
    80003c68:	fa96879b          	addiw	a5,a3,-87
    80003c6c:	00c7df63          	bge	a5,a2,80003c8a <strtol+0x7a>
    80003c70:	02a60533          	mul	a0,a2,a0
    80003c74:	0705                	addi	a4,a4,1
    80003c76:	953e                	add	a0,a0,a5
    80003c78:	bfe1                	j	80003c50 <strtol+0x40>
    80003c7a:	0705                	addi	a4,a4,1
    80003c7c:	bf71                	j	80003c18 <strtol+0x8>
    80003c7e:	00f36663          	bltu	t1,a5,80003c8a <strtol+0x7a>
    80003c82:	fc96879b          	addiw	a5,a3,-55
    80003c86:	fec7c5e3          	blt	a5,a2,80003c70 <strtol+0x60>
    80003c8a:	c191                	beqz	a1,80003c8e <strtol+0x7e>
    80003c8c:	e198                	sd	a4,0(a1)
    80003c8e:	000e0463          	beqz	t3,80003c96 <strtol+0x86>
    80003c92:	40a00533          	neg	a0,a0
    80003c96:	8082                	ret
    80003c98:	47c1                	li	a5,16
    80003c9a:	faf618e3          	bne	a2,a5,80003c4a <strtol+0x3a>
    80003c9e:	03000793          	li	a5,48
    80003ca2:	faf694e3          	bne	a3,a5,80003c4a <strtol+0x3a>
    80003ca6:	00174783          	lbu	a5,1(a4)
    80003caa:	05800693          	li	a3,88
    80003cae:	0df7f793          	andi	a5,a5,223
    80003cb2:	f8d79ce3          	bne	a5,a3,80003c4a <strtol+0x3a>
    80003cb6:	0709                	addi	a4,a4,2
    80003cb8:	bf49                	j	80003c4a <strtol+0x3a>
    80003cba:	00174683          	lbu	a3,1(a4)
    80003cbe:	0705                	addi	a4,a4,1
    80003cc0:	bfbd                	j	80003c3e <strtol+0x2e>
    80003cc2:	00174683          	lbu	a3,1(a4)
    80003cc6:	4e05                	li	t3,1
    80003cc8:	0705                	addi	a4,a4,1
    80003cca:	bf95                	j	80003c3e <strtol+0x2e>
    80003ccc:	00174783          	lbu	a5,1(a4)
    80003cd0:	05800693          	li	a3,88
    80003cd4:	0df7f793          	andi	a5,a5,223
    80003cd8:	00d78563          	beq	a5,a3,80003ce2 <strtol+0xd2>
    80003cdc:	0705                	addi	a4,a4,1
    80003cde:	4621                	li	a2,8
    80003ce0:	b7ad                	j	80003c4a <strtol+0x3a>
    80003ce2:	0709                	addi	a4,a4,2
    80003ce4:	4641                	li	a2,16
    80003ce6:	b795                	j	80003c4a <strtol+0x3a>

0000000080003ce8 <my_isspace>:
    80003ce8:	02000793          	li	a5,32
    80003cec:	00f50863          	beq	a0,a5,80003cfc <my_isspace+0x14>
    80003cf0:	355d                	addiw	a0,a0,-9
    80003cf2:	0ff57513          	zext.b	a0,a0
    80003cf6:	00553513          	sltiu	a0,a0,5
    80003cfa:	8082                	ret
    80003cfc:	4505                	li	a0,1
    80003cfe:	8082                	ret

0000000080003d00 <my_isdigit>:
    80003d00:	fd05051b          	addiw	a0,a0,-48
    80003d04:	0ff57513          	zext.b	a0,a0
    80003d08:	00a53513          	sltiu	a0,a0,10
    80003d0c:	8082                	ret

0000000080003d0e <strtod>:
    80003d0e:	02000693          	li	a3,32
    80003d12:	4611                	li	a2,4
    80003d14:	00054783          	lbu	a5,0(a0)
    80003d18:	ff77871b          	addiw	a4,a5,-9
    80003d1c:	0ff77713          	zext.b	a4,a4
    80003d20:	08d78263          	beq	a5,a3,80003da4 <strtod+0x96>
    80003d24:	08e67063          	bgeu	a2,a4,80003da4 <strtod+0x96>
    80003d28:	02d00713          	li	a4,45
    80003d2c:	06e78e63          	beq	a5,a4,80003da8 <strtod+0x9a>
    80003d30:	02b00713          	li	a4,43
    80003d34:	08e78663          	beq	a5,a4,80003dc0 <strtod+0xb2>
    80003d38:	00001717          	auipc	a4,0x1
    80003d3c:	88873587          	fld	fa1,-1912(a4) # 800045c0 <key+0x14>
    80003d40:	22b58553          	fmv.d	fa0,fa1
    80003d44:	fd07871b          	addiw	a4,a5,-48
    80003d48:	0ff77613          	zext.b	a2,a4
    80003d4c:	46a5                	li	a3,9
    80003d4e:	f20007d3          	fmv.d.x	fa5,zero
    80003d52:	02c6e463          	bltu	a3,a2,80003d7a <strtod+0x6c>
    80003d56:	00001797          	auipc	a5,0x1
    80003d5a:	87a7b687          	fld	fa3,-1926(a5) # 800045d0 <key+0x24>
    80003d5e:	4625                	li	a2,9
    80003d60:	00154783          	lbu	a5,1(a0)
    80003d64:	d2070753          	fcvt.d.w	fa4,a4
    80003d68:	0505                	addi	a0,a0,1
    80003d6a:	fd07871b          	addiw	a4,a5,-48
    80003d6e:	0ff77693          	zext.b	a3,a4
    80003d72:	72d7f7c3          	fmadd.d	fa5,fa5,fa3,fa4
    80003d76:	fed675e3          	bgeu	a2,a3,80003d60 <strtod+0x52>
    80003d7a:	02e00713          	li	a4,46
    80003d7e:	0ce78363          	beq	a5,a4,80003e44 <strtod+0x136>
    80003d82:	00054703          	lbu	a4,0(a0)
    80003d86:	0df77713          	andi	a4,a4,223
    80003d8a:	04500793          	li	a5,69
    80003d8e:	22b58753          	fmv.d	fa4,fa1
    80003d92:	04f70163          	beq	a4,a5,80003dd4 <strtod+0xc6>
    80003d96:	12a7f553          	fmul.d	fa0,fa5,fa0
    80003d9a:	12e57553          	fmul.d	fa0,fa0,fa4
    80003d9e:	c191                	beqz	a1,80003da2 <strtod+0x94>
    80003da0:	e188                	sd	a0,0(a1)
    80003da2:	8082                	ret
    80003da4:	0505                	addi	a0,a0,1
    80003da6:	b7bd                	j	80003d14 <strtod+0x6>
    80003da8:	00154783          	lbu	a5,1(a0)
    80003dac:	00001717          	auipc	a4,0x1
    80003db0:	81c73507          	fld	fa0,-2020(a4) # 800045c8 <key+0x1c>
    80003db4:	0505                	addi	a0,a0,1
    80003db6:	00001717          	auipc	a4,0x1
    80003dba:	80a73587          	fld	fa1,-2038(a4) # 800045c0 <key+0x14>
    80003dbe:	b759                	j	80003d44 <strtod+0x36>
    80003dc0:	00001797          	auipc	a5,0x1
    80003dc4:	8007b587          	fld	fa1,-2048(a5) # 800045c0 <key+0x14>
    80003dc8:	00154783          	lbu	a5,1(a0)
    80003dcc:	22b58553          	fmv.d	fa0,fa1
    80003dd0:	0505                	addi	a0,a0,1
    80003dd2:	bf8d                	j	80003d44 <strtod+0x36>
    80003dd4:	00154803          	lbu	a6,1(a0)
    80003dd8:	02d00793          	li	a5,45
    80003ddc:	0cf80363          	beq	a6,a5,80003ea2 <strtod+0x194>
    80003de0:	02b00793          	li	a5,43
    80003de4:	0ef80563          	beq	a6,a5,80003ece <strtod+0x1c0>
    80003de8:	0505                	addi	a0,a0,1
    80003dea:	4705                	li	a4,1
    80003dec:	fd08069b          	addiw	a3,a6,-48
    80003df0:	0ff6f613          	zext.b	a2,a3
    80003df4:	47a5                	li	a5,9
    80003df6:	0ec7e163          	bltu	a5,a2,80003ed8 <strtod+0x1ca>
    80003dfa:	4601                	li	a2,0
    80003dfc:	48a5                	li	a7,9
    80003dfe:	00154803          	lbu	a6,1(a0)
    80003e02:	0026179b          	slliw	a5,a2,0x2
    80003e06:	9fb1                	addw	a5,a5,a2
    80003e08:	0017979b          	slliw	a5,a5,0x1
    80003e0c:	00f6863b          	addw	a2,a3,a5
    80003e10:	fd08069b          	addiw	a3,a6,-48
    80003e14:	0ff6f813          	zext.b	a6,a3
    80003e18:	0505                	addi	a0,a0,1
    80003e1a:	ff08f2e3          	bgeu	a7,a6,80003dfe <strtod+0xf0>
    80003e1e:	02c7073b          	mulw	a4,a4,a2
    80003e22:	08075563          	bgez	a4,80003eac <strtod+0x19e>
    80003e26:	22b58753          	fmv.d	fa4,fa1
    80003e2a:	0017079b          	addiw	a5,a4,1
    80003e2e:	00000717          	auipc	a4,0x0
    80003e32:	7aa73687          	fld	fa3,1962(a4) # 800045d8 <key+0x2c>
    80003e36:	4705                	li	a4,1
    80003e38:	2785                	addiw	a5,a5,1
    80003e3a:	12d77753          	fmul.d	fa4,fa4,fa3
    80003e3e:	fee79de3          	bne	a5,a4,80003e38 <strtod+0x12a>
    80003e42:	bf91                	j	80003d96 <strtod+0x88>
    80003e44:	00154703          	lbu	a4,1(a0)
    80003e48:	46a5                	li	a3,9
    80003e4a:	0505                	addi	a0,a0,1
    80003e4c:	fd07079b          	addiw	a5,a4,-48
    80003e50:	0ff7f613          	zext.b	a2,a5
    80003e54:	f2c6e9e3          	bltu	a3,a2,80003d86 <strtod+0x78>
    80003e58:	d2078753          	fcvt.d.w	fa4,a5
    80003e5c:	4325                	li	t1,9
    80003e5e:	4781                	li	a5,0
    80003e60:	00000717          	auipc	a4,0x0
    80003e64:	77873687          	fld	fa3,1912(a4) # 800045d8 <key+0x2c>
    80003e68:	4685                	li	a3,1
    80003e6a:	00154703          	lbu	a4,1(a0)
    80003e6e:	02e7f7d3          	fadd.d	fa5,fa5,fa4
    80003e72:	0505                	addi	a0,a0,1
    80003e74:	fd07061b          	addiw	a2,a4,-48
    80003e78:	0ff67813          	zext.b	a6,a2
    80003e7c:	0017889b          	addiw	a7,a5,1
    80003e80:	f10363e3          	bltu	t1,a6,80003d86 <strtod+0x78>
    80003e84:	22b58753          	fmv.d	fa4,fa1
    80003e88:	40f007bb          	negw	a5,a5
    80003e8c:	2785                	addiw	a5,a5,1
    80003e8e:	12d77753          	fmul.d	fa4,fa4,fa3
    80003e92:	fed79de3          	bne	a5,a3,80003e8c <strtod+0x17e>
    80003e96:	d2060653          	fcvt.d.w	fa2,a2
    80003e9a:	87c6                	mv	a5,a7
    80003e9c:	12e67753          	fmul.d	fa4,fa2,fa4
    80003ea0:	b7e9                	j	80003e6a <strtod+0x15c>
    80003ea2:	00254803          	lbu	a6,2(a0)
    80003ea6:	577d                	li	a4,-1
    80003ea8:	0509                	addi	a0,a0,2
    80003eaa:	b789                	j	80003dec <strtod+0xde>
    80003eac:	22b58753          	fmv.d	fa4,fa1
    80003eb0:	fff7079b          	addiw	a5,a4,-1
    80003eb4:	ee0701e3          	beqz	a4,80003d96 <strtod+0x88>
    80003eb8:	00000717          	auipc	a4,0x0
    80003ebc:	71873687          	fld	fa3,1816(a4) # 800045d0 <key+0x24>
    80003ec0:	577d                	li	a4,-1
    80003ec2:	37fd                	addiw	a5,a5,-1
    80003ec4:	12d77753          	fmul.d	fa4,fa4,fa3
    80003ec8:	fee79de3          	bne	a5,a4,80003ec2 <strtod+0x1b4>
    80003ecc:	b5e9                	j	80003d96 <strtod+0x88>
    80003ece:	00254803          	lbu	a6,2(a0)
    80003ed2:	4705                	li	a4,1
    80003ed4:	0509                	addi	a0,a0,2
    80003ed6:	bf19                	j	80003dec <strtod+0xde>
    80003ed8:	22b58753          	fmv.d	fa4,fa1
    80003edc:	bd6d                	j	80003d96 <strtod+0x88>

0000000080003ede <atof>:
    80003ede:	4581                	li	a1,0
    80003ee0:	b53d                	j	80003d0e <strtod>

0000000080003ee2 <strtoll>:
    80003ee2:	872a                	mv	a4,a0
    80003ee4:	4811                	li	a6,4
    80003ee6:	02000513          	li	a0,32
    80003eea:	00074683          	lbu	a3,0(a4)
    80003eee:	ff76879b          	addiw	a5,a3,-9
    80003ef2:	0ff7f793          	zext.b	a5,a5
    80003ef6:	04a68963          	beq	a3,a0,80003f48 <strtoll+0x66>
    80003efa:	04f87763          	bgeu	a6,a5,80003f48 <strtoll+0x66>
    80003efe:	02d00793          	li	a5,45
    80003f02:	08f68663          	beq	a3,a5,80003f8e <strtoll+0xac>
    80003f06:	02b00793          	li	a5,43
    80003f0a:	4e01                	li	t3,0
    80003f0c:	06f68d63          	beq	a3,a5,80003f86 <strtoll+0xa4>
    80003f10:	ca39                	beqz	a2,80003f66 <strtoll+0x84>
    80003f12:	47c1                	li	a5,16
    80003f14:	08f60263          	beq	a2,a5,80003f98 <strtoll+0xb6>
    80003f18:	4501                	li	a0,0
    80003f1a:	48a5                	li	a7,9
    80003f1c:	4365                	li	t1,25
    80003f1e:	00074683          	lbu	a3,0(a4)
    80003f22:	fd06879b          	addiw	a5,a3,-48
    80003f26:	f9f6881b          	addiw	a6,a3,-97
    80003f2a:	00f8f863          	bgeu	a7,a5,80003f3a <strtoll+0x58>
    80003f2e:	fbf6879b          	addiw	a5,a3,-65
    80003f32:	01036d63          	bltu	t1,a6,80003f4c <strtoll+0x6a>
    80003f36:	fa96879b          	addiw	a5,a3,-87
    80003f3a:	00c7df63          	bge	a5,a2,80003f58 <strtoll+0x76>
    80003f3e:	02a60533          	mul	a0,a2,a0
    80003f42:	0705                	addi	a4,a4,1
    80003f44:	953e                	add	a0,a0,a5
    80003f46:	bfe1                	j	80003f1e <strtoll+0x3c>
    80003f48:	0705                	addi	a4,a4,1
    80003f4a:	b745                	j	80003eea <strtoll+0x8>
    80003f4c:	00f36663          	bltu	t1,a5,80003f58 <strtoll+0x76>
    80003f50:	fc96879b          	addiw	a5,a3,-55
    80003f54:	fec7c5e3          	blt	a5,a2,80003f3e <strtoll+0x5c>
    80003f58:	c191                	beqz	a1,80003f5c <strtoll+0x7a>
    80003f5a:	e198                	sd	a4,0(a1)
    80003f5c:	000e0463          	beqz	t3,80003f64 <strtoll+0x82>
    80003f60:	40a00533          	neg	a0,a0
    80003f64:	8082                	ret
    80003f66:	03000793          	li	a5,48
    80003f6a:	4629                	li	a2,10
    80003f6c:	faf696e3          	bne	a3,a5,80003f18 <strtoll+0x36>
    80003f70:	00174783          	lbu	a5,1(a4)
    80003f74:	05800693          	li	a3,88
    80003f78:	0df7f793          	andi	a5,a5,223
    80003f7c:	02d78a63          	beq	a5,a3,80003fb0 <strtoll+0xce>
    80003f80:	0705                	addi	a4,a4,1
    80003f82:	4621                	li	a2,8
    80003f84:	bf51                	j	80003f18 <strtoll+0x36>
    80003f86:	00174683          	lbu	a3,1(a4)
    80003f8a:	0705                	addi	a4,a4,1
    80003f8c:	b751                	j	80003f10 <strtoll+0x2e>
    80003f8e:	00174683          	lbu	a3,1(a4)
    80003f92:	4e05                	li	t3,1
    80003f94:	0705                	addi	a4,a4,1
    80003f96:	bfad                	j	80003f10 <strtoll+0x2e>
    80003f98:	03000793          	li	a5,48
    80003f9c:	f6f69ee3          	bne	a3,a5,80003f18 <strtoll+0x36>
    80003fa0:	00174783          	lbu	a5,1(a4)
    80003fa4:	05800693          	li	a3,88
    80003fa8:	0df7f793          	andi	a5,a5,223
    80003fac:	f6d796e3          	bne	a5,a3,80003f18 <strtoll+0x36>
    80003fb0:	0709                	addi	a4,a4,2
    80003fb2:	4641                	li	a2,16
    80003fb4:	b795                	j	80003f18 <strtoll+0x36>

0000000080003fb6 <atoll>:
    80003fb6:	872a                	mv	a4,a0
    80003fb8:	02000613          	li	a2,32
    80003fbc:	4591                	li	a1,4
    80003fbe:	00074683          	lbu	a3,0(a4)
    80003fc2:	ff76879b          	addiw	a5,a3,-9
    80003fc6:	0ff7f793          	zext.b	a5,a5
    80003fca:	04c68b63          	beq	a3,a2,80004020 <atoll+0x6a>
    80003fce:	04f5f963          	bgeu	a1,a5,80004020 <atoll+0x6a>
    80003fd2:	02d00793          	li	a5,45
    80003fd6:	06f68363          	beq	a3,a5,8000403c <atoll+0x86>
    80003fda:	02b00793          	li	a5,43
    80003fde:	04f68363          	beq	a3,a5,80004024 <atoll+0x6e>
    80003fe2:	fd06861b          	addiw	a2,a3,-48
    80003fe6:	0ff67693          	zext.b	a3,a2
    80003fea:	47a5                	li	a5,9
    80003fec:	4801                	li	a6,0
    80003fee:	06d7e263          	bltu	a5,a3,80004052 <atoll+0x9c>
    80003ff2:	4501                	li	a0,0
    80003ff4:	45a5                	li	a1,9
    80003ff6:	00174683          	lbu	a3,1(a4)
    80003ffa:	00251793          	slli	a5,a0,0x2
    80003ffe:	97aa                	add	a5,a5,a0
    80004000:	0006051b          	sext.w	a0,a2
    80004004:	fd06861b          	addiw	a2,a3,-48
    80004008:	0786                	slli	a5,a5,0x1
    8000400a:	0ff67693          	zext.b	a3,a2
    8000400e:	0705                	addi	a4,a4,1
    80004010:	953e                	add	a0,a0,a5
    80004012:	fed5f2e3          	bgeu	a1,a3,80003ff6 <atoll+0x40>
    80004016:	02080f63          	beqz	a6,80004054 <atoll+0x9e>
    8000401a:	40a00533          	neg	a0,a0
    8000401e:	8082                	ret
    80004020:	0705                	addi	a4,a4,1
    80004022:	bf71                	j	80003fbe <atoll+0x8>
    80004024:	00174683          	lbu	a3,1(a4)
    80004028:	47a5                	li	a5,9
    8000402a:	0705                	addi	a4,a4,1
    8000402c:	fd06861b          	addiw	a2,a3,-48
    80004030:	0ff67693          	zext.b	a3,a2
    80004034:	00d7ef63          	bltu	a5,a3,80004052 <atoll+0x9c>
    80004038:	4801                	li	a6,0
    8000403a:	bf65                	j	80003ff2 <atoll+0x3c>
    8000403c:	00174683          	lbu	a3,1(a4)
    80004040:	47a5                	li	a5,9
    80004042:	0705                	addi	a4,a4,1
    80004044:	fd06861b          	addiw	a2,a3,-48
    80004048:	0ff67693          	zext.b	a3,a2
    8000404c:	4805                	li	a6,1
    8000404e:	fad7f2e3          	bgeu	a5,a3,80003ff2 <atoll+0x3c>
    80004052:	4501                	li	a0,0
    80004054:	8082                	ret

Disassembly of section .text.startup:

0000000080004056 <.text.startup>:
    80004056:	1141                	addi	sp,sp,-16
    80004058:	00000517          	auipc	a0,0x0
    8000405c:	1a850513          	addi	a0,a0,424 # 80004200 <Nr+0x188>
    80004060:	e406                	sd	ra,8(sp)
    80004062:	fc6ff0ef          	jal	80003828 <printstr>
    80004066:	60a2                	ld	ra,8(sp)
    80004068:	557d                	li	a0,-1
    8000406a:	0141                	addi	sp,sp,16
    8000406c:	8082                	ret
