
mainop_BASELINE_O2U4.riscv:     file format elf64-littleriscv


Disassembly of section .text.init:

0000000080000000 <_start>:
    80000000:	4081                	li	ra,0
    80000002:	4101                	li	sp,0
    80000004:	4181                	li	gp,0
    80000006:	4201                	li	tp,0
    80000008:	4281                	li	t0,0
    8000000a:	4301                	li	t1,0
    8000000c:	4381                	li	t2,0
    8000000e:	4401                	li	s0,0
    80000010:	4481                	li	s1,0
    80000012:	4501                	li	a0,0
    80000014:	4581                	li	a1,0
    80000016:	4601                	li	a2,0
    80000018:	4681                	li	a3,0
    8000001a:	4701                	li	a4,0
    8000001c:	4781                	li	a5,0
    8000001e:	4801                	li	a6,0
    80000020:	4881                	li	a7,0
    80000022:	4901                	li	s2,0
    80000024:	4981                	li	s3,0
    80000026:	4a01                	li	s4,0
    80000028:	4a81                	li	s5,0
    8000002a:	4b01                	li	s6,0
    8000002c:	4b81                	li	s7,0
    8000002e:	4c01                	li	s8,0
    80000030:	4c81                	li	s9,0
    80000032:	4d01                	li	s10,0
    80000034:	4d81                	li	s11,0
    80000036:	4e01                	li	t3,0
    80000038:	4e81                	li	t4,0
    8000003a:	4f01                	li	t5,0
    8000003c:	4f81                	li	t6,0
    8000003e:	62f9                	lui	t0,0x1e
    80000040:	3002a073          	csrs	mstatus,t0
    80000044:	4285                	li	t0,1
    80000046:	02fe                	slli	t0,t0,0x1f
    80000048:	0002d863          	bgez	t0,80000058 <_start+0x58>
    8000004c:	4505                	li	a0,1
    8000004e:	00001297          	auipc	t0,0x1
    80000052:	faa2a923          	sw	a0,-78(t0) # 80001000 <tohost>
    80000056:	bfdd                	j	8000004c <_start+0x4c>
    80000058:	00000297          	auipc	t0,0x0
    8000005c:	09028293          	addi	t0,t0,144 # 800000e8 <_start+0xe8>
    80000060:	30529073          	csrw	mtvec,t0
    80000064:	00301073          	fscsr	zero
    80000068:	f0000053          	fmv.w.x	ft0,zero
    8000006c:	f00000d3          	fmv.w.x	ft1,zero
    80000070:	f0000153          	fmv.w.x	ft2,zero
    80000074:	f00001d3          	fmv.w.x	ft3,zero
    80000078:	f0000253          	fmv.w.x	ft4,zero
    8000007c:	f00002d3          	fmv.w.x	ft5,zero
    80000080:	f0000353          	fmv.w.x	ft6,zero
    80000084:	f00003d3          	fmv.w.x	ft7,zero
    80000088:	f0000453          	fmv.w.x	fs0,zero
    8000008c:	f00004d3          	fmv.w.x	fs1,zero
    80000090:	f0000553          	fmv.w.x	fa0,zero
    80000094:	f00005d3          	fmv.w.x	fa1,zero
    80000098:	f0000653          	fmv.w.x	fa2,zero
    8000009c:	f00006d3          	fmv.w.x	fa3,zero
    800000a0:	f0000753          	fmv.w.x	fa4,zero
    800000a4:	f00007d3          	fmv.w.x	fa5,zero
    800000a8:	f0000853          	fmv.w.x	fa6,zero
    800000ac:	f00008d3          	fmv.w.x	fa7,zero
    800000b0:	f0000953          	fmv.w.x	fs2,zero
    800000b4:	f00009d3          	fmv.w.x	fs3,zero
    800000b8:	f0000a53          	fmv.w.x	fs4,zero
    800000bc:	f0000ad3          	fmv.w.x	fs5,zero
    800000c0:	f0000b53          	fmv.w.x	fs6,zero
    800000c4:	f0000bd3          	fmv.w.x	fs7,zero
    800000c8:	f0000c53          	fmv.w.x	fs8,zero
    800000cc:	f0000cd3          	fmv.w.x	fs9,zero
    800000d0:	f0000d53          	fmv.w.x	fs10,zero
    800000d4:	f0000dd3          	fmv.w.x	fs11,zero
    800000d8:	f0000e53          	fmv.w.x	ft8,zero
    800000dc:	f0000ed3          	fmv.w.x	ft9,zero
    800000e0:	f0000f53          	fmv.w.x	ft10,zero
    800000e4:	f0000fd3          	fmv.w.x	ft11,zero
    800000e8:	00000297          	auipc	t0,0x0
    800000ec:	03c28293          	addi	t0,t0,60 # 80000124 <trap_entry>
    800000f0:	30529073          	csrw	mtvec,t0
    800000f4:	0000c197          	auipc	gp,0xc
    800000f8:	df418193          	addi	gp,gp,-524 # 8000bee8 <__global_pointer$>
    800000fc:	00011217          	auipc	tp,0x11
    80000100:	44320213          	addi	tp,tp,1091 # 8001153f <_end+0x3f>
    80000104:	fc027213          	andi	tp,tp,-64
    80000108:	f1402573          	csrr	a0,mhartid
    8000010c:	4585                	li	a1,1
    8000010e:	00b57063          	bgeu	a0,a1,8000010e <_start+0x10e>
    80000112:	00150113          	addi	sp,a0,1
    80000116:	0146                	slli	sp,sp,0x11
    80000118:	9112                	add	sp,sp,tp
    8000011a:	01151613          	slli	a2,a0,0x11
    8000011e:	9232                	add	tp,tp,a2
    80000120:	5730a06f          	j	8000ae92 <_init>

0000000080000124 <trap_entry>:
    80000124:	716d                	addi	sp,sp,-272
    80000126:	e406                	sd	ra,8(sp)
    80000128:	e80a                	sd	sp,16(sp)
    8000012a:	ec0e                	sd	gp,24(sp)
    8000012c:	f012                	sd	tp,32(sp)
    8000012e:	f416                	sd	t0,40(sp)
    80000130:	f81a                	sd	t1,48(sp)
    80000132:	fc1e                	sd	t2,56(sp)
    80000134:	e0a2                	sd	s0,64(sp)
    80000136:	e4a6                	sd	s1,72(sp)
    80000138:	e8aa                	sd	a0,80(sp)
    8000013a:	ecae                	sd	a1,88(sp)
    8000013c:	f0b2                	sd	a2,96(sp)
    8000013e:	f4b6                	sd	a3,104(sp)
    80000140:	f8ba                	sd	a4,112(sp)
    80000142:	fcbe                	sd	a5,120(sp)
    80000144:	e142                	sd	a6,128(sp)
    80000146:	e546                	sd	a7,136(sp)
    80000148:	e94a                	sd	s2,144(sp)
    8000014a:	ed4e                	sd	s3,152(sp)
    8000014c:	f152                	sd	s4,160(sp)
    8000014e:	f556                	sd	s5,168(sp)
    80000150:	f95a                	sd	s6,176(sp)
    80000152:	fd5e                	sd	s7,184(sp)
    80000154:	e1e2                	sd	s8,192(sp)
    80000156:	e5e6                	sd	s9,200(sp)
    80000158:	e9ea                	sd	s10,208(sp)
    8000015a:	edee                	sd	s11,216(sp)
    8000015c:	f1f2                	sd	t3,224(sp)
    8000015e:	f5f6                	sd	t4,232(sp)
    80000160:	f9fa                	sd	t5,240(sp)
    80000162:	fdfe                	sd	t6,248(sp)
    80000164:	34202573          	csrr	a0,mcause
    80000168:	341025f3          	csrr	a1,mepc
    8000016c:	860a                	mv	a2,sp
    8000016e:	35d0a0ef          	jal	8000acca <handle_trap>
    80000172:	34151073          	csrw	mepc,a0
    80000176:	6289                	lui	t0,0x2
    80000178:	8002829b          	addiw	t0,t0,-2048 # 1800 <buflen.1+0x17c0>
    8000017c:	3002a073          	csrs	mstatus,t0
    80000180:	60a2                	ld	ra,8(sp)
    80000182:	6142                	ld	sp,16(sp)
    80000184:	61e2                	ld	gp,24(sp)
    80000186:	7202                	ld	tp,32(sp)
    80000188:	72a2                	ld	t0,40(sp)
    8000018a:	7342                	ld	t1,48(sp)
    8000018c:	73e2                	ld	t2,56(sp)
    8000018e:	6406                	ld	s0,64(sp)
    80000190:	64a6                	ld	s1,72(sp)
    80000192:	6546                	ld	a0,80(sp)
    80000194:	65e6                	ld	a1,88(sp)
    80000196:	7606                	ld	a2,96(sp)
    80000198:	76a6                	ld	a3,104(sp)
    8000019a:	7746                	ld	a4,112(sp)
    8000019c:	77e6                	ld	a5,120(sp)
    8000019e:	680a                	ld	a6,128(sp)
    800001a0:	68aa                	ld	a7,136(sp)
    800001a2:	694a                	ld	s2,144(sp)
    800001a4:	69ea                	ld	s3,152(sp)
    800001a6:	7a0a                	ld	s4,160(sp)
    800001a8:	7aaa                	ld	s5,168(sp)
    800001aa:	7b4a                	ld	s6,176(sp)
    800001ac:	7bea                	ld	s7,184(sp)
    800001ae:	6c0e                	ld	s8,192(sp)
    800001b0:	6cae                	ld	s9,200(sp)
    800001b2:	6d4e                	ld	s10,208(sp)
    800001b4:	6dee                	ld	s11,216(sp)
    800001b6:	7e0e                	ld	t3,224(sp)
    800001b8:	7eae                	ld	t4,232(sp)
    800001ba:	7f4e                	ld	t5,240(sp)
    800001bc:	7fee                	ld	t6,248(sp)
    800001be:	6151                	addi	sp,sp,272
    800001c0:	30200073          	mret
    800001c4:	0000                	unimp

Disassembly of section .text:

0000000080002000 <d2ull>:
    80002000:	e2050553          	fmv.x.d	a0,fa0
    80002004:	8082                	ret

0000000080002006 <ull2d>:
    80002006:	f2050553          	fmv.d.x	fa0,a0
    8000200a:	8082                	ret

000000008000200c <PickResult>:
    8000200c:	058e                	slli	a1,a1,0x3
    8000200e:	952e                	add	a0,a0,a1
    80002010:	6108                	ld	a0,0(a0)
    80002012:	8082                	ret

0000000080002014 <Impl_conv1d>:
    80002014:	4601                	li	a2,0
    80002016:	4281                	li	t0,0
    80002018:	04053883          	ld	a7,64(a0)
    8000201c:	06050793          	addi	a5,a0,96
    80002020:	4821                	li	a6,8
    80002022:	00c886bb          	addw	a3,a7,a2
    80002026:	0076f713          	andi	a4,a3,7
    8000202a:	070e                	slli	a4,a4,0x3
    8000202c:	972a                	add	a4,a4,a0
    8000202e:	00073303          	ld	t1,0(a4)
    80002032:	fe87b383          	ld	t2,-24(a5)
    80002036:	0016871b          	addiw	a4,a3,1
    8000203a:	8b1d                	andi	a4,a4,7
    8000203c:	070e                	slli	a4,a4,0x3
    8000203e:	972a                	add	a4,a4,a0
    80002040:	00073e03          	ld	t3,0(a4)
    80002044:	ff07b703          	ld	a4,-16(a5)
    80002048:	02638333          	mul	t1,t2,t1
    8000204c:	03c703b3          	mul	t2,a4,t3
    80002050:	0026871b          	addiw	a4,a3,2
    80002054:	8b1d                	andi	a4,a4,7
    80002056:	070e                	slli	a4,a4,0x3
    80002058:	972a                	add	a4,a4,a0
    8000205a:	00073e03          	ld	t3,0(a4)
    8000205e:	ff87be83          	ld	t4,-8(a5)
    80002062:	268d                	addiw	a3,a3,3
    80002064:	8a9d                	andi	a3,a3,7
    80002066:	068e                	slli	a3,a3,0x3
    80002068:	96aa                	add	a3,a3,a0
    8000206a:	6294                	ld	a3,0(a3)
    8000206c:	6398                	ld	a4,0(a5)
    8000206e:	03ce8e33          	mul	t3,t4,t3
    80002072:	02d706b3          	mul	a3,a4,a3
    80002076:	00530733          	add	a4,t1,t0
    8000207a:	971e                	add	a4,a4,t2
    8000207c:	9772                	add	a4,a4,t3
    8000207e:	00e682b3          	add	t0,a3,a4
    80002082:	0611                	addi	a2,a2,4
    80002084:	02078793          	addi	a5,a5,32
    80002088:	f9061de3          	bne	a2,a6,80002022 <Impl_conv1d+0xe>
    8000208c:	0055b023          	sd	t0,0(a1)
    80002090:	8082                	ret

0000000080002092 <OP_conv1d>:
    80002092:	7171                	addi	sp,sp,-176
    80002094:	f522                	sd	s0,168(sp)
    80002096:	f126                	sd	s1,160(sp)
    80002098:	ed4a                	sd	s2,152(sp)
    8000209a:	e94e                	sd	s3,144(sp)
    8000209c:	e552                	sd	s4,136(sp)
    8000209e:	4281                	li	t0,0
    800020a0:	4381                	li	t2,0
    800020a2:	736a                	ld	t1,184(sp)
    800020a4:	7e6e                	ld	t3,248(sp)
    800020a6:	7ece                	ld	t4,240(sp)
    800020a8:	7f2e                	ld	t5,232(sp)
    800020aa:	7f8e                	ld	t6,224(sp)
    800020ac:	696e                	ld	s2,216(sp)
    800020ae:	69ce                	ld	s3,208(sp)
    800020b0:	6a2e                	ld	s4,200(sp)
    800020b2:	648e                	ld	s1,192(sp)
    800020b4:	e02e                	sd	a1,0(sp)
    800020b6:	744a                	ld	s0,176(sp)
    800020b8:	e432                	sd	a2,8(sp)
    800020ba:	108c                	addi	a1,sp,96
    800020bc:	e836                	sd	a3,16(sp)
    800020be:	ec3a                	sd	a4,24(sp)
    800020c0:	f03e                	sd	a5,32(sp)
    800020c2:	f442                	sd	a6,40(sp)
    800020c4:	f846                	sd	a7,48(sp)
    800020c6:	fc22                	sd	s0,56(sp)
    800020c8:	e09a                	sd	t1,64(sp)
    800020ca:	e4a6                	sd	s1,72(sp)
    800020cc:	e8d2                	sd	s4,80(sp)
    800020ce:	ecce                	sd	s3,88(sp)
    800020d0:	f0ca                	sd	s2,96(sp)
    800020d2:	f4fe                	sd	t6,104(sp)
    800020d4:	f8fa                	sd	t5,112(sp)
    800020d6:	fcf6                	sd	t4,120(sp)
    800020d8:	e172                	sd	t3,128(sp)
    800020da:	888a                	mv	a7,sp
    800020dc:	4821                	li	a6,8
    800020de:	0053073b          	addw	a4,t1,t0
    800020e2:	00777793          	andi	a5,a4,7
    800020e6:	078e                	slli	a5,a5,0x3
    800020e8:	97c6                	add	a5,a5,a7
    800020ea:	639c                	ld	a5,0(a5)
    800020ec:	fe85b483          	ld	s1,-24(a1)
    800020f0:	0017041b          	addiw	s0,a4,1
    800020f4:	881d                	andi	s0,s0,7
    800020f6:	040e                	slli	s0,s0,0x3
    800020f8:	9446                	add	s0,s0,a7
    800020fa:	6000                	ld	s0,0(s0)
    800020fc:	ff05b683          	ld	a3,-16(a1)
    80002100:	02f487b3          	mul	a5,s1,a5
    80002104:	028686b3          	mul	a3,a3,s0
    80002108:	0027049b          	addiw	s1,a4,2
    8000210c:	889d                	andi	s1,s1,7
    8000210e:	048e                	slli	s1,s1,0x3
    80002110:	94c6                	add	s1,s1,a7
    80002112:	6084                	ld	s1,0(s1)
    80002114:	ff85b403          	ld	s0,-8(a1)
    80002118:	270d                	addiw	a4,a4,3
    8000211a:	8b1d                	andi	a4,a4,7
    8000211c:	070e                	slli	a4,a4,0x3
    8000211e:	9746                	add	a4,a4,a7
    80002120:	6318                	ld	a4,0(a4)
    80002122:	6190                	ld	a2,0(a1)
    80002124:	029404b3          	mul	s1,s0,s1
    80002128:	02e60633          	mul	a2,a2,a4
    8000212c:	00778733          	add	a4,a5,t2
    80002130:	96ba                	add	a3,a3,a4
    80002132:	96a6                	add	a3,a3,s1
    80002134:	00c683b3          	add	t2,a3,a2
    80002138:	0291                	addi	t0,t0,4
    8000213a:	02058593          	addi	a1,a1,32
    8000213e:	fb0290e3          	bne	t0,a6,800020de <OP_conv1d+0x4c>
    80002142:	00753023          	sd	t2,0(a0)
    80002146:	742a                	ld	s0,168(sp)
    80002148:	748a                	ld	s1,160(sp)
    8000214a:	696a                	ld	s2,152(sp)
    8000214c:	69ca                	ld	s3,144(sp)
    8000214e:	6a2a                	ld	s4,136(sp)
    80002150:	614d                	addi	sp,sp,176
    80002152:	8082                	ret

0000000080002154 <main>:
    80002154:	710d                	addi	sp,sp,-352
    80002156:	ee86                	sd	ra,344(sp)
    80002158:	eaa2                	sd	s0,336(sp)
    8000215a:	e6a6                	sd	s1,328(sp)
    8000215c:	e2ca                	sd	s2,320(sp)
    8000215e:	fe4e                	sd	s3,312(sp)
    80002160:	fa52                	sd	s4,304(sp)
    80002162:	f656                	sd	s5,296(sp)
    80002164:	f25a                	sd	s6,288(sp)
    80002166:	ee5e                	sd	s7,280(sp)
    80002168:	ea62                	sd	s8,272(sp)
    8000216a:	e666                	sd	s9,264(sp)
    8000216c:	e26a                	sd	s10,256(sp)
    8000216e:	fdee                	sd	s11,248(sp)
    80002170:	4701                	li	a4,0
    80002172:	82018513          	addi	a0,gp,-2016 # 8000b708 <gen2+0x1d0>
    80002176:	610c                	ld	a1,0(a0)
    80002178:	83018813          	addi	a6,gp,-2000 # 8000b718 <gen1>
    8000217c:	00083683          	ld	a3,0(a6)
    80002180:	00009e17          	auipc	t3,0x9
    80002184:	5a8e0e13          	addi	t3,t3,1448 # 8000b728 <input>
    80002188:	82818613          	addi	a2,gp,-2008 # 8000b710 <gen2+0x1d8>
    8000218c:	6210                	ld	a2,0(a2)
    8000218e:	3b9ad7b7          	lui	a5,0x3b9ad
    80002192:	a077829b          	addiw	t0,a5,-1529 # 3b9aca07 <buflen.1+0x3b9ac9c7>
    80002196:	40000893          	li	a7,1024
    8000219a:	02b68533          	mul	a0,a3,a1
    8000219e:	02c53433          	mulhu	s0,a0,a2
    800021a2:	8075                	srli	s0,s0,0x1d
    800021a4:	02540433          	mul	s0,s0,t0
    800021a8:	8d01                	sub	a0,a0,s0
    800021aa:	02b50433          	mul	s0,a0,a1
    800021ae:	02c434b3          	mulhu	s1,s0,a2
    800021b2:	80f5                	srli	s1,s1,0x1d
    800021b4:	025484b3          	mul	s1,s1,t0
    800021b8:	409404b3          	sub	s1,s0,s1
    800021bc:	02b48433          	mul	s0,s1,a1
    800021c0:	02c437b3          	mulhu	a5,s0,a2
    800021c4:	83f5                	srli	a5,a5,0x1d
    800021c6:	025787b3          	mul	a5,a5,t0
    800021ca:	00b68333          	add	t1,a3,a1
    800021ce:	40f407b3          	sub	a5,s0,a5
    800021d2:	02b78433          	mul	s0,a5,a1
    800021d6:	00ee06b3          	add	a3,t3,a4
    800021da:	0066b023          	sd	t1,0(a3)
    800021de:	952e                	add	a0,a0,a1
    800021e0:	02c43333          	mulhu	t1,s0,a2
    800021e4:	e688                	sd	a0,8(a3)
    800021e6:	00b48533          	add	a0,s1,a1
    800021ea:	ea88                	sd	a0,16(a3)
    800021ec:	01d35513          	srli	a0,t1,0x1d
    800021f0:	02550533          	mul	a0,a0,t0
    800021f4:	97ae                	add	a5,a5,a1
    800021f6:	ee9c                	sd	a5,24(a3)
    800021f8:	02070713          	addi	a4,a4,32
    800021fc:	40a406b3          	sub	a3,s0,a0
    80002200:	f9171de3          	bne	a4,a7,8000219a <main+0x46>
    80002204:	4701                	li	a4,0
    80002206:	3b9ad537          	lui	a0,0x3b9ad
    8000220a:	a075029b          	addiw	t0,a0,-1529 # 3b9aca07 <buflen.1+0x3b9ac9c7>
    8000220e:	40000893          	li	a7,1024
    80002212:	02b68433          	mul	s0,a3,a1
    80002216:	02c43533          	mulhu	a0,s0,a2
    8000221a:	8175                	srli	a0,a0,0x1d
    8000221c:	02550533          	mul	a0,a0,t0
    80002220:	40a40533          	sub	a0,s0,a0
    80002224:	02b50433          	mul	s0,a0,a1
    80002228:	02c434b3          	mulhu	s1,s0,a2
    8000222c:	80f5                	srli	s1,s1,0x1d
    8000222e:	025484b3          	mul	s1,s1,t0
    80002232:	409404b3          	sub	s1,s0,s1
    80002236:	02b48433          	mul	s0,s1,a1
    8000223a:	02c437b3          	mulhu	a5,s0,a2
    8000223e:	83f5                	srli	a5,a5,0x1d
    80002240:	025787b3          	mul	a5,a5,t0
    80002244:	00b68333          	add	t1,a3,a1
    80002248:	40f407b3          	sub	a5,s0,a5
    8000224c:	02b78433          	mul	s0,a5,a1
    80002250:	00ee06b3          	add	a3,t3,a4
    80002254:	4066b023          	sd	t1,1024(a3)
    80002258:	952e                	add	a0,a0,a1
    8000225a:	02c43333          	mulhu	t1,s0,a2
    8000225e:	40a6b423          	sd	a0,1032(a3)
    80002262:	00b48533          	add	a0,s1,a1
    80002266:	40a6b823          	sd	a0,1040(a3)
    8000226a:	01d35513          	srli	a0,t1,0x1d
    8000226e:	02550533          	mul	a0,a0,t0
    80002272:	97ae                	add	a5,a5,a1
    80002274:	40f6bc23          	sd	a5,1048(a3)
    80002278:	02070713          	addi	a4,a4,32
    8000227c:	40a406b3          	sub	a3,s0,a0
    80002280:	f91719e3          	bne	a4,a7,80002212 <main+0xbe>
    80002284:	7ffe0893          	addi	a7,t3,2047
    80002288:	01988793          	addi	a5,a7,25
    8000228c:	08000493          	li	s1,128
    80002290:	3b9ad537          	lui	a0,0x3b9ad
    80002294:	a075029b          	addiw	t0,a0,-1529 # 3b9aca07 <buflen.1+0x3b9ac9c7>
    80002298:	02b68533          	mul	a0,a3,a1
    8000229c:	02c53733          	mulhu	a4,a0,a2
    800022a0:	8375                	srli	a4,a4,0x1d
    800022a2:	02570733          	mul	a4,a4,t0
    800022a6:	40e50333          	sub	t1,a0,a4
    800022aa:	02b30733          	mul	a4,t1,a1
    800022ae:	02c73433          	mulhu	s0,a4,a2
    800022b2:	8075                	srli	s0,s0,0x1d
    800022b4:	02540433          	mul	s0,s0,t0
    800022b8:	8f01                	sub	a4,a4,s0
    800022ba:	02b70433          	mul	s0,a4,a1
    800022be:	02c43533          	mulhu	a0,s0,a2
    800022c2:	8175                	srli	a0,a0,0x1d
    800022c4:	02550533          	mul	a0,a0,t0
    800022c8:	40a40533          	sub	a0,s0,a0
    800022cc:	02b50433          	mul	s0,a0,a1
    800022d0:	96ae                	add	a3,a3,a1
    800022d2:	fed7b423          	sd	a3,-24(a5)
    800022d6:	02c433b3          	mulhu	t2,s0,a2
    800022da:	00b306b3          	add	a3,t1,a1
    800022de:	fed7b823          	sd	a3,-16(a5)
    800022e2:	00b706b3          	add	a3,a4,a1
    800022e6:	01d3d713          	srli	a4,t2,0x1d
    800022ea:	02570733          	mul	a4,a4,t0
    800022ee:	fed7bc23          	sd	a3,-8(a5)
    800022f2:	952e                	add	a0,a0,a1
    800022f4:	e388                	sd	a0,0(a5)
    800022f6:	40e406b3          	sub	a3,s0,a4
    800022fa:	14f1                	addi	s1,s1,-4
    800022fc:	02078793          	addi	a5,a5,32
    80002300:	fcc1                	bnez	s1,80002298 <main+0x144>
    80002302:	41988713          	addi	a4,a7,1049
    80002306:	08000793          	li	a5,128
    8000230a:	3b9ad537          	lui	a0,0x3b9ad
    8000230e:	a075089b          	addiw	a7,a0,-1529 # 3b9aca07 <buflen.1+0x3b9ac9c7>
    80002312:	02b68533          	mul	a0,a3,a1
    80002316:	02c53433          	mulhu	s0,a0,a2
    8000231a:	8075                	srli	s0,s0,0x1d
    8000231c:	03140433          	mul	s0,s0,a7
    80002320:	408502b3          	sub	t0,a0,s0
    80002324:	02b28433          	mul	s0,t0,a1
    80002328:	02c434b3          	mulhu	s1,s0,a2
    8000232c:	80f5                	srli	s1,s1,0x1d
    8000232e:	031484b3          	mul	s1,s1,a7
    80002332:	409404b3          	sub	s1,s0,s1
    80002336:	02b48433          	mul	s0,s1,a1
    8000233a:	02c43533          	mulhu	a0,s0,a2
    8000233e:	8175                	srli	a0,a0,0x1d
    80002340:	03150533          	mul	a0,a0,a7
    80002344:	40a40533          	sub	a0,s0,a0
    80002348:	02b50433          	mul	s0,a0,a1
    8000234c:	96ae                	add	a3,a3,a1
    8000234e:	fed73423          	sd	a3,-24(a4)
    80002352:	02c43333          	mulhu	t1,s0,a2
    80002356:	00b286b3          	add	a3,t0,a1
    8000235a:	fed73823          	sd	a3,-16(a4)
    8000235e:	00b486b3          	add	a3,s1,a1
    80002362:	01d35493          	srli	s1,t1,0x1d
    80002366:	031484b3          	mul	s1,s1,a7
    8000236a:	fed73c23          	sd	a3,-8(a4)
    8000236e:	952e                	add	a0,a0,a1
    80002370:	e308                	sd	a0,0(a4)
    80002372:	409406b3          	sub	a3,s0,s1
    80002376:	17f1                	addi	a5,a5,-4
    80002378:	02070713          	addi	a4,a4,32
    8000237c:	fbd9                	bnez	a5,80002312 <main+0x1be>
    8000237e:	6505                	lui	a0,0x1
    80002380:	2561                	addiw	a0,a0,24 # 1018 <buflen.1+0xfd8>
    80002382:	00ae0733          	add	a4,t3,a0
    80002386:	08000793          	li	a5,128
    8000238a:	3b9ad537          	lui	a0,0x3b9ad
    8000238e:	a075089b          	addiw	a7,a0,-1529 # 3b9aca07 <buflen.1+0x3b9ac9c7>
    80002392:	02b68533          	mul	a0,a3,a1
    80002396:	02c53433          	mulhu	s0,a0,a2
    8000239a:	8075                	srli	s0,s0,0x1d
    8000239c:	03140433          	mul	s0,s0,a7
    800023a0:	408502b3          	sub	t0,a0,s0
    800023a4:	02b28433          	mul	s0,t0,a1
    800023a8:	02c434b3          	mulhu	s1,s0,a2
    800023ac:	80f5                	srli	s1,s1,0x1d
    800023ae:	031484b3          	mul	s1,s1,a7
    800023b2:	409404b3          	sub	s1,s0,s1
    800023b6:	02b48433          	mul	s0,s1,a1
    800023ba:	02c43533          	mulhu	a0,s0,a2
    800023be:	8175                	srli	a0,a0,0x1d
    800023c0:	03150533          	mul	a0,a0,a7
    800023c4:	40a40533          	sub	a0,s0,a0
    800023c8:	02b50433          	mul	s0,a0,a1
    800023cc:	96ae                	add	a3,a3,a1
    800023ce:	fed73423          	sd	a3,-24(a4)
    800023d2:	02c43333          	mulhu	t1,s0,a2
    800023d6:	00b286b3          	add	a3,t0,a1
    800023da:	fed73823          	sd	a3,-16(a4)
    800023de:	00b486b3          	add	a3,s1,a1
    800023e2:	01d35493          	srli	s1,t1,0x1d
    800023e6:	031484b3          	mul	s1,s1,a7
    800023ea:	fed73c23          	sd	a3,-8(a4)
    800023ee:	952e                	add	a0,a0,a1
    800023f0:	e308                	sd	a0,0(a4)
    800023f2:	409406b3          	sub	a3,s0,s1
    800023f6:	17f1                	addi	a5,a5,-4
    800023f8:	02070713          	addi	a4,a4,32
    800023fc:	fbd9                	bnez	a5,80002392 <main+0x23e>
    800023fe:	6505                	lui	a0,0x1
    80002400:	4185051b          	addiw	a0,a0,1048 # 1418 <buflen.1+0x13d8>
    80002404:	00ae0733          	add	a4,t3,a0
    80002408:	08000793          	li	a5,128
    8000240c:	3b9ad537          	lui	a0,0x3b9ad
    80002410:	a075089b          	addiw	a7,a0,-1529 # 3b9aca07 <buflen.1+0x3b9ac9c7>
    80002414:	02b68533          	mul	a0,a3,a1
    80002418:	02c53433          	mulhu	s0,a0,a2
    8000241c:	8075                	srli	s0,s0,0x1d
    8000241e:	03140433          	mul	s0,s0,a7
    80002422:	408502b3          	sub	t0,a0,s0
    80002426:	02b28433          	mul	s0,t0,a1
    8000242a:	02c434b3          	mulhu	s1,s0,a2
    8000242e:	80f5                	srli	s1,s1,0x1d
    80002430:	031484b3          	mul	s1,s1,a7
    80002434:	409404b3          	sub	s1,s0,s1
    80002438:	02b48433          	mul	s0,s1,a1
    8000243c:	02c43533          	mulhu	a0,s0,a2
    80002440:	8175                	srli	a0,a0,0x1d
    80002442:	03150533          	mul	a0,a0,a7
    80002446:	40a40533          	sub	a0,s0,a0
    8000244a:	02b50433          	mul	s0,a0,a1
    8000244e:	96ae                	add	a3,a3,a1
    80002450:	fed73423          	sd	a3,-24(a4)
    80002454:	02c43333          	mulhu	t1,s0,a2
    80002458:	00b286b3          	add	a3,t0,a1
    8000245c:	fed73823          	sd	a3,-16(a4)
    80002460:	00b486b3          	add	a3,s1,a1
    80002464:	01d35493          	srli	s1,t1,0x1d
    80002468:	031484b3          	mul	s1,s1,a7
    8000246c:	fed73c23          	sd	a3,-8(a4)
    80002470:	952e                	add	a0,a0,a1
    80002472:	e308                	sd	a0,0(a4)
    80002474:	409406b3          	sub	a3,s0,s1
    80002478:	17f1                	addi	a5,a5,-4
    8000247a:	02070713          	addi	a4,a4,32
    8000247e:	fbd9                	bnez	a5,80002414 <main+0x2c0>
    80002480:	6509                	lui	a0,0x2
    80002482:	8185051b          	addiw	a0,a0,-2024 # 1818 <buflen.1+0x17d8>
    80002486:	00ae0733          	add	a4,t3,a0
    8000248a:	08000793          	li	a5,128
    8000248e:	3b9ad537          	lui	a0,0x3b9ad
    80002492:	a075089b          	addiw	a7,a0,-1529 # 3b9aca07 <buflen.1+0x3b9ac9c7>
    80002496:	02b68533          	mul	a0,a3,a1
    8000249a:	02c53433          	mulhu	s0,a0,a2
    8000249e:	8075                	srli	s0,s0,0x1d
    800024a0:	03140433          	mul	s0,s0,a7
    800024a4:	408502b3          	sub	t0,a0,s0
    800024a8:	02b28433          	mul	s0,t0,a1
    800024ac:	02c434b3          	mulhu	s1,s0,a2
    800024b0:	80f5                	srli	s1,s1,0x1d
    800024b2:	031484b3          	mul	s1,s1,a7
    800024b6:	409404b3          	sub	s1,s0,s1
    800024ba:	02b48433          	mul	s0,s1,a1
    800024be:	02c43533          	mulhu	a0,s0,a2
    800024c2:	8175                	srli	a0,a0,0x1d
    800024c4:	03150533          	mul	a0,a0,a7
    800024c8:	40a40533          	sub	a0,s0,a0
    800024cc:	02b50433          	mul	s0,a0,a1
    800024d0:	96ae                	add	a3,a3,a1
    800024d2:	fed73423          	sd	a3,-24(a4)
    800024d6:	02c43333          	mulhu	t1,s0,a2
    800024da:	00b286b3          	add	a3,t0,a1
    800024de:	fed73823          	sd	a3,-16(a4)
    800024e2:	00b486b3          	add	a3,s1,a1
    800024e6:	01d35493          	srli	s1,t1,0x1d
    800024ea:	031484b3          	mul	s1,s1,a7
    800024ee:	fed73c23          	sd	a3,-8(a4)
    800024f2:	952e                	add	a0,a0,a1
    800024f4:	e308                	sd	a0,0(a4)
    800024f6:	409406b3          	sub	a3,s0,s1
    800024fa:	17f1                	addi	a5,a5,-4
    800024fc:	02070713          	addi	a4,a4,32
    80002500:	fbd9                	bnez	a5,80002496 <main+0x342>
    80002502:	6509                	lui	a0,0x2
    80002504:	c185051b          	addiw	a0,a0,-1000 # 1c18 <buflen.1+0x1bd8>
    80002508:	00ae0733          	add	a4,t3,a0
    8000250c:	08000793          	li	a5,128
    80002510:	3b9ad537          	lui	a0,0x3b9ad
    80002514:	a075089b          	addiw	a7,a0,-1529 # 3b9aca07 <buflen.1+0x3b9ac9c7>
    80002518:	02b68533          	mul	a0,a3,a1
    8000251c:	02c53433          	mulhu	s0,a0,a2
    80002520:	8075                	srli	s0,s0,0x1d
    80002522:	03140433          	mul	s0,s0,a7
    80002526:	408502b3          	sub	t0,a0,s0
    8000252a:	02b28433          	mul	s0,t0,a1
    8000252e:	02c434b3          	mulhu	s1,s0,a2
    80002532:	80f5                	srli	s1,s1,0x1d
    80002534:	031484b3          	mul	s1,s1,a7
    80002538:	409404b3          	sub	s1,s0,s1
    8000253c:	02b48433          	mul	s0,s1,a1
    80002540:	02c43533          	mulhu	a0,s0,a2
    80002544:	8175                	srli	a0,a0,0x1d
    80002546:	03150533          	mul	a0,a0,a7
    8000254a:	40a40533          	sub	a0,s0,a0
    8000254e:	02b50433          	mul	s0,a0,a1
    80002552:	96ae                	add	a3,a3,a1
    80002554:	fed73423          	sd	a3,-24(a4)
    80002558:	02c43333          	mulhu	t1,s0,a2
    8000255c:	00b286b3          	add	a3,t0,a1
    80002560:	fed73823          	sd	a3,-16(a4)
    80002564:	00b486b3          	add	a3,s1,a1
    80002568:	01d35493          	srli	s1,t1,0x1d
    8000256c:	031484b3          	mul	s1,s1,a7
    80002570:	fed73c23          	sd	a3,-8(a4)
    80002574:	952e                	add	a0,a0,a1
    80002576:	e308                	sd	a0,0(a4)
    80002578:	409406b3          	sub	a3,s0,s1
    8000257c:	17f1                	addi	a5,a5,-4
    8000257e:	02070713          	addi	a4,a4,32
    80002582:	fbd9                	bnez	a5,80002518 <main+0x3c4>
    80002584:	6509                	lui	a0,0x2
    80002586:	2561                	addiw	a0,a0,24 # 2018 <buflen.1+0x1fd8>
    80002588:	00ae0733          	add	a4,t3,a0
    8000258c:	08000793          	li	a5,128
    80002590:	3b9ad537          	lui	a0,0x3b9ad
    80002594:	a075089b          	addiw	a7,a0,-1529 # 3b9aca07 <buflen.1+0x3b9ac9c7>
    80002598:	02b68533          	mul	a0,a3,a1
    8000259c:	02c53433          	mulhu	s0,a0,a2
    800025a0:	8075                	srli	s0,s0,0x1d
    800025a2:	03140433          	mul	s0,s0,a7
    800025a6:	408502b3          	sub	t0,a0,s0
    800025aa:	02b28433          	mul	s0,t0,a1
    800025ae:	02c434b3          	mulhu	s1,s0,a2
    800025b2:	80f5                	srli	s1,s1,0x1d
    800025b4:	031484b3          	mul	s1,s1,a7
    800025b8:	409404b3          	sub	s1,s0,s1
    800025bc:	02b48433          	mul	s0,s1,a1
    800025c0:	02c43533          	mulhu	a0,s0,a2
    800025c4:	8175                	srli	a0,a0,0x1d
    800025c6:	03150533          	mul	a0,a0,a7
    800025ca:	40a40533          	sub	a0,s0,a0
    800025ce:	02b50433          	mul	s0,a0,a1
    800025d2:	96ae                	add	a3,a3,a1
    800025d4:	fed73423          	sd	a3,-24(a4)
    800025d8:	02c43333          	mulhu	t1,s0,a2
    800025dc:	00b286b3          	add	a3,t0,a1
    800025e0:	fed73823          	sd	a3,-16(a4)
    800025e4:	00b486b3          	add	a3,s1,a1
    800025e8:	01d35493          	srli	s1,t1,0x1d
    800025ec:	031484b3          	mul	s1,s1,a7
    800025f0:	fed73c23          	sd	a3,-8(a4)
    800025f4:	952e                	add	a0,a0,a1
    800025f6:	e308                	sd	a0,0(a4)
    800025f8:	409406b3          	sub	a3,s0,s1
    800025fc:	17f1                	addi	a5,a5,-4
    800025fe:	02070713          	addi	a4,a4,32
    80002602:	fbd9                	bnez	a5,80002598 <main+0x444>
    80002604:	6509                	lui	a0,0x2
    80002606:	4185051b          	addiw	a0,a0,1048 # 2418 <buflen.1+0x23d8>
    8000260a:	00ae0733          	add	a4,t3,a0
    8000260e:	08000793          	li	a5,128
    80002612:	3b9ad537          	lui	a0,0x3b9ad
    80002616:	a075089b          	addiw	a7,a0,-1529 # 3b9aca07 <buflen.1+0x3b9ac9c7>
    8000261a:	02b68533          	mul	a0,a3,a1
    8000261e:	02c53433          	mulhu	s0,a0,a2
    80002622:	8075                	srli	s0,s0,0x1d
    80002624:	03140433          	mul	s0,s0,a7
    80002628:	408502b3          	sub	t0,a0,s0
    8000262c:	02b28433          	mul	s0,t0,a1
    80002630:	02c434b3          	mulhu	s1,s0,a2
    80002634:	80f5                	srli	s1,s1,0x1d
    80002636:	031484b3          	mul	s1,s1,a7
    8000263a:	409404b3          	sub	s1,s0,s1
    8000263e:	02b48433          	mul	s0,s1,a1
    80002642:	02c43533          	mulhu	a0,s0,a2
    80002646:	8175                	srli	a0,a0,0x1d
    80002648:	03150533          	mul	a0,a0,a7
    8000264c:	40a40533          	sub	a0,s0,a0
    80002650:	02b50433          	mul	s0,a0,a1
    80002654:	96ae                	add	a3,a3,a1
    80002656:	fed73423          	sd	a3,-24(a4)
    8000265a:	02c43333          	mulhu	t1,s0,a2
    8000265e:	00b286b3          	add	a3,t0,a1
    80002662:	fed73823          	sd	a3,-16(a4)
    80002666:	00b486b3          	add	a3,s1,a1
    8000266a:	01d35493          	srli	s1,t1,0x1d
    8000266e:	031484b3          	mul	s1,s1,a7
    80002672:	fed73c23          	sd	a3,-8(a4)
    80002676:	952e                	add	a0,a0,a1
    80002678:	e308                	sd	a0,0(a4)
    8000267a:	409406b3          	sub	a3,s0,s1
    8000267e:	17f1                	addi	a5,a5,-4
    80002680:	02070713          	addi	a4,a4,32
    80002684:	fbd9                	bnez	a5,8000261a <main+0x4c6>
    80002686:	650d                	lui	a0,0x3
    80002688:	8185051b          	addiw	a0,a0,-2024 # 2818 <buflen.1+0x27d8>
    8000268c:	00ae0733          	add	a4,t3,a0
    80002690:	08000793          	li	a5,128
    80002694:	3b9ad537          	lui	a0,0x3b9ad
    80002698:	a075089b          	addiw	a7,a0,-1529 # 3b9aca07 <buflen.1+0x3b9ac9c7>
    8000269c:	02b68533          	mul	a0,a3,a1
    800026a0:	02c53433          	mulhu	s0,a0,a2
    800026a4:	8075                	srli	s0,s0,0x1d
    800026a6:	03140433          	mul	s0,s0,a7
    800026aa:	408502b3          	sub	t0,a0,s0
    800026ae:	02b28433          	mul	s0,t0,a1
    800026b2:	02c434b3          	mulhu	s1,s0,a2
    800026b6:	80f5                	srli	s1,s1,0x1d
    800026b8:	031484b3          	mul	s1,s1,a7
    800026bc:	409404b3          	sub	s1,s0,s1
    800026c0:	02b48433          	mul	s0,s1,a1
    800026c4:	02c43533          	mulhu	a0,s0,a2
    800026c8:	8175                	srli	a0,a0,0x1d
    800026ca:	03150533          	mul	a0,a0,a7
    800026ce:	40a40533          	sub	a0,s0,a0
    800026d2:	02b50433          	mul	s0,a0,a1
    800026d6:	96ae                	add	a3,a3,a1
    800026d8:	fed73423          	sd	a3,-24(a4)
    800026dc:	02c43333          	mulhu	t1,s0,a2
    800026e0:	00b286b3          	add	a3,t0,a1
    800026e4:	fed73823          	sd	a3,-16(a4)
    800026e8:	00b486b3          	add	a3,s1,a1
    800026ec:	01d35493          	srli	s1,t1,0x1d
    800026f0:	031484b3          	mul	s1,s1,a7
    800026f4:	fed73c23          	sd	a3,-8(a4)
    800026f8:	952e                	add	a0,a0,a1
    800026fa:	e308                	sd	a0,0(a4)
    800026fc:	409406b3          	sub	a3,s0,s1
    80002700:	17f1                	addi	a5,a5,-4
    80002702:	02070713          	addi	a4,a4,32
    80002706:	fbd9                	bnez	a5,8000269c <main+0x548>
    80002708:	650d                	lui	a0,0x3
    8000270a:	c185051b          	addiw	a0,a0,-1000 # 2c18 <buflen.1+0x2bd8>
    8000270e:	00ae0733          	add	a4,t3,a0
    80002712:	08000793          	li	a5,128
    80002716:	3b9ad537          	lui	a0,0x3b9ad
    8000271a:	a075089b          	addiw	a7,a0,-1529 # 3b9aca07 <buflen.1+0x3b9ac9c7>
    8000271e:	02b68533          	mul	a0,a3,a1
    80002722:	02c53433          	mulhu	s0,a0,a2
    80002726:	8075                	srli	s0,s0,0x1d
    80002728:	03140433          	mul	s0,s0,a7
    8000272c:	408502b3          	sub	t0,a0,s0
    80002730:	02b28433          	mul	s0,t0,a1
    80002734:	02c434b3          	mulhu	s1,s0,a2
    80002738:	80f5                	srli	s1,s1,0x1d
    8000273a:	031484b3          	mul	s1,s1,a7
    8000273e:	409404b3          	sub	s1,s0,s1
    80002742:	02b48433          	mul	s0,s1,a1
    80002746:	02c43533          	mulhu	a0,s0,a2
    8000274a:	8175                	srli	a0,a0,0x1d
    8000274c:	03150533          	mul	a0,a0,a7
    80002750:	40a40533          	sub	a0,s0,a0
    80002754:	02b50433          	mul	s0,a0,a1
    80002758:	96ae                	add	a3,a3,a1
    8000275a:	fed73423          	sd	a3,-24(a4)
    8000275e:	02c43333          	mulhu	t1,s0,a2
    80002762:	00b286b3          	add	a3,t0,a1
    80002766:	fed73823          	sd	a3,-16(a4)
    8000276a:	00b486b3          	add	a3,s1,a1
    8000276e:	01d35493          	srli	s1,t1,0x1d
    80002772:	031484b3          	mul	s1,s1,a7
    80002776:	fed73c23          	sd	a3,-8(a4)
    8000277a:	952e                	add	a0,a0,a1
    8000277c:	e308                	sd	a0,0(a4)
    8000277e:	409406b3          	sub	a3,s0,s1
    80002782:	17f1                	addi	a5,a5,-4
    80002784:	02070713          	addi	a4,a4,32
    80002788:	fbd9                	bnez	a5,8000271e <main+0x5ca>
    8000278a:	0000c297          	auipc	t0,0xc
    8000278e:	f9e28293          	addi	t0,t0,-98 # 8000e728 <kernel>
    80002792:	3b9ad537          	lui	a0,0x3b9ad
    80002796:	a075031b          	addiw	t1,a0,-1529 # 3b9aca07 <buflen.1+0x3b9ac9c7>
    8000279a:	04000893          	li	a7,64
    8000279e:	02b68533          	mul	a0,a3,a1
    800027a2:	02c53433          	mulhu	s0,a0,a2
    800027a6:	8075                	srli	s0,s0,0x1d
    800027a8:	02640433          	mul	s0,s0,t1
    800027ac:	8d01                	sub	a0,a0,s0
    800027ae:	02b50433          	mul	s0,a0,a1
    800027b2:	02c43733          	mulhu	a4,s0,a2
    800027b6:	8375                	srli	a4,a4,0x1d
    800027b8:	02670733          	mul	a4,a4,t1
    800027bc:	40e40733          	sub	a4,s0,a4
    800027c0:	02b70433          	mul	s0,a4,a1
    800027c4:	02c434b3          	mulhu	s1,s0,a2
    800027c8:	80f5                	srli	s1,s1,0x1d
    800027ca:	026484b3          	mul	s1,s1,t1
    800027ce:	00b683b3          	add	t2,a3,a1
    800027d2:	409404b3          	sub	s1,s0,s1
    800027d6:	02b48433          	mul	s0,s1,a1
    800027da:	00f286b3          	add	a3,t0,a5
    800027de:	0076b023          	sd	t2,0(a3)
    800027e2:	952e                	add	a0,a0,a1
    800027e4:	02c433b3          	mulhu	t2,s0,a2
    800027e8:	e688                	sd	a0,8(a3)
    800027ea:	00b70533          	add	a0,a4,a1
    800027ee:	ea88                	sd	a0,16(a3)
    800027f0:	01d3d513          	srli	a0,t2,0x1d
    800027f4:	02650533          	mul	a0,a0,t1
    800027f8:	00b48733          	add	a4,s1,a1
    800027fc:	ee98                	sd	a4,24(a3)
    800027fe:	02078793          	addi	a5,a5,32
    80002802:	40a406b3          	sub	a3,s0,a0
    80002806:	f9179ce3          	bne	a5,a7,8000279e <main+0x64a>
    8000280a:	4d01                	li	s10,0
    8000280c:	00d83023          	sd	a3,0(a6)
    80002810:	b0002573          	csrr	a0,mcycle
    80002814:	e42a                	sd	a0,8(sp)
    80002816:	0002b083          	ld	ra,0(t0)
    8000281a:	0082b503          	ld	a0,8(t0)
    8000281e:	f4aa                	sd	a0,104(sp)
    80002820:	0102b503          	ld	a0,16(t0)
    80002824:	f0aa                	sd	a0,96(sp)
    80002826:	0182b503          	ld	a0,24(t0)
    8000282a:	ecaa                	sd	a0,88(sp)
    8000282c:	0202b503          	ld	a0,32(t0)
    80002830:	e8aa                	sd	a0,80(sp)
    80002832:	0282b503          	ld	a0,40(t0)
    80002836:	e4aa                	sd	a0,72(sp)
    80002838:	0302b503          	ld	a0,48(t0)
    8000283c:	e0aa                	sd	a0,64(sp)
    8000283e:	0382b503          	ld	a0,56(t0)
    80002842:	fc2a                	sd	a0,56(sp)
    80002844:	0d010c93          	addi	s9,sp,208
    80002848:	0a010a93          	addi	s5,sp,160
    8000284c:	0a810f93          	addi	t6,sp,168
    80002850:	07010293          	addi	t0,sp,112
    80002854:	4a21                	li	s4,8
    80002856:	5901                	li	s2,-32
    80002858:	5da1                	li	s11,-24
    8000285a:	59e1                	li	s3,-8
    8000285c:	fc000893          	li	a7,-64
    80002860:	ec72                	sd	t3,24(sp)
    80002862:	f406                	sd	ra,40(sp)
    80002864:	4501                	li	a0,0
    80002866:	00ad1593          	slli	a1,s10,0xa
    8000286a:	00be0eb3          	add	t4,t3,a1
    8000286e:	000eb583          	ld	a1,0(t4)
    80002872:	008ebf03          	ld	t5,8(t4)
    80002876:	010eb383          	ld	t2,16(t4)
    8000287a:	018ebe03          	ld	t3,24(t4)
    8000287e:	020ebc03          	ld	s8,32(t4)
    80002882:	028ebb03          	ld	s6,40(t4)
    80002886:	030eb303          	ld	t1,48(t4)
    8000288a:	038ebb83          	ld	s7,56(t4)
    8000288e:	f8ae                	sd	a1,112(sp)
    80002890:	fcfa                	sd	t5,120(sp)
    80002892:	e11e                	sd	t2,128(sp)
    80002894:	e572                	sd	t3,136(sp)
    80002896:	e962                	sd	s8,144(sp)
    80002898:	ed5a                	sd	s6,152(sp)
    8000289a:	f11a                	sd	t1,160(sp)
    8000289c:	f55e                	sd	s7,168(sp)
    8000289e:	f902                	sd	zero,176(sp)
    800028a0:	fd06                	sd	ra,184(sp)
    800028a2:	75a6                	ld	a1,104(sp)
    800028a4:	e1ae                	sd	a1,192(sp)
    800028a6:	7586                	ld	a1,96(sp)
    800028a8:	e5ae                	sd	a1,200(sp)
    800028aa:	65e6                	ld	a1,88(sp)
    800028ac:	e9ae                	sd	a1,208(sp)
    800028ae:	65c6                	ld	a1,80(sp)
    800028b0:	edae                	sd	a1,216(sp)
    800028b2:	65a6                	ld	a1,72(sp)
    800028b4:	f1ae                	sd	a1,224(sp)
    800028b6:	6586                	ld	a1,64(sp)
    800028b8:	f5ae                	sd	a1,232(sp)
    800028ba:	75e2                	ld	a1,56(sp)
    800028bc:	f9ae                	sd	a1,240(sp)
    800028be:	45c1                	li	a1,16
    800028c0:	05000813          	li	a6,80
    800028c4:	00b286b3          	add	a3,t0,a1
    800028c8:	ff06b783          	ld	a5,-16(a3)
    800028cc:	7e80                	ld	s0,56(a3)
    800028ce:	02f407b3          	mul	a5,s0,a5
    800028d2:	ff86b403          	ld	s0,-8(a3)
    800028d6:	62b8                	ld	a4,64(a3)
    800028d8:	6290                	ld	a2,0(a3)
    800028da:	66a4                	ld	s1,72(a3)
    800028dc:	02870733          	mul	a4,a4,s0
    800028e0:	02c48633          	mul	a2,s1,a2
    800028e4:	6684                	ld	s1,8(a3)
    800028e6:	6ab4                	ld	a3,80(a3)
    800028e8:	953e                	add	a0,a0,a5
    800028ea:	029686b3          	mul	a3,a3,s1
    800028ee:	953a                	add	a0,a0,a4
    800028f0:	9532                	add	a0,a0,a2
    800028f2:	02058593          	addi	a1,a1,32
    800028f6:	9536                	add	a0,a0,a3
    800028f8:	fd0596e3          	bne	a1,a6,800028c4 <main+0x770>
    800028fc:	f06a                	sd	s10,32(sp)
    800028fe:	3c800593          	li	a1,968
    80002902:	02bd05b3          	mul	a1,s10,a1
    80002906:	4681                	li	a3,0
    80002908:	4401                	li	s0,0
    8000290a:	0000c617          	auipc	a2,0xc
    8000290e:	e5e60613          	addi	a2,a2,-418 # 8000e768 <output>
    80002912:	e832                	sd	a2,16(sp)
    80002914:	95b2                	add	a1,a1,a2
    80002916:	040eb803          	ld	a6,64(t4)
    8000291a:	f82e                	sd	a1,48(sp)
    8000291c:	e188                	sd	a0,0(a1)
    8000291e:	f8c2                	sd	a6,112(sp)
    80002920:	fcfa                	sd	t5,120(sp)
    80002922:	e11e                	sd	t2,128(sp)
    80002924:	e572                	sd	t3,136(sp)
    80002926:	e962                	sd	s8,144(sp)
    80002928:	ed5a                	sd	s6,152(sp)
    8000292a:	f11a                	sd	t1,160(sp)
    8000292c:	f55e                	sd	s7,168(sp)
    8000292e:	4505                	li	a0,1
    80002930:	f92a                	sd	a0,176(sp)
    80002932:	fd06                	sd	ra,184(sp)
    80002934:	7526                	ld	a0,104(sp)
    80002936:	e1aa                	sd	a0,192(sp)
    80002938:	7506                	ld	a0,96(sp)
    8000293a:	e5aa                	sd	a0,200(sp)
    8000293c:	6566                	ld	a0,88(sp)
    8000293e:	e9aa                	sd	a0,208(sp)
    80002940:	6546                	ld	a0,80(sp)
    80002942:	edaa                	sd	a0,216(sp)
    80002944:	6526                	ld	a0,72(sp)
    80002946:	f1aa                	sd	a0,224(sp)
    80002948:	6506                	ld	a0,64(sp)
    8000294a:	f5aa                	sd	a0,232(sp)
    8000294c:	7562                	ld	a0,56(sp)
    8000294e:	f9aa                	sd	a0,240(sp)
    80002950:	1928                	addi	a0,sp,184
    80002952:	fc053583          	ld	a1,-64(a0)
    80002956:	6118                	ld	a4,0(a0)
    80002958:	fc853783          	ld	a5,-56(a0)
    8000295c:	6504                	ld	s1,8(a0)
    8000295e:	02b70f33          	mul	t5,a4,a1
    80002962:	02f48733          	mul	a4,s1,a5
    80002966:	fd053783          	ld	a5,-48(a0)
    8000296a:	6904                	ld	s1,16(a0)
    8000296c:	0046c613          	xori	a2,a3,4
    80002970:	060e                	slli	a2,a2,0x3
    80002972:	9616                	add	a2,a2,t0
    80002974:	6210                	ld	a2,0(a2)
    80002976:	6d0c                	ld	a1,24(a0)
    80002978:	02f487b3          	mul	a5,s1,a5
    8000297c:	02c585b3          	mul	a1,a1,a2
    80002980:	008f0633          	add	a2,t5,s0
    80002984:	963a                	add	a2,a2,a4
    80002986:	963e                	add	a2,a2,a5
    80002988:	00b60433          	add	s0,a2,a1
    8000298c:	0691                	addi	a3,a3,4
    8000298e:	02050513          	addi	a0,a0,32
    80002992:	fd4690e3          	bne	a3,s4,80002952 <main+0x7fe>
    80002996:	4501                	li	a0,0
    80002998:	4681                	li	a3,0
    8000299a:	75c2                	ld	a1,48(sp)
    8000299c:	e580                	sd	s0,8(a1)
    8000299e:	048ebf03          	ld	t5,72(t4)
    800029a2:	f8c2                	sd	a6,112(sp)
    800029a4:	fcfa                	sd	t5,120(sp)
    800029a6:	e11e                	sd	t2,128(sp)
    800029a8:	e572                	sd	t3,136(sp)
    800029aa:	e962                	sd	s8,144(sp)
    800029ac:	ed5a                	sd	s6,152(sp)
    800029ae:	f11a                	sd	t1,160(sp)
    800029b0:	f55e                	sd	s7,168(sp)
    800029b2:	4589                	li	a1,2
    800029b4:	f92e                	sd	a1,176(sp)
    800029b6:	fd06                	sd	ra,184(sp)
    800029b8:	75a6                	ld	a1,104(sp)
    800029ba:	e1ae                	sd	a1,192(sp)
    800029bc:	7586                	ld	a1,96(sp)
    800029be:	e5ae                	sd	a1,200(sp)
    800029c0:	65e6                	ld	a1,88(sp)
    800029c2:	e9ae                	sd	a1,208(sp)
    800029c4:	65c6                	ld	a1,80(sp)
    800029c6:	edae                	sd	a1,216(sp)
    800029c8:	65a6                	ld	a1,72(sp)
    800029ca:	f1ae                	sd	a1,224(sp)
    800029cc:	6586                	ld	a1,64(sp)
    800029ce:	f5ae                	sd	a1,232(sp)
    800029d0:	75e2                	ld	a1,56(sp)
    800029d2:	f9ae                	sd	a1,240(sp)
    800029d4:	85e6                	mv	a1,s9
    800029d6:	093c                	addi	a5,sp,152
    800029d8:	fb05b603          	ld	a2,-80(a1)
    800029dc:	fe85b703          	ld	a4,-24(a1)
    800029e0:	fb85b483          	ld	s1,-72(a1)
    800029e4:	ff05b403          	ld	s0,-16(a1)
    800029e8:	02c703b3          	mul	t2,a4,a2
    800029ec:	02940d33          	mul	s10,s0,s1
    800029f0:	00454493          	xori	s1,a0,4
    800029f4:	048e                	slli	s1,s1,0x3
    800029f6:	9496                	add	s1,s1,t0
    800029f8:	6084                	ld	s1,0(s1)
    800029fa:	ff85b403          	ld	s0,-8(a1)
    800029fe:	6390                	ld	a2,0(a5)
    80002a00:	6198                	ld	a4,0(a1)
    80002a02:	02940433          	mul	s0,s0,s1
    80002a06:	02c70633          	mul	a2,a4,a2
    80002a0a:	969e                	add	a3,a3,t2
    80002a0c:	96ea                	add	a3,a3,s10
    80002a0e:	96a2                	add	a3,a3,s0
    80002a10:	96b2                	add	a3,a3,a2
    80002a12:	0511                	addi	a0,a0,4
    80002a14:	1781                	addi	a5,a5,-32
    80002a16:	02058593          	addi	a1,a1,32
    80002a1a:	fb451fe3          	bne	a0,s4,800029d8 <main+0x884>
    80002a1e:	4501                	li	a0,0
    80002a20:	4d01                	li	s10,0
    80002a22:	75c2                	ld	a1,48(sp)
    80002a24:	e994                	sd	a3,16(a1)
    80002a26:	050eb383          	ld	t2,80(t4)
    80002a2a:	f8c2                	sd	a6,112(sp)
    80002a2c:	fcfa                	sd	t5,120(sp)
    80002a2e:	e11e                	sd	t2,128(sp)
    80002a30:	e572                	sd	t3,136(sp)
    80002a32:	e962                	sd	s8,144(sp)
    80002a34:	ed5a                	sd	s6,152(sp)
    80002a36:	f11a                	sd	t1,160(sp)
    80002a38:	f55e                	sd	s7,168(sp)
    80002a3a:	458d                	li	a1,3
    80002a3c:	f92e                	sd	a1,176(sp)
    80002a3e:	fd06                	sd	ra,184(sp)
    80002a40:	75a6                	ld	a1,104(sp)
    80002a42:	e1ae                	sd	a1,192(sp)
    80002a44:	7586                	ld	a1,96(sp)
    80002a46:	e5ae                	sd	a1,200(sp)
    80002a48:	65e6                	ld	a1,88(sp)
    80002a4a:	e9ae                	sd	a1,208(sp)
    80002a4c:	65c6                	ld	a1,80(sp)
    80002a4e:	edae                	sd	a1,216(sp)
    80002a50:	65a6                	ld	a1,72(sp)
    80002a52:	f1ae                	sd	a1,224(sp)
    80002a54:	6586                	ld	a1,64(sp)
    80002a56:	f5ae                	sd	a1,232(sp)
    80002a58:	75e2                	ld	a1,56(sp)
    80002a5a:	f9ae                	sd	a1,240(sp)
    80002a5c:	fc000593          	li	a1,-64
    80002a60:	86d6                	mv	a3,s5
    80002a62:	00ba8633          	add	a2,s5,a1
    80002a66:	7618                	ld	a4,40(a2)
    80002a68:	6e3c                	ld	a5,88(a2)
    80002a6a:	00454493          	xori	s1,a0,4
    80002a6e:	048e                	slli	s1,s1,0x3
    80002a70:	9496                	add	s1,s1,t0
    80002a72:	6084                	ld	s1,0(s1)
    80002a74:	7220                	ld	s0,96(a2)
    80002a76:	02e78e33          	mul	t3,a5,a4
    80002a7a:	029407b3          	mul	a5,s0,s1
    80002a7e:	ff86b483          	ld	s1,-8(a3)
    80002a82:	7620                	ld	s0,104(a2)
    80002a84:	6298                	ld	a4,0(a3)
    80002a86:	7a30                	ld	a2,112(a2)
    80002a88:	02940433          	mul	s0,s0,s1
    80002a8c:	02e60633          	mul	a2,a2,a4
    80002a90:	01ae0733          	add	a4,t3,s10
    80002a94:	973e                	add	a4,a4,a5
    80002a96:	9722                	add	a4,a4,s0
    80002a98:	00c70d33          	add	s10,a4,a2
    80002a9c:	0511                	addi	a0,a0,4
    80002a9e:	02058593          	addi	a1,a1,32
    80002aa2:	1681                	addi	a3,a3,-32
    80002aa4:	fddd                	bnez	a1,80002a62 <main+0x90e>
    80002aa6:	4081                	li	ra,0
    80002aa8:	7542                	ld	a0,48(sp)
    80002aaa:	01a53c23          	sd	s10,24(a0)
    80002aae:	058ebe03          	ld	t3,88(t4)
    80002ab2:	f8c2                	sd	a6,112(sp)
    80002ab4:	fcfa                	sd	t5,120(sp)
    80002ab6:	e11e                	sd	t2,128(sp)
    80002ab8:	e572                	sd	t3,136(sp)
    80002aba:	e962                	sd	s8,144(sp)
    80002abc:	ed5a                	sd	s6,152(sp)
    80002abe:	f11a                	sd	t1,160(sp)
    80002ac0:	f55e                	sd	s7,168(sp)
    80002ac2:	4511                	li	a0,4
    80002ac4:	f92a                	sd	a0,176(sp)
    80002ac6:	7522                	ld	a0,40(sp)
    80002ac8:	fd2a                	sd	a0,184(sp)
    80002aca:	7526                	ld	a0,104(sp)
    80002acc:	e1aa                	sd	a0,192(sp)
    80002ace:	7506                	ld	a0,96(sp)
    80002ad0:	e5aa                	sd	a0,200(sp)
    80002ad2:	6566                	ld	a0,88(sp)
    80002ad4:	e9aa                	sd	a0,208(sp)
    80002ad6:	6546                	ld	a0,80(sp)
    80002ad8:	edaa                	sd	a0,216(sp)
    80002ada:	6526                	ld	a0,72(sp)
    80002adc:	f1aa                	sd	a0,224(sp)
    80002ade:	6506                	ld	a0,64(sp)
    80002ae0:	f5aa                	sd	a0,232(sp)
    80002ae2:	7562                	ld	a0,56(sp)
    80002ae4:	f9aa                	sd	a0,240(sp)
    80002ae6:	02000513          	li	a0,32
    80002aea:	86e6                	mv	a3,s9
    80002aec:	00ac8633          	add	a2,s9,a0
    80002af0:	fa063703          	ld	a4,-96(a2)
    80002af4:	fe86b783          	ld	a5,-24(a3)
    80002af8:	fa863403          	ld	s0,-88(a2)
    80002afc:	ff06b483          	ld	s1,-16(a3)
    80002b00:	02e78733          	mul	a4,a5,a4
    80002b04:	028487b3          	mul	a5,s1,s0
    80002b08:	fb063403          	ld	s0,-80(a2)
    80002b0c:	ff86b483          	ld	s1,-8(a3)
    80002b10:	fb863603          	ld	a2,-72(a2)
    80002b14:	628c                	ld	a1,0(a3)
    80002b16:	02848433          	mul	s0,s1,s0
    80002b1a:	02c585b3          	mul	a1,a1,a2
    80002b1e:	00170633          	add	a2,a4,ra
    80002b22:	963e                	add	a2,a2,a5
    80002b24:	9622                	add	a2,a2,s0
    80002b26:	00b600b3          	add	ra,a2,a1
    80002b2a:	1501                	addi	a0,a0,-32
    80002b2c:	02068693          	addi	a3,a3,32
    80002b30:	fb251ee3          	bne	a0,s2,80002aec <main+0x998>
    80002b34:	4c01                	li	s8,0
    80002b36:	7542                	ld	a0,48(sp)
    80002b38:	02153023          	sd	ra,32(a0)
    80002b3c:	060ebd03          	ld	s10,96(t4)
    80002b40:	f8c2                	sd	a6,112(sp)
    80002b42:	fcfa                	sd	t5,120(sp)
    80002b44:	e11e                	sd	t2,128(sp)
    80002b46:	e572                	sd	t3,136(sp)
    80002b48:	e96a                	sd	s10,144(sp)
    80002b4a:	ed5a                	sd	s6,152(sp)
    80002b4c:	f11a                	sd	t1,160(sp)
    80002b4e:	f55e                	sd	s7,168(sp)
    80002b50:	4515                	li	a0,5
    80002b52:	f92a                	sd	a0,176(sp)
    80002b54:	70a2                	ld	ra,40(sp)
    80002b56:	fd06                	sd	ra,184(sp)
    80002b58:	7526                	ld	a0,104(sp)
    80002b5a:	e1aa                	sd	a0,192(sp)
    80002b5c:	7506                	ld	a0,96(sp)
    80002b5e:	e5aa                	sd	a0,200(sp)
    80002b60:	6566                	ld	a0,88(sp)
    80002b62:	e9aa                	sd	a0,208(sp)
    80002b64:	6546                	ld	a0,80(sp)
    80002b66:	edaa                	sd	a0,216(sp)
    80002b68:	6526                	ld	a0,72(sp)
    80002b6a:	f1aa                	sd	a0,224(sp)
    80002b6c:	6506                	ld	a0,64(sp)
    80002b6e:	f5aa                	sd	a0,232(sp)
    80002b70:	7562                	ld	a0,56(sp)
    80002b72:	f9aa                	sd	a0,240(sp)
    80002b74:	02800593          	li	a1,40
    80002b78:	06000693          	li	a3,96
    80002b7c:	00b28633          	add	a2,t0,a1
    80002b80:	6218                	ld	a4,0(a2)
    80002b82:	00d287b3          	add	a5,t0,a3
    80002b86:	fe87b403          	ld	s0,-24(a5)
    80002b8a:	6604                	ld	s1,8(a2)
    80002b8c:	ff07b503          	ld	a0,-16(a5)
    80002b90:	02e40733          	mul	a4,s0,a4
    80002b94:	02950533          	mul	a0,a0,s1
    80002b98:	6a10                	ld	a2,16(a2)
    80002b9a:	ff87b403          	ld	s0,-8(a5)
    80002b9e:	fa07b483          	ld	s1,-96(a5)
    80002ba2:	639c                	ld	a5,0(a5)
    80002ba4:	02c40633          	mul	a2,s0,a2
    80002ba8:	029787b3          	mul	a5,a5,s1
    80002bac:	9762                	add	a4,a4,s8
    80002bae:	953a                	add	a0,a0,a4
    80002bb0:	9532                	add	a0,a0,a2
    80002bb2:	00f50c33          	add	s8,a0,a5
    80002bb6:	1581                	addi	a1,a1,-32
    80002bb8:	02068693          	addi	a3,a3,32
    80002bbc:	fdb590e3          	bne	a1,s11,80002b7c <main+0xa28>
    80002bc0:	4b01                	li	s6,0
    80002bc2:	7542                	ld	a0,48(sp)
    80002bc4:	03853423          	sd	s8,40(a0)
    80002bc8:	068ebc03          	ld	s8,104(t4)
    80002bcc:	f8c2                	sd	a6,112(sp)
    80002bce:	fcfa                	sd	t5,120(sp)
    80002bd0:	e11e                	sd	t2,128(sp)
    80002bd2:	e572                	sd	t3,136(sp)
    80002bd4:	e96a                	sd	s10,144(sp)
    80002bd6:	ed62                	sd	s8,152(sp)
    80002bd8:	f11a                	sd	t1,160(sp)
    80002bda:	f55e                	sd	s7,168(sp)
    80002bdc:	4519                	li	a0,6
    80002bde:	f92a                	sd	a0,176(sp)
    80002be0:	fd06                	sd	ra,184(sp)
    80002be2:	7526                	ld	a0,104(sp)
    80002be4:	e1aa                	sd	a0,192(sp)
    80002be6:	7506                	ld	a0,96(sp)
    80002be8:	e5aa                	sd	a0,200(sp)
    80002bea:	6566                	ld	a0,88(sp)
    80002bec:	e9aa                	sd	a0,208(sp)
    80002bee:	6546                	ld	a0,80(sp)
    80002bf0:	edaa                	sd	a0,216(sp)
    80002bf2:	6526                	ld	a0,72(sp)
    80002bf4:	f1aa                	sd	a0,224(sp)
    80002bf6:	6506                	ld	a0,64(sp)
    80002bf8:	f5aa                	sd	a0,232(sp)
    80002bfa:	7562                	ld	a0,56(sp)
    80002bfc:	f9aa                	sd	a0,240(sp)
    80002bfe:	fc000513          	li	a0,-64
    80002c02:	86fe                	mv	a3,t6
    80002c04:	ff86b603          	ld	a2,-8(a3)
    80002c08:	00aa8733          	add	a4,s5,a0
    80002c0c:	6f3c                	ld	a5,88(a4)
    80002c0e:	6284                	ld	s1,0(a3)
    80002c10:	7320                	ld	s0,96(a4)
    80002c12:	02c78633          	mul	a2,a5,a2
    80002c16:	029407b3          	mul	a5,s0,s1
    80002c1a:	6b04                	ld	s1,16(a4)
    80002c1c:	7720                	ld	s0,104(a4)
    80002c1e:	6f0c                	ld	a1,24(a4)
    80002c20:	7b38                	ld	a4,112(a4)
    80002c22:	029404b3          	mul	s1,s0,s1
    80002c26:	02b705b3          	mul	a1,a4,a1
    80002c2a:	965a                	add	a2,a2,s6
    80002c2c:	963e                	add	a2,a2,a5
    80002c2e:	9626                	add	a2,a2,s1
    80002c30:	00b60b33          	add	s6,a2,a1
    80002c34:	02050513          	addi	a0,a0,32
    80002c38:	1681                	addi	a3,a3,-32
    80002c3a:	f569                	bnez	a0,80002c04 <main+0xab0>
    80002c3c:	4301                	li	t1,0
    80002c3e:	7542                	ld	a0,48(sp)
    80002c40:	03653823          	sd	s6,48(a0)
    80002c44:	070ebb03          	ld	s6,112(t4)
    80002c48:	f8c2                	sd	a6,112(sp)
    80002c4a:	fcfa                	sd	t5,120(sp)
    80002c4c:	e11e                	sd	t2,128(sp)
    80002c4e:	e572                	sd	t3,136(sp)
    80002c50:	e96a                	sd	s10,144(sp)
    80002c52:	ed62                	sd	s8,152(sp)
    80002c54:	f15a                	sd	s6,160(sp)
    80002c56:	f55e                	sd	s7,168(sp)
    80002c58:	451d                	li	a0,7
    80002c5a:	f92a                	sd	a0,176(sp)
    80002c5c:	fd06                	sd	ra,184(sp)
    80002c5e:	7526                	ld	a0,104(sp)
    80002c60:	e1aa                	sd	a0,192(sp)
    80002c62:	7506                	ld	a0,96(sp)
    80002c64:	e5aa                	sd	a0,200(sp)
    80002c66:	6566                	ld	a0,88(sp)
    80002c68:	e9aa                	sd	a0,208(sp)
    80002c6a:	6546                	ld	a0,80(sp)
    80002c6c:	edaa                	sd	a0,216(sp)
    80002c6e:	6526                	ld	a0,72(sp)
    80002c70:	f1aa                	sd	a0,224(sp)
    80002c72:	6506                	ld	a0,64(sp)
    80002c74:	f5aa                	sd	a0,232(sp)
    80002c76:	7562                	ld	a0,56(sp)
    80002c78:	f9aa                	sd	a0,240(sp)
    80002c7a:	03800593          	li	a1,56
    80002c7e:	06000693          	li	a3,96
    80002c82:	00b28633          	add	a2,t0,a1
    80002c86:	6210                	ld	a2,0(a2)
    80002c88:	00d28733          	add	a4,t0,a3
    80002c8c:	fe873783          	ld	a5,-24(a4)
    80002c90:	fa073483          	ld	s1,-96(a4)
    80002c94:	ff073403          	ld	s0,-16(a4)
    80002c98:	02c78633          	mul	a2,a5,a2
    80002c9c:	029407b3          	mul	a5,s0,s1
    80002ca0:	fa873483          	ld	s1,-88(a4)
    80002ca4:	ff873403          	ld	s0,-8(a4)
    80002ca8:	fb073503          	ld	a0,-80(a4)
    80002cac:	6318                	ld	a4,0(a4)
    80002cae:	02940433          	mul	s0,s0,s1
    80002cb2:	02a70533          	mul	a0,a4,a0
    80002cb6:	961a                	add	a2,a2,t1
    80002cb8:	963e                	add	a2,a2,a5
    80002cba:	9622                	add	a2,a2,s0
    80002cbc:	00a60333          	add	t1,a2,a0
    80002cc0:	1581                	addi	a1,a1,-32
    80002cc2:	02068693          	addi	a3,a3,32
    80002cc6:	fb359ee3          	bne	a1,s3,80002c82 <main+0xb2e>
    80002cca:	4581                	li	a1,0
    80002ccc:	7542                	ld	a0,48(sp)
    80002cce:	02653c23          	sd	t1,56(a0)
    80002cd2:	078ebb83          	ld	s7,120(t4)
    80002cd6:	f8c2                	sd	a6,112(sp)
    80002cd8:	fcfa                	sd	t5,120(sp)
    80002cda:	e11e                	sd	t2,128(sp)
    80002cdc:	e572                	sd	t3,136(sp)
    80002cde:	e96a                	sd	s10,144(sp)
    80002ce0:	ed62                	sd	s8,152(sp)
    80002ce2:	f15a                	sd	s6,160(sp)
    80002ce4:	f55e                	sd	s7,168(sp)
    80002ce6:	f902                	sd	zero,176(sp)
    80002ce8:	fd06                	sd	ra,184(sp)
    80002cea:	7526                	ld	a0,104(sp)
    80002cec:	e1aa                	sd	a0,192(sp)
    80002cee:	7506                	ld	a0,96(sp)
    80002cf0:	e5aa                	sd	a0,200(sp)
    80002cf2:	6566                	ld	a0,88(sp)
    80002cf4:	e9aa                	sd	a0,208(sp)
    80002cf6:	6546                	ld	a0,80(sp)
    80002cf8:	edaa                	sd	a0,216(sp)
    80002cfa:	6526                	ld	a0,72(sp)
    80002cfc:	f1aa                	sd	a0,224(sp)
    80002cfe:	6506                	ld	a0,64(sp)
    80002d00:	f5aa                	sd	a0,232(sp)
    80002d02:	7562                	ld	a0,56(sp)
    80002d04:	f9aa                	sd	a0,240(sp)
    80002d06:	4541                	li	a0,16
    80002d08:	05000813          	li	a6,80
    80002d0c:	00a28633          	add	a2,t0,a0
    80002d10:	ff063683          	ld	a3,-16(a2)
    80002d14:	7e18                	ld	a4,56(a2)
    80002d16:	02d706b3          	mul	a3,a4,a3
    80002d1a:	ff863703          	ld	a4,-8(a2)
    80002d1e:	623c                	ld	a5,64(a2)
    80002d20:	6204                	ld	s1,0(a2)
    80002d22:	6620                	ld	s0,72(a2)
    80002d24:	02e78733          	mul	a4,a5,a4
    80002d28:	029407b3          	mul	a5,s0,s1
    80002d2c:	6604                	ld	s1,8(a2)
    80002d2e:	6a30                	ld	a2,80(a2)
    80002d30:	95b6                	add	a1,a1,a3
    80002d32:	02960633          	mul	a2,a2,s1
    80002d36:	95ba                	add	a1,a1,a4
    80002d38:	95be                	add	a1,a1,a5
    80002d3a:	02050513          	addi	a0,a0,32
    80002d3e:	95b2                	add	a1,a1,a2
    80002d40:	fd0516e3          	bne	a0,a6,80002d0c <main+0xbb8>
    80002d44:	4501                	li	a0,0
    80002d46:	4681                	li	a3,0
    80002d48:	080eb083          	ld	ra,128(t4)
    80002d4c:	7642                	ld	a2,48(sp)
    80002d4e:	e22c                	sd	a1,64(a2)
    80002d50:	f886                	sd	ra,112(sp)
    80002d52:	fcfa                	sd	t5,120(sp)
    80002d54:	e11e                	sd	t2,128(sp)
    80002d56:	e572                	sd	t3,136(sp)
    80002d58:	e96a                	sd	s10,144(sp)
    80002d5a:	ed62                	sd	s8,152(sp)
    80002d5c:	f15a                	sd	s6,160(sp)
    80002d5e:	f55e                	sd	s7,168(sp)
    80002d60:	4585                	li	a1,1
    80002d62:	f92e                	sd	a1,176(sp)
    80002d64:	75a2                	ld	a1,40(sp)
    80002d66:	fd2e                	sd	a1,184(sp)
    80002d68:	75a6                	ld	a1,104(sp)
    80002d6a:	e1ae                	sd	a1,192(sp)
    80002d6c:	7586                	ld	a1,96(sp)
    80002d6e:	e5ae                	sd	a1,200(sp)
    80002d70:	65e6                	ld	a1,88(sp)
    80002d72:	e9ae                	sd	a1,208(sp)
    80002d74:	65c6                	ld	a1,80(sp)
    80002d76:	edae                	sd	a1,216(sp)
    80002d78:	65a6                	ld	a1,72(sp)
    80002d7a:	f1ae                	sd	a1,224(sp)
    80002d7c:	6586                	ld	a1,64(sp)
    80002d7e:	f5ae                	sd	a1,232(sp)
    80002d80:	75e2                	ld	a1,56(sp)
    80002d82:	f9ae                	sd	a1,240(sp)
    80002d84:	192c                	addi	a1,sp,184
    80002d86:	fc05b603          	ld	a2,-64(a1)
    80002d8a:	6198                	ld	a4,0(a1)
    80002d8c:	fc85b783          	ld	a5,-56(a1)
    80002d90:	6584                	ld	s1,8(a1)
    80002d92:	02c70833          	mul	a6,a4,a2
    80002d96:	02f48733          	mul	a4,s1,a5
    80002d9a:	fd05b783          	ld	a5,-48(a1)
    80002d9e:	6984                	ld	s1,16(a1)
    80002da0:	00454413          	xori	s0,a0,4
    80002da4:	040e                	slli	s0,s0,0x3
    80002da6:	9416                	add	s0,s0,t0
    80002da8:	6000                	ld	s0,0(s0)
    80002daa:	6d90                	ld	a2,24(a1)
    80002dac:	02f487b3          	mul	a5,s1,a5
    80002db0:	02860633          	mul	a2,a2,s0
    80002db4:	96c2                	add	a3,a3,a6
    80002db6:	96ba                	add	a3,a3,a4
    80002db8:	96be                	add	a3,a3,a5
    80002dba:	96b2                	add	a3,a3,a2
    80002dbc:	0511                	addi	a0,a0,4
    80002dbe:	02058593          	addi	a1,a1,32
    80002dc2:	fd4512e3          	bne	a0,s4,80002d86 <main+0xc32>
    80002dc6:	4501                	li	a0,0
    80002dc8:	4401                	li	s0,0
    80002dca:	75c2                	ld	a1,48(sp)
    80002dcc:	e5b4                	sd	a3,72(a1)
    80002dce:	088eb303          	ld	t1,136(t4)
    80002dd2:	f886                	sd	ra,112(sp)
    80002dd4:	fc9a                	sd	t1,120(sp)
    80002dd6:	e11e                	sd	t2,128(sp)
    80002dd8:	e572                	sd	t3,136(sp)
    80002dda:	e96a                	sd	s10,144(sp)
    80002ddc:	ed62                	sd	s8,152(sp)
    80002dde:	f15a                	sd	s6,160(sp)
    80002de0:	f55e                	sd	s7,168(sp)
    80002de2:	4589                	li	a1,2
    80002de4:	f92e                	sd	a1,176(sp)
    80002de6:	75a2                	ld	a1,40(sp)
    80002de8:	fd2e                	sd	a1,184(sp)
    80002dea:	75a6                	ld	a1,104(sp)
    80002dec:	e1ae                	sd	a1,192(sp)
    80002dee:	7586                	ld	a1,96(sp)
    80002df0:	e5ae                	sd	a1,200(sp)
    80002df2:	65e6                	ld	a1,88(sp)
    80002df4:	e9ae                	sd	a1,208(sp)
    80002df6:	65c6                	ld	a1,80(sp)
    80002df8:	edae                	sd	a1,216(sp)
    80002dfa:	65a6                	ld	a1,72(sp)
    80002dfc:	f1ae                	sd	a1,224(sp)
    80002dfe:	6586                	ld	a1,64(sp)
    80002e00:	f5ae                	sd	a1,232(sp)
    80002e02:	75e2                	ld	a1,56(sp)
    80002e04:	f9ae                	sd	a1,240(sp)
    80002e06:	85e6                	mv	a1,s9
    80002e08:	0934                	addi	a3,sp,152
    80002e0a:	fb05b603          	ld	a2,-80(a1)
    80002e0e:	fe85b703          	ld	a4,-24(a1)
    80002e12:	fb85b783          	ld	a5,-72(a1)
    80002e16:	ff05b483          	ld	s1,-16(a1)
    80002e1a:	02c70833          	mul	a6,a4,a2
    80002e1e:	02f483b3          	mul	t2,s1,a5
    80002e22:	00454793          	xori	a5,a0,4
    80002e26:	078e                	slli	a5,a5,0x3
    80002e28:	9796                	add	a5,a5,t0
    80002e2a:	639c                	ld	a5,0(a5)
    80002e2c:	ff85b483          	ld	s1,-8(a1)
    80002e30:	6290                	ld	a2,0(a3)
    80002e32:	6198                	ld	a4,0(a1)
    80002e34:	02f487b3          	mul	a5,s1,a5
    80002e38:	02c70633          	mul	a2,a4,a2
    80002e3c:	00880733          	add	a4,a6,s0
    80002e40:	971e                	add	a4,a4,t2
    80002e42:	973e                	add	a4,a4,a5
    80002e44:	00c70433          	add	s0,a4,a2
    80002e48:	0511                	addi	a0,a0,4
    80002e4a:	1681                	addi	a3,a3,-32
    80002e4c:	02058593          	addi	a1,a1,32
    80002e50:	fb451de3          	bne	a0,s4,80002e0a <main+0xcb6>
    80002e54:	4681                	li	a3,0
    80002e56:	4801                	li	a6,0
    80002e58:	7542                	ld	a0,48(sp)
    80002e5a:	e920                	sd	s0,80(a0)
    80002e5c:	090ebf03          	ld	t5,144(t4)
    80002e60:	f886                	sd	ra,112(sp)
    80002e62:	fc9a                	sd	t1,120(sp)
    80002e64:	e17a                	sd	t5,128(sp)
    80002e66:	e572                	sd	t3,136(sp)
    80002e68:	e96a                	sd	s10,144(sp)
    80002e6a:	ed62                	sd	s8,152(sp)
    80002e6c:	f15a                	sd	s6,160(sp)
    80002e6e:	f55e                	sd	s7,168(sp)
    80002e70:	450d                	li	a0,3
    80002e72:	f92a                	sd	a0,176(sp)
    80002e74:	7522                	ld	a0,40(sp)
    80002e76:	fd2a                	sd	a0,184(sp)
    80002e78:	7526                	ld	a0,104(sp)
    80002e7a:	e1aa                	sd	a0,192(sp)
    80002e7c:	7506                	ld	a0,96(sp)
    80002e7e:	e5aa                	sd	a0,200(sp)
    80002e80:	6566                	ld	a0,88(sp)
    80002e82:	e9aa                	sd	a0,208(sp)
    80002e84:	6546                	ld	a0,80(sp)
    80002e86:	edaa                	sd	a0,216(sp)
    80002e88:	6526                	ld	a0,72(sp)
    80002e8a:	f1aa                	sd	a0,224(sp)
    80002e8c:	6506                	ld	a0,64(sp)
    80002e8e:	f5aa                	sd	a0,232(sp)
    80002e90:	7562                	ld	a0,56(sp)
    80002e92:	f9aa                	sd	a0,240(sp)
    80002e94:	fc000593          	li	a1,-64
    80002e98:	8456                	mv	s0,s5
    80002e9a:	00ba8633          	add	a2,s5,a1
    80002e9e:	7618                	ld	a4,40(a2)
    80002ea0:	6e3c                	ld	a5,88(a2)
    80002ea2:	0046c493          	xori	s1,a3,4
    80002ea6:	048e                	slli	s1,s1,0x3
    80002ea8:	9496                	add	s1,s1,t0
    80002eaa:	6084                	ld	s1,0(s1)
    80002eac:	7228                	ld	a0,96(a2)
    80002eae:	02e78733          	mul	a4,a5,a4
    80002eb2:	029503b3          	mul	t2,a0,s1
    80002eb6:	ff843783          	ld	a5,-8(s0)
    80002eba:	7624                	ld	s1,104(a2)
    80002ebc:	6008                	ld	a0,0(s0)
    80002ebe:	7a30                	ld	a2,112(a2)
    80002ec0:	02f487b3          	mul	a5,s1,a5
    80002ec4:	02a60533          	mul	a0,a2,a0
    80002ec8:	01070633          	add	a2,a4,a6
    80002ecc:	961e                	add	a2,a2,t2
    80002ece:	963e                	add	a2,a2,a5
    80002ed0:	00a60833          	add	a6,a2,a0
    80002ed4:	0691                	addi	a3,a3,4
    80002ed6:	02058593          	addi	a1,a1,32
    80002eda:	1401                	addi	s0,s0,-32
    80002edc:	fddd                	bnez	a1,80002e9a <main+0xd46>
    80002ede:	4e01                	li	t3,0
    80002ee0:	7542                	ld	a0,48(sp)
    80002ee2:	05053c23          	sd	a6,88(a0)
    80002ee6:	098eb383          	ld	t2,152(t4)
    80002eea:	f886                	sd	ra,112(sp)
    80002eec:	fc9a                	sd	t1,120(sp)
    80002eee:	e17a                	sd	t5,128(sp)
    80002ef0:	e51e                	sd	t2,136(sp)
    80002ef2:	e96a                	sd	s10,144(sp)
    80002ef4:	ed62                	sd	s8,152(sp)
    80002ef6:	f15a                	sd	s6,160(sp)
    80002ef8:	f55e                	sd	s7,168(sp)
    80002efa:	4511                	li	a0,4
    80002efc:	f92a                	sd	a0,176(sp)
    80002efe:	7522                	ld	a0,40(sp)
    80002f00:	fd2a                	sd	a0,184(sp)
    80002f02:	7526                	ld	a0,104(sp)
    80002f04:	e1aa                	sd	a0,192(sp)
    80002f06:	7506                	ld	a0,96(sp)
    80002f08:	e5aa                	sd	a0,200(sp)
    80002f0a:	6566                	ld	a0,88(sp)
    80002f0c:	e9aa                	sd	a0,208(sp)
    80002f0e:	6546                	ld	a0,80(sp)
    80002f10:	edaa                	sd	a0,216(sp)
    80002f12:	6526                	ld	a0,72(sp)
    80002f14:	f1aa                	sd	a0,224(sp)
    80002f16:	6506                	ld	a0,64(sp)
    80002f18:	f5aa                	sd	a0,232(sp)
    80002f1a:	7562                	ld	a0,56(sp)
    80002f1c:	f9aa                	sd	a0,240(sp)
    80002f1e:	02000513          	li	a0,32
    80002f22:	86e6                	mv	a3,s9
    80002f24:	00ac8633          	add	a2,s9,a0
    80002f28:	fa063703          	ld	a4,-96(a2)
    80002f2c:	fe86b783          	ld	a5,-24(a3)
    80002f30:	fa863483          	ld	s1,-88(a2)
    80002f34:	ff06b403          	ld	s0,-16(a3)
    80002f38:	02e78733          	mul	a4,a5,a4
    80002f3c:	029407b3          	mul	a5,s0,s1
    80002f40:	fb063483          	ld	s1,-80(a2)
    80002f44:	ff86b403          	ld	s0,-8(a3)
    80002f48:	fb863603          	ld	a2,-72(a2)
    80002f4c:	628c                	ld	a1,0(a3)
    80002f4e:	029404b3          	mul	s1,s0,s1
    80002f52:	02c585b3          	mul	a1,a1,a2
    80002f56:	01c70633          	add	a2,a4,t3
    80002f5a:	963e                	add	a2,a2,a5
    80002f5c:	9626                	add	a2,a2,s1
    80002f5e:	00b60e33          	add	t3,a2,a1
    80002f62:	1501                	addi	a0,a0,-32
    80002f64:	02068693          	addi	a3,a3,32
    80002f68:	fb251ee3          	bne	a0,s2,80002f24 <main+0xdd0>
    80002f6c:	4801                	li	a6,0
    80002f6e:	7542                	ld	a0,48(sp)
    80002f70:	07c53023          	sd	t3,96(a0)
    80002f74:	0a0ebd03          	ld	s10,160(t4)
    80002f78:	f886                	sd	ra,112(sp)
    80002f7a:	fc9a                	sd	t1,120(sp)
    80002f7c:	e17a                	sd	t5,128(sp)
    80002f7e:	e51e                	sd	t2,136(sp)
    80002f80:	e96a                	sd	s10,144(sp)
    80002f82:	ed62                	sd	s8,152(sp)
    80002f84:	f15a                	sd	s6,160(sp)
    80002f86:	f55e                	sd	s7,168(sp)
    80002f88:	4515                	li	a0,5
    80002f8a:	f92a                	sd	a0,176(sp)
    80002f8c:	7522                	ld	a0,40(sp)
    80002f8e:	fd2a                	sd	a0,184(sp)
    80002f90:	7526                	ld	a0,104(sp)
    80002f92:	e1aa                	sd	a0,192(sp)
    80002f94:	7506                	ld	a0,96(sp)
    80002f96:	e5aa                	sd	a0,200(sp)
    80002f98:	6566                	ld	a0,88(sp)
    80002f9a:	e9aa                	sd	a0,208(sp)
    80002f9c:	6546                	ld	a0,80(sp)
    80002f9e:	edaa                	sd	a0,216(sp)
    80002fa0:	6526                	ld	a0,72(sp)
    80002fa2:	f1aa                	sd	a0,224(sp)
    80002fa4:	6506                	ld	a0,64(sp)
    80002fa6:	f5aa                	sd	a0,232(sp)
    80002fa8:	7562                	ld	a0,56(sp)
    80002faa:	f9aa                	sd	a0,240(sp)
    80002fac:	02800593          	li	a1,40
    80002fb0:	06000693          	li	a3,96
    80002fb4:	00b28633          	add	a2,t0,a1
    80002fb8:	6218                	ld	a4,0(a2)
    80002fba:	00d287b3          	add	a5,t0,a3
    80002fbe:	fe87b483          	ld	s1,-24(a5)
    80002fc2:	6600                	ld	s0,8(a2)
    80002fc4:	ff07b503          	ld	a0,-16(a5)
    80002fc8:	02e48733          	mul	a4,s1,a4
    80002fcc:	02850533          	mul	a0,a0,s0
    80002fd0:	6a10                	ld	a2,16(a2)
    80002fd2:	ff87b483          	ld	s1,-8(a5)
    80002fd6:	fa07b403          	ld	s0,-96(a5)
    80002fda:	639c                	ld	a5,0(a5)
    80002fdc:	02c48633          	mul	a2,s1,a2
    80002fe0:	028787b3          	mul	a5,a5,s0
    80002fe4:	9742                	add	a4,a4,a6
    80002fe6:	953a                	add	a0,a0,a4
    80002fe8:	9532                	add	a0,a0,a2
    80002fea:	00f50833          	add	a6,a0,a5
    80002fee:	1581                	addi	a1,a1,-32
    80002ff0:	02068693          	addi	a3,a3,32
    80002ff4:	fdb590e3          	bne	a1,s11,80002fb4 <main+0xe60>
    80002ff8:	4e01                	li	t3,0
    80002ffa:	7542                	ld	a0,48(sp)
    80002ffc:	07053423          	sd	a6,104(a0)
    80003000:	0a8eb803          	ld	a6,168(t4)
    80003004:	f886                	sd	ra,112(sp)
    80003006:	fc9a                	sd	t1,120(sp)
    80003008:	e17a                	sd	t5,128(sp)
    8000300a:	e51e                	sd	t2,136(sp)
    8000300c:	e96a                	sd	s10,144(sp)
    8000300e:	ed42                	sd	a6,152(sp)
    80003010:	f15a                	sd	s6,160(sp)
    80003012:	f55e                	sd	s7,168(sp)
    80003014:	4519                	li	a0,6
    80003016:	f92a                	sd	a0,176(sp)
    80003018:	7522                	ld	a0,40(sp)
    8000301a:	fd2a                	sd	a0,184(sp)
    8000301c:	7526                	ld	a0,104(sp)
    8000301e:	e1aa                	sd	a0,192(sp)
    80003020:	7506                	ld	a0,96(sp)
    80003022:	e5aa                	sd	a0,200(sp)
    80003024:	6566                	ld	a0,88(sp)
    80003026:	e9aa                	sd	a0,208(sp)
    80003028:	6546                	ld	a0,80(sp)
    8000302a:	edaa                	sd	a0,216(sp)
    8000302c:	6526                	ld	a0,72(sp)
    8000302e:	f1aa                	sd	a0,224(sp)
    80003030:	6506                	ld	a0,64(sp)
    80003032:	f5aa                	sd	a0,232(sp)
    80003034:	7562                	ld	a0,56(sp)
    80003036:	f9aa                	sd	a0,240(sp)
    80003038:	fc000513          	li	a0,-64
    8000303c:	86fe                	mv	a3,t6
    8000303e:	ff86b603          	ld	a2,-8(a3)
    80003042:	00aa8733          	add	a4,s5,a0
    80003046:	6f3c                	ld	a5,88(a4)
    80003048:	6284                	ld	s1,0(a3)
    8000304a:	7320                	ld	s0,96(a4)
    8000304c:	02c78633          	mul	a2,a5,a2
    80003050:	029407b3          	mul	a5,s0,s1
    80003054:	6b04                	ld	s1,16(a4)
    80003056:	7720                	ld	s0,104(a4)
    80003058:	6f0c                	ld	a1,24(a4)
    8000305a:	7b38                	ld	a4,112(a4)
    8000305c:	02940433          	mul	s0,s0,s1
    80003060:	02b705b3          	mul	a1,a4,a1
    80003064:	9672                	add	a2,a2,t3
    80003066:	963e                	add	a2,a2,a5
    80003068:	9622                	add	a2,a2,s0
    8000306a:	00b60e33          	add	t3,a2,a1
    8000306e:	02050513          	addi	a0,a0,32
    80003072:	1681                	addi	a3,a3,-32
    80003074:	f569                	bnez	a0,8000303e <main+0xeea>
    80003076:	4c01                	li	s8,0
    80003078:	7542                	ld	a0,48(sp)
    8000307a:	07c53823          	sd	t3,112(a0)
    8000307e:	0b0ebb03          	ld	s6,176(t4)
    80003082:	f886                	sd	ra,112(sp)
    80003084:	fc9a                	sd	t1,120(sp)
    80003086:	e17a                	sd	t5,128(sp)
    80003088:	e51e                	sd	t2,136(sp)
    8000308a:	e96a                	sd	s10,144(sp)
    8000308c:	ed42                	sd	a6,152(sp)
    8000308e:	f15a                	sd	s6,160(sp)
    80003090:	f55e                	sd	s7,168(sp)
    80003092:	451d                	li	a0,7
    80003094:	f92a                	sd	a0,176(sp)
    80003096:	7522                	ld	a0,40(sp)
    80003098:	fd2a                	sd	a0,184(sp)
    8000309a:	7526                	ld	a0,104(sp)
    8000309c:	e1aa                	sd	a0,192(sp)
    8000309e:	7506                	ld	a0,96(sp)
    800030a0:	e5aa                	sd	a0,200(sp)
    800030a2:	6566                	ld	a0,88(sp)
    800030a4:	e9aa                	sd	a0,208(sp)
    800030a6:	6546                	ld	a0,80(sp)
    800030a8:	edaa                	sd	a0,216(sp)
    800030aa:	6526                	ld	a0,72(sp)
    800030ac:	f1aa                	sd	a0,224(sp)
    800030ae:	6506                	ld	a0,64(sp)
    800030b0:	f5aa                	sd	a0,232(sp)
    800030b2:	7562                	ld	a0,56(sp)
    800030b4:	f9aa                	sd	a0,240(sp)
    800030b6:	03800593          	li	a1,56
    800030ba:	06000693          	li	a3,96
    800030be:	00b28633          	add	a2,t0,a1
    800030c2:	6210                	ld	a2,0(a2)
    800030c4:	00d28733          	add	a4,t0,a3
    800030c8:	fe873783          	ld	a5,-24(a4)
    800030cc:	fa073483          	ld	s1,-96(a4)
    800030d0:	ff073403          	ld	s0,-16(a4)
    800030d4:	02c78633          	mul	a2,a5,a2
    800030d8:	029407b3          	mul	a5,s0,s1
    800030dc:	fa873483          	ld	s1,-88(a4)
    800030e0:	ff873403          	ld	s0,-8(a4)
    800030e4:	fb073503          	ld	a0,-80(a4)
    800030e8:	6318                	ld	a4,0(a4)
    800030ea:	029404b3          	mul	s1,s0,s1
    800030ee:	02a70533          	mul	a0,a4,a0
    800030f2:	9662                	add	a2,a2,s8
    800030f4:	963e                	add	a2,a2,a5
    800030f6:	9626                	add	a2,a2,s1
    800030f8:	00a60c33          	add	s8,a2,a0
    800030fc:	1581                	addi	a1,a1,-32
    800030fe:	02068693          	addi	a3,a3,32
    80003102:	fb359ee3          	bne	a1,s3,800030be <main+0xf6a>
    80003106:	4581                	li	a1,0
    80003108:	7542                	ld	a0,48(sp)
    8000310a:	07853c23          	sd	s8,120(a0)
    8000310e:	0b8ebb83          	ld	s7,184(t4)
    80003112:	f886                	sd	ra,112(sp)
    80003114:	fc9a                	sd	t1,120(sp)
    80003116:	e17a                	sd	t5,128(sp)
    80003118:	e51e                	sd	t2,136(sp)
    8000311a:	e96a                	sd	s10,144(sp)
    8000311c:	ed42                	sd	a6,152(sp)
    8000311e:	f15a                	sd	s6,160(sp)
    80003120:	f55e                	sd	s7,168(sp)
    80003122:	f902                	sd	zero,176(sp)
    80003124:	70a2                	ld	ra,40(sp)
    80003126:	fd06                	sd	ra,184(sp)
    80003128:	7526                	ld	a0,104(sp)
    8000312a:	e1aa                	sd	a0,192(sp)
    8000312c:	7506                	ld	a0,96(sp)
    8000312e:	e5aa                	sd	a0,200(sp)
    80003130:	6566                	ld	a0,88(sp)
    80003132:	e9aa                	sd	a0,208(sp)
    80003134:	6546                	ld	a0,80(sp)
    80003136:	edaa                	sd	a0,216(sp)
    80003138:	6526                	ld	a0,72(sp)
    8000313a:	f1aa                	sd	a0,224(sp)
    8000313c:	6506                	ld	a0,64(sp)
    8000313e:	f5aa                	sd	a0,232(sp)
    80003140:	7562                	ld	a0,56(sp)
    80003142:	f9aa                	sd	a0,240(sp)
    80003144:	4541                	li	a0,16
    80003146:	05000e13          	li	t3,80
    8000314a:	00a28633          	add	a2,t0,a0
    8000314e:	ff063683          	ld	a3,-16(a2)
    80003152:	7e18                	ld	a4,56(a2)
    80003154:	02d706b3          	mul	a3,a4,a3
    80003158:	ff863703          	ld	a4,-8(a2)
    8000315c:	623c                	ld	a5,64(a2)
    8000315e:	6204                	ld	s1,0(a2)
    80003160:	6620                	ld	s0,72(a2)
    80003162:	02e78733          	mul	a4,a5,a4
    80003166:	029407b3          	mul	a5,s0,s1
    8000316a:	6604                	ld	s1,8(a2)
    8000316c:	6a30                	ld	a2,80(a2)
    8000316e:	95b6                	add	a1,a1,a3
    80003170:	02960633          	mul	a2,a2,s1
    80003174:	95ba                	add	a1,a1,a4
    80003176:	95be                	add	a1,a1,a5
    80003178:	02050513          	addi	a0,a0,32
    8000317c:	95b2                	add	a1,a1,a2
    8000317e:	fdc516e3          	bne	a0,t3,8000314a <main+0xff6>
    80003182:	4501                	li	a0,0
    80003184:	4401                	li	s0,0
    80003186:	0c0ebe03          	ld	t3,192(t4)
    8000318a:	7642                	ld	a2,48(sp)
    8000318c:	e24c                	sd	a1,128(a2)
    8000318e:	f8f2                	sd	t3,112(sp)
    80003190:	fc9a                	sd	t1,120(sp)
    80003192:	e17a                	sd	t5,128(sp)
    80003194:	e51e                	sd	t2,136(sp)
    80003196:	e96a                	sd	s10,144(sp)
    80003198:	ed42                	sd	a6,152(sp)
    8000319a:	f15a                	sd	s6,160(sp)
    8000319c:	f55e                	sd	s7,168(sp)
    8000319e:	4585                	li	a1,1
    800031a0:	f92e                	sd	a1,176(sp)
    800031a2:	fd06                	sd	ra,184(sp)
    800031a4:	75a6                	ld	a1,104(sp)
    800031a6:	e1ae                	sd	a1,192(sp)
    800031a8:	7586                	ld	a1,96(sp)
    800031aa:	e5ae                	sd	a1,200(sp)
    800031ac:	65e6                	ld	a1,88(sp)
    800031ae:	e9ae                	sd	a1,208(sp)
    800031b0:	65c6                	ld	a1,80(sp)
    800031b2:	edae                	sd	a1,216(sp)
    800031b4:	65a6                	ld	a1,72(sp)
    800031b6:	f1ae                	sd	a1,224(sp)
    800031b8:	6586                	ld	a1,64(sp)
    800031ba:	f5ae                	sd	a1,232(sp)
    800031bc:	75e2                	ld	a1,56(sp)
    800031be:	f9ae                	sd	a1,240(sp)
    800031c0:	192c                	addi	a1,sp,184
    800031c2:	fc05b603          	ld	a2,-64(a1)
    800031c6:	6194                	ld	a3,0(a1)
    800031c8:	fc85b703          	ld	a4,-56(a1)
    800031cc:	659c                	ld	a5,8(a1)
    800031ce:	02c68333          	mul	t1,a3,a2
    800031d2:	02e786b3          	mul	a3,a5,a4
    800031d6:	fd05b703          	ld	a4,-48(a1)
    800031da:	699c                	ld	a5,16(a1)
    800031dc:	00454493          	xori	s1,a0,4
    800031e0:	048e                	slli	s1,s1,0x3
    800031e2:	9496                	add	s1,s1,t0
    800031e4:	6084                	ld	s1,0(s1)
    800031e6:	6d90                	ld	a2,24(a1)
    800031e8:	02e78733          	mul	a4,a5,a4
    800031ec:	02960633          	mul	a2,a2,s1
    800031f0:	008307b3          	add	a5,t1,s0
    800031f4:	96be                	add	a3,a3,a5
    800031f6:	96ba                	add	a3,a3,a4
    800031f8:	00c68433          	add	s0,a3,a2
    800031fc:	0511                	addi	a0,a0,4
    800031fe:	02058593          	addi	a1,a1,32
    80003202:	fd4510e3          	bne	a0,s4,800031c2 <main+0x106e>
    80003206:	4681                	li	a3,0
    80003208:	4501                	li	a0,0
    8000320a:	75c2                	ld	a1,48(sp)
    8000320c:	e5c0                	sd	s0,136(a1)
    8000320e:	0c8eb303          	ld	t1,200(t4)
    80003212:	f8f2                	sd	t3,112(sp)
    80003214:	fc9a                	sd	t1,120(sp)
    80003216:	e17a                	sd	t5,128(sp)
    80003218:	e51e                	sd	t2,136(sp)
    8000321a:	e96a                	sd	s10,144(sp)
    8000321c:	ed42                	sd	a6,152(sp)
    8000321e:	f15a                	sd	s6,160(sp)
    80003220:	f55e                	sd	s7,168(sp)
    80003222:	4589                	li	a1,2
    80003224:	f92e                	sd	a1,176(sp)
    80003226:	fd06                	sd	ra,184(sp)
    80003228:	75a6                	ld	a1,104(sp)
    8000322a:	e1ae                	sd	a1,192(sp)
    8000322c:	7586                	ld	a1,96(sp)
    8000322e:	e5ae                	sd	a1,200(sp)
    80003230:	65e6                	ld	a1,88(sp)
    80003232:	e9ae                	sd	a1,208(sp)
    80003234:	65c6                	ld	a1,80(sp)
    80003236:	edae                	sd	a1,216(sp)
    80003238:	65a6                	ld	a1,72(sp)
    8000323a:	f1ae                	sd	a1,224(sp)
    8000323c:	6586                	ld	a1,64(sp)
    8000323e:	f5ae                	sd	a1,232(sp)
    80003240:	75e2                	ld	a1,56(sp)
    80003242:	f9ae                	sd	a1,240(sp)
    80003244:	85e6                	mv	a1,s9
    80003246:	093c                	addi	a5,sp,152
    80003248:	fb05b603          	ld	a2,-80(a1)
    8000324c:	fe85b703          	ld	a4,-24(a1)
    80003250:	fb85b483          	ld	s1,-72(a1)
    80003254:	ff05b403          	ld	s0,-16(a1)
    80003258:	02c70f33          	mul	t5,a4,a2
    8000325c:	02940c33          	mul	s8,s0,s1
    80003260:	0046c493          	xori	s1,a3,4
    80003264:	048e                	slli	s1,s1,0x3
    80003266:	9496                	add	s1,s1,t0
    80003268:	6084                	ld	s1,0(s1)
    8000326a:	ff85b403          	ld	s0,-8(a1)
    8000326e:	6390                	ld	a2,0(a5)
    80003270:	6198                	ld	a4,0(a1)
    80003272:	02940433          	mul	s0,s0,s1
    80003276:	02c70633          	mul	a2,a4,a2
    8000327a:	957a                	add	a0,a0,t5
    8000327c:	9562                	add	a0,a0,s8
    8000327e:	9522                	add	a0,a0,s0
    80003280:	9532                	add	a0,a0,a2
    80003282:	0691                	addi	a3,a3,4
    80003284:	1781                	addi	a5,a5,-32
    80003286:	02058593          	addi	a1,a1,32
    8000328a:	fb469fe3          	bne	a3,s4,80003248 <main+0x10f4>
    8000328e:	4681                	li	a3,0
    80003290:	4c01                	li	s8,0
    80003292:	75c2                	ld	a1,48(sp)
    80003294:	e9c8                	sd	a0,144(a1)
    80003296:	0d0ebf03          	ld	t5,208(t4)
    8000329a:	f8f2                	sd	t3,112(sp)
    8000329c:	fc9a                	sd	t1,120(sp)
    8000329e:	e17a                	sd	t5,128(sp)
    800032a0:	e51e                	sd	t2,136(sp)
    800032a2:	e96a                	sd	s10,144(sp)
    800032a4:	ed42                	sd	a6,152(sp)
    800032a6:	f15a                	sd	s6,160(sp)
    800032a8:	f55e                	sd	s7,168(sp)
    800032aa:	450d                	li	a0,3
    800032ac:	f92a                	sd	a0,176(sp)
    800032ae:	fd06                	sd	ra,184(sp)
    800032b0:	7526                	ld	a0,104(sp)
    800032b2:	e1aa                	sd	a0,192(sp)
    800032b4:	7506                	ld	a0,96(sp)
    800032b6:	e5aa                	sd	a0,200(sp)
    800032b8:	6566                	ld	a0,88(sp)
    800032ba:	e9aa                	sd	a0,208(sp)
    800032bc:	6546                	ld	a0,80(sp)
    800032be:	edaa                	sd	a0,216(sp)
    800032c0:	6526                	ld	a0,72(sp)
    800032c2:	f1aa                	sd	a0,224(sp)
    800032c4:	6506                	ld	a0,64(sp)
    800032c6:	f5aa                	sd	a0,232(sp)
    800032c8:	7562                	ld	a0,56(sp)
    800032ca:	f9aa                	sd	a0,240(sp)
    800032cc:	fc000513          	li	a0,-64
    800032d0:	85d6                	mv	a1,s5
    800032d2:	00aa8633          	add	a2,s5,a0
    800032d6:	7618                	ld	a4,40(a2)
    800032d8:	6e3c                	ld	a5,88(a2)
    800032da:	0046c493          	xori	s1,a3,4
    800032de:	048e                	slli	s1,s1,0x3
    800032e0:	9496                	add	s1,s1,t0
    800032e2:	6084                	ld	s1,0(s1)
    800032e4:	7220                	ld	s0,96(a2)
    800032e6:	02e783b3          	mul	t2,a5,a4
    800032ea:	029407b3          	mul	a5,s0,s1
    800032ee:	ff85b483          	ld	s1,-8(a1)
    800032f2:	7620                	ld	s0,104(a2)
    800032f4:	6198                	ld	a4,0(a1)
    800032f6:	7a30                	ld	a2,112(a2)
    800032f8:	02940433          	mul	s0,s0,s1
    800032fc:	02e60633          	mul	a2,a2,a4
    80003300:	01838733          	add	a4,t2,s8
    80003304:	973e                	add	a4,a4,a5
    80003306:	9722                	add	a4,a4,s0
    80003308:	00c70c33          	add	s8,a4,a2
    8000330c:	0691                	addi	a3,a3,4
    8000330e:	02050513          	addi	a0,a0,32
    80003312:	1581                	addi	a1,a1,-32
    80003314:	fd5d                	bnez	a0,800032d2 <main+0x117e>
    80003316:	4081                	li	ra,0
    80003318:	7542                	ld	a0,48(sp)
    8000331a:	09853c23          	sd	s8,152(a0)
    8000331e:	0d8eb383          	ld	t2,216(t4)
    80003322:	f8f2                	sd	t3,112(sp)
    80003324:	fc9a                	sd	t1,120(sp)
    80003326:	e17a                	sd	t5,128(sp)
    80003328:	e51e                	sd	t2,136(sp)
    8000332a:	e96a                	sd	s10,144(sp)
    8000332c:	ed42                	sd	a6,152(sp)
    8000332e:	f15a                	sd	s6,160(sp)
    80003330:	f55e                	sd	s7,168(sp)
    80003332:	4511                	li	a0,4
    80003334:	f92a                	sd	a0,176(sp)
    80003336:	7522                	ld	a0,40(sp)
    80003338:	fd2a                	sd	a0,184(sp)
    8000333a:	7526                	ld	a0,104(sp)
    8000333c:	e1aa                	sd	a0,192(sp)
    8000333e:	7506                	ld	a0,96(sp)
    80003340:	e5aa                	sd	a0,200(sp)
    80003342:	6566                	ld	a0,88(sp)
    80003344:	e9aa                	sd	a0,208(sp)
    80003346:	6546                	ld	a0,80(sp)
    80003348:	edaa                	sd	a0,216(sp)
    8000334a:	6526                	ld	a0,72(sp)
    8000334c:	f1aa                	sd	a0,224(sp)
    8000334e:	6506                	ld	a0,64(sp)
    80003350:	f5aa                	sd	a0,232(sp)
    80003352:	7562                	ld	a0,56(sp)
    80003354:	f9aa                	sd	a0,240(sp)
    80003356:	02000513          	li	a0,32
    8000335a:	86e6                	mv	a3,s9
    8000335c:	00ac8633          	add	a2,s9,a0
    80003360:	fa063703          	ld	a4,-96(a2)
    80003364:	fe86b783          	ld	a5,-24(a3)
    80003368:	fa863403          	ld	s0,-88(a2)
    8000336c:	ff06b483          	ld	s1,-16(a3)
    80003370:	02e78733          	mul	a4,a5,a4
    80003374:	028487b3          	mul	a5,s1,s0
    80003378:	fb063403          	ld	s0,-80(a2)
    8000337c:	ff86b483          	ld	s1,-8(a3)
    80003380:	fb863603          	ld	a2,-72(a2)
    80003384:	628c                	ld	a1,0(a3)
    80003386:	02848433          	mul	s0,s1,s0
    8000338a:	02c585b3          	mul	a1,a1,a2
    8000338e:	00170633          	add	a2,a4,ra
    80003392:	963e                	add	a2,a2,a5
    80003394:	9622                	add	a2,a2,s0
    80003396:	00b600b3          	add	ra,a2,a1
    8000339a:	1501                	addi	a0,a0,-32
    8000339c:	02068693          	addi	a3,a3,32
    800033a0:	fb251ee3          	bne	a0,s2,8000335c <main+0x1208>
    800033a4:	4d01                	li	s10,0
    800033a6:	7542                	ld	a0,48(sp)
    800033a8:	0a153023          	sd	ra,160(a0)
    800033ac:	0e0ebc03          	ld	s8,224(t4)
    800033b0:	f8f2                	sd	t3,112(sp)
    800033b2:	fc9a                	sd	t1,120(sp)
    800033b4:	e17a                	sd	t5,128(sp)
    800033b6:	e51e                	sd	t2,136(sp)
    800033b8:	e962                	sd	s8,144(sp)
    800033ba:	ed42                	sd	a6,152(sp)
    800033bc:	f15a                	sd	s6,160(sp)
    800033be:	f55e                	sd	s7,168(sp)
    800033c0:	4515                	li	a0,5
    800033c2:	f92a                	sd	a0,176(sp)
    800033c4:	7522                	ld	a0,40(sp)
    800033c6:	fd2a                	sd	a0,184(sp)
    800033c8:	7526                	ld	a0,104(sp)
    800033ca:	e1aa                	sd	a0,192(sp)
    800033cc:	7506                	ld	a0,96(sp)
    800033ce:	e5aa                	sd	a0,200(sp)
    800033d0:	6566                	ld	a0,88(sp)
    800033d2:	e9aa                	sd	a0,208(sp)
    800033d4:	6546                	ld	a0,80(sp)
    800033d6:	edaa                	sd	a0,216(sp)
    800033d8:	6526                	ld	a0,72(sp)
    800033da:	f1aa                	sd	a0,224(sp)
    800033dc:	6506                	ld	a0,64(sp)
    800033de:	f5aa                	sd	a0,232(sp)
    800033e0:	7562                	ld	a0,56(sp)
    800033e2:	f9aa                	sd	a0,240(sp)
    800033e4:	02800593          	li	a1,40
    800033e8:	06000693          	li	a3,96
    800033ec:	00b28633          	add	a2,t0,a1
    800033f0:	6218                	ld	a4,0(a2)
    800033f2:	00d287b3          	add	a5,t0,a3
    800033f6:	fe87b483          	ld	s1,-24(a5)
    800033fa:	6600                	ld	s0,8(a2)
    800033fc:	ff07b503          	ld	a0,-16(a5)
    80003400:	02e48733          	mul	a4,s1,a4
    80003404:	02850533          	mul	a0,a0,s0
    80003408:	6a10                	ld	a2,16(a2)
    8000340a:	ff87b483          	ld	s1,-8(a5)
    8000340e:	fa07b403          	ld	s0,-96(a5)
    80003412:	639c                	ld	a5,0(a5)
    80003414:	02c48633          	mul	a2,s1,a2
    80003418:	028787b3          	mul	a5,a5,s0
    8000341c:	976a                	add	a4,a4,s10
    8000341e:	953a                	add	a0,a0,a4
    80003420:	9532                	add	a0,a0,a2
    80003422:	00f50d33          	add	s10,a0,a5
    80003426:	1581                	addi	a1,a1,-32
    80003428:	02068693          	addi	a3,a3,32
    8000342c:	fdb590e3          	bne	a1,s11,800033ec <main+0x1298>
    80003430:	4081                	li	ra,0
    80003432:	7542                	ld	a0,48(sp)
    80003434:	0ba53423          	sd	s10,168(a0)
    80003438:	0e8eb803          	ld	a6,232(t4)
    8000343c:	f8f2                	sd	t3,112(sp)
    8000343e:	fc9a                	sd	t1,120(sp)
    80003440:	e17a                	sd	t5,128(sp)
    80003442:	e51e                	sd	t2,136(sp)
    80003444:	e962                	sd	s8,144(sp)
    80003446:	ed42                	sd	a6,152(sp)
    80003448:	f15a                	sd	s6,160(sp)
    8000344a:	f55e                	sd	s7,168(sp)
    8000344c:	4519                	li	a0,6
    8000344e:	f92a                	sd	a0,176(sp)
    80003450:	7522                	ld	a0,40(sp)
    80003452:	fd2a                	sd	a0,184(sp)
    80003454:	7526                	ld	a0,104(sp)
    80003456:	e1aa                	sd	a0,192(sp)
    80003458:	7506                	ld	a0,96(sp)
    8000345a:	e5aa                	sd	a0,200(sp)
    8000345c:	6566                	ld	a0,88(sp)
    8000345e:	e9aa                	sd	a0,208(sp)
    80003460:	6546                	ld	a0,80(sp)
    80003462:	edaa                	sd	a0,216(sp)
    80003464:	6526                	ld	a0,72(sp)
    80003466:	f1aa                	sd	a0,224(sp)
    80003468:	6506                	ld	a0,64(sp)
    8000346a:	f5aa                	sd	a0,232(sp)
    8000346c:	7562                	ld	a0,56(sp)
    8000346e:	f9aa                	sd	a0,240(sp)
    80003470:	fc000513          	li	a0,-64
    80003474:	86fe                	mv	a3,t6
    80003476:	ff86b603          	ld	a2,-8(a3)
    8000347a:	00aa8733          	add	a4,s5,a0
    8000347e:	6f3c                	ld	a5,88(a4)
    80003480:	6280                	ld	s0,0(a3)
    80003482:	7324                	ld	s1,96(a4)
    80003484:	02c78633          	mul	a2,a5,a2
    80003488:	028487b3          	mul	a5,s1,s0
    8000348c:	6b00                	ld	s0,16(a4)
    8000348e:	7724                	ld	s1,104(a4)
    80003490:	6f0c                	ld	a1,24(a4)
    80003492:	7b38                	ld	a4,112(a4)
    80003494:	02848433          	mul	s0,s1,s0
    80003498:	02b705b3          	mul	a1,a4,a1
    8000349c:	9606                	add	a2,a2,ra
    8000349e:	963e                	add	a2,a2,a5
    800034a0:	9622                	add	a2,a2,s0
    800034a2:	00b600b3          	add	ra,a2,a1
    800034a6:	02050513          	addi	a0,a0,32
    800034aa:	1681                	addi	a3,a3,-32
    800034ac:	f569                	bnez	a0,80003476 <main+0x1322>
    800034ae:	4d01                	li	s10,0
    800034b0:	7542                	ld	a0,48(sp)
    800034b2:	0a153823          	sd	ra,176(a0)
    800034b6:	0f0ebb03          	ld	s6,240(t4)
    800034ba:	f8f2                	sd	t3,112(sp)
    800034bc:	fc9a                	sd	t1,120(sp)
    800034be:	e17a                	sd	t5,128(sp)
    800034c0:	e51e                	sd	t2,136(sp)
    800034c2:	e962                	sd	s8,144(sp)
    800034c4:	ed42                	sd	a6,152(sp)
    800034c6:	f15a                	sd	s6,160(sp)
    800034c8:	f55e                	sd	s7,168(sp)
    800034ca:	451d                	li	a0,7
    800034cc:	f92a                	sd	a0,176(sp)
    800034ce:	70a2                	ld	ra,40(sp)
    800034d0:	fd06                	sd	ra,184(sp)
    800034d2:	7526                	ld	a0,104(sp)
    800034d4:	e1aa                	sd	a0,192(sp)
    800034d6:	7506                	ld	a0,96(sp)
    800034d8:	e5aa                	sd	a0,200(sp)
    800034da:	6566                	ld	a0,88(sp)
    800034dc:	e9aa                	sd	a0,208(sp)
    800034de:	6546                	ld	a0,80(sp)
    800034e0:	edaa                	sd	a0,216(sp)
    800034e2:	6526                	ld	a0,72(sp)
    800034e4:	f1aa                	sd	a0,224(sp)
    800034e6:	6506                	ld	a0,64(sp)
    800034e8:	f5aa                	sd	a0,232(sp)
    800034ea:	7562                	ld	a0,56(sp)
    800034ec:	f9aa                	sd	a0,240(sp)
    800034ee:	03800593          	li	a1,56
    800034f2:	06000693          	li	a3,96
    800034f6:	00b28633          	add	a2,t0,a1
    800034fa:	6210                	ld	a2,0(a2)
    800034fc:	00d28733          	add	a4,t0,a3
    80003500:	fe873783          	ld	a5,-24(a4)
    80003504:	fa073403          	ld	s0,-96(a4)
    80003508:	ff073483          	ld	s1,-16(a4)
    8000350c:	02c78633          	mul	a2,a5,a2
    80003510:	028487b3          	mul	a5,s1,s0
    80003514:	fa873403          	ld	s0,-88(a4)
    80003518:	ff873483          	ld	s1,-8(a4)
    8000351c:	fb073503          	ld	a0,-80(a4)
    80003520:	6318                	ld	a4,0(a4)
    80003522:	02848433          	mul	s0,s1,s0
    80003526:	02a70533          	mul	a0,a4,a0
    8000352a:	966a                	add	a2,a2,s10
    8000352c:	963e                	add	a2,a2,a5
    8000352e:	9622                	add	a2,a2,s0
    80003530:	00a60d33          	add	s10,a2,a0
    80003534:	1581                	addi	a1,a1,-32
    80003536:	02068693          	addi	a3,a3,32
    8000353a:	fb359ee3          	bne	a1,s3,800034f6 <main+0x13a2>
    8000353e:	4581                	li	a1,0
    80003540:	7542                	ld	a0,48(sp)
    80003542:	0ba53c23          	sd	s10,184(a0)
    80003546:	0f8ebb83          	ld	s7,248(t4)
    8000354a:	f8f2                	sd	t3,112(sp)
    8000354c:	fc9a                	sd	t1,120(sp)
    8000354e:	e17a                	sd	t5,128(sp)
    80003550:	e51e                	sd	t2,136(sp)
    80003552:	e962                	sd	s8,144(sp)
    80003554:	ed42                	sd	a6,152(sp)
    80003556:	f15a                	sd	s6,160(sp)
    80003558:	f55e                	sd	s7,168(sp)
    8000355a:	f902                	sd	zero,176(sp)
    8000355c:	fd06                	sd	ra,184(sp)
    8000355e:	7526                	ld	a0,104(sp)
    80003560:	e1aa                	sd	a0,192(sp)
    80003562:	7506                	ld	a0,96(sp)
    80003564:	e5aa                	sd	a0,200(sp)
    80003566:	6566                	ld	a0,88(sp)
    80003568:	e9aa                	sd	a0,208(sp)
    8000356a:	6546                	ld	a0,80(sp)
    8000356c:	edaa                	sd	a0,216(sp)
    8000356e:	6526                	ld	a0,72(sp)
    80003570:	f1aa                	sd	a0,224(sp)
    80003572:	6506                	ld	a0,64(sp)
    80003574:	f5aa                	sd	a0,232(sp)
    80003576:	7562                	ld	a0,56(sp)
    80003578:	f9aa                	sd	a0,240(sp)
    8000357a:	4541                	li	a0,16
    8000357c:	05000e13          	li	t3,80
    80003580:	00a28633          	add	a2,t0,a0
    80003584:	ff063683          	ld	a3,-16(a2)
    80003588:	7e18                	ld	a4,56(a2)
    8000358a:	02d706b3          	mul	a3,a4,a3
    8000358e:	ff863703          	ld	a4,-8(a2)
    80003592:	623c                	ld	a5,64(a2)
    80003594:	6204                	ld	s1,0(a2)
    80003596:	6620                	ld	s0,72(a2)
    80003598:	02e78733          	mul	a4,a5,a4
    8000359c:	029407b3          	mul	a5,s0,s1
    800035a0:	6604                	ld	s1,8(a2)
    800035a2:	6a30                	ld	a2,80(a2)
    800035a4:	95b6                	add	a1,a1,a3
    800035a6:	02960633          	mul	a2,a2,s1
    800035aa:	95ba                	add	a1,a1,a4
    800035ac:	95be                	add	a1,a1,a5
    800035ae:	02050513          	addi	a0,a0,32
    800035b2:	95b2                	add	a1,a1,a2
    800035b4:	fdc516e3          	bne	a0,t3,80003580 <main+0x142c>
    800035b8:	4681                	li	a3,0
    800035ba:	4501                	li	a0,0
    800035bc:	100ebe03          	ld	t3,256(t4)
    800035c0:	7642                	ld	a2,48(sp)
    800035c2:	e26c                	sd	a1,192(a2)
    800035c4:	f8f2                	sd	t3,112(sp)
    800035c6:	fc9a                	sd	t1,120(sp)
    800035c8:	e17a                	sd	t5,128(sp)
    800035ca:	e51e                	sd	t2,136(sp)
    800035cc:	e962                	sd	s8,144(sp)
    800035ce:	ed42                	sd	a6,152(sp)
    800035d0:	f15a                	sd	s6,160(sp)
    800035d2:	f55e                	sd	s7,168(sp)
    800035d4:	4585                	li	a1,1
    800035d6:	f92e                	sd	a1,176(sp)
    800035d8:	fd06                	sd	ra,184(sp)
    800035da:	75a6                	ld	a1,104(sp)
    800035dc:	e1ae                	sd	a1,192(sp)
    800035de:	7586                	ld	a1,96(sp)
    800035e0:	e5ae                	sd	a1,200(sp)
    800035e2:	65e6                	ld	a1,88(sp)
    800035e4:	e9ae                	sd	a1,208(sp)
    800035e6:	65c6                	ld	a1,80(sp)
    800035e8:	edae                	sd	a1,216(sp)
    800035ea:	65a6                	ld	a1,72(sp)
    800035ec:	f1ae                	sd	a1,224(sp)
    800035ee:	6586                	ld	a1,64(sp)
    800035f0:	f5ae                	sd	a1,232(sp)
    800035f2:	75e2                	ld	a1,56(sp)
    800035f4:	f9ae                	sd	a1,240(sp)
    800035f6:	192c                	addi	a1,sp,184
    800035f8:	fc05b603          	ld	a2,-64(a1)
    800035fc:	6198                	ld	a4,0(a1)
    800035fe:	fc85b783          	ld	a5,-56(a1)
    80003602:	6584                	ld	s1,8(a1)
    80003604:	02c70333          	mul	t1,a4,a2
    80003608:	02f48733          	mul	a4,s1,a5
    8000360c:	fd05b783          	ld	a5,-48(a1)
    80003610:	6984                	ld	s1,16(a1)
    80003612:	0046c413          	xori	s0,a3,4
    80003616:	040e                	slli	s0,s0,0x3
    80003618:	9416                	add	s0,s0,t0
    8000361a:	6000                	ld	s0,0(s0)
    8000361c:	6d90                	ld	a2,24(a1)
    8000361e:	02f487b3          	mul	a5,s1,a5
    80003622:	02860633          	mul	a2,a2,s0
    80003626:	951a                	add	a0,a0,t1
    80003628:	953a                	add	a0,a0,a4
    8000362a:	953e                	add	a0,a0,a5
    8000362c:	9532                	add	a0,a0,a2
    8000362e:	0691                	addi	a3,a3,4
    80003630:	02058593          	addi	a1,a1,32
    80003634:	fd4692e3          	bne	a3,s4,800035f8 <main+0x14a4>
    80003638:	4681                	li	a3,0
    8000363a:	4401                	li	s0,0
    8000363c:	75c2                	ld	a1,48(sp)
    8000363e:	e5e8                	sd	a0,200(a1)
    80003640:	108eb303          	ld	t1,264(t4)
    80003644:	f8f2                	sd	t3,112(sp)
    80003646:	fc9a                	sd	t1,120(sp)
    80003648:	e17a                	sd	t5,128(sp)
    8000364a:	e51e                	sd	t2,136(sp)
    8000364c:	e962                	sd	s8,144(sp)
    8000364e:	ed42                	sd	a6,152(sp)
    80003650:	f15a                	sd	s6,160(sp)
    80003652:	f55e                	sd	s7,168(sp)
    80003654:	4509                	li	a0,2
    80003656:	f92a                	sd	a0,176(sp)
    80003658:	fd06                	sd	ra,184(sp)
    8000365a:	7526                	ld	a0,104(sp)
    8000365c:	e1aa                	sd	a0,192(sp)
    8000365e:	7506                	ld	a0,96(sp)
    80003660:	e5aa                	sd	a0,200(sp)
    80003662:	6566                	ld	a0,88(sp)
    80003664:	e9aa                	sd	a0,208(sp)
    80003666:	6546                	ld	a0,80(sp)
    80003668:	edaa                	sd	a0,216(sp)
    8000366a:	6526                	ld	a0,72(sp)
    8000366c:	f1aa                	sd	a0,224(sp)
    8000366e:	6506                	ld	a0,64(sp)
    80003670:	f5aa                	sd	a0,232(sp)
    80003672:	7562                	ld	a0,56(sp)
    80003674:	f9aa                	sd	a0,240(sp)
    80003676:	8566                	mv	a0,s9
    80003678:	092c                	addi	a1,sp,152
    8000367a:	fb053603          	ld	a2,-80(a0)
    8000367e:	fe853703          	ld	a4,-24(a0)
    80003682:	fb853783          	ld	a5,-72(a0)
    80003686:	ff053483          	ld	s1,-16(a0)
    8000368a:	02c70f33          	mul	t5,a4,a2
    8000368e:	02f48d33          	mul	s10,s1,a5
    80003692:	0046c793          	xori	a5,a3,4
    80003696:	078e                	slli	a5,a5,0x3
    80003698:	9796                	add	a5,a5,t0
    8000369a:	639c                	ld	a5,0(a5)
    8000369c:	ff853483          	ld	s1,-8(a0)
    800036a0:	6190                	ld	a2,0(a1)
    800036a2:	6118                	ld	a4,0(a0)
    800036a4:	02f487b3          	mul	a5,s1,a5
    800036a8:	02c70633          	mul	a2,a4,a2
    800036ac:	008f0733          	add	a4,t5,s0
    800036b0:	976a                	add	a4,a4,s10
    800036b2:	973e                	add	a4,a4,a5
    800036b4:	00c70433          	add	s0,a4,a2
    800036b8:	0691                	addi	a3,a3,4
    800036ba:	1581                	addi	a1,a1,-32
    800036bc:	02050513          	addi	a0,a0,32
    800036c0:	fb469de3          	bne	a3,s4,8000367a <main+0x1526>
    800036c4:	4681                	li	a3,0
    800036c6:	4d01                	li	s10,0
    800036c8:	7542                	ld	a0,48(sp)
    800036ca:	e960                	sd	s0,208(a0)
    800036cc:	110ebf03          	ld	t5,272(t4)
    800036d0:	f8f2                	sd	t3,112(sp)
    800036d2:	fc9a                	sd	t1,120(sp)
    800036d4:	e17a                	sd	t5,128(sp)
    800036d6:	e51e                	sd	t2,136(sp)
    800036d8:	e962                	sd	s8,144(sp)
    800036da:	ed42                	sd	a6,152(sp)
    800036dc:	f15a                	sd	s6,160(sp)
    800036de:	f55e                	sd	s7,168(sp)
    800036e0:	450d                	li	a0,3
    800036e2:	f92a                	sd	a0,176(sp)
    800036e4:	fd06                	sd	ra,184(sp)
    800036e6:	7526                	ld	a0,104(sp)
    800036e8:	e1aa                	sd	a0,192(sp)
    800036ea:	7506                	ld	a0,96(sp)
    800036ec:	e5aa                	sd	a0,200(sp)
    800036ee:	6566                	ld	a0,88(sp)
    800036f0:	e9aa                	sd	a0,208(sp)
    800036f2:	6546                	ld	a0,80(sp)
    800036f4:	edaa                	sd	a0,216(sp)
    800036f6:	6526                	ld	a0,72(sp)
    800036f8:	f1aa                	sd	a0,224(sp)
    800036fa:	6506                	ld	a0,64(sp)
    800036fc:	f5aa                	sd	a0,232(sp)
    800036fe:	7562                	ld	a0,56(sp)
    80003700:	f9aa                	sd	a0,240(sp)
    80003702:	fc000593          	li	a1,-64
    80003706:	8456                	mv	s0,s5
    80003708:	00ba8633          	add	a2,s5,a1
    8000370c:	7618                	ld	a4,40(a2)
    8000370e:	6e3c                	ld	a5,88(a2)
    80003710:	0046c493          	xori	s1,a3,4
    80003714:	048e                	slli	s1,s1,0x3
    80003716:	9496                	add	s1,s1,t0
    80003718:	6084                	ld	s1,0(s1)
    8000371a:	7228                	ld	a0,96(a2)
    8000371c:	02e78733          	mul	a4,a5,a4
    80003720:	029503b3          	mul	t2,a0,s1
    80003724:	ff843783          	ld	a5,-8(s0)
    80003728:	7624                	ld	s1,104(a2)
    8000372a:	6008                	ld	a0,0(s0)
    8000372c:	7a30                	ld	a2,112(a2)
    8000372e:	02f487b3          	mul	a5,s1,a5
    80003732:	02a60533          	mul	a0,a2,a0
    80003736:	01a70633          	add	a2,a4,s10
    8000373a:	961e                	add	a2,a2,t2
    8000373c:	963e                	add	a2,a2,a5
    8000373e:	00a60d33          	add	s10,a2,a0
    80003742:	0691                	addi	a3,a3,4
    80003744:	02058593          	addi	a1,a1,32
    80003748:	1401                	addi	s0,s0,-32
    8000374a:	fddd                	bnez	a1,80003708 <main+0x15b4>
    8000374c:	4081                	li	ra,0
    8000374e:	7542                	ld	a0,48(sp)
    80003750:	0da53c23          	sd	s10,216(a0)
    80003754:	118eb383          	ld	t2,280(t4)
    80003758:	f8f2                	sd	t3,112(sp)
    8000375a:	fc9a                	sd	t1,120(sp)
    8000375c:	e17a                	sd	t5,128(sp)
    8000375e:	e51e                	sd	t2,136(sp)
    80003760:	e962                	sd	s8,144(sp)
    80003762:	ed42                	sd	a6,152(sp)
    80003764:	f15a                	sd	s6,160(sp)
    80003766:	f55e                	sd	s7,168(sp)
    80003768:	4511                	li	a0,4
    8000376a:	f92a                	sd	a0,176(sp)
    8000376c:	7522                	ld	a0,40(sp)
    8000376e:	fd2a                	sd	a0,184(sp)
    80003770:	7526                	ld	a0,104(sp)
    80003772:	e1aa                	sd	a0,192(sp)
    80003774:	7506                	ld	a0,96(sp)
    80003776:	e5aa                	sd	a0,200(sp)
    80003778:	6566                	ld	a0,88(sp)
    8000377a:	e9aa                	sd	a0,208(sp)
    8000377c:	6546                	ld	a0,80(sp)
    8000377e:	edaa                	sd	a0,216(sp)
    80003780:	6526                	ld	a0,72(sp)
    80003782:	f1aa                	sd	a0,224(sp)
    80003784:	6506                	ld	a0,64(sp)
    80003786:	f5aa                	sd	a0,232(sp)
    80003788:	7562                	ld	a0,56(sp)
    8000378a:	f9aa                	sd	a0,240(sp)
    8000378c:	02000513          	li	a0,32
    80003790:	86e6                	mv	a3,s9
    80003792:	00ac8633          	add	a2,s9,a0
    80003796:	fa063703          	ld	a4,-96(a2)
    8000379a:	fe86b783          	ld	a5,-24(a3)
    8000379e:	fa863403          	ld	s0,-88(a2)
    800037a2:	ff06b483          	ld	s1,-16(a3)
    800037a6:	02e78733          	mul	a4,a5,a4
    800037aa:	028487b3          	mul	a5,s1,s0
    800037ae:	fb063403          	ld	s0,-80(a2)
    800037b2:	ff86b483          	ld	s1,-8(a3)
    800037b6:	fb863603          	ld	a2,-72(a2)
    800037ba:	628c                	ld	a1,0(a3)
    800037bc:	02848433          	mul	s0,s1,s0
    800037c0:	02c585b3          	mul	a1,a1,a2
    800037c4:	00170633          	add	a2,a4,ra
    800037c8:	963e                	add	a2,a2,a5
    800037ca:	9622                	add	a2,a2,s0
    800037cc:	00b600b3          	add	ra,a2,a1
    800037d0:	1501                	addi	a0,a0,-32
    800037d2:	02068693          	addi	a3,a3,32
    800037d6:	fb251ee3          	bne	a0,s2,80003792 <main+0x163e>
    800037da:	4d01                	li	s10,0
    800037dc:	7542                	ld	a0,48(sp)
    800037de:	0e153023          	sd	ra,224(a0)
    800037e2:	120ebc03          	ld	s8,288(t4)
    800037e6:	f8f2                	sd	t3,112(sp)
    800037e8:	fc9a                	sd	t1,120(sp)
    800037ea:	e17a                	sd	t5,128(sp)
    800037ec:	e51e                	sd	t2,136(sp)
    800037ee:	e962                	sd	s8,144(sp)
    800037f0:	ed42                	sd	a6,152(sp)
    800037f2:	f15a                	sd	s6,160(sp)
    800037f4:	f55e                	sd	s7,168(sp)
    800037f6:	4515                	li	a0,5
    800037f8:	f92a                	sd	a0,176(sp)
    800037fa:	7522                	ld	a0,40(sp)
    800037fc:	fd2a                	sd	a0,184(sp)
    800037fe:	7526                	ld	a0,104(sp)
    80003800:	e1aa                	sd	a0,192(sp)
    80003802:	7506                	ld	a0,96(sp)
    80003804:	e5aa                	sd	a0,200(sp)
    80003806:	6566                	ld	a0,88(sp)
    80003808:	e9aa                	sd	a0,208(sp)
    8000380a:	6546                	ld	a0,80(sp)
    8000380c:	edaa                	sd	a0,216(sp)
    8000380e:	6526                	ld	a0,72(sp)
    80003810:	f1aa                	sd	a0,224(sp)
    80003812:	6506                	ld	a0,64(sp)
    80003814:	f5aa                	sd	a0,232(sp)
    80003816:	7562                	ld	a0,56(sp)
    80003818:	f9aa                	sd	a0,240(sp)
    8000381a:	02800593          	li	a1,40
    8000381e:	06000693          	li	a3,96
    80003822:	00b28633          	add	a2,t0,a1
    80003826:	6218                	ld	a4,0(a2)
    80003828:	00d287b3          	add	a5,t0,a3
    8000382c:	fe87b483          	ld	s1,-24(a5)
    80003830:	6600                	ld	s0,8(a2)
    80003832:	ff07b503          	ld	a0,-16(a5)
    80003836:	02e48733          	mul	a4,s1,a4
    8000383a:	02850533          	mul	a0,a0,s0
    8000383e:	6a10                	ld	a2,16(a2)
    80003840:	ff87b483          	ld	s1,-8(a5)
    80003844:	fa07b403          	ld	s0,-96(a5)
    80003848:	639c                	ld	a5,0(a5)
    8000384a:	02c48633          	mul	a2,s1,a2
    8000384e:	028787b3          	mul	a5,a5,s0
    80003852:	976a                	add	a4,a4,s10
    80003854:	953a                	add	a0,a0,a4
    80003856:	9532                	add	a0,a0,a2
    80003858:	00f50d33          	add	s10,a0,a5
    8000385c:	1581                	addi	a1,a1,-32
    8000385e:	02068693          	addi	a3,a3,32
    80003862:	fdb590e3          	bne	a1,s11,80003822 <main+0x16ce>
    80003866:	4081                	li	ra,0
    80003868:	7542                	ld	a0,48(sp)
    8000386a:	0fa53423          	sd	s10,232(a0)
    8000386e:	128eb803          	ld	a6,296(t4)
    80003872:	f8f2                	sd	t3,112(sp)
    80003874:	fc9a                	sd	t1,120(sp)
    80003876:	e17a                	sd	t5,128(sp)
    80003878:	e51e                	sd	t2,136(sp)
    8000387a:	e962                	sd	s8,144(sp)
    8000387c:	ed42                	sd	a6,152(sp)
    8000387e:	f15a                	sd	s6,160(sp)
    80003880:	f55e                	sd	s7,168(sp)
    80003882:	4519                	li	a0,6
    80003884:	f92a                	sd	a0,176(sp)
    80003886:	7522                	ld	a0,40(sp)
    80003888:	fd2a                	sd	a0,184(sp)
    8000388a:	7526                	ld	a0,104(sp)
    8000388c:	e1aa                	sd	a0,192(sp)
    8000388e:	7506                	ld	a0,96(sp)
    80003890:	e5aa                	sd	a0,200(sp)
    80003892:	6566                	ld	a0,88(sp)
    80003894:	e9aa                	sd	a0,208(sp)
    80003896:	6546                	ld	a0,80(sp)
    80003898:	edaa                	sd	a0,216(sp)
    8000389a:	6526                	ld	a0,72(sp)
    8000389c:	f1aa                	sd	a0,224(sp)
    8000389e:	6506                	ld	a0,64(sp)
    800038a0:	f5aa                	sd	a0,232(sp)
    800038a2:	7562                	ld	a0,56(sp)
    800038a4:	f9aa                	sd	a0,240(sp)
    800038a6:	fc000513          	li	a0,-64
    800038aa:	86fe                	mv	a3,t6
    800038ac:	ff86b603          	ld	a2,-8(a3)
    800038b0:	00aa8733          	add	a4,s5,a0
    800038b4:	6f3c                	ld	a5,88(a4)
    800038b6:	6280                	ld	s0,0(a3)
    800038b8:	7324                	ld	s1,96(a4)
    800038ba:	02c78633          	mul	a2,a5,a2
    800038be:	028487b3          	mul	a5,s1,s0
    800038c2:	6b00                	ld	s0,16(a4)
    800038c4:	7724                	ld	s1,104(a4)
    800038c6:	6f0c                	ld	a1,24(a4)
    800038c8:	7b38                	ld	a4,112(a4)
    800038ca:	02848433          	mul	s0,s1,s0
    800038ce:	02b705b3          	mul	a1,a4,a1
    800038d2:	9606                	add	a2,a2,ra
    800038d4:	963e                	add	a2,a2,a5
    800038d6:	9622                	add	a2,a2,s0
    800038d8:	00b600b3          	add	ra,a2,a1
    800038dc:	02050513          	addi	a0,a0,32
    800038e0:	1681                	addi	a3,a3,-32
    800038e2:	f569                	bnez	a0,800038ac <main+0x1758>
    800038e4:	4d01                	li	s10,0
    800038e6:	7542                	ld	a0,48(sp)
    800038e8:	0e153823          	sd	ra,240(a0)
    800038ec:	130ebb03          	ld	s6,304(t4)
    800038f0:	f8f2                	sd	t3,112(sp)
    800038f2:	fc9a                	sd	t1,120(sp)
    800038f4:	e17a                	sd	t5,128(sp)
    800038f6:	e51e                	sd	t2,136(sp)
    800038f8:	e962                	sd	s8,144(sp)
    800038fa:	ed42                	sd	a6,152(sp)
    800038fc:	f15a                	sd	s6,160(sp)
    800038fe:	f55e                	sd	s7,168(sp)
    80003900:	451d                	li	a0,7
    80003902:	f92a                	sd	a0,176(sp)
    80003904:	70a2                	ld	ra,40(sp)
    80003906:	fd06                	sd	ra,184(sp)
    80003908:	7526                	ld	a0,104(sp)
    8000390a:	e1aa                	sd	a0,192(sp)
    8000390c:	7506                	ld	a0,96(sp)
    8000390e:	e5aa                	sd	a0,200(sp)
    80003910:	6566                	ld	a0,88(sp)
    80003912:	e9aa                	sd	a0,208(sp)
    80003914:	6546                	ld	a0,80(sp)
    80003916:	edaa                	sd	a0,216(sp)
    80003918:	6526                	ld	a0,72(sp)
    8000391a:	f1aa                	sd	a0,224(sp)
    8000391c:	6506                	ld	a0,64(sp)
    8000391e:	f5aa                	sd	a0,232(sp)
    80003920:	7562                	ld	a0,56(sp)
    80003922:	f9aa                	sd	a0,240(sp)
    80003924:	03800593          	li	a1,56
    80003928:	06000693          	li	a3,96
    8000392c:	00b28633          	add	a2,t0,a1
    80003930:	6210                	ld	a2,0(a2)
    80003932:	00d28733          	add	a4,t0,a3
    80003936:	fe873783          	ld	a5,-24(a4)
    8000393a:	fa073403          	ld	s0,-96(a4)
    8000393e:	ff073483          	ld	s1,-16(a4)
    80003942:	02c78633          	mul	a2,a5,a2
    80003946:	028487b3          	mul	a5,s1,s0
    8000394a:	fa873403          	ld	s0,-88(a4)
    8000394e:	ff873483          	ld	s1,-8(a4)
    80003952:	fb073503          	ld	a0,-80(a4)
    80003956:	6318                	ld	a4,0(a4)
    80003958:	02848433          	mul	s0,s1,s0
    8000395c:	02a70533          	mul	a0,a4,a0
    80003960:	966a                	add	a2,a2,s10
    80003962:	963e                	add	a2,a2,a5
    80003964:	9622                	add	a2,a2,s0
    80003966:	00a60d33          	add	s10,a2,a0
    8000396a:	1581                	addi	a1,a1,-32
    8000396c:	02068693          	addi	a3,a3,32
    80003970:	fb359ee3          	bne	a1,s3,8000392c <main+0x17d8>
    80003974:	4581                	li	a1,0
    80003976:	7542                	ld	a0,48(sp)
    80003978:	0fa53c23          	sd	s10,248(a0)
    8000397c:	138ebb83          	ld	s7,312(t4)
    80003980:	f8f2                	sd	t3,112(sp)
    80003982:	fc9a                	sd	t1,120(sp)
    80003984:	e17a                	sd	t5,128(sp)
    80003986:	e51e                	sd	t2,136(sp)
    80003988:	e962                	sd	s8,144(sp)
    8000398a:	ed42                	sd	a6,152(sp)
    8000398c:	f15a                	sd	s6,160(sp)
    8000398e:	f55e                	sd	s7,168(sp)
    80003990:	f902                	sd	zero,176(sp)
    80003992:	fd06                	sd	ra,184(sp)
    80003994:	7526                	ld	a0,104(sp)
    80003996:	e1aa                	sd	a0,192(sp)
    80003998:	7506                	ld	a0,96(sp)
    8000399a:	e5aa                	sd	a0,200(sp)
    8000399c:	6566                	ld	a0,88(sp)
    8000399e:	e9aa                	sd	a0,208(sp)
    800039a0:	6546                	ld	a0,80(sp)
    800039a2:	edaa                	sd	a0,216(sp)
    800039a4:	6526                	ld	a0,72(sp)
    800039a6:	f1aa                	sd	a0,224(sp)
    800039a8:	6506                	ld	a0,64(sp)
    800039aa:	f5aa                	sd	a0,232(sp)
    800039ac:	7562                	ld	a0,56(sp)
    800039ae:	f9aa                	sd	a0,240(sp)
    800039b0:	4541                	li	a0,16
    800039b2:	05000e13          	li	t3,80
    800039b6:	00a28633          	add	a2,t0,a0
    800039ba:	ff063683          	ld	a3,-16(a2)
    800039be:	7e18                	ld	a4,56(a2)
    800039c0:	02d706b3          	mul	a3,a4,a3
    800039c4:	ff863703          	ld	a4,-8(a2)
    800039c8:	623c                	ld	a5,64(a2)
    800039ca:	6204                	ld	s1,0(a2)
    800039cc:	6620                	ld	s0,72(a2)
    800039ce:	02e78733          	mul	a4,a5,a4
    800039d2:	029407b3          	mul	a5,s0,s1
    800039d6:	6604                	ld	s1,8(a2)
    800039d8:	6a30                	ld	a2,80(a2)
    800039da:	95b6                	add	a1,a1,a3
    800039dc:	02960633          	mul	a2,a2,s1
    800039e0:	95ba                	add	a1,a1,a4
    800039e2:	95be                	add	a1,a1,a5
    800039e4:	02050513          	addi	a0,a0,32
    800039e8:	95b2                	add	a1,a1,a2
    800039ea:	fdc516e3          	bne	a0,t3,800039b6 <main+0x1862>
    800039ee:	4501                	li	a0,0
    800039f0:	4401                	li	s0,0
    800039f2:	140ebe03          	ld	t3,320(t4)
    800039f6:	7642                	ld	a2,48(sp)
    800039f8:	10b63023          	sd	a1,256(a2)
    800039fc:	f8f2                	sd	t3,112(sp)
    800039fe:	fc9a                	sd	t1,120(sp)
    80003a00:	e17a                	sd	t5,128(sp)
    80003a02:	e51e                	sd	t2,136(sp)
    80003a04:	e962                	sd	s8,144(sp)
    80003a06:	ed42                	sd	a6,152(sp)
    80003a08:	f15a                	sd	s6,160(sp)
    80003a0a:	f55e                	sd	s7,168(sp)
    80003a0c:	4585                	li	a1,1
    80003a0e:	f92e                	sd	a1,176(sp)
    80003a10:	fd06                	sd	ra,184(sp)
    80003a12:	75a6                	ld	a1,104(sp)
    80003a14:	e1ae                	sd	a1,192(sp)
    80003a16:	7586                	ld	a1,96(sp)
    80003a18:	e5ae                	sd	a1,200(sp)
    80003a1a:	65e6                	ld	a1,88(sp)
    80003a1c:	e9ae                	sd	a1,208(sp)
    80003a1e:	65c6                	ld	a1,80(sp)
    80003a20:	edae                	sd	a1,216(sp)
    80003a22:	65a6                	ld	a1,72(sp)
    80003a24:	f1ae                	sd	a1,224(sp)
    80003a26:	6586                	ld	a1,64(sp)
    80003a28:	f5ae                	sd	a1,232(sp)
    80003a2a:	75e2                	ld	a1,56(sp)
    80003a2c:	f9ae                	sd	a1,240(sp)
    80003a2e:	192c                	addi	a1,sp,184
    80003a30:	fc05b603          	ld	a2,-64(a1)
    80003a34:	6194                	ld	a3,0(a1)
    80003a36:	fc85b703          	ld	a4,-56(a1)
    80003a3a:	659c                	ld	a5,8(a1)
    80003a3c:	02c68333          	mul	t1,a3,a2
    80003a40:	02e786b3          	mul	a3,a5,a4
    80003a44:	fd05b703          	ld	a4,-48(a1)
    80003a48:	699c                	ld	a5,16(a1)
    80003a4a:	00454493          	xori	s1,a0,4
    80003a4e:	048e                	slli	s1,s1,0x3
    80003a50:	9496                	add	s1,s1,t0
    80003a52:	6084                	ld	s1,0(s1)
    80003a54:	6d90                	ld	a2,24(a1)
    80003a56:	02e78733          	mul	a4,a5,a4
    80003a5a:	02960633          	mul	a2,a2,s1
    80003a5e:	008307b3          	add	a5,t1,s0
    80003a62:	96be                	add	a3,a3,a5
    80003a64:	96ba                	add	a3,a3,a4
    80003a66:	00c68433          	add	s0,a3,a2
    80003a6a:	0511                	addi	a0,a0,4
    80003a6c:	02058593          	addi	a1,a1,32
    80003a70:	fd4510e3          	bne	a0,s4,80003a30 <main+0x18dc>
    80003a74:	4681                	li	a3,0
    80003a76:	4501                	li	a0,0
    80003a78:	75c2                	ld	a1,48(sp)
    80003a7a:	1085b423          	sd	s0,264(a1)
    80003a7e:	148eb303          	ld	t1,328(t4)
    80003a82:	f8f2                	sd	t3,112(sp)
    80003a84:	fc9a                	sd	t1,120(sp)
    80003a86:	e17a                	sd	t5,128(sp)
    80003a88:	e51e                	sd	t2,136(sp)
    80003a8a:	e962                	sd	s8,144(sp)
    80003a8c:	ed42                	sd	a6,152(sp)
    80003a8e:	f15a                	sd	s6,160(sp)
    80003a90:	f55e                	sd	s7,168(sp)
    80003a92:	4589                	li	a1,2
    80003a94:	f92e                	sd	a1,176(sp)
    80003a96:	fd06                	sd	ra,184(sp)
    80003a98:	75a6                	ld	a1,104(sp)
    80003a9a:	e1ae                	sd	a1,192(sp)
    80003a9c:	7586                	ld	a1,96(sp)
    80003a9e:	e5ae                	sd	a1,200(sp)
    80003aa0:	65e6                	ld	a1,88(sp)
    80003aa2:	e9ae                	sd	a1,208(sp)
    80003aa4:	65c6                	ld	a1,80(sp)
    80003aa6:	edae                	sd	a1,216(sp)
    80003aa8:	65a6                	ld	a1,72(sp)
    80003aaa:	f1ae                	sd	a1,224(sp)
    80003aac:	6586                	ld	a1,64(sp)
    80003aae:	f5ae                	sd	a1,232(sp)
    80003ab0:	75e2                	ld	a1,56(sp)
    80003ab2:	f9ae                	sd	a1,240(sp)
    80003ab4:	85e6                	mv	a1,s9
    80003ab6:	093c                	addi	a5,sp,152
    80003ab8:	fb05b603          	ld	a2,-80(a1)
    80003abc:	fe85b703          	ld	a4,-24(a1)
    80003ac0:	fb85b483          	ld	s1,-72(a1)
    80003ac4:	ff05b403          	ld	s0,-16(a1)
    80003ac8:	02c70f33          	mul	t5,a4,a2
    80003acc:	02940d33          	mul	s10,s0,s1
    80003ad0:	0046c493          	xori	s1,a3,4
    80003ad4:	048e                	slli	s1,s1,0x3
    80003ad6:	9496                	add	s1,s1,t0
    80003ad8:	6084                	ld	s1,0(s1)
    80003ada:	ff85b403          	ld	s0,-8(a1)
    80003ade:	6390                	ld	a2,0(a5)
    80003ae0:	6198                	ld	a4,0(a1)
    80003ae2:	02940433          	mul	s0,s0,s1
    80003ae6:	02c70633          	mul	a2,a4,a2
    80003aea:	957a                	add	a0,a0,t5
    80003aec:	956a                	add	a0,a0,s10
    80003aee:	9522                	add	a0,a0,s0
    80003af0:	9532                	add	a0,a0,a2
    80003af2:	0691                	addi	a3,a3,4
    80003af4:	1781                	addi	a5,a5,-32
    80003af6:	02058593          	addi	a1,a1,32
    80003afa:	fb469fe3          	bne	a3,s4,80003ab8 <main+0x1964>
    80003afe:	4681                	li	a3,0
    80003b00:	4d01                	li	s10,0
    80003b02:	75c2                	ld	a1,48(sp)
    80003b04:	10a5b823          	sd	a0,272(a1)
    80003b08:	150ebf03          	ld	t5,336(t4)
    80003b0c:	f8f2                	sd	t3,112(sp)
    80003b0e:	fc9a                	sd	t1,120(sp)
    80003b10:	e17a                	sd	t5,128(sp)
    80003b12:	e51e                	sd	t2,136(sp)
    80003b14:	e962                	sd	s8,144(sp)
    80003b16:	ed42                	sd	a6,152(sp)
    80003b18:	f15a                	sd	s6,160(sp)
    80003b1a:	f55e                	sd	s7,168(sp)
    80003b1c:	450d                	li	a0,3
    80003b1e:	f92a                	sd	a0,176(sp)
    80003b20:	fd06                	sd	ra,184(sp)
    80003b22:	7526                	ld	a0,104(sp)
    80003b24:	e1aa                	sd	a0,192(sp)
    80003b26:	7506                	ld	a0,96(sp)
    80003b28:	e5aa                	sd	a0,200(sp)
    80003b2a:	6566                	ld	a0,88(sp)
    80003b2c:	e9aa                	sd	a0,208(sp)
    80003b2e:	6546                	ld	a0,80(sp)
    80003b30:	edaa                	sd	a0,216(sp)
    80003b32:	6526                	ld	a0,72(sp)
    80003b34:	f1aa                	sd	a0,224(sp)
    80003b36:	6506                	ld	a0,64(sp)
    80003b38:	f5aa                	sd	a0,232(sp)
    80003b3a:	7562                	ld	a0,56(sp)
    80003b3c:	f9aa                	sd	a0,240(sp)
    80003b3e:	fc000513          	li	a0,-64
    80003b42:	85d6                	mv	a1,s5
    80003b44:	00aa8633          	add	a2,s5,a0
    80003b48:	7618                	ld	a4,40(a2)
    80003b4a:	6e3c                	ld	a5,88(a2)
    80003b4c:	0046c493          	xori	s1,a3,4
    80003b50:	048e                	slli	s1,s1,0x3
    80003b52:	9496                	add	s1,s1,t0
    80003b54:	6084                	ld	s1,0(s1)
    80003b56:	7220                	ld	s0,96(a2)
    80003b58:	02e783b3          	mul	t2,a5,a4
    80003b5c:	029407b3          	mul	a5,s0,s1
    80003b60:	ff85b483          	ld	s1,-8(a1)
    80003b64:	7620                	ld	s0,104(a2)
    80003b66:	6198                	ld	a4,0(a1)
    80003b68:	7a30                	ld	a2,112(a2)
    80003b6a:	02940433          	mul	s0,s0,s1
    80003b6e:	02e60633          	mul	a2,a2,a4
    80003b72:	01a38733          	add	a4,t2,s10
    80003b76:	973e                	add	a4,a4,a5
    80003b78:	9722                	add	a4,a4,s0
    80003b7a:	00c70d33          	add	s10,a4,a2
    80003b7e:	0691                	addi	a3,a3,4
    80003b80:	02050513          	addi	a0,a0,32
    80003b84:	1581                	addi	a1,a1,-32
    80003b86:	fd5d                	bnez	a0,80003b44 <main+0x19f0>
    80003b88:	4081                	li	ra,0
    80003b8a:	7542                	ld	a0,48(sp)
    80003b8c:	11a53c23          	sd	s10,280(a0)
    80003b90:	158eb383          	ld	t2,344(t4)
    80003b94:	f8f2                	sd	t3,112(sp)
    80003b96:	fc9a                	sd	t1,120(sp)
    80003b98:	e17a                	sd	t5,128(sp)
    80003b9a:	e51e                	sd	t2,136(sp)
    80003b9c:	e962                	sd	s8,144(sp)
    80003b9e:	ed42                	sd	a6,152(sp)
    80003ba0:	f15a                	sd	s6,160(sp)
    80003ba2:	f55e                	sd	s7,168(sp)
    80003ba4:	4511                	li	a0,4
    80003ba6:	f92a                	sd	a0,176(sp)
    80003ba8:	7522                	ld	a0,40(sp)
    80003baa:	fd2a                	sd	a0,184(sp)
    80003bac:	7526                	ld	a0,104(sp)
    80003bae:	e1aa                	sd	a0,192(sp)
    80003bb0:	7506                	ld	a0,96(sp)
    80003bb2:	e5aa                	sd	a0,200(sp)
    80003bb4:	6566                	ld	a0,88(sp)
    80003bb6:	e9aa                	sd	a0,208(sp)
    80003bb8:	6546                	ld	a0,80(sp)
    80003bba:	edaa                	sd	a0,216(sp)
    80003bbc:	6526                	ld	a0,72(sp)
    80003bbe:	f1aa                	sd	a0,224(sp)
    80003bc0:	6506                	ld	a0,64(sp)
    80003bc2:	f5aa                	sd	a0,232(sp)
    80003bc4:	7562                	ld	a0,56(sp)
    80003bc6:	f9aa                	sd	a0,240(sp)
    80003bc8:	02000513          	li	a0,32
    80003bcc:	86e6                	mv	a3,s9
    80003bce:	00ac8633          	add	a2,s9,a0
    80003bd2:	fa063703          	ld	a4,-96(a2)
    80003bd6:	fe86b783          	ld	a5,-24(a3)
    80003bda:	fa863403          	ld	s0,-88(a2)
    80003bde:	ff06b483          	ld	s1,-16(a3)
    80003be2:	02e78733          	mul	a4,a5,a4
    80003be6:	028487b3          	mul	a5,s1,s0
    80003bea:	fb063403          	ld	s0,-80(a2)
    80003bee:	ff86b483          	ld	s1,-8(a3)
    80003bf2:	fb863603          	ld	a2,-72(a2)
    80003bf6:	628c                	ld	a1,0(a3)
    80003bf8:	02848433          	mul	s0,s1,s0
    80003bfc:	02c585b3          	mul	a1,a1,a2
    80003c00:	00170633          	add	a2,a4,ra
    80003c04:	963e                	add	a2,a2,a5
    80003c06:	9622                	add	a2,a2,s0
    80003c08:	00b600b3          	add	ra,a2,a1
    80003c0c:	1501                	addi	a0,a0,-32
    80003c0e:	02068693          	addi	a3,a3,32
    80003c12:	fb251ee3          	bne	a0,s2,80003bce <main+0x1a7a>
    80003c16:	4d01                	li	s10,0
    80003c18:	7542                	ld	a0,48(sp)
    80003c1a:	12153023          	sd	ra,288(a0)
    80003c1e:	160ebc03          	ld	s8,352(t4)
    80003c22:	f8f2                	sd	t3,112(sp)
    80003c24:	fc9a                	sd	t1,120(sp)
    80003c26:	e17a                	sd	t5,128(sp)
    80003c28:	e51e                	sd	t2,136(sp)
    80003c2a:	e962                	sd	s8,144(sp)
    80003c2c:	ed42                	sd	a6,152(sp)
    80003c2e:	f15a                	sd	s6,160(sp)
    80003c30:	f55e                	sd	s7,168(sp)
    80003c32:	4515                	li	a0,5
    80003c34:	f92a                	sd	a0,176(sp)
    80003c36:	7522                	ld	a0,40(sp)
    80003c38:	fd2a                	sd	a0,184(sp)
    80003c3a:	7526                	ld	a0,104(sp)
    80003c3c:	e1aa                	sd	a0,192(sp)
    80003c3e:	7506                	ld	a0,96(sp)
    80003c40:	e5aa                	sd	a0,200(sp)
    80003c42:	6566                	ld	a0,88(sp)
    80003c44:	e9aa                	sd	a0,208(sp)
    80003c46:	6546                	ld	a0,80(sp)
    80003c48:	edaa                	sd	a0,216(sp)
    80003c4a:	6526                	ld	a0,72(sp)
    80003c4c:	f1aa                	sd	a0,224(sp)
    80003c4e:	6506                	ld	a0,64(sp)
    80003c50:	f5aa                	sd	a0,232(sp)
    80003c52:	7562                	ld	a0,56(sp)
    80003c54:	f9aa                	sd	a0,240(sp)
    80003c56:	02800593          	li	a1,40
    80003c5a:	06000693          	li	a3,96
    80003c5e:	00b28633          	add	a2,t0,a1
    80003c62:	6218                	ld	a4,0(a2)
    80003c64:	00d287b3          	add	a5,t0,a3
    80003c68:	fe87b483          	ld	s1,-24(a5)
    80003c6c:	6600                	ld	s0,8(a2)
    80003c6e:	ff07b503          	ld	a0,-16(a5)
    80003c72:	02e48733          	mul	a4,s1,a4
    80003c76:	02850533          	mul	a0,a0,s0
    80003c7a:	6a10                	ld	a2,16(a2)
    80003c7c:	ff87b483          	ld	s1,-8(a5)
    80003c80:	fa07b403          	ld	s0,-96(a5)
    80003c84:	639c                	ld	a5,0(a5)
    80003c86:	02c48633          	mul	a2,s1,a2
    80003c8a:	028787b3          	mul	a5,a5,s0
    80003c8e:	976a                	add	a4,a4,s10
    80003c90:	953a                	add	a0,a0,a4
    80003c92:	9532                	add	a0,a0,a2
    80003c94:	00f50d33          	add	s10,a0,a5
    80003c98:	1581                	addi	a1,a1,-32
    80003c9a:	02068693          	addi	a3,a3,32
    80003c9e:	fdb590e3          	bne	a1,s11,80003c5e <main+0x1b0a>
    80003ca2:	4081                	li	ra,0
    80003ca4:	7542                	ld	a0,48(sp)
    80003ca6:	13a53423          	sd	s10,296(a0)
    80003caa:	168eb803          	ld	a6,360(t4)
    80003cae:	f8f2                	sd	t3,112(sp)
    80003cb0:	fc9a                	sd	t1,120(sp)
    80003cb2:	e17a                	sd	t5,128(sp)
    80003cb4:	e51e                	sd	t2,136(sp)
    80003cb6:	e962                	sd	s8,144(sp)
    80003cb8:	ed42                	sd	a6,152(sp)
    80003cba:	f15a                	sd	s6,160(sp)
    80003cbc:	f55e                	sd	s7,168(sp)
    80003cbe:	4519                	li	a0,6
    80003cc0:	f92a                	sd	a0,176(sp)
    80003cc2:	7522                	ld	a0,40(sp)
    80003cc4:	fd2a                	sd	a0,184(sp)
    80003cc6:	7526                	ld	a0,104(sp)
    80003cc8:	e1aa                	sd	a0,192(sp)
    80003cca:	7506                	ld	a0,96(sp)
    80003ccc:	e5aa                	sd	a0,200(sp)
    80003cce:	6566                	ld	a0,88(sp)
    80003cd0:	e9aa                	sd	a0,208(sp)
    80003cd2:	6546                	ld	a0,80(sp)
    80003cd4:	edaa                	sd	a0,216(sp)
    80003cd6:	6526                	ld	a0,72(sp)
    80003cd8:	f1aa                	sd	a0,224(sp)
    80003cda:	6506                	ld	a0,64(sp)
    80003cdc:	f5aa                	sd	a0,232(sp)
    80003cde:	7562                	ld	a0,56(sp)
    80003ce0:	f9aa                	sd	a0,240(sp)
    80003ce2:	fc000513          	li	a0,-64
    80003ce6:	86fe                	mv	a3,t6
    80003ce8:	ff86b603          	ld	a2,-8(a3)
    80003cec:	00aa8733          	add	a4,s5,a0
    80003cf0:	6f3c                	ld	a5,88(a4)
    80003cf2:	6280                	ld	s0,0(a3)
    80003cf4:	7324                	ld	s1,96(a4)
    80003cf6:	02c78633          	mul	a2,a5,a2
    80003cfa:	028487b3          	mul	a5,s1,s0
    80003cfe:	6b00                	ld	s0,16(a4)
    80003d00:	7724                	ld	s1,104(a4)
    80003d02:	6f0c                	ld	a1,24(a4)
    80003d04:	7b38                	ld	a4,112(a4)
    80003d06:	02848433          	mul	s0,s1,s0
    80003d0a:	02b705b3          	mul	a1,a4,a1
    80003d0e:	9606                	add	a2,a2,ra
    80003d10:	963e                	add	a2,a2,a5
    80003d12:	9622                	add	a2,a2,s0
    80003d14:	00b600b3          	add	ra,a2,a1
    80003d18:	02050513          	addi	a0,a0,32
    80003d1c:	1681                	addi	a3,a3,-32
    80003d1e:	f569                	bnez	a0,80003ce8 <main+0x1b94>
    80003d20:	4d01                	li	s10,0
    80003d22:	7542                	ld	a0,48(sp)
    80003d24:	12153823          	sd	ra,304(a0)
    80003d28:	170ebb03          	ld	s6,368(t4)
    80003d2c:	f8f2                	sd	t3,112(sp)
    80003d2e:	fc9a                	sd	t1,120(sp)
    80003d30:	e17a                	sd	t5,128(sp)
    80003d32:	e51e                	sd	t2,136(sp)
    80003d34:	e962                	sd	s8,144(sp)
    80003d36:	ed42                	sd	a6,152(sp)
    80003d38:	f15a                	sd	s6,160(sp)
    80003d3a:	f55e                	sd	s7,168(sp)
    80003d3c:	451d                	li	a0,7
    80003d3e:	f92a                	sd	a0,176(sp)
    80003d40:	70a2                	ld	ra,40(sp)
    80003d42:	fd06                	sd	ra,184(sp)
    80003d44:	7526                	ld	a0,104(sp)
    80003d46:	e1aa                	sd	a0,192(sp)
    80003d48:	7506                	ld	a0,96(sp)
    80003d4a:	e5aa                	sd	a0,200(sp)
    80003d4c:	6566                	ld	a0,88(sp)
    80003d4e:	e9aa                	sd	a0,208(sp)
    80003d50:	6546                	ld	a0,80(sp)
    80003d52:	edaa                	sd	a0,216(sp)
    80003d54:	6526                	ld	a0,72(sp)
    80003d56:	f1aa                	sd	a0,224(sp)
    80003d58:	6506                	ld	a0,64(sp)
    80003d5a:	f5aa                	sd	a0,232(sp)
    80003d5c:	7562                	ld	a0,56(sp)
    80003d5e:	f9aa                	sd	a0,240(sp)
    80003d60:	03800593          	li	a1,56
    80003d64:	06000693          	li	a3,96
    80003d68:	00b28633          	add	a2,t0,a1
    80003d6c:	6210                	ld	a2,0(a2)
    80003d6e:	00d28733          	add	a4,t0,a3
    80003d72:	fe873783          	ld	a5,-24(a4)
    80003d76:	fa073403          	ld	s0,-96(a4)
    80003d7a:	ff073483          	ld	s1,-16(a4)
    80003d7e:	02c78633          	mul	a2,a5,a2
    80003d82:	028487b3          	mul	a5,s1,s0
    80003d86:	fa873403          	ld	s0,-88(a4)
    80003d8a:	ff873483          	ld	s1,-8(a4)
    80003d8e:	fb073503          	ld	a0,-80(a4)
    80003d92:	6318                	ld	a4,0(a4)
    80003d94:	02848433          	mul	s0,s1,s0
    80003d98:	02a70533          	mul	a0,a4,a0
    80003d9c:	966a                	add	a2,a2,s10
    80003d9e:	963e                	add	a2,a2,a5
    80003da0:	9622                	add	a2,a2,s0
    80003da2:	00a60d33          	add	s10,a2,a0
    80003da6:	1581                	addi	a1,a1,-32
    80003da8:	02068693          	addi	a3,a3,32
    80003dac:	fb359ee3          	bne	a1,s3,80003d68 <main+0x1c14>
    80003db0:	4581                	li	a1,0
    80003db2:	7542                	ld	a0,48(sp)
    80003db4:	13a53c23          	sd	s10,312(a0)
    80003db8:	178ebb83          	ld	s7,376(t4)
    80003dbc:	f8f2                	sd	t3,112(sp)
    80003dbe:	fc9a                	sd	t1,120(sp)
    80003dc0:	e17a                	sd	t5,128(sp)
    80003dc2:	e51e                	sd	t2,136(sp)
    80003dc4:	e962                	sd	s8,144(sp)
    80003dc6:	ed42                	sd	a6,152(sp)
    80003dc8:	f15a                	sd	s6,160(sp)
    80003dca:	f55e                	sd	s7,168(sp)
    80003dcc:	f902                	sd	zero,176(sp)
    80003dce:	fd06                	sd	ra,184(sp)
    80003dd0:	7526                	ld	a0,104(sp)
    80003dd2:	e1aa                	sd	a0,192(sp)
    80003dd4:	7506                	ld	a0,96(sp)
    80003dd6:	e5aa                	sd	a0,200(sp)
    80003dd8:	6566                	ld	a0,88(sp)
    80003dda:	e9aa                	sd	a0,208(sp)
    80003ddc:	6546                	ld	a0,80(sp)
    80003dde:	edaa                	sd	a0,216(sp)
    80003de0:	6526                	ld	a0,72(sp)
    80003de2:	f1aa                	sd	a0,224(sp)
    80003de4:	6506                	ld	a0,64(sp)
    80003de6:	f5aa                	sd	a0,232(sp)
    80003de8:	7562                	ld	a0,56(sp)
    80003dea:	f9aa                	sd	a0,240(sp)
    80003dec:	4541                	li	a0,16
    80003dee:	05000e13          	li	t3,80
    80003df2:	00a28633          	add	a2,t0,a0
    80003df6:	ff063683          	ld	a3,-16(a2)
    80003dfa:	7e18                	ld	a4,56(a2)
    80003dfc:	02d706b3          	mul	a3,a4,a3
    80003e00:	ff863703          	ld	a4,-8(a2)
    80003e04:	623c                	ld	a5,64(a2)
    80003e06:	6204                	ld	s1,0(a2)
    80003e08:	6620                	ld	s0,72(a2)
    80003e0a:	02e78733          	mul	a4,a5,a4
    80003e0e:	029407b3          	mul	a5,s0,s1
    80003e12:	6604                	ld	s1,8(a2)
    80003e14:	6a30                	ld	a2,80(a2)
    80003e16:	95b6                	add	a1,a1,a3
    80003e18:	02960633          	mul	a2,a2,s1
    80003e1c:	95ba                	add	a1,a1,a4
    80003e1e:	95be                	add	a1,a1,a5
    80003e20:	02050513          	addi	a0,a0,32
    80003e24:	95b2                	add	a1,a1,a2
    80003e26:	fdc516e3          	bne	a0,t3,80003df2 <main+0x1c9e>
    80003e2a:	4681                	li	a3,0
    80003e2c:	4501                	li	a0,0
    80003e2e:	180ebe03          	ld	t3,384(t4)
    80003e32:	7642                	ld	a2,48(sp)
    80003e34:	14b63023          	sd	a1,320(a2)
    80003e38:	f8f2                	sd	t3,112(sp)
    80003e3a:	fc9a                	sd	t1,120(sp)
    80003e3c:	e17a                	sd	t5,128(sp)
    80003e3e:	e51e                	sd	t2,136(sp)
    80003e40:	e962                	sd	s8,144(sp)
    80003e42:	ed42                	sd	a6,152(sp)
    80003e44:	f15a                	sd	s6,160(sp)
    80003e46:	f55e                	sd	s7,168(sp)
    80003e48:	4585                	li	a1,1
    80003e4a:	f92e                	sd	a1,176(sp)
    80003e4c:	fd06                	sd	ra,184(sp)
    80003e4e:	75a6                	ld	a1,104(sp)
    80003e50:	e1ae                	sd	a1,192(sp)
    80003e52:	7586                	ld	a1,96(sp)
    80003e54:	e5ae                	sd	a1,200(sp)
    80003e56:	65e6                	ld	a1,88(sp)
    80003e58:	e9ae                	sd	a1,208(sp)
    80003e5a:	65c6                	ld	a1,80(sp)
    80003e5c:	edae                	sd	a1,216(sp)
    80003e5e:	65a6                	ld	a1,72(sp)
    80003e60:	f1ae                	sd	a1,224(sp)
    80003e62:	6586                	ld	a1,64(sp)
    80003e64:	f5ae                	sd	a1,232(sp)
    80003e66:	75e2                	ld	a1,56(sp)
    80003e68:	f9ae                	sd	a1,240(sp)
    80003e6a:	192c                	addi	a1,sp,184
    80003e6c:	fc05b603          	ld	a2,-64(a1)
    80003e70:	6198                	ld	a4,0(a1)
    80003e72:	fc85b783          	ld	a5,-56(a1)
    80003e76:	6584                	ld	s1,8(a1)
    80003e78:	02c70333          	mul	t1,a4,a2
    80003e7c:	02f48733          	mul	a4,s1,a5
    80003e80:	fd05b783          	ld	a5,-48(a1)
    80003e84:	6984                	ld	s1,16(a1)
    80003e86:	0046c413          	xori	s0,a3,4
    80003e8a:	040e                	slli	s0,s0,0x3
    80003e8c:	9416                	add	s0,s0,t0
    80003e8e:	6000                	ld	s0,0(s0)
    80003e90:	6d90                	ld	a2,24(a1)
    80003e92:	02f487b3          	mul	a5,s1,a5
    80003e96:	02860633          	mul	a2,a2,s0
    80003e9a:	951a                	add	a0,a0,t1
    80003e9c:	953a                	add	a0,a0,a4
    80003e9e:	953e                	add	a0,a0,a5
    80003ea0:	9532                	add	a0,a0,a2
    80003ea2:	0691                	addi	a3,a3,4
    80003ea4:	02058593          	addi	a1,a1,32
    80003ea8:	fd4692e3          	bne	a3,s4,80003e6c <main+0x1d18>
    80003eac:	4681                	li	a3,0
    80003eae:	4401                	li	s0,0
    80003eb0:	75c2                	ld	a1,48(sp)
    80003eb2:	14a5b423          	sd	a0,328(a1)
    80003eb6:	188eb303          	ld	t1,392(t4)
    80003eba:	f8f2                	sd	t3,112(sp)
    80003ebc:	fc9a                	sd	t1,120(sp)
    80003ebe:	e17a                	sd	t5,128(sp)
    80003ec0:	e51e                	sd	t2,136(sp)
    80003ec2:	e962                	sd	s8,144(sp)
    80003ec4:	ed42                	sd	a6,152(sp)
    80003ec6:	f15a                	sd	s6,160(sp)
    80003ec8:	f55e                	sd	s7,168(sp)
    80003eca:	4509                	li	a0,2
    80003ecc:	f92a                	sd	a0,176(sp)
    80003ece:	fd06                	sd	ra,184(sp)
    80003ed0:	7526                	ld	a0,104(sp)
    80003ed2:	e1aa                	sd	a0,192(sp)
    80003ed4:	7506                	ld	a0,96(sp)
    80003ed6:	e5aa                	sd	a0,200(sp)
    80003ed8:	6566                	ld	a0,88(sp)
    80003eda:	e9aa                	sd	a0,208(sp)
    80003edc:	6546                	ld	a0,80(sp)
    80003ede:	edaa                	sd	a0,216(sp)
    80003ee0:	6526                	ld	a0,72(sp)
    80003ee2:	f1aa                	sd	a0,224(sp)
    80003ee4:	6506                	ld	a0,64(sp)
    80003ee6:	f5aa                	sd	a0,232(sp)
    80003ee8:	7562                	ld	a0,56(sp)
    80003eea:	f9aa                	sd	a0,240(sp)
    80003eec:	8566                	mv	a0,s9
    80003eee:	092c                	addi	a1,sp,152
    80003ef0:	fb053603          	ld	a2,-80(a0)
    80003ef4:	fe853703          	ld	a4,-24(a0)
    80003ef8:	fb853783          	ld	a5,-72(a0)
    80003efc:	ff053483          	ld	s1,-16(a0)
    80003f00:	02c70f33          	mul	t5,a4,a2
    80003f04:	02f48d33          	mul	s10,s1,a5
    80003f08:	0046c793          	xori	a5,a3,4
    80003f0c:	078e                	slli	a5,a5,0x3
    80003f0e:	9796                	add	a5,a5,t0
    80003f10:	639c                	ld	a5,0(a5)
    80003f12:	ff853483          	ld	s1,-8(a0)
    80003f16:	6190                	ld	a2,0(a1)
    80003f18:	6118                	ld	a4,0(a0)
    80003f1a:	02f487b3          	mul	a5,s1,a5
    80003f1e:	02c70633          	mul	a2,a4,a2
    80003f22:	008f0733          	add	a4,t5,s0
    80003f26:	976a                	add	a4,a4,s10
    80003f28:	973e                	add	a4,a4,a5
    80003f2a:	00c70433          	add	s0,a4,a2
    80003f2e:	0691                	addi	a3,a3,4
    80003f30:	1581                	addi	a1,a1,-32
    80003f32:	02050513          	addi	a0,a0,32
    80003f36:	fb469de3          	bne	a3,s4,80003ef0 <main+0x1d9c>
    80003f3a:	4681                	li	a3,0
    80003f3c:	4d01                	li	s10,0
    80003f3e:	7542                	ld	a0,48(sp)
    80003f40:	14853823          	sd	s0,336(a0)
    80003f44:	190ebf03          	ld	t5,400(t4)
    80003f48:	f8f2                	sd	t3,112(sp)
    80003f4a:	fc9a                	sd	t1,120(sp)
    80003f4c:	e17a                	sd	t5,128(sp)
    80003f4e:	e51e                	sd	t2,136(sp)
    80003f50:	e962                	sd	s8,144(sp)
    80003f52:	ed42                	sd	a6,152(sp)
    80003f54:	f15a                	sd	s6,160(sp)
    80003f56:	f55e                	sd	s7,168(sp)
    80003f58:	450d                	li	a0,3
    80003f5a:	f92a                	sd	a0,176(sp)
    80003f5c:	fd06                	sd	ra,184(sp)
    80003f5e:	7526                	ld	a0,104(sp)
    80003f60:	e1aa                	sd	a0,192(sp)
    80003f62:	7506                	ld	a0,96(sp)
    80003f64:	e5aa                	sd	a0,200(sp)
    80003f66:	6566                	ld	a0,88(sp)
    80003f68:	e9aa                	sd	a0,208(sp)
    80003f6a:	6546                	ld	a0,80(sp)
    80003f6c:	edaa                	sd	a0,216(sp)
    80003f6e:	6526                	ld	a0,72(sp)
    80003f70:	f1aa                	sd	a0,224(sp)
    80003f72:	6506                	ld	a0,64(sp)
    80003f74:	f5aa                	sd	a0,232(sp)
    80003f76:	7562                	ld	a0,56(sp)
    80003f78:	f9aa                	sd	a0,240(sp)
    80003f7a:	fc000593          	li	a1,-64
    80003f7e:	8456                	mv	s0,s5
    80003f80:	00ba8633          	add	a2,s5,a1
    80003f84:	7618                	ld	a4,40(a2)
    80003f86:	6e3c                	ld	a5,88(a2)
    80003f88:	0046c493          	xori	s1,a3,4
    80003f8c:	048e                	slli	s1,s1,0x3
    80003f8e:	9496                	add	s1,s1,t0
    80003f90:	6084                	ld	s1,0(s1)
    80003f92:	7228                	ld	a0,96(a2)
    80003f94:	02e78733          	mul	a4,a5,a4
    80003f98:	029503b3          	mul	t2,a0,s1
    80003f9c:	ff843783          	ld	a5,-8(s0)
    80003fa0:	7624                	ld	s1,104(a2)
    80003fa2:	6008                	ld	a0,0(s0)
    80003fa4:	7a30                	ld	a2,112(a2)
    80003fa6:	02f487b3          	mul	a5,s1,a5
    80003faa:	02a60533          	mul	a0,a2,a0
    80003fae:	01a70633          	add	a2,a4,s10
    80003fb2:	961e                	add	a2,a2,t2
    80003fb4:	963e                	add	a2,a2,a5
    80003fb6:	00a60d33          	add	s10,a2,a0
    80003fba:	0691                	addi	a3,a3,4
    80003fbc:	02058593          	addi	a1,a1,32
    80003fc0:	1401                	addi	s0,s0,-32
    80003fc2:	fddd                	bnez	a1,80003f80 <main+0x1e2c>
    80003fc4:	4081                	li	ra,0
    80003fc6:	7542                	ld	a0,48(sp)
    80003fc8:	15a53c23          	sd	s10,344(a0)
    80003fcc:	198eb383          	ld	t2,408(t4)
    80003fd0:	f8f2                	sd	t3,112(sp)
    80003fd2:	fc9a                	sd	t1,120(sp)
    80003fd4:	e17a                	sd	t5,128(sp)
    80003fd6:	e51e                	sd	t2,136(sp)
    80003fd8:	e962                	sd	s8,144(sp)
    80003fda:	ed42                	sd	a6,152(sp)
    80003fdc:	f15a                	sd	s6,160(sp)
    80003fde:	f55e                	sd	s7,168(sp)
    80003fe0:	4511                	li	a0,4
    80003fe2:	f92a                	sd	a0,176(sp)
    80003fe4:	7522                	ld	a0,40(sp)
    80003fe6:	fd2a                	sd	a0,184(sp)
    80003fe8:	7526                	ld	a0,104(sp)
    80003fea:	e1aa                	sd	a0,192(sp)
    80003fec:	7506                	ld	a0,96(sp)
    80003fee:	e5aa                	sd	a0,200(sp)
    80003ff0:	6566                	ld	a0,88(sp)
    80003ff2:	e9aa                	sd	a0,208(sp)
    80003ff4:	6546                	ld	a0,80(sp)
    80003ff6:	edaa                	sd	a0,216(sp)
    80003ff8:	6526                	ld	a0,72(sp)
    80003ffa:	f1aa                	sd	a0,224(sp)
    80003ffc:	6506                	ld	a0,64(sp)
    80003ffe:	f5aa                	sd	a0,232(sp)
    80004000:	7562                	ld	a0,56(sp)
    80004002:	f9aa                	sd	a0,240(sp)
    80004004:	02000513          	li	a0,32
    80004008:	86e6                	mv	a3,s9
    8000400a:	00ac8633          	add	a2,s9,a0
    8000400e:	fa063703          	ld	a4,-96(a2)
    80004012:	fe86b783          	ld	a5,-24(a3)
    80004016:	fa863403          	ld	s0,-88(a2)
    8000401a:	ff06b483          	ld	s1,-16(a3)
    8000401e:	02e78733          	mul	a4,a5,a4
    80004022:	028487b3          	mul	a5,s1,s0
    80004026:	fb063403          	ld	s0,-80(a2)
    8000402a:	ff86b483          	ld	s1,-8(a3)
    8000402e:	fb863603          	ld	a2,-72(a2)
    80004032:	628c                	ld	a1,0(a3)
    80004034:	02848433          	mul	s0,s1,s0
    80004038:	02c585b3          	mul	a1,a1,a2
    8000403c:	00170633          	add	a2,a4,ra
    80004040:	963e                	add	a2,a2,a5
    80004042:	9622                	add	a2,a2,s0
    80004044:	00b600b3          	add	ra,a2,a1
    80004048:	1501                	addi	a0,a0,-32
    8000404a:	02068693          	addi	a3,a3,32
    8000404e:	fb251ee3          	bne	a0,s2,8000400a <main+0x1eb6>
    80004052:	4d01                	li	s10,0
    80004054:	7542                	ld	a0,48(sp)
    80004056:	16153023          	sd	ra,352(a0)
    8000405a:	1a0ebc03          	ld	s8,416(t4)
    8000405e:	f8f2                	sd	t3,112(sp)
    80004060:	fc9a                	sd	t1,120(sp)
    80004062:	e17a                	sd	t5,128(sp)
    80004064:	e51e                	sd	t2,136(sp)
    80004066:	e962                	sd	s8,144(sp)
    80004068:	ed42                	sd	a6,152(sp)
    8000406a:	f15a                	sd	s6,160(sp)
    8000406c:	f55e                	sd	s7,168(sp)
    8000406e:	4515                	li	a0,5
    80004070:	f92a                	sd	a0,176(sp)
    80004072:	7522                	ld	a0,40(sp)
    80004074:	fd2a                	sd	a0,184(sp)
    80004076:	7526                	ld	a0,104(sp)
    80004078:	e1aa                	sd	a0,192(sp)
    8000407a:	7506                	ld	a0,96(sp)
    8000407c:	e5aa                	sd	a0,200(sp)
    8000407e:	6566                	ld	a0,88(sp)
    80004080:	e9aa                	sd	a0,208(sp)
    80004082:	6546                	ld	a0,80(sp)
    80004084:	edaa                	sd	a0,216(sp)
    80004086:	6526                	ld	a0,72(sp)
    80004088:	f1aa                	sd	a0,224(sp)
    8000408a:	6506                	ld	a0,64(sp)
    8000408c:	f5aa                	sd	a0,232(sp)
    8000408e:	7562                	ld	a0,56(sp)
    80004090:	f9aa                	sd	a0,240(sp)
    80004092:	02800593          	li	a1,40
    80004096:	06000693          	li	a3,96
    8000409a:	00b28633          	add	a2,t0,a1
    8000409e:	6218                	ld	a4,0(a2)
    800040a0:	00d287b3          	add	a5,t0,a3
    800040a4:	fe87b483          	ld	s1,-24(a5)
    800040a8:	6600                	ld	s0,8(a2)
    800040aa:	ff07b503          	ld	a0,-16(a5)
    800040ae:	02e48733          	mul	a4,s1,a4
    800040b2:	02850533          	mul	a0,a0,s0
    800040b6:	6a10                	ld	a2,16(a2)
    800040b8:	ff87b483          	ld	s1,-8(a5)
    800040bc:	fa07b403          	ld	s0,-96(a5)
    800040c0:	639c                	ld	a5,0(a5)
    800040c2:	02c48633          	mul	a2,s1,a2
    800040c6:	028787b3          	mul	a5,a5,s0
    800040ca:	976a                	add	a4,a4,s10
    800040cc:	953a                	add	a0,a0,a4
    800040ce:	9532                	add	a0,a0,a2
    800040d0:	00f50d33          	add	s10,a0,a5
    800040d4:	1581                	addi	a1,a1,-32
    800040d6:	02068693          	addi	a3,a3,32
    800040da:	fdb590e3          	bne	a1,s11,8000409a <main+0x1f46>
    800040de:	4081                	li	ra,0
    800040e0:	7542                	ld	a0,48(sp)
    800040e2:	17a53423          	sd	s10,360(a0)
    800040e6:	1a8eb803          	ld	a6,424(t4)
    800040ea:	f8f2                	sd	t3,112(sp)
    800040ec:	fc9a                	sd	t1,120(sp)
    800040ee:	e17a                	sd	t5,128(sp)
    800040f0:	e51e                	sd	t2,136(sp)
    800040f2:	e962                	sd	s8,144(sp)
    800040f4:	ed42                	sd	a6,152(sp)
    800040f6:	f15a                	sd	s6,160(sp)
    800040f8:	f55e                	sd	s7,168(sp)
    800040fa:	4519                	li	a0,6
    800040fc:	f92a                	sd	a0,176(sp)
    800040fe:	7522                	ld	a0,40(sp)
    80004100:	fd2a                	sd	a0,184(sp)
    80004102:	7526                	ld	a0,104(sp)
    80004104:	e1aa                	sd	a0,192(sp)
    80004106:	7506                	ld	a0,96(sp)
    80004108:	e5aa                	sd	a0,200(sp)
    8000410a:	6566                	ld	a0,88(sp)
    8000410c:	e9aa                	sd	a0,208(sp)
    8000410e:	6546                	ld	a0,80(sp)
    80004110:	edaa                	sd	a0,216(sp)
    80004112:	6526                	ld	a0,72(sp)
    80004114:	f1aa                	sd	a0,224(sp)
    80004116:	6506                	ld	a0,64(sp)
    80004118:	f5aa                	sd	a0,232(sp)
    8000411a:	7562                	ld	a0,56(sp)
    8000411c:	f9aa                	sd	a0,240(sp)
    8000411e:	fc000513          	li	a0,-64
    80004122:	86fe                	mv	a3,t6
    80004124:	ff86b603          	ld	a2,-8(a3)
    80004128:	00aa8733          	add	a4,s5,a0
    8000412c:	6f3c                	ld	a5,88(a4)
    8000412e:	6280                	ld	s0,0(a3)
    80004130:	7324                	ld	s1,96(a4)
    80004132:	02c78633          	mul	a2,a5,a2
    80004136:	028487b3          	mul	a5,s1,s0
    8000413a:	6b00                	ld	s0,16(a4)
    8000413c:	7724                	ld	s1,104(a4)
    8000413e:	6f0c                	ld	a1,24(a4)
    80004140:	7b38                	ld	a4,112(a4)
    80004142:	02848433          	mul	s0,s1,s0
    80004146:	02b705b3          	mul	a1,a4,a1
    8000414a:	9606                	add	a2,a2,ra
    8000414c:	963e                	add	a2,a2,a5
    8000414e:	9622                	add	a2,a2,s0
    80004150:	00b600b3          	add	ra,a2,a1
    80004154:	02050513          	addi	a0,a0,32
    80004158:	1681                	addi	a3,a3,-32
    8000415a:	f569                	bnez	a0,80004124 <main+0x1fd0>
    8000415c:	4d01                	li	s10,0
    8000415e:	7542                	ld	a0,48(sp)
    80004160:	16153823          	sd	ra,368(a0)
    80004164:	1b0ebb03          	ld	s6,432(t4)
    80004168:	f8f2                	sd	t3,112(sp)
    8000416a:	fc9a                	sd	t1,120(sp)
    8000416c:	e17a                	sd	t5,128(sp)
    8000416e:	e51e                	sd	t2,136(sp)
    80004170:	e962                	sd	s8,144(sp)
    80004172:	ed42                	sd	a6,152(sp)
    80004174:	f15a                	sd	s6,160(sp)
    80004176:	f55e                	sd	s7,168(sp)
    80004178:	451d                	li	a0,7
    8000417a:	f92a                	sd	a0,176(sp)
    8000417c:	70a2                	ld	ra,40(sp)
    8000417e:	fd06                	sd	ra,184(sp)
    80004180:	7526                	ld	a0,104(sp)
    80004182:	e1aa                	sd	a0,192(sp)
    80004184:	7506                	ld	a0,96(sp)
    80004186:	e5aa                	sd	a0,200(sp)
    80004188:	6566                	ld	a0,88(sp)
    8000418a:	e9aa                	sd	a0,208(sp)
    8000418c:	6546                	ld	a0,80(sp)
    8000418e:	edaa                	sd	a0,216(sp)
    80004190:	6526                	ld	a0,72(sp)
    80004192:	f1aa                	sd	a0,224(sp)
    80004194:	6506                	ld	a0,64(sp)
    80004196:	f5aa                	sd	a0,232(sp)
    80004198:	7562                	ld	a0,56(sp)
    8000419a:	f9aa                	sd	a0,240(sp)
    8000419c:	03800593          	li	a1,56
    800041a0:	06000693          	li	a3,96
    800041a4:	00b28633          	add	a2,t0,a1
    800041a8:	6210                	ld	a2,0(a2)
    800041aa:	00d28733          	add	a4,t0,a3
    800041ae:	fe873783          	ld	a5,-24(a4)
    800041b2:	fa073403          	ld	s0,-96(a4)
    800041b6:	ff073483          	ld	s1,-16(a4)
    800041ba:	02c78633          	mul	a2,a5,a2
    800041be:	028487b3          	mul	a5,s1,s0
    800041c2:	fa873403          	ld	s0,-88(a4)
    800041c6:	ff873483          	ld	s1,-8(a4)
    800041ca:	fb073503          	ld	a0,-80(a4)
    800041ce:	6318                	ld	a4,0(a4)
    800041d0:	02848433          	mul	s0,s1,s0
    800041d4:	02a70533          	mul	a0,a4,a0
    800041d8:	966a                	add	a2,a2,s10
    800041da:	963e                	add	a2,a2,a5
    800041dc:	9622                	add	a2,a2,s0
    800041de:	00a60d33          	add	s10,a2,a0
    800041e2:	1581                	addi	a1,a1,-32
    800041e4:	02068693          	addi	a3,a3,32
    800041e8:	fb359ee3          	bne	a1,s3,800041a4 <main+0x2050>
    800041ec:	4581                	li	a1,0
    800041ee:	7542                	ld	a0,48(sp)
    800041f0:	17a53c23          	sd	s10,376(a0)
    800041f4:	1b8ebb83          	ld	s7,440(t4)
    800041f8:	f8f2                	sd	t3,112(sp)
    800041fa:	fc9a                	sd	t1,120(sp)
    800041fc:	e17a                	sd	t5,128(sp)
    800041fe:	e51e                	sd	t2,136(sp)
    80004200:	e962                	sd	s8,144(sp)
    80004202:	ed42                	sd	a6,152(sp)
    80004204:	f15a                	sd	s6,160(sp)
    80004206:	f55e                	sd	s7,168(sp)
    80004208:	f902                	sd	zero,176(sp)
    8000420a:	fd06                	sd	ra,184(sp)
    8000420c:	7526                	ld	a0,104(sp)
    8000420e:	e1aa                	sd	a0,192(sp)
    80004210:	7506                	ld	a0,96(sp)
    80004212:	e5aa                	sd	a0,200(sp)
    80004214:	6566                	ld	a0,88(sp)
    80004216:	e9aa                	sd	a0,208(sp)
    80004218:	6546                	ld	a0,80(sp)
    8000421a:	edaa                	sd	a0,216(sp)
    8000421c:	6526                	ld	a0,72(sp)
    8000421e:	f1aa                	sd	a0,224(sp)
    80004220:	6506                	ld	a0,64(sp)
    80004222:	f5aa                	sd	a0,232(sp)
    80004224:	7562                	ld	a0,56(sp)
    80004226:	f9aa                	sd	a0,240(sp)
    80004228:	4541                	li	a0,16
    8000422a:	05000e13          	li	t3,80
    8000422e:	00a28633          	add	a2,t0,a0
    80004232:	ff063683          	ld	a3,-16(a2)
    80004236:	7e18                	ld	a4,56(a2)
    80004238:	02d706b3          	mul	a3,a4,a3
    8000423c:	ff863703          	ld	a4,-8(a2)
    80004240:	623c                	ld	a5,64(a2)
    80004242:	6204                	ld	s1,0(a2)
    80004244:	6620                	ld	s0,72(a2)
    80004246:	02e78733          	mul	a4,a5,a4
    8000424a:	029407b3          	mul	a5,s0,s1
    8000424e:	6604                	ld	s1,8(a2)
    80004250:	6a30                	ld	a2,80(a2)
    80004252:	95b6                	add	a1,a1,a3
    80004254:	02960633          	mul	a2,a2,s1
    80004258:	95ba                	add	a1,a1,a4
    8000425a:	95be                	add	a1,a1,a5
    8000425c:	02050513          	addi	a0,a0,32
    80004260:	95b2                	add	a1,a1,a2
    80004262:	fdc516e3          	bne	a0,t3,8000422e <main+0x20da>
    80004266:	4501                	li	a0,0
    80004268:	4401                	li	s0,0
    8000426a:	1c0ebe03          	ld	t3,448(t4)
    8000426e:	7642                	ld	a2,48(sp)
    80004270:	18b63023          	sd	a1,384(a2)
    80004274:	f8f2                	sd	t3,112(sp)
    80004276:	fc9a                	sd	t1,120(sp)
    80004278:	e17a                	sd	t5,128(sp)
    8000427a:	e51e                	sd	t2,136(sp)
    8000427c:	e962                	sd	s8,144(sp)
    8000427e:	ed42                	sd	a6,152(sp)
    80004280:	f15a                	sd	s6,160(sp)
    80004282:	f55e                	sd	s7,168(sp)
    80004284:	4585                	li	a1,1
    80004286:	f92e                	sd	a1,176(sp)
    80004288:	fd06                	sd	ra,184(sp)
    8000428a:	75a6                	ld	a1,104(sp)
    8000428c:	e1ae                	sd	a1,192(sp)
    8000428e:	7586                	ld	a1,96(sp)
    80004290:	e5ae                	sd	a1,200(sp)
    80004292:	65e6                	ld	a1,88(sp)
    80004294:	e9ae                	sd	a1,208(sp)
    80004296:	65c6                	ld	a1,80(sp)
    80004298:	edae                	sd	a1,216(sp)
    8000429a:	65a6                	ld	a1,72(sp)
    8000429c:	f1ae                	sd	a1,224(sp)
    8000429e:	6586                	ld	a1,64(sp)
    800042a0:	f5ae                	sd	a1,232(sp)
    800042a2:	75e2                	ld	a1,56(sp)
    800042a4:	f9ae                	sd	a1,240(sp)
    800042a6:	192c                	addi	a1,sp,184
    800042a8:	fc05b603          	ld	a2,-64(a1)
    800042ac:	6194                	ld	a3,0(a1)
    800042ae:	fc85b703          	ld	a4,-56(a1)
    800042b2:	659c                	ld	a5,8(a1)
    800042b4:	02c68333          	mul	t1,a3,a2
    800042b8:	02e786b3          	mul	a3,a5,a4
    800042bc:	fd05b703          	ld	a4,-48(a1)
    800042c0:	699c                	ld	a5,16(a1)
    800042c2:	00454493          	xori	s1,a0,4
    800042c6:	048e                	slli	s1,s1,0x3
    800042c8:	9496                	add	s1,s1,t0
    800042ca:	6084                	ld	s1,0(s1)
    800042cc:	6d90                	ld	a2,24(a1)
    800042ce:	02e78733          	mul	a4,a5,a4
    800042d2:	02960633          	mul	a2,a2,s1
    800042d6:	008307b3          	add	a5,t1,s0
    800042da:	96be                	add	a3,a3,a5
    800042dc:	96ba                	add	a3,a3,a4
    800042de:	00c68433          	add	s0,a3,a2
    800042e2:	0511                	addi	a0,a0,4
    800042e4:	02058593          	addi	a1,a1,32
    800042e8:	fd4510e3          	bne	a0,s4,800042a8 <main+0x2154>
    800042ec:	4681                	li	a3,0
    800042ee:	4501                	li	a0,0
    800042f0:	75c2                	ld	a1,48(sp)
    800042f2:	1885b423          	sd	s0,392(a1)
    800042f6:	1c8eb303          	ld	t1,456(t4)
    800042fa:	f8f2                	sd	t3,112(sp)
    800042fc:	fc9a                	sd	t1,120(sp)
    800042fe:	e17a                	sd	t5,128(sp)
    80004300:	e51e                	sd	t2,136(sp)
    80004302:	e962                	sd	s8,144(sp)
    80004304:	ed42                	sd	a6,152(sp)
    80004306:	f15a                	sd	s6,160(sp)
    80004308:	f55e                	sd	s7,168(sp)
    8000430a:	4589                	li	a1,2
    8000430c:	f92e                	sd	a1,176(sp)
    8000430e:	fd06                	sd	ra,184(sp)
    80004310:	75a6                	ld	a1,104(sp)
    80004312:	e1ae                	sd	a1,192(sp)
    80004314:	7586                	ld	a1,96(sp)
    80004316:	e5ae                	sd	a1,200(sp)
    80004318:	65e6                	ld	a1,88(sp)
    8000431a:	e9ae                	sd	a1,208(sp)
    8000431c:	65c6                	ld	a1,80(sp)
    8000431e:	edae                	sd	a1,216(sp)
    80004320:	65a6                	ld	a1,72(sp)
    80004322:	f1ae                	sd	a1,224(sp)
    80004324:	6586                	ld	a1,64(sp)
    80004326:	f5ae                	sd	a1,232(sp)
    80004328:	75e2                	ld	a1,56(sp)
    8000432a:	f9ae                	sd	a1,240(sp)
    8000432c:	85e6                	mv	a1,s9
    8000432e:	093c                	addi	a5,sp,152
    80004330:	fb05b603          	ld	a2,-80(a1)
    80004334:	fe85b703          	ld	a4,-24(a1)
    80004338:	fb85b483          	ld	s1,-72(a1)
    8000433c:	ff05b403          	ld	s0,-16(a1)
    80004340:	02c70f33          	mul	t5,a4,a2
    80004344:	02940d33          	mul	s10,s0,s1
    80004348:	0046c493          	xori	s1,a3,4
    8000434c:	048e                	slli	s1,s1,0x3
    8000434e:	9496                	add	s1,s1,t0
    80004350:	6084                	ld	s1,0(s1)
    80004352:	ff85b403          	ld	s0,-8(a1)
    80004356:	6390                	ld	a2,0(a5)
    80004358:	6198                	ld	a4,0(a1)
    8000435a:	02940433          	mul	s0,s0,s1
    8000435e:	02c70633          	mul	a2,a4,a2
    80004362:	957a                	add	a0,a0,t5
    80004364:	956a                	add	a0,a0,s10
    80004366:	9522                	add	a0,a0,s0
    80004368:	9532                	add	a0,a0,a2
    8000436a:	0691                	addi	a3,a3,4
    8000436c:	1781                	addi	a5,a5,-32
    8000436e:	02058593          	addi	a1,a1,32
    80004372:	fb469fe3          	bne	a3,s4,80004330 <main+0x21dc>
    80004376:	4681                	li	a3,0
    80004378:	4d01                	li	s10,0
    8000437a:	75c2                	ld	a1,48(sp)
    8000437c:	18a5b823          	sd	a0,400(a1)
    80004380:	1d0ebf03          	ld	t5,464(t4)
    80004384:	f8f2                	sd	t3,112(sp)
    80004386:	fc9a                	sd	t1,120(sp)
    80004388:	e17a                	sd	t5,128(sp)
    8000438a:	e51e                	sd	t2,136(sp)
    8000438c:	e962                	sd	s8,144(sp)
    8000438e:	ed42                	sd	a6,152(sp)
    80004390:	f15a                	sd	s6,160(sp)
    80004392:	f55e                	sd	s7,168(sp)
    80004394:	450d                	li	a0,3
    80004396:	f92a                	sd	a0,176(sp)
    80004398:	fd06                	sd	ra,184(sp)
    8000439a:	7526                	ld	a0,104(sp)
    8000439c:	e1aa                	sd	a0,192(sp)
    8000439e:	7506                	ld	a0,96(sp)
    800043a0:	e5aa                	sd	a0,200(sp)
    800043a2:	6566                	ld	a0,88(sp)
    800043a4:	e9aa                	sd	a0,208(sp)
    800043a6:	6546                	ld	a0,80(sp)
    800043a8:	edaa                	sd	a0,216(sp)
    800043aa:	6526                	ld	a0,72(sp)
    800043ac:	f1aa                	sd	a0,224(sp)
    800043ae:	6506                	ld	a0,64(sp)
    800043b0:	f5aa                	sd	a0,232(sp)
    800043b2:	7562                	ld	a0,56(sp)
    800043b4:	f9aa                	sd	a0,240(sp)
    800043b6:	fc000513          	li	a0,-64
    800043ba:	85d6                	mv	a1,s5
    800043bc:	00aa8633          	add	a2,s5,a0
    800043c0:	7618                	ld	a4,40(a2)
    800043c2:	6e3c                	ld	a5,88(a2)
    800043c4:	0046c493          	xori	s1,a3,4
    800043c8:	048e                	slli	s1,s1,0x3
    800043ca:	9496                	add	s1,s1,t0
    800043cc:	6084                	ld	s1,0(s1)
    800043ce:	7220                	ld	s0,96(a2)
    800043d0:	02e783b3          	mul	t2,a5,a4
    800043d4:	029407b3          	mul	a5,s0,s1
    800043d8:	ff85b483          	ld	s1,-8(a1)
    800043dc:	7620                	ld	s0,104(a2)
    800043de:	6198                	ld	a4,0(a1)
    800043e0:	7a30                	ld	a2,112(a2)
    800043e2:	02940433          	mul	s0,s0,s1
    800043e6:	02e60633          	mul	a2,a2,a4
    800043ea:	01a38733          	add	a4,t2,s10
    800043ee:	973e                	add	a4,a4,a5
    800043f0:	9722                	add	a4,a4,s0
    800043f2:	00c70d33          	add	s10,a4,a2
    800043f6:	0691                	addi	a3,a3,4
    800043f8:	02050513          	addi	a0,a0,32
    800043fc:	1581                	addi	a1,a1,-32
    800043fe:	fd5d                	bnez	a0,800043bc <main+0x2268>
    80004400:	4081                	li	ra,0
    80004402:	7542                	ld	a0,48(sp)
    80004404:	19a53c23          	sd	s10,408(a0)
    80004408:	1d8eb383          	ld	t2,472(t4)
    8000440c:	f8f2                	sd	t3,112(sp)
    8000440e:	fc9a                	sd	t1,120(sp)
    80004410:	e17a                	sd	t5,128(sp)
    80004412:	e51e                	sd	t2,136(sp)
    80004414:	e962                	sd	s8,144(sp)
    80004416:	ed42                	sd	a6,152(sp)
    80004418:	f15a                	sd	s6,160(sp)
    8000441a:	f55e                	sd	s7,168(sp)
    8000441c:	4511                	li	a0,4
    8000441e:	f92a                	sd	a0,176(sp)
    80004420:	7522                	ld	a0,40(sp)
    80004422:	fd2a                	sd	a0,184(sp)
    80004424:	7526                	ld	a0,104(sp)
    80004426:	e1aa                	sd	a0,192(sp)
    80004428:	7506                	ld	a0,96(sp)
    8000442a:	e5aa                	sd	a0,200(sp)
    8000442c:	6566                	ld	a0,88(sp)
    8000442e:	e9aa                	sd	a0,208(sp)
    80004430:	6546                	ld	a0,80(sp)
    80004432:	edaa                	sd	a0,216(sp)
    80004434:	6526                	ld	a0,72(sp)
    80004436:	f1aa                	sd	a0,224(sp)
    80004438:	6506                	ld	a0,64(sp)
    8000443a:	f5aa                	sd	a0,232(sp)
    8000443c:	7562                	ld	a0,56(sp)
    8000443e:	f9aa                	sd	a0,240(sp)
    80004440:	02000513          	li	a0,32
    80004444:	86e6                	mv	a3,s9
    80004446:	00ac8633          	add	a2,s9,a0
    8000444a:	fa063703          	ld	a4,-96(a2)
    8000444e:	fe86b783          	ld	a5,-24(a3)
    80004452:	fa863403          	ld	s0,-88(a2)
    80004456:	ff06b483          	ld	s1,-16(a3)
    8000445a:	02e78733          	mul	a4,a5,a4
    8000445e:	028487b3          	mul	a5,s1,s0
    80004462:	fb063403          	ld	s0,-80(a2)
    80004466:	ff86b483          	ld	s1,-8(a3)
    8000446a:	fb863603          	ld	a2,-72(a2)
    8000446e:	628c                	ld	a1,0(a3)
    80004470:	02848433          	mul	s0,s1,s0
    80004474:	02c585b3          	mul	a1,a1,a2
    80004478:	00170633          	add	a2,a4,ra
    8000447c:	963e                	add	a2,a2,a5
    8000447e:	9622                	add	a2,a2,s0
    80004480:	00b600b3          	add	ra,a2,a1
    80004484:	1501                	addi	a0,a0,-32
    80004486:	02068693          	addi	a3,a3,32
    8000448a:	fb251ee3          	bne	a0,s2,80004446 <main+0x22f2>
    8000448e:	4d01                	li	s10,0
    80004490:	7542                	ld	a0,48(sp)
    80004492:	1a153023          	sd	ra,416(a0)
    80004496:	1e0ebc03          	ld	s8,480(t4)
    8000449a:	f8f2                	sd	t3,112(sp)
    8000449c:	fc9a                	sd	t1,120(sp)
    8000449e:	e17a                	sd	t5,128(sp)
    800044a0:	e51e                	sd	t2,136(sp)
    800044a2:	e962                	sd	s8,144(sp)
    800044a4:	ed42                	sd	a6,152(sp)
    800044a6:	f15a                	sd	s6,160(sp)
    800044a8:	f55e                	sd	s7,168(sp)
    800044aa:	4515                	li	a0,5
    800044ac:	f92a                	sd	a0,176(sp)
    800044ae:	7522                	ld	a0,40(sp)
    800044b0:	fd2a                	sd	a0,184(sp)
    800044b2:	7526                	ld	a0,104(sp)
    800044b4:	e1aa                	sd	a0,192(sp)
    800044b6:	7506                	ld	a0,96(sp)
    800044b8:	e5aa                	sd	a0,200(sp)
    800044ba:	6566                	ld	a0,88(sp)
    800044bc:	e9aa                	sd	a0,208(sp)
    800044be:	6546                	ld	a0,80(sp)
    800044c0:	edaa                	sd	a0,216(sp)
    800044c2:	6526                	ld	a0,72(sp)
    800044c4:	f1aa                	sd	a0,224(sp)
    800044c6:	6506                	ld	a0,64(sp)
    800044c8:	f5aa                	sd	a0,232(sp)
    800044ca:	7562                	ld	a0,56(sp)
    800044cc:	f9aa                	sd	a0,240(sp)
    800044ce:	02800593          	li	a1,40
    800044d2:	06000693          	li	a3,96
    800044d6:	00b28633          	add	a2,t0,a1
    800044da:	6218                	ld	a4,0(a2)
    800044dc:	00d287b3          	add	a5,t0,a3
    800044e0:	fe87b483          	ld	s1,-24(a5)
    800044e4:	6600                	ld	s0,8(a2)
    800044e6:	ff07b503          	ld	a0,-16(a5)
    800044ea:	02e48733          	mul	a4,s1,a4
    800044ee:	02850533          	mul	a0,a0,s0
    800044f2:	6a10                	ld	a2,16(a2)
    800044f4:	ff87b483          	ld	s1,-8(a5)
    800044f8:	fa07b403          	ld	s0,-96(a5)
    800044fc:	639c                	ld	a5,0(a5)
    800044fe:	02c48633          	mul	a2,s1,a2
    80004502:	028787b3          	mul	a5,a5,s0
    80004506:	976a                	add	a4,a4,s10
    80004508:	953a                	add	a0,a0,a4
    8000450a:	9532                	add	a0,a0,a2
    8000450c:	00f50d33          	add	s10,a0,a5
    80004510:	1581                	addi	a1,a1,-32
    80004512:	02068693          	addi	a3,a3,32
    80004516:	fdb590e3          	bne	a1,s11,800044d6 <main+0x2382>
    8000451a:	4081                	li	ra,0
    8000451c:	7542                	ld	a0,48(sp)
    8000451e:	1ba53423          	sd	s10,424(a0)
    80004522:	1e8eb803          	ld	a6,488(t4)
    80004526:	f8f2                	sd	t3,112(sp)
    80004528:	fc9a                	sd	t1,120(sp)
    8000452a:	e17a                	sd	t5,128(sp)
    8000452c:	e51e                	sd	t2,136(sp)
    8000452e:	e962                	sd	s8,144(sp)
    80004530:	ed42                	sd	a6,152(sp)
    80004532:	f15a                	sd	s6,160(sp)
    80004534:	f55e                	sd	s7,168(sp)
    80004536:	4519                	li	a0,6
    80004538:	f92a                	sd	a0,176(sp)
    8000453a:	7522                	ld	a0,40(sp)
    8000453c:	fd2a                	sd	a0,184(sp)
    8000453e:	7526                	ld	a0,104(sp)
    80004540:	e1aa                	sd	a0,192(sp)
    80004542:	7506                	ld	a0,96(sp)
    80004544:	e5aa                	sd	a0,200(sp)
    80004546:	6566                	ld	a0,88(sp)
    80004548:	e9aa                	sd	a0,208(sp)
    8000454a:	6546                	ld	a0,80(sp)
    8000454c:	edaa                	sd	a0,216(sp)
    8000454e:	6526                	ld	a0,72(sp)
    80004550:	f1aa                	sd	a0,224(sp)
    80004552:	6506                	ld	a0,64(sp)
    80004554:	f5aa                	sd	a0,232(sp)
    80004556:	7562                	ld	a0,56(sp)
    80004558:	f9aa                	sd	a0,240(sp)
    8000455a:	fc000513          	li	a0,-64
    8000455e:	86fe                	mv	a3,t6
    80004560:	ff86b603          	ld	a2,-8(a3)
    80004564:	00aa8733          	add	a4,s5,a0
    80004568:	6f3c                	ld	a5,88(a4)
    8000456a:	6280                	ld	s0,0(a3)
    8000456c:	7324                	ld	s1,96(a4)
    8000456e:	02c78633          	mul	a2,a5,a2
    80004572:	028487b3          	mul	a5,s1,s0
    80004576:	6b00                	ld	s0,16(a4)
    80004578:	7724                	ld	s1,104(a4)
    8000457a:	6f0c                	ld	a1,24(a4)
    8000457c:	7b38                	ld	a4,112(a4)
    8000457e:	02848433          	mul	s0,s1,s0
    80004582:	02b705b3          	mul	a1,a4,a1
    80004586:	9606                	add	a2,a2,ra
    80004588:	963e                	add	a2,a2,a5
    8000458a:	9622                	add	a2,a2,s0
    8000458c:	00b600b3          	add	ra,a2,a1
    80004590:	02050513          	addi	a0,a0,32
    80004594:	1681                	addi	a3,a3,-32
    80004596:	f569                	bnez	a0,80004560 <main+0x240c>
    80004598:	4d01                	li	s10,0
    8000459a:	7542                	ld	a0,48(sp)
    8000459c:	1a153823          	sd	ra,432(a0)
    800045a0:	1f0ebb03          	ld	s6,496(t4)
    800045a4:	f8f2                	sd	t3,112(sp)
    800045a6:	fc9a                	sd	t1,120(sp)
    800045a8:	e17a                	sd	t5,128(sp)
    800045aa:	e51e                	sd	t2,136(sp)
    800045ac:	e962                	sd	s8,144(sp)
    800045ae:	ed42                	sd	a6,152(sp)
    800045b0:	f15a                	sd	s6,160(sp)
    800045b2:	f55e                	sd	s7,168(sp)
    800045b4:	451d                	li	a0,7
    800045b6:	f92a                	sd	a0,176(sp)
    800045b8:	70a2                	ld	ra,40(sp)
    800045ba:	fd06                	sd	ra,184(sp)
    800045bc:	7526                	ld	a0,104(sp)
    800045be:	e1aa                	sd	a0,192(sp)
    800045c0:	7506                	ld	a0,96(sp)
    800045c2:	e5aa                	sd	a0,200(sp)
    800045c4:	6566                	ld	a0,88(sp)
    800045c6:	e9aa                	sd	a0,208(sp)
    800045c8:	6546                	ld	a0,80(sp)
    800045ca:	edaa                	sd	a0,216(sp)
    800045cc:	6526                	ld	a0,72(sp)
    800045ce:	f1aa                	sd	a0,224(sp)
    800045d0:	6506                	ld	a0,64(sp)
    800045d2:	f5aa                	sd	a0,232(sp)
    800045d4:	7562                	ld	a0,56(sp)
    800045d6:	f9aa                	sd	a0,240(sp)
    800045d8:	03800593          	li	a1,56
    800045dc:	06000693          	li	a3,96
    800045e0:	00b28633          	add	a2,t0,a1
    800045e4:	6210                	ld	a2,0(a2)
    800045e6:	00d28733          	add	a4,t0,a3
    800045ea:	fe873783          	ld	a5,-24(a4)
    800045ee:	fa073403          	ld	s0,-96(a4)
    800045f2:	ff073483          	ld	s1,-16(a4)
    800045f6:	02c78633          	mul	a2,a5,a2
    800045fa:	028487b3          	mul	a5,s1,s0
    800045fe:	fa873403          	ld	s0,-88(a4)
    80004602:	ff873483          	ld	s1,-8(a4)
    80004606:	fb073503          	ld	a0,-80(a4)
    8000460a:	6318                	ld	a4,0(a4)
    8000460c:	02848433          	mul	s0,s1,s0
    80004610:	02a70533          	mul	a0,a4,a0
    80004614:	966a                	add	a2,a2,s10
    80004616:	963e                	add	a2,a2,a5
    80004618:	9622                	add	a2,a2,s0
    8000461a:	00a60d33          	add	s10,a2,a0
    8000461e:	1581                	addi	a1,a1,-32
    80004620:	02068693          	addi	a3,a3,32
    80004624:	fb359ee3          	bne	a1,s3,800045e0 <main+0x248c>
    80004628:	4581                	li	a1,0
    8000462a:	7542                	ld	a0,48(sp)
    8000462c:	1ba53c23          	sd	s10,440(a0)
    80004630:	1f8ebb83          	ld	s7,504(t4)
    80004634:	f8f2                	sd	t3,112(sp)
    80004636:	fc9a                	sd	t1,120(sp)
    80004638:	e17a                	sd	t5,128(sp)
    8000463a:	e51e                	sd	t2,136(sp)
    8000463c:	e962                	sd	s8,144(sp)
    8000463e:	ed42                	sd	a6,152(sp)
    80004640:	f15a                	sd	s6,160(sp)
    80004642:	f55e                	sd	s7,168(sp)
    80004644:	f902                	sd	zero,176(sp)
    80004646:	fd06                	sd	ra,184(sp)
    80004648:	7526                	ld	a0,104(sp)
    8000464a:	e1aa                	sd	a0,192(sp)
    8000464c:	7506                	ld	a0,96(sp)
    8000464e:	e5aa                	sd	a0,200(sp)
    80004650:	6566                	ld	a0,88(sp)
    80004652:	e9aa                	sd	a0,208(sp)
    80004654:	6546                	ld	a0,80(sp)
    80004656:	edaa                	sd	a0,216(sp)
    80004658:	6526                	ld	a0,72(sp)
    8000465a:	f1aa                	sd	a0,224(sp)
    8000465c:	6506                	ld	a0,64(sp)
    8000465e:	f5aa                	sd	a0,232(sp)
    80004660:	7562                	ld	a0,56(sp)
    80004662:	f9aa                	sd	a0,240(sp)
    80004664:	4541                	li	a0,16
    80004666:	05000e13          	li	t3,80
    8000466a:	00a28633          	add	a2,t0,a0
    8000466e:	ff063683          	ld	a3,-16(a2)
    80004672:	7e18                	ld	a4,56(a2)
    80004674:	02d706b3          	mul	a3,a4,a3
    80004678:	ff863703          	ld	a4,-8(a2)
    8000467c:	623c                	ld	a5,64(a2)
    8000467e:	6204                	ld	s1,0(a2)
    80004680:	6620                	ld	s0,72(a2)
    80004682:	02e78733          	mul	a4,a5,a4
    80004686:	029407b3          	mul	a5,s0,s1
    8000468a:	6604                	ld	s1,8(a2)
    8000468c:	6a30                	ld	a2,80(a2)
    8000468e:	95b6                	add	a1,a1,a3
    80004690:	02960633          	mul	a2,a2,s1
    80004694:	95ba                	add	a1,a1,a4
    80004696:	95be                	add	a1,a1,a5
    80004698:	02050513          	addi	a0,a0,32
    8000469c:	95b2                	add	a1,a1,a2
    8000469e:	fdc516e3          	bne	a0,t3,8000466a <main+0x2516>
    800046a2:	4681                	li	a3,0
    800046a4:	4501                	li	a0,0
    800046a6:	200ebe03          	ld	t3,512(t4)
    800046aa:	7642                	ld	a2,48(sp)
    800046ac:	1cb63023          	sd	a1,448(a2)
    800046b0:	f8f2                	sd	t3,112(sp)
    800046b2:	fc9a                	sd	t1,120(sp)
    800046b4:	e17a                	sd	t5,128(sp)
    800046b6:	e51e                	sd	t2,136(sp)
    800046b8:	e962                	sd	s8,144(sp)
    800046ba:	ed42                	sd	a6,152(sp)
    800046bc:	f15a                	sd	s6,160(sp)
    800046be:	f55e                	sd	s7,168(sp)
    800046c0:	4585                	li	a1,1
    800046c2:	f92e                	sd	a1,176(sp)
    800046c4:	fd06                	sd	ra,184(sp)
    800046c6:	75a6                	ld	a1,104(sp)
    800046c8:	e1ae                	sd	a1,192(sp)
    800046ca:	7586                	ld	a1,96(sp)
    800046cc:	e5ae                	sd	a1,200(sp)
    800046ce:	65e6                	ld	a1,88(sp)
    800046d0:	e9ae                	sd	a1,208(sp)
    800046d2:	65c6                	ld	a1,80(sp)
    800046d4:	edae                	sd	a1,216(sp)
    800046d6:	65a6                	ld	a1,72(sp)
    800046d8:	f1ae                	sd	a1,224(sp)
    800046da:	6586                	ld	a1,64(sp)
    800046dc:	f5ae                	sd	a1,232(sp)
    800046de:	75e2                	ld	a1,56(sp)
    800046e0:	f9ae                	sd	a1,240(sp)
    800046e2:	192c                	addi	a1,sp,184
    800046e4:	fc05b603          	ld	a2,-64(a1)
    800046e8:	6198                	ld	a4,0(a1)
    800046ea:	fc85b783          	ld	a5,-56(a1)
    800046ee:	6584                	ld	s1,8(a1)
    800046f0:	02c70333          	mul	t1,a4,a2
    800046f4:	02f48733          	mul	a4,s1,a5
    800046f8:	fd05b783          	ld	a5,-48(a1)
    800046fc:	6984                	ld	s1,16(a1)
    800046fe:	0046c413          	xori	s0,a3,4
    80004702:	040e                	slli	s0,s0,0x3
    80004704:	9416                	add	s0,s0,t0
    80004706:	6000                	ld	s0,0(s0)
    80004708:	6d90                	ld	a2,24(a1)
    8000470a:	02f487b3          	mul	a5,s1,a5
    8000470e:	02860633          	mul	a2,a2,s0
    80004712:	951a                	add	a0,a0,t1
    80004714:	953a                	add	a0,a0,a4
    80004716:	953e                	add	a0,a0,a5
    80004718:	9532                	add	a0,a0,a2
    8000471a:	0691                	addi	a3,a3,4
    8000471c:	02058593          	addi	a1,a1,32
    80004720:	fd4692e3          	bne	a3,s4,800046e4 <main+0x2590>
    80004724:	4681                	li	a3,0
    80004726:	4401                	li	s0,0
    80004728:	75c2                	ld	a1,48(sp)
    8000472a:	1ca5b423          	sd	a0,456(a1)
    8000472e:	208eb303          	ld	t1,520(t4)
    80004732:	f8f2                	sd	t3,112(sp)
    80004734:	fc9a                	sd	t1,120(sp)
    80004736:	e17a                	sd	t5,128(sp)
    80004738:	e51e                	sd	t2,136(sp)
    8000473a:	e962                	sd	s8,144(sp)
    8000473c:	ed42                	sd	a6,152(sp)
    8000473e:	f15a                	sd	s6,160(sp)
    80004740:	f55e                	sd	s7,168(sp)
    80004742:	4509                	li	a0,2
    80004744:	f92a                	sd	a0,176(sp)
    80004746:	fd06                	sd	ra,184(sp)
    80004748:	7526                	ld	a0,104(sp)
    8000474a:	e1aa                	sd	a0,192(sp)
    8000474c:	7506                	ld	a0,96(sp)
    8000474e:	e5aa                	sd	a0,200(sp)
    80004750:	6566                	ld	a0,88(sp)
    80004752:	e9aa                	sd	a0,208(sp)
    80004754:	6546                	ld	a0,80(sp)
    80004756:	edaa                	sd	a0,216(sp)
    80004758:	6526                	ld	a0,72(sp)
    8000475a:	f1aa                	sd	a0,224(sp)
    8000475c:	6506                	ld	a0,64(sp)
    8000475e:	f5aa                	sd	a0,232(sp)
    80004760:	7562                	ld	a0,56(sp)
    80004762:	f9aa                	sd	a0,240(sp)
    80004764:	8566                	mv	a0,s9
    80004766:	092c                	addi	a1,sp,152
    80004768:	fb053603          	ld	a2,-80(a0)
    8000476c:	fe853703          	ld	a4,-24(a0)
    80004770:	fb853783          	ld	a5,-72(a0)
    80004774:	ff053483          	ld	s1,-16(a0)
    80004778:	02c70f33          	mul	t5,a4,a2
    8000477c:	02f48d33          	mul	s10,s1,a5
    80004780:	0046c793          	xori	a5,a3,4
    80004784:	078e                	slli	a5,a5,0x3
    80004786:	9796                	add	a5,a5,t0
    80004788:	639c                	ld	a5,0(a5)
    8000478a:	ff853483          	ld	s1,-8(a0)
    8000478e:	6190                	ld	a2,0(a1)
    80004790:	6118                	ld	a4,0(a0)
    80004792:	02f487b3          	mul	a5,s1,a5
    80004796:	02c70633          	mul	a2,a4,a2
    8000479a:	008f0733          	add	a4,t5,s0
    8000479e:	976a                	add	a4,a4,s10
    800047a0:	973e                	add	a4,a4,a5
    800047a2:	00c70433          	add	s0,a4,a2
    800047a6:	0691                	addi	a3,a3,4
    800047a8:	1581                	addi	a1,a1,-32
    800047aa:	02050513          	addi	a0,a0,32
    800047ae:	fb469de3          	bne	a3,s4,80004768 <main+0x2614>
    800047b2:	4681                	li	a3,0
    800047b4:	4d01                	li	s10,0
    800047b6:	7542                	ld	a0,48(sp)
    800047b8:	1c853823          	sd	s0,464(a0)
    800047bc:	210ebf03          	ld	t5,528(t4)
    800047c0:	f8f2                	sd	t3,112(sp)
    800047c2:	fc9a                	sd	t1,120(sp)
    800047c4:	e17a                	sd	t5,128(sp)
    800047c6:	e51e                	sd	t2,136(sp)
    800047c8:	e962                	sd	s8,144(sp)
    800047ca:	ed42                	sd	a6,152(sp)
    800047cc:	f15a                	sd	s6,160(sp)
    800047ce:	f55e                	sd	s7,168(sp)
    800047d0:	450d                	li	a0,3
    800047d2:	f92a                	sd	a0,176(sp)
    800047d4:	fd06                	sd	ra,184(sp)
    800047d6:	7526                	ld	a0,104(sp)
    800047d8:	e1aa                	sd	a0,192(sp)
    800047da:	7506                	ld	a0,96(sp)
    800047dc:	e5aa                	sd	a0,200(sp)
    800047de:	6566                	ld	a0,88(sp)
    800047e0:	e9aa                	sd	a0,208(sp)
    800047e2:	6546                	ld	a0,80(sp)
    800047e4:	edaa                	sd	a0,216(sp)
    800047e6:	6526                	ld	a0,72(sp)
    800047e8:	f1aa                	sd	a0,224(sp)
    800047ea:	6506                	ld	a0,64(sp)
    800047ec:	f5aa                	sd	a0,232(sp)
    800047ee:	7562                	ld	a0,56(sp)
    800047f0:	f9aa                	sd	a0,240(sp)
    800047f2:	fc000593          	li	a1,-64
    800047f6:	8456                	mv	s0,s5
    800047f8:	00ba8633          	add	a2,s5,a1
    800047fc:	7618                	ld	a4,40(a2)
    800047fe:	6e3c                	ld	a5,88(a2)
    80004800:	0046c493          	xori	s1,a3,4
    80004804:	048e                	slli	s1,s1,0x3
    80004806:	9496                	add	s1,s1,t0
    80004808:	6084                	ld	s1,0(s1)
    8000480a:	7228                	ld	a0,96(a2)
    8000480c:	02e78733          	mul	a4,a5,a4
    80004810:	029503b3          	mul	t2,a0,s1
    80004814:	ff843783          	ld	a5,-8(s0)
    80004818:	7624                	ld	s1,104(a2)
    8000481a:	6008                	ld	a0,0(s0)
    8000481c:	7a30                	ld	a2,112(a2)
    8000481e:	02f487b3          	mul	a5,s1,a5
    80004822:	02a60533          	mul	a0,a2,a0
    80004826:	01a70633          	add	a2,a4,s10
    8000482a:	961e                	add	a2,a2,t2
    8000482c:	963e                	add	a2,a2,a5
    8000482e:	00a60d33          	add	s10,a2,a0
    80004832:	0691                	addi	a3,a3,4
    80004834:	02058593          	addi	a1,a1,32
    80004838:	1401                	addi	s0,s0,-32
    8000483a:	fddd                	bnez	a1,800047f8 <main+0x26a4>
    8000483c:	4081                	li	ra,0
    8000483e:	7542                	ld	a0,48(sp)
    80004840:	1da53c23          	sd	s10,472(a0)
    80004844:	218eb383          	ld	t2,536(t4)
    80004848:	f8f2                	sd	t3,112(sp)
    8000484a:	fc9a                	sd	t1,120(sp)
    8000484c:	e17a                	sd	t5,128(sp)
    8000484e:	e51e                	sd	t2,136(sp)
    80004850:	e962                	sd	s8,144(sp)
    80004852:	ed42                	sd	a6,152(sp)
    80004854:	f15a                	sd	s6,160(sp)
    80004856:	f55e                	sd	s7,168(sp)
    80004858:	4511                	li	a0,4
    8000485a:	f92a                	sd	a0,176(sp)
    8000485c:	7522                	ld	a0,40(sp)
    8000485e:	fd2a                	sd	a0,184(sp)
    80004860:	7526                	ld	a0,104(sp)
    80004862:	e1aa                	sd	a0,192(sp)
    80004864:	7506                	ld	a0,96(sp)
    80004866:	e5aa                	sd	a0,200(sp)
    80004868:	6566                	ld	a0,88(sp)
    8000486a:	e9aa                	sd	a0,208(sp)
    8000486c:	6546                	ld	a0,80(sp)
    8000486e:	edaa                	sd	a0,216(sp)
    80004870:	6526                	ld	a0,72(sp)
    80004872:	f1aa                	sd	a0,224(sp)
    80004874:	6506                	ld	a0,64(sp)
    80004876:	f5aa                	sd	a0,232(sp)
    80004878:	7562                	ld	a0,56(sp)
    8000487a:	f9aa                	sd	a0,240(sp)
    8000487c:	02000513          	li	a0,32
    80004880:	86e6                	mv	a3,s9
    80004882:	00ac8633          	add	a2,s9,a0
    80004886:	fa063703          	ld	a4,-96(a2)
    8000488a:	fe86b783          	ld	a5,-24(a3)
    8000488e:	fa863403          	ld	s0,-88(a2)
    80004892:	ff06b483          	ld	s1,-16(a3)
    80004896:	02e78733          	mul	a4,a5,a4
    8000489a:	028487b3          	mul	a5,s1,s0
    8000489e:	fb063403          	ld	s0,-80(a2)
    800048a2:	ff86b483          	ld	s1,-8(a3)
    800048a6:	fb863603          	ld	a2,-72(a2)
    800048aa:	628c                	ld	a1,0(a3)
    800048ac:	02848433          	mul	s0,s1,s0
    800048b0:	02c585b3          	mul	a1,a1,a2
    800048b4:	00170633          	add	a2,a4,ra
    800048b8:	963e                	add	a2,a2,a5
    800048ba:	9622                	add	a2,a2,s0
    800048bc:	00b600b3          	add	ra,a2,a1
    800048c0:	1501                	addi	a0,a0,-32
    800048c2:	02068693          	addi	a3,a3,32
    800048c6:	fb251ee3          	bne	a0,s2,80004882 <main+0x272e>
    800048ca:	4d01                	li	s10,0
    800048cc:	7542                	ld	a0,48(sp)
    800048ce:	1e153023          	sd	ra,480(a0)
    800048d2:	220ebc03          	ld	s8,544(t4)
    800048d6:	f8f2                	sd	t3,112(sp)
    800048d8:	fc9a                	sd	t1,120(sp)
    800048da:	e17a                	sd	t5,128(sp)
    800048dc:	e51e                	sd	t2,136(sp)
    800048de:	e962                	sd	s8,144(sp)
    800048e0:	ed42                	sd	a6,152(sp)
    800048e2:	f15a                	sd	s6,160(sp)
    800048e4:	f55e                	sd	s7,168(sp)
    800048e6:	4515                	li	a0,5
    800048e8:	f92a                	sd	a0,176(sp)
    800048ea:	7522                	ld	a0,40(sp)
    800048ec:	fd2a                	sd	a0,184(sp)
    800048ee:	7526                	ld	a0,104(sp)
    800048f0:	e1aa                	sd	a0,192(sp)
    800048f2:	7506                	ld	a0,96(sp)
    800048f4:	e5aa                	sd	a0,200(sp)
    800048f6:	6566                	ld	a0,88(sp)
    800048f8:	e9aa                	sd	a0,208(sp)
    800048fa:	6546                	ld	a0,80(sp)
    800048fc:	edaa                	sd	a0,216(sp)
    800048fe:	6526                	ld	a0,72(sp)
    80004900:	f1aa                	sd	a0,224(sp)
    80004902:	6506                	ld	a0,64(sp)
    80004904:	f5aa                	sd	a0,232(sp)
    80004906:	7562                	ld	a0,56(sp)
    80004908:	f9aa                	sd	a0,240(sp)
    8000490a:	02800593          	li	a1,40
    8000490e:	06000693          	li	a3,96
    80004912:	00b28633          	add	a2,t0,a1
    80004916:	6218                	ld	a4,0(a2)
    80004918:	00d287b3          	add	a5,t0,a3
    8000491c:	fe87b483          	ld	s1,-24(a5)
    80004920:	6600                	ld	s0,8(a2)
    80004922:	ff07b503          	ld	a0,-16(a5)
    80004926:	02e48733          	mul	a4,s1,a4
    8000492a:	02850533          	mul	a0,a0,s0
    8000492e:	6a10                	ld	a2,16(a2)
    80004930:	ff87b483          	ld	s1,-8(a5)
    80004934:	fa07b403          	ld	s0,-96(a5)
    80004938:	639c                	ld	a5,0(a5)
    8000493a:	02c48633          	mul	a2,s1,a2
    8000493e:	028787b3          	mul	a5,a5,s0
    80004942:	976a                	add	a4,a4,s10
    80004944:	953a                	add	a0,a0,a4
    80004946:	9532                	add	a0,a0,a2
    80004948:	00f50d33          	add	s10,a0,a5
    8000494c:	1581                	addi	a1,a1,-32
    8000494e:	02068693          	addi	a3,a3,32
    80004952:	fdb590e3          	bne	a1,s11,80004912 <main+0x27be>
    80004956:	4081                	li	ra,0
    80004958:	7542                	ld	a0,48(sp)
    8000495a:	1fa53423          	sd	s10,488(a0)
    8000495e:	228eb803          	ld	a6,552(t4)
    80004962:	f8f2                	sd	t3,112(sp)
    80004964:	fc9a                	sd	t1,120(sp)
    80004966:	e17a                	sd	t5,128(sp)
    80004968:	e51e                	sd	t2,136(sp)
    8000496a:	e962                	sd	s8,144(sp)
    8000496c:	ed42                	sd	a6,152(sp)
    8000496e:	f15a                	sd	s6,160(sp)
    80004970:	f55e                	sd	s7,168(sp)
    80004972:	4519                	li	a0,6
    80004974:	f92a                	sd	a0,176(sp)
    80004976:	7522                	ld	a0,40(sp)
    80004978:	fd2a                	sd	a0,184(sp)
    8000497a:	7526                	ld	a0,104(sp)
    8000497c:	e1aa                	sd	a0,192(sp)
    8000497e:	7506                	ld	a0,96(sp)
    80004980:	e5aa                	sd	a0,200(sp)
    80004982:	6566                	ld	a0,88(sp)
    80004984:	e9aa                	sd	a0,208(sp)
    80004986:	6546                	ld	a0,80(sp)
    80004988:	edaa                	sd	a0,216(sp)
    8000498a:	6526                	ld	a0,72(sp)
    8000498c:	f1aa                	sd	a0,224(sp)
    8000498e:	6506                	ld	a0,64(sp)
    80004990:	f5aa                	sd	a0,232(sp)
    80004992:	7562                	ld	a0,56(sp)
    80004994:	f9aa                	sd	a0,240(sp)
    80004996:	fc000513          	li	a0,-64
    8000499a:	86fe                	mv	a3,t6
    8000499c:	ff86b603          	ld	a2,-8(a3)
    800049a0:	00aa8733          	add	a4,s5,a0
    800049a4:	6f3c                	ld	a5,88(a4)
    800049a6:	6280                	ld	s0,0(a3)
    800049a8:	7324                	ld	s1,96(a4)
    800049aa:	02c78633          	mul	a2,a5,a2
    800049ae:	028487b3          	mul	a5,s1,s0
    800049b2:	6b00                	ld	s0,16(a4)
    800049b4:	7724                	ld	s1,104(a4)
    800049b6:	6f0c                	ld	a1,24(a4)
    800049b8:	7b38                	ld	a4,112(a4)
    800049ba:	02848433          	mul	s0,s1,s0
    800049be:	02b705b3          	mul	a1,a4,a1
    800049c2:	9606                	add	a2,a2,ra
    800049c4:	963e                	add	a2,a2,a5
    800049c6:	9622                	add	a2,a2,s0
    800049c8:	00b600b3          	add	ra,a2,a1
    800049cc:	02050513          	addi	a0,a0,32
    800049d0:	1681                	addi	a3,a3,-32
    800049d2:	f569                	bnez	a0,8000499c <main+0x2848>
    800049d4:	4d01                	li	s10,0
    800049d6:	7542                	ld	a0,48(sp)
    800049d8:	1e153823          	sd	ra,496(a0)
    800049dc:	230ebb03          	ld	s6,560(t4)
    800049e0:	f8f2                	sd	t3,112(sp)
    800049e2:	fc9a                	sd	t1,120(sp)
    800049e4:	e17a                	sd	t5,128(sp)
    800049e6:	e51e                	sd	t2,136(sp)
    800049e8:	e962                	sd	s8,144(sp)
    800049ea:	ed42                	sd	a6,152(sp)
    800049ec:	f15a                	sd	s6,160(sp)
    800049ee:	f55e                	sd	s7,168(sp)
    800049f0:	451d                	li	a0,7
    800049f2:	f92a                	sd	a0,176(sp)
    800049f4:	70a2                	ld	ra,40(sp)
    800049f6:	fd06                	sd	ra,184(sp)
    800049f8:	7526                	ld	a0,104(sp)
    800049fa:	e1aa                	sd	a0,192(sp)
    800049fc:	7506                	ld	a0,96(sp)
    800049fe:	e5aa                	sd	a0,200(sp)
    80004a00:	6566                	ld	a0,88(sp)
    80004a02:	e9aa                	sd	a0,208(sp)
    80004a04:	6546                	ld	a0,80(sp)
    80004a06:	edaa                	sd	a0,216(sp)
    80004a08:	6526                	ld	a0,72(sp)
    80004a0a:	f1aa                	sd	a0,224(sp)
    80004a0c:	6506                	ld	a0,64(sp)
    80004a0e:	f5aa                	sd	a0,232(sp)
    80004a10:	7562                	ld	a0,56(sp)
    80004a12:	f9aa                	sd	a0,240(sp)
    80004a14:	03800593          	li	a1,56
    80004a18:	06000693          	li	a3,96
    80004a1c:	00b28633          	add	a2,t0,a1
    80004a20:	6210                	ld	a2,0(a2)
    80004a22:	00d28733          	add	a4,t0,a3
    80004a26:	fe873783          	ld	a5,-24(a4)
    80004a2a:	fa073403          	ld	s0,-96(a4)
    80004a2e:	ff073483          	ld	s1,-16(a4)
    80004a32:	02c78633          	mul	a2,a5,a2
    80004a36:	028487b3          	mul	a5,s1,s0
    80004a3a:	fa873403          	ld	s0,-88(a4)
    80004a3e:	ff873483          	ld	s1,-8(a4)
    80004a42:	fb073503          	ld	a0,-80(a4)
    80004a46:	6318                	ld	a4,0(a4)
    80004a48:	02848433          	mul	s0,s1,s0
    80004a4c:	02a70533          	mul	a0,a4,a0
    80004a50:	966a                	add	a2,a2,s10
    80004a52:	963e                	add	a2,a2,a5
    80004a54:	9622                	add	a2,a2,s0
    80004a56:	00a60d33          	add	s10,a2,a0
    80004a5a:	1581                	addi	a1,a1,-32
    80004a5c:	02068693          	addi	a3,a3,32
    80004a60:	fb359ee3          	bne	a1,s3,80004a1c <main+0x28c8>
    80004a64:	4581                	li	a1,0
    80004a66:	7542                	ld	a0,48(sp)
    80004a68:	1fa53c23          	sd	s10,504(a0)
    80004a6c:	238ebb83          	ld	s7,568(t4)
    80004a70:	f8f2                	sd	t3,112(sp)
    80004a72:	fc9a                	sd	t1,120(sp)
    80004a74:	e17a                	sd	t5,128(sp)
    80004a76:	e51e                	sd	t2,136(sp)
    80004a78:	e962                	sd	s8,144(sp)
    80004a7a:	ed42                	sd	a6,152(sp)
    80004a7c:	f15a                	sd	s6,160(sp)
    80004a7e:	f55e                	sd	s7,168(sp)
    80004a80:	f902                	sd	zero,176(sp)
    80004a82:	fd06                	sd	ra,184(sp)
    80004a84:	7526                	ld	a0,104(sp)
    80004a86:	e1aa                	sd	a0,192(sp)
    80004a88:	7506                	ld	a0,96(sp)
    80004a8a:	e5aa                	sd	a0,200(sp)
    80004a8c:	6566                	ld	a0,88(sp)
    80004a8e:	e9aa                	sd	a0,208(sp)
    80004a90:	6546                	ld	a0,80(sp)
    80004a92:	edaa                	sd	a0,216(sp)
    80004a94:	6526                	ld	a0,72(sp)
    80004a96:	f1aa                	sd	a0,224(sp)
    80004a98:	6506                	ld	a0,64(sp)
    80004a9a:	f5aa                	sd	a0,232(sp)
    80004a9c:	7562                	ld	a0,56(sp)
    80004a9e:	f9aa                	sd	a0,240(sp)
    80004aa0:	4541                	li	a0,16
    80004aa2:	05000e13          	li	t3,80
    80004aa6:	00a28633          	add	a2,t0,a0
    80004aaa:	ff063683          	ld	a3,-16(a2)
    80004aae:	7e18                	ld	a4,56(a2)
    80004ab0:	02d706b3          	mul	a3,a4,a3
    80004ab4:	ff863703          	ld	a4,-8(a2)
    80004ab8:	623c                	ld	a5,64(a2)
    80004aba:	6204                	ld	s1,0(a2)
    80004abc:	6620                	ld	s0,72(a2)
    80004abe:	02e78733          	mul	a4,a5,a4
    80004ac2:	029407b3          	mul	a5,s0,s1
    80004ac6:	6604                	ld	s1,8(a2)
    80004ac8:	6a30                	ld	a2,80(a2)
    80004aca:	95b6                	add	a1,a1,a3
    80004acc:	02960633          	mul	a2,a2,s1
    80004ad0:	95ba                	add	a1,a1,a4
    80004ad2:	95be                	add	a1,a1,a5
    80004ad4:	02050513          	addi	a0,a0,32
    80004ad8:	95b2                	add	a1,a1,a2
    80004ada:	fdc516e3          	bne	a0,t3,80004aa6 <main+0x2952>
    80004ade:	4501                	li	a0,0
    80004ae0:	4401                	li	s0,0
    80004ae2:	240ebe03          	ld	t3,576(t4)
    80004ae6:	7642                	ld	a2,48(sp)
    80004ae8:	20b63023          	sd	a1,512(a2)
    80004aec:	f8f2                	sd	t3,112(sp)
    80004aee:	fc9a                	sd	t1,120(sp)
    80004af0:	e17a                	sd	t5,128(sp)
    80004af2:	e51e                	sd	t2,136(sp)
    80004af4:	e962                	sd	s8,144(sp)
    80004af6:	ed42                	sd	a6,152(sp)
    80004af8:	f15a                	sd	s6,160(sp)
    80004afa:	f55e                	sd	s7,168(sp)
    80004afc:	4585                	li	a1,1
    80004afe:	f92e                	sd	a1,176(sp)
    80004b00:	fd06                	sd	ra,184(sp)
    80004b02:	75a6                	ld	a1,104(sp)
    80004b04:	e1ae                	sd	a1,192(sp)
    80004b06:	7586                	ld	a1,96(sp)
    80004b08:	e5ae                	sd	a1,200(sp)
    80004b0a:	65e6                	ld	a1,88(sp)
    80004b0c:	e9ae                	sd	a1,208(sp)
    80004b0e:	65c6                	ld	a1,80(sp)
    80004b10:	edae                	sd	a1,216(sp)
    80004b12:	65a6                	ld	a1,72(sp)
    80004b14:	f1ae                	sd	a1,224(sp)
    80004b16:	6586                	ld	a1,64(sp)
    80004b18:	f5ae                	sd	a1,232(sp)
    80004b1a:	75e2                	ld	a1,56(sp)
    80004b1c:	f9ae                	sd	a1,240(sp)
    80004b1e:	192c                	addi	a1,sp,184
    80004b20:	fc05b603          	ld	a2,-64(a1)
    80004b24:	6194                	ld	a3,0(a1)
    80004b26:	fc85b703          	ld	a4,-56(a1)
    80004b2a:	659c                	ld	a5,8(a1)
    80004b2c:	02c68333          	mul	t1,a3,a2
    80004b30:	02e786b3          	mul	a3,a5,a4
    80004b34:	fd05b703          	ld	a4,-48(a1)
    80004b38:	699c                	ld	a5,16(a1)
    80004b3a:	00454493          	xori	s1,a0,4
    80004b3e:	048e                	slli	s1,s1,0x3
    80004b40:	9496                	add	s1,s1,t0
    80004b42:	6084                	ld	s1,0(s1)
    80004b44:	6d90                	ld	a2,24(a1)
    80004b46:	02e78733          	mul	a4,a5,a4
    80004b4a:	02960633          	mul	a2,a2,s1
    80004b4e:	008307b3          	add	a5,t1,s0
    80004b52:	96be                	add	a3,a3,a5
    80004b54:	96ba                	add	a3,a3,a4
    80004b56:	00c68433          	add	s0,a3,a2
    80004b5a:	0511                	addi	a0,a0,4
    80004b5c:	02058593          	addi	a1,a1,32
    80004b60:	fd4510e3          	bne	a0,s4,80004b20 <main+0x29cc>
    80004b64:	4681                	li	a3,0
    80004b66:	4501                	li	a0,0
    80004b68:	75c2                	ld	a1,48(sp)
    80004b6a:	2085b423          	sd	s0,520(a1)
    80004b6e:	248eb303          	ld	t1,584(t4)
    80004b72:	f8f2                	sd	t3,112(sp)
    80004b74:	fc9a                	sd	t1,120(sp)
    80004b76:	e17a                	sd	t5,128(sp)
    80004b78:	e51e                	sd	t2,136(sp)
    80004b7a:	e962                	sd	s8,144(sp)
    80004b7c:	ed42                	sd	a6,152(sp)
    80004b7e:	f15a                	sd	s6,160(sp)
    80004b80:	f55e                	sd	s7,168(sp)
    80004b82:	4589                	li	a1,2
    80004b84:	f92e                	sd	a1,176(sp)
    80004b86:	fd06                	sd	ra,184(sp)
    80004b88:	75a6                	ld	a1,104(sp)
    80004b8a:	e1ae                	sd	a1,192(sp)
    80004b8c:	7586                	ld	a1,96(sp)
    80004b8e:	e5ae                	sd	a1,200(sp)
    80004b90:	65e6                	ld	a1,88(sp)
    80004b92:	e9ae                	sd	a1,208(sp)
    80004b94:	65c6                	ld	a1,80(sp)
    80004b96:	edae                	sd	a1,216(sp)
    80004b98:	65a6                	ld	a1,72(sp)
    80004b9a:	f1ae                	sd	a1,224(sp)
    80004b9c:	6586                	ld	a1,64(sp)
    80004b9e:	f5ae                	sd	a1,232(sp)
    80004ba0:	75e2                	ld	a1,56(sp)
    80004ba2:	f9ae                	sd	a1,240(sp)
    80004ba4:	85e6                	mv	a1,s9
    80004ba6:	093c                	addi	a5,sp,152
    80004ba8:	fb05b603          	ld	a2,-80(a1)
    80004bac:	fe85b703          	ld	a4,-24(a1)
    80004bb0:	fb85b483          	ld	s1,-72(a1)
    80004bb4:	ff05b403          	ld	s0,-16(a1)
    80004bb8:	02c70f33          	mul	t5,a4,a2
    80004bbc:	02940d33          	mul	s10,s0,s1
    80004bc0:	0046c493          	xori	s1,a3,4
    80004bc4:	048e                	slli	s1,s1,0x3
    80004bc6:	9496                	add	s1,s1,t0
    80004bc8:	6084                	ld	s1,0(s1)
    80004bca:	ff85b403          	ld	s0,-8(a1)
    80004bce:	6390                	ld	a2,0(a5)
    80004bd0:	6198                	ld	a4,0(a1)
    80004bd2:	02940433          	mul	s0,s0,s1
    80004bd6:	02c70633          	mul	a2,a4,a2
    80004bda:	957a                	add	a0,a0,t5
    80004bdc:	956a                	add	a0,a0,s10
    80004bde:	9522                	add	a0,a0,s0
    80004be0:	9532                	add	a0,a0,a2
    80004be2:	0691                	addi	a3,a3,4
    80004be4:	1781                	addi	a5,a5,-32
    80004be6:	02058593          	addi	a1,a1,32
    80004bea:	fb469fe3          	bne	a3,s4,80004ba8 <main+0x2a54>
    80004bee:	4681                	li	a3,0
    80004bf0:	4d01                	li	s10,0
    80004bf2:	75c2                	ld	a1,48(sp)
    80004bf4:	20a5b823          	sd	a0,528(a1)
    80004bf8:	250ebf03          	ld	t5,592(t4)
    80004bfc:	f8f2                	sd	t3,112(sp)
    80004bfe:	fc9a                	sd	t1,120(sp)
    80004c00:	e17a                	sd	t5,128(sp)
    80004c02:	e51e                	sd	t2,136(sp)
    80004c04:	e962                	sd	s8,144(sp)
    80004c06:	ed42                	sd	a6,152(sp)
    80004c08:	f15a                	sd	s6,160(sp)
    80004c0a:	f55e                	sd	s7,168(sp)
    80004c0c:	450d                	li	a0,3
    80004c0e:	f92a                	sd	a0,176(sp)
    80004c10:	fd06                	sd	ra,184(sp)
    80004c12:	7526                	ld	a0,104(sp)
    80004c14:	e1aa                	sd	a0,192(sp)
    80004c16:	7506                	ld	a0,96(sp)
    80004c18:	e5aa                	sd	a0,200(sp)
    80004c1a:	6566                	ld	a0,88(sp)
    80004c1c:	e9aa                	sd	a0,208(sp)
    80004c1e:	6546                	ld	a0,80(sp)
    80004c20:	edaa                	sd	a0,216(sp)
    80004c22:	6526                	ld	a0,72(sp)
    80004c24:	f1aa                	sd	a0,224(sp)
    80004c26:	6506                	ld	a0,64(sp)
    80004c28:	f5aa                	sd	a0,232(sp)
    80004c2a:	7562                	ld	a0,56(sp)
    80004c2c:	f9aa                	sd	a0,240(sp)
    80004c2e:	fc000513          	li	a0,-64
    80004c32:	85d6                	mv	a1,s5
    80004c34:	00aa8633          	add	a2,s5,a0
    80004c38:	7618                	ld	a4,40(a2)
    80004c3a:	6e3c                	ld	a5,88(a2)
    80004c3c:	0046c493          	xori	s1,a3,4
    80004c40:	048e                	slli	s1,s1,0x3
    80004c42:	9496                	add	s1,s1,t0
    80004c44:	6084                	ld	s1,0(s1)
    80004c46:	7220                	ld	s0,96(a2)
    80004c48:	02e783b3          	mul	t2,a5,a4
    80004c4c:	029407b3          	mul	a5,s0,s1
    80004c50:	ff85b483          	ld	s1,-8(a1)
    80004c54:	7620                	ld	s0,104(a2)
    80004c56:	6198                	ld	a4,0(a1)
    80004c58:	7a30                	ld	a2,112(a2)
    80004c5a:	02940433          	mul	s0,s0,s1
    80004c5e:	02e60633          	mul	a2,a2,a4
    80004c62:	01a38733          	add	a4,t2,s10
    80004c66:	973e                	add	a4,a4,a5
    80004c68:	9722                	add	a4,a4,s0
    80004c6a:	00c70d33          	add	s10,a4,a2
    80004c6e:	0691                	addi	a3,a3,4
    80004c70:	02050513          	addi	a0,a0,32
    80004c74:	1581                	addi	a1,a1,-32
    80004c76:	fd5d                	bnez	a0,80004c34 <main+0x2ae0>
    80004c78:	4081                	li	ra,0
    80004c7a:	7542                	ld	a0,48(sp)
    80004c7c:	21a53c23          	sd	s10,536(a0)
    80004c80:	258eb383          	ld	t2,600(t4)
    80004c84:	f8f2                	sd	t3,112(sp)
    80004c86:	fc9a                	sd	t1,120(sp)
    80004c88:	e17a                	sd	t5,128(sp)
    80004c8a:	e51e                	sd	t2,136(sp)
    80004c8c:	e962                	sd	s8,144(sp)
    80004c8e:	ed42                	sd	a6,152(sp)
    80004c90:	f15a                	sd	s6,160(sp)
    80004c92:	f55e                	sd	s7,168(sp)
    80004c94:	4511                	li	a0,4
    80004c96:	f92a                	sd	a0,176(sp)
    80004c98:	7522                	ld	a0,40(sp)
    80004c9a:	fd2a                	sd	a0,184(sp)
    80004c9c:	7526                	ld	a0,104(sp)
    80004c9e:	e1aa                	sd	a0,192(sp)
    80004ca0:	7506                	ld	a0,96(sp)
    80004ca2:	e5aa                	sd	a0,200(sp)
    80004ca4:	6566                	ld	a0,88(sp)
    80004ca6:	e9aa                	sd	a0,208(sp)
    80004ca8:	6546                	ld	a0,80(sp)
    80004caa:	edaa                	sd	a0,216(sp)
    80004cac:	6526                	ld	a0,72(sp)
    80004cae:	f1aa                	sd	a0,224(sp)
    80004cb0:	6506                	ld	a0,64(sp)
    80004cb2:	f5aa                	sd	a0,232(sp)
    80004cb4:	7562                	ld	a0,56(sp)
    80004cb6:	f9aa                	sd	a0,240(sp)
    80004cb8:	02000513          	li	a0,32
    80004cbc:	86e6                	mv	a3,s9
    80004cbe:	00ac8633          	add	a2,s9,a0
    80004cc2:	fa063703          	ld	a4,-96(a2)
    80004cc6:	fe86b783          	ld	a5,-24(a3)
    80004cca:	fa863403          	ld	s0,-88(a2)
    80004cce:	ff06b483          	ld	s1,-16(a3)
    80004cd2:	02e78733          	mul	a4,a5,a4
    80004cd6:	028487b3          	mul	a5,s1,s0
    80004cda:	fb063403          	ld	s0,-80(a2)
    80004cde:	ff86b483          	ld	s1,-8(a3)
    80004ce2:	fb863603          	ld	a2,-72(a2)
    80004ce6:	628c                	ld	a1,0(a3)
    80004ce8:	02848433          	mul	s0,s1,s0
    80004cec:	02c585b3          	mul	a1,a1,a2
    80004cf0:	00170633          	add	a2,a4,ra
    80004cf4:	963e                	add	a2,a2,a5
    80004cf6:	9622                	add	a2,a2,s0
    80004cf8:	00b600b3          	add	ra,a2,a1
    80004cfc:	1501                	addi	a0,a0,-32
    80004cfe:	02068693          	addi	a3,a3,32
    80004d02:	fb251ee3          	bne	a0,s2,80004cbe <main+0x2b6a>
    80004d06:	4d01                	li	s10,0
    80004d08:	7542                	ld	a0,48(sp)
    80004d0a:	22153023          	sd	ra,544(a0)
    80004d0e:	260ebc03          	ld	s8,608(t4)
    80004d12:	f8f2                	sd	t3,112(sp)
    80004d14:	fc9a                	sd	t1,120(sp)
    80004d16:	e17a                	sd	t5,128(sp)
    80004d18:	e51e                	sd	t2,136(sp)
    80004d1a:	e962                	sd	s8,144(sp)
    80004d1c:	ed42                	sd	a6,152(sp)
    80004d1e:	f15a                	sd	s6,160(sp)
    80004d20:	f55e                	sd	s7,168(sp)
    80004d22:	4515                	li	a0,5
    80004d24:	f92a                	sd	a0,176(sp)
    80004d26:	7522                	ld	a0,40(sp)
    80004d28:	fd2a                	sd	a0,184(sp)
    80004d2a:	7526                	ld	a0,104(sp)
    80004d2c:	e1aa                	sd	a0,192(sp)
    80004d2e:	7506                	ld	a0,96(sp)
    80004d30:	e5aa                	sd	a0,200(sp)
    80004d32:	6566                	ld	a0,88(sp)
    80004d34:	e9aa                	sd	a0,208(sp)
    80004d36:	6546                	ld	a0,80(sp)
    80004d38:	edaa                	sd	a0,216(sp)
    80004d3a:	6526                	ld	a0,72(sp)
    80004d3c:	f1aa                	sd	a0,224(sp)
    80004d3e:	6506                	ld	a0,64(sp)
    80004d40:	f5aa                	sd	a0,232(sp)
    80004d42:	7562                	ld	a0,56(sp)
    80004d44:	f9aa                	sd	a0,240(sp)
    80004d46:	02800593          	li	a1,40
    80004d4a:	06000693          	li	a3,96
    80004d4e:	00b28633          	add	a2,t0,a1
    80004d52:	6218                	ld	a4,0(a2)
    80004d54:	00d287b3          	add	a5,t0,a3
    80004d58:	fe87b483          	ld	s1,-24(a5)
    80004d5c:	6600                	ld	s0,8(a2)
    80004d5e:	ff07b503          	ld	a0,-16(a5)
    80004d62:	02e48733          	mul	a4,s1,a4
    80004d66:	02850533          	mul	a0,a0,s0
    80004d6a:	6a10                	ld	a2,16(a2)
    80004d6c:	ff87b483          	ld	s1,-8(a5)
    80004d70:	fa07b403          	ld	s0,-96(a5)
    80004d74:	639c                	ld	a5,0(a5)
    80004d76:	02c48633          	mul	a2,s1,a2
    80004d7a:	028787b3          	mul	a5,a5,s0
    80004d7e:	976a                	add	a4,a4,s10
    80004d80:	953a                	add	a0,a0,a4
    80004d82:	9532                	add	a0,a0,a2
    80004d84:	00f50d33          	add	s10,a0,a5
    80004d88:	1581                	addi	a1,a1,-32
    80004d8a:	02068693          	addi	a3,a3,32
    80004d8e:	fdb590e3          	bne	a1,s11,80004d4e <main+0x2bfa>
    80004d92:	4081                	li	ra,0
    80004d94:	7542                	ld	a0,48(sp)
    80004d96:	23a53423          	sd	s10,552(a0)
    80004d9a:	268eb803          	ld	a6,616(t4)
    80004d9e:	f8f2                	sd	t3,112(sp)
    80004da0:	fc9a                	sd	t1,120(sp)
    80004da2:	e17a                	sd	t5,128(sp)
    80004da4:	e51e                	sd	t2,136(sp)
    80004da6:	e962                	sd	s8,144(sp)
    80004da8:	ed42                	sd	a6,152(sp)
    80004daa:	f15a                	sd	s6,160(sp)
    80004dac:	f55e                	sd	s7,168(sp)
    80004dae:	4519                	li	a0,6
    80004db0:	f92a                	sd	a0,176(sp)
    80004db2:	7522                	ld	a0,40(sp)
    80004db4:	fd2a                	sd	a0,184(sp)
    80004db6:	7526                	ld	a0,104(sp)
    80004db8:	e1aa                	sd	a0,192(sp)
    80004dba:	7506                	ld	a0,96(sp)
    80004dbc:	e5aa                	sd	a0,200(sp)
    80004dbe:	6566                	ld	a0,88(sp)
    80004dc0:	e9aa                	sd	a0,208(sp)
    80004dc2:	6546                	ld	a0,80(sp)
    80004dc4:	edaa                	sd	a0,216(sp)
    80004dc6:	6526                	ld	a0,72(sp)
    80004dc8:	f1aa                	sd	a0,224(sp)
    80004dca:	6506                	ld	a0,64(sp)
    80004dcc:	f5aa                	sd	a0,232(sp)
    80004dce:	7562                	ld	a0,56(sp)
    80004dd0:	f9aa                	sd	a0,240(sp)
    80004dd2:	fc000513          	li	a0,-64
    80004dd6:	86fe                	mv	a3,t6
    80004dd8:	ff86b603          	ld	a2,-8(a3)
    80004ddc:	00aa8733          	add	a4,s5,a0
    80004de0:	6f3c                	ld	a5,88(a4)
    80004de2:	6280                	ld	s0,0(a3)
    80004de4:	7324                	ld	s1,96(a4)
    80004de6:	02c78633          	mul	a2,a5,a2
    80004dea:	028487b3          	mul	a5,s1,s0
    80004dee:	6b00                	ld	s0,16(a4)
    80004df0:	7724                	ld	s1,104(a4)
    80004df2:	6f0c                	ld	a1,24(a4)
    80004df4:	7b38                	ld	a4,112(a4)
    80004df6:	02848433          	mul	s0,s1,s0
    80004dfa:	02b705b3          	mul	a1,a4,a1
    80004dfe:	9606                	add	a2,a2,ra
    80004e00:	963e                	add	a2,a2,a5
    80004e02:	9622                	add	a2,a2,s0
    80004e04:	00b600b3          	add	ra,a2,a1
    80004e08:	02050513          	addi	a0,a0,32
    80004e0c:	1681                	addi	a3,a3,-32
    80004e0e:	f569                	bnez	a0,80004dd8 <main+0x2c84>
    80004e10:	4d01                	li	s10,0
    80004e12:	7542                	ld	a0,48(sp)
    80004e14:	22153823          	sd	ra,560(a0)
    80004e18:	270ebb03          	ld	s6,624(t4)
    80004e1c:	f8f2                	sd	t3,112(sp)
    80004e1e:	fc9a                	sd	t1,120(sp)
    80004e20:	e17a                	sd	t5,128(sp)
    80004e22:	e51e                	sd	t2,136(sp)
    80004e24:	e962                	sd	s8,144(sp)
    80004e26:	ed42                	sd	a6,152(sp)
    80004e28:	f15a                	sd	s6,160(sp)
    80004e2a:	f55e                	sd	s7,168(sp)
    80004e2c:	451d                	li	a0,7
    80004e2e:	f92a                	sd	a0,176(sp)
    80004e30:	70a2                	ld	ra,40(sp)
    80004e32:	fd06                	sd	ra,184(sp)
    80004e34:	7526                	ld	a0,104(sp)
    80004e36:	e1aa                	sd	a0,192(sp)
    80004e38:	7506                	ld	a0,96(sp)
    80004e3a:	e5aa                	sd	a0,200(sp)
    80004e3c:	6566                	ld	a0,88(sp)
    80004e3e:	e9aa                	sd	a0,208(sp)
    80004e40:	6546                	ld	a0,80(sp)
    80004e42:	edaa                	sd	a0,216(sp)
    80004e44:	6526                	ld	a0,72(sp)
    80004e46:	f1aa                	sd	a0,224(sp)
    80004e48:	6506                	ld	a0,64(sp)
    80004e4a:	f5aa                	sd	a0,232(sp)
    80004e4c:	7562                	ld	a0,56(sp)
    80004e4e:	f9aa                	sd	a0,240(sp)
    80004e50:	03800593          	li	a1,56
    80004e54:	06000693          	li	a3,96
    80004e58:	00b28633          	add	a2,t0,a1
    80004e5c:	6210                	ld	a2,0(a2)
    80004e5e:	00d28733          	add	a4,t0,a3
    80004e62:	fe873783          	ld	a5,-24(a4)
    80004e66:	fa073403          	ld	s0,-96(a4)
    80004e6a:	ff073483          	ld	s1,-16(a4)
    80004e6e:	02c78633          	mul	a2,a5,a2
    80004e72:	028487b3          	mul	a5,s1,s0
    80004e76:	fa873403          	ld	s0,-88(a4)
    80004e7a:	ff873483          	ld	s1,-8(a4)
    80004e7e:	fb073503          	ld	a0,-80(a4)
    80004e82:	6318                	ld	a4,0(a4)
    80004e84:	02848433          	mul	s0,s1,s0
    80004e88:	02a70533          	mul	a0,a4,a0
    80004e8c:	966a                	add	a2,a2,s10
    80004e8e:	963e                	add	a2,a2,a5
    80004e90:	9622                	add	a2,a2,s0
    80004e92:	00a60d33          	add	s10,a2,a0
    80004e96:	1581                	addi	a1,a1,-32
    80004e98:	02068693          	addi	a3,a3,32
    80004e9c:	fb359ee3          	bne	a1,s3,80004e58 <main+0x2d04>
    80004ea0:	4581                	li	a1,0
    80004ea2:	7542                	ld	a0,48(sp)
    80004ea4:	23a53c23          	sd	s10,568(a0)
    80004ea8:	278ebb83          	ld	s7,632(t4)
    80004eac:	f8f2                	sd	t3,112(sp)
    80004eae:	fc9a                	sd	t1,120(sp)
    80004eb0:	e17a                	sd	t5,128(sp)
    80004eb2:	e51e                	sd	t2,136(sp)
    80004eb4:	e962                	sd	s8,144(sp)
    80004eb6:	ed42                	sd	a6,152(sp)
    80004eb8:	f15a                	sd	s6,160(sp)
    80004eba:	f55e                	sd	s7,168(sp)
    80004ebc:	f902                	sd	zero,176(sp)
    80004ebe:	fd06                	sd	ra,184(sp)
    80004ec0:	7526                	ld	a0,104(sp)
    80004ec2:	e1aa                	sd	a0,192(sp)
    80004ec4:	7506                	ld	a0,96(sp)
    80004ec6:	e5aa                	sd	a0,200(sp)
    80004ec8:	6566                	ld	a0,88(sp)
    80004eca:	e9aa                	sd	a0,208(sp)
    80004ecc:	6546                	ld	a0,80(sp)
    80004ece:	edaa                	sd	a0,216(sp)
    80004ed0:	6526                	ld	a0,72(sp)
    80004ed2:	f1aa                	sd	a0,224(sp)
    80004ed4:	6506                	ld	a0,64(sp)
    80004ed6:	f5aa                	sd	a0,232(sp)
    80004ed8:	7562                	ld	a0,56(sp)
    80004eda:	f9aa                	sd	a0,240(sp)
    80004edc:	4541                	li	a0,16
    80004ede:	05000e13          	li	t3,80
    80004ee2:	00a28633          	add	a2,t0,a0
    80004ee6:	ff063683          	ld	a3,-16(a2)
    80004eea:	7e18                	ld	a4,56(a2)
    80004eec:	02d706b3          	mul	a3,a4,a3
    80004ef0:	ff863703          	ld	a4,-8(a2)
    80004ef4:	623c                	ld	a5,64(a2)
    80004ef6:	6204                	ld	s1,0(a2)
    80004ef8:	6620                	ld	s0,72(a2)
    80004efa:	02e78733          	mul	a4,a5,a4
    80004efe:	029407b3          	mul	a5,s0,s1
    80004f02:	6604                	ld	s1,8(a2)
    80004f04:	6a30                	ld	a2,80(a2)
    80004f06:	95b6                	add	a1,a1,a3
    80004f08:	02960633          	mul	a2,a2,s1
    80004f0c:	95ba                	add	a1,a1,a4
    80004f0e:	95be                	add	a1,a1,a5
    80004f10:	02050513          	addi	a0,a0,32
    80004f14:	95b2                	add	a1,a1,a2
    80004f16:	fdc516e3          	bne	a0,t3,80004ee2 <main+0x2d8e>
    80004f1a:	4681                	li	a3,0
    80004f1c:	4501                	li	a0,0
    80004f1e:	280ebe03          	ld	t3,640(t4)
    80004f22:	7642                	ld	a2,48(sp)
    80004f24:	24b63023          	sd	a1,576(a2)
    80004f28:	f8f2                	sd	t3,112(sp)
    80004f2a:	fc9a                	sd	t1,120(sp)
    80004f2c:	e17a                	sd	t5,128(sp)
    80004f2e:	e51e                	sd	t2,136(sp)
    80004f30:	e962                	sd	s8,144(sp)
    80004f32:	ed42                	sd	a6,152(sp)
    80004f34:	f15a                	sd	s6,160(sp)
    80004f36:	f55e                	sd	s7,168(sp)
    80004f38:	4585                	li	a1,1
    80004f3a:	f92e                	sd	a1,176(sp)
    80004f3c:	fd06                	sd	ra,184(sp)
    80004f3e:	75a6                	ld	a1,104(sp)
    80004f40:	e1ae                	sd	a1,192(sp)
    80004f42:	7586                	ld	a1,96(sp)
    80004f44:	e5ae                	sd	a1,200(sp)
    80004f46:	65e6                	ld	a1,88(sp)
    80004f48:	e9ae                	sd	a1,208(sp)
    80004f4a:	65c6                	ld	a1,80(sp)
    80004f4c:	edae                	sd	a1,216(sp)
    80004f4e:	65a6                	ld	a1,72(sp)
    80004f50:	f1ae                	sd	a1,224(sp)
    80004f52:	6586                	ld	a1,64(sp)
    80004f54:	f5ae                	sd	a1,232(sp)
    80004f56:	75e2                	ld	a1,56(sp)
    80004f58:	f9ae                	sd	a1,240(sp)
    80004f5a:	192c                	addi	a1,sp,184
    80004f5c:	fc05b603          	ld	a2,-64(a1)
    80004f60:	6198                	ld	a4,0(a1)
    80004f62:	fc85b783          	ld	a5,-56(a1)
    80004f66:	6584                	ld	s1,8(a1)
    80004f68:	02c70333          	mul	t1,a4,a2
    80004f6c:	02f48733          	mul	a4,s1,a5
    80004f70:	fd05b783          	ld	a5,-48(a1)
    80004f74:	6984                	ld	s1,16(a1)
    80004f76:	0046c413          	xori	s0,a3,4
    80004f7a:	040e                	slli	s0,s0,0x3
    80004f7c:	9416                	add	s0,s0,t0
    80004f7e:	6000                	ld	s0,0(s0)
    80004f80:	6d90                	ld	a2,24(a1)
    80004f82:	02f487b3          	mul	a5,s1,a5
    80004f86:	02860633          	mul	a2,a2,s0
    80004f8a:	951a                	add	a0,a0,t1
    80004f8c:	953a                	add	a0,a0,a4
    80004f8e:	953e                	add	a0,a0,a5
    80004f90:	9532                	add	a0,a0,a2
    80004f92:	0691                	addi	a3,a3,4
    80004f94:	02058593          	addi	a1,a1,32
    80004f98:	fd4692e3          	bne	a3,s4,80004f5c <main+0x2e08>
    80004f9c:	4681                	li	a3,0
    80004f9e:	4401                	li	s0,0
    80004fa0:	75c2                	ld	a1,48(sp)
    80004fa2:	24a5b423          	sd	a0,584(a1)
    80004fa6:	288eb303          	ld	t1,648(t4)
    80004faa:	f8f2                	sd	t3,112(sp)
    80004fac:	fc9a                	sd	t1,120(sp)
    80004fae:	e17a                	sd	t5,128(sp)
    80004fb0:	e51e                	sd	t2,136(sp)
    80004fb2:	e962                	sd	s8,144(sp)
    80004fb4:	ed42                	sd	a6,152(sp)
    80004fb6:	f15a                	sd	s6,160(sp)
    80004fb8:	f55e                	sd	s7,168(sp)
    80004fba:	4509                	li	a0,2
    80004fbc:	f92a                	sd	a0,176(sp)
    80004fbe:	fd06                	sd	ra,184(sp)
    80004fc0:	7526                	ld	a0,104(sp)
    80004fc2:	e1aa                	sd	a0,192(sp)
    80004fc4:	7506                	ld	a0,96(sp)
    80004fc6:	e5aa                	sd	a0,200(sp)
    80004fc8:	6566                	ld	a0,88(sp)
    80004fca:	e9aa                	sd	a0,208(sp)
    80004fcc:	6546                	ld	a0,80(sp)
    80004fce:	edaa                	sd	a0,216(sp)
    80004fd0:	6526                	ld	a0,72(sp)
    80004fd2:	f1aa                	sd	a0,224(sp)
    80004fd4:	6506                	ld	a0,64(sp)
    80004fd6:	f5aa                	sd	a0,232(sp)
    80004fd8:	7562                	ld	a0,56(sp)
    80004fda:	f9aa                	sd	a0,240(sp)
    80004fdc:	8566                	mv	a0,s9
    80004fde:	092c                	addi	a1,sp,152
    80004fe0:	fb053603          	ld	a2,-80(a0)
    80004fe4:	fe853703          	ld	a4,-24(a0)
    80004fe8:	fb853783          	ld	a5,-72(a0)
    80004fec:	ff053483          	ld	s1,-16(a0)
    80004ff0:	02c70f33          	mul	t5,a4,a2
    80004ff4:	02f48d33          	mul	s10,s1,a5
    80004ff8:	0046c793          	xori	a5,a3,4
    80004ffc:	078e                	slli	a5,a5,0x3
    80004ffe:	9796                	add	a5,a5,t0
    80005000:	639c                	ld	a5,0(a5)
    80005002:	ff853483          	ld	s1,-8(a0)
    80005006:	6190                	ld	a2,0(a1)
    80005008:	6118                	ld	a4,0(a0)
    8000500a:	02f487b3          	mul	a5,s1,a5
    8000500e:	02c70633          	mul	a2,a4,a2
    80005012:	008f0733          	add	a4,t5,s0
    80005016:	976a                	add	a4,a4,s10
    80005018:	973e                	add	a4,a4,a5
    8000501a:	00c70433          	add	s0,a4,a2
    8000501e:	0691                	addi	a3,a3,4
    80005020:	1581                	addi	a1,a1,-32
    80005022:	02050513          	addi	a0,a0,32
    80005026:	fb469de3          	bne	a3,s4,80004fe0 <main+0x2e8c>
    8000502a:	4681                	li	a3,0
    8000502c:	4d01                	li	s10,0
    8000502e:	7542                	ld	a0,48(sp)
    80005030:	24853823          	sd	s0,592(a0)
    80005034:	290ebf03          	ld	t5,656(t4)
    80005038:	f8f2                	sd	t3,112(sp)
    8000503a:	fc9a                	sd	t1,120(sp)
    8000503c:	e17a                	sd	t5,128(sp)
    8000503e:	e51e                	sd	t2,136(sp)
    80005040:	e962                	sd	s8,144(sp)
    80005042:	ed42                	sd	a6,152(sp)
    80005044:	f15a                	sd	s6,160(sp)
    80005046:	f55e                	sd	s7,168(sp)
    80005048:	450d                	li	a0,3
    8000504a:	f92a                	sd	a0,176(sp)
    8000504c:	fd06                	sd	ra,184(sp)
    8000504e:	7526                	ld	a0,104(sp)
    80005050:	e1aa                	sd	a0,192(sp)
    80005052:	7506                	ld	a0,96(sp)
    80005054:	e5aa                	sd	a0,200(sp)
    80005056:	6566                	ld	a0,88(sp)
    80005058:	e9aa                	sd	a0,208(sp)
    8000505a:	6546                	ld	a0,80(sp)
    8000505c:	edaa                	sd	a0,216(sp)
    8000505e:	6526                	ld	a0,72(sp)
    80005060:	f1aa                	sd	a0,224(sp)
    80005062:	6506                	ld	a0,64(sp)
    80005064:	f5aa                	sd	a0,232(sp)
    80005066:	7562                	ld	a0,56(sp)
    80005068:	f9aa                	sd	a0,240(sp)
    8000506a:	fc000593          	li	a1,-64
    8000506e:	8456                	mv	s0,s5
    80005070:	00ba8633          	add	a2,s5,a1
    80005074:	7618                	ld	a4,40(a2)
    80005076:	6e3c                	ld	a5,88(a2)
    80005078:	0046c493          	xori	s1,a3,4
    8000507c:	048e                	slli	s1,s1,0x3
    8000507e:	9496                	add	s1,s1,t0
    80005080:	6084                	ld	s1,0(s1)
    80005082:	7228                	ld	a0,96(a2)
    80005084:	02e78733          	mul	a4,a5,a4
    80005088:	029503b3          	mul	t2,a0,s1
    8000508c:	ff843783          	ld	a5,-8(s0)
    80005090:	7624                	ld	s1,104(a2)
    80005092:	6008                	ld	a0,0(s0)
    80005094:	7a30                	ld	a2,112(a2)
    80005096:	02f487b3          	mul	a5,s1,a5
    8000509a:	02a60533          	mul	a0,a2,a0
    8000509e:	01a70633          	add	a2,a4,s10
    800050a2:	961e                	add	a2,a2,t2
    800050a4:	963e                	add	a2,a2,a5
    800050a6:	00a60d33          	add	s10,a2,a0
    800050aa:	0691                	addi	a3,a3,4
    800050ac:	02058593          	addi	a1,a1,32
    800050b0:	1401                	addi	s0,s0,-32
    800050b2:	fddd                	bnez	a1,80005070 <main+0x2f1c>
    800050b4:	4081                	li	ra,0
    800050b6:	7542                	ld	a0,48(sp)
    800050b8:	25a53c23          	sd	s10,600(a0)
    800050bc:	298eb383          	ld	t2,664(t4)
    800050c0:	f8f2                	sd	t3,112(sp)
    800050c2:	fc9a                	sd	t1,120(sp)
    800050c4:	e17a                	sd	t5,128(sp)
    800050c6:	e51e                	sd	t2,136(sp)
    800050c8:	e962                	sd	s8,144(sp)
    800050ca:	ed42                	sd	a6,152(sp)
    800050cc:	f15a                	sd	s6,160(sp)
    800050ce:	f55e                	sd	s7,168(sp)
    800050d0:	4511                	li	a0,4
    800050d2:	f92a                	sd	a0,176(sp)
    800050d4:	7522                	ld	a0,40(sp)
    800050d6:	fd2a                	sd	a0,184(sp)
    800050d8:	7526                	ld	a0,104(sp)
    800050da:	e1aa                	sd	a0,192(sp)
    800050dc:	7506                	ld	a0,96(sp)
    800050de:	e5aa                	sd	a0,200(sp)
    800050e0:	6566                	ld	a0,88(sp)
    800050e2:	e9aa                	sd	a0,208(sp)
    800050e4:	6546                	ld	a0,80(sp)
    800050e6:	edaa                	sd	a0,216(sp)
    800050e8:	6526                	ld	a0,72(sp)
    800050ea:	f1aa                	sd	a0,224(sp)
    800050ec:	6506                	ld	a0,64(sp)
    800050ee:	f5aa                	sd	a0,232(sp)
    800050f0:	7562                	ld	a0,56(sp)
    800050f2:	f9aa                	sd	a0,240(sp)
    800050f4:	02000513          	li	a0,32
    800050f8:	86e6                	mv	a3,s9
    800050fa:	00ac8633          	add	a2,s9,a0
    800050fe:	fa063703          	ld	a4,-96(a2)
    80005102:	fe86b783          	ld	a5,-24(a3)
    80005106:	fa863403          	ld	s0,-88(a2)
    8000510a:	ff06b483          	ld	s1,-16(a3)
    8000510e:	02e78733          	mul	a4,a5,a4
    80005112:	028487b3          	mul	a5,s1,s0
    80005116:	fb063403          	ld	s0,-80(a2)
    8000511a:	ff86b483          	ld	s1,-8(a3)
    8000511e:	fb863603          	ld	a2,-72(a2)
    80005122:	628c                	ld	a1,0(a3)
    80005124:	02848433          	mul	s0,s1,s0
    80005128:	02c585b3          	mul	a1,a1,a2
    8000512c:	00170633          	add	a2,a4,ra
    80005130:	963e                	add	a2,a2,a5
    80005132:	9622                	add	a2,a2,s0
    80005134:	00b600b3          	add	ra,a2,a1
    80005138:	1501                	addi	a0,a0,-32
    8000513a:	02068693          	addi	a3,a3,32
    8000513e:	fb251ee3          	bne	a0,s2,800050fa <main+0x2fa6>
    80005142:	4d01                	li	s10,0
    80005144:	7542                	ld	a0,48(sp)
    80005146:	26153023          	sd	ra,608(a0)
    8000514a:	2a0ebc03          	ld	s8,672(t4)
    8000514e:	f8f2                	sd	t3,112(sp)
    80005150:	fc9a                	sd	t1,120(sp)
    80005152:	e17a                	sd	t5,128(sp)
    80005154:	e51e                	sd	t2,136(sp)
    80005156:	e962                	sd	s8,144(sp)
    80005158:	ed42                	sd	a6,152(sp)
    8000515a:	f15a                	sd	s6,160(sp)
    8000515c:	f55e                	sd	s7,168(sp)
    8000515e:	4515                	li	a0,5
    80005160:	f92a                	sd	a0,176(sp)
    80005162:	7522                	ld	a0,40(sp)
    80005164:	fd2a                	sd	a0,184(sp)
    80005166:	7526                	ld	a0,104(sp)
    80005168:	e1aa                	sd	a0,192(sp)
    8000516a:	7506                	ld	a0,96(sp)
    8000516c:	e5aa                	sd	a0,200(sp)
    8000516e:	6566                	ld	a0,88(sp)
    80005170:	e9aa                	sd	a0,208(sp)
    80005172:	6546                	ld	a0,80(sp)
    80005174:	edaa                	sd	a0,216(sp)
    80005176:	6526                	ld	a0,72(sp)
    80005178:	f1aa                	sd	a0,224(sp)
    8000517a:	6506                	ld	a0,64(sp)
    8000517c:	f5aa                	sd	a0,232(sp)
    8000517e:	7562                	ld	a0,56(sp)
    80005180:	f9aa                	sd	a0,240(sp)
    80005182:	02800593          	li	a1,40
    80005186:	06000693          	li	a3,96
    8000518a:	00b28633          	add	a2,t0,a1
    8000518e:	6218                	ld	a4,0(a2)
    80005190:	00d287b3          	add	a5,t0,a3
    80005194:	fe87b483          	ld	s1,-24(a5)
    80005198:	6600                	ld	s0,8(a2)
    8000519a:	ff07b503          	ld	a0,-16(a5)
    8000519e:	02e48733          	mul	a4,s1,a4
    800051a2:	02850533          	mul	a0,a0,s0
    800051a6:	6a10                	ld	a2,16(a2)
    800051a8:	ff87b483          	ld	s1,-8(a5)
    800051ac:	fa07b403          	ld	s0,-96(a5)
    800051b0:	639c                	ld	a5,0(a5)
    800051b2:	02c48633          	mul	a2,s1,a2
    800051b6:	028787b3          	mul	a5,a5,s0
    800051ba:	976a                	add	a4,a4,s10
    800051bc:	953a                	add	a0,a0,a4
    800051be:	9532                	add	a0,a0,a2
    800051c0:	00f50d33          	add	s10,a0,a5
    800051c4:	1581                	addi	a1,a1,-32
    800051c6:	02068693          	addi	a3,a3,32
    800051ca:	fdb590e3          	bne	a1,s11,8000518a <main+0x3036>
    800051ce:	4081                	li	ra,0
    800051d0:	7542                	ld	a0,48(sp)
    800051d2:	27a53423          	sd	s10,616(a0)
    800051d6:	2a8eb803          	ld	a6,680(t4)
    800051da:	f8f2                	sd	t3,112(sp)
    800051dc:	fc9a                	sd	t1,120(sp)
    800051de:	e17a                	sd	t5,128(sp)
    800051e0:	e51e                	sd	t2,136(sp)
    800051e2:	e962                	sd	s8,144(sp)
    800051e4:	ed42                	sd	a6,152(sp)
    800051e6:	f15a                	sd	s6,160(sp)
    800051e8:	f55e                	sd	s7,168(sp)
    800051ea:	4519                	li	a0,6
    800051ec:	f92a                	sd	a0,176(sp)
    800051ee:	7522                	ld	a0,40(sp)
    800051f0:	fd2a                	sd	a0,184(sp)
    800051f2:	7526                	ld	a0,104(sp)
    800051f4:	e1aa                	sd	a0,192(sp)
    800051f6:	7506                	ld	a0,96(sp)
    800051f8:	e5aa                	sd	a0,200(sp)
    800051fa:	6566                	ld	a0,88(sp)
    800051fc:	e9aa                	sd	a0,208(sp)
    800051fe:	6546                	ld	a0,80(sp)
    80005200:	edaa                	sd	a0,216(sp)
    80005202:	6526                	ld	a0,72(sp)
    80005204:	f1aa                	sd	a0,224(sp)
    80005206:	6506                	ld	a0,64(sp)
    80005208:	f5aa                	sd	a0,232(sp)
    8000520a:	7562                	ld	a0,56(sp)
    8000520c:	f9aa                	sd	a0,240(sp)
    8000520e:	fc000513          	li	a0,-64
    80005212:	86fe                	mv	a3,t6
    80005214:	ff86b603          	ld	a2,-8(a3)
    80005218:	00aa8733          	add	a4,s5,a0
    8000521c:	6f3c                	ld	a5,88(a4)
    8000521e:	6280                	ld	s0,0(a3)
    80005220:	7324                	ld	s1,96(a4)
    80005222:	02c78633          	mul	a2,a5,a2
    80005226:	028487b3          	mul	a5,s1,s0
    8000522a:	6b00                	ld	s0,16(a4)
    8000522c:	7724                	ld	s1,104(a4)
    8000522e:	6f0c                	ld	a1,24(a4)
    80005230:	7b38                	ld	a4,112(a4)
    80005232:	02848433          	mul	s0,s1,s0
    80005236:	02b705b3          	mul	a1,a4,a1
    8000523a:	9606                	add	a2,a2,ra
    8000523c:	963e                	add	a2,a2,a5
    8000523e:	9622                	add	a2,a2,s0
    80005240:	00b600b3          	add	ra,a2,a1
    80005244:	02050513          	addi	a0,a0,32
    80005248:	1681                	addi	a3,a3,-32
    8000524a:	f569                	bnez	a0,80005214 <main+0x30c0>
    8000524c:	4d01                	li	s10,0
    8000524e:	7542                	ld	a0,48(sp)
    80005250:	26153823          	sd	ra,624(a0)
    80005254:	2b0ebb03          	ld	s6,688(t4)
    80005258:	f8f2                	sd	t3,112(sp)
    8000525a:	fc9a                	sd	t1,120(sp)
    8000525c:	e17a                	sd	t5,128(sp)
    8000525e:	e51e                	sd	t2,136(sp)
    80005260:	e962                	sd	s8,144(sp)
    80005262:	ed42                	sd	a6,152(sp)
    80005264:	f15a                	sd	s6,160(sp)
    80005266:	f55e                	sd	s7,168(sp)
    80005268:	451d                	li	a0,7
    8000526a:	f92a                	sd	a0,176(sp)
    8000526c:	70a2                	ld	ra,40(sp)
    8000526e:	fd06                	sd	ra,184(sp)
    80005270:	7526                	ld	a0,104(sp)
    80005272:	e1aa                	sd	a0,192(sp)
    80005274:	7506                	ld	a0,96(sp)
    80005276:	e5aa                	sd	a0,200(sp)
    80005278:	6566                	ld	a0,88(sp)
    8000527a:	e9aa                	sd	a0,208(sp)
    8000527c:	6546                	ld	a0,80(sp)
    8000527e:	edaa                	sd	a0,216(sp)
    80005280:	6526                	ld	a0,72(sp)
    80005282:	f1aa                	sd	a0,224(sp)
    80005284:	6506                	ld	a0,64(sp)
    80005286:	f5aa                	sd	a0,232(sp)
    80005288:	7562                	ld	a0,56(sp)
    8000528a:	f9aa                	sd	a0,240(sp)
    8000528c:	03800593          	li	a1,56
    80005290:	06000693          	li	a3,96
    80005294:	00b28633          	add	a2,t0,a1
    80005298:	6210                	ld	a2,0(a2)
    8000529a:	00d28733          	add	a4,t0,a3
    8000529e:	fe873783          	ld	a5,-24(a4)
    800052a2:	fa073403          	ld	s0,-96(a4)
    800052a6:	ff073483          	ld	s1,-16(a4)
    800052aa:	02c78633          	mul	a2,a5,a2
    800052ae:	028487b3          	mul	a5,s1,s0
    800052b2:	fa873403          	ld	s0,-88(a4)
    800052b6:	ff873483          	ld	s1,-8(a4)
    800052ba:	fb073503          	ld	a0,-80(a4)
    800052be:	6318                	ld	a4,0(a4)
    800052c0:	02848433          	mul	s0,s1,s0
    800052c4:	02a70533          	mul	a0,a4,a0
    800052c8:	966a                	add	a2,a2,s10
    800052ca:	963e                	add	a2,a2,a5
    800052cc:	9622                	add	a2,a2,s0
    800052ce:	00a60d33          	add	s10,a2,a0
    800052d2:	1581                	addi	a1,a1,-32
    800052d4:	02068693          	addi	a3,a3,32
    800052d8:	fb359ee3          	bne	a1,s3,80005294 <main+0x3140>
    800052dc:	4581                	li	a1,0
    800052de:	7542                	ld	a0,48(sp)
    800052e0:	27a53c23          	sd	s10,632(a0)
    800052e4:	2b8ebb83          	ld	s7,696(t4)
    800052e8:	f8f2                	sd	t3,112(sp)
    800052ea:	fc9a                	sd	t1,120(sp)
    800052ec:	e17a                	sd	t5,128(sp)
    800052ee:	e51e                	sd	t2,136(sp)
    800052f0:	e962                	sd	s8,144(sp)
    800052f2:	ed42                	sd	a6,152(sp)
    800052f4:	f15a                	sd	s6,160(sp)
    800052f6:	f55e                	sd	s7,168(sp)
    800052f8:	f902                	sd	zero,176(sp)
    800052fa:	fd06                	sd	ra,184(sp)
    800052fc:	7526                	ld	a0,104(sp)
    800052fe:	e1aa                	sd	a0,192(sp)
    80005300:	7506                	ld	a0,96(sp)
    80005302:	e5aa                	sd	a0,200(sp)
    80005304:	6566                	ld	a0,88(sp)
    80005306:	e9aa                	sd	a0,208(sp)
    80005308:	6546                	ld	a0,80(sp)
    8000530a:	edaa                	sd	a0,216(sp)
    8000530c:	6526                	ld	a0,72(sp)
    8000530e:	f1aa                	sd	a0,224(sp)
    80005310:	6506                	ld	a0,64(sp)
    80005312:	f5aa                	sd	a0,232(sp)
    80005314:	7562                	ld	a0,56(sp)
    80005316:	f9aa                	sd	a0,240(sp)
    80005318:	4541                	li	a0,16
    8000531a:	05000e13          	li	t3,80
    8000531e:	00a28633          	add	a2,t0,a0
    80005322:	ff063683          	ld	a3,-16(a2)
    80005326:	7e18                	ld	a4,56(a2)
    80005328:	02d706b3          	mul	a3,a4,a3
    8000532c:	ff863703          	ld	a4,-8(a2)
    80005330:	623c                	ld	a5,64(a2)
    80005332:	6204                	ld	s1,0(a2)
    80005334:	6620                	ld	s0,72(a2)
    80005336:	02e78733          	mul	a4,a5,a4
    8000533a:	029407b3          	mul	a5,s0,s1
    8000533e:	6604                	ld	s1,8(a2)
    80005340:	6a30                	ld	a2,80(a2)
    80005342:	95b6                	add	a1,a1,a3
    80005344:	02960633          	mul	a2,a2,s1
    80005348:	95ba                	add	a1,a1,a4
    8000534a:	95be                	add	a1,a1,a5
    8000534c:	02050513          	addi	a0,a0,32
    80005350:	95b2                	add	a1,a1,a2
    80005352:	fdc516e3          	bne	a0,t3,8000531e <main+0x31ca>
    80005356:	4501                	li	a0,0
    80005358:	4401                	li	s0,0
    8000535a:	2c0ebe03          	ld	t3,704(t4)
    8000535e:	7642                	ld	a2,48(sp)
    80005360:	28b63023          	sd	a1,640(a2)
    80005364:	f8f2                	sd	t3,112(sp)
    80005366:	fc9a                	sd	t1,120(sp)
    80005368:	e17a                	sd	t5,128(sp)
    8000536a:	e51e                	sd	t2,136(sp)
    8000536c:	e962                	sd	s8,144(sp)
    8000536e:	ed42                	sd	a6,152(sp)
    80005370:	f15a                	sd	s6,160(sp)
    80005372:	f55e                	sd	s7,168(sp)
    80005374:	4585                	li	a1,1
    80005376:	f92e                	sd	a1,176(sp)
    80005378:	fd06                	sd	ra,184(sp)
    8000537a:	75a6                	ld	a1,104(sp)
    8000537c:	e1ae                	sd	a1,192(sp)
    8000537e:	7586                	ld	a1,96(sp)
    80005380:	e5ae                	sd	a1,200(sp)
    80005382:	65e6                	ld	a1,88(sp)
    80005384:	e9ae                	sd	a1,208(sp)
    80005386:	65c6                	ld	a1,80(sp)
    80005388:	edae                	sd	a1,216(sp)
    8000538a:	65a6                	ld	a1,72(sp)
    8000538c:	f1ae                	sd	a1,224(sp)
    8000538e:	6586                	ld	a1,64(sp)
    80005390:	f5ae                	sd	a1,232(sp)
    80005392:	75e2                	ld	a1,56(sp)
    80005394:	f9ae                	sd	a1,240(sp)
    80005396:	192c                	addi	a1,sp,184
    80005398:	fc05b603          	ld	a2,-64(a1)
    8000539c:	6194                	ld	a3,0(a1)
    8000539e:	fc85b703          	ld	a4,-56(a1)
    800053a2:	659c                	ld	a5,8(a1)
    800053a4:	02c68333          	mul	t1,a3,a2
    800053a8:	02e786b3          	mul	a3,a5,a4
    800053ac:	fd05b703          	ld	a4,-48(a1)
    800053b0:	699c                	ld	a5,16(a1)
    800053b2:	00454493          	xori	s1,a0,4
    800053b6:	048e                	slli	s1,s1,0x3
    800053b8:	9496                	add	s1,s1,t0
    800053ba:	6084                	ld	s1,0(s1)
    800053bc:	6d90                	ld	a2,24(a1)
    800053be:	02e78733          	mul	a4,a5,a4
    800053c2:	02960633          	mul	a2,a2,s1
    800053c6:	008307b3          	add	a5,t1,s0
    800053ca:	96be                	add	a3,a3,a5
    800053cc:	96ba                	add	a3,a3,a4
    800053ce:	00c68433          	add	s0,a3,a2
    800053d2:	0511                	addi	a0,a0,4
    800053d4:	02058593          	addi	a1,a1,32
    800053d8:	fd4510e3          	bne	a0,s4,80005398 <main+0x3244>
    800053dc:	4681                	li	a3,0
    800053de:	4501                	li	a0,0
    800053e0:	75c2                	ld	a1,48(sp)
    800053e2:	2885b423          	sd	s0,648(a1)
    800053e6:	2c8eb303          	ld	t1,712(t4)
    800053ea:	f8f2                	sd	t3,112(sp)
    800053ec:	fc9a                	sd	t1,120(sp)
    800053ee:	e17a                	sd	t5,128(sp)
    800053f0:	e51e                	sd	t2,136(sp)
    800053f2:	e962                	sd	s8,144(sp)
    800053f4:	ed42                	sd	a6,152(sp)
    800053f6:	f15a                	sd	s6,160(sp)
    800053f8:	f55e                	sd	s7,168(sp)
    800053fa:	4589                	li	a1,2
    800053fc:	f92e                	sd	a1,176(sp)
    800053fe:	fd06                	sd	ra,184(sp)
    80005400:	75a6                	ld	a1,104(sp)
