
mainop_BASELINE_O2U4.riscv:     file format elf64-littleriscv


Disassembly of section .text.init:

0000000080000000 <_start>:
    80000000:	4081                	li	ra,0
    80000002:	4101                	li	sp,0
    80000004:	4181                	li	gp,0
    80000006:	4201                	li	tp,0
    80000008:	4281                	li	t0,0
    8000000a:	4301                	li	t1,0
    8000000c:	4381                	li	t2,0
    8000000e:	4401                	li	s0,0
    80000010:	4481                	li	s1,0
    80000012:	4501                	li	a0,0
    80000014:	4581                	li	a1,0
    80000016:	4601                	li	a2,0
    80000018:	4681                	li	a3,0
    8000001a:	4701                	li	a4,0
    8000001c:	4781                	li	a5,0
    8000001e:	4801                	li	a6,0
    80000020:	4881                	li	a7,0
    80000022:	4901                	li	s2,0
    80000024:	4981                	li	s3,0
    80000026:	4a01                	li	s4,0
    80000028:	4a81                	li	s5,0
    8000002a:	4b01                	li	s6,0
    8000002c:	4b81                	li	s7,0
    8000002e:	4c01                	li	s8,0
    80000030:	4c81                	li	s9,0
    80000032:	4d01                	li	s10,0
    80000034:	4d81                	li	s11,0
    80000036:	4e01                	li	t3,0
    80000038:	4e81                	li	t4,0
    8000003a:	4f01                	li	t5,0
    8000003c:	4f81                	li	t6,0
    8000003e:	62f9                	lui	t0,0x1e
    80000040:	3002a073          	csrs	mstatus,t0
    80000044:	4285                	li	t0,1
    80000046:	02fe                	slli	t0,t0,0x1f
    80000048:	0002d863          	bgez	t0,80000058 <_start+0x58>
    8000004c:	4505                	li	a0,1
    8000004e:	00001297          	auipc	t0,0x1
    80000052:	faa2a923          	sw	a0,-78(t0) # 80001000 <tohost>
    80000056:	bfdd                	j	8000004c <_start+0x4c>
    80000058:	00000297          	auipc	t0,0x0
    8000005c:	09028293          	addi	t0,t0,144 # 800000e8 <_start+0xe8>
    80000060:	30529073          	csrw	mtvec,t0
    80000064:	00301073          	fscsr	zero
    80000068:	f0000053          	fmv.w.x	ft0,zero
    8000006c:	f00000d3          	fmv.w.x	ft1,zero
    80000070:	f0000153          	fmv.w.x	ft2,zero
    80000074:	f00001d3          	fmv.w.x	ft3,zero
    80000078:	f0000253          	fmv.w.x	ft4,zero
    8000007c:	f00002d3          	fmv.w.x	ft5,zero
    80000080:	f0000353          	fmv.w.x	ft6,zero
    80000084:	f00003d3          	fmv.w.x	ft7,zero
    80000088:	f0000453          	fmv.w.x	fs0,zero
    8000008c:	f00004d3          	fmv.w.x	fs1,zero
    80000090:	f0000553          	fmv.w.x	fa0,zero
    80000094:	f00005d3          	fmv.w.x	fa1,zero
    80000098:	f0000653          	fmv.w.x	fa2,zero
    8000009c:	f00006d3          	fmv.w.x	fa3,zero
    800000a0:	f0000753          	fmv.w.x	fa4,zero
    800000a4:	f00007d3          	fmv.w.x	fa5,zero
    800000a8:	f0000853          	fmv.w.x	fa6,zero
    800000ac:	f00008d3          	fmv.w.x	fa7,zero
    800000b0:	f0000953          	fmv.w.x	fs2,zero
    800000b4:	f00009d3          	fmv.w.x	fs3,zero
    800000b8:	f0000a53          	fmv.w.x	fs4,zero
    800000bc:	f0000ad3          	fmv.w.x	fs5,zero
    800000c0:	f0000b53          	fmv.w.x	fs6,zero
    800000c4:	f0000bd3          	fmv.w.x	fs7,zero
    800000c8:	f0000c53          	fmv.w.x	fs8,zero
    800000cc:	f0000cd3          	fmv.w.x	fs9,zero
    800000d0:	f0000d53          	fmv.w.x	fs10,zero
    800000d4:	f0000dd3          	fmv.w.x	fs11,zero
    800000d8:	f0000e53          	fmv.w.x	ft8,zero
    800000dc:	f0000ed3          	fmv.w.x	ft9,zero
    800000e0:	f0000f53          	fmv.w.x	ft10,zero
    800000e4:	f0000fd3          	fmv.w.x	ft11,zero
    800000e8:	00000297          	auipc	t0,0x0
    800000ec:	03c28293          	addi	t0,t0,60 # 80000124 <trap_entry>
    800000f0:	30529073          	csrw	mtvec,t0
    800000f4:	0000c197          	auipc	gp,0xc
    800000f8:	df418193          	addi	gp,gp,-524 # 8000bee8 <__global_pointer$>
    800000fc:	00011217          	auipc	tp,0x11
    80000100:	44320213          	addi	tp,tp,1091 # 8001153f <_end+0x3f>
    80000104:	fc027213          	andi	tp,tp,-64
    80000108:	f1402573          	csrr	a0,mhartid
    8000010c:	4585                	li	a1,1
    8000010e:	00b57063          	bgeu	a0,a1,8000010e <_start+0x10e>
    80000112:	00150113          	addi	sp,a0,1
    80000116:	0146                	slli	sp,sp,0x11
    80000118:	9112                	add	sp,sp,tp
    8000011a:	01151613          	slli	a2,a0,0x11
    8000011e:	9232                	add	tp,tp,a2
    80000120:	5730a06f          	j	8000ae92 <_init>

0000000080000124 <trap_entry>:
    80000124:	716d                	addi	sp,sp,-272
    80000126:	e406                	sd	ra,8(sp)
    80000128:	e80a                	sd	sp,16(sp)
    8000012a:	ec0e                	sd	gp,24(sp)
    8000012c:	f012                	sd	tp,32(sp)
    8000012e:	f416                	sd	t0,40(sp)
    80000130:	f81a                	sd	t1,48(sp)
    80000132:	fc1e                	sd	t2,56(sp)
    80000134:	e0a2                	sd	s0,64(sp)
    80000136:	e4a6                	sd	s1,72(sp)
    80000138:	e8aa                	sd	a0,80(sp)
    8000013a:	ecae                	sd	a1,88(sp)
    8000013c:	f0b2                	sd	a2,96(sp)
    8000013e:	f4b6                	sd	a3,104(sp)
    80000140:	f8ba                	sd	a4,112(sp)
    80000142:	fcbe                	sd	a5,120(sp)
    80000144:	e142                	sd	a6,128(sp)
    80000146:	e546                	sd	a7,136(sp)
    80000148:	e94a                	sd	s2,144(sp)
    8000014a:	ed4e                	sd	s3,152(sp)
    8000014c:	f152                	sd	s4,160(sp)
    8000014e:	f556                	sd	s5,168(sp)
    80000150:	f95a                	sd	s6,176(sp)
    80000152:	fd5e                	sd	s7,184(sp)
    80000154:	e1e2                	sd	s8,192(sp)
    80000156:	e5e6                	sd	s9,200(sp)
    80000158:	e9ea                	sd	s10,208(sp)
    8000015a:	edee                	sd	s11,216(sp)
    8000015c:	f1f2                	sd	t3,224(sp)
    8000015e:	f5f6                	sd	t4,232(sp)
    80000160:	f9fa                	sd	t5,240(sp)
    80000162:	fdfe                	sd	t6,248(sp)
    80000164:	34202573          	csrr	a0,mcause
    80000168:	341025f3          	csrr	a1,mepc
    8000016c:	860a                	mv	a2,sp
    8000016e:	35d0a0ef          	jal	8000acca <handle_trap>
    80000172:	34151073          	csrw	mepc,a0
    80000176:	6289                	lui	t0,0x2
    80000178:	8002829b          	addiw	t0,t0,-2048 # 1800 <buflen.1+0x17c0>
    8000017c:	3002a073          	csrs	mstatus,t0
    80000180:	60a2                	ld	ra,8(sp)
    80000182:	6142                	ld	sp,16(sp)
    80000184:	61e2                	ld	gp,24(sp)
    80000186:	7202                	ld	tp,32(sp)
    80000188:	72a2                	ld	t0,40(sp)
    8000018a:	7342                	ld	t1,48(sp)
    8000018c:	73e2                	ld	t2,56(sp)
    8000018e:	6406                	ld	s0,64(sp)
    80000190:	64a6                	ld	s1,72(sp)
    80000192:	6546                	ld	a0,80(sp)
    80000194:	65e6                	ld	a1,88(sp)
    80000196:	7606                	ld	a2,96(sp)
    80000198:	76a6                	ld	a3,104(sp)
    8000019a:	7746                	ld	a4,112(sp)
    8000019c:	77e6                	ld	a5,120(sp)
    8000019e:	680a                	ld	a6,128(sp)
    800001a0:	68aa                	ld	a7,136(sp)
    800001a2:	694a                	ld	s2,144(sp)
    800001a4:	69ea                	ld	s3,152(sp)
    800001a6:	7a0a                	ld	s4,160(sp)
    800001a8:	7aaa                	ld	s5,168(sp)
    800001aa:	7b4a                	ld	s6,176(sp)
    800001ac:	7bea                	ld	s7,184(sp)
    800001ae:	6c0e                	ld	s8,192(sp)
    800001b0:	6cae                	ld	s9,200(sp)
    800001b2:	6d4e                	ld	s10,208(sp)
    800001b4:	6dee                	ld	s11,216(sp)
    800001b6:	7e0e                	ld	t3,224(sp)
    800001b8:	7eae                	ld	t4,232(sp)
    800001ba:	7f4e                	ld	t5,240(sp)
    800001bc:	7fee                	ld	t6,248(sp)
    800001be:	6151                	addi	sp,sp,272
    800001c0:	30200073          	mret
    800001c4:	0000                	unimp

Disassembly of section .text:

0000000080002000 <d2ull>:
    80002000:	e2050553          	fmv.x.d	a0,fa0
    80002004:	8082                	ret

0000000080002006 <ull2d>:
    80002006:	f2050553          	fmv.d.x	fa0,a0
    8000200a:	8082                	ret

000000008000200c <PickResult>:
    8000200c:	058e                	slli	a1,a1,0x3
    8000200e:	952e                	add	a0,a0,a1
    80002010:	6108                	ld	a0,0(a0)
    80002012:	8082                	ret

0000000080002014 <Impl_conv1d>:
    80002014:	4601                	li	a2,0
    80002016:	4281                	li	t0,0
    80002018:	04053883          	ld	a7,64(a0)
    8000201c:	06050793          	addi	a5,a0,96
    80002020:	4821                	li	a6,8
    80002022:	00c886bb          	addw	a3,a7,a2
    80002026:	0076f713          	andi	a4,a3,7
    8000202a:	070e                	slli	a4,a4,0x3
    8000202c:	972a                	add	a4,a4,a0
    8000202e:	00073303          	ld	t1,0(a4)
    80002032:	fe87b383          	ld	t2,-24(a5)
    80002036:	0016871b          	addiw	a4,a3,1
    8000203a:	8b1d                	andi	a4,a4,7
    8000203c:	070e                	slli	a4,a4,0x3
    8000203e:	972a                	add	a4,a4,a0
    80002040:	00073e03          	ld	t3,0(a4)
    80002044:	ff07b703          	ld	a4,-16(a5)
    80002048:	02638333          	mul	t1,t2,t1
    8000204c:	03c703b3          	mul	t2,a4,t3
    80002050:	0026871b          	addiw	a4,a3,2
    80002054:	8b1d                	andi	a4,a4,7
    80002056:	070e                	slli	a4,a4,0x3
    80002058:	972a                	add	a4,a4,a0
    8000205a:	00073e03          	ld	t3,0(a4)
    8000205e:	ff87be83          	ld	t4,-8(a5)
    80002062:	268d                	addiw	a3,a3,3
    80002064:	8a9d                	andi	a3,a3,7
    80002066:	068e                	slli	a3,a3,0x3
    80002068:	96aa                	add	a3,a3,a0
    8000206a:	6294                	ld	a3,0(a3)
    8000206c:	6398                	ld	a4,0(a5)
    8000206e:	03ce8e33          	mul	t3,t4,t3
    80002072:	02d706b3          	mul	a3,a4,a3
    80002076:	00530733          	add	a4,t1,t0
    8000207a:	971e                	add	a4,a4,t2
    8000207c:	9772                	add	a4,a4,t3
    8000207e:	00e682b3          	add	t0,a3,a4
    80002082:	0611                	addi	a2,a2,4
    80002084:	02078793          	addi	a5,a5,32
    80002088:	f9061de3          	bne	a2,a6,80002022 <Impl_conv1d+0xe>
    8000208c:	0055b023          	sd	t0,0(a1)
    80002090:	8082                	ret

0000000080002092 <OP_conv1d>:
    80002092:	7171                	addi	sp,sp,-176
    80002094:	f522                	sd	s0,168(sp)
    80002096:	f126                	sd	s1,160(sp)
    80002098:	ed4a                	sd	s2,152(sp)
    8000209a:	e94e                	sd	s3,144(sp)
    8000209c:	e552                	sd	s4,136(sp)
    8000209e:	4281                	li	t0,0
    800020a0:	4381                	li	t2,0
    800020a2:	736a                	ld	t1,184(sp)
    800020a4:	7e6e                	ld	t3,248(sp)
    800020a6:	7ece                	ld	t4,240(sp)
    800020a8:	7f2e                	ld	t5,232(sp)
    800020aa:	7f8e                	ld	t6,224(sp)
    800020ac:	696e                	ld	s2,216(sp)
    800020ae:	69ce                	ld	s3,208(sp)
    800020b0:	6a2e                	ld	s4,200(sp)
    800020b2:	648e                	ld	s1,192(sp)
    800020b4:	e02e                	sd	a1,0(sp)
    800020b6:	744a                	ld	s0,176(sp)
    800020b8:	e432                	sd	a2,8(sp)
    800020ba:	108c                	addi	a1,sp,96
    800020bc:	e836                	sd	a3,16(sp)
    800020be:	ec3a                	sd	a4,24(sp)
    800020c0:	f03e                	sd	a5,32(sp)
    800020c2:	f442                	sd	a6,40(sp)
    800020c4:	f846                	sd	a7,48(sp)
    800020c6:	fc22                	sd	s0,56(sp)
    800020c8:	e09a                	sd	t1,64(sp)
    800020ca:	e4a6                	sd	s1,72(sp)
    800020cc:	e8d2                	sd	s4,80(sp)
    800020ce:	ecce                	sd	s3,88(sp)
    800020d0:	f0ca                	sd	s2,96(sp)
    800020d2:	f4fe                	sd	t6,104(sp)
    800020d4:	f8fa                	sd	t5,112(sp)
    800020d6:	fcf6                	sd	t4,120(sp)
    800020d8:	e172                	sd	t3,128(sp)
    800020da:	888a                	mv	a7,sp
    800020dc:	4821                	li	a6,8
    800020de:	0053073b          	addw	a4,t1,t0
    800020e2:	00777793          	andi	a5,a4,7
    800020e6:	078e                	slli	a5,a5,0x3
    800020e8:	97c6                	add	a5,a5,a7
    800020ea:	639c                	ld	a5,0(a5)
    800020ec:	fe85b483          	ld	s1,-24(a1)
    800020f0:	0017041b          	addiw	s0,a4,1
    800020f4:	881d                	andi	s0,s0,7
    800020f6:	040e                	slli	s0,s0,0x3
    800020f8:	9446                	add	s0,s0,a7
    800020fa:	6000                	ld	s0,0(s0)
    800020fc:	ff05b683          	ld	a3,-16(a1)
    80002100:	02f487b3          	mul	a5,s1,a5
    80002104:	028686b3          	mul	a3,a3,s0
    80002108:	0027049b          	addiw	s1,a4,2
    8000210c:	889d                	andi	s1,s1,7
    8000210e:	048e                	slli	s1,s1,0x3
    80002110:	94c6                	add	s1,s1,a7
    80002112:	6084                	ld	s1,0(s1)
    80002114:	ff85b403          	ld	s0,-8(a1)
    80002118:	270d                	addiw	a4,a4,3
    8000211a:	8b1d                	andi	a4,a4,7
    8000211c:	070e                	slli	a4,a4,0x3
    8000211e:	9746                	add	a4,a4,a7
    80002120:	6318                	ld	a4,0(a4)
    80002122:	6190                	ld	a2,0(a1)
    80002124:	029404b3          	mul	s1,s0,s1
    80002128:	02e60633          	mul	a2,a2,a4
    8000212c:	00778733          	add	a4,a5,t2
    80002130:	96ba                	add	a3,a3,a4
    80002132:	96a6                	add	a3,a3,s1
    80002134:	00c683b3          	add	t2,a3,a2
    80002138:	0291                	addi	t0,t0,4
    8000213a:	02058593          	addi	a1,a1,32
    8000213e:	fb0290e3          	bne	t0,a6,800020de <OP_conv1d+0x4c>
    80002142:	00753023          	sd	t2,0(a0)
    80002146:	742a                	ld	s0,168(sp)
    80002148:	748a                	ld	s1,160(sp)
    8000214a:	696a                	ld	s2,152(sp)
    8000214c:	69ca                	ld	s3,144(sp)
    8000214e:	6a2a                	ld	s4,136(sp)
    80002150:	614d                	addi	sp,sp,176
    80002152:	8082                	ret

0000000080002154 <main>:
    80002154:	710d                	addi	sp,sp,-352
    80002156:	ee86                	sd	ra,344(sp)
    80002158:	eaa2                	sd	s0,336(sp)
    8000215a:	e6a6                	sd	s1,328(sp)
    8000215c:	e2ca                	sd	s2,320(sp)
    8000215e:	fe4e                	sd	s3,312(sp)
    80002160:	fa52                	sd	s4,304(sp)
    80002162:	f656                	sd	s5,296(sp)
    80002164:	f25a                	sd	s6,288(sp)
    80002166:	ee5e                	sd	s7,280(sp)
    80002168:	ea62                	sd	s8,272(sp)
    8000216a:	e666                	sd	s9,264(sp)
    8000216c:	e26a                	sd	s10,256(sp)
    8000216e:	fdee                	sd	s11,248(sp)
    80002170:	4701                	li	a4,0
    80002172:	82018513          	addi	a0,gp,-2016 # 8000b708 <gen2+0x1d0>
    80002176:	610c                	ld	a1,0(a0)
    80002178:	83018813          	addi	a6,gp,-2000 # 8000b718 <gen1>
    8000217c:	00083683          	ld	a3,0(a6)
    80002180:	00009e17          	auipc	t3,0x9
    80002184:	5a8e0e13          	addi	t3,t3,1448 # 8000b728 <input>
    80002188:	82818613          	addi	a2,gp,-2008 # 8000b710 <gen2+0x1d8>
    8000218c:	6210                	ld	a2,0(a2)
    8000218e:	3b9ad7b7          	lui	a5,0x3b9ad
    80002192:	a077829b          	addiw	t0,a5,-1529 # 3b9aca07 <buflen.1+0x3b9ac9c7>
    80002196:	40000893          	li	a7,1024
    8000219a:	02b68533          	mul	a0,a3,a1
    8000219e:	02c53433          	mulhu	s0,a0,a2
    800021a2:	8075                	srli	s0,s0,0x1d
    800021a4:	02540433          	mul	s0,s0,t0
    800021a8:	8d01                	sub	a0,a0,s0
    800021aa:	02b50433          	mul	s0,a0,a1
    800021ae:	02c434b3          	mulhu	s1,s0,a2
    800021b2:	80f5                	srli	s1,s1,0x1d
    800021b4:	025484b3          	mul	s1,s1,t0
    800021b8:	409404b3          	sub	s1,s0,s1
    800021bc:	02b48433          	mul	s0,s1,a1
    800021c0:	02c437b3          	mulhu	a5,s0,a2
    800021c4:	83f5                	srli	a5,a5,0x1d
    800021c6:	025787b3          	mul	a5,a5,t0
    800021ca:	00b68333          	add	t1,a3,a1
    800021ce:	40f407b3          	sub	a5,s0,a5
    800021d2:	02b78433          	mul	s0,a5,a1
    800021d6:	00ee06b3          	add	a3,t3,a4
    800021da:	0066b023          	sd	t1,0(a3)
    800021de:	952e                	add	a0,a0,a1
    800021e0:	02c43333          	mulhu	t1,s0,a2
    800021e4:	e688                	sd	a0,8(a3)
    800021e6:	00b48533          	add	a0,s1,a1
    800021ea:	ea88                	sd	a0,16(a3)
    800021ec:	01d35513          	srli	a0,t1,0x1d
    800021f0:	02550533          	mul	a0,a0,t0
    800021f4:	97ae                	add	a5,a5,a1
    800021f6:	ee9c                	sd	a5,24(a3)
    800021f8:	02070713          	addi	a4,a4,32
    800021fc:	40a406b3          	sub	a3,s0,a0
    80002200:	f9171de3          	bne	a4,a7,8000219a <main+0x46>
    80002204:	4701                	li	a4,0
    80002206:	3b9ad537          	lui	a0,0x3b9ad
    8000220a:	a075029b          	addiw	t0,a0,-1529 # 3b9aca07 <buflen.1+0x3b9ac9c7>
    8000220e:	40000893          	li	a7,1024
    80002212:	02b68433          	mul	s0,a3,a1
    80002216:	02c43533          	mulhu	a0,s0,a2
    8000221a:	8175                	srli	a0,a0,0x1d
    8000221c:	02550533          	mul	a0,a0,t0
    80002220:	40a40533          	sub	a0,s0,a0
    80002224:	02b50433          	mul	s0,a0,a1
    80002228:	02c434b3          	mulhu	s1,s0,a2
    8000222c:	80f5                	srli	s1,s1,0x1d
    8000222e:	025484b3          	mul	s1,s1,t0
    80002232:	409404b3          	sub	s1,s0,s1
    80002236:	02b48433          	mul	s0,s1,a1
    8000223a:	02c437b3          	mulhu	a5,s0,a2
    8000223e:	83f5                	srli	a5,a5,0x1d
    80002240:	025787b3          	mul	a5,a5,t0
    80002244:	00b68333          	add	t1,a3,a1
    80002248:	40f407b3          	sub	a5,s0,a5
    8000224c:	02b78433          	mul	s0,a5,a1
    80002250:	00ee06b3          	add	a3,t3,a4
    80002254:	4066b023          	sd	t1,1024(a3)
    80002258:	952e                	add	a0,a0,a1
    8000225a:	02c43333          	mulhu	t1,s0,a2
    8000225e:	40a6b423          	sd	a0,1032(a3)
    80002262:	00b48533          	add	a0,s1,a1
    80002266:	40a6b823          	sd	a0,1040(a3)
    8000226a:	01d35513          	srli	a0,t1,0x1d
    8000226e:	02550533          	mul	a0,a0,t0
    80002272:	97ae                	add	a5,a5,a1
    80002274:	40f6bc23          	sd	a5,1048(a3)
    80002278:	02070713          	addi	a4,a4,32
    8000227c:	40a406b3          	sub	a3,s0,a0
    80002280:	f91719e3          	bne	a4,a7,80002212 <main+0xbe>
    80002284:	7ffe0893          	addi	a7,t3,2047
    80002288:	01988793          	addi	a5,a7,25
    8000228c:	08000493          	li	s1,128
    80002290:	3b9ad537          	lui	a0,0x3b9ad
    80002294:	a075029b          	addiw	t0,a0,-1529 # 3b9aca07 <buflen.1+0x3b9ac9c7>
    80002298:	02b68533          	mul	a0,a3,a1
    8000229c:	02c53733          	mulhu	a4,a0,a2
    800022a0:	8375                	srli	a4,a4,0x1d
    800022a2:	02570733          	mul	a4,a4,t0
    800022a6:	40e50333          	sub	t1,a0,a4
    800022aa:	02b30733          	mul	a4,t1,a1
    800022ae:	02c73433          	mulhu	s0,a4,a2
    800022b2:	8075                	srli	s0,s0,0x1d
    800022b4:	02540433          	mul	s0,s0,t0
    800022b8:	8f01                	sub	a4,a4,s0
    800022ba:	02b70433          	mul	s0,a4,a1
    800022be:	02c43533          	mulhu	a0,s0,a2
    800022c2:	8175                	srli	a0,a0,0x1d
    800022c4:	02550533          	mul	a0,a0,t0
    800022c8:	40a40533          	sub	a0,s0,a0
    800022cc:	02b50433          	mul	s0,a0,a1
    800022d0:	96ae                	add	a3,a3,a1
    800022d2:	fed7b423          	sd	a3,-24(a5)
    800022d6:	02c433b3          	mulhu	t2,s0,a2
    800022da:	00b306b3          	add	a3,t1,a1
    800022de:	fed7b823          	sd	a3,-16(a5)
    800022e2:	00b706b3          	add	a3,a4,a1
    800022e6:	01d3d713          	srli	a4,t2,0x1d
    800022ea:	02570733          	mul	a4,a4,t0
    800022ee:	fed7bc23          	sd	a3,-8(a5)
    800022f2:	952e                	add	a0,a0,a1
    800022f4:	e388                	sd	a0,0(a5)
    800022f6:	40e406b3          	sub	a3,s0,a4
    800022fa:	14f1                	addi	s1,s1,-4
    800022fc:	02078793          	addi	a5,a5,32
    80002300:	fcc1                	bnez	s1,80002298 <main+0x144>
    80002302:	41988713          	addi	a4,a7,1049
    80002306:	08000793          	li	a5,128
    8000230a:	3b9ad537          	lui	a0,0x3b9ad
    8000230e:	a075089b          	addiw	a7,a0,-1529 # 3b9aca07 <buflen.1+0x3b9ac9c7>
    80002312:	02b68533          	mul	a0,a3,a1
    80002316:	02c53433          	mulhu	s0,a0,a2
    8000231a:	8075                	srli	s0,s0,0x1d
    8000231c:	03140433          	mul	s0,s0,a7
    80002320:	408502b3          	sub	t0,a0,s0
    80002324:	02b28433          	mul	s0,t0,a1
    80002328:	02c434b3          	mulhu	s1,s0,a2
    8000232c:	80f5                	srli	s1,s1,0x1d
    8000232e:	031484b3          	mul	s1,s1,a7
    80002332:	409404b3          	sub	s1,s0,s1
    80002336:	02b48433          	mul	s0,s1,a1
    8000233a:	02c43533          	mulhu	a0,s0,a2
    8000233e:	8175                	srli	a0,a0,0x1d
    80002340:	03150533          	mul	a0,a0,a7
    80002344:	40a40533          	sub	a0,s0,a0
    80002348:	02b50433          	mul	s0,a0,a1
    8000234c:	96ae                	add	a3,a3,a1
    8000234e:	fed73423          	sd	a3,-24(a4)
    80002352:	02c43333          	mulhu	t1,s0,a2
    80002356:	00b286b3          	add	a3,t0,a1
    8000235a:	fed73823          	sd	a3,-16(a4)
    8000235e:	00b486b3          	add	a3,s1,a1
    80002362:	01d35493          	srli	s1,t1,0x1d
    80002366:	031484b3          	mul	s1,s1,a7
    8000236a:	fed73c23          	sd	a3,-8(a4)
    8000236e:	952e                	add	a0,a0,a1
    80002370:	e308                	sd	a0,0(a4)
    80002372:	409406b3          	sub	a3,s0,s1
    80002376:	17f1                	addi	a5,a5,-4
    80002378:	02070713          	addi	a4,a4,32
    8000237c:	fbd9                	bnez	a5,80002312 <main+0x1be>
    8000237e:	6505                	lui	a0,0x1
    80002380:	2561                	addiw	a0,a0,24 # 1018 <buflen.1+0xfd8>
    80002382:	00ae0733          	add	a4,t3,a0
    80002386:	08000793          	li	a5,128
    8000238a:	3b9ad537          	lui	a0,0x3b9ad
    8000238e:	a075089b          	addiw	a7,a0,-1529 # 3b9aca07 <buflen.1+0x3b9ac9c7>
    80002392:	02b68533          	mul	a0,a3,a1
    80002396:	02c53433          	mulhu	s0,a0,a2
    8000239a:	8075                	srli	s0,s0,0x1d
    8000239c:	03140433          	mul	s0,s0,a7
    800023a0:	408502b3          	sub	t0,a0,s0
    800023a4:	02b28433          	mul	s0,t0,a1
    800023a8:	02c434b3          	mulhu	s1,s0,a2
    800023ac:	80f5                	srli	s1,s1,0x1d
    800023ae:	031484b3          	mul	s1,s1,a7
    800023b2:	409404b3          	sub	s1,s0,s1
    800023b6:	02b48433          	mul	s0,s1,a1
    800023ba:	02c43533          	mulhu	a0,s0,a2
    800023be:	8175                	srli	a0,a0,0x1d
    800023c0:	03150533          	mul	a0,a0,a7
    800023c4:	40a40533          	sub	a0,s0,a0
    800023c8:	02b50433          	mul	s0,a0,a1
    800023cc:	96ae                	add	a3,a3,a1
    800023ce:	fed73423          	sd	a3,-24(a4)
    800023d2:	02c43333          	mulhu	t1,s0,a2
    800023d6:	00b286b3          	add	a3,t0,a1
    800023da:	fed73823          	sd	a3,-16(a4)
    800023de:	00b486b3          	add	a3,s1,a1
    800023e2:	01d35493          	srli	s1,t1,0x1d
    800023e6:	031484b3          	mul	s1,s1,a7
    800023ea:	fed73c23          	sd	a3,-8(a4)
    800023ee:	952e                	add	a0,a0,a1
    800023f0:	e308                	sd	a0,0(a4)
    800023f2:	409406b3          	sub	a3,s0,s1
    800023f6:	17f1                	addi	a5,a5,-4
    800023f8:	02070713          	addi	a4,a4,32
    800023fc:	fbd9                	bnez	a5,80002392 <main+0x23e>
    800023fe:	6505                	lui	a0,0x1
    80002400:	4185051b          	addiw	a0,a0,1048 # 1418 <buflen.1+0x13d8>
    80002404:	00ae0733          	add	a4,t3,a0
    80002408:	08000793          	li	a5,128
    8000240c:	3b9ad537          	lui	a0,0x3b9ad
    80002410:	a075089b          	addiw	a7,a0,-1529 # 3b9aca07 <buflen.1+0x3b9ac9c7>
    80002414:	02b68533          	mul	a0,a3,a1
    80002418:	02c53433          	mulhu	s0,a0,a2
    8000241c:	8075                	srli	s0,s0,0x1d
    8000241e:	03140433          	mul	s0,s0,a7
    80002422:	408502b3          	sub	t0,a0,s0
    80002426:	02b28433          	mul	s0,t0,a1
    8000242a:	02c434b3          	mulhu	s1,s0,a2
    8000242e:	80f5                	srli	s1,s1,0x1d
    80002430:	031484b3          	mul	s1,s1,a7
    80002434:	409404b3          	sub	s1,s0,s1
    80002438:	02b48433          	mul	s0,s1,a1
    8000243c:	02c43533          	mulhu	a0,s0,a2
    80002440:	8175                	srli	a0,a0,0x1d
    80002442:	03150533          	mul	a0,a0,a7
    80002446:	40a40533          	sub	a0,s0,a0
    8000244a:	02b50433          	mul	s0,a0,a1
    8000244e:	96ae                	add	a3,a3,a1
    80002450:	fed73423          	sd	a3,-24(a4)
    80002454:	02c43333          	mulhu	t1,s0,a2
    80002458:	00b286b3          	add	a3,t0,a1
    8000245c:	fed73823          	sd	a3,-16(a4)
    80002460:	00b486b3          	add	a3,s1,a1
    80002464:	01d35493          	srli	s1,t1,0x1d
    80002468:	031484b3          	mul	s1,s1,a7
    8000246c:	fed73c23          	sd	a3,-8(a4)
    80002470:	952e                	add	a0,a0,a1
    80002472:	e308                	sd	a0,0(a4)
    80002474:	409406b3          	sub	a3,s0,s1
    80002478:	17f1                	addi	a5,a5,-4
    8000247a:	02070713          	addi	a4,a4,32
    8000247e:	fbd9                	bnez	a5,80002414 <main+0x2c0>
    80002480:	6509                	lui	a0,0x2
    80002482:	8185051b          	addiw	a0,a0,-2024 # 1818 <buflen.1+0x17d8>
    80002486:	00ae0733          	add	a4,t3,a0
    8000248a:	08000793          	li	a5,128
    8000248e:	3b9ad537          	lui	a0,0x3b9ad
    80002492:	a075089b          	addiw	a7,a0,-1529 # 3b9aca07 <buflen.1+0x3b9ac9c7>
    80002496:	02b68533          	mul	a0,a3,a1
    8000249a:	02c53433          	mulhu	s0,a0,a2
    8000249e:	8075                	srli	s0,s0,0x1d
    800024a0:	03140433          	mul	s0,s0,a7
    800024a4:	408502b3          	sub	t0,a0,s0
    800024a8:	02b28433          	mul	s0,t0,a1
    800024ac:	02c434b3          	mulhu	s1,s0,a2
    800024b0:	80f5                	srli	s1,s1,0x1d
    800024b2:	031484b3          	mul	s1,s1,a7
    800024b6:	409404b3          	sub	s1,s0,s1
    800024ba:	02b48433          	mul	s0,s1,a1
    800024be:	02c43533          	mulhu	a0,s0,a2
    800024c2:	8175                	srli	a0,a0,0x1d
    800024c4:	03150533          	mul	a0,a0,a7
    800024c8:	40a40533          	sub	a0,s0,a0
    800024cc:	02b50433          	mul	s0,a0,a1
    800024d0:	96ae                	add	a3,a3,a1
    800024d2:	fed73423          	sd	a3,-24(a4)
    800024d6:	02c43333          	mulhu	t1,s0,a2
    800024da:	00b286b3          	add	a3,t0,a1
    800024de:	fed73823          	sd	a3,-16(a4)
    800024e2:	00b486b3          	add	a3,s1,a1
    800024e6:	01d35493          	srli	s1,t1,0x1d
    800024ea:	031484b3          	mul	s1,s1,a7
    800024ee:	fed73c23          	sd	a3,-8(a4)
    800024f2:	952e                	add	a0,a0,a1
    800024f4:	e308                	sd	a0,0(a4)
    800024f6:	409406b3          	sub	a3,s0,s1
    800024fa:	17f1                	addi	a5,a5,-4
    800024fc:	02070713          	addi	a4,a4,32
    80002500:	fbd9                	bnez	a5,80002496 <main+0x342>
    80002502:	6509                	lui	a0,0x2
    80002504:	c185051b          	addiw	a0,a0,-1000 # 1c18 <buflen.1+0x1bd8>
    80002508:	00ae0733          	add	a4,t3,a0
    8000250c:	08000793          	li	a5,128
    80002510:	3b9ad537          	lui	a0,0x3b9ad
    80002514:	a075089b          	addiw	a7,a0,-1529 # 3b9aca07 <buflen.1+0x3b9ac9c7>
    80002518:	02b68533          	mul	a0,a3,a1
    8000251c:	02c53433          	mulhu	s0,a0,a2
    80002520:	8075                	srli	s0,s0,0x1d
    80002522:	03140433          	mul	s0,s0,a7
    80002526:	408502b3          	sub	t0,a0,s0
    8000252a:	02b28433          	mul	s0,t0,a1
    8000252e:	02c434b3          	mulhu	s1,s0,a2
    80002532:	80f5                	srli	s1,s1,0x1d
    80002534:	031484b3          	mul	s1,s1,a7
    80002538:	409404b3          	sub	s1,s0,s1
    8000253c:	02b48433          	mul	s0,s1,a1
    80002540:	02c43533          	mulhu	a0,s0,a2
    80002544:	8175                	srli	a0,a0,0x1d
    80002546:	03150533          	mul	a0,a0,a7
    8000254a:	40a40533          	sub	a0,s0,a0
    8000254e:	02b50433          	mul	s0,a0,a1
    80002552:	96ae                	add	a3,a3,a1
    80002554:	fed73423          	sd	a3,-24(a4)
    80002558:	02c43333          	mulhu	t1,s0,a2
    8000255c:	00b286b3          	add	a3,t0,a1
    80002560:	fed73823          	sd	a3,-16(a4)
    80002564:	00b486b3          	add	a3,s1,a1
    80002568:	01d35493          	srli	s1,t1,0x1d
    8000256c:	031484b3          	mul	s1,s1,a7
    80002570:	fed73c23          	sd	a3,-8(a4)
    80002574:	952e                	add	a0,a0,a1
    80002576:	e308                	sd	a0,0(a4)
    80002578:	409406b3          	sub	a3,s0,s1
    8000257c:	17f1                	addi	a5,a5,-4
    8000257e:	02070713          	addi	a4,a4,32
    80002582:	fbd9                	bnez	a5,80002518 <main+0x3c4>
    80002584:	6509                	lui	a0,0x2
    80002586:	2561                	addiw	a0,a0,24 # 2018 <buflen.1+0x1fd8>
    80002588:	00ae0733          	add	a4,t3,a0
    8000258c:	08000793          	li	a5,128
    80002590:	3b9ad537          	lui	a0,0x3b9ad
    80002594:	a075089b          	addiw	a7,a0,-1529 # 3b9aca07 <buflen.1+0x3b9ac9c7>
    80002598:	02b68533          	mul	a0,a3,a1
    8000259c:	02c53433          	mulhu	s0,a0,a2
    800025a0:	8075                	srli	s0,s0,0x1d
    800025a2:	03140433          	mul	s0,s0,a7
    800025a6:	408502b3          	sub	t0,a0,s0
    800025aa:	02b28433          	mul	s0,t0,a1
    800025ae:	02c434b3          	mulhu	s1,s0,a2
    800025b2:	80f5                	srli	s1,s1,0x1d
    800025b4:	031484b3          	mul	s1,s1,a7
    800025b8:	409404b3          	sub	s1,s0,s1
    800025bc:	02b48433          	mul	s0,s1,a1
    800025c0:	02c43533          	mulhu	a0,s0,a2
    800025c4:	8175                	srli	a0,a0,0x1d
    800025c6:	03150533          	mul	a0,a0,a7
    800025ca:	40a40533          	sub	a0,s0,a0
    800025ce:	02b50433          	mul	s0,a0,a1
    800025d2:	96ae                	add	a3,a3,a1
    800025d4:	fed73423          	sd	a3,-24(a4)
    800025d8:	02c43333          	mulhu	t1,s0,a2
    800025dc:	00b286b3          	add	a3,t0,a1
    800025e0:	fed73823          	sd	a3,-16(a4)
    800025e4:	00b486b3          	add	a3,s1,a1
    800025e8:	01d35493          	srli	s1,t1,0x1d
    800025ec:	031484b3          	mul	s1,s1,a7
    800025f0:	fed73c23          	sd	a3,-8(a4)
    800025f4:	952e                	add	a0,a0,a1
    800025f6:	e308                	sd	a0,0(a4)
    800025f8:	409406b3          	sub	a3,s0,s1
    800025fc:	17f1                	addi	a5,a5,-4
    800025fe:	02070713          	addi	a4,a4,32
    80002602:	fbd9                	bnez	a5,80002598 <main+0x444>
    80002604:	6509                	lui	a0,0x2
    80002606:	4185051b          	addiw	a0,a0,1048 # 2418 <buflen.1+0x23d8>
    8000260a:	00ae0733          	add	a4,t3,a0
    8000260e:	08000793          	li	a5,128
    80002612:	3b9ad537          	lui	a0,0x3b9ad
    80002616:	a075089b          	addiw	a7,a0,-1529 # 3b9aca07 <buflen.1+0x3b9ac9c7>
    8000261a:	02b68533          	mul	a0,a3,a1
    8000261e:	02c53433          	mulhu	s0,a0,a2
    80002622:	8075                	srli	s0,s0,0x1d
    80002624:	03140433          	mul	s0,s0,a7
    80002628:	408502b3          	sub	t0,a0,s0
    8000262c:	02b28433          	mul	s0,t0,a1
    80002630:	02c434b3          	mulhu	s1,s0,a2
    80002634:	80f5                	srli	s1,s1,0x1d
    80002636:	031484b3          	mul	s1,s1,a7
    8000263a:	409404b3          	sub	s1,s0,s1
    8000263e:	02b48433          	mul	s0,s1,a1
    80002642:	02c43533          	mulhu	a0,s0,a2
    80002646:	8175                	srli	a0,a0,0x1d
    80002648:	03150533          	mul	a0,a0,a7
    8000264c:	40a40533          	sub	a0,s0,a0
    80002650:	02b50433          	mul	s0,a0,a1
    80002654:	96ae                	add	a3,a3,a1
    80002656:	fed73423          	sd	a3,-24(a4)
    8000265a:	02c43333          	mulhu	t1,s0,a2
    8000265e:	00b286b3          	add	a3,t0,a1
    80002662:	fed73823          	sd	a3,-16(a4)
    80002666:	00b486b3          	add	a3,s1,a1
    8000266a:	01d35493          	srli	s1,t1,0x1d
    8000266e:	031484b3          	mul	s1,s1,a7
    80002672:	fed73c23          	sd	a3,-8(a4)
    80002676:	952e                	add	a0,a0,a1
    80002678:	e308                	sd	a0,0(a4)
    8000267a:	409406b3          	sub	a3,s0,s1
    8000267e:	17f1                	addi	a5,a5,-4
    80002680:	02070713          	addi	a4,a4,32
    80002684:	fbd9                	bnez	a5,8000261a <main+0x4c6>
    80002686:	650d                	lui	a0,0x3
    80002688:	8185051b          	addiw	a0,a0,-2024 # 2818 <buflen.1+0x27d8>
    8000268c:	00ae0733          	add	a4,t3,a0
    80002690:	08000793          	li	a5,128
    80002694:	3b9ad537          	lui	a0,0x3b9ad
    80002698:	a075089b          	addiw	a7,a0,-1529 # 3b9aca07 <buflen.1+0x3b9ac9c7>
    8000269c:	02b68533          	mul	a0,a3,a1
    800026a0:	02c53433          	mulhu	s0,a0,a2
    800026a4:	8075                	srli	s0,s0,0x1d
    800026a6:	03140433          	mul	s0,s0,a7
    800026aa:	408502b3          	sub	t0,a0,s0
    800026ae:	02b28433          	mul	s0,t0,a1
    800026b2:	02c434b3          	mulhu	s1,s0,a2
    800026b6:	80f5                	srli	s1,s1,0x1d
    800026b8:	031484b3          	mul	s1,s1,a7
    800026bc:	409404b3          	sub	s1,s0,s1
    800026c0:	02b48433          	mul	s0,s1,a1
    800026c4:	02c43533          	mulhu	a0,s0,a2
    800026c8:	8175                	srli	a0,a0,0x1d
    800026ca:	03150533          	mul	a0,a0,a7
    800026ce:	40a40533          	sub	a0,s0,a0
    800026d2:	02b50433          	mul	s0,a0,a1
    800026d6:	96ae                	add	a3,a3,a1
    800026d8:	fed73423          	sd	a3,-24(a4)
    800026dc:	02c43333          	mulhu	t1,s0,a2
    800026e0:	00b286b3          	add	a3,t0,a1
    800026e4:	fed73823          	sd	a3,-16(a4)
    800026e8:	00b486b3          	add	a3,s1,a1
    800026ec:	01d35493          	srli	s1,t1,0x1d
    800026f0:	031484b3          	mul	s1,s1,a7
    800026f4:	fed73c23          	sd	a3,-8(a4)
    800026f8:	952e                	add	a0,a0,a1
    800026fa:	e308                	sd	a0,0(a4)
    800026fc:	409406b3          	sub	a3,s0,s1
    80002700:	17f1                	addi	a5,a5,-4
    80002702:	02070713          	addi	a4,a4,32
    80002706:	fbd9                	bnez	a5,8000269c <main+0x548>
    80002708:	650d                	lui	a0,0x3
    8000270a:	c185051b          	addiw	a0,a0,-1000 # 2c18 <buflen.1+0x2bd8>
    8000270e:	00ae0733          	add	a4,t3,a0
    80002712:	08000793          	li	a5,128
    80002716:	3b9ad537          	lui	a0,0x3b9ad
    8000271a:	a075089b          	addiw	a7,a0,-1529 # 3b9aca07 <buflen.1+0x3b9ac9c7>
    8000271e:	02b68533          	mul	a0,a3,a1
    80002722:	02c53433          	mulhu	s0,a0,a2
    80002726:	8075                	srli	s0,s0,0x1d
    80002728:	03140433          	mul	s0,s0,a7
    8000272c:	408502b3          	sub	t0,a0,s0
    80002730:	02b28433          	mul	s0,t0,a1
    80002734:	02c434b3          	mulhu	s1,s0,a2
    80002738:	80f5                	srli	s1,s1,0x1d
    8000273a:	031484b3          	mul	s1,s1,a7
    8000273e:	409404b3          	sub	s1,s0,s1
    80002742:	02b48433          	mul	s0,s1,a1
    80002746:	02c43533          	mulhu	a0,s0,a2
    8000274a:	8175                	srli	a0,a0,0x1d
    8000274c:	03150533          	mul	a0,a0,a7
    80002750:	40a40533          	sub	a0,s0,a0
    80002754:	02b50433          	mul	s0,a0,a1
    80002758:	96ae                	add	a3,a3,a1
    8000275a:	fed73423          	sd	a3,-24(a4)
    8000275e:	02c43333          	mulhu	t1,s0,a2
    80002762:	00b286b3          	add	a3,t0,a1
    80002766:	fed73823          	sd	a3,-16(a4)
    8000276a:	00b486b3          	add	a3,s1,a1
    8000276e:	01d35493          	srli	s1,t1,0x1d
    80002772:	031484b3          	mul	s1,s1,a7
    80002776:	fed73c23          	sd	a3,-8(a4)
    8000277a:	952e                	add	a0,a0,a1
    8000277c:	e308                	sd	a0,0(a4)
    8000277e:	409406b3          	sub	a3,s0,s1
    80002782:	17f1                	addi	a5,a5,-4
    80002784:	02070713          	addi	a4,a4,32
    80002788:	fbd9                	bnez	a5,8000271e <main+0x5ca>
    8000278a:	0000c297          	auipc	t0,0xc
    8000278e:	f9e28293          	addi	t0,t0,-98 # 8000e728 <kernel>
    80002792:	3b9ad537          	lui	a0,0x3b9ad
    80002796:	a075031b          	addiw	t1,a0,-1529 # 3b9aca07 <buflen.1+0x3b9ac9c7>
    8000279a:	04000893          	li	a7,64
    8000279e:	02b68533          	mul	a0,a3,a1
    800027a2:	02c53433          	mulhu	s0,a0,a2
    800027a6:	8075                	srli	s0,s0,0x1d
    800027a8:	02640433          	mul	s0,s0,t1
    800027ac:	8d01                	sub	a0,a0,s0
    800027ae:	02b50433          	mul	s0,a0,a1
    800027b2:	02c43733          	mulhu	a4,s0,a2
    800027b6:	8375                	srli	a4,a4,0x1d
    800027b8:	02670733          	mul	a4,a4,t1
    800027bc:	40e40733          	sub	a4,s0,a4
    800027c0:	02b70433          	mul	s0,a4,a1
    800027c4:	02c434b3          	mulhu	s1,s0,a2
    800027c8:	80f5                	srli	s1,s1,0x1d
    800027ca:	026484b3          	mul	s1,s1,t1
    800027ce:	00b683b3          	add	t2,a3,a1
    800027d2:	409404b3          	sub	s1,s0,s1
    800027d6:	02b48433          	mul	s0,s1,a1
    800027da:	00f286b3          	add	a3,t0,a5
    800027de:	0076b023          	sd	t2,0(a3)
    800027e2:	952e                	add	a0,a0,a1
    800027e4:	02c433b3          	mulhu	t2,s0,a2
    800027e8:	e688                	sd	a0,8(a3)
    800027ea:	00b70533          	add	a0,a4,a1
    800027ee:	ea88                	sd	a0,16(a3)
    800027f0:	01d3d513          	srli	a0,t2,0x1d
    800027f4:	02650533          	mul	a0,a0,t1
    800027f8:	00b48733          	add	a4,s1,a1
    800027fc:	ee98                	sd	a4,24(a3)
    800027fe:	02078793          	addi	a5,a5,32
    80002802:	40a406b3          	sub	a3,s0,a0
    80002806:	f9179ce3          	bne	a5,a7,8000279e <main+0x64a>
    8000280a:	4d01                	li	s10,0
    8000280c:	00d83023          	sd	a3,0(a6)
    80002810:	b0002573          	csrr	a0,mcycle
    80002814:	e42a                	sd	a0,8(sp)
    80002816:	0002b083          	ld	ra,0(t0)
    8000281a:	0082b503          	ld	a0,8(t0)
    8000281e:	f4aa                	sd	a0,104(sp)
    80002820:	0102b503          	ld	a0,16(t0)
    80002824:	f0aa                	sd	a0,96(sp)
    80002826:	0182b503          	ld	a0,24(t0)
    8000282a:	ecaa                	sd	a0,88(sp)
    8000282c:	0202b503          	ld	a0,32(t0)
    80002830:	e8aa                	sd	a0,80(sp)
    80002832:	0282b503          	ld	a0,40(t0)
    80002836:	e4aa                	sd	a0,72(sp)
    80002838:	0302b503          	ld	a0,48(t0)
    8000283c:	e0aa                	sd	a0,64(sp)
    8000283e:	0382b503          	ld	a0,56(t0)
    80002842:	fc2a                	sd	a0,56(sp)
    80002844:	0d010c93          	addi	s9,sp,208
    80002848:	0a010a93          	addi	s5,sp,160
    8000284c:	0a810f93          	addi	t6,sp,168
    80002850:	07010293          	addi	t0,sp,112
    80002854:	4a21                	li	s4,8
    80002856:	5901                	li	s2,-32
    80002858:	5da1                	li	s11,-24
    8000285a:	59e1                	li	s3,-8
    8000285c:	fc000893          	li	a7,-64
    80002860:	ec72                	sd	t3,24(sp)
    80002862:	f406                	sd	ra,40(sp)
    80002864:	4501                	li	a0,0
    80002866:	00ad1593          	slli	a1,s10,0xa
    8000286a:	00be0eb3          	add	t4,t3,a1
    8000286e:	000eb583          	ld	a1,0(t4)
    80002872:	008ebf03          	ld	t5,8(t4)
    80002876:	010eb383          	ld	t2,16(t4)
    8000287a:	018ebe03          	ld	t3,24(t4)
    8000287e:	020ebc03          	ld	s8,32(t4)
    80002882:	028ebb03          	ld	s6,40(t4)
    80002886:	030eb303          	ld	t1,48(t4)
    8000288a:	038ebb83          	ld	s7,56(t4)
    8000288e:	f8ae                	sd	a1,112(sp)
    80002890:	fcfa                	sd	t5,120(sp)
    80002892:	e11e                	sd	t2,128(sp)
    80002894:	e572                	sd	t3,136(sp)
    80002896:	e962                	sd	s8,144(sp)
    80002898:	ed5a                	sd	s6,152(sp)
    8000289a:	f11a                	sd	t1,160(sp)
    8000289c:	f55e                	sd	s7,168(sp)
    8000289e:	f902                	sd	zero,176(sp)
    800028a0:	fd06                	sd	ra,184(sp)
    800028a2:	75a6                	ld	a1,104(sp)
    800028a4:	e1ae                	sd	a1,192(sp)
    800028a6:	7586                	ld	a1,96(sp)
    800028a8:	e5ae                	sd	a1,200(sp)
    800028aa:	65e6                	ld	a1,88(sp)
    800028ac:	e9ae                	sd	a1,208(sp)
    800028ae:	65c6                	ld	a1,80(sp)
    800028b0:	edae                	sd	a1,216(sp)
    800028b2:	65a6                	ld	a1,72(sp)
    800028b4:	f1ae                	sd	a1,224(sp)
    800028b6:	6586                	ld	a1,64(sp)
    800028b8:	f5ae                	sd	a1,232(sp)
    800028ba:	75e2                	ld	a1,56(sp)
    800028bc:	f9ae                	sd	a1,240(sp)
    800028be:	45c1                	li	a1,16
    800028c0:	05000813          	li	a6,80
    800028c4:	00b286b3          	add	a3,t0,a1
    800028c8:	ff06b783          	ld	a5,-16(a3)
    800028cc:	7e80                	ld	s0,56(a3)
    800028ce:	02f407b3          	mul	a5,s0,a5
    800028d2:	ff86b403          	ld	s0,-8(a3)
    800028d6:	62b8                	ld	a4,64(a3)
    800028d8:	6290                	ld	a2,0(a3)
    800028da:	66a4                	ld	s1,72(a3)
    800028dc:	02870733          	mul	a4,a4,s0
    800028e0:	02c48633          	mul	a2,s1,a2
    800028e4:	6684                	ld	s1,8(a3)
    800028e6:	6ab4                	ld	a3,80(a3)
    800028e8:	953e                	add	a0,a0,a5
    800028ea:	029686b3          	mul	a3,a3,s1
    800028ee:	953a                	add	a0,a0,a4
    800028f0:	9532                	add	a0,a0,a2
    800028f2:	02058593          	addi	a1,a1,32
    800028f6:	9536                	add	a0,a0,a3
    800028f8:	fd0596e3          	bne	a1,a6,800028c4 <main+0x770>
    800028fc:	f06a                	sd	s10,32(sp)
    800028fe:	3c800593          	li	a1,968
    80002902:	02bd05b3          	mul	a1,s10,a1
    80002906:	4681                	li	a3,0
    80002908:	4401                	li	s0,0
    8000290a:	0000c617          	auipc	a2,0xc
    8000290e:	e5e60613          	addi	a2,a2,-418 # 8000e768 <output>
    80002912:	e832                	sd	a2,16(sp)
    80002914:	95b2                	add	a1,a1,a2
    80002916:	040eb803          	ld	a6,64(t4)
    8000291a:	f82e                	sd	a1,48(sp)
    8000291c:	e188                	sd	a0,0(a1)
    8000291e:	f8c2                	sd	a6,112(sp)
    80002920:	fcfa                	sd	t5,120(sp)
    80002922:	e11e                	sd	t2,128(sp)
    80002924:	e572                	sd	t3,136(sp)
    80002926:	e962                	sd	s8,144(sp)
    80002928:	ed5a                	sd	s6,152(sp)
    8000292a:	f11a                	sd	t1,160(sp)
    8000292c:	f55e                	sd	s7,168(sp)
    8000292e:	4505                	li	a0,1
    80002930:	f92a                	sd	a0,176(sp)
    80002932:	fd06                	sd	ra,184(sp)
    80002934:	7526                	ld	a0,104(sp)
    80002936:	e1aa                	sd	a0,192(sp)
    80002938:	7506                	ld	a0,96(sp)
    8000293a:	e5aa                	sd	a0,200(sp)
    8000293c:	6566                	ld	a0,88(sp)
    8000293e:	e9aa                	sd	a0,208(sp)
    80002940:	6546                	ld	a0,80(sp)
    80002942:	edaa                	sd	a0,216(sp)
    80002944:	6526                	ld	a0,72(sp)
    80002946:	f1aa                	sd	a0,224(sp)
    80002948:	6506                	ld	a0,64(sp)
    8000294a:	f5aa                	sd	a0,232(sp)
    8000294c:	7562                	ld	a0,56(sp)
    8000294e:	f9aa                	sd	a0,240(sp)
    80002950:	1928                	addi	a0,sp,184
    80002952:	fc053583          	ld	a1,-64(a0)
    80002956:	6118                	ld	a4,0(a0)
    80002958:	fc853783          	ld	a5,-56(a0)
    8000295c:	6504                	ld	s1,8(a0)
    8000295e:	02b70f33          	mul	t5,a4,a1
    80002962:	02f48733          	mul	a4,s1,a5
    80002966:	fd053783          	ld	a5,-48(a0)
    8000296a:	6904                	ld	s1,16(a0)
    8000296c:	0046c613          	xori	a2,a3,4
    80002970:	060e                	slli	a2,a2,0x3
    80002972:	9616                	add	a2,a2,t0
    80002974:	6210                	ld	a2,0(a2)
    80002976:	6d0c                	ld	a1,24(a0)
    80002978:	02f487b3          	mul	a5,s1,a5
    8000297c:	02c585b3          	mul	a1,a1,a2
    80002980:	008f0633          	add	a2,t5,s0
    80002984:	963a                	add	a2,a2,a4
    80002986:	963e                	add	a2,a2,a5
    80002988:	00b60433          	add	s0,a2,a1
    8000298c:	0691                	addi	a3,a3,4
    8000298e:	02050513          	addi	a0,a0,32
    80002992:	fd4690e3          	bne	a3,s4,80002952 <main+0x7fe>
    80002996:	4501                	li	a0,0
    80002998:	4681                	li	a3,0
    8000299a:	75c2                	ld	a1,48(sp)
    8000299c:	e580                	sd	s0,8(a1)
    8000299e:	048ebf03          	ld	t5,72(t4)
    800029a2:	f8c2                	sd	a6,112(sp)
    800029a4:	fcfa                	sd	t5,120(sp)
    800029a6:	e11e                	sd	t2,128(sp)
    800029a8:	e572                	sd	t3,136(sp)
    800029aa:	e962                	sd	s8,144(sp)
    800029ac:	ed5a                	sd	s6,152(sp)
    800029ae:	f11a                	sd	t1,160(sp)
    800029b0:	f55e                	sd	s7,168(sp)
    800029b2:	4589                	li	a1,2
    800029b4:	f92e                	sd	a1,176(sp)
    800029b6:	fd06                	sd	ra,184(sp)
    800029b8:	75a6                	ld	a1,104(sp)
    800029ba:	e1ae                	sd	a1,192(sp)
    800029bc:	7586                	ld	a1,96(sp)
    800029be:	e5ae                	sd	a1,200(sp)
    800029c0:	65e6                	ld	a1,88(sp)
    800029c2:	e9ae                	sd	a1,208(sp)
    800029c4:	65c6                	ld	a1,80(sp)
    800029c6:	edae                	sd	a1,216(sp)
    800029c8:	65a6                	ld	a1,72(sp)
    800029ca:	f1ae                	sd	a1,224(sp)
    800029cc:	6586                	ld	a1,64(sp)
    800029ce:	f5ae                	sd	a1,232(sp)
    800029d0:	75e2                	ld	a1,56(sp)
    800029d2:	f9ae                	sd	a1,240(sp)
    800029d4:	85e6                	mv	a1,s9
    800029d6:	093c                	addi	a5,sp,152
    800029d8:	fb05b603          	ld	a2,-80(a1)
    800029dc:	fe85b703          	ld	a4,-24(a1)
    800029e0:	fb85b483          	ld	s1,-72(a1)
    800029e4:	ff05b403          	ld	s0,-16(a1)
    800029e8:	02c703b3          	mul	t2,a4,a2
    800029ec:	02940d33          	mul	s10,s0,s1
    800029f0:	00454493          	xori	s1,a0,4
    800029f4:	048e                	slli	s1,s1,0x3
    800029f6:	9496                	add	s1,s1,t0
    800029f8:	6084                	ld	s1,0(s1)
    800029fa:	ff85b403          	ld	s0,-8(a1)
    800029fe:	6390                	ld	a2,0(a5)
    80002a00:	6198                	ld	a4,0(a1)
    80002a02:	02940433          	mul	s0,s0,s1
    80002a06:	02c70633          	mul	a2,a4,a2
    80002a0a:	969e                	add	a3,a3,t2
    80002a0c:	96ea                	add	a3,a3,s10
    80002a0e:	96a2                	add	a3,a3,s0
    80002a10:	96b2                	add	a3,a3,a2
    80002a12:	0511                	addi	a0,a0,4
    80002a14:	1781                	addi	a5,a5,-32
    80002a16:	02058593          	addi	a1,a1,32
    80002a1a:	fb451fe3          	bne	a0,s4,800029d8 <main+0x884>
    80002a1e:	4501                	li	a0,0
    80002a20:	4d01                	li	s10,0
    80002a22:	75c2                	ld	a1,48(sp)
    80002a24:	e994                	sd	a3,16(a1)
    80002a26:	050eb383          	ld	t2,80(t4)
    80002a2a:	f8c2                	sd	a6,112(sp)
    80002a2c:	fcfa                	sd	t5,120(sp)
    80002a2e:	e11e                	sd	t2,128(sp)
    80002a30:	e572                	sd	t3,136(sp)
    80002a32:	e962                	sd	s8,144(sp)
    80002a34:	ed5a                	sd	s6,152(sp)
    80002a36:	f11a                	sd	t1,160(sp)
    80002a38:	f55e                	sd	s7,168(sp)
    80002a3a:	458d                	li	a1,3
    80002a3c:	f92e                	sd	a1,176(sp)
    80002a3e:	fd06                	sd	ra,184(sp)
    80002a40:	75a6                	ld	a1,104(sp)
    80002a42:	e1ae                	sd	a1,192(sp)
    80002a44:	7586                	ld	a1,96(sp)
    80002a46:	e5ae                	sd	a1,200(sp)
    80002a48:	65e6                	ld	a1,88(sp)
    80002a4a:	e9ae                	sd	a1,208(sp)
    80002a4c:	65c6                	ld	a1,80(sp)
    80002a4e:	edae                	sd	a1,216(sp)
    80002a50:	65a6                	ld	a1,72(sp)
    80002a52:	f1ae                	sd	a1,224(sp)
    80002a54:	6586                	ld	a1,64(sp)
    80002a56:	f5ae                	sd	a1,232(sp)
    80002a58:	75e2                	ld	a1,56(sp)
    80002a5a:	f9ae                	sd	a1,240(sp)
    80002a5c:	fc000593          	li	a1,-64
    80002a60:	86d6                	mv	a3,s5
    80002a62:	00ba8633          	add	a2,s5,a1
    80002a66:	7618                	ld	a4,40(a2)
    80002a68:	6e3c                	ld	a5,88(a2)
    80002a6a:	00454493          	xori	s1,a0,4
    80002a6e:	048e                	slli	s1,s1,0x3
    80002a70:	9496                	add	s1,s1,t0
    80002a72:	6084                	ld	s1,0(s1)
    80002a74:	7220                	ld	s0,96(a2)
    80002a76:	02e78e33          	mul	t3,a5,a4
    80002a7a:	029407b3          	mul	a5,s0,s1
    80002a7e:	ff86b483          	ld	s1,-8(a3)
    80002a82:	7620                	ld	s0,104(a2)
    80002a84:	6298                	ld	a4,0(a3)
    80002a86:	7a30                	ld	a2,112(a2)
    80002a88:	02940433          	mul	s0,s0,s1
    80002a8c:	02e60633          	mul	a2,a2,a4
    80002a90:	01ae0733          	add	a4,t3,s10
    80002a94:	973e                	add	a4,a4,a5
    80002a96:	9722                	add	a4,a4,s0
    80002a98:	00c70d33          	add	s10,a4,a2
    80002a9c:	0511                	addi	a0,a0,4
    80002a9e:	02058593          	addi	a1,a1,32
    80002aa2:	1681                	addi	a3,a3,-32
    80002aa4:	fddd                	bnez	a1,80002a62 <main+0x90e>
    80002aa6:	4081                	li	ra,0
    80002aa8:	7542                	ld	a0,48(sp)
    80002aaa:	01a53c23          	sd	s10,24(a0)
    80002aae:	058ebe03          	ld	t3,88(t4)
    80002ab2:	f8c2                	sd	a6,112(sp)
    80002ab4:	fcfa                	sd	t5,120(sp)
    80002ab6:	e11e                	sd	t2,128(sp)
    80002ab8:	e572                	sd	t3,136(sp)
    80002aba:	e962                	sd	s8,144(sp)
    80002abc:	ed5a                	sd	s6,152(sp)
    80002abe:	f11a                	sd	t1,160(sp)
    80002ac0:	f55e                	sd	s7,168(sp)
    80002ac2:	4511                	li	a0,4
    80002ac4:	f92a                	sd	a0,176(sp)
    80002ac6:	7522                	ld	a0,40(sp)
    80002ac8:	fd2a                	sd	a0,184(sp)
    80002aca:	7526                	ld	a0,104(sp)
    80002acc:	e1aa                	sd	a0,192(sp)
    80002ace:	7506                	ld	a0,96(sp)
    80002ad0:	e5aa                	sd	a0,200(sp)
    80002ad2:	6566                	ld	a0,88(sp)
    80002ad4:	e9aa                	sd	a0,208(sp)
    80002ad6:	6546                	ld	a0,80(sp)
    80002ad8:	edaa                	sd	a0,216(sp)
    80002ada:	6526                	ld	a0,72(sp)
    80002adc:	f1aa                	sd	a0,224(sp)
    80002ade:	6506                	ld	a0,64(sp)
    80002ae0:	f5aa                	sd	a0,232(sp)
    80002ae2:	7562                	ld	a0,56(sp)
    80002ae4:	f9aa                	sd	a0,240(sp)
    80002ae6:	02000513          	li	a0,32
    80002aea:	86e6                	mv	a3,s9
    80002aec:	00ac8633          	add	a2,s9,a0
    80002af0:	fa063703          	ld	a4,-96(a2)
    80002af4:	fe86b783          	ld	a5,-24(a3)
    80002af8:	fa863403          	ld	s0,-88(a2)
    80002afc:	ff06b483          	ld	s1,-16(a3)
    80002b00:	02e78733          	mul	a4,a5,a4
    80002b04:	028487b3          	mul	a5,s1,s0
    80002b08:	fb063403          	ld	s0,-80(a2)
    80002b0c:	ff86b483          	ld	s1,-8(a3)
    80002b10:	fb863603          	ld	a2,-72(a2)
    80002b14:	628c                	ld	a1,0(a3)
    80002b16:	02848433          	mul	s0,s1,s0
    80002b1a:	02c585b3          	mul	a1,a1,a2
    80002b1e:	00170633          	add	a2,a4,ra
    80002b22:	963e                	add	a2,a2,a5
    80002b24:	9622                	add	a2,a2,s0
    80002b26:	00b600b3          	add	ra,a2,a1
    80002b2a:	1501                	addi	a0,a0,-32
    80002b2c:	02068693          	addi	a3,a3,32
    80002b30:	fb251ee3          	bne	a0,s2,80002aec <main+0x998>
    80002b34:	4c01                	li	s8,0
    80002b36:	7542                	ld	a0,48(sp)
    80002b38:	02153023          	sd	ra,32(a0)
    80002b3c:	060ebd03          	ld	s10,96(t4)
    80002b40:	f8c2                	sd	a6,112(sp)
    80002b42:	fcfa                	sd	t5,120(sp)
    80002b44:	e11e                	sd	t2,128(sp)
    80002b46:	e572                	sd	t3,136(sp)
    80002b48:	e96a                	sd	s10,144(sp)
    80002b4a:	ed5a                	sd	s6,152(sp)
    80002b4c:	f11a                	sd	t1,160(sp)
    80002b4e:	f55e                	sd	s7,168(sp)
    80002b50:	4515                	li	a0,5
    80002b52:	f92a                	sd	a0,176(sp)
    80002b54:	70a2                	ld	ra,40(sp)
    80002b56:	fd06                	sd	ra,184(sp)
    80002b58:	7526                	ld	a0,104(sp)
    80002b5a:	e1aa                	sd	a0,192(sp)
    80002b5c:	7506                	ld	a0,96(sp)
    80002b5e:	e5aa                	sd	a0,200(sp)
    80002b60:	6566                	ld	a0,88(sp)
    80002b62:	e9aa                	sd	a0,208(sp)
    80002b64:	6546                	ld	a0,80(sp)
    80002b66:	edaa                	sd	a0,216(sp)
    80002b68:	6526                	ld	a0,72(sp)
    80002b6a:	f1aa                	sd	a0,224(sp)
    80002b6c:	6506                	ld	a0,64(sp)
    80002b6e:	f5aa                	sd	a0,232(sp)
    80002b70:	7562                	ld	a0,56(sp)
    80002b72:	f9aa                	sd	a0,240(sp)
    80002b74:	02800593          	li	a1,40
    80002b78:	06000693          	li	a3,96
    80002b7c:	00b28633          	add	a2,t0,a1
    80002b80:	6218                	ld	a4,0(a2)
    80002b82:	00d287b3          	add	a5,t0,a3
    80002b86:	fe87b403          	ld	s0,-24(a5)
    80002b8a:	6604                	ld	s1,8(a2)
    80002b8c:	ff07b503          	ld	a0,-16(a5)
    80002b90:	02e40733          	mul	a4,s0,a4
    80002b94:	02950533          	mul	a0,a0,s1
    80002b98:	6a10                	ld	a2,16(a2)
    80002b9a:	ff87b403          	ld	s0,-8(a5)
    80002b9e:	fa07b483          	ld	s1,-96(a5)
    80002ba2:	639c                	ld	a5,0(a5)
    80002ba4:	02c40633          	mul	a2,s0,a2
    80002ba8:	029787b3          	mul	a5,a5,s1
    80002bac:	9762                	add	a4,a4,s8
    80002bae:	953a                	add	a0,a0,a4
    80002bb0:	9532                	add	a0,a0,a2
    80002bb2:	00f50c33          	add	s8,a0,a5
    80002bb6:	1581                	addi	a1,a1,-32
    80002bb8:	02068693          	addi	a3,a3,32
    80002bbc:	fdb590e3          	bne	a1,s11,80002b7c <main+0xa28>
    80002bc0:	4b01                	li	s6,0
    80002bc2:	7542                	ld	a0,48(sp)
    80002bc4:	03853423          	sd	s8,40(a0)
    80002bc8:	068ebc03          	ld	s8,104(t4)
    80002bcc:	f8c2                	sd	a6,112(sp)
    80002bce:	fcfa                	sd	t5,120(sp)
    80002bd0:	e11e                	sd	t2,128(sp)
    80002bd2:	e572                	sd	t3,136(sp)
    80002bd4:	e96a                	sd	s10,144(sp)
    80002bd6:	ed62                	sd	s8,152(sp)
    80002bd8:	f11a                	sd	t1,160(sp)
    80002bda:	f55e                	sd	s7,168(sp)
    80002bdc:	4519                	li	a0,6
    80002bde:	f92a                	sd	a0,176(sp)
    80002be0:	fd06                	sd	ra,184(sp)
    80002be2:	7526                	ld	a0,104(sp)
    80002be4:	e1aa                	sd	a0,192(sp)
    80002be6:	7506                	ld	a0,96(sp)
    80002be8:	e5aa                	sd	a0,200(sp)
    80002bea:	6566                	ld	a0,88(sp)
    80002bec:	e9aa                	sd	a0,208(sp)
    80002bee:	6546                	ld	a0,80(sp)
    80002bf0:	edaa                	sd	a0,216(sp)
    80002bf2:	6526                	ld	a0,72(sp)
    80002bf4:	f1aa                	sd	a0,224(sp)
    80002bf6:	6506                	ld	a0,64(sp)
    80002bf8:	f5aa                	sd	a0,232(sp)
    80002bfa:	7562                	ld	a0,56(sp)
    80002bfc:	f9aa                	sd	a0,240(sp)
    80002bfe:	fc000513          	li	a0,-64
    80002c02:	86fe                	mv	a3,t6
    80002c04:	ff86b603          	ld	a2,-8(a3)
    80002c08:	00aa8733          	add	a4,s5,a0
    80002c0c:	6f3c                	ld	a5,88(a4)
    80002c0e:	6284                	ld	s1,0(a3)
    80002c10:	7320                	ld	s0,96(a4)
    80002c12:	02c78633          	mul	a2,a5,a2
    80002c16:	029407b3          	mul	a5,s0,s1
    80002c1a:	6b04                	ld	s1,16(a4)
    80002c1c:	7720                	ld	s0,104(a4)
    80002c1e:	6f0c                	ld	a1,24(a4)
    80002c20:	7b38                	ld	a4,112(a4)
    80002c22:	029404b3          	mul	s1,s0,s1
    80002c26:	02b705b3          	mul	a1,a4,a1
    80002c2a:	965a                	add	a2,a2,s6
    80002c2c:	963e                	add	a2,a2,a5
    80002c2e:	9626                	add	a2,a2,s1
    80002c30:	00b60b33          	add	s6,a2,a1
    80002c34:	02050513          	addi	a0,a0,32
    80002c38:	1681                	addi	a3,a3,-32
    80002c3a:	f569                	bnez	a0,80002c04 <main+0xab0>
    80002c3c:	4301                	li	t1,0
    80002c3e:	7542                	ld	a0,48(sp)
    80002c40:	03653823          	sd	s6,48(a0)
    80002c44:	070ebb03          	ld	s6,112(t4)
    80002c48:	f8c2                	sd	a6,112(sp)
    80002c4a:	fcfa                	sd	t5,120(sp)
    80002c4c:	e11e                	sd	t2,128(sp)
    80002c4e:	e572                	sd	t3,136(sp)
    80002c50:	e96a                	sd	s10,144(sp)
    80002c52:	ed62                	sd	s8,152(sp)
    80002c54:	f15a                	sd	s6,160(sp)
    80002c56:	f55e                	sd	s7,168(sp)
    80002c58:	451d                	li	a0,7
    80002c5a:	f92a                	sd	a0,176(sp)
    80002c5c:	fd06                	sd	ra,184(sp)
    80002c5e:	7526                	ld	a0,104(sp)
    80002c60:	e1aa                	sd	a0,192(sp)
    80002c62:	7506                	ld	a0,96(sp)
    80002c64:	e5aa                	sd	a0,200(sp)
    80002c66:	6566                	ld	a0,88(sp)
    80002c68:	e9aa                	sd	a0,208(sp)
    80002c6a:	6546                	ld	a0,80(sp)
    80002c6c:	edaa                	sd	a0,216(sp)
    80002c6e:	6526                	ld	a0,72(sp)
    80002c70:	f1aa                	sd	a0,224(sp)
    80002c72:	6506                	ld	a0,64(sp)
    80002c74:	f5aa                	sd	a0,232(sp)
    80002c76:	7562                	ld	a0,56(sp)
    80002c78:	f9aa                	sd	a0,240(sp)
    80002c7a:	03800593          	li	a1,56
    80002c7e:	06000693          	li	a3,96
    80002c82:	00b28633          	add	a2,t0,a1
    80002c86:	6210                	ld	a2,0(a2)
    80002c88:	00d28733          	add	a4,t0,a3
    80002c8c:	fe873783          	ld	a5,-24(a4)
    80002c90:	fa073483          	ld	s1,-96(a4)
    80002c94:	ff073403          	ld	s0,-16(a4)
    80002c98:	02c78633          	mul	a2,a5,a2
    80002c9c:	029407b3          	mul	a5,s0,s1
    80002ca0:	fa873483          	ld	s1,-88(a4)
    80002ca4:	ff873403          	ld	s0,-8(a4)
    80002ca8:	fb073503          	ld	a0,-80(a4)
    80002cac:	6318                	ld	a4,0(a4)
    80002cae:	02940433          	mul	s0,s0,s1
    80002cb2:	02a70533          	mul	a0,a4,a0
    80002cb6:	961a                	add	a2,a2,t1
    80002cb8:	963e                	add	a2,a2,a5
    80002cba:	9622                	add	a2,a2,s0
    80002cbc:	00a60333          	add	t1,a2,a0
    80002cc0:	1581                	addi	a1,a1,-32
    80002cc2:	02068693          	addi	a3,a3,32
    80002cc6:	fb359ee3          	bne	a1,s3,80002c82 <main+0xb2e>
    80002cca:	4581                	li	a1,0
    80002ccc:	7542                	ld	a0,48(sp)
    80002cce:	02653c23          	sd	t1,56(a0)
    80002cd2:	078ebb83          	ld	s7,120(t4)
    80002cd6:	f8c2                	sd	a6,112(sp)
    80002cd8:	fcfa                	sd	t5,120(sp)
    80002cda:	e11e                	sd	t2,128(sp)
    80002cdc:	e572                	sd	t3,136(sp)
    80002cde:	e96a                	sd	s10,144(sp)
    80002ce0:	ed62                	sd	s8,152(sp)
    80002ce2:	f15a                	sd	s6,160(sp)
    80002ce4:	f55e                	sd	s7,168(sp)
    80002ce6:	f902                	sd	zero,176(sp)
    80002ce8:	fd06                	sd	ra,184(sp)
    80002cea:	7526                	ld	a0,104(sp)
    80002cec:	e1aa                	sd	a0,192(sp)
    80002cee:	7506                	ld	a0,96(sp)
    80002cf0:	e5aa                	sd	a0,200(sp)
    80002cf2:	6566                	ld	a0,88(sp)
    80002cf4:	e9aa                	sd	a0,208(sp)
    80002cf6:	6546                	ld	a0,80(sp)
    80002cf8:	edaa                	sd	a0,216(sp)
    80002cfa:	6526                	ld	a0,72(sp)
    80002cfc:	f1aa                	sd	a0,224(sp)
    80002cfe:	6506                	ld	a0,64(sp)
    80002d00:	f5aa                	sd	a0,232(sp)
    80002d02:	7562                	ld	a0,56(sp)
    80002d04:	f9aa                	sd	a0,240(sp)
    80002d06:	4541                	li	a0,16
    80002d08:	05000813          	li	a6,80
    80002d0c:	00a28633          	add	a2,t0,a0
    80002d10:	ff063683          	ld	a3,-16(a2)
    80002d14:	7e18                	ld	a4,56(a2)
    80002d16:	02d706b3          	mul	a3,a4,a3
    80002d1a:	ff863703          	ld	a4,-8(a2)
    80002d1e:	623c                	ld	a5,64(a2)
    80002d20:	6204                	ld	s1,0(a2)
    80002d22:	6620                	ld	s0,72(a2)
    80002d24:	02e78733          	mul	a4,a5,a4
    80002d28:	029407b3          	mul	a5,s0,s1
    80002d2c:	6604                	ld	s1,8(a2)
    80002d2e:	6a30                	ld	a2,80(a2)
    80002d30:	95b6                	add	a1,a1,a3
    80002d32:	02960633          	mul	a2,a2,s1
    80002d36:	95ba                	add	a1,a1,a4
    80002d38:	95be                	add	a1,a1,a5
    80002d3a:	02050513          	addi	a0,a0,32
    80002d3e:	95b2                	add	a1,a1,a2
    80002d40:	fd0516e3          	bne	a0,a6,80002d0c <main+0xbb8>
    80002d44:	4501                	li	a0,0
    80002d46:	4681                	li	a3,0
    80002d48:	080eb083          	ld	ra,128(t4)
    80002d4c:	7642                	ld	a2,48(sp)
    80002d4e:	e22c                	sd	a1,64(a2)
    80002d50:	f886                	sd	ra,112(sp)
    80002d52:	fcfa                	sd	t5,120(sp)
    80002d54:	e11e                	sd	t2,128(sp)
    80002d56:	e572                	sd	t3,136(sp)
    80002d58:	e96a                	sd	s10,144(sp)
    80002d5a:	ed62                	sd	s8,152(sp)
    80002d5c:	f15a                	sd	s6,160(sp)
    80002d5e:	f55e                	sd	s7,168(sp)
    80002d60:	4585                	li	a1,1
    80002d62:	f92e                	sd	a1,176(sp)
    80002d64:	75a2                	ld	a1,40(sp)
    80002d66:	fd2e                	sd	a1,184(sp)
    80002d68:	75a6                	ld	a1,104(sp)
    80002d6a:	e1ae                	sd	a1,192(sp)
    80002d6c:	7586                	ld	a1,96(sp)
    80002d6e:	e5ae                	sd	a1,200(sp)
    80002d70:	65e6                	ld	a1,88(sp)
    80002d72:	e9ae                	sd	a1,208(sp)
    80002d74:	65c6                	ld	a1,80(sp)
    80002d76:	edae                	sd	a1,216(sp)
    80002d78:	65a6                	ld	a1,72(sp)
    80002d7a:	f1ae                	sd	a1,224(sp)
    80002d7c:	6586                	ld	a1,64(sp)
    80002d7e:	f5ae                	sd	a1,232(sp)
    80002d80:	75e2                	ld	a1,56(sp)
    80002d82:	f9ae                	sd	a1,240(sp)
    80002d84:	192c                	addi	a1,sp,184
    80002d86:	fc05b603          	ld	a2,-64(a1)
    80002d8a:	6198                	ld	a4,0(a1)
    80002d8c:	fc85b783          	ld	a5,-56(a1)
    80002d90:	6584                	ld	s1,8(a1)
    80002d92:	02c70833          	mul	a6,a4,a2
    80002d96:	02f48733          	mul	a4,s1,a5
    80002d9a:	fd05b783          	ld	a5,-48(a1)
    80002d9e:	6984                	ld	s1,16(a1)
    80002da0:	00454413          	xori	s0,a0,4
    80002da4:	040e                	slli	s0,s0,0x3
    80002da6:	9416                	add	s0,s0,t0
    80002da8:	6000                	ld	s0,0(s0)
    80002daa:	6d90                	ld	a2,24(a1)
    80002dac:	02f487b3          	mul	a5,s1,a5
    80002db0:	02860633          	mul	a2,a2,s0
    80002db4:	96c2                	add	a3,a3,a6
    80002db6:	96ba                	add	a3,a3,a4
    80002db8:	96be                	add	a3,a3,a5
    80002dba:	96b2                	add	a3,a3,a2
    80002dbc:	0511                	addi	a0,a0,4
    80002dbe:	02058593          	addi	a1,a1,32
    80002dc2:	fd4512e3          	bne	a0,s4,80002d86 <main+0xc32>
    80002dc6:	4501                	li	a0,0
    80002dc8:	4401                	li	s0,0
    80002dca:	75c2                	ld	a1,48(sp)
    80002dcc:	e5b4                	sd	a3,72(a1)
    80002dce:	088eb303          	ld	t1,136(t4)
    80002dd2:	f886                	sd	ra,112(sp)
    80002dd4:	fc9a                	sd	t1,120(sp)
    80002dd6:	e11e                	sd	t2,128(sp)
    80002dd8:	e572                	sd	t3,136(sp)
    80002dda:	e96a                	sd	s10,144(sp)
    80002ddc:	ed62                	sd	s8,152(sp)
    80002dde:	f15a                	sd	s6,160(sp)
    80002de0:	f55e                	sd	s7,168(sp)
    80002de2:	4589                	li	a1,2
    80002de4:	f92e                	sd	a1,176(sp)
    80002de6:	75a2                	ld	a1,40(sp)
    80002de8:	fd2e                	sd	a1,184(sp)
    80002dea:	75a6                	ld	a1,104(sp)
    80002dec:	e1ae                	sd	a1,192(sp)
    80002dee:	7586                	ld	a1,96(sp)
    80002df0:	e5ae                	sd	a1,200(sp)
    80002df2:	65e6                	ld	a1,88(sp)
    80002df4:	e9ae                	sd	a1,208(sp)
    80002df6:	65c6                	ld	a1,80(sp)
    80002df8:	edae                	sd	a1,216(sp)
    80002dfa:	65a6                	ld	a1,72(sp)
    80002dfc:	f1ae                	sd	a1,224(sp)
    80002dfe:	6586                	ld	a1,64(sp)
    80002e00:	f5ae                	sd	a1,232(sp)
    80002e02:	75e2                	ld	a1,56(sp)
    80002e04:	f9ae                	sd	a1,240(sp)
    80002e06:	85e6                	mv	a1,s9
    80002e08:	0934                	addi	a3,sp,152
    80002e0a:	fb05b603          	ld	a2,-80(a1)
    80002e0e:	fe85b703          	ld	a4,-24(a1)
    80002e12:	fb85b783          	ld	a5,-72(a1)
    80002e16:	ff05b483          	ld	s1,-16(a1)
    80002e1a:	02c70833          	mul	a6,a4,a2
    80002e1e:	02f483b3          	mul	t2,s1,a5
    80002e22:	00454793          	xori	a5,a0,4
    80002e26:	078e                	slli	a5,a5,0x3
    80002e28:	9796                	add	a5,a5,t0
    80002e2a:	639c                	ld	a5,0(a5)
    80002e2c:	ff85b483          	ld	s1,-8(a1)
    80002e30:	6290                	ld	a2,0(a3)
    80002e32:	6198                	ld	a4,0(a1)
    80002e34:	02f487b3          	mul	a5,s1,a5
    80002e38:	02c70633          	mul	a2,a4,a2
    80002e3c:	00880733          	add	a4,a6,s0
    80002e40:	971e                	add	a4,a4,t2
    80002e42:	973e                	add	a4,a4,a5
    80002e44:	00c70433          	add	s0,a4,a2
    80002e48:	0511                	addi	a0,a0,4
    80002e4a:	1681                	addi	a3,a3,-32
    80002e4c:	02058593          	addi	a1,a1,32
    80002e50:	fb451de3          	bne	a0,s4,80002e0a <main+0xcb6>
    80002e54:	4681                	li	a3,0
    80002e56:	4801                	li	a6,0
    80002e58:	7542                	ld	a0,48(sp)
    80002e5a:	e920                	sd	s0,80(a0)
    80002e5c:	090ebf03          	ld	t5,144(t4)
    80002e60:	f886                	sd	ra,112(sp)
    80002e62:	fc9a                	sd	t1,120(sp)
    80002e64:	e17a                	sd	t5,128(sp)
    80002e66:	e572                	sd	t3,136(sp)
    80002e68:	e96a                	sd	s10,144(sp)
    80002e6a:	ed62                	sd	s8,152(sp)
    80002e6c:	f15a                	sd	s6,160(sp)
    80002e6e:	f55e                	sd	s7,168(sp)
    80002e70:	450d                	li	a0,3
    80002e72:	f92a                	sd	a0,176(sp)
    80002e74:	7522                	ld	a0,40(sp)
    80002e76:	fd2a                	sd	a0,184(sp)
    80002e78:	7526                	ld	a0,104(sp)
    80002e7a:	e1aa                	sd	a0,192(sp)
    80002e7c:	7506                	ld	a0,96(sp)
    80002e7e:	e5aa                	sd	a0,200(sp)
    80002e80:	6566                	ld	a0,88(sp)
    80002e82:	e9aa                	sd	a0,208(sp)
    80002e84:	6546                	ld	a0,80(sp)
    80002e86:	edaa                	sd	a0,216(sp)
    80002e88:	6526                	ld	a0,72(sp)
    80002e8a:	f1aa                	sd	a0,224(sp)
    80002e8c:	6506                	ld	a0,64(sp)
    80002e8e:	f5aa                	sd	a0,232(sp)
    80002e90:	7562                	ld	a0,56(sp)
    80002e92:	f9aa                	sd	a0,240(sp)
    80002e94:	fc000593          	li	a1,-64
    80002e98:	8456                	mv	s0,s5
    80002e9a:	00ba8633          	add	a2,s5,a1
    80002e9e:	7618                	ld	a4,40(a2)
    80002ea0:	6e3c                	ld	a5,88(a2)
    80002ea2:	0046c493          	xori	s1,a3,4
    80002ea6:	048e                	slli	s1,s1,0x3
    80002ea8:	9496                	add	s1,s1,t0
    80002eaa:	6084                	ld	s1,0(s1)
    80002eac:	7228                	ld	a0,96(a2)
    80002eae:	02e78733          	mul	a4,a5,a4
    80002eb2:	029503b3          	mul	t2,a0,s1
    80002eb6:	ff843783          	ld	a5,-8(s0)
    80002eba:	7624                	ld	s1,104(a2)
    80002ebc:	6008                	ld	a0,0(s0)
    80002ebe:	7a30                	ld	a2,112(a2)
    80002ec0:	02f487b3          	mul	a5,s1,a5
    80002ec4:	02a60533          	mul	a0,a2,a0
    80002ec8:	01070633          	add	a2,a4,a6
    80002ecc:	961e                	add	a2,a2,t2
    80002ece:	963e                	add	a2,a2,a5
    80002ed0:	00a60833          	add	a6,a2,a0
    80002ed4:	0691                	addi	a3,a3,4
    80002ed6:	02058593          	addi	a1,a1,32
    80002eda:	1401                	addi	s0,s0,-32
    80002edc:	fddd                	bnez	a1,80002e9a <main+0xd46>
    80002ede:	4e01                	li	t3,0
    80002ee0:	7542                	ld	a0,48(sp)
    80002ee2:	05053c23          	sd	a6,88(a0)
    80002ee6:	098eb383          	ld	t2,152(t4)
    80002eea:	f886                	sd	ra,112(sp)
    80002eec:	fc9a                	sd	t1,120(sp)
    80002eee:	e17a                	sd	t5,128(sp)
    80002ef0:	e51e                	sd	t2,136(sp)
    80002ef2:	e96a                	sd	s10,144(sp)
    80002ef4:	ed62                	sd	s8,152(sp)
    80002ef6:	f15a                	sd	s6,160(sp)
    80002ef8:	f55e                	sd	s7,168(sp)
    80002efa:	4511                	li	a0,4
    80002efc:	f92a                	sd	a0,176(sp)
    80002efe:	7522                	ld	a0,40(sp)
    80002f00:	fd2a                	sd	a0,184(sp)
    80002f02:	7526                	ld	a0,104(sp)
    80002f04:	e1aa                	sd	a0,192(sp)
    80002f06:	7506                	ld	a0,96(sp)
    80002f08:	e5aa                	sd	a0,200(sp)
    80002f0a:	6566                	ld	a0,88(sp)
    80002f0c:	e9aa                	sd	a0,208(sp)
    80002f0e:	6546                	ld	a0,80(sp)
    80002f10:	edaa                	sd	a0,216(sp)
    80002f12:	6526                	ld	a0,72(sp)
    80002f14:	f1aa                	sd	a0,224(sp)
    80002f16:	6506                	ld	a0,64(sp)
    80002f18:	f5aa                	sd	a0,232(sp)
    80002f1a:	7562                	ld	a0,56(sp)
    80002f1c:	f9aa                	sd	a0,240(sp)
    80002f1e:	02000513          	li	a0,32
    80002f22:	86e6                	mv	a3,s9
    80002f24:	00ac8633          	add	a2,s9,a0
    80002f28:	fa063703          	ld	a4,-96(a2)
    80002f2c:	fe86b783          	ld	a5,-24(a3)
    80002f30:	fa863483          	ld	s1,-88(a2)
    80002f34:	ff06b403          	ld	s0,-16(a3)
    80002f38:	02e78733          	mul	a4,a5,a4
    80002f3c:	029407b3          	mul	a5,s0,s1
    80002f40:	fb063483          	ld	s1,-80(a2)
    80002f44:	ff86b403          	ld	s0,-8(a3)
    80002f48:	fb863603          	ld	a2,-72(a2)
    80002f4c:	628c                	ld	a1,0(a3)
    80002f4e:	029404b3          	mul	s1,s0,s1
    80002f52:	02c585b3          	mul	a1,a1,a2
    80002f56:	01c70633          	add	a2,a4,t3
    80002f5a:	963e                	add	a2,a2,a5
    80002f5c:	9626                	add	a2,a2,s1
    80002f5e:	00b60e33          	add	t3,a2,a1
    80002f62:	1501                	addi	a0,a0,-32
    80002f64:	02068693          	addi	a3,a3,32
    80002f68:	fb251ee3          	bne	a0,s2,80002f24 <main+0xdd0>
    80002f6c:	4801                	li	a6,0
    80002f6e:	7542                	ld	a0,48(sp)
    80002f70:	07c53023          	sd	t3,96(a0)
    80002f74:	0a0ebd03          	ld	s10,160(t4)
    80002f78:	f886                	sd	ra,112(sp)
    80002f7a:	fc9a                	sd	t1,120(sp)
    80002f7c:	e17a                	sd	t5,128(sp)
    80002f7e:	e51e                	sd	t2,136(sp)
    80002f80:	e96a                	sd	s10,144(sp)
    80002f82:	ed62                	sd	s8,152(sp)
    80002f84:	f15a                	sd	s6,160(sp)
    80002f86:	f55e                	sd	s7,168(sp)
    80002f88:	4515                	li	a0,5
    80002f8a:	f92a                	sd	a0,176(sp)
    80002f8c:	7522                	ld	a0,40(sp)
    80002f8e:	fd2a                	sd	a0,184(sp)
    80002f90:	7526                	ld	a0,104(sp)
    80002f92:	e1aa                	sd	a0,192(sp)
    80002f94:	7506                	ld	a0,96(sp)
    80002f96:	e5aa                	sd	a0,200(sp)
    80002f98:	6566                	ld	a0,88(sp)
    80002f9a:	e9aa                	sd	a0,208(sp)
    80002f9c:	6546                	ld	a0,80(sp)
    80002f9e:	edaa                	sd	a0,216(sp)
    80002fa0:	6526                	ld	a0,72(sp)
    80002fa2:	f1aa                	sd	a0,224(sp)
    80002fa4:	6506                	ld	a0,64(sp)
    80002fa6:	f5aa                	sd	a0,232(sp)
    80002fa8:	7562                	ld	a0,56(sp)
    80002faa:	f9aa                	sd	a0,240(sp)
    80002fac:	02800593          	li	a1,40
    80002fb0:	06000693          	li	a3,96
    80002fb4:	00b28633          	add	a2,t0,a1
    80002fb8:	6218                	ld	a4,0(a2)
    80002fba:	00d287b3          	add	a5,t0,a3
    80002fbe:	fe87b483          	ld	s1,-24(a5)
    80002fc2:	6600                	ld	s0,8(a2)
    80002fc4:	ff07b503          	ld	a0,-16(a5)
    80002fc8:	02e48733          	mul	a4,s1,a4
    80002fcc:	02850533          	mul	a0,a0,s0
    80002fd0:	6a10                	ld	a2,16(a2)
    80002fd2:	ff87b483          	ld	s1,-8(a5)
    80002fd6:	fa07b403          	ld	s0,-96(a5)
    80002fda:	639c                	ld	a5,0(a5)
    80002fdc:	02c48633          	mul	a2,s1,a2
    80002fe0:	028787b3          	mul	a5,a5,s0
    80002fe4:	9742                	add	a4,a4,a6
    80002fe6:	953a                	add	a0,a0,a4
    80002fe8:	9532                	add	a0,a0,a2
    80002fea:	00f50833          	add	a6,a0,a5
    80002fee:	1581                	addi	a1,a1,-32
    80002ff0:	02068693          	addi	a3,a3,32
    80002ff4:	fdb590e3          	bne	a1,s11,80002fb4 <main+0xe60>
    80002ff8:	4e01                	li	t3,0
    80002ffa:	7542                	ld	a0,48(sp)
    80002ffc:	07053423          	sd	a6,104(a0)
    80003000:	0a8eb803          	ld	a6,168(t4)
    80003004:	f886                	sd	ra,112(sp)
    80003006:	fc9a                	sd	t1,120(sp)
    80003008:	e17a                	sd	t5,128(sp)
    8000300a:	e51e                	sd	t2,136(sp)
    8000300c:	e96a                	sd	s10,144(sp)
    8000300e:	ed42                	sd	a6,152(sp)
    80003010:	f15a                	sd	s6,160(sp)
    80003012:	f55e                	sd	s7,168(sp)
    80003014:	4519                	li	a0,6
    80003016:	f92a                	sd	a0,176(sp)
    80003018:	7522                	ld	a0,40(sp)
    8000301a:	fd2a                	sd	a0,184(sp)
    8000301c:	7526                	ld	a0,104(sp)
    8000301e:	e1aa                	sd	a0,192(sp)
    80003020:	7506                	ld	a0,96(sp)
    80003022:	e5aa                	sd	a0,200(sp)
    80003024:	6566                	ld	a0,88(sp)
    80003026:	e9aa                	sd	a0,208(sp)
    80003028:	6546                	ld	a0,80(sp)
    8000302a:	edaa                	sd	a0,216(sp)
    8000302c:	6526                	ld	a0,72(sp)
    8000302e:	f1aa                	sd	a0,224(sp)
    80003030:	6506                	ld	a0,64(sp)
    80003032:	f5aa                	sd	a0,232(sp)
    80003034:	7562                	ld	a0,56(sp)
    80003036:	f9aa                	sd	a0,240(sp)
    80003038:	fc000513          	li	a0,-64
    8000303c:	86fe                	mv	a3,t6
    8000303e:	ff86b603          	ld	a2,-8(a3)
    80003042:	00aa8733          	add	a4,s5,a0
    80003046:	6f3c                	ld	a5,88(a4)
    80003048:	6284                	ld	s1,0(a3)
    8000304a:	7320                	ld	s0,96(a4)
    8000304c:	02c78633          	mul	a2,a5,a2
    80003050:	029407b3          	mul	a5,s0,s1
    80003054:	6b04                	ld	s1,16(a4)
    80003056:	7720                	ld	s0,104(a4)
    80003058:	6f0c                	ld	a1,24(a4)
    8000305a:	7b38                	ld	a4,112(a4)
    8000305c:	02940433          	mul	s0,s0,s1
    80003060:	02b705b3          	mul	a1,a4,a1
    80003064:	9672                	add	a2,a2,t3
    80003066:	963e                	add	a2,a2,a5
    80003068:	9622                	add	a2,a2,s0
    8000306a:	00b60e33          	add	t3,a2,a1
    8000306e:	02050513          	addi	a0,a0,32
    80003072:	1681                	addi	a3,a3,-32
    80003074:	f569                	bnez	a0,8000303e <main+0xeea>
    80003076:	4c01                	li	s8,0
    80003078:	7542                	ld	a0,48(sp)
    8000307a:	07c53823          	sd	t3,112(a0)
    8000307e:	0b0ebb03          	ld	s6,176(t4)
    80003082:	f886                	sd	ra,112(sp)
    80003084:	fc9a                	sd	t1,120(sp)
    80003086:	e17a                	sd	t5,128(sp)
    80003088:	e51e                	sd	t2,136(sp)
    8000308a:	e96a                	sd	s10,144(sp)
    8000308c:	ed42                	sd	a6,152(sp)
    8000308e:	f15a                	sd	s6,160(sp)
    80003090:	f55e                	sd	s7,168(sp)
    80003092:	451d                	li	a0,7
    80003094:	f92a                	sd	a0,176(sp)
    80003096:	7522                	ld	a0,40(sp)
    80003098:	fd2a                	sd	a0,184(sp)
    8000309a:	7526                	ld	a0,104(sp)
    8000309c:	e1aa                	sd	a0,192(sp)
    8000309e:	7506                	ld	a0,96(sp)
    800030a0:	e5aa                	sd	a0,200(sp)
    800030a2:	6566                	ld	a0,88(sp)
    800030a4:	e9aa                	sd	a0,208(sp)
    800030a6:	6546                	ld	a0,80(sp)
    800030a8:	edaa                	sd	a0,216(sp)
    800030aa:	6526                	ld	a0,72(sp)
    800030ac:	f1aa                	sd	a0,224(sp)
    800030ae:	6506                	ld	a0,64(sp)
    800030b0:	f5aa                	sd	a0,232(sp)
    800030b2:	7562                	ld	a0,56(sp)
    800030b4:	f9aa                	sd	a0,240(sp)
    800030b6:	03800593          	li	a1,56
    800030ba:	06000693          	li	a3,96
    800030be:	00b28633          	add	a2,t0,a1
    800030c2:	6210                	ld	a2,0(a2)
    800030c4:	00d28733          	add	a4,t0,a3
    800030c8:	fe873783          	ld	a5,-24(a4)
    800030cc:	fa073483          	ld	s1,-96(a4)
    800030d0:	ff073403          	ld	s0,-16(a4)
    800030d4:	02c78633          	mul	a2,a5,a2
    800030d8:	029407b3          	mul	a5,s0,s1
    800030dc:	fa873483          	ld	s1,-88(a4)
    800030e0:	ff873403          	ld	s0,-8(a4)
    800030e4:	fb073503          	ld	a0,-80(a4)
    800030e8:	6318                	ld	a4,0(a4)
    800030ea:	029404b3          	mul	s1,s0,s1
    800030ee:	02a70533          	mul	a0,a4,a0
    800030f2:	9662                	add	a2,a2,s8
    800030f4:	963e                	add	a2,a2,a5
    800030f6:	9626                	add	a2,a2,s1
    800030f8:	00a60c33          	add	s8,a2,a0
    800030fc:	1581                	addi	a1,a1,-32
    800030fe:	02068693          	addi	a3,a3,32
    80003102:	fb359ee3          	bne	a1,s3,800030be <main+0xf6a>
    80003106:	4581                	li	a1,0
    80003108:	7542                	ld	a0,48(sp)
    8000310a:	07853c23          	sd	s8,120(a0)
    8000310e:	0b8ebb83          	ld	s7,184(t4)
    80003112:	f886                	sd	ra,112(sp)
    80003114:	fc9a                	sd	t1,120(sp)
    80003116:	e17a                	sd	t5,128(sp)
    80003118:	e51e                	sd	t2,136(sp)
    8000311a:	e96a                	sd	s10,144(sp)
    8000311c:	ed42                	sd	a6,152(sp)
    8000311e:	f15a                	sd	s6,160(sp)
    80003120:	f55e                	sd	s7,168(sp)
    80003122:	f902                	sd	zero,176(sp)
    80003124:	70a2                	ld	ra,40(sp)
    80003126:	fd06                	sd	ra,184(sp)
    80003128:	7526                	ld	a0,104(sp)
    8000312a:	e1aa                	sd	a0,192(sp)
    8000312c:	7506                	ld	a0,96(sp)
    8000312e:	e5aa                	sd	a0,200(sp)
    80003130:	6566                	ld	a0,88(sp)
    80003132:	e9aa                	sd	a0,208(sp)
    80003134:	6546                	ld	a0,80(sp)
    80003136:	edaa                	sd	a0,216(sp)
    80003138:	6526                	ld	a0,72(sp)
    8000313a:	f1aa                	sd	a0,224(sp)
    8000313c:	6506                	ld	a0,64(sp)
    8000313e:	f5aa                	sd	a0,232(sp)
    80003140:	7562                	ld	a0,56(sp)
    80003142:	f9aa                	sd	a0,240(sp)
    80003144:	4541                	li	a0,16
    80003146:	05000e13          	li	t3,80
    8000314a:	00a28633          	add	a2,t0,a0
    8000314e:	ff063683          	ld	a3,-16(a2)
    80003152:	7e18                	ld	a4,56(a2)
    80003154:	02d706b3          	mul	a3,a4,a3
    80003158:	ff863703          	ld	a4,-8(a2)
    8000315c:	623c                	ld	a5,64(a2)
    8000315e:	6204                	ld	s1,0(a2)
    80003160:	6620                	ld	s0,72(a2)
    80003162:	02e78733          	mul	a4,a5,a4
    80003166:	029407b3          	mul	a5,s0,s1
    8000316a:	6604                	ld	s1,8(a2)
    8000316c:	6a30                	ld	a2,80(a2)
    8000316e:	95b6                	add	a1,a1,a3
    80003170:	02960633          	mul	a2,a2,s1
    80003174:	95ba                	add	a1,a1,a4
    80003176:	95be                	add	a1,a1,a5
    80003178:	02050513          	addi	a0,a0,32
    8000317c:	95b2                	add	a1,a1,a2
    8000317e:	fdc516e3          	bne	a0,t3,8000314a <main+0xff6>
    80003182:	4501                	li	a0,0
    80003184:	4401                	li	s0,0
    80003186:	0c0ebe03          	ld	t3,192(t4)
    8000318a:	7642                	ld	a2,48(sp)
    8000318c:	e24c                	sd	a1,128(a2)
    8000318e:	f8f2                	sd	t3,112(sp)
    80003190:	fc9a                	sd	t1,120(sp)
    80003192:	e17a                	sd	t5,128(sp)
    80003194:	e51e                	sd	t2,136(sp)
    80003196:	e96a                	sd	s10,144(sp)
    80003198:	ed42                	sd	a6,152(sp)
    8000319a:	f15a                	sd	s6,160(sp)
    8000319c:	f55e                	sd	s7,168(sp)
    8000319e:	4585                	li	a1,1
    800031a0:	f92e                	sd	a1,176(sp)
    800031a2:	fd06                	sd	ra,184(sp)
    800031a4:	75a6                	ld	a1,104(sp)
    800031a6:	e1ae                	sd	a1,192(sp)
    800031a8:	7586                	ld	a1,96(sp)
    800031aa:	e5ae                	sd	a1,200(sp)
    800031ac:	65e6                	ld	a1,88(sp)
    800031ae:	e9ae                	sd	a1,208(sp)
    800031b0:	65c6                	ld	a1,80(sp)
    800031b2:	edae                	sd	a1,216(sp)
    800031b4:	65a6                	ld	a1,72(sp)
    800031b6:	f1ae                	sd	a1,224(sp)
    800031b8:	6586                	ld	a1,64(sp)
    800031ba:	f5ae                	sd	a1,232(sp)
    800031bc:	75e2                	ld	a1,56(sp)
    800031be:	f9ae                	sd	a1,240(sp)
    800031c0:	192c                	addi	a1,sp,184
    800031c2:	fc05b603          	ld	a2,-64(a1)
    800031c6:	6194                	ld	a3,0(a1)
    800031c8:	fc85b703          	ld	a4,-56(a1)
    800031cc:	659c                	ld	a5,8(a1)
    800031ce:	02c68333          	mul	t1,a3,a2
    800031d2:	02e786b3          	mul	a3,a5,a4
    800031d6:	fd05b703          	ld	a4,-48(a1)
    800031da:	699c                	ld	a5,16(a1)
    800031dc:	00454493          	xori	s1,a0,4
    800031e0:	048e                	slli	s1,s1,0x3
    800031e2:	9496                	add	s1,s1,t0
    800031e4:	6084                	ld	s1,0(s1)
    800031e6:	6d90                	ld	a2,24(a1)
    800031e8:	02e78733          	mul	a4,a5,a4
    800031ec:	02960633          	mul	a2,a2,s1
    800031f0:	008307b3          	add	a5,t1,s0
    800031f4:	96be                	add	a3,a3,a5
    800031f6:	96ba                	add	a3,a3,a4
    800031f8:	00c68433          	add	s0,a3,a2
    800031fc:	0511                	addi	a0,a0,4
    800031fe:	02058593          	addi	a1,a1,32
    80003202:	fd4510e3          	bne	a0,s4,800031c2 <main+0x106e>
    80003206:	4681                	li	a3,0
    80003208:	4501                	li	a0,0
    8000320a:	75c2                	ld	a1,48(sp)
    8000320c:	e5c0                	sd	s0,136(a1)
    8000320e:	0c8eb303          	ld	t1,200(t4)
    80003212:	f8f2                	sd	t3,112(sp)
    80003214:	fc9a                	sd	t1,120(sp)
    80003216:	e17a                	sd	t5,128(sp)
    80003218:	e51e                	sd	t2,136(sp)
    8000321a:	e96a                	sd	s10,144(sp)
    8000321c:	ed42                	sd	a6,152(sp)
    8000321e:	f15a                	sd	s6,160(sp)
    80003220:	f55e                	sd	s7,168(sp)
    80003222:	4589                	li	a1,2
    80003224:	f92e                	sd	a1,176(sp)
    80003226:	fd06                	sd	ra,184(sp)
    80003228:	75a6                	ld	a1,104(sp)
    8000322a:	e1ae                	sd	a1,192(sp)
    8000322c:	7586                	ld	a1,96(sp)
    8000322e:	e5ae                	sd	a1,200(sp)
    80003230:	65e6                	ld	a1,88(sp)
    80003232:	e9ae                	sd	a1,208(sp)
    80003234:	65c6                	ld	a1,80(sp)
    80003236:	edae                	sd	a1,216(sp)
    80003238:	65a6                	ld	a1,72(sp)
    8000323a:	f1ae                	sd	a1,224(sp)
    8000323c:	6586                	ld	a1,64(sp)
    8000323e:	f5ae                	sd	a1,232(sp)
    80003240:	75e2                	ld	a1,56(sp)
    80003242:	f9ae                	sd	a1,240(sp)
    80003244:	85e6                	mv	a1,s9
    80003246:	093c                	addi	a5,sp,152
    80003248:	fb05b603          	ld	a2,-80(a1)
    8000324c:	fe85b703          	ld	a4,-24(a1)
    80003250:	fb85b483          	ld	s1,-72(a1)
    80003254:	ff05b403          	ld	s0,-16(a1)
    80003258:	02c70f33          	mul	t5,a4,a2
    8000325c:	02940c33          	mul	s8,s0,s1
    80003260:	0046c493          	xori	s1,a3,4
    80003264:	048e                	slli	s1,s1,0x3
    80003266:	9496                	add	s1,s1,t0
    80003268:	6084                	ld	s1,0(s1)
    8000326a:	ff85b403          	ld	s0,-8(a1)
    8000326e:	6390                	ld	a2,0(a5)
    80003270:	6198                	ld	a4,0(a1)
    80003272:	02940433          	mul	s0,s0,s1
    80003276:	02c70633          	mul	a2,a4,a2
    8000327a:	957a                	add	a0,a0,t5
    8000327c:	9562                	add	a0,a0,s8
    8000327e:	9522                	add	a0,a0,s0
    80003280:	9532                	add	a0,a0,a2
    80003282:	0691                	addi	a3,a3,4
    80003284:	1781                	addi	a5,a5,-32
    80003286:	02058593          	addi	a1,a1,32
    8000328a:	fb469fe3          	bne	a3,s4,80003248 <main+0x10f4>
    8000328e:	4681                	li	a3,0
    80003290:	4c01                	li	s8,0
    80003292:	75c2                	ld	a1,48(sp)
    80003294:	e9c8                	sd	a0,144(a1)
    80003296:	0d0ebf03          	ld	t5,208(t4)
    8000329a:	f8f2                	sd	t3,112(sp)
    8000329c:	fc9a                	sd	t1,120(sp)
    8000329e:	e17a                	sd	t5,128(sp)
    800032a0:	e51e                	sd	t2,136(sp)
    800032a2:	e96a                	sd	s10,144(sp)
    800032a4:	ed42                	sd	a6,152(sp)
    800032a6:	f15a                	sd	s6,160(sp)
    800032a8:	f55e                	sd	s7,168(sp)
    800032aa:	450d                	li	a0,3
    800032ac:	f92a                	sd	a0,176(sp)
    800032ae:	fd06                	sd	ra,184(sp)
    800032b0:	7526                	ld	a0,104(sp)
    800032b2:	e1aa                	sd	a0,192(sp)
    800032b4:	7506                	ld	a0,96(sp)
    800032b6:	e5aa                	sd	a0,200(sp)
    800032b8:	6566                	ld	a0,88(sp)
    800032ba:	e9aa                	sd	a0,208(sp)
    800032bc:	6546                	ld	a0,80(sp)
    800032be:	edaa                	sd	a0,216(sp)
    800032c0:	6526                	ld	a0,72(sp)
    800032c2:	f1aa                	sd	a0,224(sp)
    800032c4:	6506                	ld	a0,64(sp)
    800032c6:	f5aa                	sd	a0,232(sp)
    800032c8:	7562                	ld	a0,56(sp)
    800032ca:	f9aa                	sd	a0,240(sp)
    800032cc:	fc000513          	li	a0,-64
    800032d0:	85d6                	mv	a1,s5
    800032d2:	00aa8633          	add	a2,s5,a0
    800032d6:	7618                	ld	a4,40(a2)
    800032d8:	6e3c                	ld	a5,88(a2)
    800032da:	0046c493          	xori	s1,a3,4
    800032de:	048e                	slli	s1,s1,0x3
    800032e0:	9496                	add	s1,s1,t0
    800032e2:	6084                	ld	s1,0(s1)
    800032e4:	7220                	ld	s0,96(a2)
    800032e6:	02e783b3          	mul	t2,a5,a4
    800032ea:	029407b3          	mul	a5,s0,s1
    800032ee:	ff85b483          	ld	s1,-8(a1)
    800032f2:	7620                	ld	s0,104(a2)
    800032f4:	6198                	ld	a4,0(a1)
    800032f6:	7a30                	ld	a2,112(a2)
    800032f8:	02940433          	mul	s0,s0,s1
    800032fc:	02e60633          	mul	a2,a2,a4
    80003300:	01838733          	add	a4,t2,s8
    80003304:	973e                	add	a4,a4,a5
    80003306:	9722                	add	a4,a4,s0
    80003308:	00c70c33          	add	s8,a4,a2
    8000330c:	0691                	addi	a3,a3,4
    8000330e:	02050513          	addi	a0,a0,32
    80003312:	1581                	addi	a1,a1,-32
    80003314:	fd5d                	bnez	a0,800032d2 <main+0x117e>
    80003316:	4081                	li	ra,0
    80003318:	7542                	ld	a0,48(sp)
    8000331a:	09853c23          	sd	s8,152(a0)
    8000331e:	0d8eb383          	ld	t2,216(t4)
    80003322:	f8f2                	sd	t3,112(sp)
    80003324:	fc9a                	sd	t1,120(sp)
    80003326:	e17a                	sd	t5,128(sp)
    80003328:	e51e                	sd	t2,136(sp)
    8000332a:	e96a                	sd	s10,144(sp)
    8000332c:	ed42                	sd	a6,152(sp)
    8000332e:	f15a                	sd	s6,160(sp)
    80003330:	f55e                	sd	s7,168(sp)
    80003332:	4511                	li	a0,4
    80003334:	f92a                	sd	a0,176(sp)
    80003336:	7522                	ld	a0,40(sp)
    80003338:	fd2a                	sd	a0,184(sp)
    8000333a:	7526                	ld	a0,104(sp)
    8000333c:	e1aa                	sd	a0,192(sp)
    8000333e:	7506                	ld	a0,96(sp)
    80003340:	e5aa                	sd	a0,200(sp)
    80003342:	6566                	ld	a0,88(sp)
    80003344:	e9aa                	sd	a0,208(sp)
    80003346:	6546                	ld	a0,80(sp)
    80003348:	edaa                	sd	a0,216(sp)
    8000334a:	6526                	ld	a0,72(sp)
    8000334c:	f1aa                	sd	a0,224(sp)
    8000334e:	6506                	ld	a0,64(sp)
    80003350:	f5aa                	sd	a0,232(sp)
    80003352:	7562                	ld	a0,56(sp)
    80003354:	f9aa                	sd	a0,240(sp)
    80003356:	02000513          	li	a0,32
    8000335a:	86e6                	mv	a3,s9
    8000335c:	00ac8633          	add	a2,s9,a0
    80003360:	fa063703          	ld	a4,-96(a2)
    80003364:	fe86b783          	ld	a5,-24(a3)
    80003368:	fa863403          	ld	s0,-88(a2)
    8000336c:	ff06b483          	ld	s1,-16(a3)
    80003370:	02e78733          	mul	a4,a5,a4
    80003374:	028487b3          	mul	a5,s1,s0
    80003378:	fb063403          	ld	s0,-80(a2)
    8000337c:	ff86b483          	ld	s1,-8(a3)
    80003380:	fb863603          	ld	a2,-72(a2)
    80003384:	628c                	ld	a1,0(a3)
    80003386:	02848433          	mul	s0,s1,s0
    8000338a:	02c585b3          	mul	a1,a1,a2
    8000338e:	00170633          	add	a2,a4,ra
    80003392:	963e                	add	a2,a2,a5
    80003394:	9622                	add	a2,a2,s0
    80003396:	00b600b3          	add	ra,a2,a1
    8000339a:	1501                	addi	a0,a0,-32
    8000339c:	02068693          	addi	a3,a3,32
    800033a0:	fb251ee3          	bne	a0,s2,8000335c <main+0x1208>
    800033a4:	4d01                	li	s10,0
    800033a6:	7542                	ld	a0,48(sp)
    800033a8:	0a153023          	sd	ra,160(a0)
    800033ac:	0e0ebc03          	ld	s8,224(t4)
    800033b0:	f8f2                	sd	t3,112(sp)
    800033b2:	fc9a                	sd	t1,120(sp)
    800033b4:	e17a                	sd	t5,128(sp)
    800033b6:	e51e                	sd	t2,136(sp)
    800033b8:	e962                	sd	s8,144(sp)
    800033ba:	ed42                	sd	a6,152(sp)
    800033bc:	f15a                	sd	s6,160(sp)
    800033be:	f55e                	sd	s7,168(sp)
    800033c0:	4515                	li	a0,5
    800033c2:	f92a                	sd	a0,176(sp)
    800033c4:	7522                	ld	a0,40(sp)
    800033c6:	fd2a                	sd	a0,184(sp)
    800033c8:	7526                	ld	a0,104(sp)
    800033ca:	e1aa                	sd	a0,192(sp)
    800033cc:	7506                	ld	a0,96(sp)
    800033ce:	e5aa                	sd	a0,200(sp)
    800033d0:	6566                	ld	a0,88(sp)
    800033d2:	e9aa                	sd	a0,208(sp)
    800033d4:	6546                	ld	a0,80(sp)
    800033d6:	edaa                	sd	a0,216(sp)
    800033d8:	6526                	ld	a0,72(sp)
    800033da:	f1aa                	sd	a0,224(sp)
    800033dc:	6506                	ld	a0,64(sp)
    800033de:	f5aa                	sd	a0,232(sp)
    800033e0:	7562                	ld	a0,56(sp)
    800033e2:	f9aa                	sd	a0,240(sp)
    800033e4:	02800593          	li	a1,40
    800033e8:	06000693          	li	a3,96
    800033ec:	00b28633          	add	a2,t0,a1
    800033f0:	6218                	ld	a4,0(a2)
    800033f2:	00d287b3          	add	a5,t0,a3
    800033f6:	fe87b483          	ld	s1,-24(a5)
    800033fa:	6600                	ld	s0,8(a2)
    800033fc:	ff07b503          	ld	a0,-16(a5)
    80003400:	02e48733          	mul	a4,s1,a4
    80003404:	02850533          	mul	a0,a0,s0
    80003408:	6a10                	ld	a2,16(a2)
    8000340a:	ff87b483          	ld	s1,-8(a5)
    8000340e:	fa07b403          	ld	s0,-96(a5)
    80003412:	639c                	ld	a5,0(a5)
    80003414:	02c48633          	mul	a2,s1,a2
    80003418:	028787b3          	mul	a5,a5,s0
    8000341c:	976a                	add	a4,a4,s10
    8000341e:	953a                	add	a0,a0,a4
    80003420:	9532                	add	a0,a0,a2
    80003422:	00f50d33          	add	s10,a0,a5
    80003426:	1581                	addi	a1,a1,-32
    80003428:	02068693          	addi	a3,a3,32
    8000342c:	fdb590e3          	bne	a1,s11,800033ec <main+0x1298>
    80003430:	4081                	li	ra,0
    80003432:	7542                	ld	a0,48(sp)
    80003434:	0ba53423          	sd	s10,168(a0)
    80003438:	0e8eb803          	ld	a6,232(t4)
    8000343c:	f8f2                	sd	t3,112(sp)
    8000343e:	fc9a                	sd	t1,120(sp)
    80003440:	e17a                	sd	t5,128(sp)
    80003442:	e51e                	sd	t2,136(sp)
    80003444:	e962                	sd	s8,144(sp)
    80003446:	ed42                	sd	a6,152(sp)
    80003448:	f15a                	sd	s6,160(sp)
    8000344a:	f55e                	sd	s7,168(sp)
    8000344c:	4519                	li	a0,6
    8000344e:	f92a                	sd	a0,176(sp)
    80003450:	7522                	ld	a0,40(sp)
    80003452:	fd2a                	sd	a0,184(sp)
    80003454:	7526                	ld	a0,104(sp)
    80003456:	e1aa                	sd	a0,192(sp)
    80003458:	7506                	ld	a0,96(sp)
    8000345a:	e5aa                	sd	a0,200(sp)
    8000345c:	6566                	ld	a0,88(sp)
    8000345e:	e9aa                	sd	a0,208(sp)
    80003460:	6546                	ld	a0,80(sp)
    80003462:	edaa                	sd	a0,216(sp)
    80003464:	6526                	ld	a0,72(sp)
    80003466:	f1aa                	sd	a0,224(sp)
    80003468:	6506                	ld	a0,64(sp)
    8000346a:	f5aa                	sd	a0,232(sp)
    8000346c:	7562                	ld	a0,56(sp)
    8000346e:	f9aa                	sd	a0,240(sp)
    80003470:	fc000513          	li	a0,-64
    80003474:	86fe                	mv	a3,t6
    80003476:	ff86b603          	ld	a2,-8(a3)
    8000347a:	00aa8733          	add	a4,s5,a0
    8000347e:	6f3c                	ld	a5,88(a4)
    80003480:	6280                	ld	s0,0(a3)
    80003482:	7324                	ld	s1,96(a4)
    80003484:	02c78633          	mul	a2,a5,a2
    80003488:	028487b3          	mul	a5,s1,s0
    8000348c:	6b00                	ld	s0,16(a4)
    8000348e:	7724                	ld	s1,104(a4)
    80003490:	6f0c                	ld	a1,24(a4)
    80003492:	7b38                	ld	a4,112(a4)
    80003494:	02848433          	mul	s0,s1,s0
    80003498:	02b705b3          	mul	a1,a4,a1
    8000349c:	9606                	add	a2,a2,ra
    8000349e:	963e                	add	a2,a2,a5
    800034a0:	9622                	add	a2,a2,s0
    800034a2:	00b600b3          	add	ra,a2,a1
    800034a6:	02050513          	addi	a0,a0,32
    800034aa:	1681                	addi	a3,a3,-32
    800034ac:	f569                	bnez	a0,80003476 <main+0x1322>
    800034ae:	4d01                	li	s10,0
    800034b0:	7542                	ld	a0,48(sp)
    800034b2:	0a153823          	sd	ra,176(a0)
    800034b6:	0f0ebb03          	ld	s6,240(t4)
    800034ba:	f8f2                	sd	t3,112(sp)
    800034bc:	fc9a                	sd	t1,120(sp)
    800034be:	e17a                	sd	t5,128(sp)
    800034c0:	e51e                	sd	t2,136(sp)
    800034c2:	e962                	sd	s8,144(sp)
    800034c4:	ed42                	sd	a6,152(sp)
    800034c6:	f15a                	sd	s6,160(sp)
    800034c8:	f55e                	sd	s7,168(sp)
    800034ca:	451d                	li	a0,7
    800034cc:	f92a                	sd	a0,176(sp)
    800034ce:	70a2                	ld	ra,40(sp)
    800034d0:	fd06                	sd	ra,184(sp)
    800034d2:	7526                	ld	a0,104(sp)
    800034d4:	e1aa                	sd	a0,192(sp)
    800034d6:	7506                	ld	a0,96(sp)
    800034d8:	e5aa                	sd	a0,200(sp)
    800034da:	6566                	ld	a0,88(sp)
    800034dc:	e9aa                	sd	a0,208(sp)
    800034de:	6546                	ld	a0,80(sp)
    800034e0:	edaa                	sd	a0,216(sp)
    800034e2:	6526                	ld	a0,72(sp)
    800034e4:	f1aa                	sd	a0,224(sp)
    800034e6:	6506                	ld	a0,64(sp)
    800034e8:	f5aa                	sd	a0,232(sp)
    800034ea:	7562                	ld	a0,56(sp)
    800034ec:	f9aa                	sd	a0,240(sp)
    800034ee:	03800593          	li	a1,56
    800034f2:	06000693          	li	a3,96
    800034f6:	00b28633          	add	a2,t0,a1
    800034fa:	6210                	ld	a2,0(a2)
    800034fc:	00d28733          	add	a4,t0,a3
    80003500:	fe873783          	ld	a5,-24(a4)
    80003504:	fa073403          	ld	s0,-96(a4)
    80003508:	ff073483          	ld	s1,-16(a4)
    8000350c:	02c78633          	mul	a2,a5,a2
    80003510:	028487b3          	mul	a5,s1,s0
    80003514:	fa873403          	ld	s0,-88(a4)
    80003518:	ff873483          	ld	s1,-8(a4)
    8000351c:	fb073503          	ld	a0,-80(a4)
    80003520:	6318                	ld	a4,0(a4)
    80003522:	02848433          	mul	s0,s1,s0
    80003526:	02a70533          	mul	a0,a4,a0
    8000352a:	966a                	add	a2,a2,s10
    8000352c:	963e                	add	a2,a2,a5
    8000352e:	9622                	add	a2,a2,s0
    80003530:	00a60d33          	add	s10,a2,a0
    80003534:	1581                	addi	a1,a1,-32
    80003536:	02068693          	addi	a3,a3,32
    8000353a:	fb359ee3          	bne	a1,s3,800034f6 <main+0x13a2>
    8000353e:	4581                	li	a1,0
    80003540:	7542                	ld	a0,48(sp)
    80003542:	0ba53c23          	sd	s10,184(a0)
    80003546:	0f8ebb83          	ld	s7,248(t4)
    8000354a:	f8f2                	sd	t3,112(sp)
    8000354c:	fc9a                	sd	t1,120(sp)
    8000354e:	e17a                	sd	t5,128(sp)
    80003550:	e51e                	sd	t2,136(sp)
    80003552:	e962                	sd	s8,144(sp)
    80003554:	ed42                	sd	a6,152(sp)
    80003556:	f15a                	sd	s6,160(sp)
    80003558:	f55e                	sd	s7,168(sp)
    8000355a:	f902                	sd	zero,176(sp)
    8000355c:	fd06                	sd	ra,184(sp)
    8000355e:	7526                	ld	a0,104(sp)
    80003560:	e1aa                	sd	a0,192(sp)
    80003562:	7506                	ld	a0,96(sp)
    80003564:	e5aa                	sd	a0,200(sp)
    80003566:	6566                	ld	a0,88(sp)
    80003568:	e9aa                	sd	a0,208(sp)
    8000356a:	6546                	ld	a0,80(sp)
    8000356c:	edaa                	sd	a0,216(sp)
    8000356e:	6526                	ld	a0,72(sp)
    80003570:	f1aa                	sd	a0,224(sp)
    80003572:	6506                	ld	a0,64(sp)
    80003574:	f5aa                	sd	a0,232(sp)
    80003576:	7562                	ld	a0,56(sp)
    80003578:	f9aa                	sd	a0,240(sp)
    8000357a:	4541                	li	a0,16
    8000357c:	05000e13          	li	t3,80
    80003580:	00a28633          	add	a2,t0,a0
    80003584:	ff063683          	ld	a3,-16(a2)
    80003588:	7e18                	ld	a4,56(a2)
    8000358a:	02d706b3          	mul	a3,a4,a3
    8000358e:	ff863703          	ld	a4,-8(a2)
    80003592:	623c                	ld	a5,64(a2)
    80003594:	6204                	ld	s1,0(a2)
    80003596:	6620                	ld	s0,72(a2)
    80003598:	02e78733          	mul	a4,a5,a4
    8000359c:	029407b3          	mul	a5,s0,s1
    800035a0:	6604                	ld	s1,8(a2)
    800035a2:	6a30                	ld	a2,80(a2)
    800035a4:	95b6                	add	a1,a1,a3
    800035a6:	02960633          	mul	a2,a2,s1
    800035aa:	95ba                	add	a1,a1,a4
    800035ac:	95be                	add	a1,a1,a5
    800035ae:	02050513          	addi	a0,a0,32
    800035b2:	95b2                	add	a1,a1,a2
    800035b4:	fdc516e3          	bne	a0,t3,80003580 <main+0x142c>
    800035b8:	4681                	li	a3,0
    800035ba:	4501                	li	a0,0
    800035bc:	100ebe03          	ld	t3,256(t4)
    800035c0:	7642                	ld	a2,48(sp)
    800035c2:	e26c                	sd	a1,192(a2)
    800035c4:	f8f2                	sd	t3,112(sp)
    800035c6:	fc9a                	sd	t1,120(sp)
    800035c8:	e17a                	sd	t5,128(sp)
    800035ca:	e51e                	sd	t2,136(sp)
    800035cc:	e962                	sd	s8,144(sp)
    800035ce:	ed42                	sd	a6,152(sp)
    800035d0:	f15a                	sd	s6,160(sp)
    800035d2:	f55e                	sd	s7,168(sp)
    800035d4:	4585                	li	a1,1
    800035d6:	f92e                	sd	a1,176(sp)
    800035d8:	fd06                	sd	ra,184(sp)
    800035da:	75a6                	ld	a1,104(sp)
    800035dc:	e1ae                	sd	a1,192(sp)
    800035de:	7586                	ld	a1,96(sp)
    800035e0:	e5ae                	sd	a1,200(sp)
    800035e2:	65e6                	ld	a1,88(sp)
    800035e4:	e9ae                	sd	a1,208(sp)
    800035e6:	65c6                	ld	a1,80(sp)
    800035e8:	edae                	sd	a1,216(sp)
    800035ea:	65a6                	ld	a1,72(sp)
    800035ec:	f1ae                	sd	a1,224(sp)
    800035ee:	6586                	ld	a1,64(sp)
    800035f0:	f5ae                	sd	a1,232(sp)
    800035f2:	75e2                	ld	a1,56(sp)
    800035f4:	f9ae                	sd	a1,240(sp)
    800035f6:	192c                	addi	a1,sp,184
    800035f8:	fc05b603          	ld	a2,-64(a1)
    800035fc:	6198                	ld	a4,0(a1)
    800035fe:	fc85b783          	ld	a5,-56(a1)
    80003602:	6584                	ld	s1,8(a1)
    80003604:	02c70333          	mul	t1,a4,a2
    80003608:	02f48733          	mul	a4,s1,a5
    8000360c:	fd05b783          	ld	a5,-48(a1)
    80003610:	6984                	ld	s1,16(a1)
    80003612:	0046c413          	xori	s0,a3,4
    80003616:	040e                	slli	s0,s0,0x3
    80003618:	9416                	add	s0,s0,t0
    8000361a:	6000                	ld	s0,0(s0)
    8000361c:	6d90                	ld	a2,24(a1)
    8000361e:	02f487b3          	mul	a5,s1,a5
    80003622:	02860633          	mul	a2,a2,s0
    80003626:	951a                	add	a0,a0,t1
    80003628:	953a                	add	a0,a0,a4
    8000362a:	953e                	add	a0,a0,a5
    8000362c:	9532                	add	a0,a0,a2
    8000362e:	0691                	addi	a3,a3,4
    80003630:	02058593          	addi	a1,a1,32
    80003634:	fd4692e3          	bne	a3,s4,800035f8 <main+0x14a4>
    80003638:	4681                	li	a3,0
    8000363a:	4401                	li	s0,0
    8000363c:	75c2                	ld	a1,48(sp)
    8000363e:	e5e8                	sd	a0,200(a1)
    80003640:	108eb303          	ld	t1,264(t4)
    80003644:	f8f2                	sd	t3,112(sp)
    80003646:	fc9a                	sd	t1,120(sp)
    80003648:	e17a                	sd	t5,128(sp)
    8000364a:	e51e                	sd	t2,136(sp)
    8000364c:	e962                	sd	s8,144(sp)
    8000364e:	ed42                	sd	a6,152(sp)
    80003650:	f15a                	sd	s6,160(sp)
    80003652:	f55e                	sd	s7,168(sp)
    80003654:	4509                	li	a0,2
    80003656:	f92a                	sd	a0,176(sp)
    80003658:	fd06                	sd	ra,184(sp)
    8000365a:	7526                	ld	a0,104(sp)
    8000365c:	e1aa                	sd	a0,192(sp)
    8000365e:	7506                	ld	a0,96(sp)
    80003660:	e5aa                	sd	a0,200(sp)
    80003662:	6566                	ld	a0,88(sp)
    80003664:	e9aa                	sd	a0,208(sp)
    80003666:	6546                	ld	a0,80(sp)
    80003668:	edaa                	sd	a0,216(sp)
    8000366a:	6526                	ld	a0,72(sp)
    8000366c:	f1aa                	sd	a0,224(sp)
    8000366e:	6506                	ld	a0,64(sp)
    80003670:	f5aa                	sd	a0,232(sp)
    80003672:	7562                	ld	a0,56(sp)
    80003674:	f9aa                	sd	a0,240(sp)
    80003676:	8566                	mv	a0,s9
    80003678:	092c                	addi	a1,sp,152
    8000367a:	fb053603          	ld	a2,-80(a0)
    8000367e:	fe853703          	ld	a4,-24(a0)
    80003682:	fb853783          	ld	a5,-72(a0)
    80003686:	ff053483          	ld	s1,-16(a0)
    8000368a:	02c70f33          	mul	t5,a4,a2
    8000368e:	02f48d33          	mul	s10,s1,a5
    80003692:	0046c793          	xori	a5,a3,4
    80003696:	078e                	slli	a5,a5,0x3
    80003698:	9796                	add	a5,a5,t0
    8000369a:	639c                	ld	a5,0(a5)
    8000369c:	ff853483          	ld	s1,-8(a0)
    800036a0:	6190                	ld	a2,0(a1)
    800036a2:	6118                	ld	a4,0(a0)
    800036a4:	02f487b3          	mul	a5,s1,a5
    800036a8:	02c70633          	mul	a2,a4,a2
    800036ac:	008f0733          	add	a4,t5,s0
    800036b0:	976a                	add	a4,a4,s10
    800036b2:	973e                	add	a4,a4,a5
    800036b4:	00c70433          	add	s0,a4,a2
    800036b8:	0691                	addi	a3,a3,4
    800036ba:	1581                	addi	a1,a1,-32
    800036bc:	02050513          	addi	a0,a0,32
    800036c0:	fb469de3          	bne	a3,s4,8000367a <main+0x1526>
    800036c4:	4681                	li	a3,0
    800036c6:	4d01                	li	s10,0
    800036c8:	7542                	ld	a0,48(sp)
    800036ca:	e960                	sd	s0,208(a0)
    800036cc:	110ebf03          	ld	t5,272(t4)
    800036d0:	f8f2                	sd	t3,112(sp)
    800036d2:	fc9a                	sd	t1,120(sp)
    800036d4:	e17a                	sd	t5,128(sp)
    800036d6:	e51e                	sd	t2,136(sp)
    800036d8:	e962                	sd	s8,144(sp)
    800036da:	ed42                	sd	a6,152(sp)
    800036dc:	f15a                	sd	s6,160(sp)
    800036de:	f55e                	sd	s7,168(sp)
    800036e0:	450d                	li	a0,3
    800036e2:	f92a                	sd	a0,176(sp)
    800036e4:	fd06                	sd	ra,184(sp)
    800036e6:	7526                	ld	a0,104(sp)
    800036e8:	e1aa                	sd	a0,192(sp)
    800036ea:	7506                	ld	a0,96(sp)
    800036ec:	e5aa                	sd	a0,200(sp)
    800036ee:	6566                	ld	a0,88(sp)
    800036f0:	e9aa                	sd	a0,208(sp)
    800036f2:	6546                	ld	a0,80(sp)
    800036f4:	edaa                	sd	a0,216(sp)
    800036f6:	6526                	ld	a0,72(sp)
    800036f8:	f1aa                	sd	a0,224(sp)
    800036fa:	6506                	ld	a0,64(sp)
    800036fc:	f5aa                	sd	a0,232(sp)
    800036fe:	7562                	ld	a0,56(sp)
    80003700:	f9aa                	sd	a0,240(sp)
    80003702:	fc000593          	li	a1,-64
    80003706:	8456                	mv	s0,s5
    80003708:	00ba8633          	add	a2,s5,a1
    8000370c:	7618                	ld	a4,40(a2)
    8000370e:	6e3c                	ld	a5,88(a2)
    80003710:	0046c493          	xori	s1,a3,4
    80003714:	048e                	slli	s1,s1,0x3
    80003716:	9496                	add	s1,s1,t0
    80003718:	6084                	ld	s1,0(s1)
    8000371a:	7228                	ld	a0,96(a2)
    8000371c:	02e78733          	mul	a4,a5,a4
    80003720:	029503b3          	mul	t2,a0,s1
    80003724:	ff843783          	ld	a5,-8(s0)
    80003728:	7624                	ld	s1,104(a2)
    8000372a:	6008                	ld	a0,0(s0)
    8000372c:	7a30                	ld	a2,112(a2)
    8000372e:	02f487b3          	mul	a5,s1,a5
    80003732:	02a60533          	mul	a0,a2,a0
    80003736:	01a70633          	add	a2,a4,s10
    8000373a:	961e                	add	a2,a2,t2
    8000373c:	963e                	add	a2,a2,a5
    8000373e:	00a60d33          	add	s10,a2,a0
    80003742:	0691                	addi	a3,a3,4
    80003744:	02058593          	addi	a1,a1,32
    80003748:	1401                	addi	s0,s0,-32
    8000374a:	fddd                	bnez	a1,80003708 <main+0x15b4>
    8000374c:	4081                	li	ra,0
    8000374e:	7542                	ld	a0,48(sp)
    80003750:	0da53c23          	sd	s10,216(a0)
    80003754:	118eb383          	ld	t2,280(t4)
    80003758:	f8f2                	sd	t3,112(sp)
    8000375a:	fc9a                	sd	t1,120(sp)
    8000375c:	e17a                	sd	t5,128(sp)
    8000375e:	e51e                	sd	t2,136(sp)
    80003760:	e962                	sd	s8,144(sp)
    80003762:	ed42                	sd	a6,152(sp)
    80003764:	f15a                	sd	s6,160(sp)
    80003766:	f55e                	sd	s7,168(sp)
    80003768:	4511                	li	a0,4
    8000376a:	f92a                	sd	a0,176(sp)
    8000376c:	7522                	ld	a0,40(sp)
    8000376e:	fd2a                	sd	a0,184(sp)
    80003770:	7526                	ld	a0,104(sp)
    80003772:	e1aa                	sd	a0,192(sp)
    80003774:	7506                	ld	a0,96(sp)
    80003776:	e5aa                	sd	a0,200(sp)
    80003778:	6566                	ld	a0,88(sp)
    8000377a:	e9aa                	sd	a0,208(sp)
    8000377c:	6546                	ld	a0,80(sp)
    8000377e:	edaa                	sd	a0,216(sp)
    80003780:	6526                	ld	a0,72(sp)
    80003782:	f1aa                	sd	a0,224(sp)
    80003784:	6506                	ld	a0,64(sp)
    80003786:	f5aa                	sd	a0,232(sp)
    80003788:	7562                	ld	a0,56(sp)
    8000378a:	f9aa                	sd	a0,240(sp)
    8000378c:	02000513          	li	a0,32
    80003790:	86e6                	mv	a3,s9
    80003792:	00ac8633          	add	a2,s9,a0
    80003796:	fa063703          	ld	a4,-96(a2)
    8000379a:	fe86b783          	ld	a5,-24(a3)
    8000379e:	fa863403          	ld	s0,-88(a2)
    800037a2:	ff06b483          	ld	s1,-16(a3)
    800037a6:	02e78733          	mul	a4,a5,a4
    800037aa:	028487b3          	mul	a5,s1,s0
    800037ae:	fb063403          	ld	s0,-80(a2)
    800037b2:	ff86b483          	ld	s1,-8(a3)
    800037b6:	fb863603          	ld	a2,-72(a2)
    800037ba:	628c                	ld	a1,0(a3)
    800037bc:	02848433          	mul	s0,s1,s0
    800037c0:	02c585b3          	mul	a1,a1,a2
    800037c4:	00170633          	add	a2,a4,ra
    800037c8:	963e                	add	a2,a2,a5
    800037ca:	9622                	add	a2,a2,s0
    800037cc:	00b600b3          	add	ra,a2,a1
    800037d0:	1501                	addi	a0,a0,-32
    800037d2:	02068693          	addi	a3,a3,32
    800037d6:	fb251ee3          	bne	a0,s2,80003792 <main+0x163e>
    800037da:	4d01                	li	s10,0
    800037dc:	7542                	ld	a0,48(sp)
    800037de:	0e153023          	sd	ra,224(a0)
    800037e2:	120ebc03          	ld	s8,288(t4)
    800037e6:	f8f2                	sd	t3,112(sp)
    800037e8:	fc9a                	sd	t1,120(sp)
    800037ea:	e17a                	sd	t5,128(sp)
    800037ec:	e51e                	sd	t2,136(sp)
    800037ee:	e962                	sd	s8,144(sp)
    800037f0:	ed42                	sd	a6,152(sp)
    800037f2:	f15a                	sd	s6,160(sp)
    800037f4:	f55e                	sd	s7,168(sp)
    800037f6:	4515                	li	a0,5
    800037f8:	f92a                	sd	a0,176(sp)
    800037fa:	7522                	ld	a0,40(sp)
    800037fc:	fd2a                	sd	a0,184(sp)
    800037fe:	7526                	ld	a0,104(sp)
    80003800:	e1aa                	sd	a0,192(sp)
    80003802:	7506                	ld	a0,96(sp)
    80003804:	e5aa                	sd	a0,200(sp)
    80003806:	6566                	ld	a0,88(sp)
    80003808:	e9aa                	sd	a0,208(sp)
    8000380a:	6546                	ld	a0,80(sp)
    8000380c:	edaa                	sd	a0,216(sp)
    8000380e:	6526                	ld	a0,72(sp)
    80003810:	f1aa                	sd	a0,224(sp)
    80003812:	6506                	ld	a0,64(sp)
    80003814:	f5aa                	sd	a0,232(sp)
    80003816:	7562                	ld	a0,56(sp)
    80003818:	f9aa                	sd	a0,240(sp)
    8000381a:	02800593          	li	a1,40
    8000381e:	06000693          	li	a3,96
    80003822:	00b28633          	add	a2,t0,a1
    80003826:	6218                	ld	a4,0(a2)
    80003828:	00d287b3          	add	a5,t0,a3
    8000382c:	fe87b483          	ld	s1,-24(a5)
    80003830:	6600                	ld	s0,8(a2)
    80003832:	ff07b503          	ld	a0,-16(a5)
    80003836:	02e48733          	mul	a4,s1,a4
    8000383a:	02850533          	mul	a0,a0,s0
    8000383e:	6a10                	ld	a2,16(a2)
    80003840:	ff87b483          	ld	s1,-8(a5)
    80003844:	fa07b403          	ld	s0,-96(a5)
    80003848:	639c                	ld	a5,0(a5)
    8000384a:	02c48633          	mul	a2,s1,a2
    8000384e:	028787b3          	mul	a5,a5,s0
    80003852:	976a                	add	a4,a4,s10
    80003854:	953a                	add	a0,a0,a4
    80003856:	9532                	add	a0,a0,a2
    80003858:	00f50d33          	add	s10,a0,a5
    8000385c:	1581                	addi	a1,a1,-32
    8000385e:	02068693          	addi	a3,a3,32
    80003862:	fdb590e3          	bne	a1,s11,80003822 <main+0x16ce>
    80003866:	4081                	li	ra,0
    80003868:	7542                	ld	a0,48(sp)
    8000386a:	0fa53423          	sd	s10,232(a0)
    8000386e:	128eb803          	ld	a6,296(t4)
    80003872:	f8f2                	sd	t3,112(sp)
    80003874:	fc9a                	sd	t1,120(sp)
    80003876:	e17a                	sd	t5,128(sp)
    80003878:	e51e                	sd	t2,136(sp)
    8000387a:	e962                	sd	s8,144(sp)
    8000387c:	ed42                	sd	a6,152(sp)
    8000387e:	f15a                	sd	s6,160(sp)
    80003880:	f55e                	sd	s7,168(sp)
    80003882:	4519                	li	a0,6
    80003884:	f92a                	sd	a0,176(sp)
    80003886:	7522                	ld	a0,40(sp)
    80003888:	fd2a                	sd	a0,184(sp)
    8000388a:	7526                	ld	a0,104(sp)
    8000388c:	e1aa                	sd	a0,192(sp)
    8000388e:	7506                	ld	a0,96(sp)
    80003890:	e5aa                	sd	a0,200(sp)
    80003892:	6566                	ld	a0,88(sp)
    80003894:	e9aa                	sd	a0,208(sp)
    80003896:	6546                	ld	a0,80(sp)
    80003898:	edaa                	sd	a0,216(sp)
    8000389a:	6526                	ld	a0,72(sp)
    8000389c:	f1aa                	sd	a0,224(sp)
    8000389e:	6506                	ld	a0,64(sp)
    800038a0:	f5aa                	sd	a0,232(sp)
    800038a2:	7562                	ld	a0,56(sp)
    800038a4:	f9aa                	sd	a0,240(sp)
    800038a6:	fc000513          	li	a0,-64
    800038aa:	86fe                	mv	a3,t6
    800038ac:	ff86b603          	ld	a2,-8(a3)
    800038b0:	00aa8733          	add	a4,s5,a0
    800038b4:	6f3c                	ld	a5,88(a4)
    800038b6:	6280                	ld	s0,0(a3)
    800038b8:	7324                	ld	s1,96(a4)
    800038ba:	02c78633          	mul	a2,a5,a2
    800038be:	028487b3          	mul	a5,s1,s0
    800038c2:	6b00                	ld	s0,16(a4)
    800038c4:	7724                	ld	s1,104(a4)
    800038c6:	6f0c                	ld	a1,24(a4)
    800038c8:	7b38                	ld	a4,112(a4)
    800038ca:	02848433          	mul	s0,s1,s0
    800038ce:	02b705b3          	mul	a1,a4,a1
    800038d2:	9606                	add	a2,a2,ra
    800038d4:	963e                	add	a2,a2,a5
    800038d6:	9622                	add	a2,a2,s0
    800038d8:	00b600b3          	add	ra,a2,a1
    800038dc:	02050513          	addi	a0,a0,32
    800038e0:	1681                	addi	a3,a3,-32
    800038e2:	f569                	bnez	a0,800038ac <main+0x1758>
    800038e4:	4d01                	li	s10,0
    800038e6:	7542                	ld	a0,48(sp)
    800038e8:	0e153823          	sd	ra,240(a0)
    800038ec:	130ebb03          	ld	s6,304(t4)
    800038f0:	f8f2                	sd	t3,112(sp)
    800038f2:	fc9a                	sd	t1,120(sp)
    800038f4:	e17a                	sd	t5,128(sp)
    800038f6:	e51e                	sd	t2,136(sp)
    800038f8:	e962                	sd	s8,144(sp)
    800038fa:	ed42                	sd	a6,152(sp)
    800038fc:	f15a                	sd	s6,160(sp)
    800038fe:	f55e                	sd	s7,168(sp)
    80003900:	451d                	li	a0,7
    80003902:	f92a                	sd	a0,176(sp)
    80003904:	70a2                	ld	ra,40(sp)
    80003906:	fd06                	sd	ra,184(sp)
    80003908:	7526                	ld	a0,104(sp)
    8000390a:	e1aa                	sd	a0,192(sp)
    8000390c:	7506                	ld	a0,96(sp)
    8000390e:	e5aa                	sd	a0,200(sp)
    80003910:	6566                	ld	a0,88(sp)
    80003912:	e9aa                	sd	a0,208(sp)
    80003914:	6546                	ld	a0,80(sp)
    80003916:	edaa                	sd	a0,216(sp)
    80003918:	6526                	ld	a0,72(sp)
    8000391a:	f1aa                	sd	a0,224(sp)
    8000391c:	6506                	ld	a0,64(sp)
    8000391e:	f5aa                	sd	a0,232(sp)
    80003920:	7562                	ld	a0,56(sp)
    80003922:	f9aa                	sd	a0,240(sp)
    80003924:	03800593          	li	a1,56
    80003928:	06000693          	li	a3,96
    8000392c:	00b28633          	add	a2,t0,a1
    80003930:	6210                	ld	a2,0(a2)
    80003932:	00d28733          	add	a4,t0,a3
    80003936:	fe873783          	ld	a5,-24(a4)
    8000393a:	fa073403          	ld	s0,-96(a4)
    8000393e:	ff073483          	ld	s1,-16(a4)
    80003942:	02c78633          	mul	a2,a5,a2
    80003946:	028487b3          	mul	a5,s1,s0
    8000394a:	fa873403          	ld	s0,-88(a4)
    8000394e:	ff873483          	ld	s1,-8(a4)
    80003952:	fb073503          	ld	a0,-80(a4)
    80003956:	6318                	ld	a4,0(a4)
    80003958:	02848433          	mul	s0,s1,s0
    8000395c:	02a70533          	mul	a0,a4,a0
    80003960:	966a                	add	a2,a2,s10
    80003962:	963e                	add	a2,a2,a5
    80003964:	9622                	add	a2,a2,s0
    80003966:	00a60d33          	add	s10,a2,a0
    8000396a:	1581                	addi	a1,a1,-32
    8000396c:	02068693          	addi	a3,a3,32
    80003970:	fb359ee3          	bne	a1,s3,8000392c <main+0x17d8>
    80003974:	4581                	li	a1,0
    80003976:	7542                	ld	a0,48(sp)
    80003978:	0fa53c23          	sd	s10,248(a0)
    8000397c:	138ebb83          	ld	s7,312(t4)
    80003980:	f8f2                	sd	t3,112(sp)
    80003982:	fc9a                	sd	t1,120(sp)
    80003984:	e17a                	sd	t5,128(sp)
    80003986:	e51e                	sd	t2,136(sp)
    80003988:	e962                	sd	s8,144(sp)
    8000398a:	ed42                	sd	a6,152(sp)
    8000398c:	f15a                	sd	s6,160(sp)
    8000398e:	f55e                	sd	s7,168(sp)
    80003990:	f902                	sd	zero,176(sp)
    80003992:	fd06                	sd	ra,184(sp)
    80003994:	7526                	ld	a0,104(sp)
    80003996:	e1aa                	sd	a0,192(sp)
    80003998:	7506                	ld	a0,96(sp)
    8000399a:	e5aa                	sd	a0,200(sp)
    8000399c:	6566                	ld	a0,88(sp)
    8000399e:	e9aa                	sd	a0,208(sp)
    800039a0:	6546                	ld	a0,80(sp)
    800039a2:	edaa                	sd	a0,216(sp)
    800039a4:	6526                	ld	a0,72(sp)
    800039a6:	f1aa                	sd	a0,224(sp)
    800039a8:	6506                	ld	a0,64(sp)
    800039aa:	f5aa                	sd	a0,232(sp)
    800039ac:	7562                	ld	a0,56(sp)
    800039ae:	f9aa                	sd	a0,240(sp)
    800039b0:	4541                	li	a0,16
    800039b2:	05000e13          	li	t3,80
    800039b6:	00a28633          	add	a2,t0,a0
    800039ba:	ff063683          	ld	a3,-16(a2)
    800039be:	7e18                	ld	a4,56(a2)
    800039c0:	02d706b3          	mul	a3,a4,a3
    800039c4:	ff863703          	ld	a4,-8(a2)
    800039c8:	623c                	ld	a5,64(a2)
    800039ca:	6204                	ld	s1,0(a2)
    800039cc:	6620                	ld	s0,72(a2)
    800039ce:	02e78733          	mul	a4,a5,a4
    800039d2:	029407b3          	mul	a5,s0,s1
    800039d6:	6604                	ld	s1,8(a2)
    800039d8:	6a30                	ld	a2,80(a2)
    800039da:	95b6                	add	a1,a1,a3
    800039dc:	02960633          	mul	a2,a2,s1
    800039e0:	95ba                	add	a1,a1,a4
    800039e2:	95be                	add	a1,a1,a5
    800039e4:	02050513          	addi	a0,a0,32
    800039e8:	95b2                	add	a1,a1,a2
    800039ea:	fdc516e3          	bne	a0,t3,800039b6 <main+0x1862>
    800039ee:	4501                	li	a0,0
    800039f0:	4401                	li	s0,0
    800039f2:	140ebe03          	ld	t3,320(t4)
    800039f6:	7642                	ld	a2,48(sp)
    800039f8:	10b63023          	sd	a1,256(a2)
    800039fc:	f8f2                	sd	t3,112(sp)
    800039fe:	fc9a                	sd	t1,120(sp)
    80003a00:	e17a                	sd	t5,128(sp)
    80003a02:	e51e                	sd	t2,136(sp)
    80003a04:	e962                	sd	s8,144(sp)
    80003a06:	ed42                	sd	a6,152(sp)
    80003a08:	f15a                	sd	s6,160(sp)
    80003a0a:	f55e                	sd	s7,168(sp)
    80003a0c:	4585                	li	a1,1
    80003a0e:	f92e                	sd	a1,176(sp)
    80003a10:	fd06                	sd	ra,184(sp)
    80003a12:	75a6                	ld	a1,104(sp)
    80003a14:	e1ae                	sd	a1,192(sp)
    80003a16:	7586                	ld	a1,96(sp)
    80003a18:	e5ae                	sd	a1,200(sp)
    80003a1a:	65e6                	ld	a1,88(sp)
    80003a1c:	e9ae                	sd	a1,208(sp)
    80003a1e:	65c6                	ld	a1,80(sp)
    80003a20:	edae                	sd	a1,216(sp)
    80003a22:	65a6                	ld	a1,72(sp)
    80003a24:	f1ae                	sd	a1,224(sp)
    80003a26:	6586                	ld	a1,64(sp)
    80003a28:	f5ae                	sd	a1,232(sp)
    80003a2a:	75e2                	ld	a1,56(sp)
    80003a2c:	f9ae                	sd	a1,240(sp)
    80003a2e:	192c                	addi	a1,sp,184
    80003a30:	fc05b603          	ld	a2,-64(a1)
    80003a34:	6194                	ld	a3,0(a1)
    80003a36:	fc85b703          	ld	a4,-56(a1)
    80003a3a:	659c                	ld	a5,8(a1)
    80003a3c:	02c68333          	mul	t1,a3,a2
    80003a40:	02e786b3          	mul	a3,a5,a4
    80003a44:	fd05b703          	ld	a4,-48(a1)
    80003a48:	699c                	ld	a5,16(a1)
    80003a4a:	00454493          	xori	s1,a0,4
    80003a4e:	048e                	slli	s1,s1,0x3
    80003a50:	9496                	add	s1,s1,t0
    80003a52:	6084                	ld	s1,0(s1)
    80003a54:	6d90                	ld	a2,24(a1)
    80003a56:	02e78733          	mul	a4,a5,a4
    80003a5a:	02960633          	mul	a2,a2,s1
    80003a5e:	008307b3          	add	a5,t1,s0
    80003a62:	96be                	add	a3,a3,a5
    80003a64:	96ba                	add	a3,a3,a4
    80003a66:	00c68433          	add	s0,a3,a2
    80003a6a:	0511                	addi	a0,a0,4
    80003a6c:	02058593          	addi	a1,a1,32
    80003a70:	fd4510e3          	bne	a0,s4,80003a30 <main+0x18dc>
    80003a74:	4681                	li	a3,0
    80003a76:	4501                	li	a0,0
    80003a78:	75c2                	ld	a1,48(sp)
    80003a7a:	1085b423          	sd	s0,264(a1)
    80003a7e:	148eb303          	ld	t1,328(t4)
    80003a82:	f8f2                	sd	t3,112(sp)
    80003a84:	fc9a                	sd	t1,120(sp)
    80003a86:	e17a                	sd	t5,128(sp)
    80003a88:	e51e                	sd	t2,136(sp)
    80003a8a:	e962                	sd	s8,144(sp)
    80003a8c:	ed42                	sd	a6,152(sp)
    80003a8e:	f15a                	sd	s6,160(sp)
    80003a90:	f55e                	sd	s7,168(sp)
    80003a92:	4589                	li	a1,2
    80003a94:	f92e                	sd	a1,176(sp)
    80003a96:	fd06                	sd	ra,184(sp)
    80003a98:	75a6                	ld	a1,104(sp)
    80003a9a:	e1ae                	sd	a1,192(sp)
    80003a9c:	7586                	ld	a1,96(sp)
    80003a9e:	e5ae                	sd	a1,200(sp)
    80003aa0:	65e6                	ld	a1,88(sp)
    80003aa2:	e9ae                	sd	a1,208(sp)
    80003aa4:	65c6                	ld	a1,80(sp)
    80003aa6:	edae                	sd	a1,216(sp)
    80003aa8:	65a6                	ld	a1,72(sp)
    80003aaa:	f1ae                	sd	a1,224(sp)
    80003aac:	6586                	ld	a1,64(sp)
    80003aae:	f5ae                	sd	a1,232(sp)
    80003ab0:	75e2                	ld	a1,56(sp)
    80003ab2:	f9ae                	sd	a1,240(sp)
    80003ab4:	85e6                	mv	a1,s9
    80003ab6:	093c                	addi	a5,sp,152
    80003ab8:	fb05b603          	ld	a2,-80(a1)
    80003abc:	fe85b703          	ld	a4,-24(a1)
    80003ac0:	fb85b483          	ld	s1,-72(a1)
    80003ac4:	ff05b403          	ld	s0,-16(a1)
    80003ac8:	02c70f33          	mul	t5,a4,a2
    80003acc:	02940d33          	mul	s10,s0,s1
    80003ad0:	0046c493          	xori	s1,a3,4
    80003ad4:	048e                	slli	s1,s1,0x3
    80003ad6:	9496                	add	s1,s1,t0
    80003ad8:	6084                	ld	s1,0(s1)
    80003ada:	ff85b403          	ld	s0,-8(a1)
    80003ade:	6390                	ld	a2,0(a5)
    80003ae0:	6198                	ld	a4,0(a1)
    80003ae2:	02940433          	mul	s0,s0,s1
    80003ae6:	02c70633          	mul	a2,a4,a2
    80003aea:	957a                	add	a0,a0,t5
    80003aec:	956a                	add	a0,a0,s10
    80003aee:	9522                	add	a0,a0,s0
    80003af0:	9532                	add	a0,a0,a2
    80003af2:	0691                	addi	a3,a3,4
    80003af4:	1781                	addi	a5,a5,-32
    80003af6:	02058593          	addi	a1,a1,32
    80003afa:	fb469fe3          	bne	a3,s4,80003ab8 <main+0x1964>
    80003afe:	4681                	li	a3,0
    80003b00:	4d01                	li	s10,0
    80003b02:	75c2                	ld	a1,48(sp)
    80003b04:	10a5b823          	sd	a0,272(a1)
    80003b08:	150ebf03          	ld	t5,336(t4)
    80003b0c:	f8f2                	sd	t3,112(sp)
    80003b0e:	fc9a                	sd	t1,120(sp)
    80003b10:	e17a                	sd	t5,128(sp)
    80003b12:	e51e                	sd	t2,136(sp)
    80003b14:	e962                	sd	s8,144(sp)
    80003b16:	ed42                	sd	a6,152(sp)
    80003b18:	f15a                	sd	s6,160(sp)
    80003b1a:	f55e                	sd	s7,168(sp)
    80003b1c:	450d                	li	a0,3
    80003b1e:	f92a                	sd	a0,176(sp)
    80003b20:	fd06                	sd	ra,184(sp)
    80003b22:	7526                	ld	a0,104(sp)
    80003b24:	e1aa                	sd	a0,192(sp)
    80003b26:	7506                	ld	a0,96(sp)
    80003b28:	e5aa                	sd	a0,200(sp)
    80003b2a:	6566                	ld	a0,88(sp)
    80003b2c:	e9aa                	sd	a0,208(sp)
    80003b2e:	6546                	ld	a0,80(sp)
    80003b30:	edaa                	sd	a0,216(sp)
    80003b32:	6526                	ld	a0,72(sp)
    80003b34:	f1aa                	sd	a0,224(sp)
    80003b36:	6506                	ld	a0,64(sp)
    80003b38:	f5aa                	sd	a0,232(sp)
    80003b3a:	7562                	ld	a0,56(sp)
    80003b3c:	f9aa                	sd	a0,240(sp)
    80003b3e:	fc000513          	li	a0,-64
    80003b42:	85d6                	mv	a1,s5
    80003b44:	00aa8633          	add	a2,s5,a0
    80003b48:	7618                	ld	a4,40(a2)
    80003b4a:	6e3c                	ld	a5,88(a2)
    80003b4c:	0046c493          	xori	s1,a3,4
    80003b50:	048e                	slli	s1,s1,0x3
    80003b52:	9496                	add	s1,s1,t0
    80003b54:	6084                	ld	s1,0(s1)
    80003b56:	7220                	ld	s0,96(a2)
    80003b58:	02e783b3          	mul	t2,a5,a4
    80003b5c:	029407b3          	mul	a5,s0,s1
    80003b60:	ff85b483          	ld	s1,-8(a1)
    80003b64:	7620                	ld	s0,104(a2)
    80003b66:	6198                	ld	a4,0(a1)
    80003b68:	7a30                	ld	a2,112(a2)
    80003b6a:	02940433          	mul	s0,s0,s1
    80003b6e:	02e60633          	mul	a2,a2,a4
    80003b72:	01a38733          	add	a4,t2,s10
    80003b76:	973e                	add	a4,a4,a5
    80003b78:	9722                	add	a4,a4,s0
    80003b7a:	00c70d33          	add	s10,a4,a2
    80003b7e:	0691                	addi	a3,a3,4
    80003b80:	02050513          	addi	a0,a0,32
    80003b84:	1581                	addi	a1,a1,-32
    80003b86:	fd5d                	bnez	a0,80003b44 <main+0x19f0>
    80003b88:	4081                	li	ra,0
    80003b8a:	7542                	ld	a0,48(sp)
    80003b8c:	11a53c23          	sd	s10,280(a0)
    80003b90:	158eb383          	ld	t2,344(t4)
    80003b94:	f8f2                	sd	t3,112(sp)
    80003b96:	fc9a                	sd	t1,120(sp)
    80003b98:	e17a                	sd	t5,128(sp)
    80003b9a:	e51e                	sd	t2,136(sp)
    80003b9c:	e962                	sd	s8,144(sp)
    80003b9e:	ed42                	sd	a6,152(sp)
    80003ba0:	f15a                	sd	s6,160(sp)
    80003ba2:	f55e                	sd	s7,168(sp)
    80003ba4:	4511                	li	a0,4
    80003ba6:	f92a                	sd	a0,176(sp)
    80003ba8:	7522                	ld	a0,40(sp)
    80003baa:	fd2a                	sd	a0,184(sp)
    80003bac:	7526                	ld	a0,104(sp)
    80003bae:	e1aa                	sd	a0,192(sp)
    80003bb0:	7506                	ld	a0,96(sp)
    80003bb2:	e5aa                	sd	a0,200(sp)
    80003bb4:	6566                	ld	a0,88(sp)
    80003bb6:	e9aa                	sd	a0,208(sp)
    80003bb8:	6546                	ld	a0,80(sp)
    80003bba:	edaa                	sd	a0,216(sp)
    80003bbc:	6526                	ld	a0,72(sp)
    80003bbe:	f1aa                	sd	a0,224(sp)
    80003bc0:	6506                	ld	a0,64(sp)
    80003bc2:	f5aa                	sd	a0,232(sp)
    80003bc4:	7562                	ld	a0,56(sp)
    80003bc6:	f9aa                	sd	a0,240(sp)
    80003bc8:	02000513          	li	a0,32
    80003bcc:	86e6                	mv	a3,s9
    80003bce:	00ac8633          	add	a2,s9,a0
    80003bd2:	fa063703          	ld	a4,-96(a2)
    80003bd6:	fe86b783          	ld	a5,-24(a3)
    80003bda:	fa863403          	ld	s0,-88(a2)
    80003bde:	ff06b483          	ld	s1,-16(a3)
    80003be2:	02e78733          	mul	a4,a5,a4
    80003be6:	028487b3          	mul	a5,s1,s0
    80003bea:	fb063403          	ld	s0,-80(a2)
    80003bee:	ff86b483          	ld	s1,-8(a3)
    80003bf2:	fb863603          	ld	a2,-72(a2)
    80003bf6:	628c                	ld	a1,0(a3)
    80003bf8:	02848433          	mul	s0,s1,s0
    80003bfc:	02c585b3          	mul	a1,a1,a2
    80003c00:	00170633          	add	a2,a4,ra
    80003c04:	963e                	add	a2,a2,a5
    80003c06:	9622                	add	a2,a2,s0
    80003c08:	00b600b3          	add	ra,a2,a1
    80003c0c:	1501                	addi	a0,a0,-32
    80003c0e:	02068693          	addi	a3,a3,32
    80003c12:	fb251ee3          	bne	a0,s2,80003bce <main+0x1a7a>
    80003c16:	4d01                	li	s10,0
    80003c18:	7542                	ld	a0,48(sp)
    80003c1a:	12153023          	sd	ra,288(a0)
    80003c1e:	160ebc03          	ld	s8,352(t4)
    80003c22:	f8f2                	sd	t3,112(sp)
    80003c24:	fc9a                	sd	t1,120(sp)
    80003c26:	e17a                	sd	t5,128(sp)
    80003c28:	e51e                	sd	t2,136(sp)
    80003c2a:	e962                	sd	s8,144(sp)
    80003c2c:	ed42                	sd	a6,152(sp)
    80003c2e:	f15a                	sd	s6,160(sp)
    80003c30:	f55e                	sd	s7,168(sp)
    80003c32:	4515                	li	a0,5
    80003c34:	f92a                	sd	a0,176(sp)
    80003c36:	7522                	ld	a0,40(sp)
    80003c38:	fd2a                	sd	a0,184(sp)
    80003c3a:	7526                	ld	a0,104(sp)
    80003c3c:	e1aa                	sd	a0,192(sp)
    80003c3e:	7506                	ld	a0,96(sp)
    80003c40:	e5aa                	sd	a0,200(sp)
    80003c42:	6566                	ld	a0,88(sp)
    80003c44:	e9aa                	sd	a0,208(sp)
    80003c46:	6546                	ld	a0,80(sp)
    80003c48:	edaa                	sd	a0,216(sp)
    80003c4a:	6526                	ld	a0,72(sp)
    80003c4c:	f1aa                	sd	a0,224(sp)
    80003c4e:	6506                	ld	a0,64(sp)
    80003c50:	f5aa                	sd	a0,232(sp)
    80003c52:	7562                	ld	a0,56(sp)
    80003c54:	f9aa                	sd	a0,240(sp)
    80003c56:	02800593          	li	a1,40
    80003c5a:	06000693          	li	a3,96
    80003c5e:	00b28633          	add	a2,t0,a1
    80003c62:	6218                	ld	a4,0(a2)
    80003c64:	00d287b3          	add	a5,t0,a3
    80003c68:	fe87b483          	ld	s1,-24(a5)
    80003c6c:	6600                	ld	s0,8(a2)
    80003c6e:	ff07b503          	ld	a0,-16(a5)
    80003c72:	02e48733          	mul	a4,s1,a4
    80003c76:	02850533          	mul	a0,a0,s0
    80003c7a:	6a10                	ld	a2,16(a2)
    80003c7c:	ff87b483          	ld	s1,-8(a5)
    80003c80:	fa07b403          	ld	s0,-96(a5)
    80003c84:	639c                	ld	a5,0(a5)
    80003c86:	02c48633          	mul	a2,s1,a2
    80003c8a:	028787b3          	mul	a5,a5,s0
    80003c8e:	976a                	add	a4,a4,s10
    80003c90:	953a                	add	a0,a0,a4
    80003c92:	9532                	add	a0,a0,a2
    80003c94:	00f50d33          	add	s10,a0,a5
    80003c98:	1581                	addi	a1,a1,-32
    80003c9a:	02068693          	addi	a3,a3,32
    80003c9e:	fdb590e3          	bne	a1,s11,80003c5e <main+0x1b0a>
    80003ca2:	4081                	li	ra,0
    80003ca4:	7542                	ld	a0,48(sp)
    80003ca6:	13a53423          	sd	s10,296(a0)
    80003caa:	168eb803          	ld	a6,360(t4)
    80003cae:	f8f2                	sd	t3,112(sp)
    80003cb0:	fc9a                	sd	t1,120(sp)
    80003cb2:	e17a                	sd	t5,128(sp)
    80003cb4:	e51e                	sd	t2,136(sp)
    80003cb6:	e962                	sd	s8,144(sp)
    80003cb8:	ed42                	sd	a6,152(sp)
    80003cba:	f15a                	sd	s6,160(sp)
    80003cbc:	f55e                	sd	s7,168(sp)
    80003cbe:	4519                	li	a0,6
    80003cc0:	f92a                	sd	a0,176(sp)
    80003cc2:	7522                	ld	a0,40(sp)
    80003cc4:	fd2a                	sd	a0,184(sp)
    80003cc6:	7526                	ld	a0,104(sp)
    80003cc8:	e1aa                	sd	a0,192(sp)
    80003cca:	7506                	ld	a0,96(sp)
    80003ccc:	e5aa                	sd	a0,200(sp)
    80003cce:	6566                	ld	a0,88(sp)
    80003cd0:	e9aa                	sd	a0,208(sp)
    80003cd2:	6546                	ld	a0,80(sp)
    80003cd4:	edaa                	sd	a0,216(sp)
    80003cd6:	6526                	ld	a0,72(sp)
    80003cd8:	f1aa                	sd	a0,224(sp)
    80003cda:	6506                	ld	a0,64(sp)
    80003cdc:	f5aa                	sd	a0,232(sp)
    80003cde:	7562                	ld	a0,56(sp)
    80003ce0:	f9aa                	sd	a0,240(sp)
    80003ce2:	fc000513          	li	a0,-64
    80003ce6:	86fe                	mv	a3,t6
    80003ce8:	ff86b603          	ld	a2,-8(a3)
    80003cec:	00aa8733          	add	a4,s5,a0
    80003cf0:	6f3c                	ld	a5,88(a4)
    80003cf2:	6280                	ld	s0,0(a3)
    80003cf4:	7324                	ld	s1,96(a4)
    80003cf6:	02c78633          	mul	a2,a5,a2
    80003cfa:	028487b3          	mul	a5,s1,s0
    80003cfe:	6b00                	ld	s0,16(a4)
    80003d00:	7724                	ld	s1,104(a4)
    80003d02:	6f0c                	ld	a1,24(a4)
    80003d04:	7b38                	ld	a4,112(a4)
    80003d06:	02848433          	mul	s0,s1,s0
    80003d0a:	02b705b3          	mul	a1,a4,a1
    80003d0e:	9606                	add	a2,a2,ra
    80003d10:	963e                	add	a2,a2,a5
    80003d12:	9622                	add	a2,a2,s0
    80003d14:	00b600b3          	add	ra,a2,a1
    80003d18:	02050513          	addi	a0,a0,32
    80003d1c:	1681                	addi	a3,a3,-32
    80003d1e:	f569                	bnez	a0,80003ce8 <main+0x1b94>
    80003d20:	4d01                	li	s10,0
    80003d22:	7542                	ld	a0,48(sp)
    80003d24:	12153823          	sd	ra,304(a0)
    80003d28:	170ebb03          	ld	s6,368(t4)
    80003d2c:	f8f2                	sd	t3,112(sp)
    80003d2e:	fc9a                	sd	t1,120(sp)
    80003d30:	e17a                	sd	t5,128(sp)
    80003d32:	e51e                	sd	t2,136(sp)
    80003d34:	e962                	sd	s8,144(sp)
    80003d36:	ed42                	sd	a6,152(sp)
    80003d38:	f15a                	sd	s6,160(sp)
    80003d3a:	f55e                	sd	s7,168(sp)
    80003d3c:	451d                	li	a0,7
    80003d3e:	f92a                	sd	a0,176(sp)
    80003d40:	70a2                	ld	ra,40(sp)
    80003d42:	fd06                	sd	ra,184(sp)
    80003d44:	7526                	ld	a0,104(sp)
    80003d46:	e1aa                	sd	a0,192(sp)
    80003d48:	7506                	ld	a0,96(sp)
    80003d4a:	e5aa                	sd	a0,200(sp)
    80003d4c:	6566                	ld	a0,88(sp)
    80003d4e:	e9aa                	sd	a0,208(sp)
    80003d50:	6546                	ld	a0,80(sp)
    80003d52:	edaa                	sd	a0,216(sp)
    80003d54:	6526                	ld	a0,72(sp)
    80003d56:	f1aa                	sd	a0,224(sp)
    80003d58:	6506                	ld	a0,64(sp)
    80003d5a:	f5aa                	sd	a0,232(sp)
    80003d5c:	7562                	ld	a0,56(sp)
    80003d5e:	f9aa                	sd	a0,240(sp)
    80003d60:	03800593          	li	a1,56
    80003d64:	06000693          	li	a3,96
    80003d68:	00b28633          	add	a2,t0,a1
    80003d6c:	6210                	ld	a2,0(a2)
    80003d6e:	00d28733          	add	a4,t0,a3
    80003d72:	fe873783          	ld	a5,-24(a4)
    80003d76:	fa073403          	ld	s0,-96(a4)
    80003d7a:	ff073483          	ld	s1,-16(a4)
    80003d7e:	02c78633          	mul	a2,a5,a2
    80003d82:	028487b3          	mul	a5,s1,s0
    80003d86:	fa873403          	ld	s0,-88(a4)
    80003d8a:	ff873483          	ld	s1,-8(a4)
    80003d8e:	fb073503          	ld	a0,-80(a4)
    80003d92:	6318                	ld	a4,0(a4)
    80003d94:	02848433          	mul	s0,s1,s0
    80003d98:	02a70533          	mul	a0,a4,a0
    80003d9c:	966a                	add	a2,a2,s10
    80003d9e:	963e                	add	a2,a2,a5
    80003da0:	9622                	add	a2,a2,s0
    80003da2:	00a60d33          	add	s10,a2,a0
    80003da6:	1581                	addi	a1,a1,-32
    80003da8:	02068693          	addi	a3,a3,32
    80003dac:	fb359ee3          	bne	a1,s3,80003d68 <main+0x1c14>
    80003db0:	4581                	li	a1,0
    80003db2:	7542                	ld	a0,48(sp)
    80003db4:	13a53c23          	sd	s10,312(a0)
    80003db8:	178ebb83          	ld	s7,376(t4)
    80003dbc:	f8f2                	sd	t3,112(sp)
    80003dbe:	fc9a                	sd	t1,120(sp)
    80003dc0:	e17a                	sd	t5,128(sp)
    80003dc2:	e51e                	sd	t2,136(sp)
    80003dc4:	e962                	sd	s8,144(sp)
    80003dc6:	ed42                	sd	a6,152(sp)
    80003dc8:	f15a                	sd	s6,160(sp)
    80003dca:	f55e                	sd	s7,168(sp)
    80003dcc:	f902                	sd	zero,176(sp)
    80003dce:	fd06                	sd	ra,184(sp)
    80003dd0:	7526                	ld	a0,104(sp)
    80003dd2:	e1aa                	sd	a0,192(sp)
    80003dd4:	7506                	ld	a0,96(sp)
    80003dd6:	e5aa                	sd	a0,200(sp)
    80003dd8:	6566                	ld	a0,88(sp)
    80003dda:	e9aa                	sd	a0,208(sp)
    80003ddc:	6546                	ld	a0,80(sp)
    80003dde:	edaa                	sd	a0,216(sp)
    80003de0:	6526                	ld	a0,72(sp)
    80003de2:	f1aa                	sd	a0,224(sp)
    80003de4:	6506                	ld	a0,64(sp)
    80003de6:	f5aa                	sd	a0,232(sp)
    80003de8:	7562                	ld	a0,56(sp)
    80003dea:	f9aa                	sd	a0,240(sp)
    80003dec:	4541                	li	a0,16
    80003dee:	05000e13          	li	t3,80
    80003df2:	00a28633          	add	a2,t0,a0
    80003df6:	ff063683          	ld	a3,-16(a2)
    80003dfa:	7e18                	ld	a4,56(a2)
    80003dfc:	02d706b3          	mul	a3,a4,a3
    80003e00:	ff863703          	ld	a4,-8(a2)
    80003e04:	623c                	ld	a5,64(a2)
    80003e06:	6204                	ld	s1,0(a2)
    80003e08:	6620                	ld	s0,72(a2)
    80003e0a:	02e78733          	mul	a4,a5,a4
    80003e0e:	029407b3          	mul	a5,s0,s1
    80003e12:	6604                	ld	s1,8(a2)
    80003e14:	6a30                	ld	a2,80(a2)
    80003e16:	95b6                	add	a1,a1,a3
    80003e18:	02960633          	mul	a2,a2,s1
    80003e1c:	95ba                	add	a1,a1,a4
    80003e1e:	95be                	add	a1,a1,a5
    80003e20:	02050513          	addi	a0,a0,32
    80003e24:	95b2                	add	a1,a1,a2
    80003e26:	fdc516e3          	bne	a0,t3,80003df2 <main+0x1c9e>
    80003e2a:	4681                	li	a3,0
    80003e2c:	4501                	li	a0,0
    80003e2e:	180ebe03          	ld	t3,384(t4)
    80003e32:	7642                	ld	a2,48(sp)
    80003e34:	14b63023          	sd	a1,320(a2)
    80003e38:	f8f2                	sd	t3,112(sp)
    80003e3a:	fc9a                	sd	t1,120(sp)
    80003e3c:	e17a                	sd	t5,128(sp)
    80003e3e:	e51e                	sd	t2,136(sp)
    80003e40:	e962                	sd	s8,144(sp)
    80003e42:	ed42                	sd	a6,152(sp)
    80003e44:	f15a                	sd	s6,160(sp)
    80003e46:	f55e                	sd	s7,168(sp)
    80003e48:	4585                	li	a1,1
    80003e4a:	f92e                	sd	a1,176(sp)
    80003e4c:	fd06                	sd	ra,184(sp)
    80003e4e:	75a6                	ld	a1,104(sp)
    80003e50:	e1ae                	sd	a1,192(sp)
    80003e52:	7586                	ld	a1,96(sp)
    80003e54:	e5ae                	sd	a1,200(sp)
    80003e56:	65e6                	ld	a1,88(sp)
    80003e58:	e9ae                	sd	a1,208(sp)
    80003e5a:	65c6                	ld	a1,80(sp)
    80003e5c:	edae                	sd	a1,216(sp)
    80003e5e:	65a6                	ld	a1,72(sp)
    80003e60:	f1ae                	sd	a1,224(sp)
    80003e62:	6586                	ld	a1,64(sp)
    80003e64:	f5ae                	sd	a1,232(sp)
    80003e66:	75e2                	ld	a1,56(sp)
    80003e68:	f9ae                	sd	a1,240(sp)
    80003e6a:	192c                	addi	a1,sp,184
    80003e6c:	fc05b603          	ld	a2,-64(a1)
    80003e70:	6198                	ld	a4,0(a1)
    80003e72:	fc85b783          	ld	a5,-56(a1)
    80003e76:	6584                	ld	s1,8(a1)
    80003e78:	02c70333          	mul	t1,a4,a2
    80003e7c:	02f48733          	mul	a4,s1,a5
    80003e80:	fd05b783          	ld	a5,-48(a1)
    80003e84:	6984                	ld	s1,16(a1)
    80003e86:	0046c413          	xori	s0,a3,4
    80003e8a:	040e                	slli	s0,s0,0x3
    80003e8c:	9416                	add	s0,s0,t0
    80003e8e:	6000                	ld	s0,0(s0)
    80003e90:	6d90                	ld	a2,24(a1)
    80003e92:	02f487b3          	mul	a5,s1,a5
    80003e96:	02860633          	mul	a2,a2,s0
    80003e9a:	951a                	add	a0,a0,t1
    80003e9c:	953a                	add	a0,a0,a4
    80003e9e:	953e                	add	a0,a0,a5
    80003ea0:	9532                	add	a0,a0,a2
    80003ea2:	0691                	addi	a3,a3,4
    80003ea4:	02058593          	addi	a1,a1,32
    80003ea8:	fd4692e3          	bne	a3,s4,80003e6c <main+0x1d18>
    80003eac:	4681                	li	a3,0
    80003eae:	4401                	li	s0,0
    80003eb0:	75c2                	ld	a1,48(sp)
    80003eb2:	14a5b423          	sd	a0,328(a1)
    80003eb6:	188eb303          	ld	t1,392(t4)
    80003eba:	f8f2                	sd	t3,112(sp)
    80003ebc:	fc9a                	sd	t1,120(sp)
    80003ebe:	e17a                	sd	t5,128(sp)
    80003ec0:	e51e                	sd	t2,136(sp)
    80003ec2:	e962                	sd	s8,144(sp)
    80003ec4:	ed42                	sd	a6,152(sp)
    80003ec6:	f15a                	sd	s6,160(sp)
    80003ec8:	f55e                	sd	s7,168(sp)
    80003eca:	4509                	li	a0,2
    80003ecc:	f92a                	sd	a0,176(sp)
    80003ece:	fd06                	sd	ra,184(sp)
    80003ed0:	7526                	ld	a0,104(sp)
    80003ed2:	e1aa                	sd	a0,192(sp)
    80003ed4:	7506                	ld	a0,96(sp)
    80003ed6:	e5aa                	sd	a0,200(sp)
    80003ed8:	6566                	ld	a0,88(sp)
    80003eda:	e9aa                	sd	a0,208(sp)
    80003edc:	6546                	ld	a0,80(sp)
    80003ede:	edaa                	sd	a0,216(sp)
    80003ee0:	6526                	ld	a0,72(sp)
    80003ee2:	f1aa                	sd	a0,224(sp)
    80003ee4:	6506                	ld	a0,64(sp)
    80003ee6:	f5aa                	sd	a0,232(sp)
    80003ee8:	7562                	ld	a0,56(sp)
    80003eea:	f9aa                	sd	a0,240(sp)
    80003eec:	8566                	mv	a0,s9
    80003eee:	092c                	addi	a1,sp,152
    80003ef0:	fb053603          	ld	a2,-80(a0)
    80003ef4:	fe853703          	ld	a4,-24(a0)
    80003ef8:	fb853783          	ld	a5,-72(a0)
    80003efc:	ff053483          	ld	s1,-16(a0)
    80003f00:	02c70f33          	mul	t5,a4,a2
    80003f04:	02f48d33          	mul	s10,s1,a5
    80003f08:	0046c793          	xori	a5,a3,4
    80003f0c:	078e                	slli	a5,a5,0x3
    80003f0e:	9796                	add	a5,a5,t0
    80003f10:	639c                	ld	a5,0(a5)
    80003f12:	ff853483          	ld	s1,-8(a0)
    80003f16:	6190                	ld	a2,0(a1)
    80003f18:	6118                	ld	a4,0(a0)
    80003f1a:	02f487b3          	mul	a5,s1,a5
    80003f1e:	02c70633          	mul	a2,a4,a2
    80003f22:	008f0733          	add	a4,t5,s0
    80003f26:	976a                	add	a4,a4,s10
    80003f28:	973e                	add	a4,a4,a5
    80003f2a:	00c70433          	add	s0,a4,a2
    80003f2e:	0691                	addi	a3,a3,4
    80003f30:	1581                	addi	a1,a1,-32
    80003f32:	02050513          	addi	a0,a0,32
    80003f36:	fb469de3          	bne	a3,s4,80003ef0 <main+0x1d9c>
    80003f3a:	4681                	li	a3,0
    80003f3c:	4d01                	li	s10,0
    80003f3e:	7542                	ld	a0,48(sp)
    80003f40:	14853823          	sd	s0,336(a0)
    80003f44:	190ebf03          	ld	t5,400(t4)
    80003f48:	f8f2                	sd	t3,112(sp)
    80003f4a:	fc9a                	sd	t1,120(sp)
    80003f4c:	e17a                	sd	t5,128(sp)
    80003f4e:	e51e                	sd	t2,136(sp)
    80003f50:	e962                	sd	s8,144(sp)
    80003f52:	ed42                	sd	a6,152(sp)
    80003f54:	f15a                	sd	s6,160(sp)
    80003f56:	f55e                	sd	s7,168(sp)
    80003f58:	450d                	li	a0,3
    80003f5a:	f92a                	sd	a0,176(sp)
    80003f5c:	fd06                	sd	ra,184(sp)
    80003f5e:	7526                	ld	a0,104(sp)
    80003f60:	e1aa                	sd	a0,192(sp)
    80003f62:	7506                	ld	a0,96(sp)
    80003f64:	e5aa                	sd	a0,200(sp)
    80003f66:	6566                	ld	a0,88(sp)
    80003f68:	e9aa                	sd	a0,208(sp)
    80003f6a:	6546                	ld	a0,80(sp)
    80003f6c:	edaa                	sd	a0,216(sp)
    80003f6e:	6526                	ld	a0,72(sp)
    80003f70:	f1aa                	sd	a0,224(sp)
    80003f72:	6506                	ld	a0,64(sp)
    80003f74:	f5aa                	sd	a0,232(sp)
    80003f76:	7562                	ld	a0,56(sp)
    80003f78:	f9aa                	sd	a0,240(sp)
    80003f7a:	fc000593          	li	a1,-64
    80003f7e:	8456                	mv	s0,s5
    80003f80:	00ba8633          	add	a2,s5,a1
    80003f84:	7618                	ld	a4,40(a2)
    80003f86:	6e3c                	ld	a5,88(a2)
    80003f88:	0046c493          	xori	s1,a3,4
    80003f8c:	048e                	slli	s1,s1,0x3
    80003f8e:	9496                	add	s1,s1,t0
    80003f90:	6084                	ld	s1,0(s1)
    80003f92:	7228                	ld	a0,96(a2)
    80003f94:	02e78733          	mul	a4,a5,a4
    80003f98:	029503b3          	mul	t2,a0,s1
    80003f9c:	ff843783          	ld	a5,-8(s0)
    80003fa0:	7624                	ld	s1,104(a2)
    80003fa2:	6008                	ld	a0,0(s0)
    80003fa4:	7a30                	ld	a2,112(a2)
    80003fa6:	02f487b3          	mul	a5,s1,a5
    80003faa:	02a60533          	mul	a0,a2,a0
    80003fae:	01a70633          	add	a2,a4,s10
    80003fb2:	961e                	add	a2,a2,t2
    80003fb4:	963e                	add	a2,a2,a5
    80003fb6:	00a60d33          	add	s10,a2,a0
    80003fba:	0691                	addi	a3,a3,4
    80003fbc:	02058593          	addi	a1,a1,32
    80003fc0:	1401                	addi	s0,s0,-32
    80003fc2:	fddd                	bnez	a1,80003f80 <main+0x1e2c>
    80003fc4:	4081                	li	ra,0
    80003fc6:	7542                	ld	a0,48(sp)
    80003fc8:	15a53c23          	sd	s10,344(a0)
    80003fcc:	198eb383          	ld	t2,408(t4)
    80003fd0:	f8f2                	sd	t3,112(sp)
    80003fd2:	fc9a                	sd	t1,120(sp)
    80003fd4:	e17a                	sd	t5,128(sp)
    80003fd6:	e51e                	sd	t2,136(sp)
    80003fd8:	e962                	sd	s8,144(sp)
    80003fda:	ed42                	sd	a6,152(sp)
    80003fdc:	f15a                	sd	s6,160(sp)
    80003fde:	f55e                	sd	s7,168(sp)
    80003fe0:	4511                	li	a0,4
    80003fe2:	f92a                	sd	a0,176(sp)
    80003fe4:	7522                	ld	a0,40(sp)
    80003fe6:	fd2a                	sd	a0,184(sp)
    80003fe8:	7526                	ld	a0,104(sp)
    80003fea:	e1aa                	sd	a0,192(sp)
    80003fec:	7506                	ld	a0,96(sp)
    80003fee:	e5aa                	sd	a0,200(sp)
    80003ff0:	6566                	ld	a0,88(sp)
    80003ff2:	e9aa                	sd	a0,208(sp)
    80003ff4:	6546                	ld	a0,80(sp)
    80003ff6:	edaa                	sd	a0,216(sp)
    80003ff8:	6526                	ld	a0,72(sp)
    80003ffa:	f1aa                	sd	a0,224(sp)
    80003ffc:	6506                	ld	a0,64(sp)
    80003ffe:	f5aa                	sd	a0,232(sp)
    80004000:	7562                	ld	a0,56(sp)
    80004002:	f9aa                	sd	a0,240(sp)
    80004004:	02000513          	li	a0,32
    80004008:	86e6                	mv	a3,s9
    8000400a:	00ac8633          	add	a2,s9,a0
    8000400e:	fa063703          	ld	a4,-96(a2)
    80004012:	fe86b783          	ld	a5,-24(a3)
    80004016:	fa863403          	ld	s0,-88(a2)
    8000401a:	ff06b483          	ld	s1,-16(a3)
    8000401e:	02e78733          	mul	a4,a5,a4
    80004022:	028487b3          	mul	a5,s1,s0
    80004026:	fb063403          	ld	s0,-80(a2)
    8000402a:	ff86b483          	ld	s1,-8(a3)
    8000402e:	fb863603          	ld	a2,-72(a2)
    80004032:	628c                	ld	a1,0(a3)
    80004034:	02848433          	mul	s0,s1,s0
    80004038:	02c585b3          	mul	a1,a1,a2
    8000403c:	00170633          	add	a2,a4,ra
    80004040:	963e                	add	a2,a2,a5
    80004042:	9622                	add	a2,a2,s0
    80004044:	00b600b3          	add	ra,a2,a1
    80004048:	1501                	addi	a0,a0,-32
    8000404a:	02068693          	addi	a3,a3,32
    8000404e:	fb251ee3          	bne	a0,s2,8000400a <main+0x1eb6>
    80004052:	4d01                	li	s10,0
    80004054:	7542                	ld	a0,48(sp)
    80004056:	16153023          	sd	ra,352(a0)
    8000405a:	1a0ebc03          	ld	s8,416(t4)
    8000405e:	f8f2                	sd	t3,112(sp)
    80004060:	fc9a                	sd	t1,120(sp)
    80004062:	e17a                	sd	t5,128(sp)
    80004064:	e51e                	sd	t2,136(sp)
    80004066:	e962                	sd	s8,144(sp)
    80004068:	ed42                	sd	a6,152(sp)
    8000406a:	f15a                	sd	s6,160(sp)
    8000406c:	f55e                	sd	s7,168(sp)
    8000406e:	4515                	li	a0,5
    80004070:	f92a                	sd	a0,176(sp)
    80004072:	7522                	ld	a0,40(sp)
    80004074:	fd2a                	sd	a0,184(sp)
    80004076:	7526                	ld	a0,104(sp)
    80004078:	e1aa                	sd	a0,192(sp)
    8000407a:	7506                	ld	a0,96(sp)
    8000407c:	e5aa                	sd	a0,200(sp)
    8000407e:	6566                	ld	a0,88(sp)
    80004080:	e9aa                	sd	a0,208(sp)
    80004082:	6546                	ld	a0,80(sp)
    80004084:	edaa                	sd	a0,216(sp)
    80004086:	6526                	ld	a0,72(sp)
    80004088:	f1aa                	sd	a0,224(sp)
    8000408a:	6506                	ld	a0,64(sp)
    8000408c:	f5aa                	sd	a0,232(sp)
    8000408e:	7562                	ld	a0,56(sp)
    80004090:	f9aa                	sd	a0,240(sp)
    80004092:	02800593          	li	a1,40
    80004096:	06000693          	li	a3,96
    8000409a:	00b28633          	add	a2,t0,a1
    8000409e:	6218                	ld	a4,0(a2)
    800040a0:	00d287b3          	add	a5,t0,a3
    800040a4:	fe87b483          	ld	s1,-24(a5)
    800040a8:	6600                	ld	s0,8(a2)
    800040aa:	ff07b503          	ld	a0,-16(a5)
    800040ae:	02e48733          	mul	a4,s1,a4
    800040b2:	02850533          	mul	a0,a0,s0
    800040b6:	6a10                	ld	a2,16(a2)
    800040b8:	ff87b483          	ld	s1,-8(a5)
    800040bc:	fa07b403          	ld	s0,-96(a5)
    800040c0:	639c                	ld	a5,0(a5)
    800040c2:	02c48633          	mul	a2,s1,a2
    800040c6:	028787b3          	mul	a5,a5,s0
    800040ca:	976a                	add	a4,a4,s10
    800040cc:	953a                	add	a0,a0,a4
    800040ce:	9532                	add	a0,a0,a2
    800040d0:	00f50d33          	add	s10,a0,a5
    800040d4:	1581                	addi	a1,a1,-32
    800040d6:	02068693          	addi	a3,a3,32
    800040da:	fdb590e3          	bne	a1,s11,8000409a <main+0x1f46>
    800040de:	4081                	li	ra,0
    800040e0:	7542                	ld	a0,48(sp)
    800040e2:	17a53423          	sd	s10,360(a0)
    800040e6:	1a8eb803          	ld	a6,424(t4)
    800040ea:	f8f2                	sd	t3,112(sp)
    800040ec:	fc9a                	sd	t1,120(sp)
    800040ee:	e17a                	sd	t5,128(sp)
    800040f0:	e51e                	sd	t2,136(sp)
    800040f2:	e962                	sd	s8,144(sp)
    800040f4:	ed42                	sd	a6,152(sp)
    800040f6:	f15a                	sd	s6,160(sp)
    800040f8:	f55e                	sd	s7,168(sp)
    800040fa:	4519                	li	a0,6
    800040fc:	f92a                	sd	a0,176(sp)
    800040fe:	7522                	ld	a0,40(sp)
    80004100:	fd2a                	sd	a0,184(sp)
    80004102:	7526                	ld	a0,104(sp)
    80004104:	e1aa                	sd	a0,192(sp)
    80004106:	7506                	ld	a0,96(sp)
    80004108:	e5aa                	sd	a0,200(sp)
    8000410a:	6566                	ld	a0,88(sp)
    8000410c:	e9aa                	sd	a0,208(sp)
    8000410e:	6546                	ld	a0,80(sp)
    80004110:	edaa                	sd	a0,216(sp)
    80004112:	6526                	ld	a0,72(sp)
    80004114:	f1aa                	sd	a0,224(sp)
    80004116:	6506                	ld	a0,64(sp)
    80004118:	f5aa                	sd	a0,232(sp)
    8000411a:	7562                	ld	a0,56(sp)
    8000411c:	f9aa                	sd	a0,240(sp)
    8000411e:	fc000513          	li	a0,-64
    80004122:	86fe                	mv	a3,t6
    80004124:	ff86b603          	ld	a2,-8(a3)
    80004128:	00aa8733          	add	a4,s5,a0
    8000412c:	6f3c                	ld	a5,88(a4)
    8000412e:	6280                	ld	s0,0(a3)
    80004130:	7324                	ld	s1,96(a4)
    80004132:	02c78633          	mul	a2,a5,a2
    80004136:	028487b3          	mul	a5,s1,s0
    8000413a:	6b00                	ld	s0,16(a4)
    8000413c:	7724                	ld	s1,104(a4)
    8000413e:	6f0c                	ld	a1,24(a4)
    80004140:	7b38                	ld	a4,112(a4)
    80004142:	02848433          	mul	s0,s1,s0
    80004146:	02b705b3          	mul	a1,a4,a1
    8000414a:	9606                	add	a2,a2,ra
    8000414c:	963e                	add	a2,a2,a5
    8000414e:	9622                	add	a2,a2,s0
    80004150:	00b600b3          	add	ra,a2,a1
    80004154:	02050513          	addi	a0,a0,32
    80004158:	1681                	addi	a3,a3,-32
    8000415a:	f569                	bnez	a0,80004124 <main+0x1fd0>
    8000415c:	4d01                	li	s10,0
    8000415e:	7542                	ld	a0,48(sp)
    80004160:	16153823          	sd	ra,368(a0)
    80004164:	1b0ebb03          	ld	s6,432(t4)
    80004168:	f8f2                	sd	t3,112(sp)
    8000416a:	fc9a                	sd	t1,120(sp)
    8000416c:	e17a                	sd	t5,128(sp)
    8000416e:	e51e                	sd	t2,136(sp)
    80004170:	e962                	sd	s8,144(sp)
    80004172:	ed42                	sd	a6,152(sp)
    80004174:	f15a                	sd	s6,160(sp)
    80004176:	f55e                	sd	s7,168(sp)
    80004178:	451d                	li	a0,7
    8000417a:	f92a                	sd	a0,176(sp)
    8000417c:	70a2                	ld	ra,40(sp)
    8000417e:	fd06                	sd	ra,184(sp)
    80004180:	7526                	ld	a0,104(sp)
    80004182:	e1aa                	sd	a0,192(sp)
    80004184:	7506                	ld	a0,96(sp)
    80004186:	e5aa                	sd	a0,200(sp)
    80004188:	6566                	ld	a0,88(sp)
    8000418a:	e9aa                	sd	a0,208(sp)
    8000418c:	6546                	ld	a0,80(sp)
    8000418e:	edaa                	sd	a0,216(sp)
    80004190:	6526                	ld	a0,72(sp)
    80004192:	f1aa                	sd	a0,224(sp)
    80004194:	6506                	ld	a0,64(sp)
    80004196:	f5aa                	sd	a0,232(sp)
    80004198:	7562                	ld	a0,56(sp)
    8000419a:	f9aa                	sd	a0,240(sp)
    8000419c:	03800593          	li	a1,56
    800041a0:	06000693          	li	a3,96
    800041a4:	00b28633          	add	a2,t0,a1
    800041a8:	6210                	ld	a2,0(a2)
    800041aa:	00d28733          	add	a4,t0,a3
    800041ae:	fe873783          	ld	a5,-24(a4)
    800041b2:	fa073403          	ld	s0,-96(a4)
    800041b6:	ff073483          	ld	s1,-16(a4)
    800041ba:	02c78633          	mul	a2,a5,a2
    800041be:	028487b3          	mul	a5,s1,s0
    800041c2:	fa873403          	ld	s0,-88(a4)
    800041c6:	ff873483          	ld	s1,-8(a4)
    800041ca:	fb073503          	ld	a0,-80(a4)
    800041ce:	6318                	ld	a4,0(a4)
    800041d0:	02848433          	mul	s0,s1,s0
    800041d4:	02a70533          	mul	a0,a4,a0
    800041d8:	966a                	add	a2,a2,s10
    800041da:	963e                	add	a2,a2,a5
    800041dc:	9622                	add	a2,a2,s0
    800041de:	00a60d33          	add	s10,a2,a0
    800041e2:	1581                	addi	a1,a1,-32
    800041e4:	02068693          	addi	a3,a3,32
    800041e8:	fb359ee3          	bne	a1,s3,800041a4 <main+0x2050>
    800041ec:	4581                	li	a1,0
    800041ee:	7542                	ld	a0,48(sp)
    800041f0:	17a53c23          	sd	s10,376(a0)
    800041f4:	1b8ebb83          	ld	s7,440(t4)
    800041f8:	f8f2                	sd	t3,112(sp)
    800041fa:	fc9a                	sd	t1,120(sp)
    800041fc:	e17a                	sd	t5,128(sp)
    800041fe:	e51e                	sd	t2,136(sp)
    80004200:	e962                	sd	s8,144(sp)
    80004202:	ed42                	sd	a6,152(sp)
    80004204:	f15a                	sd	s6,160(sp)
    80004206:	f55e                	sd	s7,168(sp)
    80004208:	f902                	sd	zero,176(sp)
    8000420a:	fd06                	sd	ra,184(sp)
    8000420c:	7526                	ld	a0,104(sp)
    8000420e:	e1aa                	sd	a0,192(sp)
    80004210:	7506                	ld	a0,96(sp)
    80004212:	e5aa                	sd	a0,200(sp)
    80004214:	6566                	ld	a0,88(sp)
    80004216:	e9aa                	sd	a0,208(sp)
    80004218:	6546                	ld	a0,80(sp)
    8000421a:	edaa                	sd	a0,216(sp)
    8000421c:	6526                	ld	a0,72(sp)
    8000421e:	f1aa                	sd	a0,224(sp)
    80004220:	6506                	ld	a0,64(sp)
    80004222:	f5aa                	sd	a0,232(sp)
    80004224:	7562                	ld	a0,56(sp)
    80004226:	f9aa                	sd	a0,240(sp)
    80004228:	4541                	li	a0,16
    8000422a:	05000e13          	li	t3,80
    8000422e:	00a28633          	add	a2,t0,a0
    80004232:	ff063683          	ld	a3,-16(a2)
    80004236:	7e18                	ld	a4,56(a2)
    80004238:	02d706b3          	mul	a3,a4,a3
    8000423c:	ff863703          	ld	a4,-8(a2)
    80004240:	623c                	ld	a5,64(a2)
    80004242:	6204                	ld	s1,0(a2)
    80004244:	6620                	ld	s0,72(a2)
    80004246:	02e78733          	mul	a4,a5,a4
    8000424a:	029407b3          	mul	a5,s0,s1
    8000424e:	6604                	ld	s1,8(a2)
    80004250:	6a30                	ld	a2,80(a2)
    80004252:	95b6                	add	a1,a1,a3
    80004254:	02960633          	mul	a2,a2,s1
    80004258:	95ba                	add	a1,a1,a4
    8000425a:	95be                	add	a1,a1,a5
    8000425c:	02050513          	addi	a0,a0,32
    80004260:	95b2                	add	a1,a1,a2
    80004262:	fdc516e3          	bne	a0,t3,8000422e <main+0x20da>
    80004266:	4501                	li	a0,0
    80004268:	4401                	li	s0,0
    8000426a:	1c0ebe03          	ld	t3,448(t4)
    8000426e:	7642                	ld	a2,48(sp)
    80004270:	18b63023          	sd	a1,384(a2)
    80004274:	f8f2                	sd	t3,112(sp)
    80004276:	fc9a                	sd	t1,120(sp)
    80004278:	e17a                	sd	t5,128(sp)
    8000427a:	e51e                	sd	t2,136(sp)
    8000427c:	e962                	sd	s8,144(sp)
    8000427e:	ed42                	sd	a6,152(sp)
    80004280:	f15a                	sd	s6,160(sp)
    80004282:	f55e                	sd	s7,168(sp)
    80004284:	4585                	li	a1,1
    80004286:	f92e                	sd	a1,176(sp)
    80004288:	fd06                	sd	ra,184(sp)
    8000428a:	75a6                	ld	a1,104(sp)
    8000428c:	e1ae                	sd	a1,192(sp)
    8000428e:	7586                	ld	a1,96(sp)
    80004290:	e5ae                	sd	a1,200(sp)
    80004292:	65e6                	ld	a1,88(sp)
    80004294:	e9ae                	sd	a1,208(sp)
    80004296:	65c6                	ld	a1,80(sp)
    80004298:	edae                	sd	a1,216(sp)
    8000429a:	65a6                	ld	a1,72(sp)
    8000429c:	f1ae                	sd	a1,224(sp)
    8000429e:	6586                	ld	a1,64(sp)
    800042a0:	f5ae                	sd	a1,232(sp)
    800042a2:	75e2                	ld	a1,56(sp)
    800042a4:	f9ae                	sd	a1,240(sp)
    800042a6:	192c                	addi	a1,sp,184
    800042a8:	fc05b603          	ld	a2,-64(a1)
    800042ac:	6194                	ld	a3,0(a1)
    800042ae:	fc85b703          	ld	a4,-56(a1)
    800042b2:	659c                	ld	a5,8(a1)
    800042b4:	02c68333          	mul	t1,a3,a2
    800042b8:	02e786b3          	mul	a3,a5,a4
    800042bc:	fd05b703          	ld	a4,-48(a1)
    800042c0:	699c                	ld	a5,16(a1)
    800042c2:	00454493          	xori	s1,a0,4
    800042c6:	048e                	slli	s1,s1,0x3
    800042c8:	9496                	add	s1,s1,t0
    800042ca:	6084                	ld	s1,0(s1)
    800042cc:	6d90                	ld	a2,24(a1)
    800042ce:	02e78733          	mul	a4,a5,a4
    800042d2:	02960633          	mul	a2,a2,s1
    800042d6:	008307b3          	add	a5,t1,s0
    800042da:	96be                	add	a3,a3,a5
    800042dc:	96ba                	add	a3,a3,a4
    800042de:	00c68433          	add	s0,a3,a2
    800042e2:	0511                	addi	a0,a0,4
    800042e4:	02058593          	addi	a1,a1,32
    800042e8:	fd4510e3          	bne	a0,s4,800042a8 <main+0x2154>
    800042ec:	4681                	li	a3,0
    800042ee:	4501                	li	a0,0
    800042f0:	75c2                	ld	a1,48(sp)
    800042f2:	1885b423          	sd	s0,392(a1)
    800042f6:	1c8eb303          	ld	t1,456(t4)
    800042fa:	f8f2                	sd	t3,112(sp)
    800042fc:	fc9a                	sd	t1,120(sp)
    800042fe:	e17a                	sd	t5,128(sp)
    80004300:	e51e                	sd	t2,136(sp)
    80004302:	e962                	sd	s8,144(sp)
    80004304:	ed42                	sd	a6,152(sp)
    80004306:	f15a                	sd	s6,160(sp)
    80004308:	f55e                	sd	s7,168(sp)
    8000430a:	4589                	li	a1,2
    8000430c:	f92e                	sd	a1,176(sp)
    8000430e:	fd06                	sd	ra,184(sp)
    80004310:	75a6                	ld	a1,104(sp)
    80004312:	e1ae                	sd	a1,192(sp)
    80004314:	7586                	ld	a1,96(sp)
    80004316:	e5ae                	sd	a1,200(sp)
    80004318:	65e6                	ld	a1,88(sp)
    8000431a:	e9ae                	sd	a1,208(sp)
    8000431c:	65c6                	ld	a1,80(sp)
    8000431e:	edae                	sd	a1,216(sp)
    80004320:	65a6                	ld	a1,72(sp)
    80004322:	f1ae                	sd	a1,224(sp)
    80004324:	6586                	ld	a1,64(sp)
    80004326:	f5ae                	sd	a1,232(sp)
    80004328:	75e2                	ld	a1,56(sp)
    8000432a:	f9ae                	sd	a1,240(sp)
    8000432c:	85e6                	mv	a1,s9
    8000432e:	093c                	addi	a5,sp,152
    80004330:	fb05b603          	ld	a2,-80(a1)
    80004334:	fe85b703          	ld	a4,-24(a1)
    80004338:	fb85b483          	ld	s1,-72(a1)
    8000433c:	ff05b403          	ld	s0,-16(a1)
    80004340:	02c70f33          	mul	t5,a4,a2
    80004344:	02940d33          	mul	s10,s0,s1
    80004348:	0046c493          	xori	s1,a3,4
    8000434c:	048e                	slli	s1,s1,0x3
    8000434e:	9496                	add	s1,s1,t0
    80004350:	6084                	ld	s1,0(s1)
    80004352:	ff85b403          	ld	s0,-8(a1)
    80004356:	6390                	ld	a2,0(a5)
    80004358:	6198                	ld	a4,0(a1)
    8000435a:	02940433          	mul	s0,s0,s1
    8000435e:	02c70633          	mul	a2,a4,a2
    80004362:	957a                	add	a0,a0,t5
    80004364:	956a                	add	a0,a0,s10
    80004366:	9522                	add	a0,a0,s0
    80004368:	9532                	add	a0,a0,a2
    8000436a:	0691                	addi	a3,a3,4
    8000436c:	1781                	addi	a5,a5,-32
    8000436e:	02058593          	addi	a1,a1,32
    80004372:	fb469fe3          	bne	a3,s4,80004330 <main+0x21dc>
    80004376:	4681                	li	a3,0
    80004378:	4d01                	li	s10,0
    8000437a:	75c2                	ld	a1,48(sp)
    8000437c:	18a5b823          	sd	a0,400(a1)
    80004380:	1d0ebf03          	ld	t5,464(t4)
    80004384:	f8f2                	sd	t3,112(sp)
    80004386:	fc9a                	sd	t1,120(sp)
    80004388:	e17a                	sd	t5,128(sp)
    8000438a:	e51e                	sd	t2,136(sp)
    8000438c:	e962                	sd	s8,144(sp)
    8000438e:	ed42                	sd	a6,152(sp)
    80004390:	f15a                	sd	s6,160(sp)
    80004392:	f55e                	sd	s7,168(sp)
    80004394:	450d                	li	a0,3
    80004396:	f92a                	sd	a0,176(sp)
    80004398:	fd06                	sd	ra,184(sp)
    8000439a:	7526                	ld	a0,104(sp)
    8000439c:	e1aa                	sd	a0,192(sp)
    8000439e:	7506                	ld	a0,96(sp)
    800043a0:	e5aa                	sd	a0,200(sp)
    800043a2:	6566                	ld	a0,88(sp)
    800043a4:	e9aa                	sd	a0,208(sp)
    800043a6:	6546                	ld	a0,80(sp)
    800043a8:	edaa                	sd	a0,216(sp)
    800043aa:	6526                	ld	a0,72(sp)
    800043ac:	f1aa                	sd	a0,224(sp)
    800043ae:	6506                	ld	a0,64(sp)
    800043b0:	f5aa                	sd	a0,232(sp)
    800043b2:	7562                	ld	a0,56(sp)
    800043b4:	f9aa                	sd	a0,240(sp)
    800043b6:	fc000513          	li	a0,-64
    800043ba:	85d6                	mv	a1,s5
    800043bc:	00aa8633          	add	a2,s5,a0
    800043c0:	7618                	ld	a4,40(a2)
    800043c2:	6e3c                	ld	a5,88(a2)
    800043c4:	0046c493          	xori	s1,a3,4
    800043c8:	048e                	slli	s1,s1,0x3
    800043ca:	9496                	add	s1,s1,t0
    800043cc:	6084                	ld	s1,0(s1)
    800043ce:	7220                	ld	s0,96(a2)
    800043d0:	02e783b3          	mul	t2,a5,a4
    800043d4:	029407b3          	mul	a5,s0,s1
    800043d8:	ff85b483          	ld	s1,-8(a1)
    800043dc:	7620                	ld	s0,104(a2)
    800043de:	6198                	ld	a4,0(a1)
    800043e0:	7a30                	ld	a2,112(a2)
    800043e2:	02940433          	mul	s0,s0,s1
    800043e6:	02e60633          	mul	a2,a2,a4
    800043ea:	01a38733          	add	a4,t2,s10
    800043ee:	973e                	add	a4,a4,a5
    800043f0:	9722                	add	a4,a4,s0
    800043f2:	00c70d33          	add	s10,a4,a2
    800043f6:	0691                	addi	a3,a3,4
    800043f8:	02050513          	addi	a0,a0,32
    800043fc:	1581                	addi	a1,a1,-32
    800043fe:	fd5d                	bnez	a0,800043bc <main+0x2268>
    80004400:	4081                	li	ra,0
    80004402:	7542                	ld	a0,48(sp)
    80004404:	19a53c23          	sd	s10,408(a0)
    80004408:	1d8eb383          	ld	t2,472(t4)
    8000440c:	f8f2                	sd	t3,112(sp)
    8000440e:	fc9a                	sd	t1,120(sp)
    80004410:	e17a                	sd	t5,128(sp)
    80004412:	e51e                	sd	t2,136(sp)
    80004414:	e962                	sd	s8,144(sp)
    80004416:	ed42                	sd	a6,152(sp)
    80004418:	f15a                	sd	s6,160(sp)
    8000441a:	f55e                	sd	s7,168(sp)
    8000441c:	4511                	li	a0,4
    8000441e:	f92a                	sd	a0,176(sp)
    80004420:	7522                	ld	a0,40(sp)
    80004422:	fd2a                	sd	a0,184(sp)
    80004424:	7526                	ld	a0,104(sp)
    80004426:	e1aa                	sd	a0,192(sp)
    80004428:	7506                	ld	a0,96(sp)
    8000442a:	e5aa                	sd	a0,200(sp)
    8000442c:	6566                	ld	a0,88(sp)
    8000442e:	e9aa                	sd	a0,208(sp)
    80004430:	6546                	ld	a0,80(sp)
    80004432:	edaa                	sd	a0,216(sp)
    80004434:	6526                	ld	a0,72(sp)
    80004436:	f1aa                	sd	a0,224(sp)
    80004438:	6506                	ld	a0,64(sp)
    8000443a:	f5aa                	sd	a0,232(sp)
    8000443c:	7562                	ld	a0,56(sp)
    8000443e:	f9aa                	sd	a0,240(sp)
    80004440:	02000513          	li	a0,32
    80004444:	86e6                	mv	a3,s9
    80004446:	00ac8633          	add	a2,s9,a0
    8000444a:	fa063703          	ld	a4,-96(a2)
    8000444e:	fe86b783          	ld	a5,-24(a3)
    80004452:	fa863403          	ld	s0,-88(a2)
    80004456:	ff06b483          	ld	s1,-16(a3)
    8000445a:	02e78733          	mul	a4,a5,a4
    8000445e:	028487b3          	mul	a5,s1,s0
    80004462:	fb063403          	ld	s0,-80(a2)
    80004466:	ff86b483          	ld	s1,-8(a3)
    8000446a:	fb863603          	ld	a2,-72(a2)
    8000446e:	628c                	ld	a1,0(a3)
    80004470:	02848433          	mul	s0,s1,s0
    80004474:	02c585b3          	mul	a1,a1,a2
    80004478:	00170633          	add	a2,a4,ra
    8000447c:	963e                	add	a2,a2,a5
    8000447e:	9622                	add	a2,a2,s0
    80004480:	00b600b3          	add	ra,a2,a1
    80004484:	1501                	addi	a0,a0,-32
    80004486:	02068693          	addi	a3,a3,32
    8000448a:	fb251ee3          	bne	a0,s2,80004446 <main+0x22f2>
    8000448e:	4d01                	li	s10,0
    80004490:	7542                	ld	a0,48(sp)
    80004492:	1a153023          	sd	ra,416(a0)
    80004496:	1e0ebc03          	ld	s8,480(t4)
    8000449a:	f8f2                	sd	t3,112(sp)
    8000449c:	fc9a                	sd	t1,120(sp)
    8000449e:	e17a                	sd	t5,128(sp)
    800044a0:	e51e                	sd	t2,136(sp)
    800044a2:	e962                	sd	s8,144(sp)
    800044a4:	ed42                	sd	a6,152(sp)
    800044a6:	f15a                	sd	s6,160(sp)
    800044a8:	f55e                	sd	s7,168(sp)
    800044aa:	4515                	li	a0,5
    800044ac:	f92a                	sd	a0,176(sp)
    800044ae:	7522                	ld	a0,40(sp)
    800044b0:	fd2a                	sd	a0,184(sp)
    800044b2:	7526                	ld	a0,104(sp)
    800044b4:	e1aa                	sd	a0,192(sp)
    800044b6:	7506                	ld	a0,96(sp)
    800044b8:	e5aa                	sd	a0,200(sp)
    800044ba:	6566                	ld	a0,88(sp)
    800044bc:	e9aa                	sd	a0,208(sp)
    800044be:	6546                	ld	a0,80(sp)
    800044c0:	edaa                	sd	a0,216(sp)
    800044c2:	6526                	ld	a0,72(sp)
    800044c4:	f1aa                	sd	a0,224(sp)
    800044c6:	6506                	ld	a0,64(sp)
    800044c8:	f5aa                	sd	a0,232(sp)
    800044ca:	7562                	ld	a0,56(sp)
    800044cc:	f9aa                	sd	a0,240(sp)
    800044ce:	02800593          	li	a1,40
    800044d2:	06000693          	li	a3,96
    800044d6:	00b28633          	add	a2,t0,a1
    800044da:	6218                	ld	a4,0(a2)
    800044dc:	00d287b3          	add	a5,t0,a3
    800044e0:	fe87b483          	ld	s1,-24(a5)
    800044e4:	6600                	ld	s0,8(a2)
    800044e6:	ff07b503          	ld	a0,-16(a5)
    800044ea:	02e48733          	mul	a4,s1,a4
    800044ee:	02850533          	mul	a0,a0,s0
    800044f2:	6a10                	ld	a2,16(a2)
    800044f4:	ff87b483          	ld	s1,-8(a5)
    800044f8:	fa07b403          	ld	s0,-96(a5)
    800044fc:	639c                	ld	a5,0(a5)
    800044fe:	02c48633          	mul	a2,s1,a2
    80004502:	028787b3          	mul	a5,a5,s0
    80004506:	976a                	add	a4,a4,s10
    80004508:	953a                	add	a0,a0,a4
    8000450a:	9532                	add	a0,a0,a2
    8000450c:	00f50d33          	add	s10,a0,a5
    80004510:	1581                	addi	a1,a1,-32
    80004512:	02068693          	addi	a3,a3,32
    80004516:	fdb590e3          	bne	a1,s11,800044d6 <main+0x2382>
    8000451a:	4081                	li	ra,0
    8000451c:	7542                	ld	a0,48(sp)
    8000451e:	1ba53423          	sd	s10,424(a0)
    80004522:	1e8eb803          	ld	a6,488(t4)
    80004526:	f8f2                	sd	t3,112(sp)
    80004528:	fc9a                	sd	t1,120(sp)
    8000452a:	e17a                	sd	t5,128(sp)
    8000452c:	e51e                	sd	t2,136(sp)
    8000452e:	e962                	sd	s8,144(sp)
    80004530:	ed42                	sd	a6,152(sp)
    80004532:	f15a                	sd	s6,160(sp)
    80004534:	f55e                	sd	s7,168(sp)
    80004536:	4519                	li	a0,6
    80004538:	f92a                	sd	a0,176(sp)
    8000453a:	7522                	ld	a0,40(sp)
    8000453c:	fd2a                	sd	a0,184(sp)
    8000453e:	7526                	ld	a0,104(sp)
    80004540:	e1aa                	sd	a0,192(sp)
    80004542:	7506                	ld	a0,96(sp)
    80004544:	e5aa                	sd	a0,200(sp)
    80004546:	6566                	ld	a0,88(sp)
    80004548:	e9aa                	sd	a0,208(sp)
    8000454a:	6546                	ld	a0,80(sp)
    8000454c:	edaa                	sd	a0,216(sp)
    8000454e:	6526                	ld	a0,72(sp)
    80004550:	f1aa                	sd	a0,224(sp)
    80004552:	6506                	ld	a0,64(sp)
    80004554:	f5aa                	sd	a0,232(sp)
    80004556:	7562                	ld	a0,56(sp)
    80004558:	f9aa                	sd	a0,240(sp)
    8000455a:	fc000513          	li	a0,-64
    8000455e:	86fe                	mv	a3,t6
    80004560:	ff86b603          	ld	a2,-8(a3)
    80004564:	00aa8733          	add	a4,s5,a0
    80004568:	6f3c                	ld	a5,88(a4)
    8000456a:	6280                	ld	s0,0(a3)
    8000456c:	7324                	ld	s1,96(a4)
    8000456e:	02c78633          	mul	a2,a5,a2
    80004572:	028487b3          	mul	a5,s1,s0
    80004576:	6b00                	ld	s0,16(a4)
    80004578:	7724                	ld	s1,104(a4)
    8000457a:	6f0c                	ld	a1,24(a4)
    8000457c:	7b38                	ld	a4,112(a4)
    8000457e:	02848433          	mul	s0,s1,s0
    80004582:	02b705b3          	mul	a1,a4,a1
    80004586:	9606                	add	a2,a2,ra
    80004588:	963e                	add	a2,a2,a5
    8000458a:	9622                	add	a2,a2,s0
    8000458c:	00b600b3          	add	ra,a2,a1
    80004590:	02050513          	addi	a0,a0,32
    80004594:	1681                	addi	a3,a3,-32
    80004596:	f569                	bnez	a0,80004560 <main+0x240c>
    80004598:	4d01                	li	s10,0
    8000459a:	7542                	ld	a0,48(sp)
    8000459c:	1a153823          	sd	ra,432(a0)
    800045a0:	1f0ebb03          	ld	s6,496(t4)
    800045a4:	f8f2                	sd	t3,112(sp)
    800045a6:	fc9a                	sd	t1,120(sp)
    800045a8:	e17a                	sd	t5,128(sp)
    800045aa:	e51e                	sd	t2,136(sp)
    800045ac:	e962                	sd	s8,144(sp)
    800045ae:	ed42                	sd	a6,152(sp)
    800045b0:	f15a                	sd	s6,160(sp)
    800045b2:	f55e                	sd	s7,168(sp)
    800045b4:	451d                	li	a0,7
    800045b6:	f92a                	sd	a0,176(sp)
    800045b8:	70a2                	ld	ra,40(sp)
    800045ba:	fd06                	sd	ra,184(sp)
    800045bc:	7526                	ld	a0,104(sp)
    800045be:	e1aa                	sd	a0,192(sp)
    800045c0:	7506                	ld	a0,96(sp)
    800045c2:	e5aa                	sd	a0,200(sp)
    800045c4:	6566                	ld	a0,88(sp)
    800045c6:	e9aa                	sd	a0,208(sp)
    800045c8:	6546                	ld	a0,80(sp)
    800045ca:	edaa                	sd	a0,216(sp)
    800045cc:	6526                	ld	a0,72(sp)
    800045ce:	f1aa                	sd	a0,224(sp)
    800045d0:	6506                	ld	a0,64(sp)
    800045d2:	f5aa                	sd	a0,232(sp)
    800045d4:	7562                	ld	a0,56(sp)
    800045d6:	f9aa                	sd	a0,240(sp)
    800045d8:	03800593          	li	a1,56
    800045dc:	06000693          	li	a3,96
    800045e0:	00b28633          	add	a2,t0,a1
    800045e4:	6210                	ld	a2,0(a2)
    800045e6:	00d28733          	add	a4,t0,a3
    800045ea:	fe873783          	ld	a5,-24(a4)
    800045ee:	fa073403          	ld	s0,-96(a4)
    800045f2:	ff073483          	ld	s1,-16(a4)
    800045f6:	02c78633          	mul	a2,a5,a2
    800045fa:	028487b3          	mul	a5,s1,s0
    800045fe:	fa873403          	ld	s0,-88(a4)
    80004602:	ff873483          	ld	s1,-8(a4)
    80004606:	fb073503          	ld	a0,-80(a4)
    8000460a:	6318                	ld	a4,0(a4)
    8000460c:	02848433          	mul	s0,s1,s0
    80004610:	02a70533          	mul	a0,a4,a0
    80004614:	966a                	add	a2,a2,s10
    80004616:	963e                	add	a2,a2,a5
    80004618:	9622                	add	a2,a2,s0
    8000461a:	00a60d33          	add	s10,a2,a0
    8000461e:	1581                	addi	a1,a1,-32
    80004620:	02068693          	addi	a3,a3,32
    80004624:	fb359ee3          	bne	a1,s3,800045e0 <main+0x248c>
    80004628:	4581                	li	a1,0
    8000462a:	7542                	ld	a0,48(sp)
    8000462c:	1ba53c23          	sd	s10,440(a0)
    80004630:	1f8ebb83          	ld	s7,504(t4)
    80004634:	f8f2                	sd	t3,112(sp)
    80004636:	fc9a                	sd	t1,120(sp)
    80004638:	e17a                	sd	t5,128(sp)
    8000463a:	e51e                	sd	t2,136(sp)
    8000463c:	e962                	sd	s8,144(sp)
    8000463e:	ed42                	sd	a6,152(sp)
    80004640:	f15a                	sd	s6,160(sp)
    80004642:	f55e                	sd	s7,168(sp)
    80004644:	f902                	sd	zero,176(sp)
    80004646:	fd06                	sd	ra,184(sp)
    80004648:	7526                	ld	a0,104(sp)
    8000464a:	e1aa                	sd	a0,192(sp)
    8000464c:	7506                	ld	a0,96(sp)
    8000464e:	e5aa                	sd	a0,200(sp)
    80004650:	6566                	ld	a0,88(sp)
    80004652:	e9aa                	sd	a0,208(sp)
    80004654:	6546                	ld	a0,80(sp)
    80004656:	edaa                	sd	a0,216(sp)
    80004658:	6526                	ld	a0,72(sp)
    8000465a:	f1aa                	sd	a0,224(sp)
    8000465c:	6506                	ld	a0,64(sp)
    8000465e:	f5aa                	sd	a0,232(sp)
    80004660:	7562                	ld	a0,56(sp)
    80004662:	f9aa                	sd	a0,240(sp)
    80004664:	4541                	li	a0,16
    80004666:	05000e13          	li	t3,80
    8000466a:	00a28633          	add	a2,t0,a0
    8000466e:	ff063683          	ld	a3,-16(a2)
    80004672:	7e18                	ld	a4,56(a2)
    80004674:	02d706b3          	mul	a3,a4,a3
    80004678:	ff863703          	ld	a4,-8(a2)
    8000467c:	623c                	ld	a5,64(a2)
    8000467e:	6204                	ld	s1,0(a2)
    80004680:	6620                	ld	s0,72(a2)
    80004682:	02e78733          	mul	a4,a5,a4
    80004686:	029407b3          	mul	a5,s0,s1
    8000468a:	6604                	ld	s1,8(a2)
    8000468c:	6a30                	ld	a2,80(a2)
    8000468e:	95b6                	add	a1,a1,a3
    80004690:	02960633          	mul	a2,a2,s1
    80004694:	95ba                	add	a1,a1,a4
    80004696:	95be                	add	a1,a1,a5
    80004698:	02050513          	addi	a0,a0,32
    8000469c:	95b2                	add	a1,a1,a2
    8000469e:	fdc516e3          	bne	a0,t3,8000466a <main+0x2516>
    800046a2:	4681                	li	a3,0
    800046a4:	4501                	li	a0,0
    800046a6:	200ebe03          	ld	t3,512(t4)
    800046aa:	7642                	ld	a2,48(sp)
    800046ac:	1cb63023          	sd	a1,448(a2)
    800046b0:	f8f2                	sd	t3,112(sp)
    800046b2:	fc9a                	sd	t1,120(sp)
    800046b4:	e17a                	sd	t5,128(sp)
    800046b6:	e51e                	sd	t2,136(sp)
    800046b8:	e962                	sd	s8,144(sp)
    800046ba:	ed42                	sd	a6,152(sp)
    800046bc:	f15a                	sd	s6,160(sp)
    800046be:	f55e                	sd	s7,168(sp)
    800046c0:	4585                	li	a1,1
    800046c2:	f92e                	sd	a1,176(sp)
    800046c4:	fd06                	sd	ra,184(sp)
    800046c6:	75a6                	ld	a1,104(sp)
    800046c8:	e1ae                	sd	a1,192(sp)
    800046ca:	7586                	ld	a1,96(sp)
    800046cc:	e5ae                	sd	a1,200(sp)
    800046ce:	65e6                	ld	a1,88(sp)
    800046d0:	e9ae                	sd	a1,208(sp)
    800046d2:	65c6                	ld	a1,80(sp)
    800046d4:	edae                	sd	a1,216(sp)
    800046d6:	65a6                	ld	a1,72(sp)
    800046d8:	f1ae                	sd	a1,224(sp)
    800046da:	6586                	ld	a1,64(sp)
    800046dc:	f5ae                	sd	a1,232(sp)
    800046de:	75e2                	ld	a1,56(sp)
    800046e0:	f9ae                	sd	a1,240(sp)
    800046e2:	192c                	addi	a1,sp,184
    800046e4:	fc05b603          	ld	a2,-64(a1)
    800046e8:	6198                	ld	a4,0(a1)
    800046ea:	fc85b783          	ld	a5,-56(a1)
    800046ee:	6584                	ld	s1,8(a1)
    800046f0:	02c70333          	mul	t1,a4,a2
    800046f4:	02f48733          	mul	a4,s1,a5
    800046f8:	fd05b783          	ld	a5,-48(a1)
    800046fc:	6984                	ld	s1,16(a1)
    800046fe:	0046c413          	xori	s0,a3,4
    80004702:	040e                	slli	s0,s0,0x3
    80004704:	9416                	add	s0,s0,t0
    80004706:	6000                	ld	s0,0(s0)
    80004708:	6d90                	ld	a2,24(a1)
    8000470a:	02f487b3          	mul	a5,s1,a5
    8000470e:	02860633          	mul	a2,a2,s0
    80004712:	951a                	add	a0,a0,t1
    80004714:	953a                	add	a0,a0,a4
    80004716:	953e                	add	a0,a0,a5
    80004718:	9532                	add	a0,a0,a2
    8000471a:	0691                	addi	a3,a3,4
    8000471c:	02058593          	addi	a1,a1,32
    80004720:	fd4692e3          	bne	a3,s4,800046e4 <main+0x2590>
    80004724:	4681                	li	a3,0
    80004726:	4401                	li	s0,0
    80004728:	75c2                	ld	a1,48(sp)
    8000472a:	1ca5b423          	sd	a0,456(a1)
    8000472e:	208eb303          	ld	t1,520(t4)
    80004732:	f8f2                	sd	t3,112(sp)
    80004734:	fc9a                	sd	t1,120(sp)
    80004736:	e17a                	sd	t5,128(sp)
    80004738:	e51e                	sd	t2,136(sp)
    8000473a:	e962                	sd	s8,144(sp)
    8000473c:	ed42                	sd	a6,152(sp)
    8000473e:	f15a                	sd	s6,160(sp)
    80004740:	f55e                	sd	s7,168(sp)
    80004742:	4509                	li	a0,2
    80004744:	f92a                	sd	a0,176(sp)
    80004746:	fd06                	sd	ra,184(sp)
    80004748:	7526                	ld	a0,104(sp)
    8000474a:	e1aa                	sd	a0,192(sp)
    8000474c:	7506                	ld	a0,96(sp)
    8000474e:	e5aa                	sd	a0,200(sp)
    80004750:	6566                	ld	a0,88(sp)
    80004752:	e9aa                	sd	a0,208(sp)
    80004754:	6546                	ld	a0,80(sp)
    80004756:	edaa                	sd	a0,216(sp)
    80004758:	6526                	ld	a0,72(sp)
    8000475a:	f1aa                	sd	a0,224(sp)
    8000475c:	6506                	ld	a0,64(sp)
    8000475e:	f5aa                	sd	a0,232(sp)
    80004760:	7562                	ld	a0,56(sp)
    80004762:	f9aa                	sd	a0,240(sp)
    80004764:	8566                	mv	a0,s9
    80004766:	092c                	addi	a1,sp,152
    80004768:	fb053603          	ld	a2,-80(a0)
    8000476c:	fe853703          	ld	a4,-24(a0)
    80004770:	fb853783          	ld	a5,-72(a0)
    80004774:	ff053483          	ld	s1,-16(a0)
    80004778:	02c70f33          	mul	t5,a4,a2
    8000477c:	02f48d33          	mul	s10,s1,a5
    80004780:	0046c793          	xori	a5,a3,4
    80004784:	078e                	slli	a5,a5,0x3
    80004786:	9796                	add	a5,a5,t0
    80004788:	639c                	ld	a5,0(a5)
    8000478a:	ff853483          	ld	s1,-8(a0)
    8000478e:	6190                	ld	a2,0(a1)
    80004790:	6118                	ld	a4,0(a0)
    80004792:	02f487b3          	mul	a5,s1,a5
    80004796:	02c70633          	mul	a2,a4,a2
    8000479a:	008f0733          	add	a4,t5,s0
    8000479e:	976a                	add	a4,a4,s10
    800047a0:	973e                	add	a4,a4,a5
    800047a2:	00c70433          	add	s0,a4,a2
    800047a6:	0691                	addi	a3,a3,4
    800047a8:	1581                	addi	a1,a1,-32
    800047aa:	02050513          	addi	a0,a0,32
    800047ae:	fb469de3          	bne	a3,s4,80004768 <main+0x2614>
    800047b2:	4681                	li	a3,0
    800047b4:	4d01                	li	s10,0
    800047b6:	7542                	ld	a0,48(sp)
    800047b8:	1c853823          	sd	s0,464(a0)
    800047bc:	210ebf03          	ld	t5,528(t4)
    800047c0:	f8f2                	sd	t3,112(sp)
    800047c2:	fc9a                	sd	t1,120(sp)
    800047c4:	e17a                	sd	t5,128(sp)
    800047c6:	e51e                	sd	t2,136(sp)
    800047c8:	e962                	sd	s8,144(sp)
    800047ca:	ed42                	sd	a6,152(sp)
    800047cc:	f15a                	sd	s6,160(sp)
    800047ce:	f55e                	sd	s7,168(sp)
    800047d0:	450d                	li	a0,3
    800047d2:	f92a                	sd	a0,176(sp)
    800047d4:	fd06                	sd	ra,184(sp)
    800047d6:	7526                	ld	a0,104(sp)
    800047d8:	e1aa                	sd	a0,192(sp)
    800047da:	7506                	ld	a0,96(sp)
    800047dc:	e5aa                	sd	a0,200(sp)
    800047de:	6566                	ld	a0,88(sp)
    800047e0:	e9aa                	sd	a0,208(sp)
    800047e2:	6546                	ld	a0,80(sp)
    800047e4:	edaa                	sd	a0,216(sp)
    800047e6:	6526                	ld	a0,72(sp)
    800047e8:	f1aa                	sd	a0,224(sp)
    800047ea:	6506                	ld	a0,64(sp)
    800047ec:	f5aa                	sd	a0,232(sp)
    800047ee:	7562                	ld	a0,56(sp)
    800047f0:	f9aa                	sd	a0,240(sp)
    800047f2:	fc000593          	li	a1,-64
    800047f6:	8456                	mv	s0,s5
    800047f8:	00ba8633          	add	a2,s5,a1
    800047fc:	7618                	ld	a4,40(a2)
    800047fe:	6e3c                	ld	a5,88(a2)
    80004800:	0046c493          	xori	s1,a3,4
    80004804:	048e                	slli	s1,s1,0x3
    80004806:	9496                	add	s1,s1,t0
    80004808:	6084                	ld	s1,0(s1)
    8000480a:	7228                	ld	a0,96(a2)
    8000480c:	02e78733          	mul	a4,a5,a4
    80004810:	029503b3          	mul	t2,a0,s1
    80004814:	ff843783          	ld	a5,-8(s0)
    80004818:	7624                	ld	s1,104(a2)
    8000481a:	6008                	ld	a0,0(s0)
    8000481c:	7a30                	ld	a2,112(a2)
    8000481e:	02f487b3          	mul	a5,s1,a5
    80004822:	02a60533          	mul	a0,a2,a0
    80004826:	01a70633          	add	a2,a4,s10
    8000482a:	961e                	add	a2,a2,t2
    8000482c:	963e                	add	a2,a2,a5
    8000482e:	00a60d33          	add	s10,a2,a0
    80004832:	0691                	addi	a3,a3,4
    80004834:	02058593          	addi	a1,a1,32
    80004838:	1401                	addi	s0,s0,-32
    8000483a:	fddd                	bnez	a1,800047f8 <main+0x26a4>
    8000483c:	4081                	li	ra,0
    8000483e:	7542                	ld	a0,48(sp)
    80004840:	1da53c23          	sd	s10,472(a0)
    80004844:	218eb383          	ld	t2,536(t4)
    80004848:	f8f2                	sd	t3,112(sp)
    8000484a:	fc9a                	sd	t1,120(sp)
    8000484c:	e17a                	sd	t5,128(sp)
    8000484e:	e51e                	sd	t2,136(sp)
    80004850:	e962                	sd	s8,144(sp)
    80004852:	ed42                	sd	a6,152(sp)
    80004854:	f15a                	sd	s6,160(sp)
    80004856:	f55e                	sd	s7,168(sp)
    80004858:	4511                	li	a0,4
    8000485a:	f92a                	sd	a0,176(sp)
    8000485c:	7522                	ld	a0,40(sp)
    8000485e:	fd2a                	sd	a0,184(sp)
    80004860:	7526                	ld	a0,104(sp)
    80004862:	e1aa                	sd	a0,192(sp)
    80004864:	7506                	ld	a0,96(sp)
    80004866:	e5aa                	sd	a0,200(sp)
    80004868:	6566                	ld	a0,88(sp)
    8000486a:	e9aa                	sd	a0,208(sp)
    8000486c:	6546                	ld	a0,80(sp)
    8000486e:	edaa                	sd	a0,216(sp)
    80004870:	6526                	ld	a0,72(sp)
    80004872:	f1aa                	sd	a0,224(sp)
    80004874:	6506                	ld	a0,64(sp)
    80004876:	f5aa                	sd	a0,232(sp)
    80004878:	7562                	ld	a0,56(sp)
    8000487a:	f9aa                	sd	a0,240(sp)
    8000487c:	02000513          	li	a0,32
    80004880:	86e6                	mv	a3,s9
    80004882:	00ac8633          	add	a2,s9,a0
    80004886:	fa063703          	ld	a4,-96(a2)
    8000488a:	fe86b783          	ld	a5,-24(a3)
    8000488e:	fa863403          	ld	s0,-88(a2)
    80004892:	ff06b483          	ld	s1,-16(a3)
    80004896:	02e78733          	mul	a4,a5,a4
    8000489a:	028487b3          	mul	a5,s1,s0
    8000489e:	fb063403          	ld	s0,-80(a2)
    800048a2:	ff86b483          	ld	s1,-8(a3)
    800048a6:	fb863603          	ld	a2,-72(a2)
    800048aa:	628c                	ld	a1,0(a3)
    800048ac:	02848433          	mul	s0,s1,s0
    800048b0:	02c585b3          	mul	a1,a1,a2
    800048b4:	00170633          	add	a2,a4,ra
    800048b8:	963e                	add	a2,a2,a5
    800048ba:	9622                	add	a2,a2,s0
    800048bc:	00b600b3          	add	ra,a2,a1
    800048c0:	1501                	addi	a0,a0,-32
    800048c2:	02068693          	addi	a3,a3,32
    800048c6:	fb251ee3          	bne	a0,s2,80004882 <main+0x272e>
    800048ca:	4d01                	li	s10,0
    800048cc:	7542                	ld	a0,48(sp)
    800048ce:	1e153023          	sd	ra,480(a0)
    800048d2:	220ebc03          	ld	s8,544(t4)
    800048d6:	f8f2                	sd	t3,112(sp)
    800048d8:	fc9a                	sd	t1,120(sp)
    800048da:	e17a                	sd	t5,128(sp)
    800048dc:	e51e                	sd	t2,136(sp)
    800048de:	e962                	sd	s8,144(sp)
    800048e0:	ed42                	sd	a6,152(sp)
    800048e2:	f15a                	sd	s6,160(sp)
    800048e4:	f55e                	sd	s7,168(sp)
    800048e6:	4515                	li	a0,5
    800048e8:	f92a                	sd	a0,176(sp)
    800048ea:	7522                	ld	a0,40(sp)
    800048ec:	fd2a                	sd	a0,184(sp)
    800048ee:	7526                	ld	a0,104(sp)
    800048f0:	e1aa                	sd	a0,192(sp)
    800048f2:	7506                	ld	a0,96(sp)
    800048f4:	e5aa                	sd	a0,200(sp)
    800048f6:	6566                	ld	a0,88(sp)
    800048f8:	e9aa                	sd	a0,208(sp)
    800048fa:	6546                	ld	a0,80(sp)
    800048fc:	edaa                	sd	a0,216(sp)
    800048fe:	6526                	ld	a0,72(sp)
    80004900:	f1aa                	sd	a0,224(sp)
    80004902:	6506                	ld	a0,64(sp)
    80004904:	f5aa                	sd	a0,232(sp)
    80004906:	7562                	ld	a0,56(sp)
    80004908:	f9aa                	sd	a0,240(sp)
    8000490a:	02800593          	li	a1,40
    8000490e:	06000693          	li	a3,96
    80004912:	00b28633          	add	a2,t0,a1
    80004916:	6218                	ld	a4,0(a2)
    80004918:	00d287b3          	add	a5,t0,a3
    8000491c:	fe87b483          	ld	s1,-24(a5)
    80004920:	6600                	ld	s0,8(a2)
    80004922:	ff07b503          	ld	a0,-16(a5)
    80004926:	02e48733          	mul	a4,s1,a4
    8000492a:	02850533          	mul	a0,a0,s0
    8000492e:	6a10                	ld	a2,16(a2)
    80004930:	ff87b483          	ld	s1,-8(a5)
    80004934:	fa07b403          	ld	s0,-96(a5)
    80004938:	639c                	ld	a5,0(a5)
    8000493a:	02c48633          	mul	a2,s1,a2
    8000493e:	028787b3          	mul	a5,a5,s0
    80004942:	976a                	add	a4,a4,s10
    80004944:	953a                	add	a0,a0,a4
    80004946:	9532                	add	a0,a0,a2
    80004948:	00f50d33          	add	s10,a0,a5
    8000494c:	1581                	addi	a1,a1,-32
    8000494e:	02068693          	addi	a3,a3,32
    80004952:	fdb590e3          	bne	a1,s11,80004912 <main+0x27be>
    80004956:	4081                	li	ra,0
    80004958:	7542                	ld	a0,48(sp)
    8000495a:	1fa53423          	sd	s10,488(a0)
    8000495e:	228eb803          	ld	a6,552(t4)
    80004962:	f8f2                	sd	t3,112(sp)
    80004964:	fc9a                	sd	t1,120(sp)
    80004966:	e17a                	sd	t5,128(sp)
    80004968:	e51e                	sd	t2,136(sp)
    8000496a:	e962                	sd	s8,144(sp)
    8000496c:	ed42                	sd	a6,152(sp)
    8000496e:	f15a                	sd	s6,160(sp)
    80004970:	f55e                	sd	s7,168(sp)
    80004972:	4519                	li	a0,6
    80004974:	f92a                	sd	a0,176(sp)
    80004976:	7522                	ld	a0,40(sp)
    80004978:	fd2a                	sd	a0,184(sp)
    8000497a:	7526                	ld	a0,104(sp)
    8000497c:	e1aa                	sd	a0,192(sp)
    8000497e:	7506                	ld	a0,96(sp)
    80004980:	e5aa                	sd	a0,200(sp)
    80004982:	6566                	ld	a0,88(sp)
    80004984:	e9aa                	sd	a0,208(sp)
    80004986:	6546                	ld	a0,80(sp)
    80004988:	edaa                	sd	a0,216(sp)
    8000498a:	6526                	ld	a0,72(sp)
    8000498c:	f1aa                	sd	a0,224(sp)
    8000498e:	6506                	ld	a0,64(sp)
    80004990:	f5aa                	sd	a0,232(sp)
    80004992:	7562                	ld	a0,56(sp)
    80004994:	f9aa                	sd	a0,240(sp)
    80004996:	fc000513          	li	a0,-64
    8000499a:	86fe                	mv	a3,t6
    8000499c:	ff86b603          	ld	a2,-8(a3)
    800049a0:	00aa8733          	add	a4,s5,a0
    800049a4:	6f3c                	ld	a5,88(a4)
    800049a6:	6280                	ld	s0,0(a3)
    800049a8:	7324                	ld	s1,96(a4)
    800049aa:	02c78633          	mul	a2,a5,a2
    800049ae:	028487b3          	mul	a5,s1,s0
    800049b2:	6b00                	ld	s0,16(a4)
    800049b4:	7724                	ld	s1,104(a4)
    800049b6:	6f0c                	ld	a1,24(a4)
    800049b8:	7b38                	ld	a4,112(a4)
    800049ba:	02848433          	mul	s0,s1,s0
    800049be:	02b705b3          	mul	a1,a4,a1
    800049c2:	9606                	add	a2,a2,ra
    800049c4:	963e                	add	a2,a2,a5
    800049c6:	9622                	add	a2,a2,s0
    800049c8:	00b600b3          	add	ra,a2,a1
    800049cc:	02050513          	addi	a0,a0,32
    800049d0:	1681                	addi	a3,a3,-32
    800049d2:	f569                	bnez	a0,8000499c <main+0x2848>
    800049d4:	4d01                	li	s10,0
    800049d6:	7542                	ld	a0,48(sp)
    800049d8:	1e153823          	sd	ra,496(a0)
    800049dc:	230ebb03          	ld	s6,560(t4)
    800049e0:	f8f2                	sd	t3,112(sp)
    800049e2:	fc9a                	sd	t1,120(sp)
    800049e4:	e17a                	sd	t5,128(sp)
    800049e6:	e51e                	sd	t2,136(sp)
    800049e8:	e962                	sd	s8,144(sp)
    800049ea:	ed42                	sd	a6,152(sp)
    800049ec:	f15a                	sd	s6,160(sp)
    800049ee:	f55e                	sd	s7,168(sp)
    800049f0:	451d                	li	a0,7
    800049f2:	f92a                	sd	a0,176(sp)
    800049f4:	70a2                	ld	ra,40(sp)
    800049f6:	fd06                	sd	ra,184(sp)
    800049f8:	7526                	ld	a0,104(sp)
    800049fa:	e1aa                	sd	a0,192(sp)
    800049fc:	7506                	ld	a0,96(sp)
    800049fe:	e5aa                	sd	a0,200(sp)
    80004a00:	6566                	ld	a0,88(sp)
    80004a02:	e9aa                	sd	a0,208(sp)
    80004a04:	6546                	ld	a0,80(sp)
    80004a06:	edaa                	sd	a0,216(sp)
    80004a08:	6526                	ld	a0,72(sp)
    80004a0a:	f1aa                	sd	a0,224(sp)
    80004a0c:	6506                	ld	a0,64(sp)
    80004a0e:	f5aa                	sd	a0,232(sp)
    80004a10:	7562                	ld	a0,56(sp)
    80004a12:	f9aa                	sd	a0,240(sp)
    80004a14:	03800593          	li	a1,56
    80004a18:	06000693          	li	a3,96
    80004a1c:	00b28633          	add	a2,t0,a1
    80004a20:	6210                	ld	a2,0(a2)
    80004a22:	00d28733          	add	a4,t0,a3
    80004a26:	fe873783          	ld	a5,-24(a4)
    80004a2a:	fa073403          	ld	s0,-96(a4)
    80004a2e:	ff073483          	ld	s1,-16(a4)
    80004a32:	02c78633          	mul	a2,a5,a2
    80004a36:	028487b3          	mul	a5,s1,s0
    80004a3a:	fa873403          	ld	s0,-88(a4)
    80004a3e:	ff873483          	ld	s1,-8(a4)
    80004a42:	fb073503          	ld	a0,-80(a4)
    80004a46:	6318                	ld	a4,0(a4)
    80004a48:	02848433          	mul	s0,s1,s0
    80004a4c:	02a70533          	mul	a0,a4,a0
    80004a50:	966a                	add	a2,a2,s10
    80004a52:	963e                	add	a2,a2,a5
    80004a54:	9622                	add	a2,a2,s0
    80004a56:	00a60d33          	add	s10,a2,a0
    80004a5a:	1581                	addi	a1,a1,-32
    80004a5c:	02068693          	addi	a3,a3,32
    80004a60:	fb359ee3          	bne	a1,s3,80004a1c <main+0x28c8>
    80004a64:	4581                	li	a1,0
    80004a66:	7542                	ld	a0,48(sp)
    80004a68:	1fa53c23          	sd	s10,504(a0)
    80004a6c:	238ebb83          	ld	s7,568(t4)
    80004a70:	f8f2                	sd	t3,112(sp)
    80004a72:	fc9a                	sd	t1,120(sp)
    80004a74:	e17a                	sd	t5,128(sp)
    80004a76:	e51e                	sd	t2,136(sp)
    80004a78:	e962                	sd	s8,144(sp)
    80004a7a:	ed42                	sd	a6,152(sp)
    80004a7c:	f15a                	sd	s6,160(sp)
    80004a7e:	f55e                	sd	s7,168(sp)
    80004a80:	f902                	sd	zero,176(sp)
    80004a82:	fd06                	sd	ra,184(sp)
    80004a84:	7526                	ld	a0,104(sp)
    80004a86:	e1aa                	sd	a0,192(sp)
    80004a88:	7506                	ld	a0,96(sp)
    80004a8a:	e5aa                	sd	a0,200(sp)
    80004a8c:	6566                	ld	a0,88(sp)
    80004a8e:	e9aa                	sd	a0,208(sp)
    80004a90:	6546                	ld	a0,80(sp)
    80004a92:	edaa                	sd	a0,216(sp)
    80004a94:	6526                	ld	a0,72(sp)
    80004a96:	f1aa                	sd	a0,224(sp)
    80004a98:	6506                	ld	a0,64(sp)
    80004a9a:	f5aa                	sd	a0,232(sp)
    80004a9c:	7562                	ld	a0,56(sp)
    80004a9e:	f9aa                	sd	a0,240(sp)
    80004aa0:	4541                	li	a0,16
    80004aa2:	05000e13          	li	t3,80
    80004aa6:	00a28633          	add	a2,t0,a0
    80004aaa:	ff063683          	ld	a3,-16(a2)
    80004aae:	7e18                	ld	a4,56(a2)
    80004ab0:	02d706b3          	mul	a3,a4,a3
    80004ab4:	ff863703          	ld	a4,-8(a2)
    80004ab8:	623c                	ld	a5,64(a2)
    80004aba:	6204                	ld	s1,0(a2)
    80004abc:	6620                	ld	s0,72(a2)
    80004abe:	02e78733          	mul	a4,a5,a4
    80004ac2:	029407b3          	mul	a5,s0,s1
    80004ac6:	6604                	ld	s1,8(a2)
    80004ac8:	6a30                	ld	a2,80(a2)
    80004aca:	95b6                	add	a1,a1,a3
    80004acc:	02960633          	mul	a2,a2,s1
    80004ad0:	95ba                	add	a1,a1,a4
    80004ad2:	95be                	add	a1,a1,a5
    80004ad4:	02050513          	addi	a0,a0,32
    80004ad8:	95b2                	add	a1,a1,a2
    80004ada:	fdc516e3          	bne	a0,t3,80004aa6 <main+0x2952>
    80004ade:	4501                	li	a0,0
    80004ae0:	4401                	li	s0,0
    80004ae2:	240ebe03          	ld	t3,576(t4)
    80004ae6:	7642                	ld	a2,48(sp)
    80004ae8:	20b63023          	sd	a1,512(a2)
    80004aec:	f8f2                	sd	t3,112(sp)
    80004aee:	fc9a                	sd	t1,120(sp)
    80004af0:	e17a                	sd	t5,128(sp)
    80004af2:	e51e                	sd	t2,136(sp)
    80004af4:	e962                	sd	s8,144(sp)
    80004af6:	ed42                	sd	a6,152(sp)
    80004af8:	f15a                	sd	s6,160(sp)
    80004afa:	f55e                	sd	s7,168(sp)
    80004afc:	4585                	li	a1,1
    80004afe:	f92e                	sd	a1,176(sp)
    80004b00:	fd06                	sd	ra,184(sp)
    80004b02:	75a6                	ld	a1,104(sp)
    80004b04:	e1ae                	sd	a1,192(sp)
    80004b06:	7586                	ld	a1,96(sp)
    80004b08:	e5ae                	sd	a1,200(sp)
    80004b0a:	65e6                	ld	a1,88(sp)
    80004b0c:	e9ae                	sd	a1,208(sp)
    80004b0e:	65c6                	ld	a1,80(sp)
    80004b10:	edae                	sd	a1,216(sp)
    80004b12:	65a6                	ld	a1,72(sp)
    80004b14:	f1ae                	sd	a1,224(sp)
    80004b16:	6586                	ld	a1,64(sp)
    80004b18:	f5ae                	sd	a1,232(sp)
    80004b1a:	75e2                	ld	a1,56(sp)
    80004b1c:	f9ae                	sd	a1,240(sp)
    80004b1e:	192c                	addi	a1,sp,184
    80004b20:	fc05b603          	ld	a2,-64(a1)
    80004b24:	6194                	ld	a3,0(a1)
    80004b26:	fc85b703          	ld	a4,-56(a1)
    80004b2a:	659c                	ld	a5,8(a1)
    80004b2c:	02c68333          	mul	t1,a3,a2
    80004b30:	02e786b3          	mul	a3,a5,a4
    80004b34:	fd05b703          	ld	a4,-48(a1)
    80004b38:	699c                	ld	a5,16(a1)
    80004b3a:	00454493          	xori	s1,a0,4
    80004b3e:	048e                	slli	s1,s1,0x3
    80004b40:	9496                	add	s1,s1,t0
    80004b42:	6084                	ld	s1,0(s1)
    80004b44:	6d90                	ld	a2,24(a1)
    80004b46:	02e78733          	mul	a4,a5,a4
    80004b4a:	02960633          	mul	a2,a2,s1
    80004b4e:	008307b3          	add	a5,t1,s0
    80004b52:	96be                	add	a3,a3,a5
    80004b54:	96ba                	add	a3,a3,a4
    80004b56:	00c68433          	add	s0,a3,a2
    80004b5a:	0511                	addi	a0,a0,4
    80004b5c:	02058593          	addi	a1,a1,32
    80004b60:	fd4510e3          	bne	a0,s4,80004b20 <main+0x29cc>
    80004b64:	4681                	li	a3,0
    80004b66:	4501                	li	a0,0
    80004b68:	75c2                	ld	a1,48(sp)
    80004b6a:	2085b423          	sd	s0,520(a1)
    80004b6e:	248eb303          	ld	t1,584(t4)
    80004b72:	f8f2                	sd	t3,112(sp)
    80004b74:	fc9a                	sd	t1,120(sp)
    80004b76:	e17a                	sd	t5,128(sp)
    80004b78:	e51e                	sd	t2,136(sp)
    80004b7a:	e962                	sd	s8,144(sp)
    80004b7c:	ed42                	sd	a6,152(sp)
    80004b7e:	f15a                	sd	s6,160(sp)
    80004b80:	f55e                	sd	s7,168(sp)
    80004b82:	4589                	li	a1,2
    80004b84:	f92e                	sd	a1,176(sp)
    80004b86:	fd06                	sd	ra,184(sp)
    80004b88:	75a6                	ld	a1,104(sp)
    80004b8a:	e1ae                	sd	a1,192(sp)
    80004b8c:	7586                	ld	a1,96(sp)
    80004b8e:	e5ae                	sd	a1,200(sp)
    80004b90:	65e6                	ld	a1,88(sp)
    80004b92:	e9ae                	sd	a1,208(sp)
    80004b94:	65c6                	ld	a1,80(sp)
    80004b96:	edae                	sd	a1,216(sp)
    80004b98:	65a6                	ld	a1,72(sp)
    80004b9a:	f1ae                	sd	a1,224(sp)
    80004b9c:	6586                	ld	a1,64(sp)
    80004b9e:	f5ae                	sd	a1,232(sp)
    80004ba0:	75e2                	ld	a1,56(sp)
    80004ba2:	f9ae                	sd	a1,240(sp)
    80004ba4:	85e6                	mv	a1,s9
    80004ba6:	093c                	addi	a5,sp,152
    80004ba8:	fb05b603          	ld	a2,-80(a1)
    80004bac:	fe85b703          	ld	a4,-24(a1)
    80004bb0:	fb85b483          	ld	s1,-72(a1)
    80004bb4:	ff05b403          	ld	s0,-16(a1)
    80004bb8:	02c70f33          	mul	t5,a4,a2
    80004bbc:	02940d33          	mul	s10,s0,s1
    80004bc0:	0046c493          	xori	s1,a3,4
    80004bc4:	048e                	slli	s1,s1,0x3
    80004bc6:	9496                	add	s1,s1,t0
    80004bc8:	6084                	ld	s1,0(s1)
    80004bca:	ff85b403          	ld	s0,-8(a1)
    80004bce:	6390                	ld	a2,0(a5)
    80004bd0:	6198                	ld	a4,0(a1)
    80004bd2:	02940433          	mul	s0,s0,s1
    80004bd6:	02c70633          	mul	a2,a4,a2
    80004bda:	957a                	add	a0,a0,t5
    80004bdc:	956a                	add	a0,a0,s10
    80004bde:	9522                	add	a0,a0,s0
    80004be0:	9532                	add	a0,a0,a2
    80004be2:	0691                	addi	a3,a3,4
    80004be4:	1781                	addi	a5,a5,-32
    80004be6:	02058593          	addi	a1,a1,32
    80004bea:	fb469fe3          	bne	a3,s4,80004ba8 <main+0x2a54>
    80004bee:	4681                	li	a3,0
    80004bf0:	4d01                	li	s10,0
    80004bf2:	75c2                	ld	a1,48(sp)
    80004bf4:	20a5b823          	sd	a0,528(a1)
    80004bf8:	250ebf03          	ld	t5,592(t4)
    80004bfc:	f8f2                	sd	t3,112(sp)
    80004bfe:	fc9a                	sd	t1,120(sp)
    80004c00:	e17a                	sd	t5,128(sp)
    80004c02:	e51e                	sd	t2,136(sp)
    80004c04:	e962                	sd	s8,144(sp)
    80004c06:	ed42                	sd	a6,152(sp)
    80004c08:	f15a                	sd	s6,160(sp)
    80004c0a:	f55e                	sd	s7,168(sp)
    80004c0c:	450d                	li	a0,3
    80004c0e:	f92a                	sd	a0,176(sp)
    80004c10:	fd06                	sd	ra,184(sp)
    80004c12:	7526                	ld	a0,104(sp)
    80004c14:	e1aa                	sd	a0,192(sp)
    80004c16:	7506                	ld	a0,96(sp)
    80004c18:	e5aa                	sd	a0,200(sp)
    80004c1a:	6566                	ld	a0,88(sp)
    80004c1c:	e9aa                	sd	a0,208(sp)
    80004c1e:	6546                	ld	a0,80(sp)
    80004c20:	edaa                	sd	a0,216(sp)
    80004c22:	6526                	ld	a0,72(sp)
    80004c24:	f1aa                	sd	a0,224(sp)
    80004c26:	6506                	ld	a0,64(sp)
    80004c28:	f5aa                	sd	a0,232(sp)
    80004c2a:	7562                	ld	a0,56(sp)
    80004c2c:	f9aa                	sd	a0,240(sp)
    80004c2e:	fc000513          	li	a0,-64
    80004c32:	85d6                	mv	a1,s5
    80004c34:	00aa8633          	add	a2,s5,a0
    80004c38:	7618                	ld	a4,40(a2)
    80004c3a:	6e3c                	ld	a5,88(a2)
    80004c3c:	0046c493          	xori	s1,a3,4
    80004c40:	048e                	slli	s1,s1,0x3
    80004c42:	9496                	add	s1,s1,t0
    80004c44:	6084                	ld	s1,0(s1)
    80004c46:	7220                	ld	s0,96(a2)
    80004c48:	02e783b3          	mul	t2,a5,a4
    80004c4c:	029407b3          	mul	a5,s0,s1
    80004c50:	ff85b483          	ld	s1,-8(a1)
    80004c54:	7620                	ld	s0,104(a2)
    80004c56:	6198                	ld	a4,0(a1)
    80004c58:	7a30                	ld	a2,112(a2)
    80004c5a:	02940433          	mul	s0,s0,s1
    80004c5e:	02e60633          	mul	a2,a2,a4
    80004c62:	01a38733          	add	a4,t2,s10
    80004c66:	973e                	add	a4,a4,a5
    80004c68:	9722                	add	a4,a4,s0
    80004c6a:	00c70d33          	add	s10,a4,a2
    80004c6e:	0691                	addi	a3,a3,4
    80004c70:	02050513          	addi	a0,a0,32
    80004c74:	1581                	addi	a1,a1,-32
    80004c76:	fd5d                	bnez	a0,80004c34 <main+0x2ae0>
    80004c78:	4081                	li	ra,0
    80004c7a:	7542                	ld	a0,48(sp)
    80004c7c:	21a53c23          	sd	s10,536(a0)
    80004c80:	258eb383          	ld	t2,600(t4)
    80004c84:	f8f2                	sd	t3,112(sp)
    80004c86:	fc9a                	sd	t1,120(sp)
    80004c88:	e17a                	sd	t5,128(sp)
    80004c8a:	e51e                	sd	t2,136(sp)
    80004c8c:	e962                	sd	s8,144(sp)
    80004c8e:	ed42                	sd	a6,152(sp)
    80004c90:	f15a                	sd	s6,160(sp)
    80004c92:	f55e                	sd	s7,168(sp)
    80004c94:	4511                	li	a0,4
    80004c96:	f92a                	sd	a0,176(sp)
    80004c98:	7522                	ld	a0,40(sp)
    80004c9a:	fd2a                	sd	a0,184(sp)
    80004c9c:	7526                	ld	a0,104(sp)
    80004c9e:	e1aa                	sd	a0,192(sp)
    80004ca0:	7506                	ld	a0,96(sp)
    80004ca2:	e5aa                	sd	a0,200(sp)
    80004ca4:	6566                	ld	a0,88(sp)
    80004ca6:	e9aa                	sd	a0,208(sp)
    80004ca8:	6546                	ld	a0,80(sp)
    80004caa:	edaa                	sd	a0,216(sp)
    80004cac:	6526                	ld	a0,72(sp)
    80004cae:	f1aa                	sd	a0,224(sp)
    80004cb0:	6506                	ld	a0,64(sp)
    80004cb2:	f5aa                	sd	a0,232(sp)
    80004cb4:	7562                	ld	a0,56(sp)
    80004cb6:	f9aa                	sd	a0,240(sp)
    80004cb8:	02000513          	li	a0,32
    80004cbc:	86e6                	mv	a3,s9
    80004cbe:	00ac8633          	add	a2,s9,a0
    80004cc2:	fa063703          	ld	a4,-96(a2)
    80004cc6:	fe86b783          	ld	a5,-24(a3)
    80004cca:	fa863403          	ld	s0,-88(a2)
    80004cce:	ff06b483          	ld	s1,-16(a3)
    80004cd2:	02e78733          	mul	a4,a5,a4
    80004cd6:	028487b3          	mul	a5,s1,s0
    80004cda:	fb063403          	ld	s0,-80(a2)
    80004cde:	ff86b483          	ld	s1,-8(a3)
    80004ce2:	fb863603          	ld	a2,-72(a2)
    80004ce6:	628c                	ld	a1,0(a3)
    80004ce8:	02848433          	mul	s0,s1,s0
    80004cec:	02c585b3          	mul	a1,a1,a2
    80004cf0:	00170633          	add	a2,a4,ra
    80004cf4:	963e                	add	a2,a2,a5
    80004cf6:	9622                	add	a2,a2,s0
    80004cf8:	00b600b3          	add	ra,a2,a1
    80004cfc:	1501                	addi	a0,a0,-32
    80004cfe:	02068693          	addi	a3,a3,32
    80004d02:	fb251ee3          	bne	a0,s2,80004cbe <main+0x2b6a>
    80004d06:	4d01                	li	s10,0
    80004d08:	7542                	ld	a0,48(sp)
    80004d0a:	22153023          	sd	ra,544(a0)
    80004d0e:	260ebc03          	ld	s8,608(t4)
    80004d12:	f8f2                	sd	t3,112(sp)
    80004d14:	fc9a                	sd	t1,120(sp)
    80004d16:	e17a                	sd	t5,128(sp)
    80004d18:	e51e                	sd	t2,136(sp)
    80004d1a:	e962                	sd	s8,144(sp)
    80004d1c:	ed42                	sd	a6,152(sp)
    80004d1e:	f15a                	sd	s6,160(sp)
    80004d20:	f55e                	sd	s7,168(sp)
    80004d22:	4515                	li	a0,5
    80004d24:	f92a                	sd	a0,176(sp)
    80004d26:	7522                	ld	a0,40(sp)
    80004d28:	fd2a                	sd	a0,184(sp)
    80004d2a:	7526                	ld	a0,104(sp)
    80004d2c:	e1aa                	sd	a0,192(sp)
    80004d2e:	7506                	ld	a0,96(sp)
    80004d30:	e5aa                	sd	a0,200(sp)
    80004d32:	6566                	ld	a0,88(sp)
    80004d34:	e9aa                	sd	a0,208(sp)
    80004d36:	6546                	ld	a0,80(sp)
    80004d38:	edaa                	sd	a0,216(sp)
    80004d3a:	6526                	ld	a0,72(sp)
    80004d3c:	f1aa                	sd	a0,224(sp)
    80004d3e:	6506                	ld	a0,64(sp)
    80004d40:	f5aa                	sd	a0,232(sp)
    80004d42:	7562                	ld	a0,56(sp)
    80004d44:	f9aa                	sd	a0,240(sp)
    80004d46:	02800593          	li	a1,40
    80004d4a:	06000693          	li	a3,96
    80004d4e:	00b28633          	add	a2,t0,a1
    80004d52:	6218                	ld	a4,0(a2)
    80004d54:	00d287b3          	add	a5,t0,a3
    80004d58:	fe87b483          	ld	s1,-24(a5)
    80004d5c:	6600                	ld	s0,8(a2)
    80004d5e:	ff07b503          	ld	a0,-16(a5)
    80004d62:	02e48733          	mul	a4,s1,a4
    80004d66:	02850533          	mul	a0,a0,s0
    80004d6a:	6a10                	ld	a2,16(a2)
    80004d6c:	ff87b483          	ld	s1,-8(a5)
    80004d70:	fa07b403          	ld	s0,-96(a5)
    80004d74:	639c                	ld	a5,0(a5)
    80004d76:	02c48633          	mul	a2,s1,a2
    80004d7a:	028787b3          	mul	a5,a5,s0
    80004d7e:	976a                	add	a4,a4,s10
    80004d80:	953a                	add	a0,a0,a4
    80004d82:	9532                	add	a0,a0,a2
    80004d84:	00f50d33          	add	s10,a0,a5
    80004d88:	1581                	addi	a1,a1,-32
    80004d8a:	02068693          	addi	a3,a3,32
    80004d8e:	fdb590e3          	bne	a1,s11,80004d4e <main+0x2bfa>
    80004d92:	4081                	li	ra,0
    80004d94:	7542                	ld	a0,48(sp)
    80004d96:	23a53423          	sd	s10,552(a0)
    80004d9a:	268eb803          	ld	a6,616(t4)
    80004d9e:	f8f2                	sd	t3,112(sp)
    80004da0:	fc9a                	sd	t1,120(sp)
    80004da2:	e17a                	sd	t5,128(sp)
    80004da4:	e51e                	sd	t2,136(sp)
    80004da6:	e962                	sd	s8,144(sp)
    80004da8:	ed42                	sd	a6,152(sp)
    80004daa:	f15a                	sd	s6,160(sp)
    80004dac:	f55e                	sd	s7,168(sp)
    80004dae:	4519                	li	a0,6
    80004db0:	f92a                	sd	a0,176(sp)
    80004db2:	7522                	ld	a0,40(sp)
    80004db4:	fd2a                	sd	a0,184(sp)
    80004db6:	7526                	ld	a0,104(sp)
    80004db8:	e1aa                	sd	a0,192(sp)
    80004dba:	7506                	ld	a0,96(sp)
    80004dbc:	e5aa                	sd	a0,200(sp)
    80004dbe:	6566                	ld	a0,88(sp)
    80004dc0:	e9aa                	sd	a0,208(sp)
    80004dc2:	6546                	ld	a0,80(sp)
    80004dc4:	edaa                	sd	a0,216(sp)
    80004dc6:	6526                	ld	a0,72(sp)
    80004dc8:	f1aa                	sd	a0,224(sp)
    80004dca:	6506                	ld	a0,64(sp)
    80004dcc:	f5aa                	sd	a0,232(sp)
    80004dce:	7562                	ld	a0,56(sp)
    80004dd0:	f9aa                	sd	a0,240(sp)
    80004dd2:	fc000513          	li	a0,-64
    80004dd6:	86fe                	mv	a3,t6
    80004dd8:	ff86b603          	ld	a2,-8(a3)
    80004ddc:	00aa8733          	add	a4,s5,a0
    80004de0:	6f3c                	ld	a5,88(a4)
    80004de2:	6280                	ld	s0,0(a3)
    80004de4:	7324                	ld	s1,96(a4)
    80004de6:	02c78633          	mul	a2,a5,a2
    80004dea:	028487b3          	mul	a5,s1,s0
    80004dee:	6b00                	ld	s0,16(a4)
    80004df0:	7724                	ld	s1,104(a4)
    80004df2:	6f0c                	ld	a1,24(a4)
    80004df4:	7b38                	ld	a4,112(a4)
    80004df6:	02848433          	mul	s0,s1,s0
    80004dfa:	02b705b3          	mul	a1,a4,a1
    80004dfe:	9606                	add	a2,a2,ra
    80004e00:	963e                	add	a2,a2,a5
    80004e02:	9622                	add	a2,a2,s0
    80004e04:	00b600b3          	add	ra,a2,a1
    80004e08:	02050513          	addi	a0,a0,32
    80004e0c:	1681                	addi	a3,a3,-32
    80004e0e:	f569                	bnez	a0,80004dd8 <main+0x2c84>
    80004e10:	4d01                	li	s10,0
    80004e12:	7542                	ld	a0,48(sp)
    80004e14:	22153823          	sd	ra,560(a0)
    80004e18:	270ebb03          	ld	s6,624(t4)
    80004e1c:	f8f2                	sd	t3,112(sp)
    80004e1e:	fc9a                	sd	t1,120(sp)
    80004e20:	e17a                	sd	t5,128(sp)
    80004e22:	e51e                	sd	t2,136(sp)
    80004e24:	e962                	sd	s8,144(sp)
    80004e26:	ed42                	sd	a6,152(sp)
    80004e28:	f15a                	sd	s6,160(sp)
    80004e2a:	f55e                	sd	s7,168(sp)
    80004e2c:	451d                	li	a0,7
    80004e2e:	f92a                	sd	a0,176(sp)
    80004e30:	70a2                	ld	ra,40(sp)
    80004e32:	fd06                	sd	ra,184(sp)
    80004e34:	7526                	ld	a0,104(sp)
    80004e36:	e1aa                	sd	a0,192(sp)
    80004e38:	7506                	ld	a0,96(sp)
    80004e3a:	e5aa                	sd	a0,200(sp)
    80004e3c:	6566                	ld	a0,88(sp)
    80004e3e:	e9aa                	sd	a0,208(sp)
    80004e40:	6546                	ld	a0,80(sp)
    80004e42:	edaa                	sd	a0,216(sp)
    80004e44:	6526                	ld	a0,72(sp)
    80004e46:	f1aa                	sd	a0,224(sp)
    80004e48:	6506                	ld	a0,64(sp)
    80004e4a:	f5aa                	sd	a0,232(sp)
    80004e4c:	7562                	ld	a0,56(sp)
    80004e4e:	f9aa                	sd	a0,240(sp)
    80004e50:	03800593          	li	a1,56
    80004e54:	06000693          	li	a3,96
    80004e58:	00b28633          	add	a2,t0,a1
    80004e5c:	6210                	ld	a2,0(a2)
    80004e5e:	00d28733          	add	a4,t0,a3
    80004e62:	fe873783          	ld	a5,-24(a4)
    80004e66:	fa073403          	ld	s0,-96(a4)
    80004e6a:	ff073483          	ld	s1,-16(a4)
    80004e6e:	02c78633          	mul	a2,a5,a2
    80004e72:	028487b3          	mul	a5,s1,s0
    80004e76:	fa873403          	ld	s0,-88(a4)
    80004e7a:	ff873483          	ld	s1,-8(a4)
    80004e7e:	fb073503          	ld	a0,-80(a4)
    80004e82:	6318                	ld	a4,0(a4)
    80004e84:	02848433          	mul	s0,s1,s0
    80004e88:	02a70533          	mul	a0,a4,a0
    80004e8c:	966a                	add	a2,a2,s10
    80004e8e:	963e                	add	a2,a2,a5
    80004e90:	9622                	add	a2,a2,s0
    80004e92:	00a60d33          	add	s10,a2,a0
    80004e96:	1581                	addi	a1,a1,-32
    80004e98:	02068693          	addi	a3,a3,32
    80004e9c:	fb359ee3          	bne	a1,s3,80004e58 <main+0x2d04>
    80004ea0:	4581                	li	a1,0
    80004ea2:	7542                	ld	a0,48(sp)
    80004ea4:	23a53c23          	sd	s10,568(a0)
    80004ea8:	278ebb83          	ld	s7,632(t4)
    80004eac:	f8f2                	sd	t3,112(sp)
    80004eae:	fc9a                	sd	t1,120(sp)
    80004eb0:	e17a                	sd	t5,128(sp)
    80004eb2:	e51e                	sd	t2,136(sp)
    80004eb4:	e962                	sd	s8,144(sp)
    80004eb6:	ed42                	sd	a6,152(sp)
    80004eb8:	f15a                	sd	s6,160(sp)
    80004eba:	f55e                	sd	s7,168(sp)
    80004ebc:	f902                	sd	zero,176(sp)
    80004ebe:	fd06                	sd	ra,184(sp)
    80004ec0:	7526                	ld	a0,104(sp)
    80004ec2:	e1aa                	sd	a0,192(sp)
    80004ec4:	7506                	ld	a0,96(sp)
    80004ec6:	e5aa                	sd	a0,200(sp)
    80004ec8:	6566                	ld	a0,88(sp)
    80004eca:	e9aa                	sd	a0,208(sp)
    80004ecc:	6546                	ld	a0,80(sp)
    80004ece:	edaa                	sd	a0,216(sp)
    80004ed0:	6526                	ld	a0,72(sp)
    80004ed2:	f1aa                	sd	a0,224(sp)
    80004ed4:	6506                	ld	a0,64(sp)
    80004ed6:	f5aa                	sd	a0,232(sp)
    80004ed8:	7562                	ld	a0,56(sp)
    80004eda:	f9aa                	sd	a0,240(sp)
    80004edc:	4541                	li	a0,16
    80004ede:	05000e13          	li	t3,80
    80004ee2:	00a28633          	add	a2,t0,a0
    80004ee6:	ff063683          	ld	a3,-16(a2)
    80004eea:	7e18                	ld	a4,56(a2)
    80004eec:	02d706b3          	mul	a3,a4,a3
    80004ef0:	ff863703          	ld	a4,-8(a2)
    80004ef4:	623c                	ld	a5,64(a2)
    80004ef6:	6204                	ld	s1,0(a2)
    80004ef8:	6620                	ld	s0,72(a2)
    80004efa:	02e78733          	mul	a4,a5,a4
    80004efe:	029407b3          	mul	a5,s0,s1
    80004f02:	6604                	ld	s1,8(a2)
    80004f04:	6a30                	ld	a2,80(a2)
    80004f06:	95b6                	add	a1,a1,a3
    80004f08:	02960633          	mul	a2,a2,s1
    80004f0c:	95ba                	add	a1,a1,a4
    80004f0e:	95be                	add	a1,a1,a5
    80004f10:	02050513          	addi	a0,a0,32
    80004f14:	95b2                	add	a1,a1,a2
    80004f16:	fdc516e3          	bne	a0,t3,80004ee2 <main+0x2d8e>
    80004f1a:	4681                	li	a3,0
    80004f1c:	4501                	li	a0,0
    80004f1e:	280ebe03          	ld	t3,640(t4)
    80004f22:	7642                	ld	a2,48(sp)
    80004f24:	24b63023          	sd	a1,576(a2)
    80004f28:	f8f2                	sd	t3,112(sp)
    80004f2a:	fc9a                	sd	t1,120(sp)
    80004f2c:	e17a                	sd	t5,128(sp)
    80004f2e:	e51e                	sd	t2,136(sp)
    80004f30:	e962                	sd	s8,144(sp)
    80004f32:	ed42                	sd	a6,152(sp)
    80004f34:	f15a                	sd	s6,160(sp)
    80004f36:	f55e                	sd	s7,168(sp)
    80004f38:	4585                	li	a1,1
    80004f3a:	f92e                	sd	a1,176(sp)
    80004f3c:	fd06                	sd	ra,184(sp)
    80004f3e:	75a6                	ld	a1,104(sp)
    80004f40:	e1ae                	sd	a1,192(sp)
    80004f42:	7586                	ld	a1,96(sp)
    80004f44:	e5ae                	sd	a1,200(sp)
    80004f46:	65e6                	ld	a1,88(sp)
    80004f48:	e9ae                	sd	a1,208(sp)
    80004f4a:	65c6                	ld	a1,80(sp)
    80004f4c:	edae                	sd	a1,216(sp)
    80004f4e:	65a6                	ld	a1,72(sp)
    80004f50:	f1ae                	sd	a1,224(sp)
    80004f52:	6586                	ld	a1,64(sp)
    80004f54:	f5ae                	sd	a1,232(sp)
    80004f56:	75e2                	ld	a1,56(sp)
    80004f58:	f9ae                	sd	a1,240(sp)
    80004f5a:	192c                	addi	a1,sp,184
    80004f5c:	fc05b603          	ld	a2,-64(a1)
    80004f60:	6198                	ld	a4,0(a1)
    80004f62:	fc85b783          	ld	a5,-56(a1)
    80004f66:	6584                	ld	s1,8(a1)
    80004f68:	02c70333          	mul	t1,a4,a2
    80004f6c:	02f48733          	mul	a4,s1,a5
    80004f70:	fd05b783          	ld	a5,-48(a1)
    80004f74:	6984                	ld	s1,16(a1)
    80004f76:	0046c413          	xori	s0,a3,4
    80004f7a:	040e                	slli	s0,s0,0x3
    80004f7c:	9416                	add	s0,s0,t0
    80004f7e:	6000                	ld	s0,0(s0)
    80004f80:	6d90                	ld	a2,24(a1)
    80004f82:	02f487b3          	mul	a5,s1,a5
    80004f86:	02860633          	mul	a2,a2,s0
    80004f8a:	951a                	add	a0,a0,t1
    80004f8c:	953a                	add	a0,a0,a4
    80004f8e:	953e                	add	a0,a0,a5
    80004f90:	9532                	add	a0,a0,a2
    80004f92:	0691                	addi	a3,a3,4
    80004f94:	02058593          	addi	a1,a1,32
    80004f98:	fd4692e3          	bne	a3,s4,80004f5c <main+0x2e08>
    80004f9c:	4681                	li	a3,0
    80004f9e:	4401                	li	s0,0
    80004fa0:	75c2                	ld	a1,48(sp)
    80004fa2:	24a5b423          	sd	a0,584(a1)
    80004fa6:	288eb303          	ld	t1,648(t4)
    80004faa:	f8f2                	sd	t3,112(sp)
    80004fac:	fc9a                	sd	t1,120(sp)
    80004fae:	e17a                	sd	t5,128(sp)
    80004fb0:	e51e                	sd	t2,136(sp)
    80004fb2:	e962                	sd	s8,144(sp)
    80004fb4:	ed42                	sd	a6,152(sp)
    80004fb6:	f15a                	sd	s6,160(sp)
    80004fb8:	f55e                	sd	s7,168(sp)
    80004fba:	4509                	li	a0,2
    80004fbc:	f92a                	sd	a0,176(sp)
    80004fbe:	fd06                	sd	ra,184(sp)
    80004fc0:	7526                	ld	a0,104(sp)
    80004fc2:	e1aa                	sd	a0,192(sp)
    80004fc4:	7506                	ld	a0,96(sp)
    80004fc6:	e5aa                	sd	a0,200(sp)
    80004fc8:	6566                	ld	a0,88(sp)
    80004fca:	e9aa                	sd	a0,208(sp)
    80004fcc:	6546                	ld	a0,80(sp)
    80004fce:	edaa                	sd	a0,216(sp)
    80004fd0:	6526                	ld	a0,72(sp)
    80004fd2:	f1aa                	sd	a0,224(sp)
    80004fd4:	6506                	ld	a0,64(sp)
    80004fd6:	f5aa                	sd	a0,232(sp)
    80004fd8:	7562                	ld	a0,56(sp)
    80004fda:	f9aa                	sd	a0,240(sp)
    80004fdc:	8566                	mv	a0,s9
    80004fde:	092c                	addi	a1,sp,152
    80004fe0:	fb053603          	ld	a2,-80(a0)
    80004fe4:	fe853703          	ld	a4,-24(a0)
    80004fe8:	fb853783          	ld	a5,-72(a0)
    80004fec:	ff053483          	ld	s1,-16(a0)
    80004ff0:	02c70f33          	mul	t5,a4,a2
    80004ff4:	02f48d33          	mul	s10,s1,a5
    80004ff8:	0046c793          	xori	a5,a3,4
    80004ffc:	078e                	slli	a5,a5,0x3
    80004ffe:	9796                	add	a5,a5,t0
    80005000:	639c                	ld	a5,0(a5)
    80005002:	ff853483          	ld	s1,-8(a0)
    80005006:	6190                	ld	a2,0(a1)
    80005008:	6118                	ld	a4,0(a0)
    8000500a:	02f487b3          	mul	a5,s1,a5
    8000500e:	02c70633          	mul	a2,a4,a2
    80005012:	008f0733          	add	a4,t5,s0
    80005016:	976a                	add	a4,a4,s10
    80005018:	973e                	add	a4,a4,a5
    8000501a:	00c70433          	add	s0,a4,a2
    8000501e:	0691                	addi	a3,a3,4
    80005020:	1581                	addi	a1,a1,-32
    80005022:	02050513          	addi	a0,a0,32
    80005026:	fb469de3          	bne	a3,s4,80004fe0 <main+0x2e8c>
    8000502a:	4681                	li	a3,0
    8000502c:	4d01                	li	s10,0
    8000502e:	7542                	ld	a0,48(sp)
    80005030:	24853823          	sd	s0,592(a0)
    80005034:	290ebf03          	ld	t5,656(t4)
    80005038:	f8f2                	sd	t3,112(sp)
    8000503a:	fc9a                	sd	t1,120(sp)
    8000503c:	e17a                	sd	t5,128(sp)
    8000503e:	e51e                	sd	t2,136(sp)
    80005040:	e962                	sd	s8,144(sp)
    80005042:	ed42                	sd	a6,152(sp)
    80005044:	f15a                	sd	s6,160(sp)
    80005046:	f55e                	sd	s7,168(sp)
    80005048:	450d                	li	a0,3
    8000504a:	f92a                	sd	a0,176(sp)
    8000504c:	fd06                	sd	ra,184(sp)
    8000504e:	7526                	ld	a0,104(sp)
    80005050:	e1aa                	sd	a0,192(sp)
    80005052:	7506                	ld	a0,96(sp)
    80005054:	e5aa                	sd	a0,200(sp)
    80005056:	6566                	ld	a0,88(sp)
    80005058:	e9aa                	sd	a0,208(sp)
    8000505a:	6546                	ld	a0,80(sp)
    8000505c:	edaa                	sd	a0,216(sp)
    8000505e:	6526                	ld	a0,72(sp)
    80005060:	f1aa                	sd	a0,224(sp)
    80005062:	6506                	ld	a0,64(sp)
    80005064:	f5aa                	sd	a0,232(sp)
    80005066:	7562                	ld	a0,56(sp)
    80005068:	f9aa                	sd	a0,240(sp)
    8000506a:	fc000593          	li	a1,-64
    8000506e:	8456                	mv	s0,s5
    80005070:	00ba8633          	add	a2,s5,a1
    80005074:	7618                	ld	a4,40(a2)
    80005076:	6e3c                	ld	a5,88(a2)
    80005078:	0046c493          	xori	s1,a3,4
    8000507c:	048e                	slli	s1,s1,0x3
    8000507e:	9496                	add	s1,s1,t0
    80005080:	6084                	ld	s1,0(s1)
    80005082:	7228                	ld	a0,96(a2)
    80005084:	02e78733          	mul	a4,a5,a4
    80005088:	029503b3          	mul	t2,a0,s1
    8000508c:	ff843783          	ld	a5,-8(s0)
    80005090:	7624                	ld	s1,104(a2)
    80005092:	6008                	ld	a0,0(s0)
    80005094:	7a30                	ld	a2,112(a2)
    80005096:	02f487b3          	mul	a5,s1,a5
    8000509a:	02a60533          	mul	a0,a2,a0
    8000509e:	01a70633          	add	a2,a4,s10
    800050a2:	961e                	add	a2,a2,t2
    800050a4:	963e                	add	a2,a2,a5
    800050a6:	00a60d33          	add	s10,a2,a0
    800050aa:	0691                	addi	a3,a3,4
    800050ac:	02058593          	addi	a1,a1,32
    800050b0:	1401                	addi	s0,s0,-32
    800050b2:	fddd                	bnez	a1,80005070 <main+0x2f1c>
    800050b4:	4081                	li	ra,0
    800050b6:	7542                	ld	a0,48(sp)
    800050b8:	25a53c23          	sd	s10,600(a0)
    800050bc:	298eb383          	ld	t2,664(t4)
    800050c0:	f8f2                	sd	t3,112(sp)
    800050c2:	fc9a                	sd	t1,120(sp)
    800050c4:	e17a                	sd	t5,128(sp)
    800050c6:	e51e                	sd	t2,136(sp)
    800050c8:	e962                	sd	s8,144(sp)
    800050ca:	ed42                	sd	a6,152(sp)
    800050cc:	f15a                	sd	s6,160(sp)
    800050ce:	f55e                	sd	s7,168(sp)
    800050d0:	4511                	li	a0,4
    800050d2:	f92a                	sd	a0,176(sp)
    800050d4:	7522                	ld	a0,40(sp)
    800050d6:	fd2a                	sd	a0,184(sp)
    800050d8:	7526                	ld	a0,104(sp)
    800050da:	e1aa                	sd	a0,192(sp)
    800050dc:	7506                	ld	a0,96(sp)
    800050de:	e5aa                	sd	a0,200(sp)
    800050e0:	6566                	ld	a0,88(sp)
    800050e2:	e9aa                	sd	a0,208(sp)
    800050e4:	6546                	ld	a0,80(sp)
    800050e6:	edaa                	sd	a0,216(sp)
    800050e8:	6526                	ld	a0,72(sp)
    800050ea:	f1aa                	sd	a0,224(sp)
    800050ec:	6506                	ld	a0,64(sp)
    800050ee:	f5aa                	sd	a0,232(sp)
    800050f0:	7562                	ld	a0,56(sp)
    800050f2:	f9aa                	sd	a0,240(sp)
    800050f4:	02000513          	li	a0,32
    800050f8:	86e6                	mv	a3,s9
    800050fa:	00ac8633          	add	a2,s9,a0
    800050fe:	fa063703          	ld	a4,-96(a2)
    80005102:	fe86b783          	ld	a5,-24(a3)
    80005106:	fa863403          	ld	s0,-88(a2)
    8000510a:	ff06b483          	ld	s1,-16(a3)
    8000510e:	02e78733          	mul	a4,a5,a4
    80005112:	028487b3          	mul	a5,s1,s0
    80005116:	fb063403          	ld	s0,-80(a2)
    8000511a:	ff86b483          	ld	s1,-8(a3)
    8000511e:	fb863603          	ld	a2,-72(a2)
    80005122:	628c                	ld	a1,0(a3)
    80005124:	02848433          	mul	s0,s1,s0
    80005128:	02c585b3          	mul	a1,a1,a2
    8000512c:	00170633          	add	a2,a4,ra
    80005130:	963e                	add	a2,a2,a5
    80005132:	9622                	add	a2,a2,s0
    80005134:	00b600b3          	add	ra,a2,a1
    80005138:	1501                	addi	a0,a0,-32
    8000513a:	02068693          	addi	a3,a3,32
    8000513e:	fb251ee3          	bne	a0,s2,800050fa <main+0x2fa6>
    80005142:	4d01                	li	s10,0
    80005144:	7542                	ld	a0,48(sp)
    80005146:	26153023          	sd	ra,608(a0)
    8000514a:	2a0ebc03          	ld	s8,672(t4)
    8000514e:	f8f2                	sd	t3,112(sp)
    80005150:	fc9a                	sd	t1,120(sp)
    80005152:	e17a                	sd	t5,128(sp)
    80005154:	e51e                	sd	t2,136(sp)
    80005156:	e962                	sd	s8,144(sp)
    80005158:	ed42                	sd	a6,152(sp)
    8000515a:	f15a                	sd	s6,160(sp)
    8000515c:	f55e                	sd	s7,168(sp)
    8000515e:	4515                	li	a0,5
    80005160:	f92a                	sd	a0,176(sp)
    80005162:	7522                	ld	a0,40(sp)
    80005164:	fd2a                	sd	a0,184(sp)
    80005166:	7526                	ld	a0,104(sp)
    80005168:	e1aa                	sd	a0,192(sp)
    8000516a:	7506                	ld	a0,96(sp)
    8000516c:	e5aa                	sd	a0,200(sp)
    8000516e:	6566                	ld	a0,88(sp)
    80005170:	e9aa                	sd	a0,208(sp)
    80005172:	6546                	ld	a0,80(sp)
    80005174:	edaa                	sd	a0,216(sp)
    80005176:	6526                	ld	a0,72(sp)
    80005178:	f1aa                	sd	a0,224(sp)
    8000517a:	6506                	ld	a0,64(sp)
    8000517c:	f5aa                	sd	a0,232(sp)
    8000517e:	7562                	ld	a0,56(sp)
    80005180:	f9aa                	sd	a0,240(sp)
    80005182:	02800593          	li	a1,40
    80005186:	06000693          	li	a3,96
    8000518a:	00b28633          	add	a2,t0,a1
    8000518e:	6218                	ld	a4,0(a2)
    80005190:	00d287b3          	add	a5,t0,a3
    80005194:	fe87b483          	ld	s1,-24(a5)
    80005198:	6600                	ld	s0,8(a2)
    8000519a:	ff07b503          	ld	a0,-16(a5)
    8000519e:	02e48733          	mul	a4,s1,a4
    800051a2:	02850533          	mul	a0,a0,s0
    800051a6:	6a10                	ld	a2,16(a2)
    800051a8:	ff87b483          	ld	s1,-8(a5)
    800051ac:	fa07b403          	ld	s0,-96(a5)
    800051b0:	639c                	ld	a5,0(a5)
    800051b2:	02c48633          	mul	a2,s1,a2
    800051b6:	028787b3          	mul	a5,a5,s0
    800051ba:	976a                	add	a4,a4,s10
    800051bc:	953a                	add	a0,a0,a4
    800051be:	9532                	add	a0,a0,a2
    800051c0:	00f50d33          	add	s10,a0,a5
    800051c4:	1581                	addi	a1,a1,-32
    800051c6:	02068693          	addi	a3,a3,32
    800051ca:	fdb590e3          	bne	a1,s11,8000518a <main+0x3036>
    800051ce:	4081                	li	ra,0
    800051d0:	7542                	ld	a0,48(sp)
    800051d2:	27a53423          	sd	s10,616(a0)
    800051d6:	2a8eb803          	ld	a6,680(t4)
    800051da:	f8f2                	sd	t3,112(sp)
    800051dc:	fc9a                	sd	t1,120(sp)
    800051de:	e17a                	sd	t5,128(sp)
    800051e0:	e51e                	sd	t2,136(sp)
    800051e2:	e962                	sd	s8,144(sp)
    800051e4:	ed42                	sd	a6,152(sp)
    800051e6:	f15a                	sd	s6,160(sp)
    800051e8:	f55e                	sd	s7,168(sp)
    800051ea:	4519                	li	a0,6
    800051ec:	f92a                	sd	a0,176(sp)
    800051ee:	7522                	ld	a0,40(sp)
    800051f0:	fd2a                	sd	a0,184(sp)
    800051f2:	7526                	ld	a0,104(sp)
    800051f4:	e1aa                	sd	a0,192(sp)
    800051f6:	7506                	ld	a0,96(sp)
    800051f8:	e5aa                	sd	a0,200(sp)
    800051fa:	6566                	ld	a0,88(sp)
    800051fc:	e9aa                	sd	a0,208(sp)
    800051fe:	6546                	ld	a0,80(sp)
    80005200:	edaa                	sd	a0,216(sp)
    80005202:	6526                	ld	a0,72(sp)
    80005204:	f1aa                	sd	a0,224(sp)
    80005206:	6506                	ld	a0,64(sp)
    80005208:	f5aa                	sd	a0,232(sp)
    8000520a:	7562                	ld	a0,56(sp)
    8000520c:	f9aa                	sd	a0,240(sp)
    8000520e:	fc000513          	li	a0,-64
    80005212:	86fe                	mv	a3,t6
    80005214:	ff86b603          	ld	a2,-8(a3)
    80005218:	00aa8733          	add	a4,s5,a0
    8000521c:	6f3c                	ld	a5,88(a4)
    8000521e:	6280                	ld	s0,0(a3)
    80005220:	7324                	ld	s1,96(a4)
    80005222:	02c78633          	mul	a2,a5,a2
    80005226:	028487b3          	mul	a5,s1,s0
    8000522a:	6b00                	ld	s0,16(a4)
    8000522c:	7724                	ld	s1,104(a4)
    8000522e:	6f0c                	ld	a1,24(a4)
    80005230:	7b38                	ld	a4,112(a4)
    80005232:	02848433          	mul	s0,s1,s0
    80005236:	02b705b3          	mul	a1,a4,a1
    8000523a:	9606                	add	a2,a2,ra
    8000523c:	963e                	add	a2,a2,a5
    8000523e:	9622                	add	a2,a2,s0
    80005240:	00b600b3          	add	ra,a2,a1
    80005244:	02050513          	addi	a0,a0,32
    80005248:	1681                	addi	a3,a3,-32
    8000524a:	f569                	bnez	a0,80005214 <main+0x30c0>
    8000524c:	4d01                	li	s10,0
    8000524e:	7542                	ld	a0,48(sp)
    80005250:	26153823          	sd	ra,624(a0)
    80005254:	2b0ebb03          	ld	s6,688(t4)
    80005258:	f8f2                	sd	t3,112(sp)
    8000525a:	fc9a                	sd	t1,120(sp)
    8000525c:	e17a                	sd	t5,128(sp)
    8000525e:	e51e                	sd	t2,136(sp)
    80005260:	e962                	sd	s8,144(sp)
    80005262:	ed42                	sd	a6,152(sp)
    80005264:	f15a                	sd	s6,160(sp)
    80005266:	f55e                	sd	s7,168(sp)
    80005268:	451d                	li	a0,7
    8000526a:	f92a                	sd	a0,176(sp)
    8000526c:	70a2                	ld	ra,40(sp)
    8000526e:	fd06                	sd	ra,184(sp)
    80005270:	7526                	ld	a0,104(sp)
    80005272:	e1aa                	sd	a0,192(sp)
    80005274:	7506                	ld	a0,96(sp)
    80005276:	e5aa                	sd	a0,200(sp)
    80005278:	6566                	ld	a0,88(sp)
    8000527a:	e9aa                	sd	a0,208(sp)
    8000527c:	6546                	ld	a0,80(sp)
    8000527e:	edaa                	sd	a0,216(sp)
    80005280:	6526                	ld	a0,72(sp)
    80005282:	f1aa                	sd	a0,224(sp)
    80005284:	6506                	ld	a0,64(sp)
    80005286:	f5aa                	sd	a0,232(sp)
    80005288:	7562                	ld	a0,56(sp)
    8000528a:	f9aa                	sd	a0,240(sp)
    8000528c:	03800593          	li	a1,56
    80005290:	06000693          	li	a3,96
    80005294:	00b28633          	add	a2,t0,a1
    80005298:	6210                	ld	a2,0(a2)
    8000529a:	00d28733          	add	a4,t0,a3
    8000529e:	fe873783          	ld	a5,-24(a4)
    800052a2:	fa073403          	ld	s0,-96(a4)
    800052a6:	ff073483          	ld	s1,-16(a4)
    800052aa:	02c78633          	mul	a2,a5,a2
    800052ae:	028487b3          	mul	a5,s1,s0
    800052b2:	fa873403          	ld	s0,-88(a4)
    800052b6:	ff873483          	ld	s1,-8(a4)
    800052ba:	fb073503          	ld	a0,-80(a4)
    800052be:	6318                	ld	a4,0(a4)
    800052c0:	02848433          	mul	s0,s1,s0
    800052c4:	02a70533          	mul	a0,a4,a0
    800052c8:	966a                	add	a2,a2,s10
    800052ca:	963e                	add	a2,a2,a5
    800052cc:	9622                	add	a2,a2,s0
    800052ce:	00a60d33          	add	s10,a2,a0
    800052d2:	1581                	addi	a1,a1,-32
    800052d4:	02068693          	addi	a3,a3,32
    800052d8:	fb359ee3          	bne	a1,s3,80005294 <main+0x3140>
    800052dc:	4581                	li	a1,0
    800052de:	7542                	ld	a0,48(sp)
    800052e0:	27a53c23          	sd	s10,632(a0)
    800052e4:	2b8ebb83          	ld	s7,696(t4)
    800052e8:	f8f2                	sd	t3,112(sp)
    800052ea:	fc9a                	sd	t1,120(sp)
    800052ec:	e17a                	sd	t5,128(sp)
    800052ee:	e51e                	sd	t2,136(sp)
    800052f0:	e962                	sd	s8,144(sp)
    800052f2:	ed42                	sd	a6,152(sp)
    800052f4:	f15a                	sd	s6,160(sp)
    800052f6:	f55e                	sd	s7,168(sp)
    800052f8:	f902                	sd	zero,176(sp)
    800052fa:	fd06                	sd	ra,184(sp)
    800052fc:	7526                	ld	a0,104(sp)
    800052fe:	e1aa                	sd	a0,192(sp)
    80005300:	7506                	ld	a0,96(sp)
    80005302:	e5aa                	sd	a0,200(sp)
    80005304:	6566                	ld	a0,88(sp)
    80005306:	e9aa                	sd	a0,208(sp)
    80005308:	6546                	ld	a0,80(sp)
    8000530a:	edaa                	sd	a0,216(sp)
    8000530c:	6526                	ld	a0,72(sp)
    8000530e:	f1aa                	sd	a0,224(sp)
    80005310:	6506                	ld	a0,64(sp)
    80005312:	f5aa                	sd	a0,232(sp)
    80005314:	7562                	ld	a0,56(sp)
    80005316:	f9aa                	sd	a0,240(sp)
    80005318:	4541                	li	a0,16
    8000531a:	05000e13          	li	t3,80
    8000531e:	00a28633          	add	a2,t0,a0
    80005322:	ff063683          	ld	a3,-16(a2)
    80005326:	7e18                	ld	a4,56(a2)
    80005328:	02d706b3          	mul	a3,a4,a3
    8000532c:	ff863703          	ld	a4,-8(a2)
    80005330:	623c                	ld	a5,64(a2)
    80005332:	6204                	ld	s1,0(a2)
    80005334:	6620                	ld	s0,72(a2)
    80005336:	02e78733          	mul	a4,a5,a4
    8000533a:	029407b3          	mul	a5,s0,s1
    8000533e:	6604                	ld	s1,8(a2)
    80005340:	6a30                	ld	a2,80(a2)
    80005342:	95b6                	add	a1,a1,a3
    80005344:	02960633          	mul	a2,a2,s1
    80005348:	95ba                	add	a1,a1,a4
    8000534a:	95be                	add	a1,a1,a5
    8000534c:	02050513          	addi	a0,a0,32
    80005350:	95b2                	add	a1,a1,a2
    80005352:	fdc516e3          	bne	a0,t3,8000531e <main+0x31ca>
    80005356:	4501                	li	a0,0
    80005358:	4401                	li	s0,0
    8000535a:	2c0ebe03          	ld	t3,704(t4)
    8000535e:	7642                	ld	a2,48(sp)
    80005360:	28b63023          	sd	a1,640(a2)
    80005364:	f8f2                	sd	t3,112(sp)
    80005366:	fc9a                	sd	t1,120(sp)
    80005368:	e17a                	sd	t5,128(sp)
    8000536a:	e51e                	sd	t2,136(sp)
    8000536c:	e962                	sd	s8,144(sp)
    8000536e:	ed42                	sd	a6,152(sp)
    80005370:	f15a                	sd	s6,160(sp)
    80005372:	f55e                	sd	s7,168(sp)
    80005374:	4585                	li	a1,1
    80005376:	f92e                	sd	a1,176(sp)
    80005378:	fd06                	sd	ra,184(sp)
    8000537a:	75a6                	ld	a1,104(sp)
    8000537c:	e1ae                	sd	a1,192(sp)
    8000537e:	7586                	ld	a1,96(sp)
    80005380:	e5ae                	sd	a1,200(sp)
    80005382:	65e6                	ld	a1,88(sp)
    80005384:	e9ae                	sd	a1,208(sp)
    80005386:	65c6                	ld	a1,80(sp)
    80005388:	edae                	sd	a1,216(sp)
    8000538a:	65a6                	ld	a1,72(sp)
    8000538c:	f1ae                	sd	a1,224(sp)
    8000538e:	6586                	ld	a1,64(sp)
    80005390:	f5ae                	sd	a1,232(sp)
    80005392:	75e2                	ld	a1,56(sp)
    80005394:	f9ae                	sd	a1,240(sp)
    80005396:	192c                	addi	a1,sp,184
    80005398:	fc05b603          	ld	a2,-64(a1)
    8000539c:	6194                	ld	a3,0(a1)
    8000539e:	fc85b703          	ld	a4,-56(a1)
    800053a2:	659c                	ld	a5,8(a1)
    800053a4:	02c68333          	mul	t1,a3,a2
    800053a8:	02e786b3          	mul	a3,a5,a4
    800053ac:	fd05b703          	ld	a4,-48(a1)
    800053b0:	699c                	ld	a5,16(a1)
    800053b2:	00454493          	xori	s1,a0,4
    800053b6:	048e                	slli	s1,s1,0x3
    800053b8:	9496                	add	s1,s1,t0
    800053ba:	6084                	ld	s1,0(s1)
    800053bc:	6d90                	ld	a2,24(a1)
    800053be:	02e78733          	mul	a4,a5,a4
    800053c2:	02960633          	mul	a2,a2,s1
    800053c6:	008307b3          	add	a5,t1,s0
    800053ca:	96be                	add	a3,a3,a5
    800053cc:	96ba                	add	a3,a3,a4
    800053ce:	00c68433          	add	s0,a3,a2
    800053d2:	0511                	addi	a0,a0,4
    800053d4:	02058593          	addi	a1,a1,32
    800053d8:	fd4510e3          	bne	a0,s4,80005398 <main+0x3244>
    800053dc:	4681                	li	a3,0
    800053de:	4501                	li	a0,0
    800053e0:	75c2                	ld	a1,48(sp)
    800053e2:	2885b423          	sd	s0,648(a1)
    800053e6:	2c8eb303          	ld	t1,712(t4)
    800053ea:	f8f2                	sd	t3,112(sp)
    800053ec:	fc9a                	sd	t1,120(sp)
    800053ee:	e17a                	sd	t5,128(sp)
    800053f0:	e51e                	sd	t2,136(sp)
    800053f2:	e962                	sd	s8,144(sp)
    800053f4:	ed42                	sd	a6,152(sp)
    800053f6:	f15a                	sd	s6,160(sp)
    800053f8:	f55e                	sd	s7,168(sp)
    800053fa:	4589                	li	a1,2
    800053fc:	f92e                	sd	a1,176(sp)
    800053fe:	fd06                	sd	ra,184(sp)
    80005400:	75a6                	ld	a1,104(sp)
    80005402:	e1ae                	sd	a1,192(sp)
    80005404:	7586                	ld	a1,96(sp)
    80005406:	e5ae                	sd	a1,200(sp)
    80005408:	65e6                	ld	a1,88(sp)
    8000540a:	e9ae                	sd	a1,208(sp)
    8000540c:	65c6                	ld	a1,80(sp)
    8000540e:	edae                	sd	a1,216(sp)
    80005410:	65a6                	ld	a1,72(sp)
    80005412:	f1ae                	sd	a1,224(sp)
    80005414:	6586                	ld	a1,64(sp)
    80005416:	f5ae                	sd	a1,232(sp)
    80005418:	75e2                	ld	a1,56(sp)
    8000541a:	f9ae                	sd	a1,240(sp)
    8000541c:	85e6                	mv	a1,s9
    8000541e:	093c                	addi	a5,sp,152
    80005420:	fb05b603          	ld	a2,-80(a1)
    80005424:	fe85b703          	ld	a4,-24(a1)
    80005428:	fb85b483          	ld	s1,-72(a1)
    8000542c:	ff05b403          	ld	s0,-16(a1)
    80005430:	02c70f33          	mul	t5,a4,a2
    80005434:	02940d33          	mul	s10,s0,s1
    80005438:	0046c493          	xori	s1,a3,4
    8000543c:	048e                	slli	s1,s1,0x3
    8000543e:	9496                	add	s1,s1,t0
    80005440:	6084                	ld	s1,0(s1)
    80005442:	ff85b403          	ld	s0,-8(a1)
    80005446:	6390                	ld	a2,0(a5)
    80005448:	6198                	ld	a4,0(a1)
    8000544a:	02940433          	mul	s0,s0,s1
    8000544e:	02c70633          	mul	a2,a4,a2
    80005452:	957a                	add	a0,a0,t5
    80005454:	956a                	add	a0,a0,s10
    80005456:	9522                	add	a0,a0,s0
    80005458:	9532                	add	a0,a0,a2
    8000545a:	0691                	addi	a3,a3,4
    8000545c:	1781                	addi	a5,a5,-32
    8000545e:	02058593          	addi	a1,a1,32
    80005462:	fb469fe3          	bne	a3,s4,80005420 <main+0x32cc>
    80005466:	4681                	li	a3,0
    80005468:	4d01                	li	s10,0
    8000546a:	75c2                	ld	a1,48(sp)
    8000546c:	28a5b823          	sd	a0,656(a1)
    80005470:	2d0ebf03          	ld	t5,720(t4)
    80005474:	f8f2                	sd	t3,112(sp)
    80005476:	fc9a                	sd	t1,120(sp)
    80005478:	e17a                	sd	t5,128(sp)
    8000547a:	e51e                	sd	t2,136(sp)
    8000547c:	e962                	sd	s8,144(sp)
    8000547e:	ed42                	sd	a6,152(sp)
    80005480:	f15a                	sd	s6,160(sp)
    80005482:	f55e                	sd	s7,168(sp)
    80005484:	450d                	li	a0,3
    80005486:	f92a                	sd	a0,176(sp)
    80005488:	fd06                	sd	ra,184(sp)
    8000548a:	7526                	ld	a0,104(sp)
    8000548c:	e1aa                	sd	a0,192(sp)
    8000548e:	7506                	ld	a0,96(sp)
    80005490:	e5aa                	sd	a0,200(sp)
    80005492:	6566                	ld	a0,88(sp)
    80005494:	e9aa                	sd	a0,208(sp)
    80005496:	6546                	ld	a0,80(sp)
    80005498:	edaa                	sd	a0,216(sp)
    8000549a:	6526                	ld	a0,72(sp)
    8000549c:	f1aa                	sd	a0,224(sp)
    8000549e:	6506                	ld	a0,64(sp)
    800054a0:	f5aa                	sd	a0,232(sp)
    800054a2:	7562                	ld	a0,56(sp)
    800054a4:	f9aa                	sd	a0,240(sp)
    800054a6:	fc000513          	li	a0,-64
    800054aa:	85d6                	mv	a1,s5
    800054ac:	00aa8633          	add	a2,s5,a0
    800054b0:	7618                	ld	a4,40(a2)
    800054b2:	6e3c                	ld	a5,88(a2)
    800054b4:	0046c493          	xori	s1,a3,4
    800054b8:	048e                	slli	s1,s1,0x3
    800054ba:	9496                	add	s1,s1,t0
    800054bc:	6084                	ld	s1,0(s1)
    800054be:	7220                	ld	s0,96(a2)
    800054c0:	02e783b3          	mul	t2,a5,a4
    800054c4:	029407b3          	mul	a5,s0,s1
    800054c8:	ff85b483          	ld	s1,-8(a1)
    800054cc:	7620                	ld	s0,104(a2)
    800054ce:	6198                	ld	a4,0(a1)
    800054d0:	7a30                	ld	a2,112(a2)
    800054d2:	02940433          	mul	s0,s0,s1
    800054d6:	02e60633          	mul	a2,a2,a4
    800054da:	01a38733          	add	a4,t2,s10
    800054de:	973e                	add	a4,a4,a5
    800054e0:	9722                	add	a4,a4,s0
    800054e2:	00c70d33          	add	s10,a4,a2
    800054e6:	0691                	addi	a3,a3,4
    800054e8:	02050513          	addi	a0,a0,32
    800054ec:	1581                	addi	a1,a1,-32
    800054ee:	fd5d                	bnez	a0,800054ac <main+0x3358>
    800054f0:	4081                	li	ra,0
    800054f2:	7542                	ld	a0,48(sp)
    800054f4:	29a53c23          	sd	s10,664(a0)
    800054f8:	2d8eb383          	ld	t2,728(t4)
    800054fc:	f8f2                	sd	t3,112(sp)
    800054fe:	fc9a                	sd	t1,120(sp)
    80005500:	e17a                	sd	t5,128(sp)
    80005502:	e51e                	sd	t2,136(sp)
    80005504:	e962                	sd	s8,144(sp)
    80005506:	ed42                	sd	a6,152(sp)
    80005508:	f15a                	sd	s6,160(sp)
    8000550a:	f55e                	sd	s7,168(sp)
    8000550c:	4511                	li	a0,4
    8000550e:	f92a                	sd	a0,176(sp)
    80005510:	7522                	ld	a0,40(sp)
    80005512:	fd2a                	sd	a0,184(sp)
    80005514:	7526                	ld	a0,104(sp)
    80005516:	e1aa                	sd	a0,192(sp)
    80005518:	7506                	ld	a0,96(sp)
    8000551a:	e5aa                	sd	a0,200(sp)
    8000551c:	6566                	ld	a0,88(sp)
    8000551e:	e9aa                	sd	a0,208(sp)
    80005520:	6546                	ld	a0,80(sp)
    80005522:	edaa                	sd	a0,216(sp)
    80005524:	6526                	ld	a0,72(sp)
    80005526:	f1aa                	sd	a0,224(sp)
    80005528:	6506                	ld	a0,64(sp)
    8000552a:	f5aa                	sd	a0,232(sp)
    8000552c:	7562                	ld	a0,56(sp)
    8000552e:	f9aa                	sd	a0,240(sp)
    80005530:	02000513          	li	a0,32
    80005534:	86e6                	mv	a3,s9
    80005536:	00ac8633          	add	a2,s9,a0
    8000553a:	fa063703          	ld	a4,-96(a2)
    8000553e:	fe86b783          	ld	a5,-24(a3)
    80005542:	fa863403          	ld	s0,-88(a2)
    80005546:	ff06b483          	ld	s1,-16(a3)
    8000554a:	02e78733          	mul	a4,a5,a4
    8000554e:	028487b3          	mul	a5,s1,s0
    80005552:	fb063403          	ld	s0,-80(a2)
    80005556:	ff86b483          	ld	s1,-8(a3)
    8000555a:	fb863603          	ld	a2,-72(a2)
    8000555e:	628c                	ld	a1,0(a3)
    80005560:	02848433          	mul	s0,s1,s0
    80005564:	02c585b3          	mul	a1,a1,a2
    80005568:	00170633          	add	a2,a4,ra
    8000556c:	963e                	add	a2,a2,a5
    8000556e:	9622                	add	a2,a2,s0
    80005570:	00b600b3          	add	ra,a2,a1
    80005574:	1501                	addi	a0,a0,-32
    80005576:	02068693          	addi	a3,a3,32
    8000557a:	fb251ee3          	bne	a0,s2,80005536 <main+0x33e2>
    8000557e:	4d01                	li	s10,0
    80005580:	7542                	ld	a0,48(sp)
    80005582:	2a153023          	sd	ra,672(a0)
    80005586:	2e0ebc03          	ld	s8,736(t4)
    8000558a:	f8f2                	sd	t3,112(sp)
    8000558c:	fc9a                	sd	t1,120(sp)
    8000558e:	e17a                	sd	t5,128(sp)
    80005590:	e51e                	sd	t2,136(sp)
    80005592:	e962                	sd	s8,144(sp)
    80005594:	ed42                	sd	a6,152(sp)
    80005596:	f15a                	sd	s6,160(sp)
    80005598:	f55e                	sd	s7,168(sp)
    8000559a:	4515                	li	a0,5
    8000559c:	f92a                	sd	a0,176(sp)
    8000559e:	7522                	ld	a0,40(sp)
    800055a0:	fd2a                	sd	a0,184(sp)
    800055a2:	7526                	ld	a0,104(sp)
    800055a4:	e1aa                	sd	a0,192(sp)
    800055a6:	7506                	ld	a0,96(sp)
    800055a8:	e5aa                	sd	a0,200(sp)
    800055aa:	6566                	ld	a0,88(sp)
    800055ac:	e9aa                	sd	a0,208(sp)
    800055ae:	6546                	ld	a0,80(sp)
    800055b0:	edaa                	sd	a0,216(sp)
    800055b2:	6526                	ld	a0,72(sp)
    800055b4:	f1aa                	sd	a0,224(sp)
    800055b6:	6506                	ld	a0,64(sp)
    800055b8:	f5aa                	sd	a0,232(sp)
    800055ba:	7562                	ld	a0,56(sp)
    800055bc:	f9aa                	sd	a0,240(sp)
    800055be:	02800593          	li	a1,40
    800055c2:	06000693          	li	a3,96
    800055c6:	00b28633          	add	a2,t0,a1
    800055ca:	6218                	ld	a4,0(a2)
    800055cc:	00d287b3          	add	a5,t0,a3
    800055d0:	fe87b483          	ld	s1,-24(a5)
    800055d4:	6600                	ld	s0,8(a2)
    800055d6:	ff07b503          	ld	a0,-16(a5)
    800055da:	02e48733          	mul	a4,s1,a4
    800055de:	02850533          	mul	a0,a0,s0
    800055e2:	6a10                	ld	a2,16(a2)
    800055e4:	ff87b483          	ld	s1,-8(a5)
    800055e8:	fa07b403          	ld	s0,-96(a5)
    800055ec:	639c                	ld	a5,0(a5)
    800055ee:	02c48633          	mul	a2,s1,a2
    800055f2:	028787b3          	mul	a5,a5,s0
    800055f6:	976a                	add	a4,a4,s10
    800055f8:	953a                	add	a0,a0,a4
    800055fa:	9532                	add	a0,a0,a2
    800055fc:	00f50d33          	add	s10,a0,a5
    80005600:	1581                	addi	a1,a1,-32
    80005602:	02068693          	addi	a3,a3,32
    80005606:	fdb590e3          	bne	a1,s11,800055c6 <main+0x3472>
    8000560a:	4081                	li	ra,0
    8000560c:	7542                	ld	a0,48(sp)
    8000560e:	2ba53423          	sd	s10,680(a0)
    80005612:	2e8eb803          	ld	a6,744(t4)
    80005616:	f8f2                	sd	t3,112(sp)
    80005618:	fc9a                	sd	t1,120(sp)
    8000561a:	e17a                	sd	t5,128(sp)
    8000561c:	e51e                	sd	t2,136(sp)
    8000561e:	e962                	sd	s8,144(sp)
    80005620:	ed42                	sd	a6,152(sp)
    80005622:	f15a                	sd	s6,160(sp)
    80005624:	f55e                	sd	s7,168(sp)
    80005626:	4519                	li	a0,6
    80005628:	f92a                	sd	a0,176(sp)
    8000562a:	7522                	ld	a0,40(sp)
    8000562c:	fd2a                	sd	a0,184(sp)
    8000562e:	7526                	ld	a0,104(sp)
    80005630:	e1aa                	sd	a0,192(sp)
    80005632:	7506                	ld	a0,96(sp)
    80005634:	e5aa                	sd	a0,200(sp)
    80005636:	6566                	ld	a0,88(sp)
    80005638:	e9aa                	sd	a0,208(sp)
    8000563a:	6546                	ld	a0,80(sp)
    8000563c:	edaa                	sd	a0,216(sp)
    8000563e:	6526                	ld	a0,72(sp)
    80005640:	f1aa                	sd	a0,224(sp)
    80005642:	6506                	ld	a0,64(sp)
    80005644:	f5aa                	sd	a0,232(sp)
    80005646:	7562                	ld	a0,56(sp)
    80005648:	f9aa                	sd	a0,240(sp)
    8000564a:	fc000513          	li	a0,-64
    8000564e:	86fe                	mv	a3,t6
    80005650:	ff86b603          	ld	a2,-8(a3)
    80005654:	00aa8733          	add	a4,s5,a0
    80005658:	6f3c                	ld	a5,88(a4)
    8000565a:	6280                	ld	s0,0(a3)
    8000565c:	7324                	ld	s1,96(a4)
    8000565e:	02c78633          	mul	a2,a5,a2
    80005662:	028487b3          	mul	a5,s1,s0
    80005666:	6b00                	ld	s0,16(a4)
    80005668:	7724                	ld	s1,104(a4)
    8000566a:	6f0c                	ld	a1,24(a4)
    8000566c:	7b38                	ld	a4,112(a4)
    8000566e:	02848433          	mul	s0,s1,s0
    80005672:	02b705b3          	mul	a1,a4,a1
    80005676:	9606                	add	a2,a2,ra
    80005678:	963e                	add	a2,a2,a5
    8000567a:	9622                	add	a2,a2,s0
    8000567c:	00b600b3          	add	ra,a2,a1
    80005680:	02050513          	addi	a0,a0,32
    80005684:	1681                	addi	a3,a3,-32
    80005686:	f569                	bnez	a0,80005650 <main+0x34fc>
    80005688:	4d01                	li	s10,0
    8000568a:	7542                	ld	a0,48(sp)
    8000568c:	2a153823          	sd	ra,688(a0)
    80005690:	2f0ebb03          	ld	s6,752(t4)
    80005694:	f8f2                	sd	t3,112(sp)
    80005696:	fc9a                	sd	t1,120(sp)
    80005698:	e17a                	sd	t5,128(sp)
    8000569a:	e51e                	sd	t2,136(sp)
    8000569c:	e962                	sd	s8,144(sp)
    8000569e:	ed42                	sd	a6,152(sp)
    800056a0:	f15a                	sd	s6,160(sp)
    800056a2:	f55e                	sd	s7,168(sp)
    800056a4:	451d                	li	a0,7
    800056a6:	f92a                	sd	a0,176(sp)
    800056a8:	70a2                	ld	ra,40(sp)
    800056aa:	fd06                	sd	ra,184(sp)
    800056ac:	7526                	ld	a0,104(sp)
    800056ae:	e1aa                	sd	a0,192(sp)
    800056b0:	7506                	ld	a0,96(sp)
    800056b2:	e5aa                	sd	a0,200(sp)
    800056b4:	6566                	ld	a0,88(sp)
    800056b6:	e9aa                	sd	a0,208(sp)
    800056b8:	6546                	ld	a0,80(sp)
    800056ba:	edaa                	sd	a0,216(sp)
    800056bc:	6526                	ld	a0,72(sp)
    800056be:	f1aa                	sd	a0,224(sp)
    800056c0:	6506                	ld	a0,64(sp)
    800056c2:	f5aa                	sd	a0,232(sp)
    800056c4:	7562                	ld	a0,56(sp)
    800056c6:	f9aa                	sd	a0,240(sp)
    800056c8:	03800593          	li	a1,56
    800056cc:	06000693          	li	a3,96
    800056d0:	00b28633          	add	a2,t0,a1
    800056d4:	6210                	ld	a2,0(a2)
    800056d6:	00d28733          	add	a4,t0,a3
    800056da:	fe873783          	ld	a5,-24(a4)
    800056de:	fa073403          	ld	s0,-96(a4)
    800056e2:	ff073483          	ld	s1,-16(a4)
    800056e6:	02c78633          	mul	a2,a5,a2
    800056ea:	028487b3          	mul	a5,s1,s0
    800056ee:	fa873403          	ld	s0,-88(a4)
    800056f2:	ff873483          	ld	s1,-8(a4)
    800056f6:	fb073503          	ld	a0,-80(a4)
    800056fa:	6318                	ld	a4,0(a4)
    800056fc:	02848433          	mul	s0,s1,s0
    80005700:	02a70533          	mul	a0,a4,a0
    80005704:	966a                	add	a2,a2,s10
    80005706:	963e                	add	a2,a2,a5
    80005708:	9622                	add	a2,a2,s0
    8000570a:	00a60d33          	add	s10,a2,a0
    8000570e:	1581                	addi	a1,a1,-32
    80005710:	02068693          	addi	a3,a3,32
    80005714:	fb359ee3          	bne	a1,s3,800056d0 <main+0x357c>
    80005718:	4581                	li	a1,0
    8000571a:	7542                	ld	a0,48(sp)
    8000571c:	2ba53c23          	sd	s10,696(a0)
    80005720:	2f8ebb83          	ld	s7,760(t4)
    80005724:	f8f2                	sd	t3,112(sp)
    80005726:	fc9a                	sd	t1,120(sp)
    80005728:	e17a                	sd	t5,128(sp)
    8000572a:	e51e                	sd	t2,136(sp)
    8000572c:	e962                	sd	s8,144(sp)
    8000572e:	ed42                	sd	a6,152(sp)
    80005730:	f15a                	sd	s6,160(sp)
    80005732:	f55e                	sd	s7,168(sp)
    80005734:	f902                	sd	zero,176(sp)
    80005736:	fd06                	sd	ra,184(sp)
    80005738:	7526                	ld	a0,104(sp)
    8000573a:	e1aa                	sd	a0,192(sp)
    8000573c:	7506                	ld	a0,96(sp)
    8000573e:	e5aa                	sd	a0,200(sp)
    80005740:	6566                	ld	a0,88(sp)
    80005742:	e9aa                	sd	a0,208(sp)
    80005744:	6546                	ld	a0,80(sp)
    80005746:	edaa                	sd	a0,216(sp)
    80005748:	6526                	ld	a0,72(sp)
    8000574a:	f1aa                	sd	a0,224(sp)
    8000574c:	6506                	ld	a0,64(sp)
    8000574e:	f5aa                	sd	a0,232(sp)
    80005750:	7562                	ld	a0,56(sp)
    80005752:	f9aa                	sd	a0,240(sp)
    80005754:	4541                	li	a0,16
    80005756:	05000e13          	li	t3,80
    8000575a:	00a28633          	add	a2,t0,a0
    8000575e:	ff063683          	ld	a3,-16(a2)
    80005762:	7e18                	ld	a4,56(a2)
    80005764:	02d706b3          	mul	a3,a4,a3
    80005768:	ff863703          	ld	a4,-8(a2)
    8000576c:	623c                	ld	a5,64(a2)
    8000576e:	6204                	ld	s1,0(a2)
    80005770:	6620                	ld	s0,72(a2)
    80005772:	02e78733          	mul	a4,a5,a4
    80005776:	029407b3          	mul	a5,s0,s1
    8000577a:	6604                	ld	s1,8(a2)
    8000577c:	6a30                	ld	a2,80(a2)
    8000577e:	95b6                	add	a1,a1,a3
    80005780:	02960633          	mul	a2,a2,s1
    80005784:	95ba                	add	a1,a1,a4
    80005786:	95be                	add	a1,a1,a5
    80005788:	02050513          	addi	a0,a0,32
    8000578c:	95b2                	add	a1,a1,a2
    8000578e:	fdc516e3          	bne	a0,t3,8000575a <main+0x3606>
    80005792:	4681                	li	a3,0
    80005794:	4501                	li	a0,0
    80005796:	300ebe03          	ld	t3,768(t4)
    8000579a:	7642                	ld	a2,48(sp)
    8000579c:	2cb63023          	sd	a1,704(a2)
    800057a0:	f8f2                	sd	t3,112(sp)
    800057a2:	fc9a                	sd	t1,120(sp)
    800057a4:	e17a                	sd	t5,128(sp)
    800057a6:	e51e                	sd	t2,136(sp)
    800057a8:	e962                	sd	s8,144(sp)
    800057aa:	ed42                	sd	a6,152(sp)
    800057ac:	f15a                	sd	s6,160(sp)
    800057ae:	f55e                	sd	s7,168(sp)
    800057b0:	4585                	li	a1,1
    800057b2:	f92e                	sd	a1,176(sp)
    800057b4:	fd06                	sd	ra,184(sp)
    800057b6:	75a6                	ld	a1,104(sp)
    800057b8:	e1ae                	sd	a1,192(sp)
    800057ba:	7586                	ld	a1,96(sp)
    800057bc:	e5ae                	sd	a1,200(sp)
    800057be:	65e6                	ld	a1,88(sp)
    800057c0:	e9ae                	sd	a1,208(sp)
    800057c2:	65c6                	ld	a1,80(sp)
    800057c4:	edae                	sd	a1,216(sp)
    800057c6:	65a6                	ld	a1,72(sp)
    800057c8:	f1ae                	sd	a1,224(sp)
    800057ca:	6586                	ld	a1,64(sp)
    800057cc:	f5ae                	sd	a1,232(sp)
    800057ce:	75e2                	ld	a1,56(sp)
    800057d0:	f9ae                	sd	a1,240(sp)
    800057d2:	192c                	addi	a1,sp,184
    800057d4:	fc05b603          	ld	a2,-64(a1)
    800057d8:	6198                	ld	a4,0(a1)
    800057da:	fc85b783          	ld	a5,-56(a1)
    800057de:	6584                	ld	s1,8(a1)
    800057e0:	02c70333          	mul	t1,a4,a2
    800057e4:	02f48733          	mul	a4,s1,a5
    800057e8:	fd05b783          	ld	a5,-48(a1)
    800057ec:	6984                	ld	s1,16(a1)
    800057ee:	0046c413          	xori	s0,a3,4
    800057f2:	040e                	slli	s0,s0,0x3
    800057f4:	9416                	add	s0,s0,t0
    800057f6:	6000                	ld	s0,0(s0)
    800057f8:	6d90                	ld	a2,24(a1)
    800057fa:	02f487b3          	mul	a5,s1,a5
    800057fe:	02860633          	mul	a2,a2,s0
    80005802:	951a                	add	a0,a0,t1
    80005804:	953a                	add	a0,a0,a4
    80005806:	953e                	add	a0,a0,a5
    80005808:	9532                	add	a0,a0,a2
    8000580a:	0691                	addi	a3,a3,4
    8000580c:	02058593          	addi	a1,a1,32
    80005810:	fd4692e3          	bne	a3,s4,800057d4 <main+0x3680>
    80005814:	4681                	li	a3,0
    80005816:	4401                	li	s0,0
    80005818:	75c2                	ld	a1,48(sp)
    8000581a:	2ca5b423          	sd	a0,712(a1)
    8000581e:	308eb303          	ld	t1,776(t4)
    80005822:	f8f2                	sd	t3,112(sp)
    80005824:	fc9a                	sd	t1,120(sp)
    80005826:	e17a                	sd	t5,128(sp)
    80005828:	e51e                	sd	t2,136(sp)
    8000582a:	e962                	sd	s8,144(sp)
    8000582c:	ed42                	sd	a6,152(sp)
    8000582e:	f15a                	sd	s6,160(sp)
    80005830:	f55e                	sd	s7,168(sp)
    80005832:	4509                	li	a0,2
    80005834:	f92a                	sd	a0,176(sp)
    80005836:	fd06                	sd	ra,184(sp)
    80005838:	7526                	ld	a0,104(sp)
    8000583a:	e1aa                	sd	a0,192(sp)
    8000583c:	7506                	ld	a0,96(sp)
    8000583e:	e5aa                	sd	a0,200(sp)
    80005840:	6566                	ld	a0,88(sp)
    80005842:	e9aa                	sd	a0,208(sp)
    80005844:	6546                	ld	a0,80(sp)
    80005846:	edaa                	sd	a0,216(sp)
    80005848:	6526                	ld	a0,72(sp)
    8000584a:	f1aa                	sd	a0,224(sp)
    8000584c:	6506                	ld	a0,64(sp)
    8000584e:	f5aa                	sd	a0,232(sp)
    80005850:	7562                	ld	a0,56(sp)
    80005852:	f9aa                	sd	a0,240(sp)
    80005854:	8566                	mv	a0,s9
    80005856:	092c                	addi	a1,sp,152
    80005858:	fb053603          	ld	a2,-80(a0)
    8000585c:	fe853703          	ld	a4,-24(a0)
    80005860:	fb853783          	ld	a5,-72(a0)
    80005864:	ff053483          	ld	s1,-16(a0)
    80005868:	02c70f33          	mul	t5,a4,a2
    8000586c:	02f48d33          	mul	s10,s1,a5
    80005870:	0046c793          	xori	a5,a3,4
    80005874:	078e                	slli	a5,a5,0x3
    80005876:	9796                	add	a5,a5,t0
    80005878:	639c                	ld	a5,0(a5)
    8000587a:	ff853483          	ld	s1,-8(a0)
    8000587e:	6190                	ld	a2,0(a1)
    80005880:	6118                	ld	a4,0(a0)
    80005882:	02f487b3          	mul	a5,s1,a5
    80005886:	02c70633          	mul	a2,a4,a2
    8000588a:	008f0733          	add	a4,t5,s0
    8000588e:	976a                	add	a4,a4,s10
    80005890:	973e                	add	a4,a4,a5
    80005892:	00c70433          	add	s0,a4,a2
    80005896:	0691                	addi	a3,a3,4
    80005898:	1581                	addi	a1,a1,-32
    8000589a:	02050513          	addi	a0,a0,32
    8000589e:	fb469de3          	bne	a3,s4,80005858 <main+0x3704>
    800058a2:	4681                	li	a3,0
    800058a4:	4d01                	li	s10,0
    800058a6:	7542                	ld	a0,48(sp)
    800058a8:	2c853823          	sd	s0,720(a0)
    800058ac:	310ebf03          	ld	t5,784(t4)
    800058b0:	f8f2                	sd	t3,112(sp)
    800058b2:	fc9a                	sd	t1,120(sp)
    800058b4:	e17a                	sd	t5,128(sp)
    800058b6:	e51e                	sd	t2,136(sp)
    800058b8:	e962                	sd	s8,144(sp)
    800058ba:	ed42                	sd	a6,152(sp)
    800058bc:	f15a                	sd	s6,160(sp)
    800058be:	f55e                	sd	s7,168(sp)
    800058c0:	450d                	li	a0,3
    800058c2:	f92a                	sd	a0,176(sp)
    800058c4:	fd06                	sd	ra,184(sp)
    800058c6:	7526                	ld	a0,104(sp)
    800058c8:	e1aa                	sd	a0,192(sp)
    800058ca:	7506                	ld	a0,96(sp)
    800058cc:	e5aa                	sd	a0,200(sp)
    800058ce:	6566                	ld	a0,88(sp)
    800058d0:	e9aa                	sd	a0,208(sp)
    800058d2:	6546                	ld	a0,80(sp)
    800058d4:	edaa                	sd	a0,216(sp)
    800058d6:	6526                	ld	a0,72(sp)
    800058d8:	f1aa                	sd	a0,224(sp)
    800058da:	6506                	ld	a0,64(sp)
    800058dc:	f5aa                	sd	a0,232(sp)
    800058de:	7562                	ld	a0,56(sp)
    800058e0:	f9aa                	sd	a0,240(sp)
    800058e2:	fc000593          	li	a1,-64
    800058e6:	8456                	mv	s0,s5
    800058e8:	00ba8633          	add	a2,s5,a1
    800058ec:	7618                	ld	a4,40(a2)
    800058ee:	6e3c                	ld	a5,88(a2)
    800058f0:	0046c493          	xori	s1,a3,4
    800058f4:	048e                	slli	s1,s1,0x3
    800058f6:	9496                	add	s1,s1,t0
    800058f8:	6084                	ld	s1,0(s1)
    800058fa:	7228                	ld	a0,96(a2)
    800058fc:	02e78733          	mul	a4,a5,a4
    80005900:	029503b3          	mul	t2,a0,s1
    80005904:	ff843783          	ld	a5,-8(s0)
    80005908:	7624                	ld	s1,104(a2)
    8000590a:	6008                	ld	a0,0(s0)
    8000590c:	7a30                	ld	a2,112(a2)
    8000590e:	02f487b3          	mul	a5,s1,a5
    80005912:	02a60533          	mul	a0,a2,a0
    80005916:	01a70633          	add	a2,a4,s10
    8000591a:	961e                	add	a2,a2,t2
    8000591c:	963e                	add	a2,a2,a5
    8000591e:	00a60d33          	add	s10,a2,a0
    80005922:	0691                	addi	a3,a3,4
    80005924:	02058593          	addi	a1,a1,32
    80005928:	1401                	addi	s0,s0,-32
    8000592a:	fddd                	bnez	a1,800058e8 <main+0x3794>
    8000592c:	4081                	li	ra,0
    8000592e:	7542                	ld	a0,48(sp)
    80005930:	2da53c23          	sd	s10,728(a0)
    80005934:	318eb383          	ld	t2,792(t4)
    80005938:	f8f2                	sd	t3,112(sp)
    8000593a:	fc9a                	sd	t1,120(sp)
    8000593c:	e17a                	sd	t5,128(sp)
    8000593e:	e51e                	sd	t2,136(sp)
    80005940:	e962                	sd	s8,144(sp)
    80005942:	ed42                	sd	a6,152(sp)
    80005944:	f15a                	sd	s6,160(sp)
    80005946:	f55e                	sd	s7,168(sp)
    80005948:	4511                	li	a0,4
    8000594a:	f92a                	sd	a0,176(sp)
    8000594c:	7522                	ld	a0,40(sp)
    8000594e:	fd2a                	sd	a0,184(sp)
    80005950:	7526                	ld	a0,104(sp)
    80005952:	e1aa                	sd	a0,192(sp)
    80005954:	7506                	ld	a0,96(sp)
    80005956:	e5aa                	sd	a0,200(sp)
    80005958:	6566                	ld	a0,88(sp)
    8000595a:	e9aa                	sd	a0,208(sp)
    8000595c:	6546                	ld	a0,80(sp)
    8000595e:	edaa                	sd	a0,216(sp)
    80005960:	6526                	ld	a0,72(sp)
    80005962:	f1aa                	sd	a0,224(sp)
    80005964:	6506                	ld	a0,64(sp)
    80005966:	f5aa                	sd	a0,232(sp)
    80005968:	7562                	ld	a0,56(sp)
    8000596a:	f9aa                	sd	a0,240(sp)
    8000596c:	02000513          	li	a0,32
    80005970:	86e6                	mv	a3,s9
    80005972:	00ac8633          	add	a2,s9,a0
    80005976:	fa063703          	ld	a4,-96(a2)
    8000597a:	fe86b783          	ld	a5,-24(a3)
    8000597e:	fa863403          	ld	s0,-88(a2)
    80005982:	ff06b483          	ld	s1,-16(a3)
    80005986:	02e78733          	mul	a4,a5,a4
    8000598a:	028487b3          	mul	a5,s1,s0
    8000598e:	fb063403          	ld	s0,-80(a2)
    80005992:	ff86b483          	ld	s1,-8(a3)
    80005996:	fb863603          	ld	a2,-72(a2)
    8000599a:	628c                	ld	a1,0(a3)
    8000599c:	02848433          	mul	s0,s1,s0
    800059a0:	02c585b3          	mul	a1,a1,a2
    800059a4:	00170633          	add	a2,a4,ra
    800059a8:	963e                	add	a2,a2,a5
    800059aa:	9622                	add	a2,a2,s0
    800059ac:	00b600b3          	add	ra,a2,a1
    800059b0:	1501                	addi	a0,a0,-32
    800059b2:	02068693          	addi	a3,a3,32
    800059b6:	fb251ee3          	bne	a0,s2,80005972 <main+0x381e>
    800059ba:	4d01                	li	s10,0
    800059bc:	7542                	ld	a0,48(sp)
    800059be:	2e153023          	sd	ra,736(a0)
    800059c2:	320ebc03          	ld	s8,800(t4)
    800059c6:	f8f2                	sd	t3,112(sp)
    800059c8:	fc9a                	sd	t1,120(sp)
    800059ca:	e17a                	sd	t5,128(sp)
    800059cc:	e51e                	sd	t2,136(sp)
    800059ce:	e962                	sd	s8,144(sp)
    800059d0:	ed42                	sd	a6,152(sp)
    800059d2:	f15a                	sd	s6,160(sp)
    800059d4:	f55e                	sd	s7,168(sp)
    800059d6:	4515                	li	a0,5
    800059d8:	f92a                	sd	a0,176(sp)
    800059da:	7522                	ld	a0,40(sp)
    800059dc:	fd2a                	sd	a0,184(sp)
    800059de:	7526                	ld	a0,104(sp)
    800059e0:	e1aa                	sd	a0,192(sp)
    800059e2:	7506                	ld	a0,96(sp)
    800059e4:	e5aa                	sd	a0,200(sp)
    800059e6:	6566                	ld	a0,88(sp)
    800059e8:	e9aa                	sd	a0,208(sp)
    800059ea:	6546                	ld	a0,80(sp)
    800059ec:	edaa                	sd	a0,216(sp)
    800059ee:	6526                	ld	a0,72(sp)
    800059f0:	f1aa                	sd	a0,224(sp)
    800059f2:	6506                	ld	a0,64(sp)
    800059f4:	f5aa                	sd	a0,232(sp)
    800059f6:	7562                	ld	a0,56(sp)
    800059f8:	f9aa                	sd	a0,240(sp)
    800059fa:	02800593          	li	a1,40
    800059fe:	06000693          	li	a3,96
    80005a02:	00b28633          	add	a2,t0,a1
    80005a06:	6218                	ld	a4,0(a2)
    80005a08:	00d287b3          	add	a5,t0,a3
    80005a0c:	fe87b483          	ld	s1,-24(a5)
    80005a10:	6600                	ld	s0,8(a2)
    80005a12:	ff07b503          	ld	a0,-16(a5)
    80005a16:	02e48733          	mul	a4,s1,a4
    80005a1a:	02850533          	mul	a0,a0,s0
    80005a1e:	6a10                	ld	a2,16(a2)
    80005a20:	ff87b483          	ld	s1,-8(a5)
    80005a24:	fa07b403          	ld	s0,-96(a5)
    80005a28:	639c                	ld	a5,0(a5)
    80005a2a:	02c48633          	mul	a2,s1,a2
    80005a2e:	028787b3          	mul	a5,a5,s0
    80005a32:	976a                	add	a4,a4,s10
    80005a34:	953a                	add	a0,a0,a4
    80005a36:	9532                	add	a0,a0,a2
    80005a38:	00f50d33          	add	s10,a0,a5
    80005a3c:	1581                	addi	a1,a1,-32
    80005a3e:	02068693          	addi	a3,a3,32
    80005a42:	fdb590e3          	bne	a1,s11,80005a02 <main+0x38ae>
    80005a46:	4081                	li	ra,0
    80005a48:	7542                	ld	a0,48(sp)
    80005a4a:	2fa53423          	sd	s10,744(a0)
    80005a4e:	328eb803          	ld	a6,808(t4)
    80005a52:	f8f2                	sd	t3,112(sp)
    80005a54:	fc9a                	sd	t1,120(sp)
    80005a56:	e17a                	sd	t5,128(sp)
    80005a58:	e51e                	sd	t2,136(sp)
    80005a5a:	e962                	sd	s8,144(sp)
    80005a5c:	ed42                	sd	a6,152(sp)
    80005a5e:	f15a                	sd	s6,160(sp)
    80005a60:	f55e                	sd	s7,168(sp)
    80005a62:	4519                	li	a0,6
    80005a64:	f92a                	sd	a0,176(sp)
    80005a66:	7522                	ld	a0,40(sp)
    80005a68:	fd2a                	sd	a0,184(sp)
    80005a6a:	7526                	ld	a0,104(sp)
    80005a6c:	e1aa                	sd	a0,192(sp)
    80005a6e:	7506                	ld	a0,96(sp)
    80005a70:	e5aa                	sd	a0,200(sp)
    80005a72:	6566                	ld	a0,88(sp)
    80005a74:	e9aa                	sd	a0,208(sp)
    80005a76:	6546                	ld	a0,80(sp)
    80005a78:	edaa                	sd	a0,216(sp)
    80005a7a:	6526                	ld	a0,72(sp)
    80005a7c:	f1aa                	sd	a0,224(sp)
    80005a7e:	6506                	ld	a0,64(sp)
    80005a80:	f5aa                	sd	a0,232(sp)
    80005a82:	7562                	ld	a0,56(sp)
    80005a84:	f9aa                	sd	a0,240(sp)
    80005a86:	fc000513          	li	a0,-64
    80005a8a:	86fe                	mv	a3,t6
    80005a8c:	ff86b603          	ld	a2,-8(a3)
    80005a90:	00aa8733          	add	a4,s5,a0
    80005a94:	6f3c                	ld	a5,88(a4)
    80005a96:	6280                	ld	s0,0(a3)
    80005a98:	7324                	ld	s1,96(a4)
    80005a9a:	02c78633          	mul	a2,a5,a2
    80005a9e:	028487b3          	mul	a5,s1,s0
    80005aa2:	6b00                	ld	s0,16(a4)
    80005aa4:	7724                	ld	s1,104(a4)
    80005aa6:	6f0c                	ld	a1,24(a4)
    80005aa8:	7b38                	ld	a4,112(a4)
    80005aaa:	02848433          	mul	s0,s1,s0
    80005aae:	02b705b3          	mul	a1,a4,a1
    80005ab2:	9606                	add	a2,a2,ra
    80005ab4:	963e                	add	a2,a2,a5
    80005ab6:	9622                	add	a2,a2,s0
    80005ab8:	00b600b3          	add	ra,a2,a1
    80005abc:	02050513          	addi	a0,a0,32
    80005ac0:	1681                	addi	a3,a3,-32
    80005ac2:	f569                	bnez	a0,80005a8c <main+0x3938>
    80005ac4:	4d01                	li	s10,0
    80005ac6:	7542                	ld	a0,48(sp)
    80005ac8:	2e153823          	sd	ra,752(a0)
    80005acc:	330ebb03          	ld	s6,816(t4)
    80005ad0:	f8f2                	sd	t3,112(sp)
    80005ad2:	fc9a                	sd	t1,120(sp)
    80005ad4:	e17a                	sd	t5,128(sp)
    80005ad6:	e51e                	sd	t2,136(sp)
    80005ad8:	e962                	sd	s8,144(sp)
    80005ada:	ed42                	sd	a6,152(sp)
    80005adc:	f15a                	sd	s6,160(sp)
    80005ade:	f55e                	sd	s7,168(sp)
    80005ae0:	451d                	li	a0,7
    80005ae2:	f92a                	sd	a0,176(sp)
    80005ae4:	70a2                	ld	ra,40(sp)
    80005ae6:	fd06                	sd	ra,184(sp)
    80005ae8:	7526                	ld	a0,104(sp)
    80005aea:	e1aa                	sd	a0,192(sp)
    80005aec:	7506                	ld	a0,96(sp)
    80005aee:	e5aa                	sd	a0,200(sp)
    80005af0:	6566                	ld	a0,88(sp)
    80005af2:	e9aa                	sd	a0,208(sp)
    80005af4:	6546                	ld	a0,80(sp)
    80005af6:	edaa                	sd	a0,216(sp)
    80005af8:	6526                	ld	a0,72(sp)
    80005afa:	f1aa                	sd	a0,224(sp)
    80005afc:	6506                	ld	a0,64(sp)
    80005afe:	f5aa                	sd	a0,232(sp)
    80005b00:	7562                	ld	a0,56(sp)
    80005b02:	f9aa                	sd	a0,240(sp)
    80005b04:	03800593          	li	a1,56
    80005b08:	06000693          	li	a3,96
    80005b0c:	00b28633          	add	a2,t0,a1
    80005b10:	6210                	ld	a2,0(a2)
    80005b12:	00d28733          	add	a4,t0,a3
    80005b16:	fe873783          	ld	a5,-24(a4)
    80005b1a:	fa073403          	ld	s0,-96(a4)
    80005b1e:	ff073483          	ld	s1,-16(a4)
    80005b22:	02c78633          	mul	a2,a5,a2
    80005b26:	028487b3          	mul	a5,s1,s0
    80005b2a:	fa873403          	ld	s0,-88(a4)
    80005b2e:	ff873483          	ld	s1,-8(a4)
    80005b32:	fb073503          	ld	a0,-80(a4)
    80005b36:	6318                	ld	a4,0(a4)
    80005b38:	02848433          	mul	s0,s1,s0
    80005b3c:	02a70533          	mul	a0,a4,a0
    80005b40:	966a                	add	a2,a2,s10
    80005b42:	963e                	add	a2,a2,a5
    80005b44:	9622                	add	a2,a2,s0
    80005b46:	00a60d33          	add	s10,a2,a0
    80005b4a:	1581                	addi	a1,a1,-32
    80005b4c:	02068693          	addi	a3,a3,32
    80005b50:	fb359ee3          	bne	a1,s3,80005b0c <main+0x39b8>
    80005b54:	4581                	li	a1,0
    80005b56:	7542                	ld	a0,48(sp)
    80005b58:	2fa53c23          	sd	s10,760(a0)
    80005b5c:	338ebb83          	ld	s7,824(t4)
    80005b60:	f8f2                	sd	t3,112(sp)
    80005b62:	fc9a                	sd	t1,120(sp)
    80005b64:	e17a                	sd	t5,128(sp)
    80005b66:	e51e                	sd	t2,136(sp)
    80005b68:	e962                	sd	s8,144(sp)
    80005b6a:	ed42                	sd	a6,152(sp)
    80005b6c:	f15a                	sd	s6,160(sp)
    80005b6e:	f55e                	sd	s7,168(sp)
    80005b70:	f902                	sd	zero,176(sp)
    80005b72:	fd06                	sd	ra,184(sp)
    80005b74:	7526                	ld	a0,104(sp)
    80005b76:	e1aa                	sd	a0,192(sp)
    80005b78:	7506                	ld	a0,96(sp)
    80005b7a:	e5aa                	sd	a0,200(sp)
    80005b7c:	6566                	ld	a0,88(sp)
    80005b7e:	e9aa                	sd	a0,208(sp)
    80005b80:	6546                	ld	a0,80(sp)
    80005b82:	edaa                	sd	a0,216(sp)
    80005b84:	6526                	ld	a0,72(sp)
    80005b86:	f1aa                	sd	a0,224(sp)
    80005b88:	6506                	ld	a0,64(sp)
    80005b8a:	f5aa                	sd	a0,232(sp)
    80005b8c:	7562                	ld	a0,56(sp)
    80005b8e:	f9aa                	sd	a0,240(sp)
    80005b90:	4541                	li	a0,16
    80005b92:	05000e13          	li	t3,80
    80005b96:	00a28633          	add	a2,t0,a0
    80005b9a:	ff063683          	ld	a3,-16(a2)
    80005b9e:	7e18                	ld	a4,56(a2)
    80005ba0:	02d706b3          	mul	a3,a4,a3
    80005ba4:	ff863703          	ld	a4,-8(a2)
    80005ba8:	623c                	ld	a5,64(a2)
    80005baa:	6204                	ld	s1,0(a2)
    80005bac:	6620                	ld	s0,72(a2)
    80005bae:	02e78733          	mul	a4,a5,a4
    80005bb2:	029407b3          	mul	a5,s0,s1
    80005bb6:	6604                	ld	s1,8(a2)
    80005bb8:	6a30                	ld	a2,80(a2)
    80005bba:	95b6                	add	a1,a1,a3
    80005bbc:	02960633          	mul	a2,a2,s1
    80005bc0:	95ba                	add	a1,a1,a4
    80005bc2:	95be                	add	a1,a1,a5
    80005bc4:	02050513          	addi	a0,a0,32
    80005bc8:	95b2                	add	a1,a1,a2
    80005bca:	fdc516e3          	bne	a0,t3,80005b96 <main+0x3a42>
    80005bce:	4501                	li	a0,0
    80005bd0:	4401                	li	s0,0
    80005bd2:	340ebe03          	ld	t3,832(t4)
    80005bd6:	7642                	ld	a2,48(sp)
    80005bd8:	30b63023          	sd	a1,768(a2)
    80005bdc:	f8f2                	sd	t3,112(sp)
    80005bde:	fc9a                	sd	t1,120(sp)
    80005be0:	e17a                	sd	t5,128(sp)
    80005be2:	e51e                	sd	t2,136(sp)
    80005be4:	e962                	sd	s8,144(sp)
    80005be6:	ed42                	sd	a6,152(sp)
    80005be8:	f15a                	sd	s6,160(sp)
    80005bea:	f55e                	sd	s7,168(sp)
    80005bec:	4585                	li	a1,1
    80005bee:	f92e                	sd	a1,176(sp)
    80005bf0:	fd06                	sd	ra,184(sp)
    80005bf2:	75a6                	ld	a1,104(sp)
    80005bf4:	e1ae                	sd	a1,192(sp)
    80005bf6:	7586                	ld	a1,96(sp)
    80005bf8:	e5ae                	sd	a1,200(sp)
    80005bfa:	65e6                	ld	a1,88(sp)
    80005bfc:	e9ae                	sd	a1,208(sp)
    80005bfe:	65c6                	ld	a1,80(sp)
    80005c00:	edae                	sd	a1,216(sp)
    80005c02:	65a6                	ld	a1,72(sp)
    80005c04:	f1ae                	sd	a1,224(sp)
    80005c06:	6586                	ld	a1,64(sp)
    80005c08:	f5ae                	sd	a1,232(sp)
    80005c0a:	75e2                	ld	a1,56(sp)
    80005c0c:	f9ae                	sd	a1,240(sp)
    80005c0e:	192c                	addi	a1,sp,184
    80005c10:	fc05b603          	ld	a2,-64(a1)
    80005c14:	6194                	ld	a3,0(a1)
    80005c16:	fc85b703          	ld	a4,-56(a1)
    80005c1a:	659c                	ld	a5,8(a1)
    80005c1c:	02c68333          	mul	t1,a3,a2
    80005c20:	02e786b3          	mul	a3,a5,a4
    80005c24:	fd05b703          	ld	a4,-48(a1)
    80005c28:	699c                	ld	a5,16(a1)
    80005c2a:	00454493          	xori	s1,a0,4
    80005c2e:	048e                	slli	s1,s1,0x3
    80005c30:	9496                	add	s1,s1,t0
    80005c32:	6084                	ld	s1,0(s1)
    80005c34:	6d90                	ld	a2,24(a1)
    80005c36:	02e78733          	mul	a4,a5,a4
    80005c3a:	02960633          	mul	a2,a2,s1
    80005c3e:	008307b3          	add	a5,t1,s0
    80005c42:	96be                	add	a3,a3,a5
    80005c44:	96ba                	add	a3,a3,a4
    80005c46:	00c68433          	add	s0,a3,a2
    80005c4a:	0511                	addi	a0,a0,4
    80005c4c:	02058593          	addi	a1,a1,32
    80005c50:	fd4510e3          	bne	a0,s4,80005c10 <main+0x3abc>
    80005c54:	4681                	li	a3,0
    80005c56:	4501                	li	a0,0
    80005c58:	75c2                	ld	a1,48(sp)
    80005c5a:	3085b423          	sd	s0,776(a1)
    80005c5e:	348eb303          	ld	t1,840(t4)
    80005c62:	f8f2                	sd	t3,112(sp)
    80005c64:	fc9a                	sd	t1,120(sp)
    80005c66:	e17a                	sd	t5,128(sp)
    80005c68:	e51e                	sd	t2,136(sp)
    80005c6a:	e962                	sd	s8,144(sp)
    80005c6c:	ed42                	sd	a6,152(sp)
    80005c6e:	f15a                	sd	s6,160(sp)
    80005c70:	f55e                	sd	s7,168(sp)
    80005c72:	4589                	li	a1,2
    80005c74:	f92e                	sd	a1,176(sp)
    80005c76:	fd06                	sd	ra,184(sp)
    80005c78:	75a6                	ld	a1,104(sp)
    80005c7a:	e1ae                	sd	a1,192(sp)
    80005c7c:	7586                	ld	a1,96(sp)
    80005c7e:	e5ae                	sd	a1,200(sp)
    80005c80:	65e6                	ld	a1,88(sp)
    80005c82:	e9ae                	sd	a1,208(sp)
    80005c84:	65c6                	ld	a1,80(sp)
    80005c86:	edae                	sd	a1,216(sp)
    80005c88:	65a6                	ld	a1,72(sp)
    80005c8a:	f1ae                	sd	a1,224(sp)
    80005c8c:	6586                	ld	a1,64(sp)
    80005c8e:	f5ae                	sd	a1,232(sp)
    80005c90:	75e2                	ld	a1,56(sp)
    80005c92:	f9ae                	sd	a1,240(sp)
    80005c94:	85e6                	mv	a1,s9
    80005c96:	093c                	addi	a5,sp,152
    80005c98:	fb05b603          	ld	a2,-80(a1)
    80005c9c:	fe85b703          	ld	a4,-24(a1)
    80005ca0:	fb85b483          	ld	s1,-72(a1)
    80005ca4:	ff05b403          	ld	s0,-16(a1)
    80005ca8:	02c70f33          	mul	t5,a4,a2
    80005cac:	02940d33          	mul	s10,s0,s1
    80005cb0:	0046c493          	xori	s1,a3,4
    80005cb4:	048e                	slli	s1,s1,0x3
    80005cb6:	9496                	add	s1,s1,t0
    80005cb8:	6084                	ld	s1,0(s1)
    80005cba:	ff85b403          	ld	s0,-8(a1)
    80005cbe:	6390                	ld	a2,0(a5)
    80005cc0:	6198                	ld	a4,0(a1)
    80005cc2:	02940433          	mul	s0,s0,s1
    80005cc6:	02c70633          	mul	a2,a4,a2
    80005cca:	957a                	add	a0,a0,t5
    80005ccc:	956a                	add	a0,a0,s10
    80005cce:	9522                	add	a0,a0,s0
    80005cd0:	9532                	add	a0,a0,a2
    80005cd2:	0691                	addi	a3,a3,4
    80005cd4:	1781                	addi	a5,a5,-32
    80005cd6:	02058593          	addi	a1,a1,32
    80005cda:	fb469fe3          	bne	a3,s4,80005c98 <main+0x3b44>
    80005cde:	4681                	li	a3,0
    80005ce0:	4d01                	li	s10,0
    80005ce2:	75c2                	ld	a1,48(sp)
    80005ce4:	30a5b823          	sd	a0,784(a1)
    80005ce8:	350ebf03          	ld	t5,848(t4)
    80005cec:	f8f2                	sd	t3,112(sp)
    80005cee:	fc9a                	sd	t1,120(sp)
    80005cf0:	e17a                	sd	t5,128(sp)
    80005cf2:	e51e                	sd	t2,136(sp)
    80005cf4:	e962                	sd	s8,144(sp)
    80005cf6:	ed42                	sd	a6,152(sp)
    80005cf8:	f15a                	sd	s6,160(sp)
    80005cfa:	f55e                	sd	s7,168(sp)
    80005cfc:	450d                	li	a0,3
    80005cfe:	f92a                	sd	a0,176(sp)
    80005d00:	fd06                	sd	ra,184(sp)
    80005d02:	7526                	ld	a0,104(sp)
    80005d04:	e1aa                	sd	a0,192(sp)
    80005d06:	7506                	ld	a0,96(sp)
    80005d08:	e5aa                	sd	a0,200(sp)
    80005d0a:	6566                	ld	a0,88(sp)
    80005d0c:	e9aa                	sd	a0,208(sp)
    80005d0e:	6546                	ld	a0,80(sp)
    80005d10:	edaa                	sd	a0,216(sp)
    80005d12:	6526                	ld	a0,72(sp)
    80005d14:	f1aa                	sd	a0,224(sp)
    80005d16:	6506                	ld	a0,64(sp)
    80005d18:	f5aa                	sd	a0,232(sp)
    80005d1a:	7562                	ld	a0,56(sp)
    80005d1c:	f9aa                	sd	a0,240(sp)
    80005d1e:	fc000513          	li	a0,-64
    80005d22:	85d6                	mv	a1,s5
    80005d24:	00aa8633          	add	a2,s5,a0
    80005d28:	7618                	ld	a4,40(a2)
    80005d2a:	6e3c                	ld	a5,88(a2)
    80005d2c:	0046c493          	xori	s1,a3,4
    80005d30:	048e                	slli	s1,s1,0x3
    80005d32:	9496                	add	s1,s1,t0
    80005d34:	6084                	ld	s1,0(s1)
    80005d36:	7220                	ld	s0,96(a2)
    80005d38:	02e783b3          	mul	t2,a5,a4
    80005d3c:	029407b3          	mul	a5,s0,s1
    80005d40:	ff85b483          	ld	s1,-8(a1)
    80005d44:	7620                	ld	s0,104(a2)
    80005d46:	6198                	ld	a4,0(a1)
    80005d48:	7a30                	ld	a2,112(a2)
    80005d4a:	02940433          	mul	s0,s0,s1
    80005d4e:	02e60633          	mul	a2,a2,a4
    80005d52:	01a38733          	add	a4,t2,s10
    80005d56:	973e                	add	a4,a4,a5
    80005d58:	9722                	add	a4,a4,s0
    80005d5a:	00c70d33          	add	s10,a4,a2
    80005d5e:	0691                	addi	a3,a3,4
    80005d60:	02050513          	addi	a0,a0,32
    80005d64:	1581                	addi	a1,a1,-32
    80005d66:	fd5d                	bnez	a0,80005d24 <main+0x3bd0>
    80005d68:	4081                	li	ra,0
    80005d6a:	7542                	ld	a0,48(sp)
    80005d6c:	31a53c23          	sd	s10,792(a0)
    80005d70:	358eb383          	ld	t2,856(t4)
    80005d74:	f8f2                	sd	t3,112(sp)
    80005d76:	fc9a                	sd	t1,120(sp)
    80005d78:	e17a                	sd	t5,128(sp)
    80005d7a:	e51e                	sd	t2,136(sp)
    80005d7c:	e962                	sd	s8,144(sp)
    80005d7e:	ed42                	sd	a6,152(sp)
    80005d80:	f15a                	sd	s6,160(sp)
    80005d82:	f55e                	sd	s7,168(sp)
    80005d84:	4511                	li	a0,4
    80005d86:	f92a                	sd	a0,176(sp)
    80005d88:	7522                	ld	a0,40(sp)
    80005d8a:	fd2a                	sd	a0,184(sp)
    80005d8c:	7526                	ld	a0,104(sp)
    80005d8e:	e1aa                	sd	a0,192(sp)
    80005d90:	7506                	ld	a0,96(sp)
    80005d92:	e5aa                	sd	a0,200(sp)
    80005d94:	6566                	ld	a0,88(sp)
    80005d96:	e9aa                	sd	a0,208(sp)
    80005d98:	6546                	ld	a0,80(sp)
    80005d9a:	edaa                	sd	a0,216(sp)
    80005d9c:	6526                	ld	a0,72(sp)
    80005d9e:	f1aa                	sd	a0,224(sp)
    80005da0:	6506                	ld	a0,64(sp)
    80005da2:	f5aa                	sd	a0,232(sp)
    80005da4:	7562                	ld	a0,56(sp)
    80005da6:	f9aa                	sd	a0,240(sp)
    80005da8:	02000513          	li	a0,32
    80005dac:	86e6                	mv	a3,s9
    80005dae:	00ac8633          	add	a2,s9,a0
    80005db2:	fa063703          	ld	a4,-96(a2)
    80005db6:	fe86b783          	ld	a5,-24(a3)
    80005dba:	fa863403          	ld	s0,-88(a2)
    80005dbe:	ff06b483          	ld	s1,-16(a3)
    80005dc2:	02e78733          	mul	a4,a5,a4
    80005dc6:	028487b3          	mul	a5,s1,s0
    80005dca:	fb063403          	ld	s0,-80(a2)
    80005dce:	ff86b483          	ld	s1,-8(a3)
    80005dd2:	fb863603          	ld	a2,-72(a2)
    80005dd6:	628c                	ld	a1,0(a3)
    80005dd8:	02848433          	mul	s0,s1,s0
    80005ddc:	02c585b3          	mul	a1,a1,a2
    80005de0:	00170633          	add	a2,a4,ra
    80005de4:	963e                	add	a2,a2,a5
    80005de6:	9622                	add	a2,a2,s0
    80005de8:	00b600b3          	add	ra,a2,a1
    80005dec:	1501                	addi	a0,a0,-32
    80005dee:	02068693          	addi	a3,a3,32
    80005df2:	fb251ee3          	bne	a0,s2,80005dae <main+0x3c5a>
    80005df6:	4d01                	li	s10,0
    80005df8:	7542                	ld	a0,48(sp)
    80005dfa:	32153023          	sd	ra,800(a0)
    80005dfe:	360ebc03          	ld	s8,864(t4)
    80005e02:	f8f2                	sd	t3,112(sp)
    80005e04:	fc9a                	sd	t1,120(sp)
    80005e06:	e17a                	sd	t5,128(sp)
    80005e08:	e51e                	sd	t2,136(sp)
    80005e0a:	e962                	sd	s8,144(sp)
    80005e0c:	ed42                	sd	a6,152(sp)
    80005e0e:	f15a                	sd	s6,160(sp)
    80005e10:	f55e                	sd	s7,168(sp)
    80005e12:	4515                	li	a0,5
    80005e14:	f92a                	sd	a0,176(sp)
    80005e16:	7522                	ld	a0,40(sp)
    80005e18:	fd2a                	sd	a0,184(sp)
    80005e1a:	7526                	ld	a0,104(sp)
    80005e1c:	e1aa                	sd	a0,192(sp)
    80005e1e:	7506                	ld	a0,96(sp)
    80005e20:	e5aa                	sd	a0,200(sp)
    80005e22:	6566                	ld	a0,88(sp)
    80005e24:	e9aa                	sd	a0,208(sp)
    80005e26:	6546                	ld	a0,80(sp)
    80005e28:	edaa                	sd	a0,216(sp)
    80005e2a:	6526                	ld	a0,72(sp)
    80005e2c:	f1aa                	sd	a0,224(sp)
    80005e2e:	6506                	ld	a0,64(sp)
    80005e30:	f5aa                	sd	a0,232(sp)
    80005e32:	7562                	ld	a0,56(sp)
    80005e34:	f9aa                	sd	a0,240(sp)
    80005e36:	02800593          	li	a1,40
    80005e3a:	06000693          	li	a3,96
    80005e3e:	00b28633          	add	a2,t0,a1
    80005e42:	6218                	ld	a4,0(a2)
    80005e44:	00d287b3          	add	a5,t0,a3
    80005e48:	fe87b483          	ld	s1,-24(a5)
    80005e4c:	6600                	ld	s0,8(a2)
    80005e4e:	ff07b503          	ld	a0,-16(a5)
    80005e52:	02e48733          	mul	a4,s1,a4
    80005e56:	02850533          	mul	a0,a0,s0
    80005e5a:	6a10                	ld	a2,16(a2)
    80005e5c:	ff87b483          	ld	s1,-8(a5)
    80005e60:	fa07b403          	ld	s0,-96(a5)
    80005e64:	639c                	ld	a5,0(a5)
    80005e66:	02c48633          	mul	a2,s1,a2
    80005e6a:	028787b3          	mul	a5,a5,s0
    80005e6e:	976a                	add	a4,a4,s10
    80005e70:	953a                	add	a0,a0,a4
    80005e72:	9532                	add	a0,a0,a2
    80005e74:	00f50d33          	add	s10,a0,a5
    80005e78:	1581                	addi	a1,a1,-32
    80005e7a:	02068693          	addi	a3,a3,32
    80005e7e:	fdb590e3          	bne	a1,s11,80005e3e <main+0x3cea>
    80005e82:	4081                	li	ra,0
    80005e84:	7542                	ld	a0,48(sp)
    80005e86:	33a53423          	sd	s10,808(a0)
    80005e8a:	368eb803          	ld	a6,872(t4)
    80005e8e:	f8f2                	sd	t3,112(sp)
    80005e90:	fc9a                	sd	t1,120(sp)
    80005e92:	e17a                	sd	t5,128(sp)
    80005e94:	e51e                	sd	t2,136(sp)
    80005e96:	e962                	sd	s8,144(sp)
    80005e98:	ed42                	sd	a6,152(sp)
    80005e9a:	f15a                	sd	s6,160(sp)
    80005e9c:	f55e                	sd	s7,168(sp)
    80005e9e:	4519                	li	a0,6
    80005ea0:	f92a                	sd	a0,176(sp)
    80005ea2:	7522                	ld	a0,40(sp)
    80005ea4:	fd2a                	sd	a0,184(sp)
    80005ea6:	7526                	ld	a0,104(sp)
    80005ea8:	e1aa                	sd	a0,192(sp)
    80005eaa:	7506                	ld	a0,96(sp)
    80005eac:	e5aa                	sd	a0,200(sp)
    80005eae:	6566                	ld	a0,88(sp)
    80005eb0:	e9aa                	sd	a0,208(sp)
    80005eb2:	6546                	ld	a0,80(sp)
    80005eb4:	edaa                	sd	a0,216(sp)
    80005eb6:	6526                	ld	a0,72(sp)
    80005eb8:	f1aa                	sd	a0,224(sp)
    80005eba:	6506                	ld	a0,64(sp)
    80005ebc:	f5aa                	sd	a0,232(sp)
    80005ebe:	7562                	ld	a0,56(sp)
    80005ec0:	f9aa                	sd	a0,240(sp)
    80005ec2:	fc000513          	li	a0,-64
    80005ec6:	86fe                	mv	a3,t6
    80005ec8:	ff86b603          	ld	a2,-8(a3)
    80005ecc:	00aa8733          	add	a4,s5,a0
    80005ed0:	6f3c                	ld	a5,88(a4)
    80005ed2:	6280                	ld	s0,0(a3)
    80005ed4:	7324                	ld	s1,96(a4)
    80005ed6:	02c78633          	mul	a2,a5,a2
    80005eda:	028487b3          	mul	a5,s1,s0
    80005ede:	6b00                	ld	s0,16(a4)
    80005ee0:	7724                	ld	s1,104(a4)
    80005ee2:	6f0c                	ld	a1,24(a4)
    80005ee4:	7b38                	ld	a4,112(a4)
    80005ee6:	02848433          	mul	s0,s1,s0
    80005eea:	02b705b3          	mul	a1,a4,a1
    80005eee:	9606                	add	a2,a2,ra
    80005ef0:	963e                	add	a2,a2,a5
    80005ef2:	9622                	add	a2,a2,s0
    80005ef4:	00b600b3          	add	ra,a2,a1
    80005ef8:	02050513          	addi	a0,a0,32
    80005efc:	1681                	addi	a3,a3,-32
    80005efe:	f569                	bnez	a0,80005ec8 <main+0x3d74>
    80005f00:	4d01                	li	s10,0
    80005f02:	7542                	ld	a0,48(sp)
    80005f04:	32153823          	sd	ra,816(a0)
    80005f08:	370ebb03          	ld	s6,880(t4)
    80005f0c:	f8f2                	sd	t3,112(sp)
    80005f0e:	fc9a                	sd	t1,120(sp)
    80005f10:	e17a                	sd	t5,128(sp)
    80005f12:	e51e                	sd	t2,136(sp)
    80005f14:	e962                	sd	s8,144(sp)
    80005f16:	ed42                	sd	a6,152(sp)
    80005f18:	f15a                	sd	s6,160(sp)
    80005f1a:	f55e                	sd	s7,168(sp)
    80005f1c:	451d                	li	a0,7
    80005f1e:	f92a                	sd	a0,176(sp)
    80005f20:	70a2                	ld	ra,40(sp)
    80005f22:	fd06                	sd	ra,184(sp)
    80005f24:	7526                	ld	a0,104(sp)
    80005f26:	e1aa                	sd	a0,192(sp)
    80005f28:	7506                	ld	a0,96(sp)
    80005f2a:	e5aa                	sd	a0,200(sp)
    80005f2c:	6566                	ld	a0,88(sp)
    80005f2e:	e9aa                	sd	a0,208(sp)
    80005f30:	6546                	ld	a0,80(sp)
    80005f32:	edaa                	sd	a0,216(sp)
    80005f34:	6526                	ld	a0,72(sp)
    80005f36:	f1aa                	sd	a0,224(sp)
    80005f38:	6506                	ld	a0,64(sp)
    80005f3a:	f5aa                	sd	a0,232(sp)
    80005f3c:	7562                	ld	a0,56(sp)
    80005f3e:	f9aa                	sd	a0,240(sp)
    80005f40:	03800593          	li	a1,56
    80005f44:	06000693          	li	a3,96
    80005f48:	00b28633          	add	a2,t0,a1
    80005f4c:	6210                	ld	a2,0(a2)
    80005f4e:	00d28733          	add	a4,t0,a3
    80005f52:	fe873783          	ld	a5,-24(a4)
    80005f56:	fa073403          	ld	s0,-96(a4)
    80005f5a:	ff073483          	ld	s1,-16(a4)
    80005f5e:	02c78633          	mul	a2,a5,a2
    80005f62:	028487b3          	mul	a5,s1,s0
    80005f66:	fa873403          	ld	s0,-88(a4)
    80005f6a:	ff873483          	ld	s1,-8(a4)
    80005f6e:	fb073503          	ld	a0,-80(a4)
    80005f72:	6318                	ld	a4,0(a4)
    80005f74:	02848433          	mul	s0,s1,s0
    80005f78:	02a70533          	mul	a0,a4,a0
    80005f7c:	966a                	add	a2,a2,s10
    80005f7e:	963e                	add	a2,a2,a5
    80005f80:	9622                	add	a2,a2,s0
    80005f82:	00a60d33          	add	s10,a2,a0
    80005f86:	1581                	addi	a1,a1,-32
    80005f88:	02068693          	addi	a3,a3,32
    80005f8c:	fb359ee3          	bne	a1,s3,80005f48 <main+0x3df4>
    80005f90:	4581                	li	a1,0
    80005f92:	7542                	ld	a0,48(sp)
    80005f94:	33a53c23          	sd	s10,824(a0)
    80005f98:	378ebb83          	ld	s7,888(t4)
    80005f9c:	f8f2                	sd	t3,112(sp)
    80005f9e:	fc9a                	sd	t1,120(sp)
    80005fa0:	e17a                	sd	t5,128(sp)
    80005fa2:	e51e                	sd	t2,136(sp)
    80005fa4:	e962                	sd	s8,144(sp)
    80005fa6:	ed42                	sd	a6,152(sp)
    80005fa8:	f15a                	sd	s6,160(sp)
    80005faa:	f55e                	sd	s7,168(sp)
    80005fac:	f902                	sd	zero,176(sp)
    80005fae:	fd06                	sd	ra,184(sp)
    80005fb0:	7526                	ld	a0,104(sp)
    80005fb2:	e1aa                	sd	a0,192(sp)
    80005fb4:	7506                	ld	a0,96(sp)
    80005fb6:	e5aa                	sd	a0,200(sp)
    80005fb8:	6566                	ld	a0,88(sp)
    80005fba:	e9aa                	sd	a0,208(sp)
    80005fbc:	6546                	ld	a0,80(sp)
    80005fbe:	edaa                	sd	a0,216(sp)
    80005fc0:	6526                	ld	a0,72(sp)
    80005fc2:	f1aa                	sd	a0,224(sp)
    80005fc4:	6506                	ld	a0,64(sp)
    80005fc6:	f5aa                	sd	a0,232(sp)
    80005fc8:	7562                	ld	a0,56(sp)
    80005fca:	f9aa                	sd	a0,240(sp)
    80005fcc:	4541                	li	a0,16
    80005fce:	05000e13          	li	t3,80
    80005fd2:	00a28633          	add	a2,t0,a0
    80005fd6:	ff063683          	ld	a3,-16(a2)
    80005fda:	7e18                	ld	a4,56(a2)
    80005fdc:	02d706b3          	mul	a3,a4,a3
    80005fe0:	ff863703          	ld	a4,-8(a2)
    80005fe4:	623c                	ld	a5,64(a2)
    80005fe6:	6204                	ld	s1,0(a2)
    80005fe8:	6620                	ld	s0,72(a2)
    80005fea:	02e78733          	mul	a4,a5,a4
    80005fee:	029407b3          	mul	a5,s0,s1
    80005ff2:	6604                	ld	s1,8(a2)
    80005ff4:	6a30                	ld	a2,80(a2)
    80005ff6:	95b6                	add	a1,a1,a3
    80005ff8:	02960633          	mul	a2,a2,s1
    80005ffc:	95ba                	add	a1,a1,a4
    80005ffe:	95be                	add	a1,a1,a5
    80006000:	02050513          	addi	a0,a0,32
    80006004:	95b2                	add	a1,a1,a2
    80006006:	fdc516e3          	bne	a0,t3,80005fd2 <main+0x3e7e>
    8000600a:	4681                	li	a3,0
    8000600c:	4501                	li	a0,0
    8000600e:	380ebe03          	ld	t3,896(t4)
    80006012:	7642                	ld	a2,48(sp)
    80006014:	34b63023          	sd	a1,832(a2)
    80006018:	f8f2                	sd	t3,112(sp)
    8000601a:	fc9a                	sd	t1,120(sp)
    8000601c:	e17a                	sd	t5,128(sp)
    8000601e:	e51e                	sd	t2,136(sp)
    80006020:	e962                	sd	s8,144(sp)
    80006022:	ed42                	sd	a6,152(sp)
    80006024:	f15a                	sd	s6,160(sp)
    80006026:	f55e                	sd	s7,168(sp)
    80006028:	4585                	li	a1,1
    8000602a:	f92e                	sd	a1,176(sp)
    8000602c:	fd06                	sd	ra,184(sp)
    8000602e:	75a6                	ld	a1,104(sp)
    80006030:	e1ae                	sd	a1,192(sp)
    80006032:	7586                	ld	a1,96(sp)
    80006034:	e5ae                	sd	a1,200(sp)
    80006036:	65e6                	ld	a1,88(sp)
    80006038:	e9ae                	sd	a1,208(sp)
    8000603a:	65c6                	ld	a1,80(sp)
    8000603c:	edae                	sd	a1,216(sp)
    8000603e:	65a6                	ld	a1,72(sp)
    80006040:	f1ae                	sd	a1,224(sp)
    80006042:	6586                	ld	a1,64(sp)
    80006044:	f5ae                	sd	a1,232(sp)
    80006046:	75e2                	ld	a1,56(sp)
    80006048:	f9ae                	sd	a1,240(sp)
    8000604a:	192c                	addi	a1,sp,184
    8000604c:	fc05b603          	ld	a2,-64(a1)
    80006050:	6198                	ld	a4,0(a1)
    80006052:	fc85b783          	ld	a5,-56(a1)
    80006056:	6584                	ld	s1,8(a1)
    80006058:	02c70333          	mul	t1,a4,a2
    8000605c:	02f48733          	mul	a4,s1,a5
    80006060:	fd05b783          	ld	a5,-48(a1)
    80006064:	6984                	ld	s1,16(a1)
    80006066:	0046c413          	xori	s0,a3,4
    8000606a:	040e                	slli	s0,s0,0x3
    8000606c:	9416                	add	s0,s0,t0
    8000606e:	6000                	ld	s0,0(s0)
    80006070:	6d90                	ld	a2,24(a1)
    80006072:	02f487b3          	mul	a5,s1,a5
    80006076:	02860633          	mul	a2,a2,s0
    8000607a:	951a                	add	a0,a0,t1
    8000607c:	953a                	add	a0,a0,a4
    8000607e:	953e                	add	a0,a0,a5
    80006080:	9532                	add	a0,a0,a2
    80006082:	0691                	addi	a3,a3,4
    80006084:	02058593          	addi	a1,a1,32
    80006088:	fd4692e3          	bne	a3,s4,8000604c <main+0x3ef8>
    8000608c:	4681                	li	a3,0
    8000608e:	4401                	li	s0,0
    80006090:	75c2                	ld	a1,48(sp)
    80006092:	34a5b423          	sd	a0,840(a1)
    80006096:	388eb303          	ld	t1,904(t4)
    8000609a:	f8f2                	sd	t3,112(sp)
    8000609c:	fc9a                	sd	t1,120(sp)
    8000609e:	e17a                	sd	t5,128(sp)
    800060a0:	e51e                	sd	t2,136(sp)
    800060a2:	e962                	sd	s8,144(sp)
    800060a4:	ed42                	sd	a6,152(sp)
    800060a6:	f15a                	sd	s6,160(sp)
    800060a8:	f55e                	sd	s7,168(sp)
    800060aa:	4509                	li	a0,2
    800060ac:	f92a                	sd	a0,176(sp)
    800060ae:	fd06                	sd	ra,184(sp)
    800060b0:	7526                	ld	a0,104(sp)
    800060b2:	e1aa                	sd	a0,192(sp)
    800060b4:	7506                	ld	a0,96(sp)
    800060b6:	e5aa                	sd	a0,200(sp)
    800060b8:	6566                	ld	a0,88(sp)
    800060ba:	e9aa                	sd	a0,208(sp)
    800060bc:	6546                	ld	a0,80(sp)
    800060be:	edaa                	sd	a0,216(sp)
    800060c0:	6526                	ld	a0,72(sp)
    800060c2:	f1aa                	sd	a0,224(sp)
    800060c4:	6506                	ld	a0,64(sp)
    800060c6:	f5aa                	sd	a0,232(sp)
    800060c8:	7562                	ld	a0,56(sp)
    800060ca:	f9aa                	sd	a0,240(sp)
    800060cc:	8566                	mv	a0,s9
    800060ce:	092c                	addi	a1,sp,152
    800060d0:	fb053603          	ld	a2,-80(a0)
    800060d4:	fe853703          	ld	a4,-24(a0)
    800060d8:	fb853783          	ld	a5,-72(a0)
    800060dc:	ff053483          	ld	s1,-16(a0)
    800060e0:	02c70f33          	mul	t5,a4,a2
    800060e4:	02f48d33          	mul	s10,s1,a5
    800060e8:	0046c793          	xori	a5,a3,4
    800060ec:	078e                	slli	a5,a5,0x3
    800060ee:	9796                	add	a5,a5,t0
    800060f0:	639c                	ld	a5,0(a5)
    800060f2:	ff853483          	ld	s1,-8(a0)
    800060f6:	6190                	ld	a2,0(a1)
    800060f8:	6118                	ld	a4,0(a0)
    800060fa:	02f487b3          	mul	a5,s1,a5
    800060fe:	02c70633          	mul	a2,a4,a2
    80006102:	008f0733          	add	a4,t5,s0
    80006106:	976a                	add	a4,a4,s10
    80006108:	973e                	add	a4,a4,a5
    8000610a:	00c70433          	add	s0,a4,a2
    8000610e:	0691                	addi	a3,a3,4
    80006110:	1581                	addi	a1,a1,-32
    80006112:	02050513          	addi	a0,a0,32
    80006116:	fb469de3          	bne	a3,s4,800060d0 <main+0x3f7c>
    8000611a:	4501                	li	a0,0
    8000611c:	4d01                	li	s10,0
    8000611e:	75c2                	ld	a1,48(sp)
    80006120:	3485b823          	sd	s0,848(a1)
    80006124:	390ebf03          	ld	t5,912(t4)
    80006128:	f8f2                	sd	t3,112(sp)
    8000612a:	fc9a                	sd	t1,120(sp)
    8000612c:	e17a                	sd	t5,128(sp)
    8000612e:	e51e                	sd	t2,136(sp)
    80006130:	e962                	sd	s8,144(sp)
    80006132:	ed42                	sd	a6,152(sp)
    80006134:	f15a                	sd	s6,160(sp)
    80006136:	f55e                	sd	s7,168(sp)
    80006138:	458d                	li	a1,3
    8000613a:	f92e                	sd	a1,176(sp)
    8000613c:	fd06                	sd	ra,184(sp)
    8000613e:	75a6                	ld	a1,104(sp)
    80006140:	e1ae                	sd	a1,192(sp)
    80006142:	7586                	ld	a1,96(sp)
    80006144:	e5ae                	sd	a1,200(sp)
    80006146:	65e6                	ld	a1,88(sp)
    80006148:	e9ae                	sd	a1,208(sp)
    8000614a:	65c6                	ld	a1,80(sp)
    8000614c:	edae                	sd	a1,216(sp)
    8000614e:	65a6                	ld	a1,72(sp)
    80006150:	f1ae                	sd	a1,224(sp)
    80006152:	6586                	ld	a1,64(sp)
    80006154:	f5ae                	sd	a1,232(sp)
    80006156:	75e2                	ld	a1,56(sp)
    80006158:	f9ae                	sd	a1,240(sp)
    8000615a:	fc000593          	li	a1,-64
    8000615e:	8456                	mv	s0,s5
    80006160:	00ba8633          	add	a2,s5,a1
    80006164:	7618                	ld	a4,40(a2)
    80006166:	6e3c                	ld	a5,88(a2)
    80006168:	00454493          	xori	s1,a0,4
    8000616c:	048e                	slli	s1,s1,0x3
    8000616e:	9496                	add	s1,s1,t0
    80006170:	6084                	ld	s1,0(s1)
    80006172:	7234                	ld	a3,96(a2)
    80006174:	02e78733          	mul	a4,a5,a4
    80006178:	029683b3          	mul	t2,a3,s1
    8000617c:	ff843783          	ld	a5,-8(s0)
    80006180:	7624                	ld	s1,104(a2)
    80006182:	6014                	ld	a3,0(s0)
    80006184:	7a30                	ld	a2,112(a2)
    80006186:	02f487b3          	mul	a5,s1,a5
    8000618a:	02d60633          	mul	a2,a2,a3
    8000618e:	01a706b3          	add	a3,a4,s10
    80006192:	969e                	add	a3,a3,t2
    80006194:	96be                	add	a3,a3,a5
    80006196:	00c68d33          	add	s10,a3,a2
    8000619a:	0511                	addi	a0,a0,4
    8000619c:	02058593          	addi	a1,a1,32
    800061a0:	1401                	addi	s0,s0,-32
    800061a2:	fddd                	bnez	a1,80006160 <main+0x400c>
    800061a4:	4081                	li	ra,0
    800061a6:	7542                	ld	a0,48(sp)
    800061a8:	35a53c23          	sd	s10,856(a0)
    800061ac:	398eb383          	ld	t2,920(t4)
    800061b0:	f8f2                	sd	t3,112(sp)
    800061b2:	fc9a                	sd	t1,120(sp)
    800061b4:	e17a                	sd	t5,128(sp)
    800061b6:	e51e                	sd	t2,136(sp)
    800061b8:	e962                	sd	s8,144(sp)
    800061ba:	ed42                	sd	a6,152(sp)
    800061bc:	f15a                	sd	s6,160(sp)
    800061be:	f55e                	sd	s7,168(sp)
    800061c0:	4511                	li	a0,4
    800061c2:	f92a                	sd	a0,176(sp)
    800061c4:	7522                	ld	a0,40(sp)
    800061c6:	fd2a                	sd	a0,184(sp)
    800061c8:	7526                	ld	a0,104(sp)
    800061ca:	e1aa                	sd	a0,192(sp)
    800061cc:	7506                	ld	a0,96(sp)
    800061ce:	e5aa                	sd	a0,200(sp)
    800061d0:	6566                	ld	a0,88(sp)
    800061d2:	e9aa                	sd	a0,208(sp)
    800061d4:	6546                	ld	a0,80(sp)
    800061d6:	edaa                	sd	a0,216(sp)
    800061d8:	6526                	ld	a0,72(sp)
    800061da:	f1aa                	sd	a0,224(sp)
    800061dc:	6506                	ld	a0,64(sp)
    800061de:	f5aa                	sd	a0,232(sp)
    800061e0:	7562                	ld	a0,56(sp)
    800061e2:	f9aa                	sd	a0,240(sp)
    800061e4:	02000513          	li	a0,32
    800061e8:	86e6                	mv	a3,s9
    800061ea:	00ac8633          	add	a2,s9,a0
    800061ee:	fa063703          	ld	a4,-96(a2)
    800061f2:	fe86b783          	ld	a5,-24(a3)
    800061f6:	fa863403          	ld	s0,-88(a2)
    800061fa:	ff06b483          	ld	s1,-16(a3)
    800061fe:	02e78733          	mul	a4,a5,a4
    80006202:	028487b3          	mul	a5,s1,s0
    80006206:	fb063403          	ld	s0,-80(a2)
    8000620a:	ff86b483          	ld	s1,-8(a3)
    8000620e:	fb863603          	ld	a2,-72(a2)
    80006212:	628c                	ld	a1,0(a3)
    80006214:	02848433          	mul	s0,s1,s0
    80006218:	02c585b3          	mul	a1,a1,a2
    8000621c:	00170633          	add	a2,a4,ra
    80006220:	963e                	add	a2,a2,a5
    80006222:	9622                	add	a2,a2,s0
    80006224:	00b600b3          	add	ra,a2,a1
    80006228:	1501                	addi	a0,a0,-32
    8000622a:	02068693          	addi	a3,a3,32
    8000622e:	fb251ee3          	bne	a0,s2,800061ea <main+0x4096>
    80006232:	4d01                	li	s10,0
    80006234:	7542                	ld	a0,48(sp)
    80006236:	36153023          	sd	ra,864(a0)
    8000623a:	3a0ebc03          	ld	s8,928(t4)
    8000623e:	f8f2                	sd	t3,112(sp)
    80006240:	fc9a                	sd	t1,120(sp)
    80006242:	e17a                	sd	t5,128(sp)
    80006244:	e51e                	sd	t2,136(sp)
    80006246:	e962                	sd	s8,144(sp)
    80006248:	ed42                	sd	a6,152(sp)
    8000624a:	f15a                	sd	s6,160(sp)
    8000624c:	f55e                	sd	s7,168(sp)
    8000624e:	4515                	li	a0,5
    80006250:	f92a                	sd	a0,176(sp)
    80006252:	7522                	ld	a0,40(sp)
    80006254:	fd2a                	sd	a0,184(sp)
    80006256:	7526                	ld	a0,104(sp)
    80006258:	e1aa                	sd	a0,192(sp)
    8000625a:	7506                	ld	a0,96(sp)
    8000625c:	e5aa                	sd	a0,200(sp)
    8000625e:	6566                	ld	a0,88(sp)
    80006260:	e9aa                	sd	a0,208(sp)
    80006262:	6546                	ld	a0,80(sp)
    80006264:	edaa                	sd	a0,216(sp)
    80006266:	6526                	ld	a0,72(sp)
    80006268:	f1aa                	sd	a0,224(sp)
    8000626a:	6506                	ld	a0,64(sp)
    8000626c:	f5aa                	sd	a0,232(sp)
    8000626e:	7562                	ld	a0,56(sp)
    80006270:	f9aa                	sd	a0,240(sp)
    80006272:	02800593          	li	a1,40
    80006276:	06000693          	li	a3,96
    8000627a:	00b28633          	add	a2,t0,a1
    8000627e:	6218                	ld	a4,0(a2)
    80006280:	00d287b3          	add	a5,t0,a3
    80006284:	fe87b483          	ld	s1,-24(a5)
    80006288:	6600                	ld	s0,8(a2)
    8000628a:	ff07b503          	ld	a0,-16(a5)
    8000628e:	02e48733          	mul	a4,s1,a4
    80006292:	02850533          	mul	a0,a0,s0
    80006296:	6a10                	ld	a2,16(a2)
    80006298:	ff87b483          	ld	s1,-8(a5)
    8000629c:	fa07b403          	ld	s0,-96(a5)
    800062a0:	639c                	ld	a5,0(a5)
    800062a2:	02c48633          	mul	a2,s1,a2
    800062a6:	028787b3          	mul	a5,a5,s0
    800062aa:	976a                	add	a4,a4,s10
    800062ac:	953a                	add	a0,a0,a4
    800062ae:	9532                	add	a0,a0,a2
    800062b0:	00f50d33          	add	s10,a0,a5
    800062b4:	1581                	addi	a1,a1,-32
    800062b6:	02068693          	addi	a3,a3,32
    800062ba:	fdb590e3          	bne	a1,s11,8000627a <main+0x4126>
    800062be:	4081                	li	ra,0
    800062c0:	7542                	ld	a0,48(sp)
    800062c2:	37a53423          	sd	s10,872(a0)
    800062c6:	3a8eb803          	ld	a6,936(t4)
    800062ca:	f8f2                	sd	t3,112(sp)
    800062cc:	fc9a                	sd	t1,120(sp)
    800062ce:	e17a                	sd	t5,128(sp)
    800062d0:	e51e                	sd	t2,136(sp)
    800062d2:	e962                	sd	s8,144(sp)
    800062d4:	ed42                	sd	a6,152(sp)
    800062d6:	f15a                	sd	s6,160(sp)
    800062d8:	f55e                	sd	s7,168(sp)
    800062da:	4519                	li	a0,6
    800062dc:	f92a                	sd	a0,176(sp)
    800062de:	7522                	ld	a0,40(sp)
    800062e0:	fd2a                	sd	a0,184(sp)
    800062e2:	7526                	ld	a0,104(sp)
    800062e4:	e1aa                	sd	a0,192(sp)
    800062e6:	7506                	ld	a0,96(sp)
    800062e8:	e5aa                	sd	a0,200(sp)
    800062ea:	6566                	ld	a0,88(sp)
    800062ec:	e9aa                	sd	a0,208(sp)
    800062ee:	6546                	ld	a0,80(sp)
    800062f0:	edaa                	sd	a0,216(sp)
    800062f2:	6526                	ld	a0,72(sp)
    800062f4:	f1aa                	sd	a0,224(sp)
    800062f6:	6506                	ld	a0,64(sp)
    800062f8:	f5aa                	sd	a0,232(sp)
    800062fa:	7562                	ld	a0,56(sp)
    800062fc:	f9aa                	sd	a0,240(sp)
    800062fe:	fc000513          	li	a0,-64
    80006302:	86fe                	mv	a3,t6
    80006304:	ff86b603          	ld	a2,-8(a3)
    80006308:	00aa8733          	add	a4,s5,a0
    8000630c:	6f3c                	ld	a5,88(a4)
    8000630e:	6280                	ld	s0,0(a3)
    80006310:	7324                	ld	s1,96(a4)
    80006312:	02c78633          	mul	a2,a5,a2
    80006316:	028487b3          	mul	a5,s1,s0
    8000631a:	6b00                	ld	s0,16(a4)
    8000631c:	7724                	ld	s1,104(a4)
    8000631e:	6f0c                	ld	a1,24(a4)
    80006320:	7b38                	ld	a4,112(a4)
    80006322:	02848433          	mul	s0,s1,s0
    80006326:	02b705b3          	mul	a1,a4,a1
    8000632a:	9606                	add	a2,a2,ra
    8000632c:	963e                	add	a2,a2,a5
    8000632e:	9622                	add	a2,a2,s0
    80006330:	00b600b3          	add	ra,a2,a1
    80006334:	02050513          	addi	a0,a0,32
    80006338:	1681                	addi	a3,a3,-32
    8000633a:	f569                	bnez	a0,80006304 <main+0x41b0>
    8000633c:	4d01                	li	s10,0
    8000633e:	7542                	ld	a0,48(sp)
    80006340:	36153823          	sd	ra,880(a0)
    80006344:	3b0ebb03          	ld	s6,944(t4)
    80006348:	f8f2                	sd	t3,112(sp)
    8000634a:	fc9a                	sd	t1,120(sp)
    8000634c:	e17a                	sd	t5,128(sp)
    8000634e:	e51e                	sd	t2,136(sp)
    80006350:	e962                	sd	s8,144(sp)
    80006352:	ed42                	sd	a6,152(sp)
    80006354:	f15a                	sd	s6,160(sp)
    80006356:	f55e                	sd	s7,168(sp)
    80006358:	451d                	li	a0,7
    8000635a:	f92a                	sd	a0,176(sp)
    8000635c:	70a2                	ld	ra,40(sp)
    8000635e:	fd06                	sd	ra,184(sp)
    80006360:	7526                	ld	a0,104(sp)
    80006362:	e1aa                	sd	a0,192(sp)
    80006364:	7506                	ld	a0,96(sp)
    80006366:	e5aa                	sd	a0,200(sp)
    80006368:	6566                	ld	a0,88(sp)
    8000636a:	e9aa                	sd	a0,208(sp)
    8000636c:	6546                	ld	a0,80(sp)
    8000636e:	edaa                	sd	a0,216(sp)
    80006370:	6526                	ld	a0,72(sp)
    80006372:	f1aa                	sd	a0,224(sp)
    80006374:	6506                	ld	a0,64(sp)
    80006376:	f5aa                	sd	a0,232(sp)
    80006378:	7562                	ld	a0,56(sp)
    8000637a:	f9aa                	sd	a0,240(sp)
    8000637c:	03800593          	li	a1,56
    80006380:	06000693          	li	a3,96
    80006384:	00b28633          	add	a2,t0,a1
    80006388:	6210                	ld	a2,0(a2)
    8000638a:	00d28733          	add	a4,t0,a3
    8000638e:	fe873783          	ld	a5,-24(a4)
    80006392:	fa073403          	ld	s0,-96(a4)
    80006396:	ff073483          	ld	s1,-16(a4)
    8000639a:	02c78633          	mul	a2,a5,a2
    8000639e:	028487b3          	mul	a5,s1,s0
    800063a2:	fa873403          	ld	s0,-88(a4)
    800063a6:	ff873483          	ld	s1,-8(a4)
    800063aa:	fb073503          	ld	a0,-80(a4)
    800063ae:	6318                	ld	a4,0(a4)
    800063b0:	02848433          	mul	s0,s1,s0
    800063b4:	02a70533          	mul	a0,a4,a0
    800063b8:	966a                	add	a2,a2,s10
    800063ba:	963e                	add	a2,a2,a5
    800063bc:	9622                	add	a2,a2,s0
    800063be:	00a60d33          	add	s10,a2,a0
    800063c2:	1581                	addi	a1,a1,-32
    800063c4:	02068693          	addi	a3,a3,32
    800063c8:	fb359ee3          	bne	a1,s3,80006384 <main+0x4230>
    800063cc:	4581                	li	a1,0
    800063ce:	7542                	ld	a0,48(sp)
    800063d0:	37a53c23          	sd	s10,888(a0)
    800063d4:	3b8ebb83          	ld	s7,952(t4)
    800063d8:	f8f2                	sd	t3,112(sp)
    800063da:	fc9a                	sd	t1,120(sp)
    800063dc:	e17a                	sd	t5,128(sp)
    800063de:	e51e                	sd	t2,136(sp)
    800063e0:	e962                	sd	s8,144(sp)
    800063e2:	ed42                	sd	a6,152(sp)
    800063e4:	f15a                	sd	s6,160(sp)
    800063e6:	f55e                	sd	s7,168(sp)
    800063e8:	f902                	sd	zero,176(sp)
    800063ea:	fd06                	sd	ra,184(sp)
    800063ec:	7526                	ld	a0,104(sp)
    800063ee:	e1aa                	sd	a0,192(sp)
    800063f0:	7506                	ld	a0,96(sp)
    800063f2:	e5aa                	sd	a0,200(sp)
    800063f4:	6566                	ld	a0,88(sp)
    800063f6:	e9aa                	sd	a0,208(sp)
    800063f8:	6546                	ld	a0,80(sp)
    800063fa:	edaa                	sd	a0,216(sp)
    800063fc:	6526                	ld	a0,72(sp)
    800063fe:	f1aa                	sd	a0,224(sp)
    80006400:	6506                	ld	a0,64(sp)
    80006402:	f5aa                	sd	a0,232(sp)
    80006404:	7562                	ld	a0,56(sp)
    80006406:	f9aa                	sd	a0,240(sp)
    80006408:	4541                	li	a0,16
    8000640a:	05000e13          	li	t3,80
    8000640e:	00a28633          	add	a2,t0,a0
    80006412:	ff063683          	ld	a3,-16(a2)
    80006416:	7e18                	ld	a4,56(a2)
    80006418:	02d706b3          	mul	a3,a4,a3
    8000641c:	ff863703          	ld	a4,-8(a2)
    80006420:	623c                	ld	a5,64(a2)
    80006422:	6204                	ld	s1,0(a2)
    80006424:	6620                	ld	s0,72(a2)
    80006426:	02e78733          	mul	a4,a5,a4
    8000642a:	029407b3          	mul	a5,s0,s1
    8000642e:	6604                	ld	s1,8(a2)
    80006430:	6a30                	ld	a2,80(a2)
    80006432:	95b6                	add	a1,a1,a3
    80006434:	02960633          	mul	a2,a2,s1
    80006438:	95ba                	add	a1,a1,a4
    8000643a:	95be                	add	a1,a1,a5
    8000643c:	02050513          	addi	a0,a0,32
    80006440:	95b2                	add	a1,a1,a2
    80006442:	fdc516e3          	bne	a0,t3,8000640e <main+0x42ba>
    80006446:	4501                	li	a0,0
    80006448:	4401                	li	s0,0
    8000644a:	3c0ebe03          	ld	t3,960(t4)
    8000644e:	7642                	ld	a2,48(sp)
    80006450:	38b63023          	sd	a1,896(a2)
    80006454:	f8f2                	sd	t3,112(sp)
    80006456:	fc9a                	sd	t1,120(sp)
    80006458:	e17a                	sd	t5,128(sp)
    8000645a:	e51e                	sd	t2,136(sp)
    8000645c:	e962                	sd	s8,144(sp)
    8000645e:	ed42                	sd	a6,152(sp)
    80006460:	f15a                	sd	s6,160(sp)
    80006462:	f55e                	sd	s7,168(sp)
    80006464:	4585                	li	a1,1
    80006466:	f92e                	sd	a1,176(sp)
    80006468:	fd06                	sd	ra,184(sp)
    8000646a:	75a6                	ld	a1,104(sp)
    8000646c:	e1ae                	sd	a1,192(sp)
    8000646e:	7586                	ld	a1,96(sp)
    80006470:	e5ae                	sd	a1,200(sp)
    80006472:	65e6                	ld	a1,88(sp)
    80006474:	e9ae                	sd	a1,208(sp)
    80006476:	65c6                	ld	a1,80(sp)
    80006478:	edae                	sd	a1,216(sp)
    8000647a:	65a6                	ld	a1,72(sp)
    8000647c:	f1ae                	sd	a1,224(sp)
    8000647e:	6586                	ld	a1,64(sp)
    80006480:	f5ae                	sd	a1,232(sp)
    80006482:	75e2                	ld	a1,56(sp)
    80006484:	f9ae                	sd	a1,240(sp)
    80006486:	192c                	addi	a1,sp,184
    80006488:	fc05b603          	ld	a2,-64(a1)
    8000648c:	6194                	ld	a3,0(a1)
    8000648e:	fc85b703          	ld	a4,-56(a1)
    80006492:	659c                	ld	a5,8(a1)
    80006494:	02c68333          	mul	t1,a3,a2
    80006498:	02e786b3          	mul	a3,a5,a4
    8000649c:	fd05b703          	ld	a4,-48(a1)
    800064a0:	699c                	ld	a5,16(a1)
    800064a2:	00454493          	xori	s1,a0,4
    800064a6:	048e                	slli	s1,s1,0x3
    800064a8:	9496                	add	s1,s1,t0
    800064aa:	6084                	ld	s1,0(s1)
    800064ac:	6d90                	ld	a2,24(a1)
    800064ae:	02e78733          	mul	a4,a5,a4
    800064b2:	02960633          	mul	a2,a2,s1
    800064b6:	008307b3          	add	a5,t1,s0
    800064ba:	96be                	add	a3,a3,a5
    800064bc:	96ba                	add	a3,a3,a4
    800064be:	00c68433          	add	s0,a3,a2
    800064c2:	0511                	addi	a0,a0,4
    800064c4:	02058593          	addi	a1,a1,32
    800064c8:	fd4510e3          	bne	a0,s4,80006488 <main+0x4334>
    800064cc:	4501                	li	a0,0
    800064ce:	4681                	li	a3,0
    800064d0:	75c2                	ld	a1,48(sp)
    800064d2:	3885b423          	sd	s0,904(a1)
    800064d6:	3c8eb303          	ld	t1,968(t4)
    800064da:	f8f2                	sd	t3,112(sp)
    800064dc:	fc9a                	sd	t1,120(sp)
    800064de:	e17a                	sd	t5,128(sp)
    800064e0:	e51e                	sd	t2,136(sp)
    800064e2:	e962                	sd	s8,144(sp)
    800064e4:	ed42                	sd	a6,152(sp)
    800064e6:	f15a                	sd	s6,160(sp)
    800064e8:	f55e                	sd	s7,168(sp)
    800064ea:	4589                	li	a1,2
    800064ec:	f92e                	sd	a1,176(sp)
    800064ee:	fd06                	sd	ra,184(sp)
    800064f0:	75a6                	ld	a1,104(sp)
    800064f2:	e1ae                	sd	a1,192(sp)
    800064f4:	7586                	ld	a1,96(sp)
    800064f6:	e5ae                	sd	a1,200(sp)
    800064f8:	65e6                	ld	a1,88(sp)
    800064fa:	e9ae                	sd	a1,208(sp)
    800064fc:	65c6                	ld	a1,80(sp)
    800064fe:	edae                	sd	a1,216(sp)
    80006500:	65a6                	ld	a1,72(sp)
    80006502:	f1ae                	sd	a1,224(sp)
    80006504:	6586                	ld	a1,64(sp)
    80006506:	f5ae                	sd	a1,232(sp)
    80006508:	75e2                	ld	a1,56(sp)
    8000650a:	f9ae                	sd	a1,240(sp)
    8000650c:	85e6                	mv	a1,s9
    8000650e:	093c                	addi	a5,sp,152
    80006510:	fb05b603          	ld	a2,-80(a1)
    80006514:	fe85b703          	ld	a4,-24(a1)
    80006518:	fb85b483          	ld	s1,-72(a1)
    8000651c:	ff05b403          	ld	s0,-16(a1)
    80006520:	02c70f33          	mul	t5,a4,a2
    80006524:	02940d33          	mul	s10,s0,s1
    80006528:	00454493          	xori	s1,a0,4
    8000652c:	048e                	slli	s1,s1,0x3
    8000652e:	9496                	add	s1,s1,t0
    80006530:	6084                	ld	s1,0(s1)
    80006532:	ff85b403          	ld	s0,-8(a1)
    80006536:	6390                	ld	a2,0(a5)
    80006538:	6198                	ld	a4,0(a1)
    8000653a:	02940433          	mul	s0,s0,s1
    8000653e:	02c70633          	mul	a2,a4,a2
    80006542:	96fa                	add	a3,a3,t5
    80006544:	96ea                	add	a3,a3,s10
    80006546:	96a2                	add	a3,a3,s0
    80006548:	96b2                	add	a3,a3,a2
    8000654a:	0511                	addi	a0,a0,4
    8000654c:	1781                	addi	a5,a5,-32
    8000654e:	02058593          	addi	a1,a1,32
    80006552:	fb451fe3          	bne	a0,s4,80006510 <main+0x43bc>
    80006556:	4501                	li	a0,0
    80006558:	4d01                	li	s10,0
    8000655a:	75c2                	ld	a1,48(sp)
    8000655c:	38d5b823          	sd	a3,912(a1)
    80006560:	3d0ebf03          	ld	t5,976(t4)
    80006564:	f8f2                	sd	t3,112(sp)
    80006566:	fc9a                	sd	t1,120(sp)
    80006568:	e17a                	sd	t5,128(sp)
    8000656a:	e51e                	sd	t2,136(sp)
    8000656c:	e962                	sd	s8,144(sp)
    8000656e:	ed42                	sd	a6,152(sp)
    80006570:	f15a                	sd	s6,160(sp)
    80006572:	f55e                	sd	s7,168(sp)
    80006574:	458d                	li	a1,3
    80006576:	f92e                	sd	a1,176(sp)
    80006578:	fd06                	sd	ra,184(sp)
    8000657a:	75a6                	ld	a1,104(sp)
    8000657c:	e1ae                	sd	a1,192(sp)
    8000657e:	7586                	ld	a1,96(sp)
    80006580:	e5ae                	sd	a1,200(sp)
    80006582:	65e6                	ld	a1,88(sp)
    80006584:	e9ae                	sd	a1,208(sp)
    80006586:	65c6                	ld	a1,80(sp)
    80006588:	edae                	sd	a1,216(sp)
    8000658a:	65a6                	ld	a1,72(sp)
    8000658c:	f1ae                	sd	a1,224(sp)
    8000658e:	6586                	ld	a1,64(sp)
    80006590:	f5ae                	sd	a1,232(sp)
    80006592:	75e2                	ld	a1,56(sp)
    80006594:	f9ae                	sd	a1,240(sp)
    80006596:	fc000593          	li	a1,-64
    8000659a:	86d6                	mv	a3,s5
    8000659c:	00ba8633          	add	a2,s5,a1
    800065a0:	7618                	ld	a4,40(a2)
    800065a2:	6e3c                	ld	a5,88(a2)
    800065a4:	00454493          	xori	s1,a0,4
    800065a8:	048e                	slli	s1,s1,0x3
    800065aa:	9496                	add	s1,s1,t0
    800065ac:	6084                	ld	s1,0(s1)
    800065ae:	7220                	ld	s0,96(a2)
    800065b0:	02e783b3          	mul	t2,a5,a4
    800065b4:	029407b3          	mul	a5,s0,s1
    800065b8:	ff86b483          	ld	s1,-8(a3)
    800065bc:	7620                	ld	s0,104(a2)
    800065be:	6298                	ld	a4,0(a3)
    800065c0:	7a30                	ld	a2,112(a2)
    800065c2:	02940433          	mul	s0,s0,s1
    800065c6:	02e60633          	mul	a2,a2,a4
    800065ca:	01a38733          	add	a4,t2,s10
    800065ce:	973e                	add	a4,a4,a5
    800065d0:	9722                	add	a4,a4,s0
    800065d2:	00c70d33          	add	s10,a4,a2
    800065d6:	0511                	addi	a0,a0,4
    800065d8:	02058593          	addi	a1,a1,32
    800065dc:	1681                	addi	a3,a3,-32
    800065de:	fddd                	bnez	a1,8000659c <main+0x4448>
    800065e0:	4081                	li	ra,0
    800065e2:	7542                	ld	a0,48(sp)
    800065e4:	39a53c23          	sd	s10,920(a0)
    800065e8:	3d8eb383          	ld	t2,984(t4)
    800065ec:	f8f2                	sd	t3,112(sp)
    800065ee:	fc9a                	sd	t1,120(sp)
    800065f0:	e17a                	sd	t5,128(sp)
    800065f2:	e51e                	sd	t2,136(sp)
    800065f4:	e962                	sd	s8,144(sp)
    800065f6:	ed42                	sd	a6,152(sp)
    800065f8:	f15a                	sd	s6,160(sp)
    800065fa:	f55e                	sd	s7,168(sp)
    800065fc:	4511                	li	a0,4
    800065fe:	f92a                	sd	a0,176(sp)
    80006600:	7522                	ld	a0,40(sp)
    80006602:	fd2a                	sd	a0,184(sp)
    80006604:	7526                	ld	a0,104(sp)
    80006606:	e1aa                	sd	a0,192(sp)
    80006608:	7506                	ld	a0,96(sp)
    8000660a:	e5aa                	sd	a0,200(sp)
    8000660c:	6566                	ld	a0,88(sp)
    8000660e:	e9aa                	sd	a0,208(sp)
    80006610:	6546                	ld	a0,80(sp)
    80006612:	edaa                	sd	a0,216(sp)
    80006614:	6526                	ld	a0,72(sp)
    80006616:	f1aa                	sd	a0,224(sp)
    80006618:	6506                	ld	a0,64(sp)
    8000661a:	f5aa                	sd	a0,232(sp)
    8000661c:	7562                	ld	a0,56(sp)
    8000661e:	f9aa                	sd	a0,240(sp)
    80006620:	02000513          	li	a0,32
    80006624:	86e6                	mv	a3,s9
    80006626:	00ac8633          	add	a2,s9,a0
    8000662a:	fa063703          	ld	a4,-96(a2)
    8000662e:	fe86b783          	ld	a5,-24(a3)
    80006632:	fa863403          	ld	s0,-88(a2)
    80006636:	ff06b483          	ld	s1,-16(a3)
    8000663a:	02e78733          	mul	a4,a5,a4
    8000663e:	028487b3          	mul	a5,s1,s0
    80006642:	fb063403          	ld	s0,-80(a2)
    80006646:	ff86b483          	ld	s1,-8(a3)
    8000664a:	fb863603          	ld	a2,-72(a2)
    8000664e:	628c                	ld	a1,0(a3)
    80006650:	02848433          	mul	s0,s1,s0
    80006654:	02c585b3          	mul	a1,a1,a2
    80006658:	00170633          	add	a2,a4,ra
    8000665c:	963e                	add	a2,a2,a5
    8000665e:	9622                	add	a2,a2,s0
    80006660:	00b600b3          	add	ra,a2,a1
    80006664:	1501                	addi	a0,a0,-32
    80006666:	02068693          	addi	a3,a3,32
    8000666a:	fb251ee3          	bne	a0,s2,80006626 <main+0x44d2>
    8000666e:	4d01                	li	s10,0
    80006670:	7542                	ld	a0,48(sp)
    80006672:	3a153023          	sd	ra,928(a0)
    80006676:	3e0ebc03          	ld	s8,992(t4)
    8000667a:	f8f2                	sd	t3,112(sp)
    8000667c:	fc9a                	sd	t1,120(sp)
    8000667e:	e17a                	sd	t5,128(sp)
    80006680:	e51e                	sd	t2,136(sp)
    80006682:	e962                	sd	s8,144(sp)
    80006684:	ed42                	sd	a6,152(sp)
    80006686:	f15a                	sd	s6,160(sp)
    80006688:	f55e                	sd	s7,168(sp)
    8000668a:	4515                	li	a0,5
    8000668c:	f92a                	sd	a0,176(sp)
    8000668e:	7522                	ld	a0,40(sp)
    80006690:	fd2a                	sd	a0,184(sp)
    80006692:	7526                	ld	a0,104(sp)
    80006694:	e1aa                	sd	a0,192(sp)
    80006696:	7506                	ld	a0,96(sp)
    80006698:	e5aa                	sd	a0,200(sp)
    8000669a:	6566                	ld	a0,88(sp)
    8000669c:	e9aa                	sd	a0,208(sp)
    8000669e:	6546                	ld	a0,80(sp)
    800066a0:	edaa                	sd	a0,216(sp)
    800066a2:	6526                	ld	a0,72(sp)
    800066a4:	f1aa                	sd	a0,224(sp)
    800066a6:	6506                	ld	a0,64(sp)
    800066a8:	f5aa                	sd	a0,232(sp)
    800066aa:	7562                	ld	a0,56(sp)
    800066ac:	f9aa                	sd	a0,240(sp)
    800066ae:	02800593          	li	a1,40
    800066b2:	06000693          	li	a3,96
    800066b6:	00b28633          	add	a2,t0,a1
    800066ba:	6218                	ld	a4,0(a2)
    800066bc:	00d287b3          	add	a5,t0,a3
    800066c0:	fe87b483          	ld	s1,-24(a5)
    800066c4:	6600                	ld	s0,8(a2)
    800066c6:	ff07b503          	ld	a0,-16(a5)
    800066ca:	02e48733          	mul	a4,s1,a4
    800066ce:	02850533          	mul	a0,a0,s0
    800066d2:	6a10                	ld	a2,16(a2)
    800066d4:	ff87b483          	ld	s1,-8(a5)
    800066d8:	fa07b403          	ld	s0,-96(a5)
    800066dc:	639c                	ld	a5,0(a5)
    800066de:	02c48633          	mul	a2,s1,a2
    800066e2:	028787b3          	mul	a5,a5,s0
    800066e6:	976a                	add	a4,a4,s10
    800066e8:	953a                	add	a0,a0,a4
    800066ea:	9532                	add	a0,a0,a2
    800066ec:	00f50d33          	add	s10,a0,a5
    800066f0:	1581                	addi	a1,a1,-32
    800066f2:	02068693          	addi	a3,a3,32
    800066f6:	fdb590e3          	bne	a1,s11,800066b6 <main+0x4562>
    800066fa:	4081                	li	ra,0
    800066fc:	7542                	ld	a0,48(sp)
    800066fe:	3ba53423          	sd	s10,936(a0)
    80006702:	3e8eb803          	ld	a6,1000(t4)
    80006706:	f8f2                	sd	t3,112(sp)
    80006708:	fc9a                	sd	t1,120(sp)
    8000670a:	e17a                	sd	t5,128(sp)
    8000670c:	e51e                	sd	t2,136(sp)
    8000670e:	e962                	sd	s8,144(sp)
    80006710:	ed42                	sd	a6,152(sp)
    80006712:	f15a                	sd	s6,160(sp)
    80006714:	f55e                	sd	s7,168(sp)
    80006716:	4519                	li	a0,6
    80006718:	f92a                	sd	a0,176(sp)
    8000671a:	7522                	ld	a0,40(sp)
    8000671c:	fd2a                	sd	a0,184(sp)
    8000671e:	7526                	ld	a0,104(sp)
    80006720:	e1aa                	sd	a0,192(sp)
    80006722:	7506                	ld	a0,96(sp)
    80006724:	e5aa                	sd	a0,200(sp)
    80006726:	6566                	ld	a0,88(sp)
    80006728:	e9aa                	sd	a0,208(sp)
    8000672a:	6546                	ld	a0,80(sp)
    8000672c:	edaa                	sd	a0,216(sp)
    8000672e:	6526                	ld	a0,72(sp)
    80006730:	f1aa                	sd	a0,224(sp)
    80006732:	6506                	ld	a0,64(sp)
    80006734:	f5aa                	sd	a0,232(sp)
    80006736:	7562                	ld	a0,56(sp)
    80006738:	f9aa                	sd	a0,240(sp)
    8000673a:	fc000513          	li	a0,-64
    8000673e:	85fe                	mv	a1,t6
    80006740:	ff85b603          	ld	a2,-8(a1)
    80006744:	00aa8733          	add	a4,s5,a0
    80006748:	6f3c                	ld	a5,88(a4)
    8000674a:	6184                	ld	s1,0(a1)
    8000674c:	7320                	ld	s0,96(a4)
    8000674e:	02c78633          	mul	a2,a5,a2
    80006752:	029407b3          	mul	a5,s0,s1
    80006756:	6b00                	ld	s0,16(a4)
    80006758:	7724                	ld	s1,104(a4)
    8000675a:	6f14                	ld	a3,24(a4)
    8000675c:	7b38                	ld	a4,112(a4)
    8000675e:	02848433          	mul	s0,s1,s0
    80006762:	02d706b3          	mul	a3,a4,a3
    80006766:	9606                	add	a2,a2,ra
    80006768:	963e                	add	a2,a2,a5
    8000676a:	9622                	add	a2,a2,s0
    8000676c:	00d600b3          	add	ra,a2,a3
    80006770:	02050513          	addi	a0,a0,32
    80006774:	1581                	addi	a1,a1,-32
    80006776:	f569                	bnez	a0,80006740 <main+0x45ec>
    80006778:	4d01                	li	s10,0
    8000677a:	7542                	ld	a0,48(sp)
    8000677c:	3a153823          	sd	ra,944(a0)
    80006780:	3f0ebb03          	ld	s6,1008(t4)
    80006784:	f8f2                	sd	t3,112(sp)
    80006786:	fc9a                	sd	t1,120(sp)
    80006788:	e17a                	sd	t5,128(sp)
    8000678a:	e51e                	sd	t2,136(sp)
    8000678c:	e962                	sd	s8,144(sp)
    8000678e:	ed42                	sd	a6,152(sp)
    80006790:	f15a                	sd	s6,160(sp)
    80006792:	f55e                	sd	s7,168(sp)
    80006794:	451d                	li	a0,7
    80006796:	f92a                	sd	a0,176(sp)
    80006798:	70a2                	ld	ra,40(sp)
    8000679a:	fd06                	sd	ra,184(sp)
    8000679c:	7526                	ld	a0,104(sp)
    8000679e:	e1aa                	sd	a0,192(sp)
    800067a0:	7506                	ld	a0,96(sp)
    800067a2:	e5aa                	sd	a0,200(sp)
    800067a4:	6566                	ld	a0,88(sp)
    800067a6:	e9aa                	sd	a0,208(sp)
    800067a8:	6546                	ld	a0,80(sp)
    800067aa:	edaa                	sd	a0,216(sp)
    800067ac:	6526                	ld	a0,72(sp)
    800067ae:	f1aa                	sd	a0,224(sp)
    800067b0:	6506                	ld	a0,64(sp)
    800067b2:	f5aa                	sd	a0,232(sp)
    800067b4:	7562                	ld	a0,56(sp)
    800067b6:	f9aa                	sd	a0,240(sp)
    800067b8:	03800693          	li	a3,56
    800067bc:	06000793          	li	a5,96
    800067c0:	00d28633          	add	a2,t0,a3
    800067c4:	6210                	ld	a2,0(a2)
    800067c6:	00f28733          	add	a4,t0,a5
    800067ca:	fe873403          	ld	s0,-24(a4)
    800067ce:	fa073483          	ld	s1,-96(a4)
    800067d2:	ff073503          	ld	a0,-16(a4)
    800067d6:	02c40633          	mul	a2,s0,a2
    800067da:	02950533          	mul	a0,a0,s1
    800067de:	fa873403          	ld	s0,-88(a4)
    800067e2:	ff873483          	ld	s1,-8(a4)
    800067e6:	fb073583          	ld	a1,-80(a4)
    800067ea:	6318                	ld	a4,0(a4)
    800067ec:	02848433          	mul	s0,s1,s0
    800067f0:	02b705b3          	mul	a1,a4,a1
    800067f4:	966a                	add	a2,a2,s10
    800067f6:	9532                	add	a0,a0,a2
    800067f8:	9522                	add	a0,a0,s0
    800067fa:	00b50d33          	add	s10,a0,a1
    800067fe:	1681                	addi	a3,a3,-32
    80006800:	02078793          	addi	a5,a5,32
    80006804:	fb369ee3          	bne	a3,s3,800067c0 <main+0x466c>
    80006808:	4681                	li	a3,0
    8000680a:	7542                	ld	a0,48(sp)
    8000680c:	3ba53c23          	sd	s10,952(a0)
    80006810:	3f8eb503          	ld	a0,1016(t4)
    80006814:	f8f2                	sd	t3,112(sp)
    80006816:	fc9a                	sd	t1,120(sp)
    80006818:	e17a                	sd	t5,128(sp)
    8000681a:	e51e                	sd	t2,136(sp)
    8000681c:	e962                	sd	s8,144(sp)
    8000681e:	ed42                	sd	a6,152(sp)
    80006820:	f15a                	sd	s6,160(sp)
    80006822:	f52a                	sd	a0,168(sp)
    80006824:	f902                	sd	zero,176(sp)
    80006826:	fd06                	sd	ra,184(sp)
    80006828:	7526                	ld	a0,104(sp)
    8000682a:	e1aa                	sd	a0,192(sp)
    8000682c:	7506                	ld	a0,96(sp)
    8000682e:	e5aa                	sd	a0,200(sp)
    80006830:	6566                	ld	a0,88(sp)
    80006832:	e9aa                	sd	a0,208(sp)
    80006834:	6546                	ld	a0,80(sp)
    80006836:	edaa                	sd	a0,216(sp)
    80006838:	6526                	ld	a0,72(sp)
    8000683a:	f1aa                	sd	a0,224(sp)
    8000683c:	6506                	ld	a0,64(sp)
    8000683e:	f5aa                	sd	a0,232(sp)
    80006840:	7562                	ld	a0,56(sp)
    80006842:	f9aa                	sd	a0,240(sp)
    80006844:	4541                	li	a0,16
    80006846:	05000813          	li	a6,80
    8000684a:	00a285b3          	add	a1,t0,a0
    8000684e:	ff05b603          	ld	a2,-16(a1)
    80006852:	7d98                	ld	a4,56(a1)
    80006854:	02c70633          	mul	a2,a4,a2
    80006858:	ff85b703          	ld	a4,-8(a1)
    8000685c:	61bc                	ld	a5,64(a1)
    8000685e:	6184                	ld	s1,0(a1)
    80006860:	65a0                	ld	s0,72(a1)
    80006862:	02e78733          	mul	a4,a5,a4
    80006866:	029407b3          	mul	a5,s0,s1
    8000686a:	6584                	ld	s1,8(a1)
    8000686c:	69ac                	ld	a1,80(a1)
    8000686e:	9636                	add	a2,a2,a3
    80006870:	029585b3          	mul	a1,a1,s1
    80006874:	963a                	add	a2,a2,a4
    80006876:	963e                	add	a2,a2,a5
    80006878:	02050513          	addi	a0,a0,32
    8000687c:	00b606b3          	add	a3,a2,a1
    80006880:	fd0515e3          	bne	a0,a6,8000684a <main+0x46f6>
    80006884:	4501                	li	a0,0
    80006886:	75c2                	ld	a1,48(sp)
    80006888:	3cd5b023          	sd	a3,960(a1)
    8000688c:	7582                	ld	a1,32(sp)
    8000688e:	0015e313          	ori	t1,a1,1
    80006892:	00a31593          	slli	a1,t1,0xa
    80006896:	6662                	ld	a2,24(sp)
    80006898:	00b60eb3          	add	t4,a2,a1
    8000689c:	000eb583          	ld	a1,0(t4)
    800068a0:	008ebe03          	ld	t3,8(t4)
    800068a4:	010ebc03          	ld	s8,16(t4)
    800068a8:	018eb383          	ld	t2,24(t4)
    800068ac:	020eb803          	ld	a6,32(t4)
    800068b0:	028ebb83          	ld	s7,40(t4)
    800068b4:	030ebf03          	ld	t5,48(t4)
    800068b8:	038ebb03          	ld	s6,56(t4)
    800068bc:	f8ae                	sd	a1,112(sp)
    800068be:	fcf2                	sd	t3,120(sp)
    800068c0:	e162                	sd	s8,128(sp)
    800068c2:	e51e                	sd	t2,136(sp)
    800068c4:	e942                	sd	a6,144(sp)
    800068c6:	ed5e                	sd	s7,152(sp)
    800068c8:	f17a                	sd	t5,160(sp)
    800068ca:	f55a                	sd	s6,168(sp)
    800068cc:	f902                	sd	zero,176(sp)
    800068ce:	fd06                	sd	ra,184(sp)
    800068d0:	75a6                	ld	a1,104(sp)
    800068d2:	e1ae                	sd	a1,192(sp)
    800068d4:	7586                	ld	a1,96(sp)
    800068d6:	e5ae                	sd	a1,200(sp)
    800068d8:	65e6                	ld	a1,88(sp)
    800068da:	e9ae                	sd	a1,208(sp)
    800068dc:	65c6                	ld	a1,80(sp)
    800068de:	edae                	sd	a1,216(sp)
    800068e0:	65a6                	ld	a1,72(sp)
    800068e2:	f1ae                	sd	a1,224(sp)
    800068e4:	6586                	ld	a1,64(sp)
    800068e6:	f5ae                	sd	a1,232(sp)
    800068e8:	75e2                	ld	a1,56(sp)
    800068ea:	f9ae                	sd	a1,240(sp)
    800068ec:	fc000593          	li	a1,-64
    800068f0:	00b28633          	add	a2,t0,a1
    800068f4:	6238                	ld	a4,64(a2)
    800068f6:	665c                	ld	a5,136(a2)
    800068f8:	02e78733          	mul	a4,a5,a4
    800068fc:	663c                	ld	a5,72(a2)
    800068fe:	6a44                	ld	s1,144(a2)
    80006900:	6a20                	ld	s0,80(a2)
    80006902:	6e54                	ld	a3,152(a2)
    80006904:	02f487b3          	mul	a5,s1,a5
    80006908:	028686b3          	mul	a3,a3,s0
    8000690c:	6e20                	ld	s0,88(a2)
    8000690e:	7250                	ld	a2,160(a2)
    80006910:	953a                	add	a0,a0,a4
    80006912:	02860633          	mul	a2,a2,s0
    80006916:	953e                	add	a0,a0,a5
    80006918:	9536                	add	a0,a0,a3
    8000691a:	02058593          	addi	a1,a1,32
    8000691e:	9532                	add	a0,a0,a2
    80006920:	f9e1                	bnez	a1,800068f0 <main+0x479c>
    80006922:	3c800593          	li	a1,968
    80006926:	02b305b3          	mul	a1,t1,a1
    8000692a:	4681                	li	a3,0
    8000692c:	4401                	li	s0,0
    8000692e:	6642                	ld	a2,16(sp)
    80006930:	95b2                	add	a1,a1,a2
    80006932:	040eb303          	ld	t1,64(t4)
    80006936:	f82e                	sd	a1,48(sp)
    80006938:	e188                	sd	a0,0(a1)
    8000693a:	f89a                	sd	t1,112(sp)
    8000693c:	fcf2                	sd	t3,120(sp)
    8000693e:	e162                	sd	s8,128(sp)
    80006940:	e51e                	sd	t2,136(sp)
    80006942:	e942                	sd	a6,144(sp)
    80006944:	ed5e                	sd	s7,152(sp)
    80006946:	f17a                	sd	t5,160(sp)
    80006948:	f55a                	sd	s6,168(sp)
    8000694a:	4505                	li	a0,1
    8000694c:	f92a                	sd	a0,176(sp)
    8000694e:	fd06                	sd	ra,184(sp)
    80006950:	7526                	ld	a0,104(sp)
    80006952:	e1aa                	sd	a0,192(sp)
    80006954:	7506                	ld	a0,96(sp)
    80006956:	e5aa                	sd	a0,200(sp)
    80006958:	6566                	ld	a0,88(sp)
    8000695a:	e9aa                	sd	a0,208(sp)
    8000695c:	6546                	ld	a0,80(sp)
    8000695e:	edaa                	sd	a0,216(sp)
    80006960:	6526                	ld	a0,72(sp)
    80006962:	f1aa                	sd	a0,224(sp)
    80006964:	6506                	ld	a0,64(sp)
    80006966:	f5aa                	sd	a0,232(sp)
    80006968:	7562                	ld	a0,56(sp)
    8000696a:	f9aa                	sd	a0,240(sp)
    8000696c:	1928                	addi	a0,sp,184
    8000696e:	fc053583          	ld	a1,-64(a0)
    80006972:	6118                	ld	a4,0(a0)
    80006974:	fc853783          	ld	a5,-56(a0)
    80006978:	6504                	ld	s1,8(a0)
    8000697a:	02b70e33          	mul	t3,a4,a1
    8000697e:	02f48733          	mul	a4,s1,a5
    80006982:	fd053783          	ld	a5,-48(a0)
    80006986:	6904                	ld	s1,16(a0)
    80006988:	0046c613          	xori	a2,a3,4
    8000698c:	060e                	slli	a2,a2,0x3
    8000698e:	9616                	add	a2,a2,t0
    80006990:	6210                	ld	a2,0(a2)
    80006992:	6d0c                	ld	a1,24(a0)
    80006994:	02f487b3          	mul	a5,s1,a5
    80006998:	02c585b3          	mul	a1,a1,a2
    8000699c:	008e0633          	add	a2,t3,s0
    800069a0:	963a                	add	a2,a2,a4
    800069a2:	963e                	add	a2,a2,a5
    800069a4:	00b60433          	add	s0,a2,a1
    800069a8:	0691                	addi	a3,a3,4
    800069aa:	02050513          	addi	a0,a0,32
    800069ae:	fd4690e3          	bne	a3,s4,8000696e <main+0x481a>
    800069b2:	4501                	li	a0,0
    800069b4:	4681                	li	a3,0
    800069b6:	75c2                	ld	a1,48(sp)
    800069b8:	e580                	sd	s0,8(a1)
    800069ba:	048ebe03          	ld	t3,72(t4)
    800069be:	f89a                	sd	t1,112(sp)
    800069c0:	fcf2                	sd	t3,120(sp)
    800069c2:	e162                	sd	s8,128(sp)
    800069c4:	e51e                	sd	t2,136(sp)
    800069c6:	e942                	sd	a6,144(sp)
    800069c8:	ed5e                	sd	s7,152(sp)
    800069ca:	f17a                	sd	t5,160(sp)
    800069cc:	f55a                	sd	s6,168(sp)
    800069ce:	4589                	li	a1,2
    800069d0:	f92e                	sd	a1,176(sp)
    800069d2:	fd06                	sd	ra,184(sp)
    800069d4:	75a6                	ld	a1,104(sp)
    800069d6:	e1ae                	sd	a1,192(sp)
    800069d8:	7586                	ld	a1,96(sp)
    800069da:	e5ae                	sd	a1,200(sp)
    800069dc:	65e6                	ld	a1,88(sp)
    800069de:	e9ae                	sd	a1,208(sp)
    800069e0:	65c6                	ld	a1,80(sp)
    800069e2:	edae                	sd	a1,216(sp)
    800069e4:	65a6                	ld	a1,72(sp)
    800069e6:	f1ae                	sd	a1,224(sp)
    800069e8:	6586                	ld	a1,64(sp)
    800069ea:	f5ae                	sd	a1,232(sp)
    800069ec:	75e2                	ld	a1,56(sp)
    800069ee:	f9ae                	sd	a1,240(sp)
    800069f0:	02800593          	li	a1,40
    800069f4:	1920                	addi	s0,sp,184
    800069f6:	fc843603          	ld	a2,-56(s0)
    800069fa:	6018                	ld	a4,0(s0)
    800069fc:	fd043783          	ld	a5,-48(s0)
    80006a00:	6404                	ld	s1,8(s0)
    80006a02:	02c70c33          	mul	s8,a4,a2
    80006a06:	02f48d33          	mul	s10,s1,a5
    80006a0a:	00454793          	xori	a5,a0,4
    80006a0e:	078e                	slli	a5,a5,0x3
    80006a10:	9796                	add	a5,a5,t0
    80006a12:	639c                	ld	a5,0(a5)
    80006a14:	6804                	ld	s1,16(s0)
    80006a16:	00bc8633          	add	a2,s9,a1
    80006a1a:	fa063603          	ld	a2,-96(a2)
    80006a1e:	6c18                	ld	a4,24(s0)
    80006a20:	02f487b3          	mul	a5,s1,a5
    80006a24:	02c70633          	mul	a2,a4,a2
    80006a28:	96e2                	add	a3,a3,s8
    80006a2a:	96ea                	add	a3,a3,s10
    80006a2c:	96be                	add	a3,a3,a5
    80006a2e:	96b2                	add	a3,a3,a2
    80006a30:	0511                	addi	a0,a0,4
    80006a32:	1581                	addi	a1,a1,-32
    80006a34:	02040413          	addi	s0,s0,32
    80006a38:	fbb59fe3          	bne	a1,s11,800069f6 <main+0x48a2>
    80006a3c:	4501                	li	a0,0
    80006a3e:	4c01                	li	s8,0
    80006a40:	75c2                	ld	a1,48(sp)
    80006a42:	e994                	sd	a3,16(a1)
    80006a44:	050ebd03          	ld	s10,80(t4)
    80006a48:	f89a                	sd	t1,112(sp)
    80006a4a:	fcf2                	sd	t3,120(sp)
    80006a4c:	e16a                	sd	s10,128(sp)
    80006a4e:	e51e                	sd	t2,136(sp)
    80006a50:	e942                	sd	a6,144(sp)
    80006a52:	ed5e                	sd	s7,152(sp)
    80006a54:	f17a                	sd	t5,160(sp)
    80006a56:	f55a                	sd	s6,168(sp)
    80006a58:	458d                	li	a1,3
    80006a5a:	f92e                	sd	a1,176(sp)
    80006a5c:	fd06                	sd	ra,184(sp)
    80006a5e:	75a6                	ld	a1,104(sp)
    80006a60:	e1ae                	sd	a1,192(sp)
    80006a62:	7586                	ld	a1,96(sp)
    80006a64:	e5ae                	sd	a1,200(sp)
    80006a66:	65e6                	ld	a1,88(sp)
    80006a68:	e9ae                	sd	a1,208(sp)
    80006a6a:	65c6                	ld	a1,80(sp)
    80006a6c:	edae                	sd	a1,216(sp)
    80006a6e:	65a6                	ld	a1,72(sp)
    80006a70:	f1ae                	sd	a1,224(sp)
    80006a72:	6586                	ld	a1,64(sp)
    80006a74:	f5ae                	sd	a1,232(sp)
    80006a76:	75e2                	ld	a1,56(sp)
    80006a78:	f9ae                	sd	a1,240(sp)
    80006a7a:	02800593          	li	a1,40
    80006a7e:	86e6                	mv	a3,s9
    80006a80:	fb86b603          	ld	a2,-72(a3)
    80006a84:	fe86b703          	ld	a4,-24(a3)
    80006a88:	00454793          	xori	a5,a0,4
    80006a8c:	078e                	slli	a5,a5,0x3
    80006a8e:	9796                	add	a5,a5,t0
    80006a90:	639c                	ld	a5,0(a5)
    80006a92:	ff06b483          	ld	s1,-16(a3)
    80006a96:	02c703b3          	mul	t2,a4,a2
    80006a9a:	02f48733          	mul	a4,s1,a5
    80006a9e:	00bc87b3          	add	a5,s9,a1
    80006aa2:	fa07b483          	ld	s1,-96(a5)
    80006aa6:	ff86b403          	ld	s0,-8(a3)
    80006aaa:	fa87b783          	ld	a5,-88(a5)
    80006aae:	6290                	ld	a2,0(a3)
    80006ab0:	02940433          	mul	s0,s0,s1
    80006ab4:	02f60633          	mul	a2,a2,a5
    80006ab8:	018387b3          	add	a5,t2,s8
    80006abc:	973e                	add	a4,a4,a5
    80006abe:	9722                	add	a4,a4,s0
    80006ac0:	00c70c33          	add	s8,a4,a2
    80006ac4:	0511                	addi	a0,a0,4
    80006ac6:	1581                	addi	a1,a1,-32
    80006ac8:	02068693          	addi	a3,a3,32
    80006acc:	fbb59ae3          	bne	a1,s11,80006a80 <main+0x492c>
    80006ad0:	4081                	li	ra,0
    80006ad2:	7542                	ld	a0,48(sp)
    80006ad4:	01853c23          	sd	s8,24(a0)
    80006ad8:	058eb383          	ld	t2,88(t4)
    80006adc:	f89a                	sd	t1,112(sp)
    80006ade:	fcf2                	sd	t3,120(sp)
    80006ae0:	e16a                	sd	s10,128(sp)
    80006ae2:	e51e                	sd	t2,136(sp)
    80006ae4:	e942                	sd	a6,144(sp)
    80006ae6:	ed5e                	sd	s7,152(sp)
    80006ae8:	f17a                	sd	t5,160(sp)
    80006aea:	f55a                	sd	s6,168(sp)
    80006aec:	4511                	li	a0,4
    80006aee:	f92a                	sd	a0,176(sp)
    80006af0:	7522                	ld	a0,40(sp)
    80006af2:	fd2a                	sd	a0,184(sp)
    80006af4:	7526                	ld	a0,104(sp)
    80006af6:	e1aa                	sd	a0,192(sp)
    80006af8:	7506                	ld	a0,96(sp)
    80006afa:	e5aa                	sd	a0,200(sp)
    80006afc:	6566                	ld	a0,88(sp)
    80006afe:	e9aa                	sd	a0,208(sp)
    80006b00:	6546                	ld	a0,80(sp)
    80006b02:	edaa                	sd	a0,216(sp)
    80006b04:	6526                	ld	a0,72(sp)
    80006b06:	f1aa                	sd	a0,224(sp)
    80006b08:	6506                	ld	a0,64(sp)
    80006b0a:	f5aa                	sd	a0,232(sp)
    80006b0c:	7562                	ld	a0,56(sp)
    80006b0e:	f9aa                	sd	a0,240(sp)
    80006b10:	02000593          	li	a1,32
    80006b14:	86e6                	mv	a3,s9
    80006b16:	00bc8633          	add	a2,s9,a1
    80006b1a:	fa063703          	ld	a4,-96(a2)
    80006b1e:	fe86b783          	ld	a5,-24(a3)
    80006b22:	fa863483          	ld	s1,-88(a2)
    80006b26:	ff06b403          	ld	s0,-16(a3)
    80006b2a:	02e78733          	mul	a4,a5,a4
    80006b2e:	029407b3          	mul	a5,s0,s1
    80006b32:	fb063483          	ld	s1,-80(a2)
    80006b36:	ff86b403          	ld	s0,-8(a3)
    80006b3a:	fb863603          	ld	a2,-72(a2)
    80006b3e:	6288                	ld	a0,0(a3)
    80006b40:	029404b3          	mul	s1,s0,s1
    80006b44:	02c50533          	mul	a0,a0,a2
    80006b48:	00170633          	add	a2,a4,ra
    80006b4c:	963e                	add	a2,a2,a5
    80006b4e:	9626                	add	a2,a2,s1
    80006b50:	00a600b3          	add	ra,a2,a0
    80006b54:	1581                	addi	a1,a1,-32
    80006b56:	02068693          	addi	a3,a3,32
    80006b5a:	fb259ee3          	bne	a1,s2,80006b16 <main+0x49c2>
    80006b5e:	4c01                	li	s8,0
    80006b60:	7542                	ld	a0,48(sp)
    80006b62:	02153023          	sd	ra,32(a0)
    80006b66:	060eb803          	ld	a6,96(t4)
    80006b6a:	f89a                	sd	t1,112(sp)
    80006b6c:	fcf2                	sd	t3,120(sp)
    80006b6e:	e16a                	sd	s10,128(sp)
    80006b70:	e51e                	sd	t2,136(sp)
    80006b72:	e942                	sd	a6,144(sp)
    80006b74:	ed5e                	sd	s7,152(sp)
    80006b76:	f17a                	sd	t5,160(sp)
    80006b78:	f55a                	sd	s6,168(sp)
    80006b7a:	4515                	li	a0,5
    80006b7c:	f92a                	sd	a0,176(sp)
    80006b7e:	70a2                	ld	ra,40(sp)
    80006b80:	fd06                	sd	ra,184(sp)
    80006b82:	7526                	ld	a0,104(sp)
    80006b84:	e1aa                	sd	a0,192(sp)
    80006b86:	7506                	ld	a0,96(sp)
    80006b88:	e5aa                	sd	a0,200(sp)
    80006b8a:	6566                	ld	a0,88(sp)
    80006b8c:	e9aa                	sd	a0,208(sp)
    80006b8e:	6546                	ld	a0,80(sp)
    80006b90:	edaa                	sd	a0,216(sp)
    80006b92:	6526                	ld	a0,72(sp)
    80006b94:	f1aa                	sd	a0,224(sp)
    80006b96:	6506                	ld	a0,64(sp)
    80006b98:	f5aa                	sd	a0,232(sp)
    80006b9a:	7562                	ld	a0,56(sp)
    80006b9c:	f9aa                	sd	a0,240(sp)
    80006b9e:	04000513          	li	a0,64
    80006ba2:	86e6                	mv	a3,s9
    80006ba4:	00ac8633          	add	a2,s9,a0
    80006ba8:	f8863703          	ld	a4,-120(a2)
    80006bac:	fe86b783          	ld	a5,-24(a3)
    80006bb0:	f9063403          	ld	s0,-112(a2)
    80006bb4:	ff06b483          	ld	s1,-16(a3)
    80006bb8:	02e78733          	mul	a4,a5,a4
    80006bbc:	028487b3          	mul	a5,s1,s0
    80006bc0:	f9863603          	ld	a2,-104(a2)
    80006bc4:	ff86b403          	ld	s0,-8(a3)
    80006bc8:	fa06b483          	ld	s1,-96(a3)
    80006bcc:	628c                	ld	a1,0(a3)
    80006bce:	02c40633          	mul	a2,s0,a2
    80006bd2:	029585b3          	mul	a1,a1,s1
    80006bd6:	9762                	add	a4,a4,s8
    80006bd8:	973e                	add	a4,a4,a5
    80006bda:	963a                	add	a2,a2,a4
    80006bdc:	00b60c33          	add	s8,a2,a1
    80006be0:	1501                	addi	a0,a0,-32
    80006be2:	02068693          	addi	a3,a3,32
    80006be6:	fd5d                	bnez	a0,80006ba4 <main+0x4a50>
    80006be8:	4b81                	li	s7,0
    80006bea:	7542                	ld	a0,48(sp)
    80006bec:	03853423          	sd	s8,40(a0)
    80006bf0:	068ebc03          	ld	s8,104(t4)
    80006bf4:	f89a                	sd	t1,112(sp)
    80006bf6:	fcf2                	sd	t3,120(sp)
    80006bf8:	e16a                	sd	s10,128(sp)
    80006bfa:	e51e                	sd	t2,136(sp)
    80006bfc:	e942                	sd	a6,144(sp)
    80006bfe:	ed62                	sd	s8,152(sp)
    80006c00:	f17a                	sd	t5,160(sp)
    80006c02:	f55a                	sd	s6,168(sp)
    80006c04:	4519                	li	a0,6
    80006c06:	f92a                	sd	a0,176(sp)
    80006c08:	fd06                	sd	ra,184(sp)
    80006c0a:	7526                	ld	a0,104(sp)
    80006c0c:	e1aa                	sd	a0,192(sp)
    80006c0e:	7506                	ld	a0,96(sp)
    80006c10:	e5aa                	sd	a0,200(sp)
    80006c12:	6566                	ld	a0,88(sp)
    80006c14:	e9aa                	sd	a0,208(sp)
    80006c16:	6546                	ld	a0,80(sp)
    80006c18:	edaa                	sd	a0,216(sp)
    80006c1a:	6526                	ld	a0,72(sp)
    80006c1c:	f1aa                	sd	a0,224(sp)
    80006c1e:	6506                	ld	a0,64(sp)
    80006c20:	f5aa                	sd	a0,232(sp)
    80006c22:	7562                	ld	a0,56(sp)
    80006c24:	f9aa                	sd	a0,240(sp)
    80006c26:	04000593          	li	a1,64
    80006c2a:	86e6                	mv	a3,s9
    80006c2c:	00bc8633          	add	a2,s9,a1
    80006c30:	f9063703          	ld	a4,-112(a2)
    80006c34:	fe86b783          	ld	a5,-24(a3)
    80006c38:	f9863603          	ld	a2,-104(a2)
    80006c3c:	ff06b483          	ld	s1,-16(a3)
    80006c40:	02e78733          	mul	a4,a5,a4
    80006c44:	02c48633          	mul	a2,s1,a2
    80006c48:	fa06b783          	ld	a5,-96(a3)
    80006c4c:	ff86b483          	ld	s1,-8(a3)
    80006c50:	fa86b403          	ld	s0,-88(a3)
    80006c54:	6288                	ld	a0,0(a3)
    80006c56:	02f487b3          	mul	a5,s1,a5
    80006c5a:	02850533          	mul	a0,a0,s0
    80006c5e:	975e                	add	a4,a4,s7
    80006c60:	963a                	add	a2,a2,a4
    80006c62:	963e                	add	a2,a2,a5
    80006c64:	00a60bb3          	add	s7,a2,a0
    80006c68:	1581                	addi	a1,a1,-32
    80006c6a:	02068693          	addi	a3,a3,32
    80006c6e:	fddd                	bnez	a1,80006c2c <main+0x4ad8>
    80006c70:	4f01                	li	t5,0
    80006c72:	7542                	ld	a0,48(sp)
    80006c74:	03753823          	sd	s7,48(a0)
    80006c78:	070ebb83          	ld	s7,112(t4)
    80006c7c:	f89a                	sd	t1,112(sp)
    80006c7e:	fcf2                	sd	t3,120(sp)
    80006c80:	e16a                	sd	s10,128(sp)
    80006c82:	e51e                	sd	t2,136(sp)
    80006c84:	e942                	sd	a6,144(sp)
    80006c86:	ed62                	sd	s8,152(sp)
    80006c88:	f15e                	sd	s7,160(sp)
    80006c8a:	f55a                	sd	s6,168(sp)
    80006c8c:	451d                	li	a0,7
    80006c8e:	f92a                	sd	a0,176(sp)
    80006c90:	fd06                	sd	ra,184(sp)
    80006c92:	7526                	ld	a0,104(sp)
    80006c94:	e1aa                	sd	a0,192(sp)
    80006c96:	7506                	ld	a0,96(sp)
    80006c98:	e5aa                	sd	a0,200(sp)
    80006c9a:	6566                	ld	a0,88(sp)
    80006c9c:	e9aa                	sd	a0,208(sp)
    80006c9e:	6546                	ld	a0,80(sp)
    80006ca0:	edaa                	sd	a0,216(sp)
    80006ca2:	6526                	ld	a0,72(sp)
    80006ca4:	f1aa                	sd	a0,224(sp)
    80006ca6:	6506                	ld	a0,64(sp)
    80006ca8:	f5aa                	sd	a0,232(sp)
    80006caa:	7562                	ld	a0,56(sp)
    80006cac:	f9aa                	sd	a0,240(sp)
    80006cae:	03800513          	li	a0,56
    80006cb2:	86e6                	mv	a3,s9
    80006cb4:	00ac8633          	add	a2,s9,a0
    80006cb8:	fa063603          	ld	a2,-96(a2)
    80006cbc:	fe86b703          	ld	a4,-24(a3)
    80006cc0:	fa06b783          	ld	a5,-96(a3)
    80006cc4:	ff06b483          	ld	s1,-16(a3)
    80006cc8:	02c70633          	mul	a2,a4,a2
    80006ccc:	02f48733          	mul	a4,s1,a5
    80006cd0:	fa86b783          	ld	a5,-88(a3)
    80006cd4:	ff86b483          	ld	s1,-8(a3)
    80006cd8:	fb06b403          	ld	s0,-80(a3)
    80006cdc:	628c                	ld	a1,0(a3)
    80006cde:	02f487b3          	mul	a5,s1,a5
    80006ce2:	028585b3          	mul	a1,a1,s0
    80006ce6:	967a                	add	a2,a2,t5
    80006ce8:	963a                	add	a2,a2,a4
    80006cea:	963e                	add	a2,a2,a5
    80006cec:	00b60f33          	add	t5,a2,a1
    80006cf0:	1501                	addi	a0,a0,-32
    80006cf2:	02068693          	addi	a3,a3,32
    80006cf6:	fb351fe3          	bne	a0,s3,80006cb4 <main+0x4b60>
    80006cfa:	4401                	li	s0,0
    80006cfc:	7542                	ld	a0,48(sp)
    80006cfe:	03e53c23          	sd	t5,56(a0)
    80006d02:	078ebb03          	ld	s6,120(t4)
    80006d06:	f89a                	sd	t1,112(sp)
    80006d08:	fcf2                	sd	t3,120(sp)
    80006d0a:	e16a                	sd	s10,128(sp)
    80006d0c:	e51e                	sd	t2,136(sp)
    80006d0e:	e942                	sd	a6,144(sp)
    80006d10:	ed62                	sd	s8,152(sp)
    80006d12:	f15e                	sd	s7,160(sp)
    80006d14:	f55a                	sd	s6,168(sp)
    80006d16:	f902                	sd	zero,176(sp)
    80006d18:	fd06                	sd	ra,184(sp)
    80006d1a:	7526                	ld	a0,104(sp)
    80006d1c:	e1aa                	sd	a0,192(sp)
    80006d1e:	7506                	ld	a0,96(sp)
    80006d20:	e5aa                	sd	a0,200(sp)
    80006d22:	6566                	ld	a0,88(sp)
    80006d24:	e9aa                	sd	a0,208(sp)
    80006d26:	6546                	ld	a0,80(sp)
    80006d28:	edaa                	sd	a0,216(sp)
    80006d2a:	6526                	ld	a0,72(sp)
    80006d2c:	f1aa                	sd	a0,224(sp)
    80006d2e:	6506                	ld	a0,64(sp)
    80006d30:	f5aa                	sd	a0,232(sp)
    80006d32:	7562                	ld	a0,56(sp)
    80006d34:	f9aa                	sd	a0,240(sp)
    80006d36:	fc000513          	li	a0,-64
    80006d3a:	00a285b3          	add	a1,t0,a0
    80006d3e:	61b0                	ld	a2,64(a1)
    80006d40:	65d4                	ld	a3,136(a1)
    80006d42:	02c68633          	mul	a2,a3,a2
    80006d46:	65b4                	ld	a3,72(a1)
    80006d48:	69d8                	ld	a4,144(a1)
    80006d4a:	69bc                	ld	a5,80(a1)
    80006d4c:	6dc4                	ld	s1,152(a1)
    80006d4e:	02d706b3          	mul	a3,a4,a3
    80006d52:	02f48733          	mul	a4,s1,a5
    80006d56:	6dbc                	ld	a5,88(a1)
    80006d58:	71cc                	ld	a1,160(a1)
    80006d5a:	9622                	add	a2,a2,s0
    80006d5c:	02f585b3          	mul	a1,a1,a5
    80006d60:	9636                	add	a2,a2,a3
    80006d62:	963a                	add	a2,a2,a4
    80006d64:	02050513          	addi	a0,a0,32
    80006d68:	00b60433          	add	s0,a2,a1
    80006d6c:	f579                	bnez	a0,80006d3a <main+0x4be6>
    80006d6e:	4681                	li	a3,0
    80006d70:	080eb303          	ld	t1,128(t4)
    80006d74:	75c2                	ld	a1,48(sp)
    80006d76:	e1a0                	sd	s0,64(a1)
    80006d78:	f89a                	sd	t1,112(sp)
    80006d7a:	fcf2                	sd	t3,120(sp)
    80006d7c:	e16a                	sd	s10,128(sp)
    80006d7e:	e51e                	sd	t2,136(sp)
    80006d80:	e942                	sd	a6,144(sp)
    80006d82:	ed62                	sd	s8,152(sp)
    80006d84:	f15e                	sd	s7,160(sp)
    80006d86:	f55a                	sd	s6,168(sp)
    80006d88:	4585                	li	a1,1
    80006d8a:	f92e                	sd	a1,176(sp)
    80006d8c:	fd06                	sd	ra,184(sp)
    80006d8e:	75a6                	ld	a1,104(sp)
    80006d90:	e1ae                	sd	a1,192(sp)
    80006d92:	7586                	ld	a1,96(sp)
    80006d94:	e5ae                	sd	a1,200(sp)
    80006d96:	65e6                	ld	a1,88(sp)
    80006d98:	e9ae                	sd	a1,208(sp)
    80006d9a:	65c6                	ld	a1,80(sp)
    80006d9c:	edae                	sd	a1,216(sp)
    80006d9e:	65a6                	ld	a1,72(sp)
    80006da0:	f1ae                	sd	a1,224(sp)
    80006da2:	6586                	ld	a1,64(sp)
    80006da4:	f5ae                	sd	a1,232(sp)
    80006da6:	75e2                	ld	a1,56(sp)
    80006da8:	f9ae                	sd	a1,240(sp)
    80006daa:	192c                	addi	a1,sp,184
    80006dac:	fc05b603          	ld	a2,-64(a1)
    80006db0:	6198                	ld	a4,0(a1)
    80006db2:	fc85b783          	ld	a5,-56(a1)
    80006db6:	6584                	ld	s1,8(a1)
    80006db8:	02c70e33          	mul	t3,a4,a2
    80006dbc:	02f48733          	mul	a4,s1,a5
    80006dc0:	fd05b783          	ld	a5,-48(a1)
    80006dc4:	6984                	ld	s1,16(a1)
    80006dc6:	00454413          	xori	s0,a0,4
    80006dca:	040e                	slli	s0,s0,0x3
    80006dcc:	9416                	add	s0,s0,t0
    80006dce:	6000                	ld	s0,0(s0)
    80006dd0:	6d90                	ld	a2,24(a1)
    80006dd2:	02f487b3          	mul	a5,s1,a5
    80006dd6:	02860633          	mul	a2,a2,s0
    80006dda:	96f2                	add	a3,a3,t3
    80006ddc:	96ba                	add	a3,a3,a4
    80006dde:	96be                	add	a3,a3,a5
    80006de0:	96b2                	add	a3,a3,a2
    80006de2:	0511                	addi	a0,a0,4
    80006de4:	02058593          	addi	a1,a1,32
    80006de8:	fd4512e3          	bne	a0,s4,80006dac <main+0x4c58>
    80006dec:	4501                	li	a0,0
    80006dee:	4401                	li	s0,0
    80006df0:	75c2                	ld	a1,48(sp)
    80006df2:	e5b4                	sd	a3,72(a1)
    80006df4:	088ebe03          	ld	t3,136(t4)
    80006df8:	f89a                	sd	t1,112(sp)
    80006dfa:	fcf2                	sd	t3,120(sp)
    80006dfc:	e16a                	sd	s10,128(sp)
    80006dfe:	e51e                	sd	t2,136(sp)
    80006e00:	e942                	sd	a6,144(sp)
    80006e02:	ed62                	sd	s8,152(sp)
    80006e04:	f15e                	sd	s7,160(sp)
    80006e06:	f55a                	sd	s6,168(sp)
    80006e08:	4589                	li	a1,2
    80006e0a:	f92e                	sd	a1,176(sp)
    80006e0c:	fd06                	sd	ra,184(sp)
    80006e0e:	75a6                	ld	a1,104(sp)
    80006e10:	e1ae                	sd	a1,192(sp)
    80006e12:	7586                	ld	a1,96(sp)
    80006e14:	e5ae                	sd	a1,200(sp)
    80006e16:	65e6                	ld	a1,88(sp)
    80006e18:	e9ae                	sd	a1,208(sp)
    80006e1a:	65c6                	ld	a1,80(sp)
    80006e1c:	edae                	sd	a1,216(sp)
    80006e1e:	65a6                	ld	a1,72(sp)
    80006e20:	f1ae                	sd	a1,224(sp)
    80006e22:	6586                	ld	a1,64(sp)
    80006e24:	f5ae                	sd	a1,232(sp)
    80006e26:	75e2                	ld	a1,56(sp)
    80006e28:	f9ae                	sd	a1,240(sp)
    80006e2a:	02800593          	li	a1,40
    80006e2e:	1934                	addi	a3,sp,184
    80006e30:	fc86b603          	ld	a2,-56(a3)
    80006e34:	6298                	ld	a4,0(a3)
    80006e36:	fd06b783          	ld	a5,-48(a3)
    80006e3a:	6684                	ld	s1,8(a3)
    80006e3c:	02c70f33          	mul	t5,a4,a2
    80006e40:	02f48d33          	mul	s10,s1,a5
    80006e44:	00454793          	xori	a5,a0,4
    80006e48:	078e                	slli	a5,a5,0x3
    80006e4a:	9796                	add	a5,a5,t0
    80006e4c:	639c                	ld	a5,0(a5)
    80006e4e:	6a84                	ld	s1,16(a3)
    80006e50:	00bc8633          	add	a2,s9,a1
    80006e54:	fa063603          	ld	a2,-96(a2)
    80006e58:	6e98                	ld	a4,24(a3)
    80006e5a:	02f487b3          	mul	a5,s1,a5
    80006e5e:	02c70633          	mul	a2,a4,a2
    80006e62:	008f0733          	add	a4,t5,s0
    80006e66:	976a                	add	a4,a4,s10
    80006e68:	973e                	add	a4,a4,a5
    80006e6a:	00c70433          	add	s0,a4,a2
    80006e6e:	0511                	addi	a0,a0,4
    80006e70:	1581                	addi	a1,a1,-32
    80006e72:	02068693          	addi	a3,a3,32
    80006e76:	fbb59de3          	bne	a1,s11,80006e30 <main+0x4cdc>
    80006e7a:	4681                	li	a3,0
    80006e7c:	4d01                	li	s10,0
    80006e7e:	7542                	ld	a0,48(sp)
    80006e80:	e920                	sd	s0,80(a0)
    80006e82:	090ebf03          	ld	t5,144(t4)
    80006e86:	f89a                	sd	t1,112(sp)
    80006e88:	fcf2                	sd	t3,120(sp)
    80006e8a:	e17a                	sd	t5,128(sp)
    80006e8c:	e51e                	sd	t2,136(sp)
    80006e8e:	e942                	sd	a6,144(sp)
    80006e90:	ed62                	sd	s8,152(sp)
    80006e92:	f15e                	sd	s7,160(sp)
    80006e94:	f55a                	sd	s6,168(sp)
    80006e96:	450d                	li	a0,3
    80006e98:	f92a                	sd	a0,176(sp)
    80006e9a:	fd06                	sd	ra,184(sp)
    80006e9c:	7526                	ld	a0,104(sp)
    80006e9e:	e1aa                	sd	a0,192(sp)
    80006ea0:	7506                	ld	a0,96(sp)
    80006ea2:	e5aa                	sd	a0,200(sp)
    80006ea4:	6566                	ld	a0,88(sp)
    80006ea6:	e9aa                	sd	a0,208(sp)
    80006ea8:	6546                	ld	a0,80(sp)
    80006eaa:	edaa                	sd	a0,216(sp)
    80006eac:	6526                	ld	a0,72(sp)
    80006eae:	f1aa                	sd	a0,224(sp)
    80006eb0:	6506                	ld	a0,64(sp)
    80006eb2:	f5aa                	sd	a0,232(sp)
    80006eb4:	7562                	ld	a0,56(sp)
    80006eb6:	f9aa                	sd	a0,240(sp)
    80006eb8:	02800593          	li	a1,40
    80006ebc:	87e6                	mv	a5,s9
    80006ebe:	fb87b603          	ld	a2,-72(a5)
    80006ec2:	fe87b703          	ld	a4,-24(a5)
    80006ec6:	0046c493          	xori	s1,a3,4
    80006eca:	048e                	slli	s1,s1,0x3
    80006ecc:	9496                	add	s1,s1,t0
    80006ece:	6084                	ld	s1,0(s1)
    80006ed0:	ff07b403          	ld	s0,-16(a5)
    80006ed4:	02c703b3          	mul	t2,a4,a2
    80006ed8:	02940733          	mul	a4,s0,s1
    80006edc:	00bc84b3          	add	s1,s9,a1
    80006ee0:	fa04b403          	ld	s0,-96(s1)
    80006ee4:	ff87b503          	ld	a0,-8(a5)
    80006ee8:	fa84b483          	ld	s1,-88(s1)
    80006eec:	6390                	ld	a2,0(a5)
    80006eee:	02850533          	mul	a0,a0,s0
    80006ef2:	02960633          	mul	a2,a2,s1
    80006ef6:	01a384b3          	add	s1,t2,s10
    80006efa:	9726                	add	a4,a4,s1
    80006efc:	953a                	add	a0,a0,a4
    80006efe:	00c50d33          	add	s10,a0,a2
    80006f02:	0691                	addi	a3,a3,4
    80006f04:	1581                	addi	a1,a1,-32
    80006f06:	02078793          	addi	a5,a5,32
    80006f0a:	fbb59ae3          	bne	a1,s11,80006ebe <main+0x4d6a>
    80006f0e:	4081                	li	ra,0
    80006f10:	7542                	ld	a0,48(sp)
    80006f12:	05a53c23          	sd	s10,88(a0)
    80006f16:	098eb383          	ld	t2,152(t4)
    80006f1a:	f89a                	sd	t1,112(sp)
    80006f1c:	fcf2                	sd	t3,120(sp)
    80006f1e:	e17a                	sd	t5,128(sp)
    80006f20:	e51e                	sd	t2,136(sp)
    80006f22:	e942                	sd	a6,144(sp)
    80006f24:	ed62                	sd	s8,152(sp)
    80006f26:	f15e                	sd	s7,160(sp)
    80006f28:	f55a                	sd	s6,168(sp)
    80006f2a:	4511                	li	a0,4
    80006f2c:	f92a                	sd	a0,176(sp)
    80006f2e:	7522                	ld	a0,40(sp)
    80006f30:	fd2a                	sd	a0,184(sp)
    80006f32:	7526                	ld	a0,104(sp)
    80006f34:	e1aa                	sd	a0,192(sp)
    80006f36:	7506                	ld	a0,96(sp)
    80006f38:	e5aa                	sd	a0,200(sp)
    80006f3a:	6566                	ld	a0,88(sp)
    80006f3c:	e9aa                	sd	a0,208(sp)
    80006f3e:	6546                	ld	a0,80(sp)
    80006f40:	edaa                	sd	a0,216(sp)
    80006f42:	6526                	ld	a0,72(sp)
    80006f44:	f1aa                	sd	a0,224(sp)
    80006f46:	6506                	ld	a0,64(sp)
    80006f48:	f5aa                	sd	a0,232(sp)
    80006f4a:	7562                	ld	a0,56(sp)
    80006f4c:	f9aa                	sd	a0,240(sp)
    80006f4e:	02000513          	li	a0,32
    80006f52:	86e6                	mv	a3,s9
    80006f54:	00ac8633          	add	a2,s9,a0
    80006f58:	fa063703          	ld	a4,-96(a2)
    80006f5c:	fe86b783          	ld	a5,-24(a3)
    80006f60:	fa863483          	ld	s1,-88(a2)
    80006f64:	ff06b403          	ld	s0,-16(a3)
    80006f68:	02e78733          	mul	a4,a5,a4
    80006f6c:	029407b3          	mul	a5,s0,s1
    80006f70:	fb063483          	ld	s1,-80(a2)
    80006f74:	ff86b403          	ld	s0,-8(a3)
    80006f78:	fb863603          	ld	a2,-72(a2)
    80006f7c:	628c                	ld	a1,0(a3)
    80006f7e:	029404b3          	mul	s1,s0,s1
    80006f82:	02c585b3          	mul	a1,a1,a2
    80006f86:	00170633          	add	a2,a4,ra
    80006f8a:	963e                	add	a2,a2,a5
    80006f8c:	9626                	add	a2,a2,s1
    80006f8e:	00b600b3          	add	ra,a2,a1
    80006f92:	1501                	addi	a0,a0,-32
    80006f94:	02068693          	addi	a3,a3,32
    80006f98:	fb251ee3          	bne	a0,s2,80006f54 <main+0x4e00>
    80006f9c:	4d01                	li	s10,0
    80006f9e:	7542                	ld	a0,48(sp)
    80006fa0:	06153023          	sd	ra,96(a0)
    80006fa4:	0a0eb803          	ld	a6,160(t4)
    80006fa8:	f89a                	sd	t1,112(sp)
    80006faa:	fcf2                	sd	t3,120(sp)
    80006fac:	e17a                	sd	t5,128(sp)
    80006fae:	e51e                	sd	t2,136(sp)
    80006fb0:	e942                	sd	a6,144(sp)
    80006fb2:	ed62                	sd	s8,152(sp)
    80006fb4:	f15e                	sd	s7,160(sp)
    80006fb6:	f55a                	sd	s6,168(sp)
    80006fb8:	4515                	li	a0,5
    80006fba:	f92a                	sd	a0,176(sp)
    80006fbc:	7522                	ld	a0,40(sp)
    80006fbe:	fd2a                	sd	a0,184(sp)
    80006fc0:	7526                	ld	a0,104(sp)
    80006fc2:	e1aa                	sd	a0,192(sp)
    80006fc4:	7506                	ld	a0,96(sp)
    80006fc6:	e5aa                	sd	a0,200(sp)
    80006fc8:	6566                	ld	a0,88(sp)
    80006fca:	e9aa                	sd	a0,208(sp)
    80006fcc:	6546                	ld	a0,80(sp)
    80006fce:	edaa                	sd	a0,216(sp)
    80006fd0:	6526                	ld	a0,72(sp)
    80006fd2:	f1aa                	sd	a0,224(sp)
    80006fd4:	6506                	ld	a0,64(sp)
    80006fd6:	f5aa                	sd	a0,232(sp)
    80006fd8:	7562                	ld	a0,56(sp)
    80006fda:	f9aa                	sd	a0,240(sp)
    80006fdc:	04000593          	li	a1,64
    80006fe0:	86e6                	mv	a3,s9
    80006fe2:	00bc8633          	add	a2,s9,a1
    80006fe6:	f8863703          	ld	a4,-120(a2)
    80006fea:	fe86b783          	ld	a5,-24(a3)
    80006fee:	f9063403          	ld	s0,-112(a2)
    80006ff2:	ff06b483          	ld	s1,-16(a3)
    80006ff6:	02e78733          	mul	a4,a5,a4
    80006ffa:	028487b3          	mul	a5,s1,s0
    80006ffe:	f9863603          	ld	a2,-104(a2)
    80007002:	ff86b403          	ld	s0,-8(a3)
    80007006:	fa06b483          	ld	s1,-96(a3)
    8000700a:	6288                	ld	a0,0(a3)
    8000700c:	02c40633          	mul	a2,s0,a2
    80007010:	02950533          	mul	a0,a0,s1
    80007014:	976a                	add	a4,a4,s10
    80007016:	973e                	add	a4,a4,a5
    80007018:	963a                	add	a2,a2,a4
    8000701a:	00a60d33          	add	s10,a2,a0
    8000701e:	1581                	addi	a1,a1,-32
    80007020:	02068693          	addi	a3,a3,32
    80007024:	fddd                	bnez	a1,80006fe2 <main+0x4e8e>
    80007026:	4081                	li	ra,0
    80007028:	7542                	ld	a0,48(sp)
    8000702a:	07a53423          	sd	s10,104(a0)
    8000702e:	0a8ebc03          	ld	s8,168(t4)
    80007032:	f89a                	sd	t1,112(sp)
    80007034:	fcf2                	sd	t3,120(sp)
    80007036:	e17a                	sd	t5,128(sp)
    80007038:	e51e                	sd	t2,136(sp)
    8000703a:	e942                	sd	a6,144(sp)
    8000703c:	ed62                	sd	s8,152(sp)
    8000703e:	f15e                	sd	s7,160(sp)
    80007040:	f55a                	sd	s6,168(sp)
    80007042:	4519                	li	a0,6
    80007044:	f92a                	sd	a0,176(sp)
    80007046:	7522                	ld	a0,40(sp)
    80007048:	fd2a                	sd	a0,184(sp)
    8000704a:	7526                	ld	a0,104(sp)
    8000704c:	e1aa                	sd	a0,192(sp)
    8000704e:	7506                	ld	a0,96(sp)
    80007050:	e5aa                	sd	a0,200(sp)
    80007052:	6566                	ld	a0,88(sp)
    80007054:	e9aa                	sd	a0,208(sp)
    80007056:	6546                	ld	a0,80(sp)
    80007058:	edaa                	sd	a0,216(sp)
    8000705a:	6526                	ld	a0,72(sp)
    8000705c:	f1aa                	sd	a0,224(sp)
    8000705e:	6506                	ld	a0,64(sp)
    80007060:	f5aa                	sd	a0,232(sp)
    80007062:	7562                	ld	a0,56(sp)
    80007064:	f9aa                	sd	a0,240(sp)
    80007066:	04000513          	li	a0,64
    8000706a:	86e6                	mv	a3,s9
    8000706c:	00ac8633          	add	a2,s9,a0
    80007070:	f9063703          	ld	a4,-112(a2)
    80007074:	fe86b783          	ld	a5,-24(a3)
    80007078:	f9863603          	ld	a2,-104(a2)
    8000707c:	ff06b403          	ld	s0,-16(a3)
    80007080:	02e78733          	mul	a4,a5,a4
    80007084:	02c40633          	mul	a2,s0,a2
    80007088:	fa06b783          	ld	a5,-96(a3)
    8000708c:	ff86b403          	ld	s0,-8(a3)
    80007090:	fa86b483          	ld	s1,-88(a3)
    80007094:	628c                	ld	a1,0(a3)
    80007096:	02f407b3          	mul	a5,s0,a5
    8000709a:	029585b3          	mul	a1,a1,s1
    8000709e:	9706                	add	a4,a4,ra
    800070a0:	963a                	add	a2,a2,a4
    800070a2:	963e                	add	a2,a2,a5
    800070a4:	00b600b3          	add	ra,a2,a1
    800070a8:	1501                	addi	a0,a0,-32
    800070aa:	02068693          	addi	a3,a3,32
    800070ae:	fd5d                	bnez	a0,8000706c <main+0x4f18>
    800070b0:	4d01                	li	s10,0
    800070b2:	7542                	ld	a0,48(sp)
    800070b4:	06153823          	sd	ra,112(a0)
    800070b8:	0b0ebb83          	ld	s7,176(t4)
    800070bc:	f89a                	sd	t1,112(sp)
    800070be:	fcf2                	sd	t3,120(sp)
    800070c0:	e17a                	sd	t5,128(sp)
    800070c2:	e51e                	sd	t2,136(sp)
    800070c4:	e942                	sd	a6,144(sp)
    800070c6:	ed62                	sd	s8,152(sp)
    800070c8:	f15e                	sd	s7,160(sp)
    800070ca:	f55a                	sd	s6,168(sp)
    800070cc:	451d                	li	a0,7
    800070ce:	f92a                	sd	a0,176(sp)
    800070d0:	70a2                	ld	ra,40(sp)
    800070d2:	fd06                	sd	ra,184(sp)
    800070d4:	7526                	ld	a0,104(sp)
    800070d6:	e1aa                	sd	a0,192(sp)
    800070d8:	7506                	ld	a0,96(sp)
    800070da:	e5aa                	sd	a0,200(sp)
    800070dc:	6566                	ld	a0,88(sp)
    800070de:	e9aa                	sd	a0,208(sp)
    800070e0:	6546                	ld	a0,80(sp)
    800070e2:	edaa                	sd	a0,216(sp)
    800070e4:	6526                	ld	a0,72(sp)
    800070e6:	f1aa                	sd	a0,224(sp)
    800070e8:	6506                	ld	a0,64(sp)
    800070ea:	f5aa                	sd	a0,232(sp)
    800070ec:	7562                	ld	a0,56(sp)
    800070ee:	f9aa                	sd	a0,240(sp)
    800070f0:	03800593          	li	a1,56
    800070f4:	86e6                	mv	a3,s9
    800070f6:	00bc8633          	add	a2,s9,a1
    800070fa:	fa063603          	ld	a2,-96(a2)
    800070fe:	fe86b703          	ld	a4,-24(a3)
    80007102:	fa06b783          	ld	a5,-96(a3)
    80007106:	ff06b403          	ld	s0,-16(a3)
    8000710a:	02c70633          	mul	a2,a4,a2
    8000710e:	02f40733          	mul	a4,s0,a5
    80007112:	fa86b783          	ld	a5,-88(a3)
    80007116:	ff86b403          	ld	s0,-8(a3)
    8000711a:	fb06b483          	ld	s1,-80(a3)
    8000711e:	6288                	ld	a0,0(a3)
    80007120:	02f407b3          	mul	a5,s0,a5
    80007124:	02950533          	mul	a0,a0,s1
    80007128:	966a                	add	a2,a2,s10
    8000712a:	963a                	add	a2,a2,a4
    8000712c:	963e                	add	a2,a2,a5
    8000712e:	00a60d33          	add	s10,a2,a0
    80007132:	1581                	addi	a1,a1,-32
    80007134:	02068693          	addi	a3,a3,32
    80007138:	fb359fe3          	bne	a1,s3,800070f6 <main+0x4fa2>
    8000713c:	4681                	li	a3,0
    8000713e:	7542                	ld	a0,48(sp)
    80007140:	07a53c23          	sd	s10,120(a0)
    80007144:	0b8ebb03          	ld	s6,184(t4)
    80007148:	f89a                	sd	t1,112(sp)
    8000714a:	fcf2                	sd	t3,120(sp)
    8000714c:	e17a                	sd	t5,128(sp)
    8000714e:	e51e                	sd	t2,136(sp)
    80007150:	e942                	sd	a6,144(sp)
    80007152:	ed62                	sd	s8,152(sp)
    80007154:	f15e                	sd	s7,160(sp)
    80007156:	f55a                	sd	s6,168(sp)
    80007158:	f902                	sd	zero,176(sp)
    8000715a:	fd06                	sd	ra,184(sp)
    8000715c:	7526                	ld	a0,104(sp)
    8000715e:	e1aa                	sd	a0,192(sp)
    80007160:	7506                	ld	a0,96(sp)
    80007162:	e5aa                	sd	a0,200(sp)
    80007164:	6566                	ld	a0,88(sp)
    80007166:	e9aa                	sd	a0,208(sp)
    80007168:	6546                	ld	a0,80(sp)
    8000716a:	edaa                	sd	a0,216(sp)
    8000716c:	6526                	ld	a0,72(sp)
    8000716e:	f1aa                	sd	a0,224(sp)
    80007170:	6506                	ld	a0,64(sp)
    80007172:	f5aa                	sd	a0,232(sp)
    80007174:	7562                	ld	a0,56(sp)
    80007176:	f9aa                	sd	a0,240(sp)
    80007178:	fc000513          	li	a0,-64
    8000717c:	00a285b3          	add	a1,t0,a0
    80007180:	61b0                	ld	a2,64(a1)
    80007182:	65d8                	ld	a4,136(a1)
    80007184:	02c70633          	mul	a2,a4,a2
    80007188:	65b8                	ld	a4,72(a1)
    8000718a:	69dc                	ld	a5,144(a1)
    8000718c:	69a4                	ld	s1,80(a1)
    8000718e:	6dc0                	ld	s0,152(a1)
    80007190:	02e78733          	mul	a4,a5,a4
    80007194:	029407b3          	mul	a5,s0,s1
    80007198:	6da4                	ld	s1,88(a1)
    8000719a:	71cc                	ld	a1,160(a1)
    8000719c:	9636                	add	a2,a2,a3
    8000719e:	029585b3          	mul	a1,a1,s1
    800071a2:	963a                	add	a2,a2,a4
    800071a4:	963e                	add	a2,a2,a5
    800071a6:	02050513          	addi	a0,a0,32
    800071aa:	00b606b3          	add	a3,a2,a1
    800071ae:	f579                	bnez	a0,8000717c <main+0x5028>
    800071b0:	4581                	li	a1,0
    800071b2:	0c0eb303          	ld	t1,192(t4)
    800071b6:	7642                	ld	a2,48(sp)
    800071b8:	e254                	sd	a3,128(a2)
    800071ba:	f89a                	sd	t1,112(sp)
    800071bc:	fcf2                	sd	t3,120(sp)
    800071be:	e17a                	sd	t5,128(sp)
    800071c0:	e51e                	sd	t2,136(sp)
    800071c2:	e942                	sd	a6,144(sp)
    800071c4:	ed62                	sd	s8,152(sp)
    800071c6:	f15e                	sd	s7,160(sp)
    800071c8:	f55a                	sd	s6,168(sp)
    800071ca:	4605                	li	a2,1
    800071cc:	f932                	sd	a2,176(sp)
    800071ce:	fd06                	sd	ra,184(sp)
    800071d0:	7626                	ld	a2,104(sp)
    800071d2:	e1b2                	sd	a2,192(sp)
    800071d4:	7606                	ld	a2,96(sp)
    800071d6:	e5b2                	sd	a2,200(sp)
    800071d8:	6666                	ld	a2,88(sp)
    800071da:	e9b2                	sd	a2,208(sp)
    800071dc:	6646                	ld	a2,80(sp)
    800071de:	edb2                	sd	a2,216(sp)
    800071e0:	6626                	ld	a2,72(sp)
    800071e2:	f1b2                	sd	a2,224(sp)
    800071e4:	6606                	ld	a2,64(sp)
    800071e6:	f5b2                	sd	a2,232(sp)
    800071e8:	7662                	ld	a2,56(sp)
    800071ea:	f9b2                	sd	a2,240(sp)
    800071ec:	1934                	addi	a3,sp,184
    800071ee:	fc06b603          	ld	a2,-64(a3)
    800071f2:	6298                	ld	a4,0(a3)
    800071f4:	fc86b783          	ld	a5,-56(a3)
    800071f8:	6684                	ld	s1,8(a3)
    800071fa:	02c70e33          	mul	t3,a4,a2
    800071fe:	02f48733          	mul	a4,s1,a5
    80007202:	fd06b783          	ld	a5,-48(a3)
    80007206:	6a84                	ld	s1,16(a3)
    80007208:	00454413          	xori	s0,a0,4
    8000720c:	040e                	slli	s0,s0,0x3
    8000720e:	9416                	add	s0,s0,t0
    80007210:	6000                	ld	s0,0(s0)
    80007212:	6e90                	ld	a2,24(a3)
    80007214:	02f487b3          	mul	a5,s1,a5
    80007218:	02860633          	mul	a2,a2,s0
    8000721c:	95f2                	add	a1,a1,t3
    8000721e:	95ba                	add	a1,a1,a4
    80007220:	95be                	add	a1,a1,a5
    80007222:	95b2                	add	a1,a1,a2
    80007224:	0511                	addi	a0,a0,4
    80007226:	02068693          	addi	a3,a3,32
    8000722a:	fd4512e3          	bne	a0,s4,800071ee <main+0x509a>
    8000722e:	4681                	li	a3,0
    80007230:	4401                	li	s0,0
    80007232:	7542                	ld	a0,48(sp)
    80007234:	e54c                	sd	a1,136(a0)
    80007236:	0c8ebe03          	ld	t3,200(t4)
    8000723a:	f89a                	sd	t1,112(sp)
    8000723c:	fcf2                	sd	t3,120(sp)
    8000723e:	e17a                	sd	t5,128(sp)
    80007240:	e51e                	sd	t2,136(sp)
    80007242:	e942                	sd	a6,144(sp)
    80007244:	ed62                	sd	s8,152(sp)
    80007246:	f15e                	sd	s7,160(sp)
    80007248:	f55a                	sd	s6,168(sp)
    8000724a:	4509                	li	a0,2
    8000724c:	f92a                	sd	a0,176(sp)
    8000724e:	fd06                	sd	ra,184(sp)
    80007250:	7526                	ld	a0,104(sp)
    80007252:	e1aa                	sd	a0,192(sp)
    80007254:	7506                	ld	a0,96(sp)
    80007256:	e5aa                	sd	a0,200(sp)
    80007258:	6566                	ld	a0,88(sp)
    8000725a:	e9aa                	sd	a0,208(sp)
    8000725c:	6546                	ld	a0,80(sp)
    8000725e:	edaa                	sd	a0,216(sp)
    80007260:	6526                	ld	a0,72(sp)
    80007262:	f1aa                	sd	a0,224(sp)
    80007264:	6506                	ld	a0,64(sp)
    80007266:	f5aa                	sd	a0,232(sp)
    80007268:	7562                	ld	a0,56(sp)
    8000726a:	f9aa                	sd	a0,240(sp)
    8000726c:	02800513          	li	a0,40
    80007270:	192c                	addi	a1,sp,184
    80007272:	fc85b603          	ld	a2,-56(a1)
    80007276:	6198                	ld	a4,0(a1)
    80007278:	fd05b783          	ld	a5,-48(a1)
    8000727c:	6584                	ld	s1,8(a1)
    8000727e:	02c70f33          	mul	t5,a4,a2
    80007282:	02f48d33          	mul	s10,s1,a5
    80007286:	0046c793          	xori	a5,a3,4
    8000728a:	078e                	slli	a5,a5,0x3
    8000728c:	9796                	add	a5,a5,t0
    8000728e:	639c                	ld	a5,0(a5)
    80007290:	6984                	ld	s1,16(a1)
    80007292:	00ac8633          	add	a2,s9,a0
    80007296:	fa063603          	ld	a2,-96(a2)
    8000729a:	6d98                	ld	a4,24(a1)
    8000729c:	02f487b3          	mul	a5,s1,a5
    800072a0:	02c70633          	mul	a2,a4,a2
    800072a4:	008f0733          	add	a4,t5,s0
    800072a8:	976a                	add	a4,a4,s10
    800072aa:	973e                	add	a4,a4,a5
    800072ac:	00c70433          	add	s0,a4,a2
    800072b0:	0691                	addi	a3,a3,4
    800072b2:	1501                	addi	a0,a0,-32
    800072b4:	02058593          	addi	a1,a1,32
    800072b8:	fbb51de3          	bne	a0,s11,80007272 <main+0x511e>
    800072bc:	4681                	li	a3,0
    800072be:	4d01                	li	s10,0
    800072c0:	7542                	ld	a0,48(sp)
    800072c2:	e940                	sd	s0,144(a0)
    800072c4:	0d0ebf03          	ld	t5,208(t4)
    800072c8:	f89a                	sd	t1,112(sp)
    800072ca:	fcf2                	sd	t3,120(sp)
    800072cc:	e17a                	sd	t5,128(sp)
    800072ce:	e51e                	sd	t2,136(sp)
    800072d0:	e942                	sd	a6,144(sp)
    800072d2:	ed62                	sd	s8,152(sp)
    800072d4:	f15e                	sd	s7,160(sp)
    800072d6:	f55a                	sd	s6,168(sp)
    800072d8:	450d                	li	a0,3
    800072da:	f92a                	sd	a0,176(sp)
    800072dc:	fd06                	sd	ra,184(sp)
    800072de:	7526                	ld	a0,104(sp)
    800072e0:	e1aa                	sd	a0,192(sp)
    800072e2:	7506                	ld	a0,96(sp)
    800072e4:	e5aa                	sd	a0,200(sp)
    800072e6:	6566                	ld	a0,88(sp)
    800072e8:	e9aa                	sd	a0,208(sp)
    800072ea:	6546                	ld	a0,80(sp)
    800072ec:	edaa                	sd	a0,216(sp)
    800072ee:	6526                	ld	a0,72(sp)
    800072f0:	f1aa                	sd	a0,224(sp)
    800072f2:	6506                	ld	a0,64(sp)
    800072f4:	f5aa                	sd	a0,232(sp)
    800072f6:	7562                	ld	a0,56(sp)
    800072f8:	f9aa                	sd	a0,240(sp)
    800072fa:	02800593          	li	a1,40
    800072fe:	87e6                	mv	a5,s9
    80007300:	fb87b603          	ld	a2,-72(a5)
    80007304:	fe87b703          	ld	a4,-24(a5)
    80007308:	0046c493          	xori	s1,a3,4
    8000730c:	048e                	slli	s1,s1,0x3
    8000730e:	9496                	add	s1,s1,t0
    80007310:	6084                	ld	s1,0(s1)
    80007312:	ff07b403          	ld	s0,-16(a5)
    80007316:	02c703b3          	mul	t2,a4,a2
    8000731a:	02940733          	mul	a4,s0,s1
    8000731e:	00bc84b3          	add	s1,s9,a1
    80007322:	fa04b403          	ld	s0,-96(s1)
    80007326:	ff87b503          	ld	a0,-8(a5)
    8000732a:	fa84b483          	ld	s1,-88(s1)
    8000732e:	6390                	ld	a2,0(a5)
    80007330:	02850533          	mul	a0,a0,s0
    80007334:	02960633          	mul	a2,a2,s1
    80007338:	01a384b3          	add	s1,t2,s10
    8000733c:	9726                	add	a4,a4,s1
    8000733e:	953a                	add	a0,a0,a4
    80007340:	00c50d33          	add	s10,a0,a2
    80007344:	0691                	addi	a3,a3,4
    80007346:	1581                	addi	a1,a1,-32
    80007348:	02078793          	addi	a5,a5,32
    8000734c:	fbb59ae3          	bne	a1,s11,80007300 <main+0x51ac>
    80007350:	4081                	li	ra,0
    80007352:	7542                	ld	a0,48(sp)
    80007354:	09a53c23          	sd	s10,152(a0)
    80007358:	0d8eb383          	ld	t2,216(t4)
    8000735c:	f89a                	sd	t1,112(sp)
    8000735e:	fcf2                	sd	t3,120(sp)
    80007360:	e17a                	sd	t5,128(sp)
    80007362:	e51e                	sd	t2,136(sp)
    80007364:	e942                	sd	a6,144(sp)
    80007366:	ed62                	sd	s8,152(sp)
    80007368:	f15e                	sd	s7,160(sp)
    8000736a:	f55a                	sd	s6,168(sp)
    8000736c:	4511                	li	a0,4
    8000736e:	f92a                	sd	a0,176(sp)
    80007370:	7522                	ld	a0,40(sp)
    80007372:	fd2a                	sd	a0,184(sp)
    80007374:	7526                	ld	a0,104(sp)
    80007376:	e1aa                	sd	a0,192(sp)
    80007378:	7506                	ld	a0,96(sp)
    8000737a:	e5aa                	sd	a0,200(sp)
    8000737c:	6566                	ld	a0,88(sp)
    8000737e:	e9aa                	sd	a0,208(sp)
    80007380:	6546                	ld	a0,80(sp)
    80007382:	edaa                	sd	a0,216(sp)
    80007384:	6526                	ld	a0,72(sp)
    80007386:	f1aa                	sd	a0,224(sp)
    80007388:	6506                	ld	a0,64(sp)
    8000738a:	f5aa                	sd	a0,232(sp)
    8000738c:	7562                	ld	a0,56(sp)
    8000738e:	f9aa                	sd	a0,240(sp)
    80007390:	02000513          	li	a0,32
    80007394:	86e6                	mv	a3,s9
    80007396:	00ac8633          	add	a2,s9,a0
    8000739a:	fa063703          	ld	a4,-96(a2)
    8000739e:	fe86b783          	ld	a5,-24(a3)
    800073a2:	fa863483          	ld	s1,-88(a2)
    800073a6:	ff06b403          	ld	s0,-16(a3)
    800073aa:	02e78733          	mul	a4,a5,a4
    800073ae:	029407b3          	mul	a5,s0,s1
    800073b2:	fb063483          	ld	s1,-80(a2)
    800073b6:	ff86b403          	ld	s0,-8(a3)
    800073ba:	fb863603          	ld	a2,-72(a2)
    800073be:	628c                	ld	a1,0(a3)
    800073c0:	029404b3          	mul	s1,s0,s1
    800073c4:	02c585b3          	mul	a1,a1,a2
    800073c8:	00170633          	add	a2,a4,ra
    800073cc:	963e                	add	a2,a2,a5
    800073ce:	9626                	add	a2,a2,s1
    800073d0:	00b600b3          	add	ra,a2,a1
    800073d4:	1501                	addi	a0,a0,-32
    800073d6:	02068693          	addi	a3,a3,32
    800073da:	fb251ee3          	bne	a0,s2,80007396 <main+0x5242>
    800073de:	4d01                	li	s10,0
    800073e0:	7542                	ld	a0,48(sp)
    800073e2:	0a153023          	sd	ra,160(a0)
    800073e6:	0e0eb803          	ld	a6,224(t4)
    800073ea:	f89a                	sd	t1,112(sp)
    800073ec:	fcf2                	sd	t3,120(sp)
    800073ee:	e17a                	sd	t5,128(sp)
    800073f0:	e51e                	sd	t2,136(sp)
    800073f2:	e942                	sd	a6,144(sp)
    800073f4:	ed62                	sd	s8,152(sp)
    800073f6:	f15e                	sd	s7,160(sp)
    800073f8:	f55a                	sd	s6,168(sp)
    800073fa:	4515                	li	a0,5
    800073fc:	f92a                	sd	a0,176(sp)
    800073fe:	7522                	ld	a0,40(sp)
    80007400:	fd2a                	sd	a0,184(sp)
    80007402:	7526                	ld	a0,104(sp)
    80007404:	e1aa                	sd	a0,192(sp)
    80007406:	7506                	ld	a0,96(sp)
    80007408:	e5aa                	sd	a0,200(sp)
    8000740a:	6566                	ld	a0,88(sp)
    8000740c:	e9aa                	sd	a0,208(sp)
    8000740e:	6546                	ld	a0,80(sp)
    80007410:	edaa                	sd	a0,216(sp)
    80007412:	6526                	ld	a0,72(sp)
    80007414:	f1aa                	sd	a0,224(sp)
    80007416:	6506                	ld	a0,64(sp)
    80007418:	f5aa                	sd	a0,232(sp)
    8000741a:	7562                	ld	a0,56(sp)
    8000741c:	f9aa                	sd	a0,240(sp)
    8000741e:	04000593          	li	a1,64
    80007422:	86e6                	mv	a3,s9
    80007424:	00bc8633          	add	a2,s9,a1
    80007428:	f8863703          	ld	a4,-120(a2)
    8000742c:	fe86b783          	ld	a5,-24(a3)
    80007430:	f9063403          	ld	s0,-112(a2)
    80007434:	ff06b483          	ld	s1,-16(a3)
    80007438:	02e78733          	mul	a4,a5,a4
    8000743c:	028487b3          	mul	a5,s1,s0
    80007440:	f9863603          	ld	a2,-104(a2)
    80007444:	ff86b403          	ld	s0,-8(a3)
    80007448:	fa06b483          	ld	s1,-96(a3)
    8000744c:	6288                	ld	a0,0(a3)
    8000744e:	02c40633          	mul	a2,s0,a2
    80007452:	02950533          	mul	a0,a0,s1
    80007456:	976a                	add	a4,a4,s10
    80007458:	973e                	add	a4,a4,a5
    8000745a:	963a                	add	a2,a2,a4
    8000745c:	00a60d33          	add	s10,a2,a0
    80007460:	1581                	addi	a1,a1,-32
    80007462:	02068693          	addi	a3,a3,32
    80007466:	fddd                	bnez	a1,80007424 <main+0x52d0>
    80007468:	4081                	li	ra,0
    8000746a:	7542                	ld	a0,48(sp)
    8000746c:	0ba53423          	sd	s10,168(a0)
    80007470:	0e8ebc03          	ld	s8,232(t4)
    80007474:	f89a                	sd	t1,112(sp)
    80007476:	fcf2                	sd	t3,120(sp)
    80007478:	e17a                	sd	t5,128(sp)
    8000747a:	e51e                	sd	t2,136(sp)
    8000747c:	e942                	sd	a6,144(sp)
    8000747e:	ed62                	sd	s8,152(sp)
    80007480:	f15e                	sd	s7,160(sp)
    80007482:	f55a                	sd	s6,168(sp)
    80007484:	4519                	li	a0,6
    80007486:	f92a                	sd	a0,176(sp)
    80007488:	7522                	ld	a0,40(sp)
    8000748a:	fd2a                	sd	a0,184(sp)
    8000748c:	7526                	ld	a0,104(sp)
    8000748e:	e1aa                	sd	a0,192(sp)
    80007490:	7506                	ld	a0,96(sp)
    80007492:	e5aa                	sd	a0,200(sp)
    80007494:	6566                	ld	a0,88(sp)
    80007496:	e9aa                	sd	a0,208(sp)
    80007498:	6546                	ld	a0,80(sp)
    8000749a:	edaa                	sd	a0,216(sp)
    8000749c:	6526                	ld	a0,72(sp)
    8000749e:	f1aa                	sd	a0,224(sp)
    800074a0:	6506                	ld	a0,64(sp)
    800074a2:	f5aa                	sd	a0,232(sp)
    800074a4:	7562                	ld	a0,56(sp)
    800074a6:	f9aa                	sd	a0,240(sp)
    800074a8:	04000513          	li	a0,64
    800074ac:	86e6                	mv	a3,s9
    800074ae:	00ac8633          	add	a2,s9,a0
    800074b2:	f9063703          	ld	a4,-112(a2)
    800074b6:	fe86b783          	ld	a5,-24(a3)
    800074ba:	f9863603          	ld	a2,-104(a2)
    800074be:	ff06b403          	ld	s0,-16(a3)
    800074c2:	02e78733          	mul	a4,a5,a4
    800074c6:	02c40633          	mul	a2,s0,a2
    800074ca:	fa06b783          	ld	a5,-96(a3)
    800074ce:	ff86b403          	ld	s0,-8(a3)
    800074d2:	fa86b483          	ld	s1,-88(a3)
    800074d6:	628c                	ld	a1,0(a3)
    800074d8:	02f407b3          	mul	a5,s0,a5
    800074dc:	029585b3          	mul	a1,a1,s1
    800074e0:	9706                	add	a4,a4,ra
    800074e2:	963a                	add	a2,a2,a4
    800074e4:	963e                	add	a2,a2,a5
    800074e6:	00b600b3          	add	ra,a2,a1
    800074ea:	1501                	addi	a0,a0,-32
    800074ec:	02068693          	addi	a3,a3,32
    800074f0:	fd5d                	bnez	a0,800074ae <main+0x535a>
    800074f2:	4d01                	li	s10,0
    800074f4:	7542                	ld	a0,48(sp)
    800074f6:	0a153823          	sd	ra,176(a0)
    800074fa:	0f0ebb83          	ld	s7,240(t4)
    800074fe:	f89a                	sd	t1,112(sp)
    80007500:	fcf2                	sd	t3,120(sp)
    80007502:	e17a                	sd	t5,128(sp)
    80007504:	e51e                	sd	t2,136(sp)
    80007506:	e942                	sd	a6,144(sp)
    80007508:	ed62                	sd	s8,152(sp)
    8000750a:	f15e                	sd	s7,160(sp)
    8000750c:	f55a                	sd	s6,168(sp)
    8000750e:	451d                	li	a0,7
    80007510:	f92a                	sd	a0,176(sp)
    80007512:	70a2                	ld	ra,40(sp)
    80007514:	fd06                	sd	ra,184(sp)
    80007516:	7526                	ld	a0,104(sp)
    80007518:	e1aa                	sd	a0,192(sp)
    8000751a:	7506                	ld	a0,96(sp)
    8000751c:	e5aa                	sd	a0,200(sp)
    8000751e:	6566                	ld	a0,88(sp)
    80007520:	e9aa                	sd	a0,208(sp)
    80007522:	6546                	ld	a0,80(sp)
    80007524:	edaa                	sd	a0,216(sp)
    80007526:	6526                	ld	a0,72(sp)
    80007528:	f1aa                	sd	a0,224(sp)
    8000752a:	6506                	ld	a0,64(sp)
    8000752c:	f5aa                	sd	a0,232(sp)
    8000752e:	7562                	ld	a0,56(sp)
    80007530:	f9aa                	sd	a0,240(sp)
    80007532:	03800593          	li	a1,56
    80007536:	86e6                	mv	a3,s9
    80007538:	00bc8633          	add	a2,s9,a1
    8000753c:	fa063603          	ld	a2,-96(a2)
    80007540:	fe86b703          	ld	a4,-24(a3)
    80007544:	fa06b783          	ld	a5,-96(a3)
    80007548:	ff06b403          	ld	s0,-16(a3)
    8000754c:	02c70633          	mul	a2,a4,a2
    80007550:	02f40733          	mul	a4,s0,a5
    80007554:	fa86b783          	ld	a5,-88(a3)
    80007558:	ff86b403          	ld	s0,-8(a3)
    8000755c:	fb06b483          	ld	s1,-80(a3)
    80007560:	6288                	ld	a0,0(a3)
    80007562:	02f407b3          	mul	a5,s0,a5
    80007566:	02950533          	mul	a0,a0,s1
    8000756a:	966a                	add	a2,a2,s10
    8000756c:	963a                	add	a2,a2,a4
    8000756e:	963e                	add	a2,a2,a5
    80007570:	00a60d33          	add	s10,a2,a0
    80007574:	1581                	addi	a1,a1,-32
    80007576:	02068693          	addi	a3,a3,32
    8000757a:	fb359fe3          	bne	a1,s3,80007538 <main+0x53e4>
    8000757e:	4681                	li	a3,0
    80007580:	7542                	ld	a0,48(sp)
    80007582:	0ba53c23          	sd	s10,184(a0)
    80007586:	0f8ebb03          	ld	s6,248(t4)
    8000758a:	f89a                	sd	t1,112(sp)
    8000758c:	fcf2                	sd	t3,120(sp)
    8000758e:	e17a                	sd	t5,128(sp)
    80007590:	e51e                	sd	t2,136(sp)
    80007592:	e942                	sd	a6,144(sp)
    80007594:	ed62                	sd	s8,152(sp)
    80007596:	f15e                	sd	s7,160(sp)
    80007598:	f55a                	sd	s6,168(sp)
    8000759a:	f902                	sd	zero,176(sp)
    8000759c:	fd06                	sd	ra,184(sp)
    8000759e:	7526                	ld	a0,104(sp)
    800075a0:	e1aa                	sd	a0,192(sp)
    800075a2:	7506                	ld	a0,96(sp)
    800075a4:	e5aa                	sd	a0,200(sp)
    800075a6:	6566                	ld	a0,88(sp)
    800075a8:	e9aa                	sd	a0,208(sp)
    800075aa:	6546                	ld	a0,80(sp)
    800075ac:	edaa                	sd	a0,216(sp)
    800075ae:	6526                	ld	a0,72(sp)
    800075b0:	f1aa                	sd	a0,224(sp)
    800075b2:	6506                	ld	a0,64(sp)
    800075b4:	f5aa                	sd	a0,232(sp)
    800075b6:	7562                	ld	a0,56(sp)
    800075b8:	f9aa                	sd	a0,240(sp)
    800075ba:	fc000513          	li	a0,-64
    800075be:	00a285b3          	add	a1,t0,a0
    800075c2:	61b0                	ld	a2,64(a1)
    800075c4:	65d8                	ld	a4,136(a1)
    800075c6:	02c70633          	mul	a2,a4,a2
    800075ca:	65b8                	ld	a4,72(a1)
    800075cc:	69dc                	ld	a5,144(a1)
    800075ce:	69a4                	ld	s1,80(a1)
    800075d0:	6dc0                	ld	s0,152(a1)
    800075d2:	02e78733          	mul	a4,a5,a4
    800075d6:	029407b3          	mul	a5,s0,s1
    800075da:	6da4                	ld	s1,88(a1)
    800075dc:	71cc                	ld	a1,160(a1)
    800075de:	9636                	add	a2,a2,a3
    800075e0:	029585b3          	mul	a1,a1,s1
    800075e4:	963a                	add	a2,a2,a4
    800075e6:	963e                	add	a2,a2,a5
    800075e8:	02050513          	addi	a0,a0,32
    800075ec:	00b606b3          	add	a3,a2,a1
    800075f0:	f579                	bnez	a0,800075be <main+0x546a>
    800075f2:	4581                	li	a1,0
    800075f4:	100eb303          	ld	t1,256(t4)
    800075f8:	7642                	ld	a2,48(sp)
    800075fa:	e274                	sd	a3,192(a2)
    800075fc:	f89a                	sd	t1,112(sp)
    800075fe:	fcf2                	sd	t3,120(sp)
    80007600:	e17a                	sd	t5,128(sp)
    80007602:	e51e                	sd	t2,136(sp)
    80007604:	e942                	sd	a6,144(sp)
    80007606:	ed62                	sd	s8,152(sp)
    80007608:	f15e                	sd	s7,160(sp)
    8000760a:	f55a                	sd	s6,168(sp)
    8000760c:	4605                	li	a2,1
    8000760e:	f932                	sd	a2,176(sp)
    80007610:	fd06                	sd	ra,184(sp)
    80007612:	7626                	ld	a2,104(sp)
    80007614:	e1b2                	sd	a2,192(sp)
    80007616:	7606                	ld	a2,96(sp)
    80007618:	e5b2                	sd	a2,200(sp)
    8000761a:	6666                	ld	a2,88(sp)
    8000761c:	e9b2                	sd	a2,208(sp)
    8000761e:	6646                	ld	a2,80(sp)
    80007620:	edb2                	sd	a2,216(sp)
    80007622:	6626                	ld	a2,72(sp)
    80007624:	f1b2                	sd	a2,224(sp)
    80007626:	6606                	ld	a2,64(sp)
    80007628:	f5b2                	sd	a2,232(sp)
    8000762a:	7662                	ld	a2,56(sp)
    8000762c:	f9b2                	sd	a2,240(sp)
    8000762e:	1934                	addi	a3,sp,184
    80007630:	fc06b603          	ld	a2,-64(a3)
    80007634:	6298                	ld	a4,0(a3)
    80007636:	fc86b783          	ld	a5,-56(a3)
    8000763a:	6684                	ld	s1,8(a3)
    8000763c:	02c70e33          	mul	t3,a4,a2
    80007640:	02f48733          	mul	a4,s1,a5
    80007644:	fd06b783          	ld	a5,-48(a3)
    80007648:	6a84                	ld	s1,16(a3)
    8000764a:	00454413          	xori	s0,a0,4
    8000764e:	040e                	slli	s0,s0,0x3
    80007650:	9416                	add	s0,s0,t0
    80007652:	6000                	ld	s0,0(s0)
    80007654:	6e90                	ld	a2,24(a3)
    80007656:	02f487b3          	mul	a5,s1,a5
    8000765a:	02860633          	mul	a2,a2,s0
    8000765e:	95f2                	add	a1,a1,t3
    80007660:	95ba                	add	a1,a1,a4
    80007662:	95be                	add	a1,a1,a5
    80007664:	95b2                	add	a1,a1,a2
    80007666:	0511                	addi	a0,a0,4
    80007668:	02068693          	addi	a3,a3,32
    8000766c:	fd4512e3          	bne	a0,s4,80007630 <main+0x54dc>
    80007670:	4681                	li	a3,0
    80007672:	4401                	li	s0,0
    80007674:	7542                	ld	a0,48(sp)
    80007676:	e56c                	sd	a1,200(a0)
    80007678:	108ebe03          	ld	t3,264(t4)
    8000767c:	f89a                	sd	t1,112(sp)
    8000767e:	fcf2                	sd	t3,120(sp)
    80007680:	e17a                	sd	t5,128(sp)
    80007682:	e51e                	sd	t2,136(sp)
    80007684:	e942                	sd	a6,144(sp)
    80007686:	ed62                	sd	s8,152(sp)
    80007688:	f15e                	sd	s7,160(sp)
    8000768a:	f55a                	sd	s6,168(sp)
    8000768c:	4509                	li	a0,2
    8000768e:	f92a                	sd	a0,176(sp)
    80007690:	fd06                	sd	ra,184(sp)
    80007692:	7526                	ld	a0,104(sp)
    80007694:	e1aa                	sd	a0,192(sp)
    80007696:	7506                	ld	a0,96(sp)
    80007698:	e5aa                	sd	a0,200(sp)
    8000769a:	6566                	ld	a0,88(sp)
    8000769c:	e9aa                	sd	a0,208(sp)
    8000769e:	6546                	ld	a0,80(sp)
    800076a0:	edaa                	sd	a0,216(sp)
    800076a2:	6526                	ld	a0,72(sp)
    800076a4:	f1aa                	sd	a0,224(sp)
    800076a6:	6506                	ld	a0,64(sp)
    800076a8:	f5aa                	sd	a0,232(sp)
    800076aa:	7562                	ld	a0,56(sp)
    800076ac:	f9aa                	sd	a0,240(sp)
    800076ae:	02800513          	li	a0,40
    800076b2:	192c                	addi	a1,sp,184
    800076b4:	fc85b603          	ld	a2,-56(a1)
    800076b8:	6198                	ld	a4,0(a1)
    800076ba:	fd05b783          	ld	a5,-48(a1)
    800076be:	6584                	ld	s1,8(a1)
    800076c0:	02c70f33          	mul	t5,a4,a2
    800076c4:	02f48d33          	mul	s10,s1,a5
    800076c8:	0046c793          	xori	a5,a3,4
    800076cc:	078e                	slli	a5,a5,0x3
    800076ce:	9796                	add	a5,a5,t0
    800076d0:	639c                	ld	a5,0(a5)
    800076d2:	6984                	ld	s1,16(a1)
    800076d4:	00ac8633          	add	a2,s9,a0
    800076d8:	fa063603          	ld	a2,-96(a2)
    800076dc:	6d98                	ld	a4,24(a1)
    800076de:	02f487b3          	mul	a5,s1,a5
    800076e2:	02c70633          	mul	a2,a4,a2
    800076e6:	008f0733          	add	a4,t5,s0
    800076ea:	976a                	add	a4,a4,s10
    800076ec:	973e                	add	a4,a4,a5
    800076ee:	00c70433          	add	s0,a4,a2
    800076f2:	0691                	addi	a3,a3,4
    800076f4:	1501                	addi	a0,a0,-32
    800076f6:	02058593          	addi	a1,a1,32
    800076fa:	fbb51de3          	bne	a0,s11,800076b4 <main+0x5560>
    800076fe:	4681                	li	a3,0
    80007700:	4d01                	li	s10,0
    80007702:	7542                	ld	a0,48(sp)
    80007704:	e960                	sd	s0,208(a0)
    80007706:	110ebf03          	ld	t5,272(t4)
    8000770a:	f89a                	sd	t1,112(sp)
    8000770c:	fcf2                	sd	t3,120(sp)
    8000770e:	e17a                	sd	t5,128(sp)
    80007710:	e51e                	sd	t2,136(sp)
    80007712:	e942                	sd	a6,144(sp)
    80007714:	ed62                	sd	s8,152(sp)
    80007716:	f15e                	sd	s7,160(sp)
    80007718:	f55a                	sd	s6,168(sp)
    8000771a:	450d                	li	a0,3
    8000771c:	f92a                	sd	a0,176(sp)
    8000771e:	fd06                	sd	ra,184(sp)
    80007720:	7526                	ld	a0,104(sp)
    80007722:	e1aa                	sd	a0,192(sp)
    80007724:	7506                	ld	a0,96(sp)
    80007726:	e5aa                	sd	a0,200(sp)
    80007728:	6566                	ld	a0,88(sp)
    8000772a:	e9aa                	sd	a0,208(sp)
    8000772c:	6546                	ld	a0,80(sp)
    8000772e:	edaa                	sd	a0,216(sp)
    80007730:	6526                	ld	a0,72(sp)
    80007732:	f1aa                	sd	a0,224(sp)
    80007734:	6506                	ld	a0,64(sp)
    80007736:	f5aa                	sd	a0,232(sp)
    80007738:	7562                	ld	a0,56(sp)
    8000773a:	f9aa                	sd	a0,240(sp)
    8000773c:	02800593          	li	a1,40
    80007740:	87e6                	mv	a5,s9
    80007742:	fb87b603          	ld	a2,-72(a5)
    80007746:	fe87b703          	ld	a4,-24(a5)
    8000774a:	0046c493          	xori	s1,a3,4
    8000774e:	048e                	slli	s1,s1,0x3
    80007750:	9496                	add	s1,s1,t0
    80007752:	6084                	ld	s1,0(s1)
    80007754:	ff07b403          	ld	s0,-16(a5)
    80007758:	02c703b3          	mul	t2,a4,a2
    8000775c:	02940733          	mul	a4,s0,s1
    80007760:	00bc84b3          	add	s1,s9,a1
    80007764:	fa04b403          	ld	s0,-96(s1)
    80007768:	ff87b503          	ld	a0,-8(a5)
    8000776c:	fa84b483          	ld	s1,-88(s1)
    80007770:	6390                	ld	a2,0(a5)
    80007772:	02850533          	mul	a0,a0,s0
    80007776:	02960633          	mul	a2,a2,s1
    8000777a:	01a384b3          	add	s1,t2,s10
    8000777e:	9726                	add	a4,a4,s1
    80007780:	953a                	add	a0,a0,a4
    80007782:	00c50d33          	add	s10,a0,a2
    80007786:	0691                	addi	a3,a3,4
    80007788:	1581                	addi	a1,a1,-32
    8000778a:	02078793          	addi	a5,a5,32
    8000778e:	fbb59ae3          	bne	a1,s11,80007742 <main+0x55ee>
    80007792:	4081                	li	ra,0
    80007794:	7542                	ld	a0,48(sp)
    80007796:	0da53c23          	sd	s10,216(a0)
    8000779a:	118eb383          	ld	t2,280(t4)
    8000779e:	f89a                	sd	t1,112(sp)
    800077a0:	fcf2                	sd	t3,120(sp)
    800077a2:	e17a                	sd	t5,128(sp)
    800077a4:	e51e                	sd	t2,136(sp)
    800077a6:	e942                	sd	a6,144(sp)
    800077a8:	ed62                	sd	s8,152(sp)
    800077aa:	f15e                	sd	s7,160(sp)
    800077ac:	f55a                	sd	s6,168(sp)
    800077ae:	4511                	li	a0,4
    800077b0:	f92a                	sd	a0,176(sp)
    800077b2:	7522                	ld	a0,40(sp)
    800077b4:	fd2a                	sd	a0,184(sp)
    800077b6:	7526                	ld	a0,104(sp)
    800077b8:	e1aa                	sd	a0,192(sp)
    800077ba:	7506                	ld	a0,96(sp)
    800077bc:	e5aa                	sd	a0,200(sp)
    800077be:	6566                	ld	a0,88(sp)
    800077c0:	e9aa                	sd	a0,208(sp)
    800077c2:	6546                	ld	a0,80(sp)
    800077c4:	edaa                	sd	a0,216(sp)
    800077c6:	6526                	ld	a0,72(sp)
    800077c8:	f1aa                	sd	a0,224(sp)
    800077ca:	6506                	ld	a0,64(sp)
    800077cc:	f5aa                	sd	a0,232(sp)
    800077ce:	7562                	ld	a0,56(sp)
    800077d0:	f9aa                	sd	a0,240(sp)
    800077d2:	02000513          	li	a0,32
    800077d6:	86e6                	mv	a3,s9
    800077d8:	00ac8633          	add	a2,s9,a0
    800077dc:	fa063703          	ld	a4,-96(a2)
    800077e0:	fe86b783          	ld	a5,-24(a3)
    800077e4:	fa863483          	ld	s1,-88(a2)
    800077e8:	ff06b403          	ld	s0,-16(a3)
    800077ec:	02e78733          	mul	a4,a5,a4
    800077f0:	029407b3          	mul	a5,s0,s1
    800077f4:	fb063483          	ld	s1,-80(a2)
    800077f8:	ff86b403          	ld	s0,-8(a3)
    800077fc:	fb863603          	ld	a2,-72(a2)
    80007800:	628c                	ld	a1,0(a3)
    80007802:	029404b3          	mul	s1,s0,s1
    80007806:	02c585b3          	mul	a1,a1,a2
    8000780a:	00170633          	add	a2,a4,ra
    8000780e:	963e                	add	a2,a2,a5
    80007810:	9626                	add	a2,a2,s1
    80007812:	00b600b3          	add	ra,a2,a1
    80007816:	1501                	addi	a0,a0,-32
    80007818:	02068693          	addi	a3,a3,32
    8000781c:	fb251ee3          	bne	a0,s2,800077d8 <main+0x5684>
    80007820:	4d01                	li	s10,0
    80007822:	7542                	ld	a0,48(sp)
    80007824:	0e153023          	sd	ra,224(a0)
    80007828:	120eb803          	ld	a6,288(t4)
    8000782c:	f89a                	sd	t1,112(sp)
    8000782e:	fcf2                	sd	t3,120(sp)
    80007830:	e17a                	sd	t5,128(sp)
    80007832:	e51e                	sd	t2,136(sp)
    80007834:	e942                	sd	a6,144(sp)
    80007836:	ed62                	sd	s8,152(sp)
    80007838:	f15e                	sd	s7,160(sp)
    8000783a:	f55a                	sd	s6,168(sp)
    8000783c:	4515                	li	a0,5
    8000783e:	f92a                	sd	a0,176(sp)
    80007840:	7522                	ld	a0,40(sp)
    80007842:	fd2a                	sd	a0,184(sp)
    80007844:	7526                	ld	a0,104(sp)
    80007846:	e1aa                	sd	a0,192(sp)
    80007848:	7506                	ld	a0,96(sp)
    8000784a:	e5aa                	sd	a0,200(sp)
    8000784c:	6566                	ld	a0,88(sp)
    8000784e:	e9aa                	sd	a0,208(sp)
    80007850:	6546                	ld	a0,80(sp)
    80007852:	edaa                	sd	a0,216(sp)
    80007854:	6526                	ld	a0,72(sp)
    80007856:	f1aa                	sd	a0,224(sp)
    80007858:	6506                	ld	a0,64(sp)
    8000785a:	f5aa                	sd	a0,232(sp)
    8000785c:	7562                	ld	a0,56(sp)
    8000785e:	f9aa                	sd	a0,240(sp)
    80007860:	04000593          	li	a1,64
    80007864:	86e6                	mv	a3,s9
    80007866:	00bc8633          	add	a2,s9,a1
    8000786a:	f8863703          	ld	a4,-120(a2)
    8000786e:	fe86b783          	ld	a5,-24(a3)
    80007872:	f9063403          	ld	s0,-112(a2)
    80007876:	ff06b483          	ld	s1,-16(a3)
    8000787a:	02e78733          	mul	a4,a5,a4
    8000787e:	028487b3          	mul	a5,s1,s0
    80007882:	f9863603          	ld	a2,-104(a2)
    80007886:	ff86b403          	ld	s0,-8(a3)
    8000788a:	fa06b483          	ld	s1,-96(a3)
    8000788e:	6288                	ld	a0,0(a3)
    80007890:	02c40633          	mul	a2,s0,a2
    80007894:	02950533          	mul	a0,a0,s1
    80007898:	976a                	add	a4,a4,s10
    8000789a:	973e                	add	a4,a4,a5
    8000789c:	963a                	add	a2,a2,a4
    8000789e:	00a60d33          	add	s10,a2,a0
    800078a2:	1581                	addi	a1,a1,-32
    800078a4:	02068693          	addi	a3,a3,32
    800078a8:	fddd                	bnez	a1,80007866 <main+0x5712>
    800078aa:	4081                	li	ra,0
    800078ac:	7542                	ld	a0,48(sp)
    800078ae:	0fa53423          	sd	s10,232(a0)
    800078b2:	128ebc03          	ld	s8,296(t4)
    800078b6:	f89a                	sd	t1,112(sp)
    800078b8:	fcf2                	sd	t3,120(sp)
    800078ba:	e17a                	sd	t5,128(sp)
    800078bc:	e51e                	sd	t2,136(sp)
    800078be:	e942                	sd	a6,144(sp)
    800078c0:	ed62                	sd	s8,152(sp)
    800078c2:	f15e                	sd	s7,160(sp)
    800078c4:	f55a                	sd	s6,168(sp)
    800078c6:	4519                	li	a0,6
    800078c8:	f92a                	sd	a0,176(sp)
    800078ca:	7522                	ld	a0,40(sp)
    800078cc:	fd2a                	sd	a0,184(sp)
    800078ce:	7526                	ld	a0,104(sp)
    800078d0:	e1aa                	sd	a0,192(sp)
    800078d2:	7506                	ld	a0,96(sp)
    800078d4:	e5aa                	sd	a0,200(sp)
    800078d6:	6566                	ld	a0,88(sp)
    800078d8:	e9aa                	sd	a0,208(sp)
    800078da:	6546                	ld	a0,80(sp)
    800078dc:	edaa                	sd	a0,216(sp)
    800078de:	6526                	ld	a0,72(sp)
    800078e0:	f1aa                	sd	a0,224(sp)
    800078e2:	6506                	ld	a0,64(sp)
    800078e4:	f5aa                	sd	a0,232(sp)
    800078e6:	7562                	ld	a0,56(sp)
    800078e8:	f9aa                	sd	a0,240(sp)
    800078ea:	04000513          	li	a0,64
    800078ee:	86e6                	mv	a3,s9
    800078f0:	00ac8633          	add	a2,s9,a0
    800078f4:	f9063703          	ld	a4,-112(a2)
    800078f8:	fe86b783          	ld	a5,-24(a3)
    800078fc:	f9863603          	ld	a2,-104(a2)
    80007900:	ff06b403          	ld	s0,-16(a3)
    80007904:	02e78733          	mul	a4,a5,a4
    80007908:	02c40633          	mul	a2,s0,a2
    8000790c:	fa06b783          	ld	a5,-96(a3)
    80007910:	ff86b403          	ld	s0,-8(a3)
    80007914:	fa86b483          	ld	s1,-88(a3)
    80007918:	628c                	ld	a1,0(a3)
    8000791a:	02f407b3          	mul	a5,s0,a5
    8000791e:	029585b3          	mul	a1,a1,s1
    80007922:	9706                	add	a4,a4,ra
    80007924:	963a                	add	a2,a2,a4
    80007926:	963e                	add	a2,a2,a5
    80007928:	00b600b3          	add	ra,a2,a1
    8000792c:	1501                	addi	a0,a0,-32
    8000792e:	02068693          	addi	a3,a3,32
    80007932:	fd5d                	bnez	a0,800078f0 <main+0x579c>
    80007934:	4d01                	li	s10,0
    80007936:	7542                	ld	a0,48(sp)
    80007938:	0e153823          	sd	ra,240(a0)
    8000793c:	130ebb83          	ld	s7,304(t4)
    80007940:	f89a                	sd	t1,112(sp)
    80007942:	fcf2                	sd	t3,120(sp)
    80007944:	e17a                	sd	t5,128(sp)
    80007946:	e51e                	sd	t2,136(sp)
    80007948:	e942                	sd	a6,144(sp)
    8000794a:	ed62                	sd	s8,152(sp)
    8000794c:	f15e                	sd	s7,160(sp)
    8000794e:	f55a                	sd	s6,168(sp)
    80007950:	451d                	li	a0,7
    80007952:	f92a                	sd	a0,176(sp)
    80007954:	70a2                	ld	ra,40(sp)
    80007956:	fd06                	sd	ra,184(sp)
    80007958:	7526                	ld	a0,104(sp)
    8000795a:	e1aa                	sd	a0,192(sp)
    8000795c:	7506                	ld	a0,96(sp)
    8000795e:	e5aa                	sd	a0,200(sp)
    80007960:	6566                	ld	a0,88(sp)
    80007962:	e9aa                	sd	a0,208(sp)
    80007964:	6546                	ld	a0,80(sp)
    80007966:	edaa                	sd	a0,216(sp)
    80007968:	6526                	ld	a0,72(sp)
    8000796a:	f1aa                	sd	a0,224(sp)
    8000796c:	6506                	ld	a0,64(sp)
    8000796e:	f5aa                	sd	a0,232(sp)
    80007970:	7562                	ld	a0,56(sp)
    80007972:	f9aa                	sd	a0,240(sp)
    80007974:	03800593          	li	a1,56
    80007978:	86e6                	mv	a3,s9
    8000797a:	00bc8633          	add	a2,s9,a1
    8000797e:	fa063603          	ld	a2,-96(a2)
    80007982:	fe86b703          	ld	a4,-24(a3)
    80007986:	fa06b783          	ld	a5,-96(a3)
    8000798a:	ff06b403          	ld	s0,-16(a3)
    8000798e:	02c70633          	mul	a2,a4,a2
    80007992:	02f40733          	mul	a4,s0,a5
    80007996:	fa86b783          	ld	a5,-88(a3)
    8000799a:	ff86b403          	ld	s0,-8(a3)
    8000799e:	fb06b483          	ld	s1,-80(a3)
    800079a2:	6288                	ld	a0,0(a3)
    800079a4:	02f407b3          	mul	a5,s0,a5
    800079a8:	02950533          	mul	a0,a0,s1
    800079ac:	966a                	add	a2,a2,s10
    800079ae:	963a                	add	a2,a2,a4
    800079b0:	963e                	add	a2,a2,a5
    800079b2:	00a60d33          	add	s10,a2,a0
    800079b6:	1581                	addi	a1,a1,-32
    800079b8:	02068693          	addi	a3,a3,32
    800079bc:	fb359fe3          	bne	a1,s3,8000797a <main+0x5826>
    800079c0:	4681                	li	a3,0
    800079c2:	7542                	ld	a0,48(sp)
    800079c4:	0fa53c23          	sd	s10,248(a0)
    800079c8:	138ebb03          	ld	s6,312(t4)
    800079cc:	f89a                	sd	t1,112(sp)
    800079ce:	fcf2                	sd	t3,120(sp)
    800079d0:	e17a                	sd	t5,128(sp)
    800079d2:	e51e                	sd	t2,136(sp)
    800079d4:	e942                	sd	a6,144(sp)
    800079d6:	ed62                	sd	s8,152(sp)
    800079d8:	f15e                	sd	s7,160(sp)
    800079da:	f55a                	sd	s6,168(sp)
    800079dc:	f902                	sd	zero,176(sp)
    800079de:	fd06                	sd	ra,184(sp)
    800079e0:	7526                	ld	a0,104(sp)
    800079e2:	e1aa                	sd	a0,192(sp)
    800079e4:	7506                	ld	a0,96(sp)
    800079e6:	e5aa                	sd	a0,200(sp)
    800079e8:	6566                	ld	a0,88(sp)
    800079ea:	e9aa                	sd	a0,208(sp)
    800079ec:	6546                	ld	a0,80(sp)
    800079ee:	edaa                	sd	a0,216(sp)
    800079f0:	6526                	ld	a0,72(sp)
    800079f2:	f1aa                	sd	a0,224(sp)
    800079f4:	6506                	ld	a0,64(sp)
    800079f6:	f5aa                	sd	a0,232(sp)
    800079f8:	7562                	ld	a0,56(sp)
    800079fa:	f9aa                	sd	a0,240(sp)
    800079fc:	fc000513          	li	a0,-64
    80007a00:	00a285b3          	add	a1,t0,a0
    80007a04:	61b0                	ld	a2,64(a1)
    80007a06:	65d8                	ld	a4,136(a1)
    80007a08:	02c70633          	mul	a2,a4,a2
    80007a0c:	65b8                	ld	a4,72(a1)
    80007a0e:	69dc                	ld	a5,144(a1)
    80007a10:	69a4                	ld	s1,80(a1)
    80007a12:	6dc0                	ld	s0,152(a1)
    80007a14:	02e78733          	mul	a4,a5,a4
    80007a18:	029407b3          	mul	a5,s0,s1
    80007a1c:	6da4                	ld	s1,88(a1)
    80007a1e:	71cc                	ld	a1,160(a1)
    80007a20:	9636                	add	a2,a2,a3
    80007a22:	029585b3          	mul	a1,a1,s1
    80007a26:	963a                	add	a2,a2,a4
    80007a28:	963e                	add	a2,a2,a5
    80007a2a:	02050513          	addi	a0,a0,32
    80007a2e:	00b606b3          	add	a3,a2,a1
    80007a32:	f579                	bnez	a0,80007a00 <main+0x58ac>
    80007a34:	4581                	li	a1,0
    80007a36:	140eb303          	ld	t1,320(t4)
    80007a3a:	7642                	ld	a2,48(sp)
    80007a3c:	10d63023          	sd	a3,256(a2)
    80007a40:	f89a                	sd	t1,112(sp)
    80007a42:	fcf2                	sd	t3,120(sp)
    80007a44:	e17a                	sd	t5,128(sp)
    80007a46:	e51e                	sd	t2,136(sp)
    80007a48:	e942                	sd	a6,144(sp)
    80007a4a:	ed62                	sd	s8,152(sp)
    80007a4c:	f15e                	sd	s7,160(sp)
    80007a4e:	f55a                	sd	s6,168(sp)
    80007a50:	4605                	li	a2,1
    80007a52:	f932                	sd	a2,176(sp)
    80007a54:	fd06                	sd	ra,184(sp)
    80007a56:	7626                	ld	a2,104(sp)
    80007a58:	e1b2                	sd	a2,192(sp)
    80007a5a:	7606                	ld	a2,96(sp)
    80007a5c:	e5b2                	sd	a2,200(sp)
    80007a5e:	6666                	ld	a2,88(sp)
    80007a60:	e9b2                	sd	a2,208(sp)
    80007a62:	6646                	ld	a2,80(sp)
    80007a64:	edb2                	sd	a2,216(sp)
    80007a66:	6626                	ld	a2,72(sp)
    80007a68:	f1b2                	sd	a2,224(sp)
    80007a6a:	6606                	ld	a2,64(sp)
    80007a6c:	f5b2                	sd	a2,232(sp)
    80007a6e:	7662                	ld	a2,56(sp)
    80007a70:	f9b2                	sd	a2,240(sp)
    80007a72:	1934                	addi	a3,sp,184
    80007a74:	fc06b603          	ld	a2,-64(a3)
    80007a78:	6298                	ld	a4,0(a3)
    80007a7a:	fc86b783          	ld	a5,-56(a3)
    80007a7e:	6684                	ld	s1,8(a3)
    80007a80:	02c70e33          	mul	t3,a4,a2
    80007a84:	02f48733          	mul	a4,s1,a5
    80007a88:	fd06b783          	ld	a5,-48(a3)
    80007a8c:	6a84                	ld	s1,16(a3)
    80007a8e:	00454413          	xori	s0,a0,4
    80007a92:	040e                	slli	s0,s0,0x3
    80007a94:	9416                	add	s0,s0,t0
    80007a96:	6000                	ld	s0,0(s0)
    80007a98:	6e90                	ld	a2,24(a3)
    80007a9a:	02f487b3          	mul	a5,s1,a5
    80007a9e:	02860633          	mul	a2,a2,s0
    80007aa2:	95f2                	add	a1,a1,t3
    80007aa4:	95ba                	add	a1,a1,a4
    80007aa6:	95be                	add	a1,a1,a5
    80007aa8:	95b2                	add	a1,a1,a2
    80007aaa:	0511                	addi	a0,a0,4
    80007aac:	02068693          	addi	a3,a3,32
    80007ab0:	fd4512e3          	bne	a0,s4,80007a74 <main+0x5920>
    80007ab4:	4681                	li	a3,0
    80007ab6:	4401                	li	s0,0
    80007ab8:	7542                	ld	a0,48(sp)
    80007aba:	10b53423          	sd	a1,264(a0)
    80007abe:	148ebe03          	ld	t3,328(t4)
    80007ac2:	f89a                	sd	t1,112(sp)
    80007ac4:	fcf2                	sd	t3,120(sp)
    80007ac6:	e17a                	sd	t5,128(sp)
    80007ac8:	e51e                	sd	t2,136(sp)
    80007aca:	e942                	sd	a6,144(sp)
    80007acc:	ed62                	sd	s8,152(sp)
    80007ace:	f15e                	sd	s7,160(sp)
    80007ad0:	f55a                	sd	s6,168(sp)
    80007ad2:	4509                	li	a0,2
    80007ad4:	f92a                	sd	a0,176(sp)
    80007ad6:	fd06                	sd	ra,184(sp)
    80007ad8:	7526                	ld	a0,104(sp)
    80007ada:	e1aa                	sd	a0,192(sp)
    80007adc:	7506                	ld	a0,96(sp)
    80007ade:	e5aa                	sd	a0,200(sp)
    80007ae0:	6566                	ld	a0,88(sp)
    80007ae2:	e9aa                	sd	a0,208(sp)
    80007ae4:	6546                	ld	a0,80(sp)
    80007ae6:	edaa                	sd	a0,216(sp)
    80007ae8:	6526                	ld	a0,72(sp)
    80007aea:	f1aa                	sd	a0,224(sp)
    80007aec:	6506                	ld	a0,64(sp)
    80007aee:	f5aa                	sd	a0,232(sp)
    80007af0:	7562                	ld	a0,56(sp)
    80007af2:	f9aa                	sd	a0,240(sp)
    80007af4:	02800513          	li	a0,40
    80007af8:	192c                	addi	a1,sp,184
    80007afa:	fc85b603          	ld	a2,-56(a1)
    80007afe:	6198                	ld	a4,0(a1)
    80007b00:	fd05b783          	ld	a5,-48(a1)
    80007b04:	6584                	ld	s1,8(a1)
    80007b06:	02c70f33          	mul	t5,a4,a2
    80007b0a:	02f48d33          	mul	s10,s1,a5
    80007b0e:	0046c793          	xori	a5,a3,4
    80007b12:	078e                	slli	a5,a5,0x3
    80007b14:	9796                	add	a5,a5,t0
    80007b16:	639c                	ld	a5,0(a5)
    80007b18:	6984                	ld	s1,16(a1)
    80007b1a:	00ac8633          	add	a2,s9,a0
    80007b1e:	fa063603          	ld	a2,-96(a2)
    80007b22:	6d98                	ld	a4,24(a1)
    80007b24:	02f487b3          	mul	a5,s1,a5
    80007b28:	02c70633          	mul	a2,a4,a2
    80007b2c:	008f0733          	add	a4,t5,s0
    80007b30:	976a                	add	a4,a4,s10
    80007b32:	973e                	add	a4,a4,a5
    80007b34:	00c70433          	add	s0,a4,a2
    80007b38:	0691                	addi	a3,a3,4
    80007b3a:	1501                	addi	a0,a0,-32
    80007b3c:	02058593          	addi	a1,a1,32
    80007b40:	fbb51de3          	bne	a0,s11,80007afa <main+0x59a6>
    80007b44:	4681                	li	a3,0
    80007b46:	4d01                	li	s10,0
    80007b48:	7542                	ld	a0,48(sp)
    80007b4a:	10853823          	sd	s0,272(a0)
    80007b4e:	150ebf03          	ld	t5,336(t4)
    80007b52:	f89a                	sd	t1,112(sp)
    80007b54:	fcf2                	sd	t3,120(sp)
    80007b56:	e17a                	sd	t5,128(sp)
    80007b58:	e51e                	sd	t2,136(sp)
    80007b5a:	e942                	sd	a6,144(sp)
    80007b5c:	ed62                	sd	s8,152(sp)
    80007b5e:	f15e                	sd	s7,160(sp)
    80007b60:	f55a                	sd	s6,168(sp)
    80007b62:	450d                	li	a0,3
    80007b64:	f92a                	sd	a0,176(sp)
    80007b66:	fd06                	sd	ra,184(sp)
    80007b68:	7526                	ld	a0,104(sp)
    80007b6a:	e1aa                	sd	a0,192(sp)
    80007b6c:	7506                	ld	a0,96(sp)
    80007b6e:	e5aa                	sd	a0,200(sp)
    80007b70:	6566                	ld	a0,88(sp)
    80007b72:	e9aa                	sd	a0,208(sp)
    80007b74:	6546                	ld	a0,80(sp)
    80007b76:	edaa                	sd	a0,216(sp)
    80007b78:	6526                	ld	a0,72(sp)
    80007b7a:	f1aa                	sd	a0,224(sp)
    80007b7c:	6506                	ld	a0,64(sp)
    80007b7e:	f5aa                	sd	a0,232(sp)
    80007b80:	7562                	ld	a0,56(sp)
    80007b82:	f9aa                	sd	a0,240(sp)
    80007b84:	02800593          	li	a1,40
    80007b88:	87e6                	mv	a5,s9
    80007b8a:	fb87b603          	ld	a2,-72(a5)
    80007b8e:	fe87b703          	ld	a4,-24(a5)
    80007b92:	0046c493          	xori	s1,a3,4
    80007b96:	048e                	slli	s1,s1,0x3
    80007b98:	9496                	add	s1,s1,t0
    80007b9a:	6084                	ld	s1,0(s1)
    80007b9c:	ff07b403          	ld	s0,-16(a5)
    80007ba0:	02c703b3          	mul	t2,a4,a2
    80007ba4:	02940733          	mul	a4,s0,s1
    80007ba8:	00bc84b3          	add	s1,s9,a1
    80007bac:	fa04b403          	ld	s0,-96(s1)
    80007bb0:	ff87b503          	ld	a0,-8(a5)
    80007bb4:	fa84b483          	ld	s1,-88(s1)
    80007bb8:	6390                	ld	a2,0(a5)
    80007bba:	02850533          	mul	a0,a0,s0
    80007bbe:	02960633          	mul	a2,a2,s1
    80007bc2:	01a384b3          	add	s1,t2,s10
    80007bc6:	9726                	add	a4,a4,s1
    80007bc8:	953a                	add	a0,a0,a4
    80007bca:	00c50d33          	add	s10,a0,a2
    80007bce:	0691                	addi	a3,a3,4
    80007bd0:	1581                	addi	a1,a1,-32
    80007bd2:	02078793          	addi	a5,a5,32
    80007bd6:	fbb59ae3          	bne	a1,s11,80007b8a <main+0x5a36>
    80007bda:	4081                	li	ra,0
    80007bdc:	7542                	ld	a0,48(sp)
    80007bde:	11a53c23          	sd	s10,280(a0)
    80007be2:	158eb383          	ld	t2,344(t4)
    80007be6:	f89a                	sd	t1,112(sp)
    80007be8:	fcf2                	sd	t3,120(sp)
    80007bea:	e17a                	sd	t5,128(sp)
    80007bec:	e51e                	sd	t2,136(sp)
    80007bee:	e942                	sd	a6,144(sp)
    80007bf0:	ed62                	sd	s8,152(sp)
    80007bf2:	f15e                	sd	s7,160(sp)
    80007bf4:	f55a                	sd	s6,168(sp)
    80007bf6:	4511                	li	a0,4
    80007bf8:	f92a                	sd	a0,176(sp)
    80007bfa:	7522                	ld	a0,40(sp)
    80007bfc:	fd2a                	sd	a0,184(sp)
    80007bfe:	7526                	ld	a0,104(sp)
    80007c00:	e1aa                	sd	a0,192(sp)
    80007c02:	7506                	ld	a0,96(sp)
    80007c04:	e5aa                	sd	a0,200(sp)
    80007c06:	6566                	ld	a0,88(sp)
    80007c08:	e9aa                	sd	a0,208(sp)
    80007c0a:	6546                	ld	a0,80(sp)
    80007c0c:	edaa                	sd	a0,216(sp)
    80007c0e:	6526                	ld	a0,72(sp)
    80007c10:	f1aa                	sd	a0,224(sp)
    80007c12:	6506                	ld	a0,64(sp)
    80007c14:	f5aa                	sd	a0,232(sp)
    80007c16:	7562                	ld	a0,56(sp)
    80007c18:	f9aa                	sd	a0,240(sp)
    80007c1a:	02000513          	li	a0,32
    80007c1e:	86e6                	mv	a3,s9
    80007c20:	00ac8633          	add	a2,s9,a0
    80007c24:	fa063703          	ld	a4,-96(a2)
    80007c28:	fe86b783          	ld	a5,-24(a3)
    80007c2c:	fa863483          	ld	s1,-88(a2)
    80007c30:	ff06b403          	ld	s0,-16(a3)
    80007c34:	02e78733          	mul	a4,a5,a4
    80007c38:	029407b3          	mul	a5,s0,s1
    80007c3c:	fb063483          	ld	s1,-80(a2)
    80007c40:	ff86b403          	ld	s0,-8(a3)
    80007c44:	fb863603          	ld	a2,-72(a2)
    80007c48:	628c                	ld	a1,0(a3)
    80007c4a:	029404b3          	mul	s1,s0,s1
    80007c4e:	02c585b3          	mul	a1,a1,a2
    80007c52:	00170633          	add	a2,a4,ra
    80007c56:	963e                	add	a2,a2,a5
    80007c58:	9626                	add	a2,a2,s1
    80007c5a:	00b600b3          	add	ra,a2,a1
    80007c5e:	1501                	addi	a0,a0,-32
    80007c60:	02068693          	addi	a3,a3,32
    80007c64:	fb251ee3          	bne	a0,s2,80007c20 <main+0x5acc>
    80007c68:	4d01                	li	s10,0
    80007c6a:	7542                	ld	a0,48(sp)
    80007c6c:	12153023          	sd	ra,288(a0)
    80007c70:	160eb803          	ld	a6,352(t4)
    80007c74:	f89a                	sd	t1,112(sp)
    80007c76:	fcf2                	sd	t3,120(sp)
    80007c78:	e17a                	sd	t5,128(sp)
    80007c7a:	e51e                	sd	t2,136(sp)
    80007c7c:	e942                	sd	a6,144(sp)
    80007c7e:	ed62                	sd	s8,152(sp)
    80007c80:	f15e                	sd	s7,160(sp)
    80007c82:	f55a                	sd	s6,168(sp)
    80007c84:	4515                	li	a0,5
    80007c86:	f92a                	sd	a0,176(sp)
    80007c88:	7522                	ld	a0,40(sp)
    80007c8a:	fd2a                	sd	a0,184(sp)
    80007c8c:	7526                	ld	a0,104(sp)
    80007c8e:	e1aa                	sd	a0,192(sp)
    80007c90:	7506                	ld	a0,96(sp)
    80007c92:	e5aa                	sd	a0,200(sp)
    80007c94:	6566                	ld	a0,88(sp)
    80007c96:	e9aa                	sd	a0,208(sp)
    80007c98:	6546                	ld	a0,80(sp)
    80007c9a:	edaa                	sd	a0,216(sp)
    80007c9c:	6526                	ld	a0,72(sp)
    80007c9e:	f1aa                	sd	a0,224(sp)
    80007ca0:	6506                	ld	a0,64(sp)
    80007ca2:	f5aa                	sd	a0,232(sp)
    80007ca4:	7562                	ld	a0,56(sp)
    80007ca6:	f9aa                	sd	a0,240(sp)
    80007ca8:	04000593          	li	a1,64
    80007cac:	86e6                	mv	a3,s9
    80007cae:	00bc8633          	add	a2,s9,a1
    80007cb2:	f8863703          	ld	a4,-120(a2)
    80007cb6:	fe86b783          	ld	a5,-24(a3)
    80007cba:	f9063403          	ld	s0,-112(a2)
    80007cbe:	ff06b483          	ld	s1,-16(a3)
    80007cc2:	02e78733          	mul	a4,a5,a4
    80007cc6:	028487b3          	mul	a5,s1,s0
    80007cca:	f9863603          	ld	a2,-104(a2)
    80007cce:	ff86b403          	ld	s0,-8(a3)
    80007cd2:	fa06b483          	ld	s1,-96(a3)
    80007cd6:	6288                	ld	a0,0(a3)
    80007cd8:	02c40633          	mul	a2,s0,a2
    80007cdc:	02950533          	mul	a0,a0,s1
    80007ce0:	976a                	add	a4,a4,s10
    80007ce2:	973e                	add	a4,a4,a5
    80007ce4:	963a                	add	a2,a2,a4
    80007ce6:	00a60d33          	add	s10,a2,a0
    80007cea:	1581                	addi	a1,a1,-32
    80007cec:	02068693          	addi	a3,a3,32
    80007cf0:	fddd                	bnez	a1,80007cae <main+0x5b5a>
    80007cf2:	4081                	li	ra,0
    80007cf4:	7542                	ld	a0,48(sp)
    80007cf6:	13a53423          	sd	s10,296(a0)
    80007cfa:	168ebc03          	ld	s8,360(t4)
    80007cfe:	f89a                	sd	t1,112(sp)
    80007d00:	fcf2                	sd	t3,120(sp)
    80007d02:	e17a                	sd	t5,128(sp)
    80007d04:	e51e                	sd	t2,136(sp)
    80007d06:	e942                	sd	a6,144(sp)
    80007d08:	ed62                	sd	s8,152(sp)
    80007d0a:	f15e                	sd	s7,160(sp)
    80007d0c:	f55a                	sd	s6,168(sp)
    80007d0e:	4519                	li	a0,6
    80007d10:	f92a                	sd	a0,176(sp)
    80007d12:	7522                	ld	a0,40(sp)
    80007d14:	fd2a                	sd	a0,184(sp)
    80007d16:	7526                	ld	a0,104(sp)
    80007d18:	e1aa                	sd	a0,192(sp)
    80007d1a:	7506                	ld	a0,96(sp)
    80007d1c:	e5aa                	sd	a0,200(sp)
    80007d1e:	6566                	ld	a0,88(sp)
    80007d20:	e9aa                	sd	a0,208(sp)
    80007d22:	6546                	ld	a0,80(sp)
    80007d24:	edaa                	sd	a0,216(sp)
    80007d26:	6526                	ld	a0,72(sp)
    80007d28:	f1aa                	sd	a0,224(sp)
    80007d2a:	6506                	ld	a0,64(sp)
    80007d2c:	f5aa                	sd	a0,232(sp)
    80007d2e:	7562                	ld	a0,56(sp)
    80007d30:	f9aa                	sd	a0,240(sp)
    80007d32:	04000513          	li	a0,64
    80007d36:	86e6                	mv	a3,s9
    80007d38:	00ac8633          	add	a2,s9,a0
    80007d3c:	f9063703          	ld	a4,-112(a2)
    80007d40:	fe86b783          	ld	a5,-24(a3)
    80007d44:	f9863603          	ld	a2,-104(a2)
    80007d48:	ff06b403          	ld	s0,-16(a3)
    80007d4c:	02e78733          	mul	a4,a5,a4
    80007d50:	02c40633          	mul	a2,s0,a2
    80007d54:	fa06b783          	ld	a5,-96(a3)
    80007d58:	ff86b403          	ld	s0,-8(a3)
    80007d5c:	fa86b483          	ld	s1,-88(a3)
    80007d60:	628c                	ld	a1,0(a3)
    80007d62:	02f407b3          	mul	a5,s0,a5
    80007d66:	029585b3          	mul	a1,a1,s1
    80007d6a:	9706                	add	a4,a4,ra
    80007d6c:	963a                	add	a2,a2,a4
    80007d6e:	963e                	add	a2,a2,a5
    80007d70:	00b600b3          	add	ra,a2,a1
    80007d74:	1501                	addi	a0,a0,-32
    80007d76:	02068693          	addi	a3,a3,32
    80007d7a:	fd5d                	bnez	a0,80007d38 <main+0x5be4>
    80007d7c:	4d01                	li	s10,0
    80007d7e:	7542                	ld	a0,48(sp)
    80007d80:	12153823          	sd	ra,304(a0)
    80007d84:	170ebb83          	ld	s7,368(t4)
    80007d88:	f89a                	sd	t1,112(sp)
    80007d8a:	fcf2                	sd	t3,120(sp)
    80007d8c:	e17a                	sd	t5,128(sp)
    80007d8e:	e51e                	sd	t2,136(sp)
    80007d90:	e942                	sd	a6,144(sp)
    80007d92:	ed62                	sd	s8,152(sp)
    80007d94:	f15e                	sd	s7,160(sp)
    80007d96:	f55a                	sd	s6,168(sp)
    80007d98:	451d                	li	a0,7
    80007d9a:	f92a                	sd	a0,176(sp)
    80007d9c:	70a2                	ld	ra,40(sp)
    80007d9e:	fd06                	sd	ra,184(sp)
    80007da0:	7526                	ld	a0,104(sp)
    80007da2:	e1aa                	sd	a0,192(sp)
    80007da4:	7506                	ld	a0,96(sp)
    80007da6:	e5aa                	sd	a0,200(sp)
    80007da8:	6566                	ld	a0,88(sp)
    80007daa:	e9aa                	sd	a0,208(sp)
    80007dac:	6546                	ld	a0,80(sp)
    80007dae:	edaa                	sd	a0,216(sp)
    80007db0:	6526                	ld	a0,72(sp)
    80007db2:	f1aa                	sd	a0,224(sp)
    80007db4:	6506                	ld	a0,64(sp)
    80007db6:	f5aa                	sd	a0,232(sp)
    80007db8:	7562                	ld	a0,56(sp)
    80007dba:	f9aa                	sd	a0,240(sp)
    80007dbc:	03800593          	li	a1,56
    80007dc0:	86e6                	mv	a3,s9
    80007dc2:	00bc8633          	add	a2,s9,a1
    80007dc6:	fa063603          	ld	a2,-96(a2)
    80007dca:	fe86b703          	ld	a4,-24(a3)
    80007dce:	fa06b783          	ld	a5,-96(a3)
    80007dd2:	ff06b403          	ld	s0,-16(a3)
    80007dd6:	02c70633          	mul	a2,a4,a2
    80007dda:	02f40733          	mul	a4,s0,a5
    80007dde:	fa86b783          	ld	a5,-88(a3)
    80007de2:	ff86b403          	ld	s0,-8(a3)
    80007de6:	fb06b483          	ld	s1,-80(a3)
    80007dea:	6288                	ld	a0,0(a3)
    80007dec:	02f407b3          	mul	a5,s0,a5
    80007df0:	02950533          	mul	a0,a0,s1
    80007df4:	966a                	add	a2,a2,s10
    80007df6:	963a                	add	a2,a2,a4
    80007df8:	963e                	add	a2,a2,a5
    80007dfa:	00a60d33          	add	s10,a2,a0
    80007dfe:	1581                	addi	a1,a1,-32
    80007e00:	02068693          	addi	a3,a3,32
    80007e04:	fb359fe3          	bne	a1,s3,80007dc2 <main+0x5c6e>
    80007e08:	4681                	li	a3,0
    80007e0a:	7542                	ld	a0,48(sp)
    80007e0c:	13a53c23          	sd	s10,312(a0)
    80007e10:	178ebb03          	ld	s6,376(t4)
    80007e14:	f89a                	sd	t1,112(sp)
    80007e16:	fcf2                	sd	t3,120(sp)
    80007e18:	e17a                	sd	t5,128(sp)
    80007e1a:	e51e                	sd	t2,136(sp)
    80007e1c:	e942                	sd	a6,144(sp)
    80007e1e:	ed62                	sd	s8,152(sp)
    80007e20:	f15e                	sd	s7,160(sp)
    80007e22:	f55a                	sd	s6,168(sp)
    80007e24:	f902                	sd	zero,176(sp)
    80007e26:	fd06                	sd	ra,184(sp)
    80007e28:	7526                	ld	a0,104(sp)
    80007e2a:	e1aa                	sd	a0,192(sp)
    80007e2c:	7506                	ld	a0,96(sp)
    80007e2e:	e5aa                	sd	a0,200(sp)
    80007e30:	6566                	ld	a0,88(sp)
    80007e32:	e9aa                	sd	a0,208(sp)
    80007e34:	6546                	ld	a0,80(sp)
    80007e36:	edaa                	sd	a0,216(sp)
    80007e38:	6526                	ld	a0,72(sp)
    80007e3a:	f1aa                	sd	a0,224(sp)
    80007e3c:	6506                	ld	a0,64(sp)
    80007e3e:	f5aa                	sd	a0,232(sp)
    80007e40:	7562                	ld	a0,56(sp)
    80007e42:	f9aa                	sd	a0,240(sp)
    80007e44:	fc000513          	li	a0,-64
    80007e48:	00a285b3          	add	a1,t0,a0
    80007e4c:	61b0                	ld	a2,64(a1)
    80007e4e:	65d8                	ld	a4,136(a1)
    80007e50:	02c70633          	mul	a2,a4,a2
    80007e54:	65b8                	ld	a4,72(a1)
    80007e56:	69dc                	ld	a5,144(a1)
    80007e58:	69a4                	ld	s1,80(a1)
    80007e5a:	6dc0                	ld	s0,152(a1)
    80007e5c:	02e78733          	mul	a4,a5,a4
    80007e60:	029407b3          	mul	a5,s0,s1
    80007e64:	6da4                	ld	s1,88(a1)
    80007e66:	71cc                	ld	a1,160(a1)
    80007e68:	9636                	add	a2,a2,a3
    80007e6a:	029585b3          	mul	a1,a1,s1
    80007e6e:	963a                	add	a2,a2,a4
    80007e70:	963e                	add	a2,a2,a5
    80007e72:	02050513          	addi	a0,a0,32
    80007e76:	00b606b3          	add	a3,a2,a1
    80007e7a:	f579                	bnez	a0,80007e48 <main+0x5cf4>
    80007e7c:	4581                	li	a1,0
    80007e7e:	180eb303          	ld	t1,384(t4)
    80007e82:	7642                	ld	a2,48(sp)
    80007e84:	14d63023          	sd	a3,320(a2)
    80007e88:	f89a                	sd	t1,112(sp)
    80007e8a:	fcf2                	sd	t3,120(sp)
    80007e8c:	e17a                	sd	t5,128(sp)
    80007e8e:	e51e                	sd	t2,136(sp)
    80007e90:	e942                	sd	a6,144(sp)
    80007e92:	ed62                	sd	s8,152(sp)
    80007e94:	f15e                	sd	s7,160(sp)
    80007e96:	f55a                	sd	s6,168(sp)
    80007e98:	4605                	li	a2,1
    80007e9a:	f932                	sd	a2,176(sp)
    80007e9c:	fd06                	sd	ra,184(sp)
    80007e9e:	7626                	ld	a2,104(sp)
    80007ea0:	e1b2                	sd	a2,192(sp)
    80007ea2:	7606                	ld	a2,96(sp)
    80007ea4:	e5b2                	sd	a2,200(sp)
    80007ea6:	6666                	ld	a2,88(sp)
    80007ea8:	e9b2                	sd	a2,208(sp)
    80007eaa:	6646                	ld	a2,80(sp)
    80007eac:	edb2                	sd	a2,216(sp)
    80007eae:	6626                	ld	a2,72(sp)
    80007eb0:	f1b2                	sd	a2,224(sp)
    80007eb2:	6606                	ld	a2,64(sp)
    80007eb4:	f5b2                	sd	a2,232(sp)
    80007eb6:	7662                	ld	a2,56(sp)
    80007eb8:	f9b2                	sd	a2,240(sp)
    80007eba:	1934                	addi	a3,sp,184
    80007ebc:	fc06b603          	ld	a2,-64(a3)
    80007ec0:	6298                	ld	a4,0(a3)
    80007ec2:	fc86b783          	ld	a5,-56(a3)
    80007ec6:	6684                	ld	s1,8(a3)
    80007ec8:	02c70e33          	mul	t3,a4,a2
    80007ecc:	02f48733          	mul	a4,s1,a5
    80007ed0:	fd06b783          	ld	a5,-48(a3)
    80007ed4:	6a84                	ld	s1,16(a3)
    80007ed6:	00454413          	xori	s0,a0,4
    80007eda:	040e                	slli	s0,s0,0x3
    80007edc:	9416                	add	s0,s0,t0
    80007ede:	6000                	ld	s0,0(s0)
    80007ee0:	6e90                	ld	a2,24(a3)
    80007ee2:	02f487b3          	mul	a5,s1,a5
    80007ee6:	02860633          	mul	a2,a2,s0
    80007eea:	95f2                	add	a1,a1,t3
    80007eec:	95ba                	add	a1,a1,a4
    80007eee:	95be                	add	a1,a1,a5
    80007ef0:	95b2                	add	a1,a1,a2
    80007ef2:	0511                	addi	a0,a0,4
    80007ef4:	02068693          	addi	a3,a3,32
    80007ef8:	fd4512e3          	bne	a0,s4,80007ebc <main+0x5d68>
    80007efc:	4681                	li	a3,0
    80007efe:	4401                	li	s0,0
    80007f00:	7542                	ld	a0,48(sp)
    80007f02:	14b53423          	sd	a1,328(a0)
    80007f06:	188ebe03          	ld	t3,392(t4)
    80007f0a:	f89a                	sd	t1,112(sp)
    80007f0c:	fcf2                	sd	t3,120(sp)
    80007f0e:	e17a                	sd	t5,128(sp)
    80007f10:	e51e                	sd	t2,136(sp)
    80007f12:	e942                	sd	a6,144(sp)
    80007f14:	ed62                	sd	s8,152(sp)
    80007f16:	f15e                	sd	s7,160(sp)
    80007f18:	f55a                	sd	s6,168(sp)
    80007f1a:	4509                	li	a0,2
    80007f1c:	f92a                	sd	a0,176(sp)
    80007f1e:	fd06                	sd	ra,184(sp)
    80007f20:	7526                	ld	a0,104(sp)
    80007f22:	e1aa                	sd	a0,192(sp)
    80007f24:	7506                	ld	a0,96(sp)
    80007f26:	e5aa                	sd	a0,200(sp)
    80007f28:	6566                	ld	a0,88(sp)
    80007f2a:	e9aa                	sd	a0,208(sp)
    80007f2c:	6546                	ld	a0,80(sp)
    80007f2e:	edaa                	sd	a0,216(sp)
    80007f30:	6526                	ld	a0,72(sp)
    80007f32:	f1aa                	sd	a0,224(sp)
    80007f34:	6506                	ld	a0,64(sp)
    80007f36:	f5aa                	sd	a0,232(sp)
    80007f38:	7562                	ld	a0,56(sp)
    80007f3a:	f9aa                	sd	a0,240(sp)
    80007f3c:	02800513          	li	a0,40
    80007f40:	192c                	addi	a1,sp,184
    80007f42:	fc85b603          	ld	a2,-56(a1)
    80007f46:	6198                	ld	a4,0(a1)
    80007f48:	fd05b783          	ld	a5,-48(a1)
    80007f4c:	6584                	ld	s1,8(a1)
    80007f4e:	02c70f33          	mul	t5,a4,a2
    80007f52:	02f48d33          	mul	s10,s1,a5
    80007f56:	0046c793          	xori	a5,a3,4
    80007f5a:	078e                	slli	a5,a5,0x3
    80007f5c:	9796                	add	a5,a5,t0
    80007f5e:	639c                	ld	a5,0(a5)
    80007f60:	6984                	ld	s1,16(a1)
    80007f62:	00ac8633          	add	a2,s9,a0
    80007f66:	fa063603          	ld	a2,-96(a2)
    80007f6a:	6d98                	ld	a4,24(a1)
    80007f6c:	02f487b3          	mul	a5,s1,a5
    80007f70:	02c70633          	mul	a2,a4,a2
    80007f74:	008f0733          	add	a4,t5,s0
    80007f78:	976a                	add	a4,a4,s10
    80007f7a:	973e                	add	a4,a4,a5
    80007f7c:	00c70433          	add	s0,a4,a2
    80007f80:	0691                	addi	a3,a3,4
    80007f82:	1501                	addi	a0,a0,-32
    80007f84:	02058593          	addi	a1,a1,32
    80007f88:	fbb51de3          	bne	a0,s11,80007f42 <main+0x5dee>
    80007f8c:	4681                	li	a3,0
    80007f8e:	4d01                	li	s10,0
    80007f90:	7542                	ld	a0,48(sp)
    80007f92:	14853823          	sd	s0,336(a0)
    80007f96:	190ebf03          	ld	t5,400(t4)
    80007f9a:	f89a                	sd	t1,112(sp)
    80007f9c:	fcf2                	sd	t3,120(sp)
    80007f9e:	e17a                	sd	t5,128(sp)
    80007fa0:	e51e                	sd	t2,136(sp)
    80007fa2:	e942                	sd	a6,144(sp)
    80007fa4:	ed62                	sd	s8,152(sp)
    80007fa6:	f15e                	sd	s7,160(sp)
    80007fa8:	f55a                	sd	s6,168(sp)
    80007faa:	450d                	li	a0,3
    80007fac:	f92a                	sd	a0,176(sp)
    80007fae:	fd06                	sd	ra,184(sp)
    80007fb0:	7526                	ld	a0,104(sp)
    80007fb2:	e1aa                	sd	a0,192(sp)
    80007fb4:	7506                	ld	a0,96(sp)
    80007fb6:	e5aa                	sd	a0,200(sp)
    80007fb8:	6566                	ld	a0,88(sp)
    80007fba:	e9aa                	sd	a0,208(sp)
    80007fbc:	6546                	ld	a0,80(sp)
    80007fbe:	edaa                	sd	a0,216(sp)
    80007fc0:	6526                	ld	a0,72(sp)
    80007fc2:	f1aa                	sd	a0,224(sp)
    80007fc4:	6506                	ld	a0,64(sp)
    80007fc6:	f5aa                	sd	a0,232(sp)
    80007fc8:	7562                	ld	a0,56(sp)
    80007fca:	f9aa                	sd	a0,240(sp)
    80007fcc:	02800593          	li	a1,40
    80007fd0:	87e6                	mv	a5,s9
    80007fd2:	fb87b603          	ld	a2,-72(a5)
    80007fd6:	fe87b703          	ld	a4,-24(a5)
    80007fda:	0046c493          	xori	s1,a3,4
    80007fde:	048e                	slli	s1,s1,0x3
    80007fe0:	9496                	add	s1,s1,t0
    80007fe2:	6084                	ld	s1,0(s1)
    80007fe4:	ff07b403          	ld	s0,-16(a5)
    80007fe8:	02c703b3          	mul	t2,a4,a2
    80007fec:	02940733          	mul	a4,s0,s1
    80007ff0:	00bc84b3          	add	s1,s9,a1
    80007ff4:	fa04b403          	ld	s0,-96(s1)
    80007ff8:	ff87b503          	ld	a0,-8(a5)
    80007ffc:	fa84b483          	ld	s1,-88(s1)
    80008000:	6390                	ld	a2,0(a5)
    80008002:	02850533          	mul	a0,a0,s0
    80008006:	02960633          	mul	a2,a2,s1
    8000800a:	01a384b3          	add	s1,t2,s10
    8000800e:	9726                	add	a4,a4,s1
    80008010:	953a                	add	a0,a0,a4
    80008012:	00c50d33          	add	s10,a0,a2
    80008016:	0691                	addi	a3,a3,4
    80008018:	1581                	addi	a1,a1,-32
    8000801a:	02078793          	addi	a5,a5,32
    8000801e:	fbb59ae3          	bne	a1,s11,80007fd2 <main+0x5e7e>
    80008022:	4081                	li	ra,0
    80008024:	7542                	ld	a0,48(sp)
    80008026:	15a53c23          	sd	s10,344(a0)
    8000802a:	198eb383          	ld	t2,408(t4)
    8000802e:	f89a                	sd	t1,112(sp)
    80008030:	fcf2                	sd	t3,120(sp)
    80008032:	e17a                	sd	t5,128(sp)
    80008034:	e51e                	sd	t2,136(sp)
    80008036:	e942                	sd	a6,144(sp)
    80008038:	ed62                	sd	s8,152(sp)
    8000803a:	f15e                	sd	s7,160(sp)
    8000803c:	f55a                	sd	s6,168(sp)
    8000803e:	4511                	li	a0,4
    80008040:	f92a                	sd	a0,176(sp)
    80008042:	7522                	ld	a0,40(sp)
    80008044:	fd2a                	sd	a0,184(sp)
    80008046:	7526                	ld	a0,104(sp)
    80008048:	e1aa                	sd	a0,192(sp)
    8000804a:	7506                	ld	a0,96(sp)
    8000804c:	e5aa                	sd	a0,200(sp)
    8000804e:	6566                	ld	a0,88(sp)
    80008050:	e9aa                	sd	a0,208(sp)
    80008052:	6546                	ld	a0,80(sp)
    80008054:	edaa                	sd	a0,216(sp)
    80008056:	6526                	ld	a0,72(sp)
    80008058:	f1aa                	sd	a0,224(sp)
    8000805a:	6506                	ld	a0,64(sp)
    8000805c:	f5aa                	sd	a0,232(sp)
    8000805e:	7562                	ld	a0,56(sp)
    80008060:	f9aa                	sd	a0,240(sp)
    80008062:	02000513          	li	a0,32
    80008066:	86e6                	mv	a3,s9
    80008068:	00ac8633          	add	a2,s9,a0
    8000806c:	fa063703          	ld	a4,-96(a2)
    80008070:	fe86b783          	ld	a5,-24(a3)
    80008074:	fa863483          	ld	s1,-88(a2)
    80008078:	ff06b403          	ld	s0,-16(a3)
    8000807c:	02e78733          	mul	a4,a5,a4
    80008080:	029407b3          	mul	a5,s0,s1
    80008084:	fb063483          	ld	s1,-80(a2)
    80008088:	ff86b403          	ld	s0,-8(a3)
    8000808c:	fb863603          	ld	a2,-72(a2)
    80008090:	628c                	ld	a1,0(a3)
    80008092:	029404b3          	mul	s1,s0,s1
    80008096:	02c585b3          	mul	a1,a1,a2
    8000809a:	00170633          	add	a2,a4,ra
    8000809e:	963e                	add	a2,a2,a5
    800080a0:	9626                	add	a2,a2,s1
    800080a2:	00b600b3          	add	ra,a2,a1
    800080a6:	1501                	addi	a0,a0,-32
    800080a8:	02068693          	addi	a3,a3,32
    800080ac:	fb251ee3          	bne	a0,s2,80008068 <main+0x5f14>
    800080b0:	4d01                	li	s10,0
    800080b2:	7542                	ld	a0,48(sp)
    800080b4:	16153023          	sd	ra,352(a0)
    800080b8:	1a0eb803          	ld	a6,416(t4)
    800080bc:	f89a                	sd	t1,112(sp)
    800080be:	fcf2                	sd	t3,120(sp)
    800080c0:	e17a                	sd	t5,128(sp)
    800080c2:	e51e                	sd	t2,136(sp)
    800080c4:	e942                	sd	a6,144(sp)
    800080c6:	ed62                	sd	s8,152(sp)
    800080c8:	f15e                	sd	s7,160(sp)
    800080ca:	f55a                	sd	s6,168(sp)
    800080cc:	4515                	li	a0,5
    800080ce:	f92a                	sd	a0,176(sp)
    800080d0:	7522                	ld	a0,40(sp)
    800080d2:	fd2a                	sd	a0,184(sp)
    800080d4:	7526                	ld	a0,104(sp)
    800080d6:	e1aa                	sd	a0,192(sp)
    800080d8:	7506                	ld	a0,96(sp)
    800080da:	e5aa                	sd	a0,200(sp)
    800080dc:	6566                	ld	a0,88(sp)
    800080de:	e9aa                	sd	a0,208(sp)
    800080e0:	6546                	ld	a0,80(sp)
    800080e2:	edaa                	sd	a0,216(sp)
    800080e4:	6526                	ld	a0,72(sp)
    800080e6:	f1aa                	sd	a0,224(sp)
    800080e8:	6506                	ld	a0,64(sp)
    800080ea:	f5aa                	sd	a0,232(sp)
    800080ec:	7562                	ld	a0,56(sp)
    800080ee:	f9aa                	sd	a0,240(sp)
    800080f0:	04000593          	li	a1,64
    800080f4:	86e6                	mv	a3,s9
    800080f6:	00bc8633          	add	a2,s9,a1
    800080fa:	f8863703          	ld	a4,-120(a2)
    800080fe:	fe86b783          	ld	a5,-24(a3)
    80008102:	f9063403          	ld	s0,-112(a2)
    80008106:	ff06b483          	ld	s1,-16(a3)
    8000810a:	02e78733          	mul	a4,a5,a4
    8000810e:	028487b3          	mul	a5,s1,s0
    80008112:	f9863603          	ld	a2,-104(a2)
    80008116:	ff86b403          	ld	s0,-8(a3)
    8000811a:	fa06b483          	ld	s1,-96(a3)
    8000811e:	6288                	ld	a0,0(a3)
    80008120:	02c40633          	mul	a2,s0,a2
    80008124:	02950533          	mul	a0,a0,s1
    80008128:	976a                	add	a4,a4,s10
    8000812a:	973e                	add	a4,a4,a5
    8000812c:	963a                	add	a2,a2,a4
    8000812e:	00a60d33          	add	s10,a2,a0
    80008132:	1581                	addi	a1,a1,-32
    80008134:	02068693          	addi	a3,a3,32
    80008138:	fddd                	bnez	a1,800080f6 <main+0x5fa2>
    8000813a:	4081                	li	ra,0
    8000813c:	7542                	ld	a0,48(sp)
    8000813e:	17a53423          	sd	s10,360(a0)
    80008142:	1a8ebc03          	ld	s8,424(t4)
    80008146:	f89a                	sd	t1,112(sp)
    80008148:	fcf2                	sd	t3,120(sp)
    8000814a:	e17a                	sd	t5,128(sp)
    8000814c:	e51e                	sd	t2,136(sp)
    8000814e:	e942                	sd	a6,144(sp)
    80008150:	ed62                	sd	s8,152(sp)
    80008152:	f15e                	sd	s7,160(sp)
    80008154:	f55a                	sd	s6,168(sp)
    80008156:	4519                	li	a0,6
    80008158:	f92a                	sd	a0,176(sp)
    8000815a:	7522                	ld	a0,40(sp)
    8000815c:	fd2a                	sd	a0,184(sp)
    8000815e:	7526                	ld	a0,104(sp)
    80008160:	e1aa                	sd	a0,192(sp)
    80008162:	7506                	ld	a0,96(sp)
    80008164:	e5aa                	sd	a0,200(sp)
    80008166:	6566                	ld	a0,88(sp)
    80008168:	e9aa                	sd	a0,208(sp)
    8000816a:	6546                	ld	a0,80(sp)
    8000816c:	edaa                	sd	a0,216(sp)
    8000816e:	6526                	ld	a0,72(sp)
    80008170:	f1aa                	sd	a0,224(sp)
    80008172:	6506                	ld	a0,64(sp)
    80008174:	f5aa                	sd	a0,232(sp)
    80008176:	7562                	ld	a0,56(sp)
    80008178:	f9aa                	sd	a0,240(sp)
    8000817a:	04000513          	li	a0,64
    8000817e:	86e6                	mv	a3,s9
    80008180:	00ac8633          	add	a2,s9,a0
    80008184:	f9063703          	ld	a4,-112(a2)
    80008188:	fe86b783          	ld	a5,-24(a3)
    8000818c:	f9863603          	ld	a2,-104(a2)
    80008190:	ff06b403          	ld	s0,-16(a3)
    80008194:	02e78733          	mul	a4,a5,a4
    80008198:	02c40633          	mul	a2,s0,a2
    8000819c:	fa06b783          	ld	a5,-96(a3)
    800081a0:	ff86b403          	ld	s0,-8(a3)
    800081a4:	fa86b483          	ld	s1,-88(a3)
    800081a8:	628c                	ld	a1,0(a3)
    800081aa:	02f407b3          	mul	a5,s0,a5
    800081ae:	029585b3          	mul	a1,a1,s1
    800081b2:	9706                	add	a4,a4,ra
    800081b4:	963a                	add	a2,a2,a4
    800081b6:	963e                	add	a2,a2,a5
    800081b8:	00b600b3          	add	ra,a2,a1
    800081bc:	1501                	addi	a0,a0,-32
    800081be:	02068693          	addi	a3,a3,32
    800081c2:	fd5d                	bnez	a0,80008180 <main+0x602c>
    800081c4:	4d01                	li	s10,0
    800081c6:	7542                	ld	a0,48(sp)
    800081c8:	16153823          	sd	ra,368(a0)
    800081cc:	1b0ebb83          	ld	s7,432(t4)
    800081d0:	f89a                	sd	t1,112(sp)
    800081d2:	fcf2                	sd	t3,120(sp)
    800081d4:	e17a                	sd	t5,128(sp)
    800081d6:	e51e                	sd	t2,136(sp)
    800081d8:	e942                	sd	a6,144(sp)
    800081da:	ed62                	sd	s8,152(sp)
    800081dc:	f15e                	sd	s7,160(sp)
    800081de:	f55a                	sd	s6,168(sp)
    800081e0:	451d                	li	a0,7
    800081e2:	f92a                	sd	a0,176(sp)
    800081e4:	70a2                	ld	ra,40(sp)
    800081e6:	fd06                	sd	ra,184(sp)
    800081e8:	7526                	ld	a0,104(sp)
    800081ea:	e1aa                	sd	a0,192(sp)
    800081ec:	7506                	ld	a0,96(sp)
    800081ee:	e5aa                	sd	a0,200(sp)
    800081f0:	6566                	ld	a0,88(sp)
    800081f2:	e9aa                	sd	a0,208(sp)
    800081f4:	6546                	ld	a0,80(sp)
    800081f6:	edaa                	sd	a0,216(sp)
    800081f8:	6526                	ld	a0,72(sp)
    800081fa:	f1aa                	sd	a0,224(sp)
    800081fc:	6506                	ld	a0,64(sp)
    800081fe:	f5aa                	sd	a0,232(sp)
    80008200:	7562                	ld	a0,56(sp)
    80008202:	f9aa                	sd	a0,240(sp)
    80008204:	03800593          	li	a1,56
    80008208:	86e6                	mv	a3,s9
    8000820a:	00bc8633          	add	a2,s9,a1
    8000820e:	fa063603          	ld	a2,-96(a2)
    80008212:	fe86b703          	ld	a4,-24(a3)
    80008216:	fa06b783          	ld	a5,-96(a3)
    8000821a:	ff06b403          	ld	s0,-16(a3)
    8000821e:	02c70633          	mul	a2,a4,a2
    80008222:	02f40733          	mul	a4,s0,a5
    80008226:	fa86b783          	ld	a5,-88(a3)
    8000822a:	ff86b403          	ld	s0,-8(a3)
    8000822e:	fb06b483          	ld	s1,-80(a3)
    80008232:	6288                	ld	a0,0(a3)
    80008234:	02f407b3          	mul	a5,s0,a5
    80008238:	02950533          	mul	a0,a0,s1
    8000823c:	966a                	add	a2,a2,s10
    8000823e:	963a                	add	a2,a2,a4
    80008240:	963e                	add	a2,a2,a5
    80008242:	00a60d33          	add	s10,a2,a0
    80008246:	1581                	addi	a1,a1,-32
    80008248:	02068693          	addi	a3,a3,32
    8000824c:	fb359fe3          	bne	a1,s3,8000820a <main+0x60b6>
    80008250:	4681                	li	a3,0
    80008252:	7542                	ld	a0,48(sp)
    80008254:	17a53c23          	sd	s10,376(a0)
    80008258:	1b8ebb03          	ld	s6,440(t4)
    8000825c:	f89a                	sd	t1,112(sp)
    8000825e:	fcf2                	sd	t3,120(sp)
    80008260:	e17a                	sd	t5,128(sp)
    80008262:	e51e                	sd	t2,136(sp)
    80008264:	e942                	sd	a6,144(sp)
    80008266:	ed62                	sd	s8,152(sp)
    80008268:	f15e                	sd	s7,160(sp)
    8000826a:	f55a                	sd	s6,168(sp)
    8000826c:	f902                	sd	zero,176(sp)
    8000826e:	fd06                	sd	ra,184(sp)
    80008270:	7526                	ld	a0,104(sp)
    80008272:	e1aa                	sd	a0,192(sp)
    80008274:	7506                	ld	a0,96(sp)
    80008276:	e5aa                	sd	a0,200(sp)
    80008278:	6566                	ld	a0,88(sp)
    8000827a:	e9aa                	sd	a0,208(sp)
    8000827c:	6546                	ld	a0,80(sp)
    8000827e:	edaa                	sd	a0,216(sp)
    80008280:	6526                	ld	a0,72(sp)
    80008282:	f1aa                	sd	a0,224(sp)
    80008284:	6506                	ld	a0,64(sp)
    80008286:	f5aa                	sd	a0,232(sp)
    80008288:	7562                	ld	a0,56(sp)
    8000828a:	f9aa                	sd	a0,240(sp)
    8000828c:	fc000513          	li	a0,-64
    80008290:	00a285b3          	add	a1,t0,a0
    80008294:	61b0                	ld	a2,64(a1)
    80008296:	65d8                	ld	a4,136(a1)
    80008298:	02c70633          	mul	a2,a4,a2
    8000829c:	65b8                	ld	a4,72(a1)
    8000829e:	69dc                	ld	a5,144(a1)
    800082a0:	69a4                	ld	s1,80(a1)
    800082a2:	6dc0                	ld	s0,152(a1)
    800082a4:	02e78733          	mul	a4,a5,a4
    800082a8:	029407b3          	mul	a5,s0,s1
    800082ac:	6da4                	ld	s1,88(a1)
    800082ae:	71cc                	ld	a1,160(a1)
    800082b0:	9636                	add	a2,a2,a3
    800082b2:	029585b3          	mul	a1,a1,s1
    800082b6:	963a                	add	a2,a2,a4
    800082b8:	963e                	add	a2,a2,a5
    800082ba:	02050513          	addi	a0,a0,32
    800082be:	00b606b3          	add	a3,a2,a1
    800082c2:	f579                	bnez	a0,80008290 <main+0x613c>
    800082c4:	4581                	li	a1,0
    800082c6:	1c0eb303          	ld	t1,448(t4)
    800082ca:	7642                	ld	a2,48(sp)
    800082cc:	18d63023          	sd	a3,384(a2)
    800082d0:	f89a                	sd	t1,112(sp)
    800082d2:	fcf2                	sd	t3,120(sp)
    800082d4:	e17a                	sd	t5,128(sp)
    800082d6:	e51e                	sd	t2,136(sp)
    800082d8:	e942                	sd	a6,144(sp)
    800082da:	ed62                	sd	s8,152(sp)
    800082dc:	f15e                	sd	s7,160(sp)
    800082de:	f55a                	sd	s6,168(sp)
    800082e0:	4605                	li	a2,1
    800082e2:	f932                	sd	a2,176(sp)
    800082e4:	fd06                	sd	ra,184(sp)
    800082e6:	7626                	ld	a2,104(sp)
    800082e8:	e1b2                	sd	a2,192(sp)
    800082ea:	7606                	ld	a2,96(sp)
    800082ec:	e5b2                	sd	a2,200(sp)
    800082ee:	6666                	ld	a2,88(sp)
    800082f0:	e9b2                	sd	a2,208(sp)
    800082f2:	6646                	ld	a2,80(sp)
    800082f4:	edb2                	sd	a2,216(sp)
    800082f6:	6626                	ld	a2,72(sp)
    800082f8:	f1b2                	sd	a2,224(sp)
    800082fa:	6606                	ld	a2,64(sp)
    800082fc:	f5b2                	sd	a2,232(sp)
    800082fe:	7662                	ld	a2,56(sp)
    80008300:	f9b2                	sd	a2,240(sp)
    80008302:	1934                	addi	a3,sp,184
    80008304:	fc06b603          	ld	a2,-64(a3)
    80008308:	6298                	ld	a4,0(a3)
    8000830a:	fc86b783          	ld	a5,-56(a3)
    8000830e:	6684                	ld	s1,8(a3)
    80008310:	02c70e33          	mul	t3,a4,a2
    80008314:	02f48733          	mul	a4,s1,a5
    80008318:	fd06b783          	ld	a5,-48(a3)
    8000831c:	6a84                	ld	s1,16(a3)
    8000831e:	00454413          	xori	s0,a0,4
    80008322:	040e                	slli	s0,s0,0x3
    80008324:	9416                	add	s0,s0,t0
    80008326:	6000                	ld	s0,0(s0)
    80008328:	6e90                	ld	a2,24(a3)
    8000832a:	02f487b3          	mul	a5,s1,a5
    8000832e:	02860633          	mul	a2,a2,s0
    80008332:	95f2                	add	a1,a1,t3
    80008334:	95ba                	add	a1,a1,a4
    80008336:	95be                	add	a1,a1,a5
    80008338:	95b2                	add	a1,a1,a2
    8000833a:	0511                	addi	a0,a0,4
    8000833c:	02068693          	addi	a3,a3,32
    80008340:	fd4512e3          	bne	a0,s4,80008304 <main+0x61b0>
    80008344:	4681                	li	a3,0
    80008346:	4401                	li	s0,0
    80008348:	7542                	ld	a0,48(sp)
    8000834a:	18b53423          	sd	a1,392(a0)
    8000834e:	1c8ebe03          	ld	t3,456(t4)
    80008352:	f89a                	sd	t1,112(sp)
    80008354:	fcf2                	sd	t3,120(sp)
    80008356:	e17a                	sd	t5,128(sp)
    80008358:	e51e                	sd	t2,136(sp)
    8000835a:	e942                	sd	a6,144(sp)
    8000835c:	ed62                	sd	s8,152(sp)
    8000835e:	f15e                	sd	s7,160(sp)
    80008360:	f55a                	sd	s6,168(sp)
    80008362:	4509                	li	a0,2
    80008364:	f92a                	sd	a0,176(sp)
    80008366:	fd06                	sd	ra,184(sp)
    80008368:	7526                	ld	a0,104(sp)
    8000836a:	e1aa                	sd	a0,192(sp)
    8000836c:	7506                	ld	a0,96(sp)
    8000836e:	e5aa                	sd	a0,200(sp)
    80008370:	6566                	ld	a0,88(sp)
    80008372:	e9aa                	sd	a0,208(sp)
    80008374:	6546                	ld	a0,80(sp)
    80008376:	edaa                	sd	a0,216(sp)
    80008378:	6526                	ld	a0,72(sp)
    8000837a:	f1aa                	sd	a0,224(sp)
    8000837c:	6506                	ld	a0,64(sp)
    8000837e:	f5aa                	sd	a0,232(sp)
    80008380:	7562                	ld	a0,56(sp)
    80008382:	f9aa                	sd	a0,240(sp)
    80008384:	02800513          	li	a0,40
    80008388:	192c                	addi	a1,sp,184
    8000838a:	fc85b603          	ld	a2,-56(a1)
    8000838e:	6198                	ld	a4,0(a1)
    80008390:	fd05b783          	ld	a5,-48(a1)
    80008394:	6584                	ld	s1,8(a1)
    80008396:	02c70f33          	mul	t5,a4,a2
    8000839a:	02f48d33          	mul	s10,s1,a5
    8000839e:	0046c793          	xori	a5,a3,4
    800083a2:	078e                	slli	a5,a5,0x3
    800083a4:	9796                	add	a5,a5,t0
    800083a6:	639c                	ld	a5,0(a5)
    800083a8:	6984                	ld	s1,16(a1)
    800083aa:	00ac8633          	add	a2,s9,a0
    800083ae:	fa063603          	ld	a2,-96(a2)
    800083b2:	6d98                	ld	a4,24(a1)
    800083b4:	02f487b3          	mul	a5,s1,a5
    800083b8:	02c70633          	mul	a2,a4,a2
    800083bc:	008f0733          	add	a4,t5,s0
    800083c0:	976a                	add	a4,a4,s10
    800083c2:	973e                	add	a4,a4,a5
    800083c4:	00c70433          	add	s0,a4,a2
    800083c8:	0691                	addi	a3,a3,4
    800083ca:	1501                	addi	a0,a0,-32
    800083cc:	02058593          	addi	a1,a1,32
    800083d0:	fbb51de3          	bne	a0,s11,8000838a <main+0x6236>
    800083d4:	4681                	li	a3,0
    800083d6:	4d01                	li	s10,0
    800083d8:	7542                	ld	a0,48(sp)
    800083da:	18853823          	sd	s0,400(a0)
    800083de:	1d0ebf03          	ld	t5,464(t4)
    800083e2:	f89a                	sd	t1,112(sp)
    800083e4:	fcf2                	sd	t3,120(sp)
    800083e6:	e17a                	sd	t5,128(sp)
    800083e8:	e51e                	sd	t2,136(sp)
    800083ea:	e942                	sd	a6,144(sp)
    800083ec:	ed62                	sd	s8,152(sp)
    800083ee:	f15e                	sd	s7,160(sp)
    800083f0:	f55a                	sd	s6,168(sp)
    800083f2:	450d                	li	a0,3
    800083f4:	f92a                	sd	a0,176(sp)
    800083f6:	fd06                	sd	ra,184(sp)
    800083f8:	7526                	ld	a0,104(sp)
    800083fa:	e1aa                	sd	a0,192(sp)
    800083fc:	7506                	ld	a0,96(sp)
    800083fe:	e5aa                	sd	a0,200(sp)
    80008400:	6566                	ld	a0,88(sp)
    80008402:	e9aa                	sd	a0,208(sp)
    80008404:	6546                	ld	a0,80(sp)
    80008406:	edaa                	sd	a0,216(sp)
    80008408:	6526                	ld	a0,72(sp)
    8000840a:	f1aa                	sd	a0,224(sp)
    8000840c:	6506                	ld	a0,64(sp)
    8000840e:	f5aa                	sd	a0,232(sp)
    80008410:	7562                	ld	a0,56(sp)
    80008412:	f9aa                	sd	a0,240(sp)
    80008414:	02800593          	li	a1,40
    80008418:	87e6                	mv	a5,s9
    8000841a:	fb87b603          	ld	a2,-72(a5)
    8000841e:	fe87b703          	ld	a4,-24(a5)
    80008422:	0046c493          	xori	s1,a3,4
    80008426:	048e                	slli	s1,s1,0x3
    80008428:	9496                	add	s1,s1,t0
    8000842a:	6084                	ld	s1,0(s1)
    8000842c:	ff07b403          	ld	s0,-16(a5)
    80008430:	02c703b3          	mul	t2,a4,a2
    80008434:	02940733          	mul	a4,s0,s1
    80008438:	00bc84b3          	add	s1,s9,a1
    8000843c:	fa04b403          	ld	s0,-96(s1)
    80008440:	ff87b503          	ld	a0,-8(a5)
    80008444:	fa84b483          	ld	s1,-88(s1)
    80008448:	6390                	ld	a2,0(a5)
    8000844a:	02850533          	mul	a0,a0,s0
    8000844e:	02960633          	mul	a2,a2,s1
    80008452:	01a384b3          	add	s1,t2,s10
    80008456:	9726                	add	a4,a4,s1
    80008458:	953a                	add	a0,a0,a4
    8000845a:	00c50d33          	add	s10,a0,a2
    8000845e:	0691                	addi	a3,a3,4
    80008460:	1581                	addi	a1,a1,-32
    80008462:	02078793          	addi	a5,a5,32
    80008466:	fbb59ae3          	bne	a1,s11,8000841a <main+0x62c6>
    8000846a:	4081                	li	ra,0
    8000846c:	7542                	ld	a0,48(sp)
    8000846e:	19a53c23          	sd	s10,408(a0)
    80008472:	1d8eb383          	ld	t2,472(t4)
    80008476:	f89a                	sd	t1,112(sp)
    80008478:	fcf2                	sd	t3,120(sp)
    8000847a:	e17a                	sd	t5,128(sp)
    8000847c:	e51e                	sd	t2,136(sp)
    8000847e:	e942                	sd	a6,144(sp)
    80008480:	ed62                	sd	s8,152(sp)
    80008482:	f15e                	sd	s7,160(sp)
    80008484:	f55a                	sd	s6,168(sp)
    80008486:	4511                	li	a0,4
    80008488:	f92a                	sd	a0,176(sp)
    8000848a:	7522                	ld	a0,40(sp)
    8000848c:	fd2a                	sd	a0,184(sp)
    8000848e:	7526                	ld	a0,104(sp)
    80008490:	e1aa                	sd	a0,192(sp)
    80008492:	7506                	ld	a0,96(sp)
    80008494:	e5aa                	sd	a0,200(sp)
    80008496:	6566                	ld	a0,88(sp)
    80008498:	e9aa                	sd	a0,208(sp)
    8000849a:	6546                	ld	a0,80(sp)
    8000849c:	edaa                	sd	a0,216(sp)
    8000849e:	6526                	ld	a0,72(sp)
    800084a0:	f1aa                	sd	a0,224(sp)
    800084a2:	6506                	ld	a0,64(sp)
    800084a4:	f5aa                	sd	a0,232(sp)
    800084a6:	7562                	ld	a0,56(sp)
    800084a8:	f9aa                	sd	a0,240(sp)
    800084aa:	02000513          	li	a0,32
    800084ae:	86e6                	mv	a3,s9
    800084b0:	00ac8633          	add	a2,s9,a0
    800084b4:	fa063703          	ld	a4,-96(a2)
    800084b8:	fe86b783          	ld	a5,-24(a3)
    800084bc:	fa863483          	ld	s1,-88(a2)
    800084c0:	ff06b403          	ld	s0,-16(a3)
    800084c4:	02e78733          	mul	a4,a5,a4
    800084c8:	029407b3          	mul	a5,s0,s1
    800084cc:	fb063483          	ld	s1,-80(a2)
    800084d0:	ff86b403          	ld	s0,-8(a3)
    800084d4:	fb863603          	ld	a2,-72(a2)
    800084d8:	628c                	ld	a1,0(a3)
    800084da:	029404b3          	mul	s1,s0,s1
    800084de:	02c585b3          	mul	a1,a1,a2
    800084e2:	00170633          	add	a2,a4,ra
    800084e6:	963e                	add	a2,a2,a5
    800084e8:	9626                	add	a2,a2,s1
    800084ea:	00b600b3          	add	ra,a2,a1
    800084ee:	1501                	addi	a0,a0,-32
    800084f0:	02068693          	addi	a3,a3,32
    800084f4:	fb251ee3          	bne	a0,s2,800084b0 <main+0x635c>
    800084f8:	4d01                	li	s10,0
    800084fa:	7542                	ld	a0,48(sp)
    800084fc:	1a153023          	sd	ra,416(a0)
    80008500:	1e0eb803          	ld	a6,480(t4)
    80008504:	f89a                	sd	t1,112(sp)
    80008506:	fcf2                	sd	t3,120(sp)
    80008508:	e17a                	sd	t5,128(sp)
    8000850a:	e51e                	sd	t2,136(sp)
    8000850c:	e942                	sd	a6,144(sp)
    8000850e:	ed62                	sd	s8,152(sp)
    80008510:	f15e                	sd	s7,160(sp)
    80008512:	f55a                	sd	s6,168(sp)
    80008514:	4515                	li	a0,5
    80008516:	f92a                	sd	a0,176(sp)
    80008518:	7522                	ld	a0,40(sp)
    8000851a:	fd2a                	sd	a0,184(sp)
    8000851c:	7526                	ld	a0,104(sp)
    8000851e:	e1aa                	sd	a0,192(sp)
    80008520:	7506                	ld	a0,96(sp)
    80008522:	e5aa                	sd	a0,200(sp)
    80008524:	6566                	ld	a0,88(sp)
    80008526:	e9aa                	sd	a0,208(sp)
    80008528:	6546                	ld	a0,80(sp)
    8000852a:	edaa                	sd	a0,216(sp)
    8000852c:	6526                	ld	a0,72(sp)
    8000852e:	f1aa                	sd	a0,224(sp)
    80008530:	6506                	ld	a0,64(sp)
    80008532:	f5aa                	sd	a0,232(sp)
    80008534:	7562                	ld	a0,56(sp)
    80008536:	f9aa                	sd	a0,240(sp)
    80008538:	04000593          	li	a1,64
    8000853c:	86e6                	mv	a3,s9
    8000853e:	00bc8633          	add	a2,s9,a1
    80008542:	f8863703          	ld	a4,-120(a2)
    80008546:	fe86b783          	ld	a5,-24(a3)
    8000854a:	f9063403          	ld	s0,-112(a2)
    8000854e:	ff06b483          	ld	s1,-16(a3)
    80008552:	02e78733          	mul	a4,a5,a4
    80008556:	028487b3          	mul	a5,s1,s0
    8000855a:	f9863603          	ld	a2,-104(a2)
    8000855e:	ff86b403          	ld	s0,-8(a3)
    80008562:	fa06b483          	ld	s1,-96(a3)
    80008566:	6288                	ld	a0,0(a3)
    80008568:	02c40633          	mul	a2,s0,a2
    8000856c:	02950533          	mul	a0,a0,s1
    80008570:	976a                	add	a4,a4,s10
    80008572:	973e                	add	a4,a4,a5
    80008574:	963a                	add	a2,a2,a4
    80008576:	00a60d33          	add	s10,a2,a0
    8000857a:	1581                	addi	a1,a1,-32
    8000857c:	02068693          	addi	a3,a3,32
    80008580:	fddd                	bnez	a1,8000853e <main+0x63ea>
    80008582:	4081                	li	ra,0
    80008584:	7542                	ld	a0,48(sp)
    80008586:	1ba53423          	sd	s10,424(a0)
    8000858a:	1e8ebc03          	ld	s8,488(t4)
    8000858e:	f89a                	sd	t1,112(sp)
    80008590:	fcf2                	sd	t3,120(sp)
    80008592:	e17a                	sd	t5,128(sp)
    80008594:	e51e                	sd	t2,136(sp)
    80008596:	e942                	sd	a6,144(sp)
    80008598:	ed62                	sd	s8,152(sp)
    8000859a:	f15e                	sd	s7,160(sp)
    8000859c:	f55a                	sd	s6,168(sp)
    8000859e:	4519                	li	a0,6
    800085a0:	f92a                	sd	a0,176(sp)
    800085a2:	7522                	ld	a0,40(sp)
    800085a4:	fd2a                	sd	a0,184(sp)
    800085a6:	7526                	ld	a0,104(sp)
    800085a8:	e1aa                	sd	a0,192(sp)
    800085aa:	7506                	ld	a0,96(sp)
    800085ac:	e5aa                	sd	a0,200(sp)
    800085ae:	6566                	ld	a0,88(sp)
    800085b0:	e9aa                	sd	a0,208(sp)
    800085b2:	6546                	ld	a0,80(sp)
    800085b4:	edaa                	sd	a0,216(sp)
    800085b6:	6526                	ld	a0,72(sp)
    800085b8:	f1aa                	sd	a0,224(sp)
    800085ba:	6506                	ld	a0,64(sp)
    800085bc:	f5aa                	sd	a0,232(sp)
    800085be:	7562                	ld	a0,56(sp)
    800085c0:	f9aa                	sd	a0,240(sp)
    800085c2:	04000513          	li	a0,64
    800085c6:	86e6                	mv	a3,s9
    800085c8:	00ac8633          	add	a2,s9,a0
    800085cc:	f9063703          	ld	a4,-112(a2)
    800085d0:	fe86b783          	ld	a5,-24(a3)
    800085d4:	f9863603          	ld	a2,-104(a2)
    800085d8:	ff06b403          	ld	s0,-16(a3)
    800085dc:	02e78733          	mul	a4,a5,a4
    800085e0:	02c40633          	mul	a2,s0,a2
    800085e4:	fa06b783          	ld	a5,-96(a3)
    800085e8:	ff86b403          	ld	s0,-8(a3)
    800085ec:	fa86b483          	ld	s1,-88(a3)
    800085f0:	628c                	ld	a1,0(a3)
    800085f2:	02f407b3          	mul	a5,s0,a5
    800085f6:	029585b3          	mul	a1,a1,s1
    800085fa:	9706                	add	a4,a4,ra
    800085fc:	963a                	add	a2,a2,a4
    800085fe:	963e                	add	a2,a2,a5
    80008600:	00b600b3          	add	ra,a2,a1
    80008604:	1501                	addi	a0,a0,-32
    80008606:	02068693          	addi	a3,a3,32
    8000860a:	fd5d                	bnez	a0,800085c8 <main+0x6474>
    8000860c:	4d01                	li	s10,0
    8000860e:	7542                	ld	a0,48(sp)
    80008610:	1a153823          	sd	ra,432(a0)
    80008614:	1f0ebb83          	ld	s7,496(t4)
    80008618:	f89a                	sd	t1,112(sp)
    8000861a:	fcf2                	sd	t3,120(sp)
    8000861c:	e17a                	sd	t5,128(sp)
    8000861e:	e51e                	sd	t2,136(sp)
    80008620:	e942                	sd	a6,144(sp)
    80008622:	ed62                	sd	s8,152(sp)
    80008624:	f15e                	sd	s7,160(sp)
    80008626:	f55a                	sd	s6,168(sp)
    80008628:	451d                	li	a0,7
    8000862a:	f92a                	sd	a0,176(sp)
    8000862c:	70a2                	ld	ra,40(sp)
    8000862e:	fd06                	sd	ra,184(sp)
    80008630:	7526                	ld	a0,104(sp)
    80008632:	e1aa                	sd	a0,192(sp)
    80008634:	7506                	ld	a0,96(sp)
    80008636:	e5aa                	sd	a0,200(sp)
    80008638:	6566                	ld	a0,88(sp)
    8000863a:	e9aa                	sd	a0,208(sp)
    8000863c:	6546                	ld	a0,80(sp)
    8000863e:	edaa                	sd	a0,216(sp)
    80008640:	6526                	ld	a0,72(sp)
    80008642:	f1aa                	sd	a0,224(sp)
    80008644:	6506                	ld	a0,64(sp)
    80008646:	f5aa                	sd	a0,232(sp)
    80008648:	7562                	ld	a0,56(sp)
    8000864a:	f9aa                	sd	a0,240(sp)
    8000864c:	03800593          	li	a1,56
    80008650:	86e6                	mv	a3,s9
    80008652:	00bc8633          	add	a2,s9,a1
    80008656:	fa063603          	ld	a2,-96(a2)
    8000865a:	fe86b703          	ld	a4,-24(a3)
    8000865e:	fa06b783          	ld	a5,-96(a3)
    80008662:	ff06b403          	ld	s0,-16(a3)
    80008666:	02c70633          	mul	a2,a4,a2
    8000866a:	02f40733          	mul	a4,s0,a5
    8000866e:	fa86b783          	ld	a5,-88(a3)
    80008672:	ff86b403          	ld	s0,-8(a3)
    80008676:	fb06b483          	ld	s1,-80(a3)
    8000867a:	6288                	ld	a0,0(a3)
    8000867c:	02f407b3          	mul	a5,s0,a5
    80008680:	02950533          	mul	a0,a0,s1
    80008684:	966a                	add	a2,a2,s10
    80008686:	963a                	add	a2,a2,a4
    80008688:	963e                	add	a2,a2,a5
    8000868a:	00a60d33          	add	s10,a2,a0
    8000868e:	1581                	addi	a1,a1,-32
    80008690:	02068693          	addi	a3,a3,32
    80008694:	fb359fe3          	bne	a1,s3,80008652 <main+0x64fe>
    80008698:	4681                	li	a3,0
    8000869a:	7542                	ld	a0,48(sp)
    8000869c:	1ba53c23          	sd	s10,440(a0)
    800086a0:	1f8ebb03          	ld	s6,504(t4)
    800086a4:	f89a                	sd	t1,112(sp)
    800086a6:	fcf2                	sd	t3,120(sp)
    800086a8:	e17a                	sd	t5,128(sp)
    800086aa:	e51e                	sd	t2,136(sp)
    800086ac:	e942                	sd	a6,144(sp)
    800086ae:	ed62                	sd	s8,152(sp)
    800086b0:	f15e                	sd	s7,160(sp)
    800086b2:	f55a                	sd	s6,168(sp)
    800086b4:	f902                	sd	zero,176(sp)
    800086b6:	fd06                	sd	ra,184(sp)
    800086b8:	7526                	ld	a0,104(sp)
    800086ba:	e1aa                	sd	a0,192(sp)
    800086bc:	7506                	ld	a0,96(sp)
    800086be:	e5aa                	sd	a0,200(sp)
    800086c0:	6566                	ld	a0,88(sp)
    800086c2:	e9aa                	sd	a0,208(sp)
    800086c4:	6546                	ld	a0,80(sp)
    800086c6:	edaa                	sd	a0,216(sp)
    800086c8:	6526                	ld	a0,72(sp)
    800086ca:	f1aa                	sd	a0,224(sp)
    800086cc:	6506                	ld	a0,64(sp)
    800086ce:	f5aa                	sd	a0,232(sp)
    800086d0:	7562                	ld	a0,56(sp)
    800086d2:	f9aa                	sd	a0,240(sp)
    800086d4:	fc000513          	li	a0,-64
    800086d8:	00a285b3          	add	a1,t0,a0
    800086dc:	61b0                	ld	a2,64(a1)
    800086de:	65d8                	ld	a4,136(a1)
    800086e0:	02c70633          	mul	a2,a4,a2
    800086e4:	65b8                	ld	a4,72(a1)
    800086e6:	69dc                	ld	a5,144(a1)
    800086e8:	69a4                	ld	s1,80(a1)
    800086ea:	6dc0                	ld	s0,152(a1)
    800086ec:	02e78733          	mul	a4,a5,a4
    800086f0:	029407b3          	mul	a5,s0,s1
    800086f4:	6da4                	ld	s1,88(a1)
    800086f6:	71cc                	ld	a1,160(a1)
    800086f8:	9636                	add	a2,a2,a3
    800086fa:	029585b3          	mul	a1,a1,s1
    800086fe:	963a                	add	a2,a2,a4
    80008700:	963e                	add	a2,a2,a5
    80008702:	02050513          	addi	a0,a0,32
    80008706:	00b606b3          	add	a3,a2,a1
    8000870a:	f579                	bnez	a0,800086d8 <main+0x6584>
    8000870c:	4581                	li	a1,0
    8000870e:	200eb303          	ld	t1,512(t4)
    80008712:	7642                	ld	a2,48(sp)
    80008714:	1cd63023          	sd	a3,448(a2)
    80008718:	f89a                	sd	t1,112(sp)
    8000871a:	fcf2                	sd	t3,120(sp)
    8000871c:	e17a                	sd	t5,128(sp)
    8000871e:	e51e                	sd	t2,136(sp)
    80008720:	e942                	sd	a6,144(sp)
    80008722:	ed62                	sd	s8,152(sp)
    80008724:	f15e                	sd	s7,160(sp)
    80008726:	f55a                	sd	s6,168(sp)
    80008728:	4605                	li	a2,1
    8000872a:	f932                	sd	a2,176(sp)
    8000872c:	fd06                	sd	ra,184(sp)
    8000872e:	7626                	ld	a2,104(sp)
    80008730:	e1b2                	sd	a2,192(sp)
    80008732:	7606                	ld	a2,96(sp)
    80008734:	e5b2                	sd	a2,200(sp)
    80008736:	6666                	ld	a2,88(sp)
    80008738:	e9b2                	sd	a2,208(sp)
    8000873a:	6646                	ld	a2,80(sp)
    8000873c:	edb2                	sd	a2,216(sp)
    8000873e:	6626                	ld	a2,72(sp)
    80008740:	f1b2                	sd	a2,224(sp)
    80008742:	6606                	ld	a2,64(sp)
    80008744:	f5b2                	sd	a2,232(sp)
    80008746:	7662                	ld	a2,56(sp)
    80008748:	f9b2                	sd	a2,240(sp)
    8000874a:	1934                	addi	a3,sp,184
    8000874c:	fc06b603          	ld	a2,-64(a3)
    80008750:	6298                	ld	a4,0(a3)
    80008752:	fc86b783          	ld	a5,-56(a3)
    80008756:	6684                	ld	s1,8(a3)
    80008758:	02c70e33          	mul	t3,a4,a2
    8000875c:	02f48733          	mul	a4,s1,a5
    80008760:	fd06b783          	ld	a5,-48(a3)
    80008764:	6a84                	ld	s1,16(a3)
    80008766:	00454413          	xori	s0,a0,4
    8000876a:	040e                	slli	s0,s0,0x3
    8000876c:	9416                	add	s0,s0,t0
    8000876e:	6000                	ld	s0,0(s0)
    80008770:	6e90                	ld	a2,24(a3)
    80008772:	02f487b3          	mul	a5,s1,a5
    80008776:	02860633          	mul	a2,a2,s0
    8000877a:	95f2                	add	a1,a1,t3
    8000877c:	95ba                	add	a1,a1,a4
    8000877e:	95be                	add	a1,a1,a5
    80008780:	95b2                	add	a1,a1,a2
    80008782:	0511                	addi	a0,a0,4
    80008784:	02068693          	addi	a3,a3,32
    80008788:	fd4512e3          	bne	a0,s4,8000874c <main+0x65f8>
    8000878c:	4681                	li	a3,0
    8000878e:	4401                	li	s0,0
    80008790:	7542                	ld	a0,48(sp)
    80008792:	1cb53423          	sd	a1,456(a0)
    80008796:	208ebe03          	ld	t3,520(t4)
    8000879a:	f89a                	sd	t1,112(sp)
    8000879c:	fcf2                	sd	t3,120(sp)
    8000879e:	e17a                	sd	t5,128(sp)
    800087a0:	e51e                	sd	t2,136(sp)
    800087a2:	e942                	sd	a6,144(sp)
    800087a4:	ed62                	sd	s8,152(sp)
    800087a6:	f15e                	sd	s7,160(sp)
    800087a8:	f55a                	sd	s6,168(sp)
    800087aa:	4509                	li	a0,2
    800087ac:	f92a                	sd	a0,176(sp)
    800087ae:	fd06                	sd	ra,184(sp)
    800087b0:	7526                	ld	a0,104(sp)
    800087b2:	e1aa                	sd	a0,192(sp)
    800087b4:	7506                	ld	a0,96(sp)
    800087b6:	e5aa                	sd	a0,200(sp)
    800087b8:	6566                	ld	a0,88(sp)
    800087ba:	e9aa                	sd	a0,208(sp)
    800087bc:	6546                	ld	a0,80(sp)
    800087be:	edaa                	sd	a0,216(sp)
    800087c0:	6526                	ld	a0,72(sp)
    800087c2:	f1aa                	sd	a0,224(sp)
    800087c4:	6506                	ld	a0,64(sp)
    800087c6:	f5aa                	sd	a0,232(sp)
    800087c8:	7562                	ld	a0,56(sp)
    800087ca:	f9aa                	sd	a0,240(sp)
    800087cc:	02800513          	li	a0,40
    800087d0:	192c                	addi	a1,sp,184
    800087d2:	fc85b603          	ld	a2,-56(a1)
    800087d6:	6198                	ld	a4,0(a1)
    800087d8:	fd05b783          	ld	a5,-48(a1)
    800087dc:	6584                	ld	s1,8(a1)
    800087de:	02c70f33          	mul	t5,a4,a2
    800087e2:	02f48d33          	mul	s10,s1,a5
    800087e6:	0046c793          	xori	a5,a3,4
    800087ea:	078e                	slli	a5,a5,0x3
    800087ec:	9796                	add	a5,a5,t0
    800087ee:	639c                	ld	a5,0(a5)
    800087f0:	6984                	ld	s1,16(a1)
    800087f2:	00ac8633          	add	a2,s9,a0
    800087f6:	fa063603          	ld	a2,-96(a2)
    800087fa:	6d98                	ld	a4,24(a1)
    800087fc:	02f487b3          	mul	a5,s1,a5
    80008800:	02c70633          	mul	a2,a4,a2
    80008804:	008f0733          	add	a4,t5,s0
    80008808:	976a                	add	a4,a4,s10
    8000880a:	973e                	add	a4,a4,a5
    8000880c:	00c70433          	add	s0,a4,a2
    80008810:	0691                	addi	a3,a3,4
    80008812:	1501                	addi	a0,a0,-32
    80008814:	02058593          	addi	a1,a1,32
    80008818:	fbb51de3          	bne	a0,s11,800087d2 <main+0x667e>
    8000881c:	4681                	li	a3,0
    8000881e:	4d01                	li	s10,0
    80008820:	7542                	ld	a0,48(sp)
    80008822:	1c853823          	sd	s0,464(a0)
    80008826:	210ebf03          	ld	t5,528(t4)
    8000882a:	f89a                	sd	t1,112(sp)
    8000882c:	fcf2                	sd	t3,120(sp)
    8000882e:	e17a                	sd	t5,128(sp)
    80008830:	e51e                	sd	t2,136(sp)
    80008832:	e942                	sd	a6,144(sp)
    80008834:	ed62                	sd	s8,152(sp)
    80008836:	f15e                	sd	s7,160(sp)
    80008838:	f55a                	sd	s6,168(sp)
    8000883a:	450d                	li	a0,3
    8000883c:	f92a                	sd	a0,176(sp)
    8000883e:	fd06                	sd	ra,184(sp)
    80008840:	7526                	ld	a0,104(sp)
    80008842:	e1aa                	sd	a0,192(sp)
    80008844:	7506                	ld	a0,96(sp)
    80008846:	e5aa                	sd	a0,200(sp)
    80008848:	6566                	ld	a0,88(sp)
    8000884a:	e9aa                	sd	a0,208(sp)
    8000884c:	6546                	ld	a0,80(sp)
    8000884e:	edaa                	sd	a0,216(sp)
    80008850:	6526                	ld	a0,72(sp)
    80008852:	f1aa                	sd	a0,224(sp)
    80008854:	6506                	ld	a0,64(sp)
    80008856:	f5aa                	sd	a0,232(sp)
    80008858:	7562                	ld	a0,56(sp)
    8000885a:	f9aa                	sd	a0,240(sp)
    8000885c:	02800593          	li	a1,40
    80008860:	87e6                	mv	a5,s9
    80008862:	fb87b603          	ld	a2,-72(a5)
    80008866:	fe87b703          	ld	a4,-24(a5)
    8000886a:	0046c493          	xori	s1,a3,4
    8000886e:	048e                	slli	s1,s1,0x3
    80008870:	9496                	add	s1,s1,t0
    80008872:	6084                	ld	s1,0(s1)
    80008874:	ff07b403          	ld	s0,-16(a5)
    80008878:	02c703b3          	mul	t2,a4,a2
    8000887c:	02940733          	mul	a4,s0,s1
    80008880:	00bc84b3          	add	s1,s9,a1
    80008884:	fa04b403          	ld	s0,-96(s1)
    80008888:	ff87b503          	ld	a0,-8(a5)
    8000888c:	fa84b483          	ld	s1,-88(s1)
    80008890:	6390                	ld	a2,0(a5)
    80008892:	02850533          	mul	a0,a0,s0
    80008896:	02960633          	mul	a2,a2,s1
    8000889a:	01a384b3          	add	s1,t2,s10
    8000889e:	9726                	add	a4,a4,s1
    800088a0:	953a                	add	a0,a0,a4
    800088a2:	00c50d33          	add	s10,a0,a2
    800088a6:	0691                	addi	a3,a3,4
    800088a8:	1581                	addi	a1,a1,-32
    800088aa:	02078793          	addi	a5,a5,32
    800088ae:	fbb59ae3          	bne	a1,s11,80008862 <main+0x670e>
    800088b2:	4081                	li	ra,0
    800088b4:	7542                	ld	a0,48(sp)
    800088b6:	1da53c23          	sd	s10,472(a0)
    800088ba:	218eb383          	ld	t2,536(t4)
    800088be:	f89a                	sd	t1,112(sp)
    800088c0:	fcf2                	sd	t3,120(sp)
    800088c2:	e17a                	sd	t5,128(sp)
    800088c4:	e51e                	sd	t2,136(sp)
    800088c6:	e942                	sd	a6,144(sp)
    800088c8:	ed62                	sd	s8,152(sp)
    800088ca:	f15e                	sd	s7,160(sp)
    800088cc:	f55a                	sd	s6,168(sp)
    800088ce:	4511                	li	a0,4
    800088d0:	f92a                	sd	a0,176(sp)
    800088d2:	7522                	ld	a0,40(sp)
    800088d4:	fd2a                	sd	a0,184(sp)
    800088d6:	7526                	ld	a0,104(sp)
    800088d8:	e1aa                	sd	a0,192(sp)
    800088da:	7506                	ld	a0,96(sp)
    800088dc:	e5aa                	sd	a0,200(sp)
    800088de:	6566                	ld	a0,88(sp)
    800088e0:	e9aa                	sd	a0,208(sp)
    800088e2:	6546                	ld	a0,80(sp)
    800088e4:	edaa                	sd	a0,216(sp)
    800088e6:	6526                	ld	a0,72(sp)
    800088e8:	f1aa                	sd	a0,224(sp)
    800088ea:	6506                	ld	a0,64(sp)
    800088ec:	f5aa                	sd	a0,232(sp)
    800088ee:	7562                	ld	a0,56(sp)
    800088f0:	f9aa                	sd	a0,240(sp)
    800088f2:	02000513          	li	a0,32
    800088f6:	86e6                	mv	a3,s9
    800088f8:	00ac8633          	add	a2,s9,a0
    800088fc:	fa063703          	ld	a4,-96(a2)
    80008900:	fe86b783          	ld	a5,-24(a3)
    80008904:	fa863483          	ld	s1,-88(a2)
    80008908:	ff06b403          	ld	s0,-16(a3)
    8000890c:	02e78733          	mul	a4,a5,a4
    80008910:	029407b3          	mul	a5,s0,s1
    80008914:	fb063483          	ld	s1,-80(a2)
    80008918:	ff86b403          	ld	s0,-8(a3)
    8000891c:	fb863603          	ld	a2,-72(a2)
    80008920:	628c                	ld	a1,0(a3)
    80008922:	029404b3          	mul	s1,s0,s1
    80008926:	02c585b3          	mul	a1,a1,a2
    8000892a:	00170633          	add	a2,a4,ra
    8000892e:	963e                	add	a2,a2,a5
    80008930:	9626                	add	a2,a2,s1
    80008932:	00b600b3          	add	ra,a2,a1
    80008936:	1501                	addi	a0,a0,-32
    80008938:	02068693          	addi	a3,a3,32
    8000893c:	fb251ee3          	bne	a0,s2,800088f8 <main+0x67a4>
    80008940:	4d01                	li	s10,0
    80008942:	7542                	ld	a0,48(sp)
    80008944:	1e153023          	sd	ra,480(a0)
    80008948:	220eb803          	ld	a6,544(t4)
    8000894c:	f89a                	sd	t1,112(sp)
    8000894e:	fcf2                	sd	t3,120(sp)
    80008950:	e17a                	sd	t5,128(sp)
    80008952:	e51e                	sd	t2,136(sp)
    80008954:	e942                	sd	a6,144(sp)
    80008956:	ed62                	sd	s8,152(sp)
    80008958:	f15e                	sd	s7,160(sp)
    8000895a:	f55a                	sd	s6,168(sp)
    8000895c:	4515                	li	a0,5
    8000895e:	f92a                	sd	a0,176(sp)
    80008960:	7522                	ld	a0,40(sp)
    80008962:	fd2a                	sd	a0,184(sp)
    80008964:	7526                	ld	a0,104(sp)
    80008966:	e1aa                	sd	a0,192(sp)
    80008968:	7506                	ld	a0,96(sp)
    8000896a:	e5aa                	sd	a0,200(sp)
    8000896c:	6566                	ld	a0,88(sp)
    8000896e:	e9aa                	sd	a0,208(sp)
    80008970:	6546                	ld	a0,80(sp)
    80008972:	edaa                	sd	a0,216(sp)
    80008974:	6526                	ld	a0,72(sp)
    80008976:	f1aa                	sd	a0,224(sp)
    80008978:	6506                	ld	a0,64(sp)
    8000897a:	f5aa                	sd	a0,232(sp)
    8000897c:	7562                	ld	a0,56(sp)
    8000897e:	f9aa                	sd	a0,240(sp)
    80008980:	04000593          	li	a1,64
    80008984:	86e6                	mv	a3,s9
    80008986:	00bc8633          	add	a2,s9,a1
    8000898a:	f8863703          	ld	a4,-120(a2)
    8000898e:	fe86b783          	ld	a5,-24(a3)
    80008992:	f9063403          	ld	s0,-112(a2)
    80008996:	ff06b483          	ld	s1,-16(a3)
    8000899a:	02e78733          	mul	a4,a5,a4
    8000899e:	028487b3          	mul	a5,s1,s0
    800089a2:	f9863603          	ld	a2,-104(a2)
    800089a6:	ff86b403          	ld	s0,-8(a3)
    800089aa:	fa06b483          	ld	s1,-96(a3)
    800089ae:	6288                	ld	a0,0(a3)
    800089b0:	02c40633          	mul	a2,s0,a2
    800089b4:	02950533          	mul	a0,a0,s1
    800089b8:	976a                	add	a4,a4,s10
    800089ba:	973e                	add	a4,a4,a5
    800089bc:	963a                	add	a2,a2,a4
    800089be:	00a60d33          	add	s10,a2,a0
    800089c2:	1581                	addi	a1,a1,-32
    800089c4:	02068693          	addi	a3,a3,32
    800089c8:	fddd                	bnez	a1,80008986 <main+0x6832>
    800089ca:	4081                	li	ra,0
    800089cc:	7542                	ld	a0,48(sp)
    800089ce:	1fa53423          	sd	s10,488(a0)
    800089d2:	228ebc03          	ld	s8,552(t4)
    800089d6:	f89a                	sd	t1,112(sp)
    800089d8:	fcf2                	sd	t3,120(sp)
    800089da:	e17a                	sd	t5,128(sp)
    800089dc:	e51e                	sd	t2,136(sp)
    800089de:	e942                	sd	a6,144(sp)
    800089e0:	ed62                	sd	s8,152(sp)
    800089e2:	f15e                	sd	s7,160(sp)
    800089e4:	f55a                	sd	s6,168(sp)
    800089e6:	4519                	li	a0,6
    800089e8:	f92a                	sd	a0,176(sp)
    800089ea:	7522                	ld	a0,40(sp)
    800089ec:	fd2a                	sd	a0,184(sp)
    800089ee:	7526                	ld	a0,104(sp)
    800089f0:	e1aa                	sd	a0,192(sp)
    800089f2:	7506                	ld	a0,96(sp)
    800089f4:	e5aa                	sd	a0,200(sp)
    800089f6:	6566                	ld	a0,88(sp)
    800089f8:	e9aa                	sd	a0,208(sp)
    800089fa:	6546                	ld	a0,80(sp)
    800089fc:	edaa                	sd	a0,216(sp)
    800089fe:	6526                	ld	a0,72(sp)
    80008a00:	f1aa                	sd	a0,224(sp)
    80008a02:	6506                	ld	a0,64(sp)
    80008a04:	f5aa                	sd	a0,232(sp)
    80008a06:	7562                	ld	a0,56(sp)
    80008a08:	f9aa                	sd	a0,240(sp)
    80008a0a:	04000513          	li	a0,64
    80008a0e:	86e6                	mv	a3,s9
    80008a10:	00ac8633          	add	a2,s9,a0
    80008a14:	f9063703          	ld	a4,-112(a2)
    80008a18:	fe86b783          	ld	a5,-24(a3)
    80008a1c:	f9863603          	ld	a2,-104(a2)
    80008a20:	ff06b403          	ld	s0,-16(a3)
    80008a24:	02e78733          	mul	a4,a5,a4
    80008a28:	02c40633          	mul	a2,s0,a2
    80008a2c:	fa06b783          	ld	a5,-96(a3)
    80008a30:	ff86b403          	ld	s0,-8(a3)
    80008a34:	fa86b483          	ld	s1,-88(a3)
    80008a38:	628c                	ld	a1,0(a3)
    80008a3a:	02f407b3          	mul	a5,s0,a5
    80008a3e:	029585b3          	mul	a1,a1,s1
    80008a42:	9706                	add	a4,a4,ra
    80008a44:	963a                	add	a2,a2,a4
    80008a46:	963e                	add	a2,a2,a5
    80008a48:	00b600b3          	add	ra,a2,a1
    80008a4c:	1501                	addi	a0,a0,-32
    80008a4e:	02068693          	addi	a3,a3,32
    80008a52:	fd5d                	bnez	a0,80008a10 <main+0x68bc>
    80008a54:	4d01                	li	s10,0
    80008a56:	7542                	ld	a0,48(sp)
    80008a58:	1e153823          	sd	ra,496(a0)
    80008a5c:	230ebb83          	ld	s7,560(t4)
    80008a60:	f89a                	sd	t1,112(sp)
    80008a62:	fcf2                	sd	t3,120(sp)
    80008a64:	e17a                	sd	t5,128(sp)
    80008a66:	e51e                	sd	t2,136(sp)
    80008a68:	e942                	sd	a6,144(sp)
    80008a6a:	ed62                	sd	s8,152(sp)
    80008a6c:	f15e                	sd	s7,160(sp)
    80008a6e:	f55a                	sd	s6,168(sp)
    80008a70:	451d                	li	a0,7
    80008a72:	f92a                	sd	a0,176(sp)
    80008a74:	70a2                	ld	ra,40(sp)
    80008a76:	fd06                	sd	ra,184(sp)
    80008a78:	7526                	ld	a0,104(sp)
    80008a7a:	e1aa                	sd	a0,192(sp)
    80008a7c:	7506                	ld	a0,96(sp)
    80008a7e:	e5aa                	sd	a0,200(sp)
    80008a80:	6566                	ld	a0,88(sp)
    80008a82:	e9aa                	sd	a0,208(sp)
    80008a84:	6546                	ld	a0,80(sp)
    80008a86:	edaa                	sd	a0,216(sp)
    80008a88:	6526                	ld	a0,72(sp)
    80008a8a:	f1aa                	sd	a0,224(sp)
    80008a8c:	6506                	ld	a0,64(sp)
    80008a8e:	f5aa                	sd	a0,232(sp)
    80008a90:	7562                	ld	a0,56(sp)
    80008a92:	f9aa                	sd	a0,240(sp)
    80008a94:	03800593          	li	a1,56
    80008a98:	86e6                	mv	a3,s9
    80008a9a:	00bc8633          	add	a2,s9,a1
    80008a9e:	fa063603          	ld	a2,-96(a2)
    80008aa2:	fe86b703          	ld	a4,-24(a3)
    80008aa6:	fa06b783          	ld	a5,-96(a3)
    80008aaa:	ff06b403          	ld	s0,-16(a3)
    80008aae:	02c70633          	mul	a2,a4,a2
    80008ab2:	02f40733          	mul	a4,s0,a5
    80008ab6:	fa86b783          	ld	a5,-88(a3)
    80008aba:	ff86b403          	ld	s0,-8(a3)
    80008abe:	fb06b483          	ld	s1,-80(a3)
    80008ac2:	6288                	ld	a0,0(a3)
    80008ac4:	02f407b3          	mul	a5,s0,a5
    80008ac8:	02950533          	mul	a0,a0,s1
    80008acc:	966a                	add	a2,a2,s10
    80008ace:	963a                	add	a2,a2,a4
    80008ad0:	963e                	add	a2,a2,a5
    80008ad2:	00a60d33          	add	s10,a2,a0
    80008ad6:	1581                	addi	a1,a1,-32
    80008ad8:	02068693          	addi	a3,a3,32
    80008adc:	fb359fe3          	bne	a1,s3,80008a9a <main+0x6946>
    80008ae0:	4681                	li	a3,0
    80008ae2:	7542                	ld	a0,48(sp)
    80008ae4:	1fa53c23          	sd	s10,504(a0)
    80008ae8:	238ebb03          	ld	s6,568(t4)
    80008aec:	f89a                	sd	t1,112(sp)
    80008aee:	fcf2                	sd	t3,120(sp)
    80008af0:	e17a                	sd	t5,128(sp)
    80008af2:	e51e                	sd	t2,136(sp)
    80008af4:	e942                	sd	a6,144(sp)
    80008af6:	ed62                	sd	s8,152(sp)
    80008af8:	f15e                	sd	s7,160(sp)
    80008afa:	f55a                	sd	s6,168(sp)
    80008afc:	f902                	sd	zero,176(sp)
    80008afe:	fd06                	sd	ra,184(sp)
    80008b00:	7526                	ld	a0,104(sp)
    80008b02:	e1aa                	sd	a0,192(sp)
    80008b04:	7506                	ld	a0,96(sp)
    80008b06:	e5aa                	sd	a0,200(sp)
    80008b08:	6566                	ld	a0,88(sp)
    80008b0a:	e9aa                	sd	a0,208(sp)
    80008b0c:	6546                	ld	a0,80(sp)
    80008b0e:	edaa                	sd	a0,216(sp)
    80008b10:	6526                	ld	a0,72(sp)
    80008b12:	f1aa                	sd	a0,224(sp)
    80008b14:	6506                	ld	a0,64(sp)
    80008b16:	f5aa                	sd	a0,232(sp)
    80008b18:	7562                	ld	a0,56(sp)
    80008b1a:	f9aa                	sd	a0,240(sp)
    80008b1c:	fc000513          	li	a0,-64
    80008b20:	00a285b3          	add	a1,t0,a0
    80008b24:	61b0                	ld	a2,64(a1)
    80008b26:	65d8                	ld	a4,136(a1)
    80008b28:	02c70633          	mul	a2,a4,a2
    80008b2c:	65b8                	ld	a4,72(a1)
    80008b2e:	69dc                	ld	a5,144(a1)
    80008b30:	69a4                	ld	s1,80(a1)
    80008b32:	6dc0                	ld	s0,152(a1)
    80008b34:	02e78733          	mul	a4,a5,a4
    80008b38:	029407b3          	mul	a5,s0,s1
    80008b3c:	6da4                	ld	s1,88(a1)
    80008b3e:	71cc                	ld	a1,160(a1)
    80008b40:	9636                	add	a2,a2,a3
    80008b42:	029585b3          	mul	a1,a1,s1
    80008b46:	963a                	add	a2,a2,a4
    80008b48:	963e                	add	a2,a2,a5
    80008b4a:	02050513          	addi	a0,a0,32
    80008b4e:	00b606b3          	add	a3,a2,a1
    80008b52:	f579                	bnez	a0,80008b20 <main+0x69cc>
    80008b54:	4581                	li	a1,0
    80008b56:	240eb303          	ld	t1,576(t4)
    80008b5a:	7642                	ld	a2,48(sp)
    80008b5c:	20d63023          	sd	a3,512(a2)
    80008b60:	f89a                	sd	t1,112(sp)
    80008b62:	fcf2                	sd	t3,120(sp)
    80008b64:	e17a                	sd	t5,128(sp)
    80008b66:	e51e                	sd	t2,136(sp)
    80008b68:	e942                	sd	a6,144(sp)
    80008b6a:	ed62                	sd	s8,152(sp)
    80008b6c:	f15e                	sd	s7,160(sp)
    80008b6e:	f55a                	sd	s6,168(sp)
    80008b70:	4605                	li	a2,1
    80008b72:	f932                	sd	a2,176(sp)
    80008b74:	fd06                	sd	ra,184(sp)
    80008b76:	7626                	ld	a2,104(sp)
    80008b78:	e1b2                	sd	a2,192(sp)
    80008b7a:	7606                	ld	a2,96(sp)
    80008b7c:	e5b2                	sd	a2,200(sp)
    80008b7e:	6666                	ld	a2,88(sp)
    80008b80:	e9b2                	sd	a2,208(sp)
    80008b82:	6646                	ld	a2,80(sp)
    80008b84:	edb2                	sd	a2,216(sp)
    80008b86:	6626                	ld	a2,72(sp)
    80008b88:	f1b2                	sd	a2,224(sp)
    80008b8a:	6606                	ld	a2,64(sp)
    80008b8c:	f5b2                	sd	a2,232(sp)
    80008b8e:	7662                	ld	a2,56(sp)
    80008b90:	f9b2                	sd	a2,240(sp)
    80008b92:	1934                	addi	a3,sp,184
    80008b94:	fc06b603          	ld	a2,-64(a3)
    80008b98:	6298                	ld	a4,0(a3)
    80008b9a:	fc86b783          	ld	a5,-56(a3)
    80008b9e:	6684                	ld	s1,8(a3)
    80008ba0:	02c70e33          	mul	t3,a4,a2
    80008ba4:	02f48733          	mul	a4,s1,a5
    80008ba8:	fd06b783          	ld	a5,-48(a3)
    80008bac:	6a84                	ld	s1,16(a3)
    80008bae:	00454413          	xori	s0,a0,4
    80008bb2:	040e                	slli	s0,s0,0x3
    80008bb4:	9416                	add	s0,s0,t0
    80008bb6:	6000                	ld	s0,0(s0)
    80008bb8:	6e90                	ld	a2,24(a3)
    80008bba:	02f487b3          	mul	a5,s1,a5
    80008bbe:	02860633          	mul	a2,a2,s0
    80008bc2:	95f2                	add	a1,a1,t3
    80008bc4:	95ba                	add	a1,a1,a4
    80008bc6:	95be                	add	a1,a1,a5
    80008bc8:	95b2                	add	a1,a1,a2
    80008bca:	0511                	addi	a0,a0,4
    80008bcc:	02068693          	addi	a3,a3,32
    80008bd0:	fd4512e3          	bne	a0,s4,80008b94 <main+0x6a40>
    80008bd4:	4681                	li	a3,0
    80008bd6:	4401                	li	s0,0
    80008bd8:	7542                	ld	a0,48(sp)
    80008bda:	20b53423          	sd	a1,520(a0)
    80008bde:	248ebe03          	ld	t3,584(t4)
    80008be2:	f89a                	sd	t1,112(sp)
    80008be4:	fcf2                	sd	t3,120(sp)
    80008be6:	e17a                	sd	t5,128(sp)
    80008be8:	e51e                	sd	t2,136(sp)
    80008bea:	e942                	sd	a6,144(sp)
    80008bec:	ed62                	sd	s8,152(sp)
    80008bee:	f15e                	sd	s7,160(sp)
    80008bf0:	f55a                	sd	s6,168(sp)
    80008bf2:	4509                	li	a0,2
    80008bf4:	f92a                	sd	a0,176(sp)
    80008bf6:	fd06                	sd	ra,184(sp)
    80008bf8:	7526                	ld	a0,104(sp)
    80008bfa:	e1aa                	sd	a0,192(sp)
    80008bfc:	7506                	ld	a0,96(sp)
    80008bfe:	e5aa                	sd	a0,200(sp)
    80008c00:	6566                	ld	a0,88(sp)
    80008c02:	e9aa                	sd	a0,208(sp)
    80008c04:	6546                	ld	a0,80(sp)
    80008c06:	edaa                	sd	a0,216(sp)
    80008c08:	6526                	ld	a0,72(sp)
    80008c0a:	f1aa                	sd	a0,224(sp)
    80008c0c:	6506                	ld	a0,64(sp)
    80008c0e:	f5aa                	sd	a0,232(sp)
    80008c10:	7562                	ld	a0,56(sp)
    80008c12:	f9aa                	sd	a0,240(sp)
    80008c14:	02800513          	li	a0,40
    80008c18:	192c                	addi	a1,sp,184
    80008c1a:	fc85b603          	ld	a2,-56(a1)
    80008c1e:	6198                	ld	a4,0(a1)
    80008c20:	fd05b783          	ld	a5,-48(a1)
    80008c24:	6584                	ld	s1,8(a1)
    80008c26:	02c70f33          	mul	t5,a4,a2
    80008c2a:	02f48d33          	mul	s10,s1,a5
    80008c2e:	0046c793          	xori	a5,a3,4
    80008c32:	078e                	slli	a5,a5,0x3
    80008c34:	9796                	add	a5,a5,t0
    80008c36:	639c                	ld	a5,0(a5)
    80008c38:	6984                	ld	s1,16(a1)
    80008c3a:	00ac8633          	add	a2,s9,a0
    80008c3e:	fa063603          	ld	a2,-96(a2)
    80008c42:	6d98                	ld	a4,24(a1)
    80008c44:	02f487b3          	mul	a5,s1,a5
    80008c48:	02c70633          	mul	a2,a4,a2
    80008c4c:	008f0733          	add	a4,t5,s0
    80008c50:	976a                	add	a4,a4,s10
    80008c52:	973e                	add	a4,a4,a5
    80008c54:	00c70433          	add	s0,a4,a2
    80008c58:	0691                	addi	a3,a3,4
    80008c5a:	1501                	addi	a0,a0,-32
    80008c5c:	02058593          	addi	a1,a1,32
    80008c60:	fbb51de3          	bne	a0,s11,80008c1a <main+0x6ac6>
    80008c64:	4681                	li	a3,0
    80008c66:	4d01                	li	s10,0
    80008c68:	7542                	ld	a0,48(sp)
    80008c6a:	20853823          	sd	s0,528(a0)
    80008c6e:	250ebf03          	ld	t5,592(t4)
    80008c72:	f89a                	sd	t1,112(sp)
    80008c74:	fcf2                	sd	t3,120(sp)
    80008c76:	e17a                	sd	t5,128(sp)
    80008c78:	e51e                	sd	t2,136(sp)
    80008c7a:	e942                	sd	a6,144(sp)
    80008c7c:	ed62                	sd	s8,152(sp)
    80008c7e:	f15e                	sd	s7,160(sp)
    80008c80:	f55a                	sd	s6,168(sp)
    80008c82:	450d                	li	a0,3
    80008c84:	f92a                	sd	a0,176(sp)
    80008c86:	fd06                	sd	ra,184(sp)
    80008c88:	7526                	ld	a0,104(sp)
    80008c8a:	e1aa                	sd	a0,192(sp)
    80008c8c:	7506                	ld	a0,96(sp)
    80008c8e:	e5aa                	sd	a0,200(sp)
    80008c90:	6566                	ld	a0,88(sp)
    80008c92:	e9aa                	sd	a0,208(sp)
    80008c94:	6546                	ld	a0,80(sp)
    80008c96:	edaa                	sd	a0,216(sp)
    80008c98:	6526                	ld	a0,72(sp)
    80008c9a:	f1aa                	sd	a0,224(sp)
    80008c9c:	6506                	ld	a0,64(sp)
    80008c9e:	f5aa                	sd	a0,232(sp)
    80008ca0:	7562                	ld	a0,56(sp)
    80008ca2:	f9aa                	sd	a0,240(sp)
    80008ca4:	02800593          	li	a1,40
    80008ca8:	87e6                	mv	a5,s9
    80008caa:	fb87b603          	ld	a2,-72(a5)
    80008cae:	fe87b703          	ld	a4,-24(a5)
    80008cb2:	0046c493          	xori	s1,a3,4
    80008cb6:	048e                	slli	s1,s1,0x3
    80008cb8:	9496                	add	s1,s1,t0
    80008cba:	6084                	ld	s1,0(s1)
    80008cbc:	ff07b403          	ld	s0,-16(a5)
    80008cc0:	02c703b3          	mul	t2,a4,a2
    80008cc4:	02940733          	mul	a4,s0,s1
    80008cc8:	00bc84b3          	add	s1,s9,a1
    80008ccc:	fa04b403          	ld	s0,-96(s1)
    80008cd0:	ff87b503          	ld	a0,-8(a5)
    80008cd4:	fa84b483          	ld	s1,-88(s1)
    80008cd8:	6390                	ld	a2,0(a5)
    80008cda:	02850533          	mul	a0,a0,s0
    80008cde:	02960633          	mul	a2,a2,s1
    80008ce2:	01a384b3          	add	s1,t2,s10
    80008ce6:	9726                	add	a4,a4,s1
    80008ce8:	953a                	add	a0,a0,a4
    80008cea:	00c50d33          	add	s10,a0,a2
    80008cee:	0691                	addi	a3,a3,4
    80008cf0:	1581                	addi	a1,a1,-32
    80008cf2:	02078793          	addi	a5,a5,32
    80008cf6:	fbb59ae3          	bne	a1,s11,80008caa <main+0x6b56>
    80008cfa:	4381                	li	t2,0
    80008cfc:	7542                	ld	a0,48(sp)
    80008cfe:	21a53c23          	sd	s10,536(a0)
    80008d02:	258eb083          	ld	ra,600(t4)
    80008d06:	f89a                	sd	t1,112(sp)
    80008d08:	fcf2                	sd	t3,120(sp)
    80008d0a:	e17a                	sd	t5,128(sp)
    80008d0c:	e506                	sd	ra,136(sp)
    80008d0e:	e942                	sd	a6,144(sp)
    80008d10:	ed62                	sd	s8,152(sp)
    80008d12:	f15e                	sd	s7,160(sp)
    80008d14:	f55a                	sd	s6,168(sp)
    80008d16:	4511                	li	a0,4
    80008d18:	f92a                	sd	a0,176(sp)
    80008d1a:	7522                	ld	a0,40(sp)
    80008d1c:	fd2a                	sd	a0,184(sp)
    80008d1e:	7526                	ld	a0,104(sp)
    80008d20:	e1aa                	sd	a0,192(sp)
    80008d22:	7506                	ld	a0,96(sp)
    80008d24:	e5aa                	sd	a0,200(sp)
    80008d26:	6566                	ld	a0,88(sp)
    80008d28:	e9aa                	sd	a0,208(sp)
    80008d2a:	6546                	ld	a0,80(sp)
    80008d2c:	edaa                	sd	a0,216(sp)
    80008d2e:	6526                	ld	a0,72(sp)
    80008d30:	f1aa                	sd	a0,224(sp)
    80008d32:	6506                	ld	a0,64(sp)
    80008d34:	f5aa                	sd	a0,232(sp)
    80008d36:	7562                	ld	a0,56(sp)
    80008d38:	f9aa                	sd	a0,240(sp)
    80008d3a:	02000513          	li	a0,32
    80008d3e:	86e6                	mv	a3,s9
    80008d40:	00ac8633          	add	a2,s9,a0
    80008d44:	fa063703          	ld	a4,-96(a2)
    80008d48:	fe86b783          	ld	a5,-24(a3)
    80008d4c:	fa863483          	ld	s1,-88(a2)
    80008d50:	ff06b403          	ld	s0,-16(a3)
    80008d54:	02e78733          	mul	a4,a5,a4
    80008d58:	029407b3          	mul	a5,s0,s1
    80008d5c:	fb063483          	ld	s1,-80(a2)
    80008d60:	ff86b403          	ld	s0,-8(a3)
    80008d64:	fb863603          	ld	a2,-72(a2)
    80008d68:	628c                	ld	a1,0(a3)
    80008d6a:	029404b3          	mul	s1,s0,s1
    80008d6e:	02c585b3          	mul	a1,a1,a2
    80008d72:	00770633          	add	a2,a4,t2
    80008d76:	963e                	add	a2,a2,a5
    80008d78:	9626                	add	a2,a2,s1
    80008d7a:	00b603b3          	add	t2,a2,a1
    80008d7e:	1501                	addi	a0,a0,-32
    80008d80:	02068693          	addi	a3,a3,32
    80008d84:	fb251ee3          	bne	a0,s2,80008d40 <main+0x6bec>
    80008d88:	4801                	li	a6,0
    80008d8a:	7542                	ld	a0,48(sp)
    80008d8c:	22753023          	sd	t2,544(a0)
    80008d90:	260ebd03          	ld	s10,608(t4)
    80008d94:	f89a                	sd	t1,112(sp)
    80008d96:	fcf2                	sd	t3,120(sp)
    80008d98:	e17a                	sd	t5,128(sp)
    80008d9a:	e506                	sd	ra,136(sp)
    80008d9c:	e96a                	sd	s10,144(sp)
    80008d9e:	ed62                	sd	s8,152(sp)
    80008da0:	f15e                	sd	s7,160(sp)
    80008da2:	f55a                	sd	s6,168(sp)
    80008da4:	4515                	li	a0,5
    80008da6:	f92a                	sd	a0,176(sp)
    80008da8:	7522                	ld	a0,40(sp)
    80008daa:	fd2a                	sd	a0,184(sp)
    80008dac:	7526                	ld	a0,104(sp)
    80008dae:	e1aa                	sd	a0,192(sp)
    80008db0:	7506                	ld	a0,96(sp)
    80008db2:	e5aa                	sd	a0,200(sp)
    80008db4:	6566                	ld	a0,88(sp)
    80008db6:	e9aa                	sd	a0,208(sp)
    80008db8:	6546                	ld	a0,80(sp)
    80008dba:	edaa                	sd	a0,216(sp)
    80008dbc:	6526                	ld	a0,72(sp)
    80008dbe:	f1aa                	sd	a0,224(sp)
    80008dc0:	6506                	ld	a0,64(sp)
    80008dc2:	f5aa                	sd	a0,232(sp)
    80008dc4:	7562                	ld	a0,56(sp)
    80008dc6:	f9aa                	sd	a0,240(sp)
    80008dc8:	04000593          	li	a1,64
    80008dcc:	86e6                	mv	a3,s9
    80008dce:	00bc8633          	add	a2,s9,a1
    80008dd2:	f8863703          	ld	a4,-120(a2)
    80008dd6:	fe86b783          	ld	a5,-24(a3)
    80008dda:	f9063483          	ld	s1,-112(a2)
    80008dde:	ff06b403          	ld	s0,-16(a3)
    80008de2:	02e78733          	mul	a4,a5,a4
    80008de6:	029407b3          	mul	a5,s0,s1
    80008dea:	f9863603          	ld	a2,-104(a2)
    80008dee:	ff86b483          	ld	s1,-8(a3)
    80008df2:	fa06b403          	ld	s0,-96(a3)
    80008df6:	6288                	ld	a0,0(a3)
    80008df8:	02c48633          	mul	a2,s1,a2
    80008dfc:	02850533          	mul	a0,a0,s0
    80008e00:	9742                	add	a4,a4,a6
    80008e02:	973e                	add	a4,a4,a5
    80008e04:	963a                	add	a2,a2,a4
    80008e06:	00a60833          	add	a6,a2,a0
    80008e0a:	1581                	addi	a1,a1,-32
    80008e0c:	02068693          	addi	a3,a3,32
    80008e10:	fddd                	bnez	a1,80008dce <main+0x6c7a>
    80008e12:	4381                	li	t2,0
    80008e14:	7542                	ld	a0,48(sp)
    80008e16:	23053423          	sd	a6,552(a0)
    80008e1a:	268eb803          	ld	a6,616(t4)
    80008e1e:	f89a                	sd	t1,112(sp)
    80008e20:	fcf2                	sd	t3,120(sp)
    80008e22:	e17a                	sd	t5,128(sp)
    80008e24:	e506                	sd	ra,136(sp)
    80008e26:	e96a                	sd	s10,144(sp)
    80008e28:	ed42                	sd	a6,152(sp)
    80008e2a:	f15e                	sd	s7,160(sp)
    80008e2c:	f55a                	sd	s6,168(sp)
    80008e2e:	4519                	li	a0,6
    80008e30:	f92a                	sd	a0,176(sp)
    80008e32:	7522                	ld	a0,40(sp)
    80008e34:	fd2a                	sd	a0,184(sp)
    80008e36:	7526                	ld	a0,104(sp)
    80008e38:	e1aa                	sd	a0,192(sp)
    80008e3a:	7506                	ld	a0,96(sp)
    80008e3c:	e5aa                	sd	a0,200(sp)
    80008e3e:	6566                	ld	a0,88(sp)
    80008e40:	e9aa                	sd	a0,208(sp)
    80008e42:	6546                	ld	a0,80(sp)
    80008e44:	edaa                	sd	a0,216(sp)
    80008e46:	6526                	ld	a0,72(sp)
    80008e48:	f1aa                	sd	a0,224(sp)
    80008e4a:	6506                	ld	a0,64(sp)
    80008e4c:	f5aa                	sd	a0,232(sp)
    80008e4e:	7562                	ld	a0,56(sp)
    80008e50:	f9aa                	sd	a0,240(sp)
    80008e52:	04000513          	li	a0,64
    80008e56:	86e6                	mv	a3,s9
    80008e58:	00ac8633          	add	a2,s9,a0
    80008e5c:	f9063703          	ld	a4,-112(a2)
    80008e60:	fe86b783          	ld	a5,-24(a3)
    80008e64:	f9863603          	ld	a2,-104(a2)
    80008e68:	ff06b483          	ld	s1,-16(a3)
    80008e6c:	02e78733          	mul	a4,a5,a4
    80008e70:	02c48633          	mul	a2,s1,a2
    80008e74:	fa06b783          	ld	a5,-96(a3)
    80008e78:	ff86b483          	ld	s1,-8(a3)
    80008e7c:	fa86b403          	ld	s0,-88(a3)
    80008e80:	628c                	ld	a1,0(a3)
    80008e82:	02f487b3          	mul	a5,s1,a5
    80008e86:	028585b3          	mul	a1,a1,s0
    80008e8a:	971e                	add	a4,a4,t2
    80008e8c:	963a                	add	a2,a2,a4
    80008e8e:	963e                	add	a2,a2,a5
    80008e90:	00b603b3          	add	t2,a2,a1
    80008e94:	1501                	addi	a0,a0,-32
    80008e96:	02068693          	addi	a3,a3,32
    80008e9a:	fd5d                	bnez	a0,80008e58 <main+0x6d04>
    80008e9c:	4c01                	li	s8,0
    80008e9e:	7542                	ld	a0,48(sp)
    80008ea0:	22753823          	sd	t2,560(a0)
    80008ea4:	270ebb83          	ld	s7,624(t4)
    80008ea8:	f89a                	sd	t1,112(sp)
    80008eaa:	fcf2                	sd	t3,120(sp)
    80008eac:	e17a                	sd	t5,128(sp)
    80008eae:	e506                	sd	ra,136(sp)
    80008eb0:	e96a                	sd	s10,144(sp)
    80008eb2:	ed42                	sd	a6,152(sp)
    80008eb4:	f15e                	sd	s7,160(sp)
    80008eb6:	f55a                	sd	s6,168(sp)
    80008eb8:	451d                	li	a0,7
    80008eba:	f92a                	sd	a0,176(sp)
    80008ebc:	7522                	ld	a0,40(sp)
    80008ebe:	fd2a                	sd	a0,184(sp)
    80008ec0:	7526                	ld	a0,104(sp)
    80008ec2:	e1aa                	sd	a0,192(sp)
    80008ec4:	7506                	ld	a0,96(sp)
    80008ec6:	e5aa                	sd	a0,200(sp)
    80008ec8:	6566                	ld	a0,88(sp)
    80008eca:	e9aa                	sd	a0,208(sp)
    80008ecc:	6546                	ld	a0,80(sp)
    80008ece:	edaa                	sd	a0,216(sp)
    80008ed0:	6526                	ld	a0,72(sp)
    80008ed2:	f1aa                	sd	a0,224(sp)
    80008ed4:	6506                	ld	a0,64(sp)
    80008ed6:	f5aa                	sd	a0,232(sp)
    80008ed8:	7562                	ld	a0,56(sp)
    80008eda:	f9aa                	sd	a0,240(sp)
    80008edc:	03800593          	li	a1,56
    80008ee0:	86e6                	mv	a3,s9
    80008ee2:	00bc8633          	add	a2,s9,a1
    80008ee6:	fa063603          	ld	a2,-96(a2)
    80008eea:	fe86b703          	ld	a4,-24(a3)
    80008eee:	fa06b783          	ld	a5,-96(a3)
    80008ef2:	ff06b483          	ld	s1,-16(a3)
    80008ef6:	02c70633          	mul	a2,a4,a2
    80008efa:	02f48733          	mul	a4,s1,a5
    80008efe:	fa86b783          	ld	a5,-88(a3)
    80008f02:	ff86b483          	ld	s1,-8(a3)
    80008f06:	fb06b403          	ld	s0,-80(a3)
    80008f0a:	6288                	ld	a0,0(a3)
    80008f0c:	02f487b3          	mul	a5,s1,a5
    80008f10:	02850533          	mul	a0,a0,s0
    80008f14:	9662                	add	a2,a2,s8
    80008f16:	963a                	add	a2,a2,a4
    80008f18:	963e                	add	a2,a2,a5
    80008f1a:	00a60c33          	add	s8,a2,a0
    80008f1e:	1581                	addi	a1,a1,-32
    80008f20:	02068693          	addi	a3,a3,32
    80008f24:	fb359fe3          	bne	a1,s3,80008ee2 <main+0x6d8e>
    80008f28:	4681                	li	a3,0
    80008f2a:	7542                	ld	a0,48(sp)
    80008f2c:	23853c23          	sd	s8,568(a0)
    80008f30:	278ebb03          	ld	s6,632(t4)
    80008f34:	f89a                	sd	t1,112(sp)
    80008f36:	fcf2                	sd	t3,120(sp)
    80008f38:	e17a                	sd	t5,128(sp)
    80008f3a:	e506                	sd	ra,136(sp)
    80008f3c:	e96a                	sd	s10,144(sp)
    80008f3e:	ed42                	sd	a6,152(sp)
    80008f40:	f15e                	sd	s7,160(sp)
    80008f42:	f55a                	sd	s6,168(sp)
    80008f44:	f902                	sd	zero,176(sp)
    80008f46:	7522                	ld	a0,40(sp)
    80008f48:	fd2a                	sd	a0,184(sp)
    80008f4a:	7526                	ld	a0,104(sp)
    80008f4c:	e1aa                	sd	a0,192(sp)
    80008f4e:	7506                	ld	a0,96(sp)
    80008f50:	e5aa                	sd	a0,200(sp)
    80008f52:	6566                	ld	a0,88(sp)
    80008f54:	e9aa                	sd	a0,208(sp)
    80008f56:	6546                	ld	a0,80(sp)
    80008f58:	edaa                	sd	a0,216(sp)
    80008f5a:	6526                	ld	a0,72(sp)
    80008f5c:	f1aa                	sd	a0,224(sp)
    80008f5e:	6506                	ld	a0,64(sp)
    80008f60:	f5aa                	sd	a0,232(sp)
    80008f62:	7562                	ld	a0,56(sp)
    80008f64:	f9aa                	sd	a0,240(sp)
    80008f66:	fc000513          	li	a0,-64
    80008f6a:	00a285b3          	add	a1,t0,a0
    80008f6e:	61b0                	ld	a2,64(a1)
    80008f70:	65d8                	ld	a4,136(a1)
    80008f72:	02c70633          	mul	a2,a4,a2
    80008f76:	65b8                	ld	a4,72(a1)
    80008f78:	69dc                	ld	a5,144(a1)
    80008f7a:	69a4                	ld	s1,80(a1)
    80008f7c:	6dc0                	ld	s0,152(a1)
    80008f7e:	02e78733          	mul	a4,a5,a4
    80008f82:	029407b3          	mul	a5,s0,s1
    80008f86:	6da4                	ld	s1,88(a1)
    80008f88:	71cc                	ld	a1,160(a1)
    80008f8a:	9636                	add	a2,a2,a3
    80008f8c:	029585b3          	mul	a1,a1,s1
    80008f90:	963a                	add	a2,a2,a4
    80008f92:	963e                	add	a2,a2,a5
    80008f94:	02050513          	addi	a0,a0,32
    80008f98:	00b606b3          	add	a3,a2,a1
    80008f9c:	f579                	bnez	a0,80008f6a <main+0x6e16>
    80008f9e:	4581                	li	a1,0
    80008fa0:	280eb383          	ld	t2,640(t4)
    80008fa4:	7642                	ld	a2,48(sp)
    80008fa6:	24d63023          	sd	a3,576(a2)
    80008faa:	f89e                	sd	t2,112(sp)
    80008fac:	fcf2                	sd	t3,120(sp)
    80008fae:	e17a                	sd	t5,128(sp)
    80008fb0:	e506                	sd	ra,136(sp)
    80008fb2:	e96a                	sd	s10,144(sp)
    80008fb4:	ed42                	sd	a6,152(sp)
    80008fb6:	f15e                	sd	s7,160(sp)
    80008fb8:	f55a                	sd	s6,168(sp)
    80008fba:	4605                	li	a2,1
    80008fbc:	f932                	sd	a2,176(sp)
    80008fbe:	7622                	ld	a2,40(sp)
    80008fc0:	fd32                	sd	a2,184(sp)
    80008fc2:	7626                	ld	a2,104(sp)
    80008fc4:	e1b2                	sd	a2,192(sp)
    80008fc6:	7606                	ld	a2,96(sp)
    80008fc8:	e5b2                	sd	a2,200(sp)
    80008fca:	6666                	ld	a2,88(sp)
    80008fcc:	e9b2                	sd	a2,208(sp)
    80008fce:	6646                	ld	a2,80(sp)
    80008fd0:	edb2                	sd	a2,216(sp)
    80008fd2:	6626                	ld	a2,72(sp)
    80008fd4:	f1b2                	sd	a2,224(sp)
    80008fd6:	6606                	ld	a2,64(sp)
    80008fd8:	f5b2                	sd	a2,232(sp)
    80008fda:	7662                	ld	a2,56(sp)
    80008fdc:	f9b2                	sd	a2,240(sp)
    80008fde:	1934                	addi	a3,sp,184
    80008fe0:	fc06b603          	ld	a2,-64(a3)
    80008fe4:	6298                	ld	a4,0(a3)
    80008fe6:	fc86b783          	ld	a5,-56(a3)
    80008fea:	6684                	ld	s1,8(a3)
    80008fec:	02c70333          	mul	t1,a4,a2
    80008ff0:	02f48733          	mul	a4,s1,a5
    80008ff4:	fd06b783          	ld	a5,-48(a3)
    80008ff8:	6a84                	ld	s1,16(a3)
    80008ffa:	00454413          	xori	s0,a0,4
    80008ffe:	040e                	slli	s0,s0,0x3
    80009000:	9416                	add	s0,s0,t0
    80009002:	6000                	ld	s0,0(s0)
    80009004:	6e90                	ld	a2,24(a3)
    80009006:	02f487b3          	mul	a5,s1,a5
    8000900a:	02860633          	mul	a2,a2,s0
    8000900e:	959a                	add	a1,a1,t1
    80009010:	95ba                	add	a1,a1,a4
    80009012:	95be                	add	a1,a1,a5
    80009014:	95b2                	add	a1,a1,a2
    80009016:	0511                	addi	a0,a0,4
    80009018:	02068693          	addi	a3,a3,32
    8000901c:	fd4512e3          	bne	a0,s4,80008fe0 <main+0x6e8c>
    80009020:	4681                	li	a3,0
    80009022:	4401                	li	s0,0
    80009024:	7542                	ld	a0,48(sp)
    80009026:	24b53423          	sd	a1,584(a0)
    8000902a:	288ebe03          	ld	t3,648(t4)
    8000902e:	f89e                	sd	t2,112(sp)
    80009030:	fcf2                	sd	t3,120(sp)
    80009032:	e17a                	sd	t5,128(sp)
    80009034:	e506                	sd	ra,136(sp)
    80009036:	e96a                	sd	s10,144(sp)
    80009038:	ed42                	sd	a6,152(sp)
    8000903a:	f15e                	sd	s7,160(sp)
    8000903c:	f55a                	sd	s6,168(sp)
    8000903e:	4509                	li	a0,2
    80009040:	f92a                	sd	a0,176(sp)
    80009042:	7522                	ld	a0,40(sp)
    80009044:	fd2a                	sd	a0,184(sp)
    80009046:	7526                	ld	a0,104(sp)
    80009048:	e1aa                	sd	a0,192(sp)
    8000904a:	7506                	ld	a0,96(sp)
    8000904c:	e5aa                	sd	a0,200(sp)
    8000904e:	6566                	ld	a0,88(sp)
    80009050:	e9aa                	sd	a0,208(sp)
    80009052:	6546                	ld	a0,80(sp)
    80009054:	edaa                	sd	a0,216(sp)
    80009056:	6526                	ld	a0,72(sp)
    80009058:	f1aa                	sd	a0,224(sp)
    8000905a:	6506                	ld	a0,64(sp)
    8000905c:	f5aa                	sd	a0,232(sp)
    8000905e:	7562                	ld	a0,56(sp)
    80009060:	f9aa                	sd	a0,240(sp)
    80009062:	0928                	addi	a0,sp,152
    80009064:	192c                	addi	a1,sp,184
    80009066:	fc85b603          	ld	a2,-56(a1)
    8000906a:	6198                	ld	a4,0(a1)
    8000906c:	fd05b783          	ld	a5,-48(a1)
    80009070:	6584                	ld	s1,8(a1)
    80009072:	02c70333          	mul	t1,a4,a2
    80009076:	02f48f33          	mul	t5,s1,a5
    8000907a:	0046c793          	xori	a5,a3,4
    8000907e:	078e                	slli	a5,a5,0x3
    80009080:	9796                	add	a5,a5,t0
    80009082:	639c                	ld	a5,0(a5)
    80009084:	6984                	ld	s1,16(a1)
    80009086:	6110                	ld	a2,0(a0)
    80009088:	6d98                	ld	a4,24(a1)
    8000908a:	02f487b3          	mul	a5,s1,a5
    8000908e:	02c70633          	mul	a2,a4,a2
    80009092:	00830733          	add	a4,t1,s0
    80009096:	977a                	add	a4,a4,t5
    80009098:	973e                	add	a4,a4,a5
    8000909a:	00c70433          	add	s0,a4,a2
    8000909e:	0691                	addi	a3,a3,4
    800090a0:	02058593          	addi	a1,a1,32
    800090a4:	1501                	addi	a0,a0,-32
    800090a6:	fd4690e3          	bne	a3,s4,80009066 <main+0x6f12>
    800090aa:	4501                	li	a0,0
    800090ac:	4301                	li	t1,0
    800090ae:	75c2                	ld	a1,48(sp)
    800090b0:	2485b823          	sd	s0,592(a1)
    800090b4:	290ebf03          	ld	t5,656(t4)
    800090b8:	f89e                	sd	t2,112(sp)
    800090ba:	fcf2                	sd	t3,120(sp)
    800090bc:	e17a                	sd	t5,128(sp)
    800090be:	e506                	sd	ra,136(sp)
    800090c0:	e96a                	sd	s10,144(sp)
    800090c2:	ed42                	sd	a6,152(sp)
    800090c4:	f15e                	sd	s7,160(sp)
    800090c6:	f55a                	sd	s6,168(sp)
    800090c8:	458d                	li	a1,3
    800090ca:	f92e                	sd	a1,176(sp)
    800090cc:	75a2                	ld	a1,40(sp)
    800090ce:	fd2e                	sd	a1,184(sp)
    800090d0:	75a6                	ld	a1,104(sp)
    800090d2:	e1ae                	sd	a1,192(sp)
    800090d4:	7586                	ld	a1,96(sp)
    800090d6:	e5ae                	sd	a1,200(sp)
    800090d8:	65e6                	ld	a1,88(sp)
    800090da:	e9ae                	sd	a1,208(sp)
    800090dc:	65c6                	ld	a1,80(sp)
    800090de:	edae                	sd	a1,216(sp)
    800090e0:	65a6                	ld	a1,72(sp)
    800090e2:	f1ae                	sd	a1,224(sp)
    800090e4:	6586                	ld	a1,64(sp)
    800090e6:	f5ae                	sd	a1,232(sp)
    800090e8:	75e2                	ld	a1,56(sp)
    800090ea:	f9ae                	sd	a1,240(sp)
    800090ec:	85d6                	mv	a1,s5
    800090ee:	87e6                	mv	a5,s9
    800090f0:	fb87b603          	ld	a2,-72(a5)
    800090f4:	fe87b703          	ld	a4,-24(a5)
    800090f8:	00454493          	xori	s1,a0,4
    800090fc:	048e                	slli	s1,s1,0x3
    800090fe:	9496                	add	s1,s1,t0
    80009100:	6084                	ld	s1,0(s1)
    80009102:	ff07b403          	ld	s0,-16(a5)
    80009106:	02c70c33          	mul	s8,a4,a2
    8000910a:	02940733          	mul	a4,s0,s1
    8000910e:	ff85b483          	ld	s1,-8(a1)
    80009112:	ff87b403          	ld	s0,-8(a5)
    80009116:	6194                	ld	a3,0(a1)
    80009118:	6390                	ld	a2,0(a5)
    8000911a:	02940433          	mul	s0,s0,s1
    8000911e:	02d60633          	mul	a2,a2,a3
    80009122:	006c06b3          	add	a3,s8,t1
    80009126:	96ba                	add	a3,a3,a4
    80009128:	96a2                	add	a3,a3,s0
    8000912a:	00c68333          	add	t1,a3,a2
    8000912e:	0511                	addi	a0,a0,4
    80009130:	02078793          	addi	a5,a5,32
    80009134:	1581                	addi	a1,a1,-32
    80009136:	fb451de3          	bne	a0,s4,800090f0 <main+0x6f9c>
    8000913a:	4501                	li	a0,0
    8000913c:	4c01                	li	s8,0
    8000913e:	75c2                	ld	a1,48(sp)
    80009140:	2465bc23          	sd	t1,600(a1)
    80009144:	298eb083          	ld	ra,664(t4)
    80009148:	f89e                	sd	t2,112(sp)
    8000914a:	fcf2                	sd	t3,120(sp)
    8000914c:	e17a                	sd	t5,128(sp)
    8000914e:	e506                	sd	ra,136(sp)
    80009150:	e96a                	sd	s10,144(sp)
    80009152:	ed42                	sd	a6,152(sp)
    80009154:	f15e                	sd	s7,160(sp)
    80009156:	f55a                	sd	s6,168(sp)
    80009158:	4591                	li	a1,4
    8000915a:	f92e                	sd	a1,176(sp)
    8000915c:	75a2                	ld	a1,40(sp)
    8000915e:	fd2e                	sd	a1,184(sp)
    80009160:	75a6                	ld	a1,104(sp)
    80009162:	e1ae                	sd	a1,192(sp)
    80009164:	7586                	ld	a1,96(sp)
    80009166:	e5ae                	sd	a1,200(sp)
    80009168:	65e6                	ld	a1,88(sp)
    8000916a:	e9ae                	sd	a1,208(sp)
    8000916c:	65c6                	ld	a1,80(sp)
    8000916e:	edae                	sd	a1,216(sp)
    80009170:	65a6                	ld	a1,72(sp)
    80009172:	f1ae                	sd	a1,224(sp)
    80009174:	6586                	ld	a1,64(sp)
    80009176:	f5ae                	sd	a1,232(sp)
    80009178:	75e2                	ld	a1,56(sp)
    8000917a:	f9ae                	sd	a1,240(sp)
    8000917c:	86e6                	mv	a3,s9
    8000917e:	00af8633          	add	a2,t6,a0
    80009182:	fe863703          	ld	a4,-24(a2)
    80009186:	fe86b783          	ld	a5,-24(a3)
    8000918a:	ff063483          	ld	s1,-16(a2)
    8000918e:	ff06b403          	ld	s0,-16(a3)
    80009192:	02e78733          	mul	a4,a5,a4
    80009196:	029407b3          	mul	a5,s0,s1
    8000919a:	ff863483          	ld	s1,-8(a2)
    8000919e:	ff86b403          	ld	s0,-8(a3)
    800091a2:	6210                	ld	a2,0(a2)
    800091a4:	628c                	ld	a1,0(a3)
    800091a6:	029404b3          	mul	s1,s0,s1
    800091aa:	02c585b3          	mul	a1,a1,a2
    800091ae:	01870633          	add	a2,a4,s8
    800091b2:	963e                	add	a2,a2,a5
    800091b4:	9626                	add	a2,a2,s1
    800091b6:	00b60c33          	add	s8,a2,a1
    800091ba:	1501                	addi	a0,a0,-32
    800091bc:	02068693          	addi	a3,a3,32
    800091c0:	fb151fe3          	bne	a0,a7,8000917e <main+0x702a>
    800091c4:	4501                	li	a0,0
    800091c6:	4d01                	li	s10,0
    800091c8:	75c2                	ld	a1,48(sp)
    800091ca:	2785b023          	sd	s8,608(a1)
    800091ce:	2a0eb303          	ld	t1,672(t4)
    800091d2:	f89e                	sd	t2,112(sp)
    800091d4:	fcf2                	sd	t3,120(sp)
    800091d6:	e17a                	sd	t5,128(sp)
    800091d8:	e506                	sd	ra,136(sp)
    800091da:	e91a                	sd	t1,144(sp)
    800091dc:	ed42                	sd	a6,152(sp)
    800091de:	f15e                	sd	s7,160(sp)
    800091e0:	f55a                	sd	s6,168(sp)
    800091e2:	4595                	li	a1,5
    800091e4:	f92e                	sd	a1,176(sp)
    800091e6:	75a2                	ld	a1,40(sp)
    800091e8:	fd2e                	sd	a1,184(sp)
    800091ea:	75a6                	ld	a1,104(sp)
    800091ec:	e1ae                	sd	a1,192(sp)
    800091ee:	7586                	ld	a1,96(sp)
    800091f0:	e5ae                	sd	a1,200(sp)
    800091f2:	65e6                	ld	a1,88(sp)
    800091f4:	e9ae                	sd	a1,208(sp)
    800091f6:	65c6                	ld	a1,80(sp)
    800091f8:	edae                	sd	a1,216(sp)
    800091fa:	65a6                	ld	a1,72(sp)
    800091fc:	f1ae                	sd	a1,224(sp)
    800091fe:	6586                	ld	a1,64(sp)
    80009200:	f5ae                	sd	a1,232(sp)
    80009202:	75e2                	ld	a1,56(sp)
    80009204:	f9ae                	sd	a1,240(sp)
    80009206:	85e6                	mv	a1,s9
    80009208:	00af8633          	add	a2,t6,a0
    8000920c:	ff063703          	ld	a4,-16(a2)
    80009210:	fe85b783          	ld	a5,-24(a1)
    80009214:	ff863483          	ld	s1,-8(a2)
    80009218:	ff05b403          	ld	s0,-16(a1)
    8000921c:	02e78733          	mul	a4,a5,a4
    80009220:	029407b3          	mul	a5,s0,s1
    80009224:	6210                	ld	a2,0(a2)
    80009226:	ff85b483          	ld	s1,-8(a1)
    8000922a:	fa05b403          	ld	s0,-96(a1)
    8000922e:	6194                	ld	a3,0(a1)
    80009230:	02c48633          	mul	a2,s1,a2
    80009234:	028686b3          	mul	a3,a3,s0
    80009238:	976a                	add	a4,a4,s10
    8000923a:	973e                	add	a4,a4,a5
    8000923c:	963a                	add	a2,a2,a4
    8000923e:	00d60d33          	add	s10,a2,a3
    80009242:	1501                	addi	a0,a0,-32
    80009244:	02058593          	addi	a1,a1,32
    80009248:	fd1510e3          	bne	a0,a7,80009208 <main+0x70b4>
    8000924c:	4501                	li	a0,0
    8000924e:	4581                	li	a1,0
    80009250:	7642                	ld	a2,48(sp)
    80009252:	27a63423          	sd	s10,616(a2)
    80009256:	2a8ebc03          	ld	s8,680(t4)
    8000925a:	f89e                	sd	t2,112(sp)
    8000925c:	fcf2                	sd	t3,120(sp)
    8000925e:	e17a                	sd	t5,128(sp)
    80009260:	e506                	sd	ra,136(sp)
    80009262:	e91a                	sd	t1,144(sp)
    80009264:	ed62                	sd	s8,152(sp)
    80009266:	f15e                	sd	s7,160(sp)
    80009268:	f55a                	sd	s6,168(sp)
    8000926a:	4619                	li	a2,6
    8000926c:	f932                	sd	a2,176(sp)
    8000926e:	7622                	ld	a2,40(sp)
    80009270:	fd32                	sd	a2,184(sp)
    80009272:	7626                	ld	a2,104(sp)
    80009274:	e1b2                	sd	a2,192(sp)
    80009276:	7606                	ld	a2,96(sp)
    80009278:	e5b2                	sd	a2,200(sp)
    8000927a:	6666                	ld	a2,88(sp)
    8000927c:	e9b2                	sd	a2,208(sp)
    8000927e:	6646                	ld	a2,80(sp)
    80009280:	edb2                	sd	a2,216(sp)
    80009282:	6626                	ld	a2,72(sp)
    80009284:	f1b2                	sd	a2,224(sp)
    80009286:	6606                	ld	a2,64(sp)
    80009288:	f5b2                	sd	a2,232(sp)
    8000928a:	7662                	ld	a2,56(sp)
    8000928c:	f9b2                	sd	a2,240(sp)
    8000928e:	86e6                	mv	a3,s9
    80009290:	00af8633          	add	a2,t6,a0
    80009294:	ff863703          	ld	a4,-8(a2)
    80009298:	fe86b783          	ld	a5,-24(a3)
    8000929c:	6210                	ld	a2,0(a2)
    8000929e:	ff06b483          	ld	s1,-16(a3)
    800092a2:	02e78733          	mul	a4,a5,a4
    800092a6:	02c48833          	mul	a6,s1,a2
    800092aa:	fa06b783          	ld	a5,-96(a3)
    800092ae:	ff86b483          	ld	s1,-8(a3)
    800092b2:	fa86b403          	ld	s0,-88(a3)
    800092b6:	6290                	ld	a2,0(a3)
    800092b8:	02f487b3          	mul	a5,s1,a5
    800092bc:	02860633          	mul	a2,a2,s0
    800092c0:	95ba                	add	a1,a1,a4
    800092c2:	95c2                	add	a1,a1,a6
    800092c4:	95be                	add	a1,a1,a5
    800092c6:	95b2                	add	a1,a1,a2
    800092c8:	1501                	addi	a0,a0,-32
    800092ca:	02068693          	addi	a3,a3,32
    800092ce:	fd1511e3          	bne	a0,a7,80009290 <main+0x713c>
    800092d2:	4b81                	li	s7,0
    800092d4:	7542                	ld	a0,48(sp)
    800092d6:	26b53823          	sd	a1,624(a0)
    800092da:	2b0eb803          	ld	a6,688(t4)
    800092de:	f89e                	sd	t2,112(sp)
    800092e0:	fcf2                	sd	t3,120(sp)
    800092e2:	e17a                	sd	t5,128(sp)
    800092e4:	e506                	sd	ra,136(sp)
    800092e6:	e91a                	sd	t1,144(sp)
    800092e8:	ed62                	sd	s8,152(sp)
    800092ea:	f142                	sd	a6,160(sp)
    800092ec:	f55a                	sd	s6,168(sp)
    800092ee:	451d                	li	a0,7
    800092f0:	f92a                	sd	a0,176(sp)
    800092f2:	7522                	ld	a0,40(sp)
    800092f4:	fd2a                	sd	a0,184(sp)
    800092f6:	7526                	ld	a0,104(sp)
    800092f8:	e1aa                	sd	a0,192(sp)
    800092fa:	7506                	ld	a0,96(sp)
    800092fc:	e5aa                	sd	a0,200(sp)
    800092fe:	6566                	ld	a0,88(sp)
    80009300:	e9aa                	sd	a0,208(sp)
    80009302:	6546                	ld	a0,80(sp)
    80009304:	edaa                	sd	a0,216(sp)
    80009306:	6526                	ld	a0,72(sp)
    80009308:	f1aa                	sd	a0,224(sp)
    8000930a:	6506                	ld	a0,64(sp)
    8000930c:	f5aa                	sd	a0,232(sp)
    8000930e:	7562                	ld	a0,56(sp)
    80009310:	f9aa                	sd	a0,240(sp)
    80009312:	03800593          	li	a1,56
    80009316:	86e6                	mv	a3,s9
    80009318:	00bc8633          	add	a2,s9,a1
    8000931c:	fa063603          	ld	a2,-96(a2)
    80009320:	fe86b703          	ld	a4,-24(a3)
    80009324:	fa06b783          	ld	a5,-96(a3)
    80009328:	ff06b403          	ld	s0,-16(a3)
    8000932c:	02c70633          	mul	a2,a4,a2
    80009330:	02f40733          	mul	a4,s0,a5
    80009334:	fa86b783          	ld	a5,-88(a3)
    80009338:	ff86b403          	ld	s0,-8(a3)
    8000933c:	fb06b483          	ld	s1,-80(a3)
    80009340:	6288                	ld	a0,0(a3)
    80009342:	02f407b3          	mul	a5,s0,a5
    80009346:	02950533          	mul	a0,a0,s1
    8000934a:	965e                	add	a2,a2,s7
    8000934c:	963a                	add	a2,a2,a4
    8000934e:	963e                	add	a2,a2,a5
    80009350:	00a60bb3          	add	s7,a2,a0
    80009354:	1581                	addi	a1,a1,-32
    80009356:	02068693          	addi	a3,a3,32
    8000935a:	fb359fe3          	bne	a1,s3,80009318 <main+0x71c4>
    8000935e:	4681                	li	a3,0
    80009360:	7542                	ld	a0,48(sp)
    80009362:	27753c23          	sd	s7,632(a0)
    80009366:	2b8ebb03          	ld	s6,696(t4)
    8000936a:	f89e                	sd	t2,112(sp)
    8000936c:	fcf2                	sd	t3,120(sp)
    8000936e:	e17a                	sd	t5,128(sp)
    80009370:	e506                	sd	ra,136(sp)
    80009372:	e91a                	sd	t1,144(sp)
    80009374:	ed62                	sd	s8,152(sp)
    80009376:	f142                	sd	a6,160(sp)
    80009378:	f55a                	sd	s6,168(sp)
    8000937a:	f902                	sd	zero,176(sp)
    8000937c:	7522                	ld	a0,40(sp)
    8000937e:	fd2a                	sd	a0,184(sp)
    80009380:	7526                	ld	a0,104(sp)
    80009382:	e1aa                	sd	a0,192(sp)
    80009384:	7506                	ld	a0,96(sp)
    80009386:	e5aa                	sd	a0,200(sp)
    80009388:	6566                	ld	a0,88(sp)
    8000938a:	e9aa                	sd	a0,208(sp)
    8000938c:	6546                	ld	a0,80(sp)
    8000938e:	edaa                	sd	a0,216(sp)
    80009390:	6526                	ld	a0,72(sp)
    80009392:	f1aa                	sd	a0,224(sp)
    80009394:	6506                	ld	a0,64(sp)
    80009396:	f5aa                	sd	a0,232(sp)
    80009398:	7562                	ld	a0,56(sp)
    8000939a:	f9aa                	sd	a0,240(sp)
    8000939c:	fc000513          	li	a0,-64
    800093a0:	0b810393          	addi	t2,sp,184
    800093a4:	00a385b3          	add	a1,t2,a0
    800093a8:	ff85b603          	ld	a2,-8(a1)
    800093ac:	61b8                	ld	a4,64(a1)
    800093ae:	02c70633          	mul	a2,a4,a2
    800093b2:	6198                	ld	a4,0(a1)
    800093b4:	65bc                	ld	a5,72(a1)
    800093b6:	6584                	ld	s1,8(a1)
    800093b8:	69a0                	ld	s0,80(a1)
    800093ba:	02e78733          	mul	a4,a5,a4
    800093be:	029407b3          	mul	a5,s0,s1
    800093c2:	6984                	ld	s1,16(a1)
    800093c4:	6dac                	ld	a1,88(a1)
    800093c6:	9636                	add	a2,a2,a3
    800093c8:	029585b3          	mul	a1,a1,s1
    800093cc:	963a                	add	a2,a2,a4
    800093ce:	963e                	add	a2,a2,a5
    800093d0:	02050513          	addi	a0,a0,32
    800093d4:	00b606b3          	add	a3,a2,a1
    800093d8:	f571                	bnez	a0,800093a4 <main+0x7250>
    800093da:	4581                	li	a1,0
    800093dc:	871e                	mv	a4,t2
    800093de:	2c0eb383          	ld	t2,704(t4)
    800093e2:	7642                	ld	a2,48(sp)
    800093e4:	28d63023          	sd	a3,640(a2)
    800093e8:	f89e                	sd	t2,112(sp)
    800093ea:	fcf2                	sd	t3,120(sp)
    800093ec:	e17a                	sd	t5,128(sp)
    800093ee:	e506                	sd	ra,136(sp)
    800093f0:	e91a                	sd	t1,144(sp)
    800093f2:	ed62                	sd	s8,152(sp)
    800093f4:	f142                	sd	a6,160(sp)
    800093f6:	f55a                	sd	s6,168(sp)
    800093f8:	4605                	li	a2,1
    800093fa:	f932                	sd	a2,176(sp)
    800093fc:	7622                	ld	a2,40(sp)
    800093fe:	fd32                	sd	a2,184(sp)
    80009400:	7626                	ld	a2,104(sp)
    80009402:	e1b2                	sd	a2,192(sp)
    80009404:	7606                	ld	a2,96(sp)
    80009406:	e5b2                	sd	a2,200(sp)
    80009408:	6666                	ld	a2,88(sp)
    8000940a:	e9b2                	sd	a2,208(sp)
    8000940c:	6646                	ld	a2,80(sp)
    8000940e:	edb2                	sd	a2,216(sp)
    80009410:	6626                	ld	a2,72(sp)
    80009412:	f1b2                	sd	a2,224(sp)
    80009414:	6606                	ld	a2,64(sp)
    80009416:	f5b2                	sd	a2,232(sp)
    80009418:	7662                	ld	a2,56(sp)
    8000941a:	f9b2                	sd	a2,240(sp)
    8000941c:	86ba                	mv	a3,a4
    8000941e:	fc06b603          	ld	a2,-64(a3)
    80009422:	6298                	ld	a4,0(a3)
    80009424:	fc86b783          	ld	a5,-56(a3)
    80009428:	6684                	ld	s1,8(a3)
    8000942a:	02c70e33          	mul	t3,a4,a2
    8000942e:	02f48733          	mul	a4,s1,a5
    80009432:	fd06b783          	ld	a5,-48(a3)
    80009436:	6a84                	ld	s1,16(a3)
    80009438:	00454413          	xori	s0,a0,4
    8000943c:	040e                	slli	s0,s0,0x3
    8000943e:	9416                	add	s0,s0,t0
    80009440:	6000                	ld	s0,0(s0)
    80009442:	6e90                	ld	a2,24(a3)
    80009444:	02f487b3          	mul	a5,s1,a5
    80009448:	02860633          	mul	a2,a2,s0
    8000944c:	95f2                	add	a1,a1,t3
    8000944e:	95ba                	add	a1,a1,a4
    80009450:	95be                	add	a1,a1,a5
    80009452:	95b2                	add	a1,a1,a2
    80009454:	0511                	addi	a0,a0,4
    80009456:	02068693          	addi	a3,a3,32
    8000945a:	fd4512e3          	bne	a0,s4,8000941e <main+0x72ca>
    8000945e:	4501                	li	a0,0
    80009460:	4401                	li	s0,0
    80009462:	7642                	ld	a2,48(sp)
    80009464:	28b63423          	sd	a1,648(a2)
    80009468:	2c8ebe03          	ld	t3,712(t4)
    8000946c:	f89e                	sd	t2,112(sp)
    8000946e:	fcf2                	sd	t3,120(sp)
    80009470:	e17a                	sd	t5,128(sp)
    80009472:	e506                	sd	ra,136(sp)
    80009474:	e91a                	sd	t1,144(sp)
    80009476:	ed62                	sd	s8,152(sp)
    80009478:	f142                	sd	a6,160(sp)
    8000947a:	f55a                	sd	s6,168(sp)
    8000947c:	4589                	li	a1,2
    8000947e:	f92e                	sd	a1,176(sp)
    80009480:	75a2                	ld	a1,40(sp)
    80009482:	fd2e                	sd	a1,184(sp)
    80009484:	75a6                	ld	a1,104(sp)
    80009486:	e1ae                	sd	a1,192(sp)
    80009488:	7586                	ld	a1,96(sp)
    8000948a:	e5ae                	sd	a1,200(sp)
    8000948c:	65e6                	ld	a1,88(sp)
    8000948e:	e9ae                	sd	a1,208(sp)
    80009490:	65c6                	ld	a1,80(sp)
    80009492:	edae                	sd	a1,216(sp)
    80009494:	65a6                	ld	a1,72(sp)
    80009496:	f1ae                	sd	a1,224(sp)
    80009498:	6586                	ld	a1,64(sp)
    8000949a:	f5ae                	sd	a1,232(sp)
    8000949c:	75e2                	ld	a1,56(sp)
    8000949e:	f9ae                	sd	a1,240(sp)
    800094a0:	092c                	addi	a1,sp,152
    800094a2:	1934                	addi	a3,sp,184
    800094a4:	fc86b603          	ld	a2,-56(a3)
    800094a8:	6298                	ld	a4,0(a3)
    800094aa:	fd06b783          	ld	a5,-48(a3)
    800094ae:	6684                	ld	s1,8(a3)
    800094b0:	02c70f33          	mul	t5,a4,a2
    800094b4:	02f48bb3          	mul	s7,s1,a5
    800094b8:	00454793          	xori	a5,a0,4
    800094bc:	078e                	slli	a5,a5,0x3
    800094be:	9796                	add	a5,a5,t0
    800094c0:	639c                	ld	a5,0(a5)
    800094c2:	6a84                	ld	s1,16(a3)
    800094c4:	6190                	ld	a2,0(a1)
    800094c6:	6e98                	ld	a4,24(a3)
    800094c8:	02f487b3          	mul	a5,s1,a5
    800094cc:	02c70633          	mul	a2,a4,a2
    800094d0:	008f0733          	add	a4,t5,s0
    800094d4:	975e                	add	a4,a4,s7
    800094d6:	973e                	add	a4,a4,a5
    800094d8:	00c70433          	add	s0,a4,a2
    800094dc:	0511                	addi	a0,a0,4
    800094de:	02068693          	addi	a3,a3,32
    800094e2:	1581                	addi	a1,a1,-32
    800094e4:	fd4510e3          	bne	a0,s4,800094a4 <main+0x7350>
    800094e8:	4681                	li	a3,0
    800094ea:	4f01                	li	t5,0
    800094ec:	7542                	ld	a0,48(sp)
    800094ee:	28853823          	sd	s0,656(a0)
    800094f2:	2d0ebd03          	ld	s10,720(t4)
    800094f6:	f89e                	sd	t2,112(sp)
    800094f8:	fcf2                	sd	t3,120(sp)
    800094fa:	e16a                	sd	s10,128(sp)
    800094fc:	e506                	sd	ra,136(sp)
    800094fe:	e91a                	sd	t1,144(sp)
    80009500:	ed62                	sd	s8,152(sp)
    80009502:	f142                	sd	a6,160(sp)
    80009504:	f55a                	sd	s6,168(sp)
    80009506:	450d                	li	a0,3
    80009508:	f92a                	sd	a0,176(sp)
    8000950a:	70a2                	ld	ra,40(sp)
    8000950c:	fd06                	sd	ra,184(sp)
    8000950e:	7526                	ld	a0,104(sp)
    80009510:	e1aa                	sd	a0,192(sp)
    80009512:	7506                	ld	a0,96(sp)
    80009514:	e5aa                	sd	a0,200(sp)
    80009516:	6566                	ld	a0,88(sp)
    80009518:	e9aa                	sd	a0,208(sp)
    8000951a:	6546                	ld	a0,80(sp)
    8000951c:	edaa                	sd	a0,216(sp)
    8000951e:	6526                	ld	a0,72(sp)
    80009520:	f1aa                	sd	a0,224(sp)
    80009522:	6506                	ld	a0,64(sp)
    80009524:	f5aa                	sd	a0,232(sp)
    80009526:	7562                	ld	a0,56(sp)
    80009528:	f9aa                	sd	a0,240(sp)
    8000952a:	85d6                	mv	a1,s5
    8000952c:	87e6                	mv	a5,s9
    8000952e:	fb87b603          	ld	a2,-72(a5)
    80009532:	fe87b703          	ld	a4,-24(a5)
    80009536:	0046c493          	xori	s1,a3,4
    8000953a:	048e                	slli	s1,s1,0x3
    8000953c:	9496                	add	s1,s1,t0
    8000953e:	6084                	ld	s1,0(s1)
    80009540:	ff07b403          	ld	s0,-16(a5)
    80009544:	02c70bb3          	mul	s7,a4,a2
    80009548:	02940733          	mul	a4,s0,s1
    8000954c:	ff85b483          	ld	s1,-8(a1)
    80009550:	ff87b403          	ld	s0,-8(a5)
    80009554:	6188                	ld	a0,0(a1)
    80009556:	6390                	ld	a2,0(a5)
    80009558:	02940433          	mul	s0,s0,s1
    8000955c:	02a60533          	mul	a0,a2,a0
    80009560:	01eb8633          	add	a2,s7,t5
    80009564:	963a                	add	a2,a2,a4
    80009566:	9622                	add	a2,a2,s0
    80009568:	00a60f33          	add	t5,a2,a0
    8000956c:	0691                	addi	a3,a3,4
    8000956e:	02078793          	addi	a5,a5,32
    80009572:	1581                	addi	a1,a1,-32
    80009574:	fb469de3          	bne	a3,s4,8000952e <main+0x73da>
    80009578:	4581                	li	a1,0
    8000957a:	4b81                	li	s7,0
    8000957c:	7542                	ld	a0,48(sp)
    8000957e:	29e53c23          	sd	t5,664(a0)
    80009582:	2d8ebf03          	ld	t5,728(t4)
    80009586:	f89e                	sd	t2,112(sp)
    80009588:	fcf2                	sd	t3,120(sp)
    8000958a:	e16a                	sd	s10,128(sp)
    8000958c:	e57a                	sd	t5,136(sp)
    8000958e:	e91a                	sd	t1,144(sp)
    80009590:	ed62                	sd	s8,152(sp)
    80009592:	f142                	sd	a6,160(sp)
    80009594:	f55a                	sd	s6,168(sp)
    80009596:	4511                	li	a0,4
    80009598:	f92a                	sd	a0,176(sp)
    8000959a:	fd06                	sd	ra,184(sp)
    8000959c:	7526                	ld	a0,104(sp)
    8000959e:	e1aa                	sd	a0,192(sp)
    800095a0:	7506                	ld	a0,96(sp)
    800095a2:	e5aa                	sd	a0,200(sp)
    800095a4:	6566                	ld	a0,88(sp)
    800095a6:	e9aa                	sd	a0,208(sp)
    800095a8:	6546                	ld	a0,80(sp)
    800095aa:	edaa                	sd	a0,216(sp)
    800095ac:	6526                	ld	a0,72(sp)
    800095ae:	f1aa                	sd	a0,224(sp)
    800095b0:	6506                	ld	a0,64(sp)
    800095b2:	f5aa                	sd	a0,232(sp)
    800095b4:	7562                	ld	a0,56(sp)
    800095b6:	f9aa                	sd	a0,240(sp)
    800095b8:	8566                	mv	a0,s9
    800095ba:	00bf8633          	add	a2,t6,a1
    800095be:	fe863703          	ld	a4,-24(a2)
    800095c2:	fe853783          	ld	a5,-24(a0)
    800095c6:	ff063483          	ld	s1,-16(a2)
    800095ca:	ff053403          	ld	s0,-16(a0)
    800095ce:	02e78733          	mul	a4,a5,a4
    800095d2:	029407b3          	mul	a5,s0,s1
    800095d6:	ff863483          	ld	s1,-8(a2)
    800095da:	ff853403          	ld	s0,-8(a0)
    800095de:	6210                	ld	a2,0(a2)
    800095e0:	6114                	ld	a3,0(a0)
    800095e2:	029404b3          	mul	s1,s0,s1
    800095e6:	02c68633          	mul	a2,a3,a2
    800095ea:	017706b3          	add	a3,a4,s7
    800095ee:	96be                	add	a3,a3,a5
    800095f0:	96a6                	add	a3,a3,s1
    800095f2:	00c68bb3          	add	s7,a3,a2
    800095f6:	1581                	addi	a1,a1,-32
    800095f8:	02050513          	addi	a0,a0,32
    800095fc:	fb159fe3          	bne	a1,a7,800095ba <main+0x7466>
    80009600:	4501                	li	a0,0
    80009602:	4081                	li	ra,0
    80009604:	75c2                	ld	a1,48(sp)
    80009606:	2b75b023          	sd	s7,672(a1)
    8000960a:	2e0eb303          	ld	t1,736(t4)
    8000960e:	f89e                	sd	t2,112(sp)
    80009610:	fcf2                	sd	t3,120(sp)
    80009612:	e16a                	sd	s10,128(sp)
    80009614:	e57a                	sd	t5,136(sp)
    80009616:	e91a                	sd	t1,144(sp)
    80009618:	ed62                	sd	s8,152(sp)
    8000961a:	f142                	sd	a6,160(sp)
    8000961c:	f55a                	sd	s6,168(sp)
    8000961e:	4595                	li	a1,5
    80009620:	f92e                	sd	a1,176(sp)
    80009622:	75a2                	ld	a1,40(sp)
    80009624:	fd2e                	sd	a1,184(sp)
    80009626:	75a6                	ld	a1,104(sp)
    80009628:	e1ae                	sd	a1,192(sp)
    8000962a:	7586                	ld	a1,96(sp)
    8000962c:	e5ae                	sd	a1,200(sp)
    8000962e:	65e6                	ld	a1,88(sp)
    80009630:	e9ae                	sd	a1,208(sp)
    80009632:	65c6                	ld	a1,80(sp)
    80009634:	edae                	sd	a1,216(sp)
    80009636:	65a6                	ld	a1,72(sp)
    80009638:	f1ae                	sd	a1,224(sp)
    8000963a:	6586                	ld	a1,64(sp)
    8000963c:	f5ae                	sd	a1,232(sp)
    8000963e:	75e2                	ld	a1,56(sp)
    80009640:	f9ae                	sd	a1,240(sp)
    80009642:	86e6                	mv	a3,s9
    80009644:	00af8633          	add	a2,t6,a0
    80009648:	ff063703          	ld	a4,-16(a2)
    8000964c:	fe86b783          	ld	a5,-24(a3)
    80009650:	ff863403          	ld	s0,-8(a2)
    80009654:	ff06b483          	ld	s1,-16(a3)
    80009658:	02e78733          	mul	a4,a5,a4
    8000965c:	028487b3          	mul	a5,s1,s0
    80009660:	6210                	ld	a2,0(a2)
    80009662:	ff86b403          	ld	s0,-8(a3)
    80009666:	fa06b483          	ld	s1,-96(a3)
    8000966a:	628c                	ld	a1,0(a3)
    8000966c:	02c40633          	mul	a2,s0,a2
    80009670:	029585b3          	mul	a1,a1,s1
    80009674:	9706                	add	a4,a4,ra
    80009676:	973e                	add	a4,a4,a5
    80009678:	963a                	add	a2,a2,a4
    8000967a:	00b600b3          	add	ra,a2,a1
    8000967e:	1501                	addi	a0,a0,-32
    80009680:	02068693          	addi	a3,a3,32
    80009684:	fd1510e3          	bne	a0,a7,80009644 <main+0x74f0>
    80009688:	4501                	li	a0,0
    8000968a:	4681                	li	a3,0
    8000968c:	75c2                	ld	a1,48(sp)
    8000968e:	2a15b423          	sd	ra,680(a1)
    80009692:	2e8ebb83          	ld	s7,744(t4)
    80009696:	f89e                	sd	t2,112(sp)
    80009698:	fcf2                	sd	t3,120(sp)
    8000969a:	e16a                	sd	s10,128(sp)
    8000969c:	e57a                	sd	t5,136(sp)
    8000969e:	e91a                	sd	t1,144(sp)
    800096a0:	ed5e                	sd	s7,152(sp)
    800096a2:	f142                	sd	a6,160(sp)
    800096a4:	f55a                	sd	s6,168(sp)
    800096a6:	4599                	li	a1,6
    800096a8:	f92e                	sd	a1,176(sp)
    800096aa:	70a2                	ld	ra,40(sp)
    800096ac:	fd06                	sd	ra,184(sp)
    800096ae:	75a6                	ld	a1,104(sp)
    800096b0:	e1ae                	sd	a1,192(sp)
    800096b2:	7586                	ld	a1,96(sp)
    800096b4:	e5ae                	sd	a1,200(sp)
    800096b6:	65e6                	ld	a1,88(sp)
    800096b8:	e9ae                	sd	a1,208(sp)
    800096ba:	65c6                	ld	a1,80(sp)
    800096bc:	edae                	sd	a1,216(sp)
    800096be:	65a6                	ld	a1,72(sp)
    800096c0:	f1ae                	sd	a1,224(sp)
    800096c2:	6586                	ld	a1,64(sp)
    800096c4:	f5ae                	sd	a1,232(sp)
    800096c6:	75e2                	ld	a1,56(sp)
    800096c8:	f9ae                	sd	a1,240(sp)
    800096ca:	85e6                	mv	a1,s9
    800096cc:	00af8633          	add	a2,t6,a0
    800096d0:	ff863703          	ld	a4,-8(a2)
    800096d4:	fe85b783          	ld	a5,-24(a1)
    800096d8:	6210                	ld	a2,0(a2)
    800096da:	ff05b483          	ld	s1,-16(a1)
    800096de:	02e78733          	mul	a4,a5,a4
    800096e2:	02c48833          	mul	a6,s1,a2
    800096e6:	fa05b783          	ld	a5,-96(a1)
    800096ea:	ff85b483          	ld	s1,-8(a1)
    800096ee:	fa85b403          	ld	s0,-88(a1)
    800096f2:	6190                	ld	a2,0(a1)
    800096f4:	02f487b3          	mul	a5,s1,a5
    800096f8:	02860633          	mul	a2,a2,s0
    800096fc:	96ba                	add	a3,a3,a4
    800096fe:	96c2                	add	a3,a3,a6
    80009700:	96be                	add	a3,a3,a5
    80009702:	96b2                	add	a3,a3,a2
    80009704:	1501                	addi	a0,a0,-32
    80009706:	02058593          	addi	a1,a1,32
    8000970a:	fd1511e3          	bne	a0,a7,800096cc <main+0x7578>
    8000970e:	4c01                	li	s8,0
    80009710:	7542                	ld	a0,48(sp)
    80009712:	2ad53823          	sd	a3,688(a0)
    80009716:	2f0eb803          	ld	a6,752(t4)
    8000971a:	f89e                	sd	t2,112(sp)
    8000971c:	fcf2                	sd	t3,120(sp)
    8000971e:	e16a                	sd	s10,128(sp)
    80009720:	e57a                	sd	t5,136(sp)
    80009722:	e91a                	sd	t1,144(sp)
    80009724:	ed5e                	sd	s7,152(sp)
    80009726:	f142                	sd	a6,160(sp)
    80009728:	f55a                	sd	s6,168(sp)
    8000972a:	451d                	li	a0,7
    8000972c:	f92a                	sd	a0,176(sp)
    8000972e:	fd06                	sd	ra,184(sp)
    80009730:	7526                	ld	a0,104(sp)
    80009732:	e1aa                	sd	a0,192(sp)
    80009734:	7506                	ld	a0,96(sp)
    80009736:	e5aa                	sd	a0,200(sp)
    80009738:	6566                	ld	a0,88(sp)
    8000973a:	e9aa                	sd	a0,208(sp)
    8000973c:	6546                	ld	a0,80(sp)
    8000973e:	edaa                	sd	a0,216(sp)
    80009740:	6526                	ld	a0,72(sp)
    80009742:	f1aa                	sd	a0,224(sp)
    80009744:	6506                	ld	a0,64(sp)
    80009746:	f5aa                	sd	a0,232(sp)
    80009748:	7562                	ld	a0,56(sp)
    8000974a:	f9aa                	sd	a0,240(sp)
    8000974c:	03800593          	li	a1,56
    80009750:	86e6                	mv	a3,s9
    80009752:	00bc8633          	add	a2,s9,a1
    80009756:	fa063603          	ld	a2,-96(a2)
    8000975a:	fe86b703          	ld	a4,-24(a3)
    8000975e:	fa06b783          	ld	a5,-96(a3)
    80009762:	ff06b403          	ld	s0,-16(a3)
    80009766:	02c70633          	mul	a2,a4,a2
    8000976a:	02f40733          	mul	a4,s0,a5
    8000976e:	fa86b783          	ld	a5,-88(a3)
    80009772:	ff86b403          	ld	s0,-8(a3)
    80009776:	fb06b483          	ld	s1,-80(a3)
    8000977a:	6288                	ld	a0,0(a3)
    8000977c:	02f407b3          	mul	a5,s0,a5
    80009780:	02950533          	mul	a0,a0,s1
    80009784:	9662                	add	a2,a2,s8
    80009786:	963a                	add	a2,a2,a4
    80009788:	963e                	add	a2,a2,a5
    8000978a:	00a60c33          	add	s8,a2,a0
    8000978e:	1581                	addi	a1,a1,-32
    80009790:	02068693          	addi	a3,a3,32
    80009794:	fb359fe3          	bne	a1,s3,80009752 <main+0x75fe>
    80009798:	4681                	li	a3,0
    8000979a:	7542                	ld	a0,48(sp)
    8000979c:	2b853c23          	sd	s8,696(a0)
    800097a0:	2f8ebb03          	ld	s6,760(t4)
    800097a4:	f89e                	sd	t2,112(sp)
    800097a6:	fcf2                	sd	t3,120(sp)
    800097a8:	e16a                	sd	s10,128(sp)
    800097aa:	e57a                	sd	t5,136(sp)
    800097ac:	e91a                	sd	t1,144(sp)
    800097ae:	ed5e                	sd	s7,152(sp)
    800097b0:	f142                	sd	a6,160(sp)
    800097b2:	f55a                	sd	s6,168(sp)
    800097b4:	f902                	sd	zero,176(sp)
    800097b6:	fd06                	sd	ra,184(sp)
    800097b8:	7526                	ld	a0,104(sp)
    800097ba:	e1aa                	sd	a0,192(sp)
    800097bc:	7506                	ld	a0,96(sp)
    800097be:	e5aa                	sd	a0,200(sp)
    800097c0:	6566                	ld	a0,88(sp)
    800097c2:	e9aa                	sd	a0,208(sp)
    800097c4:	6546                	ld	a0,80(sp)
    800097c6:	edaa                	sd	a0,216(sp)
    800097c8:	6526                	ld	a0,72(sp)
    800097ca:	f1aa                	sd	a0,224(sp)
    800097cc:	6506                	ld	a0,64(sp)
    800097ce:	f5aa                	sd	a0,232(sp)
    800097d0:	7562                	ld	a0,56(sp)
    800097d2:	f9aa                	sd	a0,240(sp)
    800097d4:	fc000513          	li	a0,-64
    800097d8:	0b810393          	addi	t2,sp,184
    800097dc:	00a385b3          	add	a1,t2,a0
    800097e0:	ff85b603          	ld	a2,-8(a1)
    800097e4:	61b8                	ld	a4,64(a1)
    800097e6:	02c70633          	mul	a2,a4,a2
    800097ea:	6198                	ld	a4,0(a1)
    800097ec:	65bc                	ld	a5,72(a1)
    800097ee:	6584                	ld	s1,8(a1)
    800097f0:	69a0                	ld	s0,80(a1)
    800097f2:	02e78733          	mul	a4,a5,a4
    800097f6:	029407b3          	mul	a5,s0,s1
    800097fa:	6984                	ld	s1,16(a1)
    800097fc:	6dac                	ld	a1,88(a1)
    800097fe:	9636                	add	a2,a2,a3
    80009800:	029585b3          	mul	a1,a1,s1
    80009804:	963a                	add	a2,a2,a4
    80009806:	963e                	add	a2,a2,a5
    80009808:	02050513          	addi	a0,a0,32
    8000980c:	00b606b3          	add	a3,a2,a1
    80009810:	f571                	bnez	a0,800097dc <main+0x7688>
    80009812:	4581                	li	a1,0
    80009814:	871e                	mv	a4,t2
    80009816:	300eb383          	ld	t2,768(t4)
    8000981a:	7642                	ld	a2,48(sp)
    8000981c:	2cd63023          	sd	a3,704(a2)
    80009820:	f89e                	sd	t2,112(sp)
    80009822:	fcf2                	sd	t3,120(sp)
    80009824:	e16a                	sd	s10,128(sp)
    80009826:	e57a                	sd	t5,136(sp)
    80009828:	e91a                	sd	t1,144(sp)
    8000982a:	ed5e                	sd	s7,152(sp)
    8000982c:	f142                	sd	a6,160(sp)
    8000982e:	f55a                	sd	s6,168(sp)
    80009830:	4605                	li	a2,1
    80009832:	f932                	sd	a2,176(sp)
    80009834:	fd06                	sd	ra,184(sp)
    80009836:	7626                	ld	a2,104(sp)
    80009838:	e1b2                	sd	a2,192(sp)
    8000983a:	7606                	ld	a2,96(sp)
    8000983c:	e5b2                	sd	a2,200(sp)
    8000983e:	6666                	ld	a2,88(sp)
    80009840:	e9b2                	sd	a2,208(sp)
    80009842:	6646                	ld	a2,80(sp)
    80009844:	edb2                	sd	a2,216(sp)
    80009846:	6626                	ld	a2,72(sp)
    80009848:	f1b2                	sd	a2,224(sp)
    8000984a:	6606                	ld	a2,64(sp)
    8000984c:	f5b2                	sd	a2,232(sp)
    8000984e:	7662                	ld	a2,56(sp)
    80009850:	f9b2                	sd	a2,240(sp)
    80009852:	86ba                	mv	a3,a4
    80009854:	fc06b603          	ld	a2,-64(a3)
    80009858:	6298                	ld	a4,0(a3)
    8000985a:	fc86b783          	ld	a5,-56(a3)
    8000985e:	6684                	ld	s1,8(a3)
    80009860:	02c70e33          	mul	t3,a4,a2
    80009864:	02f48733          	mul	a4,s1,a5
    80009868:	fd06b783          	ld	a5,-48(a3)
    8000986c:	6a84                	ld	s1,16(a3)
    8000986e:	00454413          	xori	s0,a0,4
    80009872:	040e                	slli	s0,s0,0x3
    80009874:	9416                	add	s0,s0,t0
    80009876:	6000                	ld	s0,0(s0)
    80009878:	6e90                	ld	a2,24(a3)
    8000987a:	02f487b3          	mul	a5,s1,a5
    8000987e:	02860633          	mul	a2,a2,s0
    80009882:	95f2                	add	a1,a1,t3
    80009884:	95ba                	add	a1,a1,a4
    80009886:	95be                	add	a1,a1,a5
    80009888:	95b2                	add	a1,a1,a2
    8000988a:	0511                	addi	a0,a0,4
    8000988c:	02068693          	addi	a3,a3,32
    80009890:	fd4512e3          	bne	a0,s4,80009854 <main+0x7700>
    80009894:	4681                	li	a3,0
    80009896:	4501                	li	a0,0
    80009898:	7642                	ld	a2,48(sp)
    8000989a:	2cb63423          	sd	a1,712(a2)
    8000989e:	308ebe03          	ld	t3,776(t4)
    800098a2:	f89e                	sd	t2,112(sp)
    800098a4:	fcf2                	sd	t3,120(sp)
    800098a6:	e16a                	sd	s10,128(sp)
    800098a8:	e57a                	sd	t5,136(sp)
    800098aa:	e91a                	sd	t1,144(sp)
    800098ac:	ed5e                	sd	s7,152(sp)
    800098ae:	f142                	sd	a6,160(sp)
    800098b0:	f55a                	sd	s6,168(sp)
    800098b2:	4589                	li	a1,2
    800098b4:	f92e                	sd	a1,176(sp)
    800098b6:	fd06                	sd	ra,184(sp)
    800098b8:	75a6                	ld	a1,104(sp)
    800098ba:	e1ae                	sd	a1,192(sp)
    800098bc:	7586                	ld	a1,96(sp)
    800098be:	e5ae                	sd	a1,200(sp)
    800098c0:	65e6                	ld	a1,88(sp)
    800098c2:	e9ae                	sd	a1,208(sp)
    800098c4:	65c6                	ld	a1,80(sp)
    800098c6:	edae                	sd	a1,216(sp)
    800098c8:	65a6                	ld	a1,72(sp)
    800098ca:	f1ae                	sd	a1,224(sp)
    800098cc:	6586                	ld	a1,64(sp)
    800098ce:	f5ae                	sd	a1,232(sp)
    800098d0:	75e2                	ld	a1,56(sp)
    800098d2:	f9ae                	sd	a1,240(sp)
    800098d4:	092c                	addi	a1,sp,152
    800098d6:	193c                	addi	a5,sp,184
    800098d8:	fc87b603          	ld	a2,-56(a5)
    800098dc:	6398                	ld	a4,0(a5)
    800098de:	fd07b403          	ld	s0,-48(a5)
    800098e2:	6784                	ld	s1,8(a5)
    800098e4:	02c70c33          	mul	s8,a4,a2
    800098e8:	02848d33          	mul	s10,s1,s0
    800098ec:	0046c413          	xori	s0,a3,4
    800098f0:	040e                	slli	s0,s0,0x3
    800098f2:	9416                	add	s0,s0,t0
    800098f4:	6000                	ld	s0,0(s0)
    800098f6:	6b84                	ld	s1,16(a5)
    800098f8:	6190                	ld	a2,0(a1)
    800098fa:	6f98                	ld	a4,24(a5)
    800098fc:	02848433          	mul	s0,s1,s0
    80009900:	02c70633          	mul	a2,a4,a2
    80009904:	9562                	add	a0,a0,s8
    80009906:	956a                	add	a0,a0,s10
    80009908:	9522                	add	a0,a0,s0
    8000990a:	9532                	add	a0,a0,a2
    8000990c:	0691                	addi	a3,a3,4
    8000990e:	02078793          	addi	a5,a5,32
    80009912:	1581                	addi	a1,a1,-32
    80009914:	fd4692e3          	bne	a3,s4,800098d8 <main+0x7784>
    80009918:	4681                	li	a3,0
    8000991a:	4d01                	li	s10,0
    8000991c:	75c2                	ld	a1,48(sp)
    8000991e:	2ca5b823          	sd	a0,720(a1)
    80009922:	310ebc03          	ld	s8,784(t4)
    80009926:	f89e                	sd	t2,112(sp)
    80009928:	fcf2                	sd	t3,120(sp)
    8000992a:	e162                	sd	s8,128(sp)
    8000992c:	e57a                	sd	t5,136(sp)
    8000992e:	e91a                	sd	t1,144(sp)
    80009930:	ed5e                	sd	s7,152(sp)
    80009932:	f142                	sd	a6,160(sp)
    80009934:	f55a                	sd	s6,168(sp)
    80009936:	450d                	li	a0,3
    80009938:	f92a                	sd	a0,176(sp)
    8000993a:	fd06                	sd	ra,184(sp)
    8000993c:	7526                	ld	a0,104(sp)
    8000993e:	e1aa                	sd	a0,192(sp)
    80009940:	7506                	ld	a0,96(sp)
    80009942:	e5aa                	sd	a0,200(sp)
    80009944:	6566                	ld	a0,88(sp)
    80009946:	e9aa                	sd	a0,208(sp)
    80009948:	6546                	ld	a0,80(sp)
    8000994a:	edaa                	sd	a0,216(sp)
    8000994c:	6526                	ld	a0,72(sp)
    8000994e:	f1aa                	sd	a0,224(sp)
    80009950:	6506                	ld	a0,64(sp)
    80009952:	f5aa                	sd	a0,232(sp)
    80009954:	7562                	ld	a0,56(sp)
    80009956:	f9aa                	sd	a0,240(sp)
    80009958:	85d6                	mv	a1,s5
    8000995a:	87e6                	mv	a5,s9
    8000995c:	fb87b603          	ld	a2,-72(a5)
    80009960:	fe87b703          	ld	a4,-24(a5)
    80009964:	0046c493          	xori	s1,a3,4
    80009968:	048e                	slli	s1,s1,0x3
    8000996a:	9496                	add	s1,s1,t0
    8000996c:	6084                	ld	s1,0(s1)
    8000996e:	ff07b503          	ld	a0,-16(a5)
    80009972:	02c70633          	mul	a2,a4,a2
    80009976:	02950f33          	mul	t5,a0,s1
    8000997a:	ff85b703          	ld	a4,-8(a1)
    8000997e:	ff87b483          	ld	s1,-8(a5)
    80009982:	6180                	ld	s0,0(a1)
    80009984:	6388                	ld	a0,0(a5)
    80009986:	02e48733          	mul	a4,s1,a4
    8000998a:	02850533          	mul	a0,a0,s0
    8000998e:	966a                	add	a2,a2,s10
    80009990:	967a                	add	a2,a2,t5
    80009992:	963a                	add	a2,a2,a4
    80009994:	00a60d33          	add	s10,a2,a0
    80009998:	0691                	addi	a3,a3,4
    8000999a:	02078793          	addi	a5,a5,32
    8000999e:	1581                	addi	a1,a1,-32
    800099a0:	fb469ee3          	bne	a3,s4,8000995c <main+0x7808>
    800099a4:	4581                	li	a1,0
    800099a6:	4081                	li	ra,0
    800099a8:	7542                	ld	a0,48(sp)
    800099aa:	2da53c23          	sd	s10,728(a0)
    800099ae:	318ebf03          	ld	t5,792(t4)
    800099b2:	f89e                	sd	t2,112(sp)
    800099b4:	fcf2                	sd	t3,120(sp)
    800099b6:	e162                	sd	s8,128(sp)
    800099b8:	e57a                	sd	t5,136(sp)
    800099ba:	e91a                	sd	t1,144(sp)
    800099bc:	ed5e                	sd	s7,152(sp)
    800099be:	f142                	sd	a6,160(sp)
    800099c0:	f55a                	sd	s6,168(sp)
    800099c2:	4511                	li	a0,4
    800099c4:	f92a                	sd	a0,176(sp)
    800099c6:	7522                	ld	a0,40(sp)
    800099c8:	fd2a                	sd	a0,184(sp)
    800099ca:	7526                	ld	a0,104(sp)
    800099cc:	e1aa                	sd	a0,192(sp)
    800099ce:	7506                	ld	a0,96(sp)
    800099d0:	e5aa                	sd	a0,200(sp)
    800099d2:	6566                	ld	a0,88(sp)
    800099d4:	e9aa                	sd	a0,208(sp)
    800099d6:	6546                	ld	a0,80(sp)
    800099d8:	edaa                	sd	a0,216(sp)
    800099da:	6526                	ld	a0,72(sp)
    800099dc:	f1aa                	sd	a0,224(sp)
    800099de:	6506                	ld	a0,64(sp)
    800099e0:	f5aa                	sd	a0,232(sp)
    800099e2:	7562                	ld	a0,56(sp)
    800099e4:	f9aa                	sd	a0,240(sp)
    800099e6:	87e6                	mv	a5,s9
    800099e8:	00bf8533          	add	a0,t6,a1
    800099ec:	fe853603          	ld	a2,-24(a0)
    800099f0:	fe87b703          	ld	a4,-24(a5)
    800099f4:	ff053483          	ld	s1,-16(a0)
    800099f8:	ff07b403          	ld	s0,-16(a5)
    800099fc:	02c70633          	mul	a2,a4,a2
    80009a00:	02940733          	mul	a4,s0,s1
    80009a04:	ff853483          	ld	s1,-8(a0)
    80009a08:	ff87b403          	ld	s0,-8(a5)
    80009a0c:	6108                	ld	a0,0(a0)
    80009a0e:	6394                	ld	a3,0(a5)
    80009a10:	029404b3          	mul	s1,s0,s1
    80009a14:	02a68533          	mul	a0,a3,a0
    80009a18:	9606                	add	a2,a2,ra
    80009a1a:	963a                	add	a2,a2,a4
    80009a1c:	9626                	add	a2,a2,s1
    80009a1e:	00a600b3          	add	ra,a2,a0
    80009a22:	1581                	addi	a1,a1,-32
    80009a24:	02078793          	addi	a5,a5,32
    80009a28:	fd1590e3          	bne	a1,a7,800099e8 <main+0x7894>
    80009a2c:	4581                	li	a1,0
    80009a2e:	4d01                	li	s10,0
    80009a30:	7542                	ld	a0,48(sp)
    80009a32:	2e153023          	sd	ra,736(a0)
    80009a36:	320eb303          	ld	t1,800(t4)
    80009a3a:	f89e                	sd	t2,112(sp)
    80009a3c:	fcf2                	sd	t3,120(sp)
    80009a3e:	e162                	sd	s8,128(sp)
    80009a40:	e57a                	sd	t5,136(sp)
    80009a42:	e91a                	sd	t1,144(sp)
    80009a44:	ed5e                	sd	s7,152(sp)
    80009a46:	f142                	sd	a6,160(sp)
    80009a48:	f55a                	sd	s6,168(sp)
    80009a4a:	4515                	li	a0,5
    80009a4c:	f92a                	sd	a0,176(sp)
    80009a4e:	70a2                	ld	ra,40(sp)
    80009a50:	fd06                	sd	ra,184(sp)
    80009a52:	7526                	ld	a0,104(sp)
    80009a54:	e1aa                	sd	a0,192(sp)
    80009a56:	7506                	ld	a0,96(sp)
    80009a58:	e5aa                	sd	a0,200(sp)
    80009a5a:	6566                	ld	a0,88(sp)
    80009a5c:	e9aa                	sd	a0,208(sp)
    80009a5e:	6546                	ld	a0,80(sp)
    80009a60:	edaa                	sd	a0,216(sp)
    80009a62:	6526                	ld	a0,72(sp)
    80009a64:	f1aa                	sd	a0,224(sp)
    80009a66:	6506                	ld	a0,64(sp)
    80009a68:	f5aa                	sd	a0,232(sp)
    80009a6a:	7562                	ld	a0,56(sp)
    80009a6c:	f9aa                	sd	a0,240(sp)
    80009a6e:	86e6                	mv	a3,s9
    80009a70:	00bf8533          	add	a0,t6,a1
    80009a74:	ff053603          	ld	a2,-16(a0)
    80009a78:	fe86b703          	ld	a4,-24(a3)
    80009a7c:	ff853783          	ld	a5,-8(a0)
    80009a80:	ff06b483          	ld	s1,-16(a3)
    80009a84:	02c70633          	mul	a2,a4,a2
    80009a88:	02f48733          	mul	a4,s1,a5
    80009a8c:	6108                	ld	a0,0(a0)
    80009a8e:	ff86b783          	ld	a5,-8(a3)
    80009a92:	fa06b483          	ld	s1,-96(a3)
    80009a96:	6280                	ld	s0,0(a3)
    80009a98:	02a78533          	mul	a0,a5,a0
    80009a9c:	029407b3          	mul	a5,s0,s1
    80009aa0:	966a                	add	a2,a2,s10
    80009aa2:	963a                	add	a2,a2,a4
    80009aa4:	9532                	add	a0,a0,a2
    80009aa6:	00f50d33          	add	s10,a0,a5
    80009aaa:	1581                	addi	a1,a1,-32
    80009aac:	02068693          	addi	a3,a3,32
    80009ab0:	fd1590e3          	bne	a1,a7,80009a70 <main+0x791c>
    80009ab4:	4581                	li	a1,0
    80009ab6:	4681                	li	a3,0
    80009ab8:	7542                	ld	a0,48(sp)
    80009aba:	2fa53423          	sd	s10,744(a0)
    80009abe:	328ebb83          	ld	s7,808(t4)
    80009ac2:	f89e                	sd	t2,112(sp)
    80009ac4:	fcf2                	sd	t3,120(sp)
    80009ac6:	e162                	sd	s8,128(sp)
    80009ac8:	e57a                	sd	t5,136(sp)
    80009aca:	e91a                	sd	t1,144(sp)
    80009acc:	ed5e                	sd	s7,152(sp)
    80009ace:	f142                	sd	a6,160(sp)
    80009ad0:	f55a                	sd	s6,168(sp)
    80009ad2:	4519                	li	a0,6
    80009ad4:	f92a                	sd	a0,176(sp)
    80009ad6:	fd06                	sd	ra,184(sp)
    80009ad8:	7526                	ld	a0,104(sp)
    80009ada:	e1aa                	sd	a0,192(sp)
    80009adc:	7506                	ld	a0,96(sp)
    80009ade:	e5aa                	sd	a0,200(sp)
    80009ae0:	6566                	ld	a0,88(sp)
    80009ae2:	e9aa                	sd	a0,208(sp)
    80009ae4:	6546                	ld	a0,80(sp)
    80009ae6:	edaa                	sd	a0,216(sp)
    80009ae8:	6526                	ld	a0,72(sp)
    80009aea:	f1aa                	sd	a0,224(sp)
    80009aec:	6506                	ld	a0,64(sp)
    80009aee:	f5aa                	sd	a0,232(sp)
    80009af0:	7562                	ld	a0,56(sp)
    80009af2:	f9aa                	sd	a0,240(sp)
    80009af4:	87e6                	mv	a5,s9
    80009af6:	00bf8533          	add	a0,t6,a1
    80009afa:	ff853603          	ld	a2,-8(a0)
    80009afe:	fe87b703          	ld	a4,-24(a5)
    80009b02:	6108                	ld	a0,0(a0)
    80009b04:	ff07b483          	ld	s1,-16(a5)
    80009b08:	02c70633          	mul	a2,a4,a2
    80009b0c:	02a48833          	mul	a6,s1,a0
    80009b10:	fa07b703          	ld	a4,-96(a5)
    80009b14:	ff87b483          	ld	s1,-8(a5)
    80009b18:	fa87b403          	ld	s0,-88(a5)
    80009b1c:	6388                	ld	a0,0(a5)
    80009b1e:	02e48733          	mul	a4,s1,a4
    80009b22:	02850533          	mul	a0,a0,s0
    80009b26:	9636                	add	a2,a2,a3
    80009b28:	9642                	add	a2,a2,a6
    80009b2a:	963a                	add	a2,a2,a4
    80009b2c:	00a606b3          	add	a3,a2,a0
    80009b30:	1581                	addi	a1,a1,-32
    80009b32:	02078793          	addi	a5,a5,32
    80009b36:	fd1590e3          	bne	a1,a7,80009af6 <main+0x79a2>
    80009b3a:	4d01                	li	s10,0
    80009b3c:	7542                	ld	a0,48(sp)
    80009b3e:	2ed53823          	sd	a3,752(a0)
    80009b42:	330eb803          	ld	a6,816(t4)
    80009b46:	f89e                	sd	t2,112(sp)
    80009b48:	fcf2                	sd	t3,120(sp)
    80009b4a:	e162                	sd	s8,128(sp)
    80009b4c:	e57a                	sd	t5,136(sp)
    80009b4e:	e91a                	sd	t1,144(sp)
    80009b50:	ed5e                	sd	s7,152(sp)
    80009b52:	f142                	sd	a6,160(sp)
    80009b54:	f55a                	sd	s6,168(sp)
    80009b56:	451d                	li	a0,7
    80009b58:	f92a                	sd	a0,176(sp)
    80009b5a:	fd06                	sd	ra,184(sp)
    80009b5c:	7526                	ld	a0,104(sp)
    80009b5e:	e1aa                	sd	a0,192(sp)
    80009b60:	7506                	ld	a0,96(sp)
    80009b62:	e5aa                	sd	a0,200(sp)
    80009b64:	6566                	ld	a0,88(sp)
    80009b66:	e9aa                	sd	a0,208(sp)
    80009b68:	6546                	ld	a0,80(sp)
    80009b6a:	edaa                	sd	a0,216(sp)
    80009b6c:	6526                	ld	a0,72(sp)
    80009b6e:	f1aa                	sd	a0,224(sp)
    80009b70:	6506                	ld	a0,64(sp)
    80009b72:	f5aa                	sd	a0,232(sp)
    80009b74:	7562                	ld	a0,56(sp)
    80009b76:	f9aa                	sd	a0,240(sp)
    80009b78:	03800693          	li	a3,56
    80009b7c:	87e6                	mv	a5,s9
    80009b7e:	00dc8533          	add	a0,s9,a3
    80009b82:	fa053503          	ld	a0,-96(a0)
    80009b86:	fe87b603          	ld	a2,-24(a5)
    80009b8a:	fa07b703          	ld	a4,-96(a5)
    80009b8e:	ff07b403          	ld	s0,-16(a5)
    80009b92:	02a60533          	mul	a0,a2,a0
    80009b96:	02e40633          	mul	a2,s0,a4
    80009b9a:	fa87b703          	ld	a4,-88(a5)
    80009b9e:	ff87b403          	ld	s0,-8(a5)
    80009ba2:	fb07b483          	ld	s1,-80(a5)
    80009ba6:	638c                	ld	a1,0(a5)
    80009ba8:	02e40733          	mul	a4,s0,a4
    80009bac:	029585b3          	mul	a1,a1,s1
    80009bb0:	956a                	add	a0,a0,s10
    80009bb2:	9532                	add	a0,a0,a2
    80009bb4:	953a                	add	a0,a0,a4
    80009bb6:	00b50d33          	add	s10,a0,a1
    80009bba:	1681                	addi	a3,a3,-32
    80009bbc:	02078793          	addi	a5,a5,32
    80009bc0:	fb369fe3          	bne	a3,s3,80009b7e <main+0x7a2a>
    80009bc4:	4401                	li	s0,0
    80009bc6:	7542                	ld	a0,48(sp)
    80009bc8:	2fa53c23          	sd	s10,760(a0)
    80009bcc:	338ebb03          	ld	s6,824(t4)
    80009bd0:	f89e                	sd	t2,112(sp)
    80009bd2:	fcf2                	sd	t3,120(sp)
    80009bd4:	e162                	sd	s8,128(sp)
    80009bd6:	e57a                	sd	t5,136(sp)
    80009bd8:	e91a                	sd	t1,144(sp)
    80009bda:	ed5e                	sd	s7,152(sp)
    80009bdc:	f142                	sd	a6,160(sp)
    80009bde:	f55a                	sd	s6,168(sp)
    80009be0:	f902                	sd	zero,176(sp)
    80009be2:	fd06                	sd	ra,184(sp)
    80009be4:	7526                	ld	a0,104(sp)
    80009be6:	e1aa                	sd	a0,192(sp)
    80009be8:	7506                	ld	a0,96(sp)
    80009bea:	e5aa                	sd	a0,200(sp)
    80009bec:	6566                	ld	a0,88(sp)
    80009bee:	e9aa                	sd	a0,208(sp)
    80009bf0:	6546                	ld	a0,80(sp)
    80009bf2:	edaa                	sd	a0,216(sp)
    80009bf4:	6526                	ld	a0,72(sp)
    80009bf6:	f1aa                	sd	a0,224(sp)
    80009bf8:	6506                	ld	a0,64(sp)
    80009bfa:	f5aa                	sd	a0,232(sp)
    80009bfc:	7562                	ld	a0,56(sp)
    80009bfe:	f9aa                	sd	a0,240(sp)
    80009c00:	fc000593          	li	a1,-64
    80009c04:	0b810393          	addi	t2,sp,184
    80009c08:	00b38533          	add	a0,t2,a1
    80009c0c:	ff853603          	ld	a2,-8(a0)
    80009c10:	6134                	ld	a3,64(a0)
    80009c12:	02c68633          	mul	a2,a3,a2
    80009c16:	6114                	ld	a3,0(a0)
    80009c18:	6538                	ld	a4,72(a0)
    80009c1a:	651c                	ld	a5,8(a0)
    80009c1c:	6924                	ld	s1,80(a0)
    80009c1e:	02d706b3          	mul	a3,a4,a3
    80009c22:	02f48733          	mul	a4,s1,a5
    80009c26:	691c                	ld	a5,16(a0)
    80009c28:	6d28                	ld	a0,88(a0)
    80009c2a:	9622                	add	a2,a2,s0
    80009c2c:	02f50533          	mul	a0,a0,a5
    80009c30:	9636                	add	a2,a2,a3
    80009c32:	963a                	add	a2,a2,a4
    80009c34:	02058593          	addi	a1,a1,32
    80009c38:	00a60433          	add	s0,a2,a0
    80009c3c:	f5f1                	bnez	a1,80009c08 <main+0x7ab4>
    80009c3e:	4681                	li	a3,0
    80009c40:	879e                	mv	a5,t2
    80009c42:	340eb383          	ld	t2,832(t4)
    80009c46:	7542                	ld	a0,48(sp)
    80009c48:	30853023          	sd	s0,768(a0)
    80009c4c:	f89e                	sd	t2,112(sp)
    80009c4e:	fcf2                	sd	t3,120(sp)
    80009c50:	e162                	sd	s8,128(sp)
    80009c52:	e57a                	sd	t5,136(sp)
    80009c54:	e91a                	sd	t1,144(sp)
    80009c56:	ed5e                	sd	s7,152(sp)
    80009c58:	f142                	sd	a6,160(sp)
    80009c5a:	f55a                	sd	s6,168(sp)
    80009c5c:	4505                	li	a0,1
    80009c5e:	f92a                	sd	a0,176(sp)
    80009c60:	fd06                	sd	ra,184(sp)
    80009c62:	7526                	ld	a0,104(sp)
    80009c64:	e1aa                	sd	a0,192(sp)
    80009c66:	7506                	ld	a0,96(sp)
    80009c68:	e5aa                	sd	a0,200(sp)
    80009c6a:	6566                	ld	a0,88(sp)
    80009c6c:	e9aa                	sd	a0,208(sp)
    80009c6e:	6546                	ld	a0,80(sp)
    80009c70:	edaa                	sd	a0,216(sp)
    80009c72:	6526                	ld	a0,72(sp)
    80009c74:	f1aa                	sd	a0,224(sp)
    80009c76:	6506                	ld	a0,64(sp)
    80009c78:	f5aa                	sd	a0,232(sp)
    80009c7a:	7562                	ld	a0,56(sp)
    80009c7c:	f9aa                	sd	a0,240(sp)
    80009c7e:	fc07b503          	ld	a0,-64(a5)
    80009c82:	6390                	ld	a2,0(a5)
    80009c84:	fc87b703          	ld	a4,-56(a5)
    80009c88:	6784                	ld	s1,8(a5)
    80009c8a:	02a60e33          	mul	t3,a2,a0
    80009c8e:	02e48633          	mul	a2,s1,a4
    80009c92:	fd07b703          	ld	a4,-48(a5)
    80009c96:	6b84                	ld	s1,16(a5)
    80009c98:	0046c413          	xori	s0,a3,4
    80009c9c:	040e                	slli	s0,s0,0x3
    80009c9e:	9416                	add	s0,s0,t0
    80009ca0:	6000                	ld	s0,0(s0)
    80009ca2:	6f88                	ld	a0,24(a5)
    80009ca4:	02e48733          	mul	a4,s1,a4
    80009ca8:	02850533          	mul	a0,a0,s0
    80009cac:	95f2                	add	a1,a1,t3
    80009cae:	95b2                	add	a1,a1,a2
    80009cb0:	95ba                	add	a1,a1,a4
    80009cb2:	95aa                	add	a1,a1,a0
    80009cb4:	0691                	addi	a3,a3,4
    80009cb6:	02078793          	addi	a5,a5,32
    80009cba:	fd4692e3          	bne	a3,s4,80009c7e <main+0x7b2a>
    80009cbe:	4681                	li	a3,0
    80009cc0:	4401                	li	s0,0
    80009cc2:	7542                	ld	a0,48(sp)
    80009cc4:	30b53423          	sd	a1,776(a0)
    80009cc8:	348ebe03          	ld	t3,840(t4)
    80009ccc:	f89e                	sd	t2,112(sp)
    80009cce:	fcf2                	sd	t3,120(sp)
    80009cd0:	e162                	sd	s8,128(sp)
    80009cd2:	e57a                	sd	t5,136(sp)
    80009cd4:	e91a                	sd	t1,144(sp)
    80009cd6:	ed5e                	sd	s7,152(sp)
    80009cd8:	f142                	sd	a6,160(sp)
    80009cda:	f55a                	sd	s6,168(sp)
    80009cdc:	4509                	li	a0,2
    80009cde:	f92a                	sd	a0,176(sp)
    80009ce0:	fd06                	sd	ra,184(sp)
    80009ce2:	7526                	ld	a0,104(sp)
    80009ce4:	e1aa                	sd	a0,192(sp)
    80009ce6:	7506                	ld	a0,96(sp)
    80009ce8:	e5aa                	sd	a0,200(sp)
    80009cea:	6566                	ld	a0,88(sp)
    80009cec:	e9aa                	sd	a0,208(sp)
    80009cee:	6546                	ld	a0,80(sp)
    80009cf0:	edaa                	sd	a0,216(sp)
    80009cf2:	6526                	ld	a0,72(sp)
    80009cf4:	f1aa                	sd	a0,224(sp)
    80009cf6:	6506                	ld	a0,64(sp)
    80009cf8:	f5aa                	sd	a0,232(sp)
    80009cfa:	7562                	ld	a0,56(sp)
    80009cfc:	f9aa                	sd	a0,240(sp)
    80009cfe:	0928                	addi	a0,sp,152
    80009d00:	192c                	addi	a1,sp,184
    80009d02:	fc85b603          	ld	a2,-56(a1)
    80009d06:	6198                	ld	a4,0(a1)
    80009d08:	fd05b783          	ld	a5,-48(a1)
    80009d0c:	6584                	ld	s1,8(a1)
    80009d0e:	02c70c33          	mul	s8,a4,a2
    80009d12:	02f48d33          	mul	s10,s1,a5
    80009d16:	0046c793          	xori	a5,a3,4
    80009d1a:	078e                	slli	a5,a5,0x3
    80009d1c:	9796                	add	a5,a5,t0
    80009d1e:	639c                	ld	a5,0(a5)
    80009d20:	6984                	ld	s1,16(a1)
    80009d22:	6110                	ld	a2,0(a0)
    80009d24:	6d98                	ld	a4,24(a1)
    80009d26:	02f487b3          	mul	a5,s1,a5
    80009d2a:	02c70633          	mul	a2,a4,a2
    80009d2e:	008c0733          	add	a4,s8,s0
    80009d32:	976a                	add	a4,a4,s10
    80009d34:	973e                	add	a4,a4,a5
    80009d36:	00c70433          	add	s0,a4,a2
    80009d3a:	0691                	addi	a3,a3,4
    80009d3c:	02058593          	addi	a1,a1,32
    80009d40:	1501                	addi	a0,a0,-32
    80009d42:	fd4690e3          	bne	a3,s4,80009d02 <main+0x7bae>
    80009d46:	4681                	li	a3,0
    80009d48:	4d01                	li	s10,0
    80009d4a:	7542                	ld	a0,48(sp)
    80009d4c:	30853823          	sd	s0,784(a0)
    80009d50:	350ebc03          	ld	s8,848(t4)
    80009d54:	f89e                	sd	t2,112(sp)
    80009d56:	fcf2                	sd	t3,120(sp)
    80009d58:	e162                	sd	s8,128(sp)
    80009d5a:	e57a                	sd	t5,136(sp)
    80009d5c:	e91a                	sd	t1,144(sp)
    80009d5e:	ed5e                	sd	s7,152(sp)
    80009d60:	f142                	sd	a6,160(sp)
    80009d62:	f55a                	sd	s6,168(sp)
    80009d64:	450d                	li	a0,3
    80009d66:	f92a                	sd	a0,176(sp)
    80009d68:	fd06                	sd	ra,184(sp)
    80009d6a:	7526                	ld	a0,104(sp)
    80009d6c:	e1aa                	sd	a0,192(sp)
    80009d6e:	7506                	ld	a0,96(sp)
    80009d70:	e5aa                	sd	a0,200(sp)
    80009d72:	6566                	ld	a0,88(sp)
    80009d74:	e9aa                	sd	a0,208(sp)
    80009d76:	6546                	ld	a0,80(sp)
    80009d78:	edaa                	sd	a0,216(sp)
    80009d7a:	6526                	ld	a0,72(sp)
    80009d7c:	f1aa                	sd	a0,224(sp)
    80009d7e:	6506                	ld	a0,64(sp)
    80009d80:	f5aa                	sd	a0,232(sp)
    80009d82:	7562                	ld	a0,56(sp)
    80009d84:	f9aa                	sd	a0,240(sp)
    80009d86:	85d6                	mv	a1,s5
    80009d88:	87e6                	mv	a5,s9
    80009d8a:	fb87b603          	ld	a2,-72(a5)
    80009d8e:	fe87b703          	ld	a4,-24(a5)
    80009d92:	0046c493          	xori	s1,a3,4
    80009d96:	048e                	slli	s1,s1,0x3
    80009d98:	9496                	add	s1,s1,t0
    80009d9a:	6084                	ld	s1,0(s1)
    80009d9c:	ff07b403          	ld	s0,-16(a5)
    80009da0:	02c70f33          	mul	t5,a4,a2
    80009da4:	02940733          	mul	a4,s0,s1
    80009da8:	ff85b483          	ld	s1,-8(a1)
    80009dac:	ff87b403          	ld	s0,-8(a5)
    80009db0:	6188                	ld	a0,0(a1)
    80009db2:	6390                	ld	a2,0(a5)
    80009db4:	02940433          	mul	s0,s0,s1
    80009db8:	02a60533          	mul	a0,a2,a0
    80009dbc:	01af0633          	add	a2,t5,s10
    80009dc0:	963a                	add	a2,a2,a4
    80009dc2:	9622                	add	a2,a2,s0
    80009dc4:	00a60d33          	add	s10,a2,a0
    80009dc8:	0691                	addi	a3,a3,4
    80009dca:	02078793          	addi	a5,a5,32
    80009dce:	1581                	addi	a1,a1,-32
    80009dd0:	fb469de3          	bne	a3,s4,80009d8a <main+0x7c36>
    80009dd4:	4581                	li	a1,0
    80009dd6:	4081                	li	ra,0
    80009dd8:	7542                	ld	a0,48(sp)
    80009dda:	31a53c23          	sd	s10,792(a0)
    80009dde:	358ebf03          	ld	t5,856(t4)
    80009de2:	f89e                	sd	t2,112(sp)
    80009de4:	fcf2                	sd	t3,120(sp)
    80009de6:	e162                	sd	s8,128(sp)
    80009de8:	e57a                	sd	t5,136(sp)
    80009dea:	e91a                	sd	t1,144(sp)
    80009dec:	ed5e                	sd	s7,152(sp)
    80009dee:	f142                	sd	a6,160(sp)
    80009df0:	f55a                	sd	s6,168(sp)
    80009df2:	4511                	li	a0,4
    80009df4:	f92a                	sd	a0,176(sp)
    80009df6:	7522                	ld	a0,40(sp)
    80009df8:	fd2a                	sd	a0,184(sp)
    80009dfa:	7526                	ld	a0,104(sp)
    80009dfc:	e1aa                	sd	a0,192(sp)
    80009dfe:	7506                	ld	a0,96(sp)
    80009e00:	e5aa                	sd	a0,200(sp)
    80009e02:	6566                	ld	a0,88(sp)
    80009e04:	e9aa                	sd	a0,208(sp)
    80009e06:	6546                	ld	a0,80(sp)
    80009e08:	edaa                	sd	a0,216(sp)
    80009e0a:	6526                	ld	a0,72(sp)
    80009e0c:	f1aa                	sd	a0,224(sp)
    80009e0e:	6506                	ld	a0,64(sp)
    80009e10:	f5aa                	sd	a0,232(sp)
    80009e12:	7562                	ld	a0,56(sp)
    80009e14:	f9aa                	sd	a0,240(sp)
    80009e16:	8566                	mv	a0,s9
    80009e18:	00bf8633          	add	a2,t6,a1
    80009e1c:	fe863703          	ld	a4,-24(a2)
    80009e20:	fe853783          	ld	a5,-24(a0)
    80009e24:	ff063483          	ld	s1,-16(a2)
    80009e28:	ff053403          	ld	s0,-16(a0)
    80009e2c:	02e78733          	mul	a4,a5,a4
    80009e30:	029407b3          	mul	a5,s0,s1
    80009e34:	ff863483          	ld	s1,-8(a2)
    80009e38:	ff853403          	ld	s0,-8(a0)
    80009e3c:	6210                	ld	a2,0(a2)
    80009e3e:	6114                	ld	a3,0(a0)
    80009e40:	029404b3          	mul	s1,s0,s1
    80009e44:	02c68633          	mul	a2,a3,a2
    80009e48:	001706b3          	add	a3,a4,ra
    80009e4c:	96be                	add	a3,a3,a5
    80009e4e:	96a6                	add	a3,a3,s1
    80009e50:	00c680b3          	add	ra,a3,a2
    80009e54:	1581                	addi	a1,a1,-32
    80009e56:	02050513          	addi	a0,a0,32
    80009e5a:	fb159fe3          	bne	a1,a7,80009e18 <main+0x7cc4>
    80009e5e:	4501                	li	a0,0
    80009e60:	4d01                	li	s10,0
    80009e62:	75c2                	ld	a1,48(sp)
    80009e64:	3215b023          	sd	ra,800(a1)
    80009e68:	360eb303          	ld	t1,864(t4)
    80009e6c:	f89e                	sd	t2,112(sp)
    80009e6e:	fcf2                	sd	t3,120(sp)
    80009e70:	e162                	sd	s8,128(sp)
    80009e72:	e57a                	sd	t5,136(sp)
    80009e74:	e91a                	sd	t1,144(sp)
    80009e76:	ed5e                	sd	s7,152(sp)
    80009e78:	f142                	sd	a6,160(sp)
    80009e7a:	f55a                	sd	s6,168(sp)
    80009e7c:	4595                	li	a1,5
    80009e7e:	f92e                	sd	a1,176(sp)
    80009e80:	70a2                	ld	ra,40(sp)
    80009e82:	fd06                	sd	ra,184(sp)
    80009e84:	75a6                	ld	a1,104(sp)
    80009e86:	e1ae                	sd	a1,192(sp)
    80009e88:	7586                	ld	a1,96(sp)
    80009e8a:	e5ae                	sd	a1,200(sp)
    80009e8c:	65e6                	ld	a1,88(sp)
    80009e8e:	e9ae                	sd	a1,208(sp)
    80009e90:	65c6                	ld	a1,80(sp)
    80009e92:	edae                	sd	a1,216(sp)
    80009e94:	65a6                	ld	a1,72(sp)
    80009e96:	f1ae                	sd	a1,224(sp)
    80009e98:	6586                	ld	a1,64(sp)
    80009e9a:	f5ae                	sd	a1,232(sp)
    80009e9c:	75e2                	ld	a1,56(sp)
    80009e9e:	f9ae                	sd	a1,240(sp)
    80009ea0:	86e6                	mv	a3,s9
    80009ea2:	00af8633          	add	a2,t6,a0
    80009ea6:	ff063703          	ld	a4,-16(a2)
    80009eaa:	fe86b783          	ld	a5,-24(a3)
    80009eae:	ff863403          	ld	s0,-8(a2)
    80009eb2:	ff06b483          	ld	s1,-16(a3)
    80009eb6:	02e78733          	mul	a4,a5,a4
    80009eba:	028487b3          	mul	a5,s1,s0
    80009ebe:	6210                	ld	a2,0(a2)
    80009ec0:	ff86b403          	ld	s0,-8(a3)
    80009ec4:	fa06b483          	ld	s1,-96(a3)
    80009ec8:	628c                	ld	a1,0(a3)
    80009eca:	02c40633          	mul	a2,s0,a2
    80009ece:	029585b3          	mul	a1,a1,s1
    80009ed2:	976a                	add	a4,a4,s10
    80009ed4:	973e                	add	a4,a4,a5
    80009ed6:	963a                	add	a2,a2,a4
    80009ed8:	00b60d33          	add	s10,a2,a1
    80009edc:	1501                	addi	a0,a0,-32
    80009ede:	02068693          	addi	a3,a3,32
    80009ee2:	fd1510e3          	bne	a0,a7,80009ea2 <main+0x7d4e>
    80009ee6:	4501                	li	a0,0
    80009ee8:	4681                	li	a3,0
    80009eea:	75c2                	ld	a1,48(sp)
    80009eec:	33a5b423          	sd	s10,808(a1)
    80009ef0:	368ebb83          	ld	s7,872(t4)
    80009ef4:	f89e                	sd	t2,112(sp)
    80009ef6:	fcf2                	sd	t3,120(sp)
    80009ef8:	e162                	sd	s8,128(sp)
    80009efa:	e57a                	sd	t5,136(sp)
    80009efc:	e91a                	sd	t1,144(sp)
    80009efe:	ed5e                	sd	s7,152(sp)
    80009f00:	f142                	sd	a6,160(sp)
    80009f02:	f55a                	sd	s6,168(sp)
    80009f04:	4599                	li	a1,6
    80009f06:	f92e                	sd	a1,176(sp)
    80009f08:	fd06                	sd	ra,184(sp)
    80009f0a:	75a6                	ld	a1,104(sp)
    80009f0c:	e1ae                	sd	a1,192(sp)
    80009f0e:	7586                	ld	a1,96(sp)
    80009f10:	e5ae                	sd	a1,200(sp)
    80009f12:	65e6                	ld	a1,88(sp)
    80009f14:	e9ae                	sd	a1,208(sp)
    80009f16:	65c6                	ld	a1,80(sp)
    80009f18:	edae                	sd	a1,216(sp)
    80009f1a:	65a6                	ld	a1,72(sp)
    80009f1c:	f1ae                	sd	a1,224(sp)
    80009f1e:	6586                	ld	a1,64(sp)
    80009f20:	f5ae                	sd	a1,232(sp)
    80009f22:	75e2                	ld	a1,56(sp)
    80009f24:	f9ae                	sd	a1,240(sp)
    80009f26:	85e6                	mv	a1,s9
    80009f28:	00af8633          	add	a2,t6,a0
    80009f2c:	ff863703          	ld	a4,-8(a2)
    80009f30:	fe85b783          	ld	a5,-24(a1)
    80009f34:	6210                	ld	a2,0(a2)
    80009f36:	ff05b483          	ld	s1,-16(a1)
    80009f3a:	02e78733          	mul	a4,a5,a4
    80009f3e:	02c48833          	mul	a6,s1,a2
    80009f42:	fa05b783          	ld	a5,-96(a1)
    80009f46:	ff85b483          	ld	s1,-8(a1)
    80009f4a:	fa85b403          	ld	s0,-88(a1)
    80009f4e:	6190                	ld	a2,0(a1)
    80009f50:	02f487b3          	mul	a5,s1,a5
    80009f54:	02860633          	mul	a2,a2,s0
    80009f58:	96ba                	add	a3,a3,a4
    80009f5a:	96c2                	add	a3,a3,a6
    80009f5c:	96be                	add	a3,a3,a5
    80009f5e:	96b2                	add	a3,a3,a2
    80009f60:	1501                	addi	a0,a0,-32
    80009f62:	02058593          	addi	a1,a1,32
    80009f66:	fd1511e3          	bne	a0,a7,80009f28 <main+0x7dd4>
    80009f6a:	4d01                	li	s10,0
    80009f6c:	7542                	ld	a0,48(sp)
    80009f6e:	32d53823          	sd	a3,816(a0)
    80009f72:	370eb803          	ld	a6,880(t4)
    80009f76:	f89e                	sd	t2,112(sp)
    80009f78:	fcf2                	sd	t3,120(sp)
    80009f7a:	e162                	sd	s8,128(sp)
    80009f7c:	e57a                	sd	t5,136(sp)
    80009f7e:	e91a                	sd	t1,144(sp)
    80009f80:	ed5e                	sd	s7,152(sp)
    80009f82:	f142                	sd	a6,160(sp)
    80009f84:	f55a                	sd	s6,168(sp)
    80009f86:	451d                	li	a0,7
    80009f88:	f92a                	sd	a0,176(sp)
    80009f8a:	fd06                	sd	ra,184(sp)
    80009f8c:	7526                	ld	a0,104(sp)
    80009f8e:	e1aa                	sd	a0,192(sp)
    80009f90:	7506                	ld	a0,96(sp)
    80009f92:	e5aa                	sd	a0,200(sp)
    80009f94:	6566                	ld	a0,88(sp)
    80009f96:	e9aa                	sd	a0,208(sp)
    80009f98:	6546                	ld	a0,80(sp)
    80009f9a:	edaa                	sd	a0,216(sp)
    80009f9c:	6526                	ld	a0,72(sp)
    80009f9e:	f1aa                	sd	a0,224(sp)
    80009fa0:	6506                	ld	a0,64(sp)
    80009fa2:	f5aa                	sd	a0,232(sp)
    80009fa4:	7562                	ld	a0,56(sp)
    80009fa6:	f9aa                	sd	a0,240(sp)
    80009fa8:	03800593          	li	a1,56
    80009fac:	86e6                	mv	a3,s9
    80009fae:	00bc8633          	add	a2,s9,a1
    80009fb2:	fa063603          	ld	a2,-96(a2)
    80009fb6:	fe86b703          	ld	a4,-24(a3)
    80009fba:	fa06b783          	ld	a5,-96(a3)
    80009fbe:	ff06b403          	ld	s0,-16(a3)
    80009fc2:	02c70633          	mul	a2,a4,a2
    80009fc6:	02f40733          	mul	a4,s0,a5
    80009fca:	fa86b783          	ld	a5,-88(a3)
    80009fce:	ff86b403          	ld	s0,-8(a3)
    80009fd2:	fb06b483          	ld	s1,-80(a3)
    80009fd6:	6288                	ld	a0,0(a3)
    80009fd8:	02f407b3          	mul	a5,s0,a5
    80009fdc:	02950533          	mul	a0,a0,s1
    80009fe0:	966a                	add	a2,a2,s10
    80009fe2:	963a                	add	a2,a2,a4
    80009fe4:	963e                	add	a2,a2,a5
    80009fe6:	00a60d33          	add	s10,a2,a0
    80009fea:	1581                	addi	a1,a1,-32
    80009fec:	02068693          	addi	a3,a3,32
    80009ff0:	fb359fe3          	bne	a1,s3,80009fae <main+0x7e5a>
    80009ff4:	4681                	li	a3,0
    80009ff6:	7542                	ld	a0,48(sp)
    80009ff8:	33a53c23          	sd	s10,824(a0)
    80009ffc:	378ebb03          	ld	s6,888(t4)
    8000a000:	f89e                	sd	t2,112(sp)
    8000a002:	fcf2                	sd	t3,120(sp)
    8000a004:	e162                	sd	s8,128(sp)
    8000a006:	e57a                	sd	t5,136(sp)
    8000a008:	e91a                	sd	t1,144(sp)
    8000a00a:	ed5e                	sd	s7,152(sp)
    8000a00c:	f142                	sd	a6,160(sp)
    8000a00e:	f55a                	sd	s6,168(sp)
    8000a010:	f902                	sd	zero,176(sp)
    8000a012:	fd06                	sd	ra,184(sp)
    8000a014:	7526                	ld	a0,104(sp)
    8000a016:	e1aa                	sd	a0,192(sp)
    8000a018:	7506                	ld	a0,96(sp)
    8000a01a:	e5aa                	sd	a0,200(sp)
    8000a01c:	6566                	ld	a0,88(sp)
    8000a01e:	e9aa                	sd	a0,208(sp)
    8000a020:	6546                	ld	a0,80(sp)
    8000a022:	edaa                	sd	a0,216(sp)
    8000a024:	6526                	ld	a0,72(sp)
    8000a026:	f1aa                	sd	a0,224(sp)
    8000a028:	6506                	ld	a0,64(sp)
    8000a02a:	f5aa                	sd	a0,232(sp)
    8000a02c:	7562                	ld	a0,56(sp)
    8000a02e:	f9aa                	sd	a0,240(sp)
    8000a030:	fc000513          	li	a0,-64
    8000a034:	0b810393          	addi	t2,sp,184
    8000a038:	00a385b3          	add	a1,t2,a0
    8000a03c:	ff85b603          	ld	a2,-8(a1)
    8000a040:	61b8                	ld	a4,64(a1)
    8000a042:	02c70633          	mul	a2,a4,a2
    8000a046:	6198                	ld	a4,0(a1)
    8000a048:	65bc                	ld	a5,72(a1)
    8000a04a:	6584                	ld	s1,8(a1)
    8000a04c:	69a0                	ld	s0,80(a1)
    8000a04e:	02e78733          	mul	a4,a5,a4
    8000a052:	029407b3          	mul	a5,s0,s1
    8000a056:	6984                	ld	s1,16(a1)
    8000a058:	6dac                	ld	a1,88(a1)
    8000a05a:	9636                	add	a2,a2,a3
    8000a05c:	029585b3          	mul	a1,a1,s1
    8000a060:	963a                	add	a2,a2,a4
    8000a062:	963e                	add	a2,a2,a5
    8000a064:	02050513          	addi	a0,a0,32
    8000a068:	00b606b3          	add	a3,a2,a1
    8000a06c:	f571                	bnez	a0,8000a038 <main+0x7ee4>
    8000a06e:	4581                	li	a1,0
    8000a070:	871e                	mv	a4,t2
    8000a072:	380eb383          	ld	t2,896(t4)
    8000a076:	7642                	ld	a2,48(sp)
    8000a078:	34d63023          	sd	a3,832(a2)
    8000a07c:	f89e                	sd	t2,112(sp)
    8000a07e:	fcf2                	sd	t3,120(sp)
    8000a080:	e162                	sd	s8,128(sp)
    8000a082:	e57a                	sd	t5,136(sp)
    8000a084:	e91a                	sd	t1,144(sp)
    8000a086:	ed5e                	sd	s7,152(sp)
    8000a088:	f142                	sd	a6,160(sp)
    8000a08a:	f55a                	sd	s6,168(sp)
    8000a08c:	4605                	li	a2,1
    8000a08e:	f932                	sd	a2,176(sp)
    8000a090:	fd06                	sd	ra,184(sp)
    8000a092:	7626                	ld	a2,104(sp)
    8000a094:	e1b2                	sd	a2,192(sp)
    8000a096:	7606                	ld	a2,96(sp)
    8000a098:	e5b2                	sd	a2,200(sp)
    8000a09a:	6666                	ld	a2,88(sp)
    8000a09c:	e9b2                	sd	a2,208(sp)
    8000a09e:	6646                	ld	a2,80(sp)
    8000a0a0:	edb2                	sd	a2,216(sp)
    8000a0a2:	6626                	ld	a2,72(sp)
    8000a0a4:	f1b2                	sd	a2,224(sp)
    8000a0a6:	6606                	ld	a2,64(sp)
    8000a0a8:	f5b2                	sd	a2,232(sp)
    8000a0aa:	7662                	ld	a2,56(sp)
    8000a0ac:	f9b2                	sd	a2,240(sp)
    8000a0ae:	86ba                	mv	a3,a4
    8000a0b0:	fc06b603          	ld	a2,-64(a3)
    8000a0b4:	6298                	ld	a4,0(a3)
    8000a0b6:	fc86b783          	ld	a5,-56(a3)
    8000a0ba:	6684                	ld	s1,8(a3)
    8000a0bc:	02c70e33          	mul	t3,a4,a2
    8000a0c0:	02f48733          	mul	a4,s1,a5
    8000a0c4:	fd06b783          	ld	a5,-48(a3)
    8000a0c8:	6a84                	ld	s1,16(a3)
    8000a0ca:	00454413          	xori	s0,a0,4
    8000a0ce:	040e                	slli	s0,s0,0x3
    8000a0d0:	9416                	add	s0,s0,t0
    8000a0d2:	6000                	ld	s0,0(s0)
    8000a0d4:	6e90                	ld	a2,24(a3)
    8000a0d6:	02f487b3          	mul	a5,s1,a5
    8000a0da:	02860633          	mul	a2,a2,s0
    8000a0de:	95f2                	add	a1,a1,t3
    8000a0e0:	95ba                	add	a1,a1,a4
    8000a0e2:	95be                	add	a1,a1,a5
    8000a0e4:	95b2                	add	a1,a1,a2
    8000a0e6:	0511                	addi	a0,a0,4
    8000a0e8:	02068693          	addi	a3,a3,32
    8000a0ec:	fd4512e3          	bne	a0,s4,8000a0b0 <main+0x7f5c>
    8000a0f0:	4681                	li	a3,0
    8000a0f2:	4401                	li	s0,0
    8000a0f4:	7542                	ld	a0,48(sp)
    8000a0f6:	34b53423          	sd	a1,840(a0)
    8000a0fa:	388ebe03          	ld	t3,904(t4)
    8000a0fe:	f89e                	sd	t2,112(sp)
    8000a100:	fcf2                	sd	t3,120(sp)
    8000a102:	e162                	sd	s8,128(sp)
    8000a104:	e57a                	sd	t5,136(sp)
    8000a106:	e91a                	sd	t1,144(sp)
    8000a108:	ed5e                	sd	s7,152(sp)
    8000a10a:	f142                	sd	a6,160(sp)
    8000a10c:	f55a                	sd	s6,168(sp)
    8000a10e:	4509                	li	a0,2
    8000a110:	f92a                	sd	a0,176(sp)
    8000a112:	fd06                	sd	ra,184(sp)
    8000a114:	7526                	ld	a0,104(sp)
    8000a116:	e1aa                	sd	a0,192(sp)
    8000a118:	7506                	ld	a0,96(sp)
    8000a11a:	e5aa                	sd	a0,200(sp)
    8000a11c:	6566                	ld	a0,88(sp)
    8000a11e:	e9aa                	sd	a0,208(sp)
    8000a120:	6546                	ld	a0,80(sp)
    8000a122:	edaa                	sd	a0,216(sp)
    8000a124:	6526                	ld	a0,72(sp)
    8000a126:	f1aa                	sd	a0,224(sp)
    8000a128:	6506                	ld	a0,64(sp)
    8000a12a:	f5aa                	sd	a0,232(sp)
    8000a12c:	7562                	ld	a0,56(sp)
    8000a12e:	f9aa                	sd	a0,240(sp)
    8000a130:	0928                	addi	a0,sp,152
    8000a132:	192c                	addi	a1,sp,184
    8000a134:	fc85b603          	ld	a2,-56(a1)
    8000a138:	6198                	ld	a4,0(a1)
    8000a13a:	fd05b783          	ld	a5,-48(a1)
    8000a13e:	6584                	ld	s1,8(a1)
    8000a140:	02c70c33          	mul	s8,a4,a2
    8000a144:	02f48d33          	mul	s10,s1,a5
    8000a148:	0046c793          	xori	a5,a3,4
    8000a14c:	078e                	slli	a5,a5,0x3
    8000a14e:	9796                	add	a5,a5,t0
    8000a150:	639c                	ld	a5,0(a5)
    8000a152:	6984                	ld	s1,16(a1)
    8000a154:	6110                	ld	a2,0(a0)
    8000a156:	6d98                	ld	a4,24(a1)
    8000a158:	02f487b3          	mul	a5,s1,a5
    8000a15c:	02c70633          	mul	a2,a4,a2
    8000a160:	008c0733          	add	a4,s8,s0
    8000a164:	976a                	add	a4,a4,s10
    8000a166:	973e                	add	a4,a4,a5
    8000a168:	00c70433          	add	s0,a4,a2
    8000a16c:	0691                	addi	a3,a3,4
    8000a16e:	02058593          	addi	a1,a1,32
    8000a172:	1501                	addi	a0,a0,-32
    8000a174:	fd4690e3          	bne	a3,s4,8000a134 <main+0x7fe0>
    8000a178:	4501                	li	a0,0
    8000a17a:	4d01                	li	s10,0
    8000a17c:	75c2                	ld	a1,48(sp)
    8000a17e:	3485b823          	sd	s0,848(a1)
    8000a182:	390ebc03          	ld	s8,912(t4)
    8000a186:	f89e                	sd	t2,112(sp)
    8000a188:	fcf2                	sd	t3,120(sp)
    8000a18a:	e162                	sd	s8,128(sp)
    8000a18c:	e57a                	sd	t5,136(sp)
    8000a18e:	e91a                	sd	t1,144(sp)
    8000a190:	ed5e                	sd	s7,152(sp)
    8000a192:	f142                	sd	a6,160(sp)
    8000a194:	f55a                	sd	s6,168(sp)
    8000a196:	458d                	li	a1,3
    8000a198:	f92e                	sd	a1,176(sp)
    8000a19a:	fd06                	sd	ra,184(sp)
    8000a19c:	75a6                	ld	a1,104(sp)
    8000a19e:	e1ae                	sd	a1,192(sp)
    8000a1a0:	7586                	ld	a1,96(sp)
    8000a1a2:	e5ae                	sd	a1,200(sp)
    8000a1a4:	65e6                	ld	a1,88(sp)
    8000a1a6:	e9ae                	sd	a1,208(sp)
    8000a1a8:	65c6                	ld	a1,80(sp)
    8000a1aa:	edae                	sd	a1,216(sp)
    8000a1ac:	65a6                	ld	a1,72(sp)
    8000a1ae:	f1ae                	sd	a1,224(sp)
    8000a1b0:	6586                	ld	a1,64(sp)
    8000a1b2:	f5ae                	sd	a1,232(sp)
    8000a1b4:	75e2                	ld	a1,56(sp)
    8000a1b6:	f9ae                	sd	a1,240(sp)
    8000a1b8:	85d6                	mv	a1,s5
    8000a1ba:	87e6                	mv	a5,s9
    8000a1bc:	fb87b603          	ld	a2,-72(a5)
    8000a1c0:	fe87b703          	ld	a4,-24(a5)
    8000a1c4:	00454493          	xori	s1,a0,4
    8000a1c8:	048e                	slli	s1,s1,0x3
    8000a1ca:	9496                	add	s1,s1,t0
    8000a1cc:	6084                	ld	s1,0(s1)
    8000a1ce:	ff07b403          	ld	s0,-16(a5)
    8000a1d2:	02c70f33          	mul	t5,a4,a2
    8000a1d6:	02940733          	mul	a4,s0,s1
    8000a1da:	ff85b483          	ld	s1,-8(a1)
    8000a1de:	ff87b403          	ld	s0,-8(a5)
    8000a1e2:	6194                	ld	a3,0(a1)
    8000a1e4:	6390                	ld	a2,0(a5)
    8000a1e6:	02940433          	mul	s0,s0,s1
    8000a1ea:	02d60633          	mul	a2,a2,a3
    8000a1ee:	01af06b3          	add	a3,t5,s10
    8000a1f2:	96ba                	add	a3,a3,a4
    8000a1f4:	96a2                	add	a3,a3,s0
    8000a1f6:	00c68d33          	add	s10,a3,a2
    8000a1fa:	0511                	addi	a0,a0,4
    8000a1fc:	02078793          	addi	a5,a5,32
    8000a200:	1581                	addi	a1,a1,-32
    8000a202:	fb451de3          	bne	a0,s4,8000a1bc <main+0x8068>
    8000a206:	4501                	li	a0,0
    8000a208:	4081                	li	ra,0
    8000a20a:	75c2                	ld	a1,48(sp)
    8000a20c:	35a5bc23          	sd	s10,856(a1)
    8000a210:	398ebf03          	ld	t5,920(t4)
    8000a214:	f89e                	sd	t2,112(sp)
    8000a216:	fcf2                	sd	t3,120(sp)
    8000a218:	e162                	sd	s8,128(sp)
    8000a21a:	e57a                	sd	t5,136(sp)
    8000a21c:	e91a                	sd	t1,144(sp)
    8000a21e:	ed5e                	sd	s7,152(sp)
    8000a220:	f142                	sd	a6,160(sp)
    8000a222:	f55a                	sd	s6,168(sp)
    8000a224:	4591                	li	a1,4
    8000a226:	f92e                	sd	a1,176(sp)
    8000a228:	75a2                	ld	a1,40(sp)
    8000a22a:	fd2e                	sd	a1,184(sp)
    8000a22c:	75a6                	ld	a1,104(sp)
    8000a22e:	e1ae                	sd	a1,192(sp)
    8000a230:	7586                	ld	a1,96(sp)
    8000a232:	e5ae                	sd	a1,200(sp)
    8000a234:	65e6                	ld	a1,88(sp)
    8000a236:	e9ae                	sd	a1,208(sp)
    8000a238:	65c6                	ld	a1,80(sp)
    8000a23a:	edae                	sd	a1,216(sp)
    8000a23c:	65a6                	ld	a1,72(sp)
    8000a23e:	f1ae                	sd	a1,224(sp)
    8000a240:	6586                	ld	a1,64(sp)
    8000a242:	f5ae                	sd	a1,232(sp)
    8000a244:	75e2                	ld	a1,56(sp)
    8000a246:	f9ae                	sd	a1,240(sp)
    8000a248:	86e6                	mv	a3,s9
    8000a24a:	00af8633          	add	a2,t6,a0
    8000a24e:	fe863703          	ld	a4,-24(a2)
    8000a252:	fe86b783          	ld	a5,-24(a3)
    8000a256:	ff063483          	ld	s1,-16(a2)
    8000a25a:	ff06b403          	ld	s0,-16(a3)
    8000a25e:	02e78733          	mul	a4,a5,a4
    8000a262:	029407b3          	mul	a5,s0,s1
    8000a266:	ff863483          	ld	s1,-8(a2)
    8000a26a:	ff86b403          	ld	s0,-8(a3)
    8000a26e:	6210                	ld	a2,0(a2)
    8000a270:	628c                	ld	a1,0(a3)
    8000a272:	029404b3          	mul	s1,s0,s1
    8000a276:	02c585b3          	mul	a1,a1,a2
    8000a27a:	00170633          	add	a2,a4,ra
    8000a27e:	963e                	add	a2,a2,a5
    8000a280:	9626                	add	a2,a2,s1
    8000a282:	00b600b3          	add	ra,a2,a1
    8000a286:	1501                	addi	a0,a0,-32
    8000a288:	02068693          	addi	a3,a3,32
    8000a28c:	fb151fe3          	bne	a0,a7,8000a24a <main+0x80f6>
    8000a290:	4501                	li	a0,0
    8000a292:	4d01                	li	s10,0
    8000a294:	75c2                	ld	a1,48(sp)
    8000a296:	3615b023          	sd	ra,864(a1)
    8000a29a:	3a0eb303          	ld	t1,928(t4)
    8000a29e:	f89e                	sd	t2,112(sp)
    8000a2a0:	fcf2                	sd	t3,120(sp)
    8000a2a2:	e162                	sd	s8,128(sp)
    8000a2a4:	e57a                	sd	t5,136(sp)
    8000a2a6:	e91a                	sd	t1,144(sp)
    8000a2a8:	ed5e                	sd	s7,152(sp)
    8000a2aa:	f142                	sd	a6,160(sp)
    8000a2ac:	f55a                	sd	s6,168(sp)
    8000a2ae:	4595                	li	a1,5
    8000a2b0:	f92e                	sd	a1,176(sp)
    8000a2b2:	70a2                	ld	ra,40(sp)
    8000a2b4:	fd06                	sd	ra,184(sp)
    8000a2b6:	75a6                	ld	a1,104(sp)
    8000a2b8:	e1ae                	sd	a1,192(sp)
    8000a2ba:	7586                	ld	a1,96(sp)
    8000a2bc:	e5ae                	sd	a1,200(sp)
    8000a2be:	65e6                	ld	a1,88(sp)
    8000a2c0:	e9ae                	sd	a1,208(sp)
    8000a2c2:	65c6                	ld	a1,80(sp)
    8000a2c4:	edae                	sd	a1,216(sp)
    8000a2c6:	65a6                	ld	a1,72(sp)
    8000a2c8:	f1ae                	sd	a1,224(sp)
    8000a2ca:	6586                	ld	a1,64(sp)
    8000a2cc:	f5ae                	sd	a1,232(sp)
    8000a2ce:	75e2                	ld	a1,56(sp)
    8000a2d0:	f9ae                	sd	a1,240(sp)
    8000a2d2:	85e6                	mv	a1,s9
    8000a2d4:	00af8633          	add	a2,t6,a0
    8000a2d8:	ff063703          	ld	a4,-16(a2)
    8000a2dc:	fe85b783          	ld	a5,-24(a1)
    8000a2e0:	ff863403          	ld	s0,-8(a2)
    8000a2e4:	ff05b483          	ld	s1,-16(a1)
    8000a2e8:	02e78733          	mul	a4,a5,a4
    8000a2ec:	028487b3          	mul	a5,s1,s0
    8000a2f0:	6210                	ld	a2,0(a2)
    8000a2f2:	ff85b403          	ld	s0,-8(a1)
    8000a2f6:	fa05b483          	ld	s1,-96(a1)
    8000a2fa:	6194                	ld	a3,0(a1)
    8000a2fc:	02c40633          	mul	a2,s0,a2
    8000a300:	029686b3          	mul	a3,a3,s1
    8000a304:	976a                	add	a4,a4,s10
    8000a306:	973e                	add	a4,a4,a5
    8000a308:	963a                	add	a2,a2,a4
    8000a30a:	00d60d33          	add	s10,a2,a3
    8000a30e:	1501                	addi	a0,a0,-32
    8000a310:	02058593          	addi	a1,a1,32
    8000a314:	fd1510e3          	bne	a0,a7,8000a2d4 <main+0x8180>
    8000a318:	4501                	li	a0,0
    8000a31a:	4581                	li	a1,0
    8000a31c:	7642                	ld	a2,48(sp)
    8000a31e:	37a63423          	sd	s10,872(a2)
    8000a322:	3a8ebb83          	ld	s7,936(t4)
    8000a326:	f89e                	sd	t2,112(sp)
    8000a328:	fcf2                	sd	t3,120(sp)
    8000a32a:	e162                	sd	s8,128(sp)
    8000a32c:	e57a                	sd	t5,136(sp)
    8000a32e:	e91a                	sd	t1,144(sp)
    8000a330:	ed5e                	sd	s7,152(sp)
    8000a332:	f142                	sd	a6,160(sp)
    8000a334:	f55a                	sd	s6,168(sp)
    8000a336:	4619                	li	a2,6
    8000a338:	f932                	sd	a2,176(sp)
    8000a33a:	fd06                	sd	ra,184(sp)
    8000a33c:	7626                	ld	a2,104(sp)
    8000a33e:	e1b2                	sd	a2,192(sp)
    8000a340:	7606                	ld	a2,96(sp)
    8000a342:	e5b2                	sd	a2,200(sp)
    8000a344:	6666                	ld	a2,88(sp)
    8000a346:	e9b2                	sd	a2,208(sp)
    8000a348:	6646                	ld	a2,80(sp)
    8000a34a:	edb2                	sd	a2,216(sp)
    8000a34c:	6626                	ld	a2,72(sp)
    8000a34e:	f1b2                	sd	a2,224(sp)
    8000a350:	6606                	ld	a2,64(sp)
    8000a352:	f5b2                	sd	a2,232(sp)
    8000a354:	7662                	ld	a2,56(sp)
    8000a356:	f9b2                	sd	a2,240(sp)
    8000a358:	86e6                	mv	a3,s9
    8000a35a:	00af8633          	add	a2,t6,a0
    8000a35e:	ff863703          	ld	a4,-8(a2)
    8000a362:	fe86b783          	ld	a5,-24(a3)
    8000a366:	6210                	ld	a2,0(a2)
    8000a368:	ff06b483          	ld	s1,-16(a3)
    8000a36c:	02e78733          	mul	a4,a5,a4
    8000a370:	02c48833          	mul	a6,s1,a2
    8000a374:	fa06b783          	ld	a5,-96(a3)
    8000a378:	ff86b483          	ld	s1,-8(a3)
    8000a37c:	fa86b403          	ld	s0,-88(a3)
    8000a380:	6290                	ld	a2,0(a3)
    8000a382:	02f487b3          	mul	a5,s1,a5
    8000a386:	02860633          	mul	a2,a2,s0
    8000a38a:	95ba                	add	a1,a1,a4
    8000a38c:	95c2                	add	a1,a1,a6
    8000a38e:	95be                	add	a1,a1,a5
    8000a390:	95b2                	add	a1,a1,a2
    8000a392:	1501                	addi	a0,a0,-32
    8000a394:	02068693          	addi	a3,a3,32
    8000a398:	fd1511e3          	bne	a0,a7,8000a35a <main+0x8206>
    8000a39c:	4d01                	li	s10,0
    8000a39e:	7542                	ld	a0,48(sp)
    8000a3a0:	36b53823          	sd	a1,880(a0)
    8000a3a4:	3b0eb803          	ld	a6,944(t4)
    8000a3a8:	f89e                	sd	t2,112(sp)
    8000a3aa:	fcf2                	sd	t3,120(sp)
    8000a3ac:	e162                	sd	s8,128(sp)
    8000a3ae:	e57a                	sd	t5,136(sp)
    8000a3b0:	e91a                	sd	t1,144(sp)
    8000a3b2:	ed5e                	sd	s7,152(sp)
    8000a3b4:	f142                	sd	a6,160(sp)
    8000a3b6:	f55a                	sd	s6,168(sp)
    8000a3b8:	451d                	li	a0,7
    8000a3ba:	f92a                	sd	a0,176(sp)
    8000a3bc:	fd06                	sd	ra,184(sp)
    8000a3be:	7526                	ld	a0,104(sp)
    8000a3c0:	e1aa                	sd	a0,192(sp)
    8000a3c2:	7506                	ld	a0,96(sp)
    8000a3c4:	e5aa                	sd	a0,200(sp)
    8000a3c6:	6566                	ld	a0,88(sp)
    8000a3c8:	e9aa                	sd	a0,208(sp)
    8000a3ca:	6546                	ld	a0,80(sp)
    8000a3cc:	edaa                	sd	a0,216(sp)
    8000a3ce:	6526                	ld	a0,72(sp)
    8000a3d0:	f1aa                	sd	a0,224(sp)
    8000a3d2:	6506                	ld	a0,64(sp)
    8000a3d4:	f5aa                	sd	a0,232(sp)
    8000a3d6:	7562                	ld	a0,56(sp)
    8000a3d8:	f9aa                	sd	a0,240(sp)
    8000a3da:	03800593          	li	a1,56
    8000a3de:	86e6                	mv	a3,s9
    8000a3e0:	00bc8633          	add	a2,s9,a1
    8000a3e4:	fa063603          	ld	a2,-96(a2)
    8000a3e8:	fe86b703          	ld	a4,-24(a3)
    8000a3ec:	fa06b783          	ld	a5,-96(a3)
    8000a3f0:	ff06b403          	ld	s0,-16(a3)
    8000a3f4:	02c70633          	mul	a2,a4,a2
    8000a3f8:	02f40733          	mul	a4,s0,a5
    8000a3fc:	fa86b783          	ld	a5,-88(a3)
    8000a400:	ff86b403          	ld	s0,-8(a3)
    8000a404:	fb06b483          	ld	s1,-80(a3)
    8000a408:	6288                	ld	a0,0(a3)
    8000a40a:	02f407b3          	mul	a5,s0,a5
    8000a40e:	02950533          	mul	a0,a0,s1
    8000a412:	966a                	add	a2,a2,s10
    8000a414:	963a                	add	a2,a2,a4
    8000a416:	963e                	add	a2,a2,a5
    8000a418:	00a60d33          	add	s10,a2,a0
    8000a41c:	1581                	addi	a1,a1,-32
    8000a41e:	02068693          	addi	a3,a3,32
    8000a422:	fb359fe3          	bne	a1,s3,8000a3e0 <main+0x828c>
    8000a426:	4681                	li	a3,0
    8000a428:	7542                	ld	a0,48(sp)
    8000a42a:	37a53c23          	sd	s10,888(a0)
    8000a42e:	3b8ebb03          	ld	s6,952(t4)
    8000a432:	f89e                	sd	t2,112(sp)
    8000a434:	fcf2                	sd	t3,120(sp)
    8000a436:	e162                	sd	s8,128(sp)
    8000a438:	e57a                	sd	t5,136(sp)
    8000a43a:	e91a                	sd	t1,144(sp)
    8000a43c:	ed5e                	sd	s7,152(sp)
    8000a43e:	f142                	sd	a6,160(sp)
    8000a440:	f55a                	sd	s6,168(sp)
    8000a442:	f902                	sd	zero,176(sp)
    8000a444:	fd06                	sd	ra,184(sp)
    8000a446:	7526                	ld	a0,104(sp)
    8000a448:	e1aa                	sd	a0,192(sp)
    8000a44a:	7506                	ld	a0,96(sp)
    8000a44c:	e5aa                	sd	a0,200(sp)
    8000a44e:	6566                	ld	a0,88(sp)
    8000a450:	e9aa                	sd	a0,208(sp)
    8000a452:	6546                	ld	a0,80(sp)
    8000a454:	edaa                	sd	a0,216(sp)
    8000a456:	6526                	ld	a0,72(sp)
    8000a458:	f1aa                	sd	a0,224(sp)
    8000a45a:	6506                	ld	a0,64(sp)
    8000a45c:	f5aa                	sd	a0,232(sp)
    8000a45e:	7562                	ld	a0,56(sp)
    8000a460:	f9aa                	sd	a0,240(sp)
    8000a462:	fc000513          	li	a0,-64
    8000a466:	0b810393          	addi	t2,sp,184
    8000a46a:	00a385b3          	add	a1,t2,a0
    8000a46e:	ff85b603          	ld	a2,-8(a1)
    8000a472:	61b8                	ld	a4,64(a1)
    8000a474:	02c70633          	mul	a2,a4,a2
    8000a478:	6198                	ld	a4,0(a1)
    8000a47a:	65bc                	ld	a5,72(a1)
    8000a47c:	6584                	ld	s1,8(a1)
    8000a47e:	69a0                	ld	s0,80(a1)
    8000a480:	02e78733          	mul	a4,a5,a4
    8000a484:	029407b3          	mul	a5,s0,s1
    8000a488:	6984                	ld	s1,16(a1)
    8000a48a:	6dac                	ld	a1,88(a1)
    8000a48c:	9636                	add	a2,a2,a3
    8000a48e:	029585b3          	mul	a1,a1,s1
    8000a492:	963a                	add	a2,a2,a4
    8000a494:	963e                	add	a2,a2,a5
    8000a496:	02050513          	addi	a0,a0,32
    8000a49a:	00b606b3          	add	a3,a2,a1
    8000a49e:	f571                	bnez	a0,8000a46a <main+0x8316>
    8000a4a0:	4581                	li	a1,0
    8000a4a2:	871e                	mv	a4,t2
    8000a4a4:	3c0eb383          	ld	t2,960(t4)
    8000a4a8:	7642                	ld	a2,48(sp)
    8000a4aa:	38d63023          	sd	a3,896(a2)
    8000a4ae:	f89e                	sd	t2,112(sp)
    8000a4b0:	fcf2                	sd	t3,120(sp)
    8000a4b2:	e162                	sd	s8,128(sp)
    8000a4b4:	e57a                	sd	t5,136(sp)
    8000a4b6:	e91a                	sd	t1,144(sp)
    8000a4b8:	ed5e                	sd	s7,152(sp)
    8000a4ba:	f142                	sd	a6,160(sp)
    8000a4bc:	f55a                	sd	s6,168(sp)
    8000a4be:	4605                	li	a2,1
    8000a4c0:	f932                	sd	a2,176(sp)
    8000a4c2:	fd06                	sd	ra,184(sp)
    8000a4c4:	7626                	ld	a2,104(sp)
    8000a4c6:	e1b2                	sd	a2,192(sp)
    8000a4c8:	7606                	ld	a2,96(sp)
    8000a4ca:	e5b2                	sd	a2,200(sp)
    8000a4cc:	6666                	ld	a2,88(sp)
    8000a4ce:	e9b2                	sd	a2,208(sp)
    8000a4d0:	6646                	ld	a2,80(sp)
    8000a4d2:	edb2                	sd	a2,216(sp)
    8000a4d4:	6626                	ld	a2,72(sp)
    8000a4d6:	f1b2                	sd	a2,224(sp)
    8000a4d8:	6606                	ld	a2,64(sp)
    8000a4da:	f5b2                	sd	a2,232(sp)
    8000a4dc:	7662                	ld	a2,56(sp)
    8000a4de:	f9b2                	sd	a2,240(sp)
    8000a4e0:	86ba                	mv	a3,a4
    8000a4e2:	fc06b603          	ld	a2,-64(a3)
    8000a4e6:	6298                	ld	a4,0(a3)
    8000a4e8:	fc86b783          	ld	a5,-56(a3)
    8000a4ec:	6684                	ld	s1,8(a3)
    8000a4ee:	02c70e33          	mul	t3,a4,a2
    8000a4f2:	02f48733          	mul	a4,s1,a5
    8000a4f6:	fd06b783          	ld	a5,-48(a3)
    8000a4fa:	6a84                	ld	s1,16(a3)
    8000a4fc:	00454413          	xori	s0,a0,4
    8000a500:	040e                	slli	s0,s0,0x3
    8000a502:	9416                	add	s0,s0,t0
    8000a504:	6000                	ld	s0,0(s0)
    8000a506:	6e90                	ld	a2,24(a3)
    8000a508:	02f487b3          	mul	a5,s1,a5
    8000a50c:	02860633          	mul	a2,a2,s0
    8000a510:	95f2                	add	a1,a1,t3
    8000a512:	95ba                	add	a1,a1,a4
    8000a514:	95be                	add	a1,a1,a5
    8000a516:	95b2                	add	a1,a1,a2
    8000a518:	0511                	addi	a0,a0,4
    8000a51a:	02068693          	addi	a3,a3,32
    8000a51e:	fd4512e3          	bne	a0,s4,8000a4e2 <main+0x838e>
    8000a522:	4501                	li	a0,0
    8000a524:	4681                	li	a3,0
    8000a526:	7642                	ld	a2,48(sp)
    8000a528:	38b63423          	sd	a1,904(a2)
    8000a52c:	3c8ebe03          	ld	t3,968(t4)
    8000a530:	f89e                	sd	t2,112(sp)
    8000a532:	fcf2                	sd	t3,120(sp)
    8000a534:	e162                	sd	s8,128(sp)
    8000a536:	e57a                	sd	t5,136(sp)
    8000a538:	e91a                	sd	t1,144(sp)
    8000a53a:	ed5e                	sd	s7,152(sp)
    8000a53c:	f142                	sd	a6,160(sp)
    8000a53e:	f55a                	sd	s6,168(sp)
    8000a540:	4589                	li	a1,2
    8000a542:	f92e                	sd	a1,176(sp)
    8000a544:	fd06                	sd	ra,184(sp)
    8000a546:	75a6                	ld	a1,104(sp)
    8000a548:	e1ae                	sd	a1,192(sp)
    8000a54a:	7586                	ld	a1,96(sp)
    8000a54c:	e5ae                	sd	a1,200(sp)
    8000a54e:	65e6                	ld	a1,88(sp)
    8000a550:	e9ae                	sd	a1,208(sp)
    8000a552:	65c6                	ld	a1,80(sp)
    8000a554:	edae                	sd	a1,216(sp)
    8000a556:	65a6                	ld	a1,72(sp)
    8000a558:	f1ae                	sd	a1,224(sp)
    8000a55a:	6586                	ld	a1,64(sp)
    8000a55c:	f5ae                	sd	a1,232(sp)
    8000a55e:	75e2                	ld	a1,56(sp)
    8000a560:	f9ae                	sd	a1,240(sp)
    8000a562:	092c                	addi	a1,sp,152
    8000a564:	193c                	addi	a5,sp,184
    8000a566:	fc87b603          	ld	a2,-56(a5)
    8000a56a:	6398                	ld	a4,0(a5)
    8000a56c:	fd07b403          	ld	s0,-48(a5)
    8000a570:	6784                	ld	s1,8(a5)
    8000a572:	02c70c33          	mul	s8,a4,a2
    8000a576:	02848d33          	mul	s10,s1,s0
    8000a57a:	00454413          	xori	s0,a0,4
    8000a57e:	040e                	slli	s0,s0,0x3
    8000a580:	9416                	add	s0,s0,t0
    8000a582:	6000                	ld	s0,0(s0)
    8000a584:	6b84                	ld	s1,16(a5)
    8000a586:	6190                	ld	a2,0(a1)
    8000a588:	6f98                	ld	a4,24(a5)
    8000a58a:	02848433          	mul	s0,s1,s0
    8000a58e:	02c70633          	mul	a2,a4,a2
    8000a592:	96e2                	add	a3,a3,s8
    8000a594:	96ea                	add	a3,a3,s10
    8000a596:	96a2                	add	a3,a3,s0
    8000a598:	96b2                	add	a3,a3,a2
    8000a59a:	0511                	addi	a0,a0,4
    8000a59c:	02078793          	addi	a5,a5,32
    8000a5a0:	1581                	addi	a1,a1,-32
    8000a5a2:	fd4512e3          	bne	a0,s4,8000a566 <main+0x8412>
    8000a5a6:	4501                	li	a0,0
    8000a5a8:	4d01                	li	s10,0
    8000a5aa:	75c2                	ld	a1,48(sp)
    8000a5ac:	38d5b823          	sd	a3,912(a1)
    8000a5b0:	3d0ebc03          	ld	s8,976(t4)
    8000a5b4:	f89e                	sd	t2,112(sp)
    8000a5b6:	fcf2                	sd	t3,120(sp)
    8000a5b8:	e162                	sd	s8,128(sp)
    8000a5ba:	e57a                	sd	t5,136(sp)
    8000a5bc:	e91a                	sd	t1,144(sp)
    8000a5be:	ed5e                	sd	s7,152(sp)
    8000a5c0:	f142                	sd	a6,160(sp)
    8000a5c2:	f55a                	sd	s6,168(sp)
    8000a5c4:	458d                	li	a1,3
    8000a5c6:	f92e                	sd	a1,176(sp)
    8000a5c8:	fd06                	sd	ra,184(sp)
    8000a5ca:	75a6                	ld	a1,104(sp)
    8000a5cc:	e1ae                	sd	a1,192(sp)
    8000a5ce:	7586                	ld	a1,96(sp)
    8000a5d0:	e5ae                	sd	a1,200(sp)
    8000a5d2:	65e6                	ld	a1,88(sp)
    8000a5d4:	e9ae                	sd	a1,208(sp)
    8000a5d6:	65c6                	ld	a1,80(sp)
    8000a5d8:	edae                	sd	a1,216(sp)
    8000a5da:	65a6                	ld	a1,72(sp)
    8000a5dc:	f1ae                	sd	a1,224(sp)
    8000a5de:	6586                	ld	a1,64(sp)
    8000a5e0:	f5ae                	sd	a1,232(sp)
    8000a5e2:	75e2                	ld	a1,56(sp)
    8000a5e4:	f9ae                	sd	a1,240(sp)
    8000a5e6:	85d6                	mv	a1,s5
    8000a5e8:	86e6                	mv	a3,s9
    8000a5ea:	fb86b603          	ld	a2,-72(a3)
    8000a5ee:	fe86b703          	ld	a4,-24(a3)
    8000a5f2:	00454793          	xori	a5,a0,4
    8000a5f6:	078e                	slli	a5,a5,0x3
    8000a5f8:	9796                	add	a5,a5,t0
    8000a5fa:	639c                	ld	a5,0(a5)
    8000a5fc:	ff06b483          	ld	s1,-16(a3)
    8000a600:	02c70f33          	mul	t5,a4,a2
    8000a604:	02f48733          	mul	a4,s1,a5
    8000a608:	ff85b783          	ld	a5,-8(a1)
    8000a60c:	ff86b483          	ld	s1,-8(a3)
    8000a610:	6180                	ld	s0,0(a1)
    8000a612:	6290                	ld	a2,0(a3)
    8000a614:	02f487b3          	mul	a5,s1,a5
    8000a618:	02860633          	mul	a2,a2,s0
    8000a61c:	01af04b3          	add	s1,t5,s10
    8000a620:	9726                	add	a4,a4,s1
    8000a622:	973e                	add	a4,a4,a5
    8000a624:	00c70d33          	add	s10,a4,a2
    8000a628:	0511                	addi	a0,a0,4
    8000a62a:	02068693          	addi	a3,a3,32
    8000a62e:	1581                	addi	a1,a1,-32
    8000a630:	fb451de3          	bne	a0,s4,8000a5ea <main+0x8496>
    8000a634:	4501                	li	a0,0
    8000a636:	4081                	li	ra,0
    8000a638:	75c2                	ld	a1,48(sp)
    8000a63a:	39a5bc23          	sd	s10,920(a1)
    8000a63e:	3d8ebf03          	ld	t5,984(t4)
    8000a642:	f89e                	sd	t2,112(sp)
    8000a644:	fcf2                	sd	t3,120(sp)
    8000a646:	e162                	sd	s8,128(sp)
    8000a648:	e57a                	sd	t5,136(sp)
    8000a64a:	e91a                	sd	t1,144(sp)
    8000a64c:	ed5e                	sd	s7,152(sp)
    8000a64e:	f142                	sd	a6,160(sp)
    8000a650:	f55a                	sd	s6,168(sp)
    8000a652:	4591                	li	a1,4
    8000a654:	f92e                	sd	a1,176(sp)
    8000a656:	75a2                	ld	a1,40(sp)
    8000a658:	fd2e                	sd	a1,184(sp)
    8000a65a:	75a6                	ld	a1,104(sp)
    8000a65c:	e1ae                	sd	a1,192(sp)
    8000a65e:	7586                	ld	a1,96(sp)
    8000a660:	e5ae                	sd	a1,200(sp)
    8000a662:	65e6                	ld	a1,88(sp)
    8000a664:	e9ae                	sd	a1,208(sp)
    8000a666:	65c6                	ld	a1,80(sp)
    8000a668:	edae                	sd	a1,216(sp)
    8000a66a:	65a6                	ld	a1,72(sp)
    8000a66c:	f1ae                	sd	a1,224(sp)
    8000a66e:	6586                	ld	a1,64(sp)
    8000a670:	f5ae                	sd	a1,232(sp)
    8000a672:	75e2                	ld	a1,56(sp)
    8000a674:	f9ae                	sd	a1,240(sp)
    8000a676:	86e6                	mv	a3,s9
    8000a678:	00af8633          	add	a2,t6,a0
    8000a67c:	fe863703          	ld	a4,-24(a2)
    8000a680:	fe86b783          	ld	a5,-24(a3)
    8000a684:	ff063483          	ld	s1,-16(a2)
    8000a688:	ff06b403          	ld	s0,-16(a3)
    8000a68c:	02e78733          	mul	a4,a5,a4
    8000a690:	029407b3          	mul	a5,s0,s1
    8000a694:	ff863483          	ld	s1,-8(a2)
    8000a698:	ff86b403          	ld	s0,-8(a3)
    8000a69c:	6210                	ld	a2,0(a2)
    8000a69e:	628c                	ld	a1,0(a3)
    8000a6a0:	029404b3          	mul	s1,s0,s1
    8000a6a4:	02c585b3          	mul	a1,a1,a2
    8000a6a8:	00170633          	add	a2,a4,ra
    8000a6ac:	963e                	add	a2,a2,a5
    8000a6ae:	9626                	add	a2,a2,s1
    8000a6b0:	00b600b3          	add	ra,a2,a1
    8000a6b4:	1501                	addi	a0,a0,-32
    8000a6b6:	02068693          	addi	a3,a3,32
    8000a6ba:	fb151fe3          	bne	a0,a7,8000a678 <main+0x8524>
    8000a6be:	4501                	li	a0,0
    8000a6c0:	4d01                	li	s10,0
    8000a6c2:	75c2                	ld	a1,48(sp)
    8000a6c4:	3a15b023          	sd	ra,928(a1)
    8000a6c8:	3e0eb303          	ld	t1,992(t4)
    8000a6cc:	f89e                	sd	t2,112(sp)
    8000a6ce:	fcf2                	sd	t3,120(sp)
    8000a6d0:	e162                	sd	s8,128(sp)
    8000a6d2:	e57a                	sd	t5,136(sp)
    8000a6d4:	e91a                	sd	t1,144(sp)
    8000a6d6:	ed5e                	sd	s7,152(sp)
    8000a6d8:	f142                	sd	a6,160(sp)
    8000a6da:	f55a                	sd	s6,168(sp)
    8000a6dc:	4595                	li	a1,5
    8000a6de:	f92e                	sd	a1,176(sp)
    8000a6e0:	70a2                	ld	ra,40(sp)
    8000a6e2:	fd06                	sd	ra,184(sp)
    8000a6e4:	75a6                	ld	a1,104(sp)
    8000a6e6:	e1ae                	sd	a1,192(sp)
    8000a6e8:	7586                	ld	a1,96(sp)
    8000a6ea:	e5ae                	sd	a1,200(sp)
    8000a6ec:	65e6                	ld	a1,88(sp)
    8000a6ee:	e9ae                	sd	a1,208(sp)
    8000a6f0:	65c6                	ld	a1,80(sp)
    8000a6f2:	edae                	sd	a1,216(sp)
    8000a6f4:	65a6                	ld	a1,72(sp)
    8000a6f6:	f1ae                	sd	a1,224(sp)
    8000a6f8:	6586                	ld	a1,64(sp)
    8000a6fa:	f5ae                	sd	a1,232(sp)
    8000a6fc:	75e2                	ld	a1,56(sp)
    8000a6fe:	f9ae                	sd	a1,240(sp)
    8000a700:	85e6                	mv	a1,s9
    8000a702:	00af8633          	add	a2,t6,a0
    8000a706:	ff063703          	ld	a4,-16(a2)
    8000a70a:	fe85b783          	ld	a5,-24(a1)
    8000a70e:	ff863403          	ld	s0,-8(a2)
    8000a712:	ff05b483          	ld	s1,-16(a1)
    8000a716:	02e78733          	mul	a4,a5,a4
    8000a71a:	028487b3          	mul	a5,s1,s0
    8000a71e:	6210                	ld	a2,0(a2)
    8000a720:	ff85b403          	ld	s0,-8(a1)
    8000a724:	fa05b483          	ld	s1,-96(a1)
    8000a728:	6194                	ld	a3,0(a1)
    8000a72a:	02c40633          	mul	a2,s0,a2
    8000a72e:	029686b3          	mul	a3,a3,s1
    8000a732:	976a                	add	a4,a4,s10
    8000a734:	973e                	add	a4,a4,a5
    8000a736:	963a                	add	a2,a2,a4
    8000a738:	00d60d33          	add	s10,a2,a3
    8000a73c:	1501                	addi	a0,a0,-32
    8000a73e:	02058593          	addi	a1,a1,32
    8000a742:	fd1510e3          	bne	a0,a7,8000a702 <main+0x85ae>
    8000a746:	4501                	li	a0,0
    8000a748:	4401                	li	s0,0
    8000a74a:	75c2                	ld	a1,48(sp)
    8000a74c:	3ba5b423          	sd	s10,936(a1)
    8000a750:	3e8ebb83          	ld	s7,1000(t4)
    8000a754:	f89e                	sd	t2,112(sp)
    8000a756:	fcf2                	sd	t3,120(sp)
    8000a758:	e162                	sd	s8,128(sp)
    8000a75a:	e57a                	sd	t5,136(sp)
    8000a75c:	e91a                	sd	t1,144(sp)
    8000a75e:	ed5e                	sd	s7,152(sp)
    8000a760:	f142                	sd	a6,160(sp)
    8000a762:	f55a                	sd	s6,168(sp)
    8000a764:	4599                	li	a1,6
    8000a766:	f92e                	sd	a1,176(sp)
    8000a768:	fd06                	sd	ra,184(sp)
    8000a76a:	75a6                	ld	a1,104(sp)
    8000a76c:	e1ae                	sd	a1,192(sp)
    8000a76e:	7586                	ld	a1,96(sp)
    8000a770:	e5ae                	sd	a1,200(sp)
    8000a772:	65e6                	ld	a1,88(sp)
    8000a774:	e9ae                	sd	a1,208(sp)
    8000a776:	65c6                	ld	a1,80(sp)
    8000a778:	edae                	sd	a1,216(sp)
    8000a77a:	65a6                	ld	a1,72(sp)
    8000a77c:	f1ae                	sd	a1,224(sp)
    8000a77e:	6586                	ld	a1,64(sp)
    8000a780:	f5ae                	sd	a1,232(sp)
    8000a782:	75e2                	ld	a1,56(sp)
    8000a784:	f9ae                	sd	a1,240(sp)
    8000a786:	85e6                	mv	a1,s9
    8000a788:	00af8633          	add	a2,t6,a0
    8000a78c:	ff863703          	ld	a4,-8(a2)
    8000a790:	fe85b783          	ld	a5,-24(a1)
    8000a794:	6210                	ld	a2,0(a2)
    8000a796:	ff05b483          	ld	s1,-16(a1)
    8000a79a:	02e78733          	mul	a4,a5,a4
    8000a79e:	02c48833          	mul	a6,s1,a2
    8000a7a2:	fa05b783          	ld	a5,-96(a1)
    8000a7a6:	ff85b483          	ld	s1,-8(a1)
    8000a7aa:	fa85b683          	ld	a3,-88(a1)
    8000a7ae:	6190                	ld	a2,0(a1)
    8000a7b0:	02f487b3          	mul	a5,s1,a5
    8000a7b4:	02d60633          	mul	a2,a2,a3
    8000a7b8:	008706b3          	add	a3,a4,s0
    8000a7bc:	96c2                	add	a3,a3,a6
    8000a7be:	96be                	add	a3,a3,a5
    8000a7c0:	00c68433          	add	s0,a3,a2
    8000a7c4:	1501                	addi	a0,a0,-32
    8000a7c6:	02058593          	addi	a1,a1,32
    8000a7ca:	fb151fe3          	bne	a0,a7,8000a788 <main+0x8634>
    8000a7ce:	4d01                	li	s10,0
    8000a7d0:	7542                	ld	a0,48(sp)
    8000a7d2:	3a853823          	sd	s0,944(a0)
    8000a7d6:	3f0eb803          	ld	a6,1008(t4)
    8000a7da:	f89e                	sd	t2,112(sp)
    8000a7dc:	fcf2                	sd	t3,120(sp)
    8000a7de:	e162                	sd	s8,128(sp)
    8000a7e0:	e57a                	sd	t5,136(sp)
    8000a7e2:	e91a                	sd	t1,144(sp)
    8000a7e4:	ed5e                	sd	s7,152(sp)
    8000a7e6:	f142                	sd	a6,160(sp)
    8000a7e8:	f55a                	sd	s6,168(sp)
    8000a7ea:	451d                	li	a0,7
    8000a7ec:	f92a                	sd	a0,176(sp)
    8000a7ee:	fd06                	sd	ra,184(sp)
    8000a7f0:	7526                	ld	a0,104(sp)
    8000a7f2:	e1aa                	sd	a0,192(sp)
    8000a7f4:	7506                	ld	a0,96(sp)
    8000a7f6:	e5aa                	sd	a0,200(sp)
    8000a7f8:	6566                	ld	a0,88(sp)
    8000a7fa:	e9aa                	sd	a0,208(sp)
    8000a7fc:	6546                	ld	a0,80(sp)
    8000a7fe:	edaa                	sd	a0,216(sp)
    8000a800:	6526                	ld	a0,72(sp)
    8000a802:	f1aa                	sd	a0,224(sp)
    8000a804:	6506                	ld	a0,64(sp)
    8000a806:	f5aa                	sd	a0,232(sp)
    8000a808:	7562                	ld	a0,56(sp)
    8000a80a:	f9aa                	sd	a0,240(sp)
    8000a80c:	03800793          	li	a5,56
    8000a810:	8466                	mv	s0,s9
    8000a812:	00fc8633          	add	a2,s9,a5
    8000a816:	fa063603          	ld	a2,-96(a2)
    8000a81a:	fe843683          	ld	a3,-24(s0)
    8000a81e:	fa043703          	ld	a4,-96(s0)
    8000a822:	ff043483          	ld	s1,-16(s0)
    8000a826:	02c68633          	mul	a2,a3,a2
    8000a82a:	02e486b3          	mul	a3,s1,a4
    8000a82e:	fa843703          	ld	a4,-88(s0)
    8000a832:	ff843483          	ld	s1,-8(s0)
    8000a836:	fb043503          	ld	a0,-80(s0)
    8000a83a:	600c                	ld	a1,0(s0)
    8000a83c:	02e48733          	mul	a4,s1,a4
    8000a840:	02a58533          	mul	a0,a1,a0
    8000a844:	01a605b3          	add	a1,a2,s10
    8000a848:	95b6                	add	a1,a1,a3
    8000a84a:	95ba                	add	a1,a1,a4
    8000a84c:	00a58d33          	add	s10,a1,a0
    8000a850:	1781                	addi	a5,a5,-32
    8000a852:	02040413          	addi	s0,s0,32
    8000a856:	fb379ee3          	bne	a5,s3,8000a812 <main+0x86be>
    8000a85a:	4401                	li	s0,0
    8000a85c:	7542                	ld	a0,48(sp)
    8000a85e:	3ba53c23          	sd	s10,952(a0)
    8000a862:	3f8eb503          	ld	a0,1016(t4)
    8000a866:	f89e                	sd	t2,112(sp)
    8000a868:	fcf2                	sd	t3,120(sp)
    8000a86a:	e162                	sd	s8,128(sp)
    8000a86c:	e57a                	sd	t5,136(sp)
    8000a86e:	e91a                	sd	t1,144(sp)
    8000a870:	ed5e                	sd	s7,152(sp)
    8000a872:	f142                	sd	a6,160(sp)
    8000a874:	f52a                	sd	a0,168(sp)
    8000a876:	f902                	sd	zero,176(sp)
    8000a878:	fd06                	sd	ra,184(sp)
    8000a87a:	7526                	ld	a0,104(sp)
    8000a87c:	e1aa                	sd	a0,192(sp)
    8000a87e:	7506                	ld	a0,96(sp)
    8000a880:	e5aa                	sd	a0,200(sp)
    8000a882:	6566                	ld	a0,88(sp)
    8000a884:	e9aa                	sd	a0,208(sp)
    8000a886:	6546                	ld	a0,80(sp)
    8000a888:	edaa                	sd	a0,216(sp)
    8000a88a:	6526                	ld	a0,72(sp)
    8000a88c:	f1aa                	sd	a0,224(sp)
    8000a88e:	6506                	ld	a0,64(sp)
    8000a890:	f5aa                	sd	a0,232(sp)
    8000a892:	7562                	ld	a0,56(sp)
    8000a894:	f9aa                	sd	a0,240(sp)
    8000a896:	fc000513          	li	a0,-64
    8000a89a:	0b810813          	addi	a6,sp,184
    8000a89e:	00a805b3          	add	a1,a6,a0
    8000a8a2:	ff85b603          	ld	a2,-8(a1)
    8000a8a6:	61b4                	ld	a3,64(a1)
    8000a8a8:	02c68633          	mul	a2,a3,a2
    8000a8ac:	6194                	ld	a3,0(a1)
    8000a8ae:	65b8                	ld	a4,72(a1)
    8000a8b0:	659c                	ld	a5,8(a1)
    8000a8b2:	69a4                	ld	s1,80(a1)
    8000a8b4:	02d706b3          	mul	a3,a4,a3
    8000a8b8:	02f48733          	mul	a4,s1,a5
    8000a8bc:	699c                	ld	a5,16(a1)
    8000a8be:	6dac                	ld	a1,88(a1)
    8000a8c0:	9622                	add	a2,a2,s0
    8000a8c2:	02f585b3          	mul	a1,a1,a5
    8000a8c6:	9636                	add	a2,a2,a3
    8000a8c8:	963a                	add	a2,a2,a4
    8000a8ca:	02050513          	addi	a0,a0,32
    8000a8ce:	00b60433          	add	s0,a2,a1
    8000a8d2:	f571                	bnez	a0,8000a89e <main+0x874a>
    8000a8d4:	7d02                	ld	s10,32(sp)
    8000a8d6:	0d09                	addi	s10,s10,2
    8000a8d8:	7542                	ld	a0,48(sp)
    8000a8da:	3c853023          	sd	s0,960(a0)
    8000a8de:	6e62                	ld	t3,24(sp)
    8000a8e0:	4531                	li	a0,12
    8000a8e2:	00ad0463          	beq	s10,a0,8000a8ea <main+0x8796>
    8000a8e6:	f7ff706f          	j	80002864 <main+0x710>
    8000a8ea:	b0002573          	csrr	a0,mcycle
    8000a8ee:	65a2                	ld	a1,8(sp)
    8000a8f0:	9d0d                	subw	a0,a0,a1
    8000a8f2:	60f6                	ld	ra,344(sp)
    8000a8f4:	6456                	ld	s0,336(sp)
    8000a8f6:	64b6                	ld	s1,328(sp)
    8000a8f8:	6916                	ld	s2,320(sp)
    8000a8fa:	79f2                	ld	s3,312(sp)
    8000a8fc:	7a52                	ld	s4,304(sp)
    8000a8fe:	7ab2                	ld	s5,296(sp)
    8000a900:	7b12                	ld	s6,288(sp)
    8000a902:	6bf2                	ld	s7,280(sp)
    8000a904:	6c52                	ld	s8,272(sp)
    8000a906:	6cb2                	ld	s9,264(sp)
    8000a908:	6d12                	ld	s10,256(sp)
    8000a90a:	7dee                	ld	s11,248(sp)
    8000a90c:	6135                	addi	sp,sp,352
    8000a90e:	8082                	ret

000000008000a910 <vprintfmt>:
    8000a910:	7149                	addi	sp,sp,-368
    8000a912:	f2a2                	sd	s0,352(sp)
    8000a914:	eea6                	sd	s1,344(sp)
    8000a916:	eaca                	sd	s2,336(sp)
    8000a918:	e2d2                	sd	s4,320(sp)
    8000a91a:	fe56                	sd	s5,312(sp)
    8000a91c:	fa5a                	sd	s6,304(sp)
    8000a91e:	f65e                	sd	s7,296(sp)
    8000a920:	f686                	sd	ra,360(sp)
    8000a922:	e6ce                	sd	s3,328(sp)
    8000a924:	f262                	sd	s8,288(sp)
    8000a926:	ee66                	sd	s9,280(sp)
    8000a928:	e66e                	sd	s11,264(sp)
    8000a92a:	892a                	mv	s2,a0
    8000a92c:	84ae                	mv	s1,a1
    8000a92e:	8432                	mv	s0,a2
    8000a930:	8bb6                	mv	s7,a3
    8000a932:	02500a13          	li	s4,37
    8000a936:	05500b13          	li	s6,85
    8000a93a:	00001a97          	auipc	s5,0x1
    8000a93e:	c06a8a93          	addi	s5,s5,-1018 # 8000b540 <gen2+0x8>
    8000a942:	a029                	j	8000a94c <vprintfmt+0x3c>
    8000a944:	cd1d                	beqz	a0,8000a982 <vprintfmt+0x72>
    8000a946:	85a6                	mv	a1,s1
    8000a948:	0405                	addi	s0,s0,1
    8000a94a:	9902                	jalr	s2
    8000a94c:	00044503          	lbu	a0,0(s0)
    8000a950:	ff451ae3          	bne	a0,s4,8000a944 <vprintfmt+0x34>
    8000a954:	00144683          	lbu	a3,1(s0)
    8000a958:	00140993          	addi	s3,s0,1
    8000a95c:	874e                	mv	a4,s3
    8000a95e:	02000c93          	li	s9,32
    8000a962:	5c7d                	li	s8,-1
    8000a964:	5dfd                	li	s11,-1
    8000a966:	4581                	li	a1,0
    8000a968:	fdd6879b          	addiw	a5,a3,-35
    8000a96c:	0ff7f793          	zext.b	a5,a5
    8000a970:	00170413          	addi	s0,a4,1
    8000a974:	04fb6163          	bltu	s6,a5,8000a9b6 <vprintfmt+0xa6>
    8000a978:	078a                	slli	a5,a5,0x2
    8000a97a:	97d6                	add	a5,a5,s5
    8000a97c:	439c                	lw	a5,0(a5)
    8000a97e:	97d6                	add	a5,a5,s5
    8000a980:	8782                	jr	a5
    8000a982:	70b6                	ld	ra,360(sp)
    8000a984:	7416                	ld	s0,352(sp)
    8000a986:	64f6                	ld	s1,344(sp)
    8000a988:	6956                	ld	s2,336(sp)
    8000a98a:	69b6                	ld	s3,328(sp)
    8000a98c:	6a16                	ld	s4,320(sp)
    8000a98e:	7af2                	ld	s5,312(sp)
    8000a990:	7b52                	ld	s6,304(sp)
    8000a992:	7bb2                	ld	s7,296(sp)
    8000a994:	7c12                	ld	s8,288(sp)
    8000a996:	6cf2                	ld	s9,280(sp)
    8000a998:	6db2                	ld	s11,264(sp)
    8000a99a:	6175                	addi	sp,sp,368
    8000a99c:	8082                	ret
    8000a99e:	8cb6                	mv	s9,a3
    8000a9a0:	00174683          	lbu	a3,1(a4)
    8000a9a4:	8722                	mv	a4,s0
    8000a9a6:	00170413          	addi	s0,a4,1
    8000a9aa:	fdd6879b          	addiw	a5,a3,-35
    8000a9ae:	0ff7f793          	zext.b	a5,a5
    8000a9b2:	fcfb73e3          	bgeu	s6,a5,8000a978 <vprintfmt+0x68>
    8000a9b6:	85a6                	mv	a1,s1
    8000a9b8:	02500513          	li	a0,37
    8000a9bc:	9902                	jalr	s2
    8000a9be:	844e                	mv	s0,s3
    8000a9c0:	b771                	j	8000a94c <vprintfmt+0x3c>
    8000a9c2:	fd068c1b          	addiw	s8,a3,-48
    8000a9c6:	00174683          	lbu	a3,1(a4)
    8000a9ca:	47a5                	li	a5,9
    8000a9cc:	fd06871b          	addiw	a4,a3,-48
    8000a9d0:	0006861b          	sext.w	a2,a3
    8000a9d4:	20e7ef63          	bltu	a5,a4,8000abf2 <vprintfmt+0x2e2>
    8000a9d8:	8722                	mv	a4,s0
    8000a9da:	4825                	li	a6,9
    8000a9dc:	00174683          	lbu	a3,1(a4)
    8000a9e0:	002c179b          	slliw	a5,s8,0x2
    8000a9e4:	018787bb          	addw	a5,a5,s8
    8000a9e8:	0017979b          	slliw	a5,a5,0x1
    8000a9ec:	9fb1                	addw	a5,a5,a2
    8000a9ee:	fd06851b          	addiw	a0,a3,-48
    8000a9f2:	0705                	addi	a4,a4,1
    8000a9f4:	fd078c1b          	addiw	s8,a5,-48
    8000a9f8:	0006861b          	sext.w	a2,a3
    8000a9fc:	fea870e3          	bgeu	a6,a0,8000a9dc <vprintfmt+0xcc>
    8000aa00:	f60dd4e3          	bgez	s11,8000a968 <vprintfmt+0x58>
    8000aa04:	8de2                	mv	s11,s8
    8000aa06:	5c7d                	li	s8,-1
    8000aa08:	b785                	j	8000a968 <vprintfmt+0x58>
    8000aa0a:	00174683          	lbu	a3,1(a4)
    8000aa0e:	8722                	mv	a4,s0
    8000aa10:	bfa1                	j	8000a968 <vprintfmt+0x58>
    8000aa12:	85a6                	mv	a1,s1
    8000aa14:	02500513          	li	a0,37
    8000aa18:	9902                	jalr	s2
    8000aa1a:	bf0d                	j	8000a94c <vprintfmt+0x3c>
    8000aa1c:	000bac03          	lw	s8,0(s7)
    8000aa20:	00174683          	lbu	a3,1(a4)
    8000aa24:	0ba1                	addi	s7,s7,8
    8000aa26:	8722                	mv	a4,s0
    8000aa28:	bfe1                	j	8000aa00 <vprintfmt+0xf0>
    8000aa2a:	85a6                	mv	a1,s1
    8000aa2c:	03000513          	li	a0,48
    8000aa30:	ea6a                	sd	s10,272(sp)
    8000aa32:	9902                	jalr	s2
    8000aa34:	85a6                	mv	a1,s1
    8000aa36:	07800513          	li	a0,120
    8000aa3a:	9902                	jalr	s2
    8000aa3c:	4641                	li	a2,16
    8000aa3e:	008b8713          	addi	a4,s7,8
    8000aa42:	000bb783          	ld	a5,0(s7)
    8000aa46:	8bba                	mv	s7,a4
    8000aa48:	02c7f5b3          	remu	a1,a5,a2
    8000aa4c:	000c899b          	sext.w	s3,s9
    8000aa50:	0054                	addi	a3,sp,4
    8000aa52:	4705                	li	a4,1
    8000aa54:	c02e                	sw	a1,0(sp)
    8000aa56:	16c7ea63          	bltu	a5,a2,8000abca <vprintfmt+0x2ba>
    8000aa5a:	02c7d7b3          	divu	a5,a5,a2
    8000aa5e:	0691                	addi	a3,a3,4
    8000aa60:	8c3a                	mv	s8,a4
    8000aa62:	2705                	addiw	a4,a4,1
    8000aa64:	02c7f5b3          	remu	a1,a5,a2
    8000aa68:	feb6ae23          	sw	a1,-4(a3)
    8000aa6c:	fec7f7e3          	bgeu	a5,a2,8000aa5a <vprintfmt+0x14a>
    8000aa70:	fffd8c9b          	addiw	s9,s11,-1
    8000aa74:	fff70d1b          	addiw	s10,a4,-1
    8000aa78:	01b75863          	bge	a4,s11,8000aa88 <vprintfmt+0x178>
    8000aa7c:	85a6                	mv	a1,s1
    8000aa7e:	854e                	mv	a0,s3
    8000aa80:	3cfd                	addiw	s9,s9,-1
    8000aa82:	9902                	jalr	s2
    8000aa84:	ffac9ce3          	bne	s9,s10,8000aa7c <vprintfmt+0x16c>
    8000aa88:	0c0a                	slli	s8,s8,0x2
    8000aa8a:	018109b3          	add	s3,sp,s8
    8000aa8e:	ffc10c93          	addi	s9,sp,-4
    8000aa92:	4c25                	li	s8,9
    8000aa94:	0009a783          	lw	a5,0(s3)
    8000aa98:	03000513          	li	a0,48
    8000aa9c:	00fc7463          	bgeu	s8,a5,8000aaa4 <vprintfmt+0x194>
    8000aaa0:	05700513          	li	a0,87
    8000aaa4:	85a6                	mv	a1,s1
    8000aaa6:	9d3d                	addw	a0,a0,a5
    8000aaa8:	19f1                	addi	s3,s3,-4
    8000aaaa:	9902                	jalr	s2
    8000aaac:	ff9994e3          	bne	s3,s9,8000aa94 <vprintfmt+0x184>
    8000aab0:	6d52                	ld	s10,272(sp)
    8000aab2:	bd69                	j	8000a94c <vprintfmt+0x3c>
    8000aab4:	ea6a                	sd	s10,272(sp)
    8000aab6:	4785                	li	a5,1
    8000aab8:	008b8c13          	addi	s8,s7,8
    8000aabc:	00b7c463          	blt	a5,a1,8000aac4 <vprintfmt+0x1b4>
    8000aac0:	10058763          	beqz	a1,8000abce <vprintfmt+0x2be>
    8000aac4:	000bb983          	ld	s3,0(s7)
    8000aac8:	1009cc63          	bltz	s3,8000abe0 <vprintfmt+0x2d0>
    8000aacc:	87ce                	mv	a5,s3
    8000aace:	8be2                	mv	s7,s8
    8000aad0:	4629                	li	a2,10
    8000aad2:	bf9d                	j	8000aa48 <vprintfmt+0x138>
    8000aad4:	00174683          	lbu	a3,1(a4)
    8000aad8:	2585                	addiw	a1,a1,1
    8000aada:	8722                	mv	a4,s0
    8000aadc:	b571                	j	8000a968 <vprintfmt+0x58>
    8000aade:	ea6a                	sd	s10,272(sp)
    8000aae0:	4641                	li	a2,16
    8000aae2:	4785                	li	a5,1
    8000aae4:	008b8713          	addi	a4,s7,8
    8000aae8:	f4b7cde3          	blt	a5,a1,8000aa42 <vprintfmt+0x132>
    8000aaec:	f9b9                	bnez	a1,8000aa42 <vprintfmt+0x132>
    8000aaee:	000be783          	lwu	a5,0(s7)
    8000aaf2:	8bba                	mv	s7,a4
    8000aaf4:	bf91                	j	8000aa48 <vprintfmt+0x138>
    8000aaf6:	ea6a                	sd	s10,272(sp)
    8000aaf8:	000bbd03          	ld	s10,0(s7)
    8000aafc:	0ba1                	addi	s7,s7,8
    8000aafe:	040d0363          	beqz	s10,8000ab44 <vprintfmt+0x234>
    8000ab02:	09b05e63          	blez	s11,8000ab9e <vprintfmt+0x28e>
    8000ab06:	02d00793          	li	a5,45
    8000ab0a:	04fc9f63          	bne	s9,a5,8000ab68 <vprintfmt+0x258>
    8000ab0e:	000d4503          	lbu	a0,0(s10)
    8000ab12:	c105                	beqz	a0,8000ab32 <vprintfmt+0x222>
    8000ab14:	59fd                	li	s3,-1
    8000ab16:	000c4563          	bltz	s8,8000ab20 <vprintfmt+0x210>
    8000ab1a:	3c7d                	addiw	s8,s8,-1
    8000ab1c:	013c0963          	beq	s8,s3,8000ab2e <vprintfmt+0x21e>
    8000ab20:	85a6                	mv	a1,s1
    8000ab22:	9902                	jalr	s2
    8000ab24:	001d4503          	lbu	a0,1(s10)
    8000ab28:	3dfd                	addiw	s11,s11,-1
    8000ab2a:	0d05                	addi	s10,s10,1
    8000ab2c:	f56d                	bnez	a0,8000ab16 <vprintfmt+0x206>
    8000ab2e:	f9b051e3          	blez	s11,8000aab0 <vprintfmt+0x1a0>
    8000ab32:	85a6                	mv	a1,s1
    8000ab34:	02000513          	li	a0,32
    8000ab38:	3dfd                	addiw	s11,s11,-1
    8000ab3a:	9902                	jalr	s2
    8000ab3c:	fe0d9be3          	bnez	s11,8000ab32 <vprintfmt+0x222>
    8000ab40:	6d52                	ld	s10,272(sp)
    8000ab42:	b529                	j	8000a94c <vprintfmt+0x3c>
    8000ab44:	00001d17          	auipc	s10,0x1
    8000ab48:	b54d0d13          	addi	s10,s10,-1196 # 8000b698 <gen2+0x160>
    8000ab4c:	02800513          	li	a0,40
    8000ab50:	fdb052e3          	blez	s11,8000ab14 <vprintfmt+0x204>
    8000ab54:	02d00793          	li	a5,45
    8000ab58:	00001d17          	auipc	s10,0x1
    8000ab5c:	b40d0d13          	addi	s10,s10,-1216 # 8000b698 <gen2+0x160>
    8000ab60:	02800513          	li	a0,40
    8000ab64:	fafc88e3          	beq	s9,a5,8000ab14 <vprintfmt+0x204>
    8000ab68:	000d861b          	sext.w	a2,s11
    8000ab6c:	87ea                	mv	a5,s10
    8000ab6e:	018d06b3          	add	a3,s10,s8
    8000ab72:	000c1663          	bnez	s8,8000ab7e <vprintfmt+0x26e>
    8000ab76:	a829                	j	8000ab90 <vprintfmt+0x280>
    8000ab78:	0785                	addi	a5,a5,1
    8000ab7a:	00d78563          	beq	a5,a3,8000ab84 <vprintfmt+0x274>
    8000ab7e:	0007c703          	lbu	a4,0(a5)
    8000ab82:	fb7d                	bnez	a4,8000ab78 <vprintfmt+0x268>
    8000ab84:	41a787b3          	sub	a5,a5,s10
    8000ab88:	40f60dbb          	subw	s11,a2,a5
    8000ab8c:	01b05963          	blez	s11,8000ab9e <vprintfmt+0x28e>
    8000ab90:	2c81                	sext.w	s9,s9
    8000ab92:	85a6                	mv	a1,s1
    8000ab94:	8566                	mv	a0,s9
    8000ab96:	3dfd                	addiw	s11,s11,-1
    8000ab98:	9902                	jalr	s2
    8000ab9a:	fe0d9ce3          	bnez	s11,8000ab92 <vprintfmt+0x282>
    8000ab9e:	000d4503          	lbu	a0,0(s10)
    8000aba2:	d519                	beqz	a0,8000aab0 <vprintfmt+0x1a0>
    8000aba4:	59fd                	li	s3,-1
    8000aba6:	bf85                	j	8000ab16 <vprintfmt+0x206>
    8000aba8:	fffdc793          	not	a5,s11
    8000abac:	97fd                	srai	a5,a5,0x3f
    8000abae:	00fdf7b3          	and	a5,s11,a5
    8000abb2:	00174683          	lbu	a3,1(a4)
    8000abb6:	00078d9b          	sext.w	s11,a5
    8000abba:	8722                	mv	a4,s0
    8000abbc:	b375                	j	8000a968 <vprintfmt+0x58>
    8000abbe:	000ba503          	lw	a0,0(s7)
    8000abc2:	85a6                	mv	a1,s1
    8000abc4:	0ba1                	addi	s7,s7,8
    8000abc6:	9902                	jalr	s2
    8000abc8:	b351                	j	8000a94c <vprintfmt+0x3c>
    8000abca:	4c01                	li	s8,0
    8000abcc:	b555                	j	8000aa70 <vprintfmt+0x160>
    8000abce:	000ba983          	lw	s3,0(s7)
    8000abd2:	bddd                	j	8000aac8 <vprintfmt+0x1b8>
    8000abd4:	ea6a                	sd	s10,272(sp)
    8000abd6:	4629                	li	a2,10
    8000abd8:	b729                	j	8000aae2 <vprintfmt+0x1d2>
    8000abda:	ea6a                	sd	s10,272(sp)
    8000abdc:	4621                	li	a2,8
    8000abde:	b711                	j	8000aae2 <vprintfmt+0x1d2>
    8000abe0:	85a6                	mv	a1,s1
    8000abe2:	02d00513          	li	a0,45
    8000abe6:	9902                	jalr	s2
    8000abe8:	413007b3          	neg	a5,s3
    8000abec:	8be2                	mv	s7,s8
    8000abee:	4629                	li	a2,10
    8000abf0:	bda1                	j	8000aa48 <vprintfmt+0x138>
    8000abf2:	8722                	mv	a4,s0
    8000abf4:	b531                	j	8000aa00 <vprintfmt+0xf0>

000000008000abf6 <sprintf_putch.0>:
    8000abf6:	619c                	ld	a5,0(a1)
    8000abf8:	00a78023          	sb	a0,0(a5)
    8000abfc:	619c                	ld	a5,0(a1)
    8000abfe:	0785                	addi	a5,a5,1
    8000ac00:	e19c                	sd	a5,0(a1)
    8000ac02:	8082                	ret

000000008000ac04 <putchar>:
    8000ac04:	04022803          	lw	a6,64(tp) # 40 <buflen.1>
    8000ac08:	00020793          	mv	a5,tp
    8000ac0c:	97c2                	add	a5,a5,a6
    8000ac0e:	7159                	addi	sp,sp,-112
    8000ac10:	0018069b          	addiw	a3,a6,1
    8000ac14:	04d22023          	sw	a3,64(tp) # 40 <buflen.1>
    8000ac18:	00a78023          	sb	a0,0(a5)
    8000ac1c:	03f10713          	addi	a4,sp,63
    8000ac20:	47a9                	li	a5,10
    8000ac22:	fc077713          	andi	a4,a4,-64
    8000ac26:	00f50963          	beq	a0,a5,8000ac38 <putchar+0x34>
    8000ac2a:	04000793          	li	a5,64
    8000ac2e:	00f68563          	beq	a3,a5,8000ac38 <putchar+0x34>
    8000ac32:	4501                	li	a0,0
    8000ac34:	6165                	addi	sp,sp,112
    8000ac36:	8082                	ret
    8000ac38:	04000793          	li	a5,64
    8000ac3c:	e31c                	sd	a5,0(a4)
    8000ac3e:	4785                	li	a5,1
    8000ac40:	e71c                	sd	a5,8(a4)
    8000ac42:	00020613          	mv	a2,tp
    8000ac46:	eb10                	sd	a2,16(a4)
    8000ac48:	ef14                	sd	a3,24(a4)
    8000ac4a:	0ff0000f          	fence
    8000ac4e:	ffff6697          	auipc	a3,0xffff6
    8000ac52:	3f268693          	addi	a3,a3,1010 # 80001040 <fromhost>
    8000ac56:	ffff6797          	auipc	a5,0xffff6
    8000ac5a:	3ae7b523          	sd	a4,938(a5) # 80001000 <tohost>
    8000ac5e:	629c                	ld	a5,0(a3)
    8000ac60:	dffd                	beqz	a5,8000ac5e <putchar+0x5a>
    8000ac62:	ffff6797          	auipc	a5,0xffff6
    8000ac66:	3c07bf23          	sd	zero,990(a5) # 80001040 <fromhost>
    8000ac6a:	0ff0000f          	fence
    8000ac6e:	04022023          	sw	zero,64(tp) # 40 <buflen.1>
    8000ac72:	631c                	ld	a5,0(a4)
    8000ac74:	4501                	li	a0,0
    8000ac76:	6165                	addi	sp,sp,112
    8000ac78:	8082                	ret

000000008000ac7a <setStats>:
    8000ac7a:	b0002773          	csrr	a4,mcycle
    8000ac7e:	00007797          	auipc	a5,0x7
    8000ac82:	84a78793          	addi	a5,a5,-1974 # 800114c8 <counters>
    8000ac86:	c511                	beqz	a0,8000ac92 <setStats+0x18>
    8000ac88:	e398                	sd	a4,0(a5)
    8000ac8a:	b0202773          	csrr	a4,minstret
    8000ac8e:	e798                	sd	a4,8(a5)
    8000ac90:	8082                	ret
    8000ac92:	6394                	ld	a3,0(a5)
    8000ac94:	00001617          	auipc	a2,0x1
    8000ac98:	a1460613          	addi	a2,a2,-1516 # 8000b6a8 <gen2+0x170>
    8000ac9c:	eb90                	sd	a2,16(a5)
    8000ac9e:	8f15                	sub	a4,a4,a3
    8000aca0:	e398                	sd	a4,0(a5)
    8000aca2:	b0202773          	csrr	a4,minstret
    8000aca6:	6794                	ld	a3,8(a5)
    8000aca8:	00001617          	auipc	a2,0x1
    8000acac:	a0860613          	addi	a2,a2,-1528 # 8000b6b0 <gen2+0x178>
    8000acb0:	ef90                	sd	a2,24(a5)
    8000acb2:	8f15                	sub	a4,a4,a3
    8000acb4:	e798                	sd	a4,8(a5)
    8000acb6:	8082                	ret

000000008000acb8 <tohost_exit>:
    8000acb8:	00151793          	slli	a5,a0,0x1
    8000acbc:	0017e793          	ori	a5,a5,1
    8000acc0:	ffff6717          	auipc	a4,0xffff6
    8000acc4:	34f73023          	sd	a5,832(a4) # 80001000 <tohost>
    8000acc8:	a001                	j	8000acc8 <tohost_exit+0x10>

000000008000acca <handle_trap>:
    8000acca:	6785                	lui	a5,0x1
    8000accc:	a7378793          	addi	a5,a5,-1421 # a73 <buflen.1+0xa33>
    8000acd0:	ffff6717          	auipc	a4,0xffff6
    8000acd4:	32f73823          	sd	a5,816(a4) # 80001000 <tohost>
    8000acd8:	a001                	j	8000acd8 <handle_trap+0xe>

000000008000acda <exit>:
    8000acda:	1141                	addi	sp,sp,-16
    8000acdc:	e406                	sd	ra,8(sp)
    8000acde:	fdbff0ef          	jal	8000acb8 <tohost_exit>

000000008000ace2 <abort>:
    8000ace2:	10d00793          	li	a5,269
    8000ace6:	ffff6717          	auipc	a4,0xffff6
    8000acea:	30f73d23          	sd	a5,794(a4) # 80001000 <tohost>
    8000acee:	a001                	j	8000acee <abort+0xc>

000000008000acf0 <printstr>:
    8000acf0:	00054783          	lbu	a5,0(a0)
    8000acf4:	7159                	addi	sp,sp,-112
    8000acf6:	03f10693          	addi	a3,sp,63
    8000acfa:	fc06f693          	andi	a3,a3,-64
    8000acfe:	c3b9                	beqz	a5,8000ad44 <printstr+0x54>
    8000ad00:	87aa                	mv	a5,a0
    8000ad02:	0017c703          	lbu	a4,1(a5)
    8000ad06:	0785                	addi	a5,a5,1
    8000ad08:	ff6d                	bnez	a4,8000ad02 <printstr+0x12>
    8000ad0a:	8f89                	sub	a5,a5,a0
    8000ad0c:	04000713          	li	a4,64
    8000ad10:	e298                	sd	a4,0(a3)
    8000ad12:	4705                	li	a4,1
    8000ad14:	e698                	sd	a4,8(a3)
    8000ad16:	ea88                	sd	a0,16(a3)
    8000ad18:	ee9c                	sd	a5,24(a3)
    8000ad1a:	0ff0000f          	fence
    8000ad1e:	ffff6717          	auipc	a4,0xffff6
    8000ad22:	32270713          	addi	a4,a4,802 # 80001040 <fromhost>
    8000ad26:	ffff6797          	auipc	a5,0xffff6
    8000ad2a:	2cd7bd23          	sd	a3,730(a5) # 80001000 <tohost>
    8000ad2e:	631c                	ld	a5,0(a4)
    8000ad30:	dffd                	beqz	a5,8000ad2e <printstr+0x3e>
    8000ad32:	ffff6797          	auipc	a5,0xffff6
    8000ad36:	3007b723          	sd	zero,782(a5) # 80001040 <fromhost>
    8000ad3a:	0ff0000f          	fence
    8000ad3e:	629c                	ld	a5,0(a3)
    8000ad40:	6165                	addi	sp,sp,112
    8000ad42:	8082                	ret
    8000ad44:	4781                	li	a5,0
    8000ad46:	b7d9                	j	8000ad0c <printstr+0x1c>

000000008000ad48 <thread_entry>:
    8000ad48:	c111                	beqz	a0,8000ad4c <thread_entry+0x4>
    8000ad4a:	a001                	j	8000ad4a <thread_entry+0x2>
    8000ad4c:	8082                	ret

000000008000ad4e <printhex>:
    8000ad4e:	7179                	addi	sp,sp,-48
    8000ad50:	87aa                	mv	a5,a0
    8000ad52:	f406                	sd	ra,40(sp)
    8000ad54:	0028                	addi	a0,sp,8
    8000ad56:	01710713          	addi	a4,sp,23
    8000ad5a:	4825                	li	a6,9
    8000ad5c:	a011                	j	8000ad60 <printhex+0x12>
    8000ad5e:	8736                	mv	a4,a3
    8000ad60:	00f7f613          	andi	a2,a5,15
    8000ad64:	86b2                	mv	a3,a2
    8000ad66:	03000593          	li	a1,48
    8000ad6a:	00c87463          	bgeu	a6,a2,8000ad72 <printhex+0x24>
    8000ad6e:	05700593          	li	a1,87
    8000ad72:	9ead                	addw	a3,a3,a1
    8000ad74:	00d70023          	sb	a3,0(a4)
    8000ad78:	8391                	srli	a5,a5,0x4
    8000ad7a:	fff70693          	addi	a3,a4,-1
    8000ad7e:	fee510e3          	bne	a0,a4,8000ad5e <printhex+0x10>
    8000ad82:	00010c23          	sb	zero,24(sp)
    8000ad86:	f6bff0ef          	jal	8000acf0 <printstr>
    8000ad8a:	70a2                	ld	ra,40(sp)
    8000ad8c:	6145                	addi	sp,sp,48
    8000ad8e:	8082                	ret

000000008000ad90 <printf>:
    8000ad90:	711d                	addi	sp,sp,-96
    8000ad92:	02810313          	addi	t1,sp,40
    8000ad96:	f42e                	sd	a1,40(sp)
    8000ad98:	f832                	sd	a2,48(sp)
    8000ad9a:	fc36                	sd	a3,56(sp)
    8000ad9c:	862a                	mv	a2,a0
    8000ad9e:	869a                	mv	a3,t1
    8000ada0:	00000517          	auipc	a0,0x0
    8000ada4:	e6450513          	addi	a0,a0,-412 # 8000ac04 <putchar>
    8000ada8:	4581                	li	a1,0
    8000adaa:	ec06                	sd	ra,24(sp)
    8000adac:	e0ba                	sd	a4,64(sp)
    8000adae:	e4be                	sd	a5,72(sp)
    8000adb0:	e8c2                	sd	a6,80(sp)
    8000adb2:	ecc6                	sd	a7,88(sp)
    8000adb4:	e41a                	sd	t1,8(sp)
    8000adb6:	b5bff0ef          	jal	8000a910 <vprintfmt>
    8000adba:	60e2                	ld	ra,24(sp)
    8000adbc:	4501                	li	a0,0
    8000adbe:	6125                	addi	sp,sp,96
    8000adc0:	8082                	ret

000000008000adc2 <sprintf>:
    8000adc2:	711d                	addi	sp,sp,-96
    8000adc4:	03010e13          	addi	t3,sp,48
    8000adc8:	f022                	sd	s0,32(sp)
    8000adca:	e42a                	sd	a0,8(sp)
    8000adcc:	842a                	mv	s0,a0
    8000adce:	f832                	sd	a2,48(sp)
    8000add0:	fc36                	sd	a3,56(sp)
    8000add2:	862e                	mv	a2,a1
    8000add4:	00000517          	auipc	a0,0x0
    8000add8:	e2250513          	addi	a0,a0,-478 # 8000abf6 <sprintf_putch.0>
    8000addc:	002c                	addi	a1,sp,8
    8000adde:	86f2                	mv	a3,t3
    8000ade0:	f406                	sd	ra,40(sp)
    8000ade2:	e4be                	sd	a5,72(sp)
    8000ade4:	e0ba                	sd	a4,64(sp)
    8000ade6:	e8c2                	sd	a6,80(sp)
    8000ade8:	ecc6                	sd	a7,88(sp)
    8000adea:	ec72                	sd	t3,24(sp)
    8000adec:	b25ff0ef          	jal	8000a910 <vprintfmt>
    8000adf0:	67a2                	ld	a5,8(sp)
    8000adf2:	00078023          	sb	zero,0(a5)
    8000adf6:	6522                	ld	a0,8(sp)
    8000adf8:	70a2                	ld	ra,40(sp)
    8000adfa:	9d01                	subw	a0,a0,s0
    8000adfc:	7402                	ld	s0,32(sp)
    8000adfe:	6125                	addi	sp,sp,96
    8000ae00:	8082                	ret

000000008000ae02 <memcpy>:
    8000ae02:	00c5e7b3          	or	a5,a1,a2
    8000ae06:	8fc9                	or	a5,a5,a0
    8000ae08:	8b9d                	andi	a5,a5,7
    8000ae0a:	00c506b3          	add	a3,a0,a2
    8000ae0e:	cf91                	beqz	a5,8000ae2a <memcpy+0x28>
    8000ae10:	962e                	add	a2,a2,a1
    8000ae12:	87aa                	mv	a5,a0
    8000ae14:	02d57663          	bgeu	a0,a3,8000ae40 <memcpy+0x3e>
    8000ae18:	0005c703          	lbu	a4,0(a1)
    8000ae1c:	0585                	addi	a1,a1,1
    8000ae1e:	0785                	addi	a5,a5,1
    8000ae20:	fee78fa3          	sb	a4,-1(a5)
    8000ae24:	feb61ae3          	bne	a2,a1,8000ae18 <memcpy+0x16>
    8000ae28:	8082                	ret
    8000ae2a:	fed57fe3          	bgeu	a0,a3,8000ae28 <memcpy+0x26>
    8000ae2e:	87aa                	mv	a5,a0
    8000ae30:	6198                	ld	a4,0(a1)
    8000ae32:	07a1                	addi	a5,a5,8
    8000ae34:	05a1                	addi	a1,a1,8
    8000ae36:	fee7bc23          	sd	a4,-8(a5)
    8000ae3a:	fed7ebe3          	bltu	a5,a3,8000ae30 <memcpy+0x2e>
    8000ae3e:	8082                	ret
    8000ae40:	8082                	ret

000000008000ae42 <memset>:
    8000ae42:	00c567b3          	or	a5,a0,a2
    8000ae46:	8b9d                	andi	a5,a5,7
    8000ae48:	962a                	add	a2,a2,a0
    8000ae4a:	cf81                	beqz	a5,8000ae62 <memset+0x20>
    8000ae4c:	0ff5f713          	zext.b	a4,a1
    8000ae50:	87aa                	mv	a5,a0
    8000ae52:	02c57f63          	bgeu	a0,a2,8000ae90 <memset+0x4e>
    8000ae56:	0785                	addi	a5,a5,1
    8000ae58:	fee78fa3          	sb	a4,-1(a5)
    8000ae5c:	fec79de3          	bne	a5,a2,8000ae56 <memset+0x14>
    8000ae60:	8082                	ret
    8000ae62:	010107b7          	lui	a5,0x1010
    8000ae66:	10178793          	addi	a5,a5,257 # 1010101 <buflen.1+0x10100c1>
    8000ae6a:	07c2                	slli	a5,a5,0x10
    8000ae6c:	10178793          	addi	a5,a5,257
    8000ae70:	07c2                	slli	a5,a5,0x10
    8000ae72:	0ff5f713          	zext.b	a4,a1
    8000ae76:	10178793          	addi	a5,a5,257
    8000ae7a:	02f70733          	mul	a4,a4,a5
    8000ae7e:	fec571e3          	bgeu	a0,a2,8000ae60 <memset+0x1e>
    8000ae82:	87aa                	mv	a5,a0
    8000ae84:	07a1                	addi	a5,a5,8
    8000ae86:	fee7bc23          	sd	a4,-8(a5)
    8000ae8a:	fec7ede3          	bltu	a5,a2,8000ae84 <memset+0x42>
    8000ae8e:	8082                	ret
    8000ae90:	8082                	ret

000000008000ae92 <_init>:
    8000ae92:	7171                	addi	sp,sp,-176
    8000ae94:	00006797          	auipc	a5,0x6
    8000ae98:	65478793          	addi	a5,a5,1620 # 800114e8 <_tdata_begin>
    8000ae9c:	e152                	sd	s4,128(sp)
    8000ae9e:	00006a17          	auipc	s4,0x6
    8000aea2:	64aa0a13          	addi	s4,s4,1610 # 800114e8 <_tdata_begin>
    8000aea6:	e54e                	sd	s3,136(sp)
    8000aea8:	40fa09b3          	sub	s3,s4,a5
    8000aeac:	ed26                	sd	s1,152(sp)
    8000aeae:	e94a                	sd	s2,144(sp)
    8000aeb0:	84aa                	mv	s1,a0
    8000aeb2:	892e                	mv	s2,a1
    8000aeb4:	8512                	mv	a0,tp
    8000aeb6:	85be                	mv	a1,a5
    8000aeb8:	864e                	mv	a2,s3
    8000aeba:	f506                	sd	ra,168(sp)
    8000aebc:	f122                	sd	s0,160(sp)
    8000aebe:	fcd6                	sd	s5,120(sp)
    8000aec0:	8a92                	mv	s5,tp
    8000aec2:	f41ff0ef          	jal	8000ae02 <memcpy>
    8000aec6:	00006617          	auipc	a2,0x6
    8000aeca:	67e60613          	addi	a2,a2,1662 # 80011544 <_tbss_end>
    8000aece:	41460633          	sub	a2,a2,s4
    8000aed2:	4581                	li	a1,0
    8000aed4:	013a8533          	add	a0,s5,s3
    8000aed8:	f6bff0ef          	jal	8000ae42 <memset>
    8000aedc:	85ca                	mv	a1,s2
    8000aede:	8526                	mv	a0,s1
    8000aee0:	e69ff0ef          	jal	8000ad48 <thread_entry>
    8000aee4:	4581                	li	a1,0
    8000aee6:	4501                	li	a0,0
    8000aee8:	a6cf70ef          	jal	80002154 <main>
    8000aeec:	00006917          	auipc	s2,0x6
    8000aef0:	5dc90913          	addi	s2,s2,1500 # 800114c8 <counters>
    8000aef4:	00093683          	ld	a3,0(s2)
    8000aef8:	03f10413          	addi	s0,sp,63
    8000aefc:	fc047413          	andi	s0,s0,-64
    8000af00:	84aa                	mv	s1,a0
    8000af02:	ea85                	bnez	a3,8000af32 <_init+0xa0>
    8000af04:	00893683          	ld	a3,8(s2)
    8000af08:	e681                	bnez	a3,8000af10 <_init+0x7e>
    8000af0a:	8526                	mv	a0,s1
    8000af0c:	dadff0ef          	jal	8000acb8 <tohost_exit>
    8000af10:	89a2                	mv	s3,s0
    8000af12:	01893603          	ld	a2,24(s2)
    8000af16:	854e                	mv	a0,s3
    8000af18:	00000597          	auipc	a1,0x0
    8000af1c:	7c058593          	addi	a1,a1,1984 # 8000b6d8 <gen2+0x1a0>
    8000af20:	ea3ff0ef          	jal	8000adc2 <sprintf>
    8000af24:	99aa                	add	s3,s3,a0
    8000af26:	ff3402e3          	beq	s0,s3,8000af0a <_init+0x78>
    8000af2a:	8522                	mv	a0,s0
    8000af2c:	dc5ff0ef          	jal	8000acf0 <printstr>
    8000af30:	bfe9                	j	8000af0a <_init+0x78>
    8000af32:	01093603          	ld	a2,16(s2)
    8000af36:	00000597          	auipc	a1,0x0
    8000af3a:	7a258593          	addi	a1,a1,1954 # 8000b6d8 <gen2+0x1a0>
    8000af3e:	8522                	mv	a0,s0
    8000af40:	e83ff0ef          	jal	8000adc2 <sprintf>
    8000af44:	00893683          	ld	a3,8(s2)
    8000af48:	00a409b3          	add	s3,s0,a0
    8000af4c:	dee9                	beqz	a3,8000af26 <_init+0x94>
    8000af4e:	b7d1                	j	8000af12 <_init+0x80>

000000008000af50 <strlen>:
    8000af50:	00054783          	lbu	a5,0(a0)
    8000af54:	cb89                	beqz	a5,8000af66 <strlen+0x16>
    8000af56:	87aa                	mv	a5,a0
    8000af58:	0017c703          	lbu	a4,1(a5)
    8000af5c:	0785                	addi	a5,a5,1
    8000af5e:	ff6d                	bnez	a4,8000af58 <strlen+0x8>
    8000af60:	40a78533          	sub	a0,a5,a0
    8000af64:	8082                	ret
    8000af66:	4501                	li	a0,0
    8000af68:	8082                	ret

000000008000af6a <strnlen>:
    8000af6a:	00b506b3          	add	a3,a0,a1
    8000af6e:	87aa                	mv	a5,a0
    8000af70:	e589                	bnez	a1,8000af7a <strnlen+0x10>
    8000af72:	a829                	j	8000af8c <strnlen+0x22>
    8000af74:	0785                	addi	a5,a5,1
    8000af76:	00f68863          	beq	a3,a5,8000af86 <strnlen+0x1c>
    8000af7a:	0007c703          	lbu	a4,0(a5)
    8000af7e:	fb7d                	bnez	a4,8000af74 <strnlen+0xa>
    8000af80:	40a78533          	sub	a0,a5,a0
    8000af84:	8082                	ret
    8000af86:	40a68533          	sub	a0,a3,a0
    8000af8a:	8082                	ret
    8000af8c:	4501                	li	a0,0
    8000af8e:	8082                	ret

000000008000af90 <strcmp>:
    8000af90:	00054783          	lbu	a5,0(a0)
    8000af94:	0585                	addi	a1,a1,1
    8000af96:	0505                	addi	a0,a0,1
    8000af98:	fff5c703          	lbu	a4,-1(a1)
    8000af9c:	c799                	beqz	a5,8000afaa <strcmp+0x1a>
    8000af9e:	fee789e3          	beq	a5,a4,8000af90 <strcmp>
    8000afa2:	0007851b          	sext.w	a0,a5
    8000afa6:	9d19                	subw	a0,a0,a4
    8000afa8:	8082                	ret
    8000afaa:	4501                	li	a0,0
    8000afac:	bfed                	j	8000afa6 <strcmp+0x16>

000000008000afae <strcpy>:
    8000afae:	87aa                	mv	a5,a0
    8000afb0:	0005c703          	lbu	a4,0(a1)
    8000afb4:	0785                	addi	a5,a5,1
    8000afb6:	0585                	addi	a1,a1,1
    8000afb8:	fee78fa3          	sb	a4,-1(a5)
    8000afbc:	fb75                	bnez	a4,8000afb0 <strcpy+0x2>
    8000afbe:	8082                	ret

000000008000afc0 <atol>:
    8000afc0:	00054703          	lbu	a4,0(a0)
    8000afc4:	02000693          	li	a3,32
    8000afc8:	87aa                	mv	a5,a0
    8000afca:	00d71763          	bne	a4,a3,8000afd8 <atol+0x18>
    8000afce:	0017c703          	lbu	a4,1(a5)
    8000afd2:	0785                	addi	a5,a5,1
    8000afd4:	fed70de3          	beq	a4,a3,8000afce <atol+0xe>
    8000afd8:	02d00693          	li	a3,45
    8000afdc:	04d70163          	beq	a4,a3,8000b01e <atol+0x5e>
    8000afe0:	02b00693          	li	a3,43
    8000afe4:	02d70763          	beq	a4,a3,8000b012 <atol+0x52>
    8000afe8:	0007c683          	lbu	a3,0(a5)
    8000afec:	4581                	li	a1,0
    8000afee:	ce8d                	beqz	a3,8000b028 <atol+0x68>
    8000aff0:	4501                	li	a0,0
    8000aff2:	0785                	addi	a5,a5,1
    8000aff4:	00251713          	slli	a4,a0,0x2
    8000aff8:	fd06861b          	addiw	a2,a3,-48
    8000affc:	0007c683          	lbu	a3,0(a5)
    8000b000:	972a                	add	a4,a4,a0
    8000b002:	0706                	slli	a4,a4,0x1
    8000b004:	00e60533          	add	a0,a2,a4
    8000b008:	f6ed                	bnez	a3,8000aff2 <atol+0x32>
    8000b00a:	c185                	beqz	a1,8000b02a <atol+0x6a>
    8000b00c:	40a00533          	neg	a0,a0
    8000b010:	8082                	ret
    8000b012:	0017c683          	lbu	a3,1(a5)
    8000b016:	0785                	addi	a5,a5,1
    8000b018:	ca81                	beqz	a3,8000b028 <atol+0x68>
    8000b01a:	4581                	li	a1,0
    8000b01c:	bfd1                	j	8000aff0 <atol+0x30>
    8000b01e:	0017c683          	lbu	a3,1(a5)
    8000b022:	4585                	li	a1,1
    8000b024:	0785                	addi	a5,a5,1
    8000b026:	f6e9                	bnez	a3,8000aff0 <atol+0x30>
    8000b028:	4501                	li	a0,0
    8000b02a:	8082                	ret

000000008000b02c <__errno>:
    8000b02c:	83818513          	addi	a0,gp,-1992 # 8000b720 <__errno_location>
    8000b030:	8082                	ret

000000008000b032 <atoi>:
    8000b032:	cd41                	beqz	a0,8000b0ca <atoi+0x98>
    8000b034:	02000693          	li	a3,32
    8000b038:	4611                	li	a2,4
    8000b03a:	00054783          	lbu	a5,0(a0)
    8000b03e:	ff77871b          	addiw	a4,a5,-9
    8000b042:	0ff77713          	zext.b	a4,a4
    8000b046:	06d78863          	beq	a5,a3,8000b0b6 <atoi+0x84>
    8000b04a:	06e67663          	bgeu	a2,a4,8000b0b6 <atoi+0x84>
    8000b04e:	02b00713          	li	a4,43
    8000b052:	06e78763          	beq	a5,a4,8000b0c0 <atoi+0x8e>
    8000b056:	02d00713          	li	a4,45
    8000b05a:	4305                	li	t1,1
    8000b05c:	06e78963          	beq	a5,a4,8000b0ce <atoi+0x9c>
    8000b060:	fd07879b          	addiw	a5,a5,-48
    8000b064:	0ff7f693          	zext.b	a3,a5
    8000b068:	4725                	li	a4,9
    8000b06a:	06d76063          	bltu	a4,a3,8000b0ca <atoi+0x98>
    8000b06e:	800005b7          	lui	a1,0x80000
    8000b072:	4681                	li	a3,0
    8000b074:	35fd                	addiw	a1,a1,-1 # 7fffffff <buflen.1+0x7fffffbf>
    8000b076:	4829                	li	a6,10
    8000b078:	48a5                	li	a7,9
    8000b07a:	a819                	j	8000b090 <atoi+0x5e>
    8000b07c:	00054783          	lbu	a5,0(a0)
    8000b080:	0007069b          	sext.w	a3,a4
    8000b084:	fd07879b          	addiw	a5,a5,-48
    8000b088:	0ff7f613          	zext.b	a2,a5
    8000b08c:	02c8e763          	bltu	a7,a2,8000b0ba <atoi+0x88>
    8000b090:	40f5863b          	subw	a2,a1,a5
    8000b094:	0306463b          	divw	a2,a2,a6
    8000b098:	0026971b          	slliw	a4,a3,0x2
    8000b09c:	9f35                	addw	a4,a4,a3
    8000b09e:	0017171b          	slliw	a4,a4,0x1
    8000b0a2:	0505                	addi	a0,a0,1
    8000b0a4:	9f3d                	addw	a4,a4,a5
    8000b0a6:	fcd65be3          	bge	a2,a3,8000b07c <atoi+0x4a>
    8000b0aa:	4785                	li	a5,1
    8000b0ac:	80000537          	lui	a0,0x80000
    8000b0b0:	02f30163          	beq	t1,a5,8000b0d2 <atoi+0xa0>
    8000b0b4:	8082                	ret
    8000b0b6:	0505                	addi	a0,a0,1 # ffffffff80000001 <_tbss_end+0xfffffffefffeeabd>
    8000b0b8:	b749                	j	8000b03a <atoi+0x8>
    8000b0ba:	0267053b          	mulw	a0,a4,t1
    8000b0be:	8082                	ret
    8000b0c0:	4305                	li	t1,1
    8000b0c2:	00154783          	lbu	a5,1(a0)
    8000b0c6:	0505                	addi	a0,a0,1
    8000b0c8:	bf61                	j	8000b060 <atoi+0x2e>
    8000b0ca:	4501                	li	a0,0
    8000b0cc:	8082                	ret
    8000b0ce:	537d                	li	t1,-1
    8000b0d0:	bfcd                	j	8000b0c2 <atoi+0x90>
    8000b0d2:	fff54513          	not	a0,a0
    8000b0d6:	8082                	ret

000000008000b0d8 <strtol>:
    8000b0d8:	872a                	mv	a4,a0
    8000b0da:	4811                	li	a6,4
    8000b0dc:	02000513          	li	a0,32
    8000b0e0:	00074683          	lbu	a3,0(a4)
    8000b0e4:	ff76879b          	addiw	a5,a3,-9
    8000b0e8:	0ff7f793          	zext.b	a5,a5
    8000b0ec:	04a68b63          	beq	a3,a0,8000b142 <strtol+0x6a>
    8000b0f0:	04f87963          	bgeu	a6,a5,8000b142 <strtol+0x6a>
    8000b0f4:	02d00793          	li	a5,45
    8000b0f8:	08f68963          	beq	a3,a5,8000b18a <strtol+0xb2>
    8000b0fc:	02b00793          	li	a5,43
    8000b100:	4e01                	li	t3,0
    8000b102:	08f68063          	beq	a3,a5,8000b182 <strtol+0xaa>
    8000b106:	ee29                	bnez	a2,8000b160 <strtol+0x88>
    8000b108:	03000793          	li	a5,48
    8000b10c:	4629                	li	a2,10
    8000b10e:	08f68363          	beq	a3,a5,8000b194 <strtol+0xbc>
    8000b112:	4501                	li	a0,0
    8000b114:	48a5                	li	a7,9
    8000b116:	4365                	li	t1,25
    8000b118:	00074683          	lbu	a3,0(a4)
    8000b11c:	fd06879b          	addiw	a5,a3,-48
    8000b120:	f9f6881b          	addiw	a6,a3,-97
    8000b124:	00f8f863          	bgeu	a7,a5,8000b134 <strtol+0x5c>
    8000b128:	fbf6879b          	addiw	a5,a3,-65
    8000b12c:	01036d63          	bltu	t1,a6,8000b146 <strtol+0x6e>
    8000b130:	fa96879b          	addiw	a5,a3,-87
    8000b134:	00c7df63          	bge	a5,a2,8000b152 <strtol+0x7a>
    8000b138:	02a60533          	mul	a0,a2,a0
    8000b13c:	0705                	addi	a4,a4,1
    8000b13e:	953e                	add	a0,a0,a5
    8000b140:	bfe1                	j	8000b118 <strtol+0x40>
    8000b142:	0705                	addi	a4,a4,1
    8000b144:	bf71                	j	8000b0e0 <strtol+0x8>
    8000b146:	00f36663          	bltu	t1,a5,8000b152 <strtol+0x7a>
    8000b14a:	fc96879b          	addiw	a5,a3,-55
    8000b14e:	fec7c5e3          	blt	a5,a2,8000b138 <strtol+0x60>
    8000b152:	c191                	beqz	a1,8000b156 <strtol+0x7e>
    8000b154:	e198                	sd	a4,0(a1)
    8000b156:	000e0463          	beqz	t3,8000b15e <strtol+0x86>
    8000b15a:	40a00533          	neg	a0,a0
    8000b15e:	8082                	ret
    8000b160:	47c1                	li	a5,16
    8000b162:	faf618e3          	bne	a2,a5,8000b112 <strtol+0x3a>
    8000b166:	03000793          	li	a5,48
    8000b16a:	faf694e3          	bne	a3,a5,8000b112 <strtol+0x3a>
    8000b16e:	00174783          	lbu	a5,1(a4)
    8000b172:	05800693          	li	a3,88
    8000b176:	0df7f793          	andi	a5,a5,223
    8000b17a:	f8d79ce3          	bne	a5,a3,8000b112 <strtol+0x3a>
    8000b17e:	0709                	addi	a4,a4,2
    8000b180:	bf49                	j	8000b112 <strtol+0x3a>
    8000b182:	00174683          	lbu	a3,1(a4)
    8000b186:	0705                	addi	a4,a4,1
    8000b188:	bfbd                	j	8000b106 <strtol+0x2e>
    8000b18a:	00174683          	lbu	a3,1(a4)
    8000b18e:	4e05                	li	t3,1
    8000b190:	0705                	addi	a4,a4,1
    8000b192:	bf95                	j	8000b106 <strtol+0x2e>
    8000b194:	00174783          	lbu	a5,1(a4)
    8000b198:	05800693          	li	a3,88
    8000b19c:	0df7f793          	andi	a5,a5,223
    8000b1a0:	00d78563          	beq	a5,a3,8000b1aa <strtol+0xd2>
    8000b1a4:	0705                	addi	a4,a4,1
    8000b1a6:	4621                	li	a2,8
    8000b1a8:	b7ad                	j	8000b112 <strtol+0x3a>
    8000b1aa:	0709                	addi	a4,a4,2
    8000b1ac:	4641                	li	a2,16
    8000b1ae:	b795                	j	8000b112 <strtol+0x3a>

000000008000b1b0 <my_isspace>:
    8000b1b0:	02000793          	li	a5,32
    8000b1b4:	00f50863          	beq	a0,a5,8000b1c4 <my_isspace+0x14>
    8000b1b8:	355d                	addiw	a0,a0,-9
    8000b1ba:	0ff57513          	zext.b	a0,a0
    8000b1be:	00553513          	sltiu	a0,a0,5
    8000b1c2:	8082                	ret
    8000b1c4:	4505                	li	a0,1
    8000b1c6:	8082                	ret

000000008000b1c8 <my_isdigit>:
    8000b1c8:	fd05051b          	addiw	a0,a0,-48
    8000b1cc:	0ff57513          	zext.b	a0,a0
    8000b1d0:	00a53513          	sltiu	a0,a0,10
    8000b1d4:	8082                	ret

000000008000b1d6 <strtod>:
    8000b1d6:	02000693          	li	a3,32
    8000b1da:	4611                	li	a2,4
    8000b1dc:	00054783          	lbu	a5,0(a0)
    8000b1e0:	ff77871b          	addiw	a4,a5,-9
    8000b1e4:	0ff77713          	zext.b	a4,a4
    8000b1e8:	08d78263          	beq	a5,a3,8000b26c <strtod+0x96>
    8000b1ec:	08e67063          	bgeu	a2,a4,8000b26c <strtod+0x96>
    8000b1f0:	02d00713          	li	a4,45
    8000b1f4:	06e78e63          	beq	a5,a4,8000b270 <strtod+0x9a>
    8000b1f8:	02b00713          	li	a4,43
    8000b1fc:	08e78663          	beq	a5,a4,8000b288 <strtod+0xb2>
    8000b200:	00000717          	auipc	a4,0x0
    8000b204:	4e873587          	fld	fa1,1256(a4) # 8000b6e8 <gen2+0x1b0>
    8000b208:	22b58553          	fmv.d	fa0,fa1
    8000b20c:	fd07871b          	addiw	a4,a5,-48
    8000b210:	0ff77613          	zext.b	a2,a4
    8000b214:	46a5                	li	a3,9
    8000b216:	f20007d3          	fmv.d.x	fa5,zero
    8000b21a:	02c6e463          	bltu	a3,a2,8000b242 <strtod+0x6c>
    8000b21e:	00000797          	auipc	a5,0x0
    8000b222:	4da7b687          	fld	fa3,1242(a5) # 8000b6f8 <gen2+0x1c0>
    8000b226:	4625                	li	a2,9
    8000b228:	00154783          	lbu	a5,1(a0)
    8000b22c:	d2070753          	fcvt.d.w	fa4,a4
    8000b230:	0505                	addi	a0,a0,1
    8000b232:	fd07871b          	addiw	a4,a5,-48
    8000b236:	0ff77693          	zext.b	a3,a4
    8000b23a:	72d7f7c3          	fmadd.d	fa5,fa5,fa3,fa4
    8000b23e:	fed675e3          	bgeu	a2,a3,8000b228 <strtod+0x52>
    8000b242:	02e00713          	li	a4,46
    8000b246:	0ce78363          	beq	a5,a4,8000b30c <strtod+0x136>
    8000b24a:	00054703          	lbu	a4,0(a0)
    8000b24e:	0df77713          	andi	a4,a4,223
    8000b252:	04500793          	li	a5,69
    8000b256:	22b58753          	fmv.d	fa4,fa1
    8000b25a:	04f70163          	beq	a4,a5,8000b29c <strtod+0xc6>
    8000b25e:	12a7f553          	fmul.d	fa0,fa5,fa0
    8000b262:	12e57553          	fmul.d	fa0,fa0,fa4
    8000b266:	c191                	beqz	a1,8000b26a <strtod+0x94>
    8000b268:	e188                	sd	a0,0(a1)
    8000b26a:	8082                	ret
    8000b26c:	0505                	addi	a0,a0,1
    8000b26e:	b7bd                	j	8000b1dc <strtod+0x6>
    8000b270:	00154783          	lbu	a5,1(a0)
    8000b274:	00000717          	auipc	a4,0x0
    8000b278:	47c73507          	fld	fa0,1148(a4) # 8000b6f0 <gen2+0x1b8>
    8000b27c:	0505                	addi	a0,a0,1
    8000b27e:	00000717          	auipc	a4,0x0
    8000b282:	46a73587          	fld	fa1,1130(a4) # 8000b6e8 <gen2+0x1b0>
    8000b286:	b759                	j	8000b20c <strtod+0x36>
    8000b288:	00000797          	auipc	a5,0x0
    8000b28c:	4607b587          	fld	fa1,1120(a5) # 8000b6e8 <gen2+0x1b0>
    8000b290:	00154783          	lbu	a5,1(a0)
    8000b294:	22b58553          	fmv.d	fa0,fa1
    8000b298:	0505                	addi	a0,a0,1
    8000b29a:	bf8d                	j	8000b20c <strtod+0x36>
    8000b29c:	00154803          	lbu	a6,1(a0)
    8000b2a0:	02d00793          	li	a5,45
    8000b2a4:	0cf80363          	beq	a6,a5,8000b36a <strtod+0x194>
    8000b2a8:	02b00793          	li	a5,43
    8000b2ac:	0ef80563          	beq	a6,a5,8000b396 <strtod+0x1c0>
    8000b2b0:	0505                	addi	a0,a0,1
    8000b2b2:	4705                	li	a4,1
    8000b2b4:	fd08069b          	addiw	a3,a6,-48
    8000b2b8:	0ff6f613          	zext.b	a2,a3
    8000b2bc:	47a5                	li	a5,9
    8000b2be:	0ec7e163          	bltu	a5,a2,8000b3a0 <strtod+0x1ca>
    8000b2c2:	4601                	li	a2,0
    8000b2c4:	48a5                	li	a7,9
    8000b2c6:	00154803          	lbu	a6,1(a0)
    8000b2ca:	0026179b          	slliw	a5,a2,0x2
    8000b2ce:	9fb1                	addw	a5,a5,a2
    8000b2d0:	0017979b          	slliw	a5,a5,0x1
    8000b2d4:	00f6863b          	addw	a2,a3,a5
    8000b2d8:	fd08069b          	addiw	a3,a6,-48
    8000b2dc:	0ff6f813          	zext.b	a6,a3
    8000b2e0:	0505                	addi	a0,a0,1
    8000b2e2:	ff08f2e3          	bgeu	a7,a6,8000b2c6 <strtod+0xf0>
    8000b2e6:	02c7073b          	mulw	a4,a4,a2
    8000b2ea:	08075563          	bgez	a4,8000b374 <strtod+0x19e>
    8000b2ee:	22b58753          	fmv.d	fa4,fa1
    8000b2f2:	0017079b          	addiw	a5,a4,1
    8000b2f6:	00000717          	auipc	a4,0x0
    8000b2fa:	40a73687          	fld	fa3,1034(a4) # 8000b700 <gen2+0x1c8>
    8000b2fe:	4705                	li	a4,1
    8000b300:	2785                	addiw	a5,a5,1
    8000b302:	12d77753          	fmul.d	fa4,fa4,fa3
    8000b306:	fee79de3          	bne	a5,a4,8000b300 <strtod+0x12a>
    8000b30a:	bf91                	j	8000b25e <strtod+0x88>
    8000b30c:	00154703          	lbu	a4,1(a0)
    8000b310:	46a5                	li	a3,9
    8000b312:	0505                	addi	a0,a0,1
    8000b314:	fd07079b          	addiw	a5,a4,-48
    8000b318:	0ff7f613          	zext.b	a2,a5
    8000b31c:	f2c6e9e3          	bltu	a3,a2,8000b24e <strtod+0x78>
    8000b320:	d2078753          	fcvt.d.w	fa4,a5
    8000b324:	4325                	li	t1,9
    8000b326:	4781                	li	a5,0
    8000b328:	00000717          	auipc	a4,0x0
    8000b32c:	3d873687          	fld	fa3,984(a4) # 8000b700 <gen2+0x1c8>
    8000b330:	4685                	li	a3,1
    8000b332:	00154703          	lbu	a4,1(a0)
    8000b336:	02e7f7d3          	fadd.d	fa5,fa5,fa4
    8000b33a:	0505                	addi	a0,a0,1
    8000b33c:	fd07061b          	addiw	a2,a4,-48
    8000b340:	0ff67813          	zext.b	a6,a2
    8000b344:	0017889b          	addiw	a7,a5,1
    8000b348:	f10363e3          	bltu	t1,a6,8000b24e <strtod+0x78>
    8000b34c:	22b58753          	fmv.d	fa4,fa1
    8000b350:	40f007bb          	negw	a5,a5
    8000b354:	2785                	addiw	a5,a5,1
    8000b356:	12d77753          	fmul.d	fa4,fa4,fa3
    8000b35a:	fed79de3          	bne	a5,a3,8000b354 <strtod+0x17e>
    8000b35e:	d2060653          	fcvt.d.w	fa2,a2
    8000b362:	87c6                	mv	a5,a7
    8000b364:	12e67753          	fmul.d	fa4,fa2,fa4
    8000b368:	b7e9                	j	8000b332 <strtod+0x15c>
    8000b36a:	00254803          	lbu	a6,2(a0)
    8000b36e:	577d                	li	a4,-1
    8000b370:	0509                	addi	a0,a0,2
    8000b372:	b789                	j	8000b2b4 <strtod+0xde>
    8000b374:	22b58753          	fmv.d	fa4,fa1
    8000b378:	fff7079b          	addiw	a5,a4,-1
    8000b37c:	ee0701e3          	beqz	a4,8000b25e <strtod+0x88>
    8000b380:	00000717          	auipc	a4,0x0
    8000b384:	37873687          	fld	fa3,888(a4) # 8000b6f8 <gen2+0x1c0>
    8000b388:	577d                	li	a4,-1
    8000b38a:	37fd                	addiw	a5,a5,-1
    8000b38c:	12d77753          	fmul.d	fa4,fa4,fa3
    8000b390:	fee79de3          	bne	a5,a4,8000b38a <strtod+0x1b4>
    8000b394:	b5e9                	j	8000b25e <strtod+0x88>
    8000b396:	00254803          	lbu	a6,2(a0)
    8000b39a:	4705                	li	a4,1
    8000b39c:	0509                	addi	a0,a0,2
    8000b39e:	bf19                	j	8000b2b4 <strtod+0xde>
    8000b3a0:	22b58753          	fmv.d	fa4,fa1
    8000b3a4:	bd6d                	j	8000b25e <strtod+0x88>

000000008000b3a6 <atof>:
    8000b3a6:	4581                	li	a1,0
    8000b3a8:	b53d                	j	8000b1d6 <strtod>

000000008000b3aa <strtoll>:
    8000b3aa:	872a                	mv	a4,a0
    8000b3ac:	4811                	li	a6,4
    8000b3ae:	02000513          	li	a0,32
    8000b3b2:	00074683          	lbu	a3,0(a4)
    8000b3b6:	ff76879b          	addiw	a5,a3,-9
    8000b3ba:	0ff7f793          	zext.b	a5,a5
    8000b3be:	04a68963          	beq	a3,a0,8000b410 <strtoll+0x66>
    8000b3c2:	04f87763          	bgeu	a6,a5,8000b410 <strtoll+0x66>
    8000b3c6:	02d00793          	li	a5,45
    8000b3ca:	08f68663          	beq	a3,a5,8000b456 <strtoll+0xac>
    8000b3ce:	02b00793          	li	a5,43
    8000b3d2:	4e01                	li	t3,0
    8000b3d4:	06f68d63          	beq	a3,a5,8000b44e <strtoll+0xa4>
    8000b3d8:	ca39                	beqz	a2,8000b42e <strtoll+0x84>
    8000b3da:	47c1                	li	a5,16
    8000b3dc:	08f60263          	beq	a2,a5,8000b460 <strtoll+0xb6>
    8000b3e0:	4501                	li	a0,0
    8000b3e2:	48a5                	li	a7,9
    8000b3e4:	4365                	li	t1,25
    8000b3e6:	00074683          	lbu	a3,0(a4)
    8000b3ea:	fd06879b          	addiw	a5,a3,-48
    8000b3ee:	f9f6881b          	addiw	a6,a3,-97
    8000b3f2:	00f8f863          	bgeu	a7,a5,8000b402 <strtoll+0x58>
    8000b3f6:	fbf6879b          	addiw	a5,a3,-65
    8000b3fa:	01036d63          	bltu	t1,a6,8000b414 <strtoll+0x6a>
    8000b3fe:	fa96879b          	addiw	a5,a3,-87
    8000b402:	00c7df63          	bge	a5,a2,8000b420 <strtoll+0x76>
    8000b406:	02a60533          	mul	a0,a2,a0
    8000b40a:	0705                	addi	a4,a4,1
    8000b40c:	953e                	add	a0,a0,a5
    8000b40e:	bfe1                	j	8000b3e6 <strtoll+0x3c>
    8000b410:	0705                	addi	a4,a4,1
    8000b412:	b745                	j	8000b3b2 <strtoll+0x8>
    8000b414:	00f36663          	bltu	t1,a5,8000b420 <strtoll+0x76>
    8000b418:	fc96879b          	addiw	a5,a3,-55
    8000b41c:	fec7c5e3          	blt	a5,a2,8000b406 <strtoll+0x5c>
    8000b420:	c191                	beqz	a1,8000b424 <strtoll+0x7a>
    8000b422:	e198                	sd	a4,0(a1)
    8000b424:	000e0463          	beqz	t3,8000b42c <strtoll+0x82>
    8000b428:	40a00533          	neg	a0,a0
    8000b42c:	8082                	ret
    8000b42e:	03000793          	li	a5,48
    8000b432:	4629                	li	a2,10
    8000b434:	faf696e3          	bne	a3,a5,8000b3e0 <strtoll+0x36>
    8000b438:	00174783          	lbu	a5,1(a4)
    8000b43c:	05800693          	li	a3,88
    8000b440:	0df7f793          	andi	a5,a5,223
    8000b444:	02d78a63          	beq	a5,a3,8000b478 <strtoll+0xce>
    8000b448:	0705                	addi	a4,a4,1
    8000b44a:	4621                	li	a2,8
    8000b44c:	bf51                	j	8000b3e0 <strtoll+0x36>
    8000b44e:	00174683          	lbu	a3,1(a4)
    8000b452:	0705                	addi	a4,a4,1
    8000b454:	b751                	j	8000b3d8 <strtoll+0x2e>
    8000b456:	00174683          	lbu	a3,1(a4)
    8000b45a:	4e05                	li	t3,1
    8000b45c:	0705                	addi	a4,a4,1
    8000b45e:	bfad                	j	8000b3d8 <strtoll+0x2e>
    8000b460:	03000793          	li	a5,48
    8000b464:	f6f69ee3          	bne	a3,a5,8000b3e0 <strtoll+0x36>
    8000b468:	00174783          	lbu	a5,1(a4)
    8000b46c:	05800693          	li	a3,88
    8000b470:	0df7f793          	andi	a5,a5,223
    8000b474:	f6d796e3          	bne	a5,a3,8000b3e0 <strtoll+0x36>
    8000b478:	0709                	addi	a4,a4,2
    8000b47a:	4641                	li	a2,16
    8000b47c:	b795                	j	8000b3e0 <strtoll+0x36>

000000008000b47e <atoll>:
    8000b47e:	872a                	mv	a4,a0
    8000b480:	02000613          	li	a2,32
    8000b484:	4591                	li	a1,4
    8000b486:	00074683          	lbu	a3,0(a4)
    8000b48a:	ff76879b          	addiw	a5,a3,-9
    8000b48e:	0ff7f793          	zext.b	a5,a5
    8000b492:	04c68b63          	beq	a3,a2,8000b4e8 <atoll+0x6a>
    8000b496:	04f5f963          	bgeu	a1,a5,8000b4e8 <atoll+0x6a>
    8000b49a:	02d00793          	li	a5,45
    8000b49e:	06f68363          	beq	a3,a5,8000b504 <atoll+0x86>
    8000b4a2:	02b00793          	li	a5,43
    8000b4a6:	04f68363          	beq	a3,a5,8000b4ec <atoll+0x6e>
    8000b4aa:	fd06861b          	addiw	a2,a3,-48
    8000b4ae:	0ff67693          	zext.b	a3,a2
    8000b4b2:	47a5                	li	a5,9
    8000b4b4:	4801                	li	a6,0
    8000b4b6:	06d7e263          	bltu	a5,a3,8000b51a <atoll+0x9c>
    8000b4ba:	4501                	li	a0,0
    8000b4bc:	45a5                	li	a1,9
    8000b4be:	00174683          	lbu	a3,1(a4)
    8000b4c2:	00251793          	slli	a5,a0,0x2
    8000b4c6:	97aa                	add	a5,a5,a0
    8000b4c8:	0006051b          	sext.w	a0,a2
    8000b4cc:	fd06861b          	addiw	a2,a3,-48
    8000b4d0:	0786                	slli	a5,a5,0x1
    8000b4d2:	0ff67693          	zext.b	a3,a2
    8000b4d6:	0705                	addi	a4,a4,1
    8000b4d8:	953e                	add	a0,a0,a5
    8000b4da:	fed5f2e3          	bgeu	a1,a3,8000b4be <atoll+0x40>
    8000b4de:	02080f63          	beqz	a6,8000b51c <atoll+0x9e>
    8000b4e2:	40a00533          	neg	a0,a0
    8000b4e6:	8082                	ret
    8000b4e8:	0705                	addi	a4,a4,1
    8000b4ea:	bf71                	j	8000b486 <atoll+0x8>
    8000b4ec:	00174683          	lbu	a3,1(a4)
    8000b4f0:	47a5                	li	a5,9
    8000b4f2:	0705                	addi	a4,a4,1
    8000b4f4:	fd06861b          	addiw	a2,a3,-48
    8000b4f8:	0ff67693          	zext.b	a3,a2
    8000b4fc:	00d7ef63          	bltu	a5,a3,8000b51a <atoll+0x9c>
    8000b500:	4801                	li	a6,0
    8000b502:	bf65                	j	8000b4ba <atoll+0x3c>
    8000b504:	00174683          	lbu	a3,1(a4)
    8000b508:	47a5                	li	a5,9
    8000b50a:	0705                	addi	a4,a4,1
    8000b50c:	fd06861b          	addiw	a2,a3,-48
    8000b510:	0ff67693          	zext.b	a3,a2
    8000b514:	4805                	li	a6,1
    8000b516:	fad7f2e3          	bgeu	a5,a3,8000b4ba <atoll+0x3c>
    8000b51a:	4501                	li	a0,0
    8000b51c:	8082                	ret

Disassembly of section .text.startup:

000000008000b51e <.text.startup>:
    8000b51e:	1141                	addi	sp,sp,-16
    8000b520:	00000517          	auipc	a0,0x0
    8000b524:	1a050513          	addi	a0,a0,416 # 8000b6c0 <gen2+0x188>
    8000b528:	e406                	sd	ra,8(sp)
    8000b52a:	fc6ff0ef          	jal	8000acf0 <printstr>
    8000b52e:	60a2                	ld	ra,8(sp)
    8000b530:	557d                	li	a0,-1
    8000b532:	0141                	addi	sp,sp,16
    8000b534:	8082                	ret
