
mainop_O2U4_YN.riscv:     file format elf64-littleriscv


Disassembly of section .text.init:

0000000080000000 <_start>:
    80000000:	4081                	li	ra,0
    80000002:	4101                	li	sp,0
    80000004:	4181                	li	gp,0
    80000006:	4201                	li	tp,0
    80000008:	4281                	li	t0,0
    8000000a:	4301                	li	t1,0
    8000000c:	4381                	li	t2,0
    8000000e:	4401                	li	s0,0
    80000010:	4481                	li	s1,0
    80000012:	4501                	li	a0,0
    80000014:	4581                	li	a1,0
    80000016:	4601                	li	a2,0
    80000018:	4681                	li	a3,0
    8000001a:	4701                	li	a4,0
    8000001c:	4781                	li	a5,0
    8000001e:	4801                	li	a6,0
    80000020:	4881                	li	a7,0
    80000022:	4901                	li	s2,0
    80000024:	4981                	li	s3,0
    80000026:	4a01                	li	s4,0
    80000028:	4a81                	li	s5,0
    8000002a:	4b01                	li	s6,0
    8000002c:	4b81                	li	s7,0
    8000002e:	4c01                	li	s8,0
    80000030:	4c81                	li	s9,0
    80000032:	4d01                	li	s10,0
    80000034:	4d81                	li	s11,0
    80000036:	4e01                	li	t3,0
    80000038:	4e81                	li	t4,0
    8000003a:	4f01                	li	t5,0
    8000003c:	4f81                	li	t6,0
    8000003e:	62f9                	lui	t0,0x1e
    80000040:	3002a073          	csrs	mstatus,t0
    80000044:	4285                	li	t0,1
    80000046:	02fe                	slli	t0,t0,0x1f
    80000048:	0002d863          	bgez	t0,80000058 <_start+0x58>
    8000004c:	4505                	li	a0,1
    8000004e:	00001297          	auipc	t0,0x1
    80000052:	faa2a923          	sw	a0,-78(t0) # 80001000 <tohost>
    80000056:	bfdd                	j	8000004c <_start+0x4c>
    80000058:	00000297          	auipc	t0,0x0
    8000005c:	09028293          	addi	t0,t0,144 # 800000e8 <_start+0xe8>
    80000060:	30529073          	csrw	mtvec,t0
    80000064:	00301073          	fscsr	zero
    80000068:	f0000053          	fmv.w.x	ft0,zero
    8000006c:	f00000d3          	fmv.w.x	ft1,zero
    80000070:	f0000153          	fmv.w.x	ft2,zero
    80000074:	f00001d3          	fmv.w.x	ft3,zero
    80000078:	f0000253          	fmv.w.x	ft4,zero
    8000007c:	f00002d3          	fmv.w.x	ft5,zero
    80000080:	f0000353          	fmv.w.x	ft6,zero
    80000084:	f00003d3          	fmv.w.x	ft7,zero
    80000088:	f0000453          	fmv.w.x	fs0,zero
    8000008c:	f00004d3          	fmv.w.x	fs1,zero
    80000090:	f0000553          	fmv.w.x	fa0,zero
    80000094:	f00005d3          	fmv.w.x	fa1,zero
    80000098:	f0000653          	fmv.w.x	fa2,zero
    8000009c:	f00006d3          	fmv.w.x	fa3,zero
    800000a0:	f0000753          	fmv.w.x	fa4,zero
    800000a4:	f00007d3          	fmv.w.x	fa5,zero
    800000a8:	f0000853          	fmv.w.x	fa6,zero
    800000ac:	f00008d3          	fmv.w.x	fa7,zero
    800000b0:	f0000953          	fmv.w.x	fs2,zero
    800000b4:	f00009d3          	fmv.w.x	fs3,zero
    800000b8:	f0000a53          	fmv.w.x	fs4,zero
    800000bc:	f0000ad3          	fmv.w.x	fs5,zero
    800000c0:	f0000b53          	fmv.w.x	fs6,zero
    800000c4:	f0000bd3          	fmv.w.x	fs7,zero
    800000c8:	f0000c53          	fmv.w.x	fs8,zero
    800000cc:	f0000cd3          	fmv.w.x	fs9,zero
    800000d0:	f0000d53          	fmv.w.x	fs10,zero
    800000d4:	f0000dd3          	fmv.w.x	fs11,zero
    800000d8:	f0000e53          	fmv.w.x	ft8,zero
    800000dc:	f0000ed3          	fmv.w.x	ft9,zero
    800000e0:	f0000f53          	fmv.w.x	ft10,zero
    800000e4:	f0000fd3          	fmv.w.x	ft11,zero
    800000e8:	00000297          	auipc	t0,0x0
    800000ec:	03c28293          	addi	t0,t0,60 # 80000124 <trap_entry>
    800000f0:	30529073          	csrw	mtvec,t0
    800000f4:	00009197          	auipc	gp,0x9
    800000f8:	72c18193          	addi	gp,gp,1836 # 80009820 <__global_pointer$>
    800000fc:	0000f217          	auipc	tp,0xf
    80000100:	d8320213          	addi	tp,tp,-637 # 8000ee7f <_end+0x3f>
    80000104:	fc027213          	andi	tp,tp,-64
    80000108:	f1402573          	csrr	a0,mhartid
    8000010c:	4585                	li	a1,1
    8000010e:	00b57063          	bgeu	a0,a1,8000010e <_start+0x10e>
    80000112:	00150113          	addi	sp,a0,1
    80000116:	0146                	slli	sp,sp,0x11
    80000118:	9112                	add	sp,sp,tp
    8000011a:	01151613          	slli	a2,a0,0x11
    8000011e:	9232                	add	tp,tp,a2
    80000120:	6aa0806f          	j	800087ca <_init>

0000000080000124 <trap_entry>:
    80000124:	716d                	addi	sp,sp,-272
    80000126:	e406                	sd	ra,8(sp)
    80000128:	e80a                	sd	sp,16(sp)
    8000012a:	ec0e                	sd	gp,24(sp)
    8000012c:	f012                	sd	tp,32(sp)
    8000012e:	f416                	sd	t0,40(sp)
    80000130:	f81a                	sd	t1,48(sp)
    80000132:	fc1e                	sd	t2,56(sp)
    80000134:	e0a2                	sd	s0,64(sp)
    80000136:	e4a6                	sd	s1,72(sp)
    80000138:	e8aa                	sd	a0,80(sp)
    8000013a:	ecae                	sd	a1,88(sp)
    8000013c:	f0b2                	sd	a2,96(sp)
    8000013e:	f4b6                	sd	a3,104(sp)
    80000140:	f8ba                	sd	a4,112(sp)
    80000142:	fcbe                	sd	a5,120(sp)
    80000144:	e142                	sd	a6,128(sp)
    80000146:	e546                	sd	a7,136(sp)
    80000148:	e94a                	sd	s2,144(sp)
    8000014a:	ed4e                	sd	s3,152(sp)
    8000014c:	f152                	sd	s4,160(sp)
    8000014e:	f556                	sd	s5,168(sp)
    80000150:	f95a                	sd	s6,176(sp)
    80000152:	fd5e                	sd	s7,184(sp)
    80000154:	e1e2                	sd	s8,192(sp)
    80000156:	e5e6                	sd	s9,200(sp)
    80000158:	e9ea                	sd	s10,208(sp)
    8000015a:	edee                	sd	s11,216(sp)
    8000015c:	f1f2                	sd	t3,224(sp)
    8000015e:	f5f6                	sd	t4,232(sp)
    80000160:	f9fa                	sd	t5,240(sp)
    80000162:	fdfe                	sd	t6,248(sp)
    80000164:	34202573          	csrr	a0,mcause
    80000168:	341025f3          	csrr	a1,mepc
    8000016c:	860a                	mv	a2,sp
    8000016e:	494080ef          	jal	80008602 <handle_trap>
    80000172:	34151073          	csrw	mepc,a0
    80000176:	6289                	lui	t0,0x2
    80000178:	8002829b          	addiw	t0,t0,-2048 # 1800 <buflen.1+0x17c0>
    8000017c:	3002a073          	csrs	mstatus,t0
    80000180:	60a2                	ld	ra,8(sp)
    80000182:	6142                	ld	sp,16(sp)
    80000184:	61e2                	ld	gp,24(sp)
    80000186:	7202                	ld	tp,32(sp)
    80000188:	72a2                	ld	t0,40(sp)
    8000018a:	7342                	ld	t1,48(sp)
    8000018c:	73e2                	ld	t2,56(sp)
    8000018e:	6406                	ld	s0,64(sp)
    80000190:	64a6                	ld	s1,72(sp)
    80000192:	6546                	ld	a0,80(sp)
    80000194:	65e6                	ld	a1,88(sp)
    80000196:	7606                	ld	a2,96(sp)
    80000198:	76a6                	ld	a3,104(sp)
    8000019a:	7746                	ld	a4,112(sp)
    8000019c:	77e6                	ld	a5,120(sp)
    8000019e:	680a                	ld	a6,128(sp)
    800001a0:	68aa                	ld	a7,136(sp)
    800001a2:	694a                	ld	s2,144(sp)
    800001a4:	69ea                	ld	s3,152(sp)
    800001a6:	7a0a                	ld	s4,160(sp)
    800001a8:	7aaa                	ld	s5,168(sp)
    800001aa:	7b4a                	ld	s6,176(sp)
    800001ac:	7bea                	ld	s7,184(sp)
    800001ae:	6c0e                	ld	s8,192(sp)
    800001b0:	6cae                	ld	s9,200(sp)
    800001b2:	6d4e                	ld	s10,208(sp)
    800001b4:	6dee                	ld	s11,216(sp)
    800001b6:	7e0e                	ld	t3,224(sp)
    800001b8:	7eae                	ld	t4,232(sp)
    800001ba:	7f4e                	ld	t5,240(sp)
    800001bc:	7fee                	ld	t6,248(sp)
    800001be:	6151                	addi	sp,sp,272
    800001c0:	30200073          	mret
    800001c4:	0000                	unimp

Disassembly of section .text:

0000000080002000 <d2ull>:
    80002000:	e2050553          	fmv.x.d	a0,fa0
    80002004:	8082                	ret

0000000080002006 <ull2d>:
    80002006:	f2050553          	fmv.d.x	fa0,a0
    8000200a:	8082                	ret

000000008000200c <main>:
    8000200c:	81010113          	addi	sp,sp,-2032
    80002010:	7e113423          	sd	ra,2024(sp)
    80002014:	7e813023          	sd	s0,2016(sp)
    80002018:	7c913c23          	sd	s1,2008(sp)
    8000201c:	7d213823          	sd	s2,2000(sp)
    80002020:	7d313423          	sd	s3,1992(sp)
    80002024:	7d413023          	sd	s4,1984(sp)
    80002028:	7b513c23          	sd	s5,1976(sp)
    8000202c:	7b613823          	sd	s6,1968(sp)
    80002030:	7b713423          	sd	s7,1960(sp)
    80002034:	7b813023          	sd	s8,1952(sp)
    80002038:	79913c23          	sd	s9,1944(sp)
    8000203c:	79a13823          	sd	s10,1936(sp)
    80002040:	79b13423          	sd	s11,1928(sp)
    80002044:	80010113          	addi	sp,sp,-2048
    80002048:	7179                	addi	sp,sp,-48
    8000204a:	4701                	li	a4,0
    8000204c:	00007517          	auipc	a0,0x7
    80002050:	ff450513          	addi	a0,a0,-12 # 80009040 <gen2+0x1d0>
    80002054:	610c                	ld	a1,0(a0)
    80002056:	00007817          	auipc	a6,0x7
    8000205a:	ffa80813          	addi	a6,a6,-6 # 80009050 <gen1>
    8000205e:	00083683          	ld	a3,0(a6)
    80002062:	00007e17          	auipc	t3,0x7
    80002066:	ffee0e13          	addi	t3,t3,-2 # 80009060 <input>
    8000206a:	00007617          	auipc	a2,0x7
    8000206e:	fde60613          	addi	a2,a2,-34 # 80009048 <gen2+0x1d8>
    80002072:	6210                	ld	a2,0(a2)
    80002074:	3b9ad7b7          	lui	a5,0x3b9ad
    80002078:	a077829b          	addiw	t0,a5,-1529 # 3b9aca07 <buflen.1+0x3b9ac9c7>
    8000207c:	40000893          	li	a7,1024
    80002080:	02b68533          	mul	a0,a3,a1
    80002084:	02c53433          	mulhu	s0,a0,a2
    80002088:	8075                	srli	s0,s0,0x1d
    8000208a:	02540433          	mul	s0,s0,t0
    8000208e:	8d01                	sub	a0,a0,s0
    80002090:	02b50433          	mul	s0,a0,a1
    80002094:	02c434b3          	mulhu	s1,s0,a2
    80002098:	80f5                	srli	s1,s1,0x1d
    8000209a:	025484b3          	mul	s1,s1,t0
    8000209e:	409404b3          	sub	s1,s0,s1
    800020a2:	02b48433          	mul	s0,s1,a1
    800020a6:	02c437b3          	mulhu	a5,s0,a2
    800020aa:	83f5                	srli	a5,a5,0x1d
    800020ac:	025787b3          	mul	a5,a5,t0
    800020b0:	00b68333          	add	t1,a3,a1
    800020b4:	40f407b3          	sub	a5,s0,a5
    800020b8:	02b78433          	mul	s0,a5,a1
    800020bc:	00ee06b3          	add	a3,t3,a4
    800020c0:	0066b023          	sd	t1,0(a3)
    800020c4:	952e                	add	a0,a0,a1
    800020c6:	02c43333          	mulhu	t1,s0,a2
    800020ca:	e688                	sd	a0,8(a3)
    800020cc:	00b48533          	add	a0,s1,a1
    800020d0:	ea88                	sd	a0,16(a3)
    800020d2:	01d35513          	srli	a0,t1,0x1d
    800020d6:	02550533          	mul	a0,a0,t0
    800020da:	97ae                	add	a5,a5,a1
    800020dc:	ee9c                	sd	a5,24(a3)
    800020de:	02070713          	addi	a4,a4,32
    800020e2:	40a406b3          	sub	a3,s0,a0
    800020e6:	f9171de3          	bne	a4,a7,80002080 <main+0x74>
    800020ea:	4701                	li	a4,0
    800020ec:	3b9ad537          	lui	a0,0x3b9ad
    800020f0:	a075029b          	addiw	t0,a0,-1529 # 3b9aca07 <buflen.1+0x3b9ac9c7>
    800020f4:	40000893          	li	a7,1024
    800020f8:	02b68433          	mul	s0,a3,a1
    800020fc:	02c43533          	mulhu	a0,s0,a2
    80002100:	8175                	srli	a0,a0,0x1d
    80002102:	02550533          	mul	a0,a0,t0
    80002106:	40a40533          	sub	a0,s0,a0
    8000210a:	02b50433          	mul	s0,a0,a1
    8000210e:	02c434b3          	mulhu	s1,s0,a2
    80002112:	80f5                	srli	s1,s1,0x1d
    80002114:	025484b3          	mul	s1,s1,t0
    80002118:	409404b3          	sub	s1,s0,s1
    8000211c:	02b48433          	mul	s0,s1,a1
    80002120:	02c437b3          	mulhu	a5,s0,a2
    80002124:	83f5                	srli	a5,a5,0x1d
    80002126:	025787b3          	mul	a5,a5,t0
    8000212a:	00b68333          	add	t1,a3,a1
    8000212e:	40f407b3          	sub	a5,s0,a5
    80002132:	02b78433          	mul	s0,a5,a1
    80002136:	00ee06b3          	add	a3,t3,a4
    8000213a:	4066b023          	sd	t1,1024(a3)
    8000213e:	952e                	add	a0,a0,a1
    80002140:	02c43333          	mulhu	t1,s0,a2
    80002144:	40a6b423          	sd	a0,1032(a3)
    80002148:	00b48533          	add	a0,s1,a1
    8000214c:	40a6b823          	sd	a0,1040(a3)
    80002150:	01d35513          	srli	a0,t1,0x1d
    80002154:	02550533          	mul	a0,a0,t0
    80002158:	97ae                	add	a5,a5,a1
    8000215a:	40f6bc23          	sd	a5,1048(a3)
    8000215e:	02070713          	addi	a4,a4,32
    80002162:	40a406b3          	sub	a3,s0,a0
    80002166:	f91719e3          	bne	a4,a7,800020f8 <main+0xec>
    8000216a:	7ffe0893          	addi	a7,t3,2047
    8000216e:	01988793          	addi	a5,a7,25
    80002172:	08000493          	li	s1,128
    80002176:	3b9ad537          	lui	a0,0x3b9ad
    8000217a:	a075029b          	addiw	t0,a0,-1529 # 3b9aca07 <buflen.1+0x3b9ac9c7>
    8000217e:	02b68533          	mul	a0,a3,a1
    80002182:	02c53733          	mulhu	a4,a0,a2
    80002186:	8375                	srli	a4,a4,0x1d
    80002188:	02570733          	mul	a4,a4,t0
    8000218c:	40e50333          	sub	t1,a0,a4
    80002190:	02b30733          	mul	a4,t1,a1
    80002194:	02c73433          	mulhu	s0,a4,a2
    80002198:	8075                	srli	s0,s0,0x1d
    8000219a:	02540433          	mul	s0,s0,t0
    8000219e:	8f01                	sub	a4,a4,s0
    800021a0:	02b70433          	mul	s0,a4,a1
    800021a4:	02c43533          	mulhu	a0,s0,a2
    800021a8:	8175                	srli	a0,a0,0x1d
    800021aa:	02550533          	mul	a0,a0,t0
    800021ae:	40a40533          	sub	a0,s0,a0
    800021b2:	02b50433          	mul	s0,a0,a1
    800021b6:	96ae                	add	a3,a3,a1
    800021b8:	fed7b423          	sd	a3,-24(a5)
    800021bc:	02c433b3          	mulhu	t2,s0,a2
    800021c0:	00b306b3          	add	a3,t1,a1
    800021c4:	fed7b823          	sd	a3,-16(a5)
    800021c8:	00b706b3          	add	a3,a4,a1
    800021cc:	01d3d713          	srli	a4,t2,0x1d
    800021d0:	02570733          	mul	a4,a4,t0
    800021d4:	fed7bc23          	sd	a3,-8(a5)
    800021d8:	952e                	add	a0,a0,a1
    800021da:	e388                	sd	a0,0(a5)
    800021dc:	40e406b3          	sub	a3,s0,a4
    800021e0:	14f1                	addi	s1,s1,-4
    800021e2:	02078793          	addi	a5,a5,32
    800021e6:	fcc1                	bnez	s1,8000217e <main+0x172>
    800021e8:	41988713          	addi	a4,a7,1049
    800021ec:	08000793          	li	a5,128
    800021f0:	3b9ad537          	lui	a0,0x3b9ad
    800021f4:	a075089b          	addiw	a7,a0,-1529 # 3b9aca07 <buflen.1+0x3b9ac9c7>
    800021f8:	02b68533          	mul	a0,a3,a1
    800021fc:	02c53433          	mulhu	s0,a0,a2
    80002200:	8075                	srli	s0,s0,0x1d
    80002202:	03140433          	mul	s0,s0,a7
    80002206:	408502b3          	sub	t0,a0,s0
    8000220a:	02b28433          	mul	s0,t0,a1
    8000220e:	02c434b3          	mulhu	s1,s0,a2
    80002212:	80f5                	srli	s1,s1,0x1d
    80002214:	031484b3          	mul	s1,s1,a7
    80002218:	409404b3          	sub	s1,s0,s1
    8000221c:	02b48433          	mul	s0,s1,a1
    80002220:	02c43533          	mulhu	a0,s0,a2
    80002224:	8175                	srli	a0,a0,0x1d
    80002226:	03150533          	mul	a0,a0,a7
    8000222a:	40a40533          	sub	a0,s0,a0
    8000222e:	02b50433          	mul	s0,a0,a1
    80002232:	96ae                	add	a3,a3,a1
    80002234:	fed73423          	sd	a3,-24(a4)
    80002238:	02c43333          	mulhu	t1,s0,a2
    8000223c:	00b286b3          	add	a3,t0,a1
    80002240:	fed73823          	sd	a3,-16(a4)
    80002244:	00b486b3          	add	a3,s1,a1
    80002248:	01d35493          	srli	s1,t1,0x1d
    8000224c:	031484b3          	mul	s1,s1,a7
    80002250:	fed73c23          	sd	a3,-8(a4)
    80002254:	952e                	add	a0,a0,a1
    80002256:	e308                	sd	a0,0(a4)
    80002258:	409406b3          	sub	a3,s0,s1
    8000225c:	17f1                	addi	a5,a5,-4
    8000225e:	02070713          	addi	a4,a4,32
    80002262:	fbd9                	bnez	a5,800021f8 <main+0x1ec>
    80002264:	6505                	lui	a0,0x1
    80002266:	2561                	addiw	a0,a0,24 # 1018 <buflen.1+0xfd8>
    80002268:	00ae0733          	add	a4,t3,a0
    8000226c:	08000793          	li	a5,128
    80002270:	3b9ad537          	lui	a0,0x3b9ad
    80002274:	a075089b          	addiw	a7,a0,-1529 # 3b9aca07 <buflen.1+0x3b9ac9c7>
    80002278:	02b68533          	mul	a0,a3,a1
    8000227c:	02c53433          	mulhu	s0,a0,a2
    80002280:	8075                	srli	s0,s0,0x1d
    80002282:	03140433          	mul	s0,s0,a7
    80002286:	408502b3          	sub	t0,a0,s0
    8000228a:	02b28433          	mul	s0,t0,a1
    8000228e:	02c434b3          	mulhu	s1,s0,a2
    80002292:	80f5                	srli	s1,s1,0x1d
    80002294:	031484b3          	mul	s1,s1,a7
    80002298:	409404b3          	sub	s1,s0,s1
    8000229c:	02b48433          	mul	s0,s1,a1
    800022a0:	02c43533          	mulhu	a0,s0,a2
    800022a4:	8175                	srli	a0,a0,0x1d
    800022a6:	03150533          	mul	a0,a0,a7
    800022aa:	40a40533          	sub	a0,s0,a0
    800022ae:	02b50433          	mul	s0,a0,a1
    800022b2:	96ae                	add	a3,a3,a1
    800022b4:	fed73423          	sd	a3,-24(a4)
    800022b8:	02c43333          	mulhu	t1,s0,a2
    800022bc:	00b286b3          	add	a3,t0,a1
    800022c0:	fed73823          	sd	a3,-16(a4)
    800022c4:	00b486b3          	add	a3,s1,a1
    800022c8:	01d35493          	srli	s1,t1,0x1d
    800022cc:	031484b3          	mul	s1,s1,a7
    800022d0:	fed73c23          	sd	a3,-8(a4)
    800022d4:	952e                	add	a0,a0,a1
    800022d6:	e308                	sd	a0,0(a4)
    800022d8:	409406b3          	sub	a3,s0,s1
    800022dc:	17f1                	addi	a5,a5,-4
    800022de:	02070713          	addi	a4,a4,32
    800022e2:	fbd9                	bnez	a5,80002278 <main+0x26c>
    800022e4:	6505                	lui	a0,0x1
    800022e6:	4185051b          	addiw	a0,a0,1048 # 1418 <buflen.1+0x13d8>
    800022ea:	00ae0733          	add	a4,t3,a0
    800022ee:	08000793          	li	a5,128
    800022f2:	3b9ad537          	lui	a0,0x3b9ad
    800022f6:	a075089b          	addiw	a7,a0,-1529 # 3b9aca07 <buflen.1+0x3b9ac9c7>
    800022fa:	02b68533          	mul	a0,a3,a1
    800022fe:	02c53433          	mulhu	s0,a0,a2
    80002302:	8075                	srli	s0,s0,0x1d
    80002304:	03140433          	mul	s0,s0,a7
    80002308:	408502b3          	sub	t0,a0,s0
    8000230c:	02b28433          	mul	s0,t0,a1
    80002310:	02c434b3          	mulhu	s1,s0,a2
    80002314:	80f5                	srli	s1,s1,0x1d
    80002316:	031484b3          	mul	s1,s1,a7
    8000231a:	409404b3          	sub	s1,s0,s1
    8000231e:	02b48433          	mul	s0,s1,a1
    80002322:	02c43533          	mulhu	a0,s0,a2
    80002326:	8175                	srli	a0,a0,0x1d
    80002328:	03150533          	mul	a0,a0,a7
    8000232c:	40a40533          	sub	a0,s0,a0
    80002330:	02b50433          	mul	s0,a0,a1
    80002334:	96ae                	add	a3,a3,a1
    80002336:	fed73423          	sd	a3,-24(a4)
    8000233a:	02c43333          	mulhu	t1,s0,a2
    8000233e:	00b286b3          	add	a3,t0,a1
    80002342:	fed73823          	sd	a3,-16(a4)
    80002346:	00b486b3          	add	a3,s1,a1
    8000234a:	01d35493          	srli	s1,t1,0x1d
    8000234e:	031484b3          	mul	s1,s1,a7
    80002352:	fed73c23          	sd	a3,-8(a4)
    80002356:	952e                	add	a0,a0,a1
    80002358:	e308                	sd	a0,0(a4)
    8000235a:	409406b3          	sub	a3,s0,s1
    8000235e:	17f1                	addi	a5,a5,-4
    80002360:	02070713          	addi	a4,a4,32
    80002364:	fbd9                	bnez	a5,800022fa <main+0x2ee>
    80002366:	6509                	lui	a0,0x2
    80002368:	8185051b          	addiw	a0,a0,-2024 # 1818 <buflen.1+0x17d8>
    8000236c:	00ae0733          	add	a4,t3,a0
    80002370:	08000793          	li	a5,128
    80002374:	3b9ad537          	lui	a0,0x3b9ad
    80002378:	a075089b          	addiw	a7,a0,-1529 # 3b9aca07 <buflen.1+0x3b9ac9c7>
    8000237c:	02b68533          	mul	a0,a3,a1
    80002380:	02c53433          	mulhu	s0,a0,a2
    80002384:	8075                	srli	s0,s0,0x1d
    80002386:	03140433          	mul	s0,s0,a7
    8000238a:	408502b3          	sub	t0,a0,s0
    8000238e:	02b28433          	mul	s0,t0,a1
    80002392:	02c434b3          	mulhu	s1,s0,a2
    80002396:	80f5                	srli	s1,s1,0x1d
    80002398:	031484b3          	mul	s1,s1,a7
    8000239c:	409404b3          	sub	s1,s0,s1
    800023a0:	02b48433          	mul	s0,s1,a1
    800023a4:	02c43533          	mulhu	a0,s0,a2
    800023a8:	8175                	srli	a0,a0,0x1d
    800023aa:	03150533          	mul	a0,a0,a7
    800023ae:	40a40533          	sub	a0,s0,a0
    800023b2:	02b50433          	mul	s0,a0,a1
    800023b6:	96ae                	add	a3,a3,a1
    800023b8:	fed73423          	sd	a3,-24(a4)
    800023bc:	02c43333          	mulhu	t1,s0,a2
    800023c0:	00b286b3          	add	a3,t0,a1
    800023c4:	fed73823          	sd	a3,-16(a4)
    800023c8:	00b486b3          	add	a3,s1,a1
    800023cc:	01d35493          	srli	s1,t1,0x1d
    800023d0:	031484b3          	mul	s1,s1,a7
    800023d4:	fed73c23          	sd	a3,-8(a4)
    800023d8:	952e                	add	a0,a0,a1
    800023da:	e308                	sd	a0,0(a4)
    800023dc:	409406b3          	sub	a3,s0,s1
    800023e0:	17f1                	addi	a5,a5,-4
    800023e2:	02070713          	addi	a4,a4,32
    800023e6:	fbd9                	bnez	a5,8000237c <main+0x370>
    800023e8:	6509                	lui	a0,0x2
    800023ea:	c185051b          	addiw	a0,a0,-1000 # 1c18 <buflen.1+0x1bd8>
    800023ee:	00ae0733          	add	a4,t3,a0
    800023f2:	08000793          	li	a5,128
    800023f6:	3b9ad537          	lui	a0,0x3b9ad
    800023fa:	a075089b          	addiw	a7,a0,-1529 # 3b9aca07 <buflen.1+0x3b9ac9c7>
    800023fe:	02b68533          	mul	a0,a3,a1
    80002402:	02c53433          	mulhu	s0,a0,a2
    80002406:	8075                	srli	s0,s0,0x1d
    80002408:	03140433          	mul	s0,s0,a7
    8000240c:	408502b3          	sub	t0,a0,s0
    80002410:	02b28433          	mul	s0,t0,a1
    80002414:	02c434b3          	mulhu	s1,s0,a2
    80002418:	80f5                	srli	s1,s1,0x1d
    8000241a:	031484b3          	mul	s1,s1,a7
    8000241e:	409404b3          	sub	s1,s0,s1
    80002422:	02b48433          	mul	s0,s1,a1
    80002426:	02c43533          	mulhu	a0,s0,a2
    8000242a:	8175                	srli	a0,a0,0x1d
    8000242c:	03150533          	mul	a0,a0,a7
    80002430:	40a40533          	sub	a0,s0,a0
    80002434:	02b50433          	mul	s0,a0,a1
    80002438:	96ae                	add	a3,a3,a1
    8000243a:	fed73423          	sd	a3,-24(a4)
    8000243e:	02c43333          	mulhu	t1,s0,a2
    80002442:	00b286b3          	add	a3,t0,a1
    80002446:	fed73823          	sd	a3,-16(a4)
    8000244a:	00b486b3          	add	a3,s1,a1
    8000244e:	01d35493          	srli	s1,t1,0x1d
    80002452:	031484b3          	mul	s1,s1,a7
    80002456:	fed73c23          	sd	a3,-8(a4)
    8000245a:	952e                	add	a0,a0,a1
    8000245c:	e308                	sd	a0,0(a4)
    8000245e:	409406b3          	sub	a3,s0,s1
    80002462:	17f1                	addi	a5,a5,-4
    80002464:	02070713          	addi	a4,a4,32
    80002468:	fbd9                	bnez	a5,800023fe <main+0x3f2>
    8000246a:	6509                	lui	a0,0x2
    8000246c:	2561                	addiw	a0,a0,24 # 2018 <buflen.1+0x1fd8>
    8000246e:	00ae0733          	add	a4,t3,a0
    80002472:	08000793          	li	a5,128
    80002476:	3b9ad537          	lui	a0,0x3b9ad
    8000247a:	a075089b          	addiw	a7,a0,-1529 # 3b9aca07 <buflen.1+0x3b9ac9c7>
    8000247e:	02b68533          	mul	a0,a3,a1
    80002482:	02c53433          	mulhu	s0,a0,a2
    80002486:	8075                	srli	s0,s0,0x1d
    80002488:	03140433          	mul	s0,s0,a7
    8000248c:	408502b3          	sub	t0,a0,s0
    80002490:	02b28433          	mul	s0,t0,a1
    80002494:	02c434b3          	mulhu	s1,s0,a2
    80002498:	80f5                	srli	s1,s1,0x1d
    8000249a:	031484b3          	mul	s1,s1,a7
    8000249e:	409404b3          	sub	s1,s0,s1
    800024a2:	02b48433          	mul	s0,s1,a1
    800024a6:	02c43533          	mulhu	a0,s0,a2
    800024aa:	8175                	srli	a0,a0,0x1d
    800024ac:	03150533          	mul	a0,a0,a7
    800024b0:	40a40533          	sub	a0,s0,a0
    800024b4:	02b50433          	mul	s0,a0,a1
    800024b8:	96ae                	add	a3,a3,a1
    800024ba:	fed73423          	sd	a3,-24(a4)
    800024be:	02c43333          	mulhu	t1,s0,a2
    800024c2:	00b286b3          	add	a3,t0,a1
    800024c6:	fed73823          	sd	a3,-16(a4)
    800024ca:	00b486b3          	add	a3,s1,a1
    800024ce:	01d35493          	srli	s1,t1,0x1d
    800024d2:	031484b3          	mul	s1,s1,a7
    800024d6:	fed73c23          	sd	a3,-8(a4)
    800024da:	952e                	add	a0,a0,a1
    800024dc:	e308                	sd	a0,0(a4)
    800024de:	409406b3          	sub	a3,s0,s1
    800024e2:	17f1                	addi	a5,a5,-4
    800024e4:	02070713          	addi	a4,a4,32
    800024e8:	fbd9                	bnez	a5,8000247e <main+0x472>
    800024ea:	6509                	lui	a0,0x2
    800024ec:	4185051b          	addiw	a0,a0,1048 # 2418 <buflen.1+0x23d8>
    800024f0:	00ae0733          	add	a4,t3,a0
    800024f4:	08000793          	li	a5,128
    800024f8:	3b9ad537          	lui	a0,0x3b9ad
    800024fc:	a075089b          	addiw	a7,a0,-1529 # 3b9aca07 <buflen.1+0x3b9ac9c7>
    80002500:	02b68533          	mul	a0,a3,a1
    80002504:	02c53433          	mulhu	s0,a0,a2
    80002508:	8075                	srli	s0,s0,0x1d
    8000250a:	03140433          	mul	s0,s0,a7
    8000250e:	408502b3          	sub	t0,a0,s0
    80002512:	02b28433          	mul	s0,t0,a1
    80002516:	02c434b3          	mulhu	s1,s0,a2
    8000251a:	80f5                	srli	s1,s1,0x1d
    8000251c:	031484b3          	mul	s1,s1,a7
    80002520:	409404b3          	sub	s1,s0,s1
    80002524:	02b48433          	mul	s0,s1,a1
    80002528:	02c43533          	mulhu	a0,s0,a2
    8000252c:	8175                	srli	a0,a0,0x1d
    8000252e:	03150533          	mul	a0,a0,a7
    80002532:	40a40533          	sub	a0,s0,a0
    80002536:	02b50433          	mul	s0,a0,a1
    8000253a:	96ae                	add	a3,a3,a1
    8000253c:	fed73423          	sd	a3,-24(a4)
    80002540:	02c43333          	mulhu	t1,s0,a2
    80002544:	00b286b3          	add	a3,t0,a1
    80002548:	fed73823          	sd	a3,-16(a4)
    8000254c:	00b486b3          	add	a3,s1,a1
    80002550:	01d35493          	srli	s1,t1,0x1d
    80002554:	031484b3          	mul	s1,s1,a7
    80002558:	fed73c23          	sd	a3,-8(a4)
    8000255c:	952e                	add	a0,a0,a1
    8000255e:	e308                	sd	a0,0(a4)
    80002560:	409406b3          	sub	a3,s0,s1
    80002564:	17f1                	addi	a5,a5,-4
    80002566:	02070713          	addi	a4,a4,32
    8000256a:	fbd9                	bnez	a5,80002500 <main+0x4f4>
    8000256c:	650d                	lui	a0,0x3
    8000256e:	8185051b          	addiw	a0,a0,-2024 # 2818 <buflen.1+0x27d8>
    80002572:	00ae0733          	add	a4,t3,a0
    80002576:	08000793          	li	a5,128
    8000257a:	3b9ad537          	lui	a0,0x3b9ad
    8000257e:	a075089b          	addiw	a7,a0,-1529 # 3b9aca07 <buflen.1+0x3b9ac9c7>
    80002582:	02b68533          	mul	a0,a3,a1
    80002586:	02c53433          	mulhu	s0,a0,a2
    8000258a:	8075                	srli	s0,s0,0x1d
    8000258c:	03140433          	mul	s0,s0,a7
    80002590:	408502b3          	sub	t0,a0,s0
    80002594:	02b28433          	mul	s0,t0,a1
    80002598:	02c434b3          	mulhu	s1,s0,a2
    8000259c:	80f5                	srli	s1,s1,0x1d
    8000259e:	031484b3          	mul	s1,s1,a7
    800025a2:	409404b3          	sub	s1,s0,s1
    800025a6:	02b48433          	mul	s0,s1,a1
    800025aa:	02c43533          	mulhu	a0,s0,a2
    800025ae:	8175                	srli	a0,a0,0x1d
    800025b0:	03150533          	mul	a0,a0,a7
    800025b4:	40a40533          	sub	a0,s0,a0
    800025b8:	02b50433          	mul	s0,a0,a1
    800025bc:	96ae                	add	a3,a3,a1
    800025be:	fed73423          	sd	a3,-24(a4)
    800025c2:	02c43333          	mulhu	t1,s0,a2
    800025c6:	00b286b3          	add	a3,t0,a1
    800025ca:	fed73823          	sd	a3,-16(a4)
    800025ce:	00b486b3          	add	a3,s1,a1
    800025d2:	01d35493          	srli	s1,t1,0x1d
    800025d6:	031484b3          	mul	s1,s1,a7
    800025da:	fed73c23          	sd	a3,-8(a4)
    800025de:	952e                	add	a0,a0,a1
    800025e0:	e308                	sd	a0,0(a4)
    800025e2:	409406b3          	sub	a3,s0,s1
    800025e6:	17f1                	addi	a5,a5,-4
    800025e8:	02070713          	addi	a4,a4,32
    800025ec:	fbd9                	bnez	a5,80002582 <main+0x576>
    800025ee:	650d                	lui	a0,0x3
    800025f0:	c185051b          	addiw	a0,a0,-1000 # 2c18 <buflen.1+0x2bd8>
    800025f4:	00ae0733          	add	a4,t3,a0
    800025f8:	08000793          	li	a5,128
    800025fc:	3b9ad537          	lui	a0,0x3b9ad
    80002600:	a075089b          	addiw	a7,a0,-1529 # 3b9aca07 <buflen.1+0x3b9ac9c7>
    80002604:	02b68533          	mul	a0,a3,a1
    80002608:	02c53433          	mulhu	s0,a0,a2
    8000260c:	8075                	srli	s0,s0,0x1d
    8000260e:	03140433          	mul	s0,s0,a7
    80002612:	408502b3          	sub	t0,a0,s0
    80002616:	02b28433          	mul	s0,t0,a1
    8000261a:	02c434b3          	mulhu	s1,s0,a2
    8000261e:	80f5                	srli	s1,s1,0x1d
    80002620:	031484b3          	mul	s1,s1,a7
    80002624:	409404b3          	sub	s1,s0,s1
    80002628:	02b48433          	mul	s0,s1,a1
    8000262c:	02c43533          	mulhu	a0,s0,a2
    80002630:	8175                	srli	a0,a0,0x1d
    80002632:	03150533          	mul	a0,a0,a7
    80002636:	40a40533          	sub	a0,s0,a0
    8000263a:	02b50433          	mul	s0,a0,a1
    8000263e:	96ae                	add	a3,a3,a1
    80002640:	fed73423          	sd	a3,-24(a4)
    80002644:	02c43333          	mulhu	t1,s0,a2
    80002648:	00b286b3          	add	a3,t0,a1
    8000264c:	fed73823          	sd	a3,-16(a4)
    80002650:	00b486b3          	add	a3,s1,a1
    80002654:	01d35493          	srli	s1,t1,0x1d
    80002658:	031484b3          	mul	s1,s1,a7
    8000265c:	fed73c23          	sd	a3,-8(a4)
    80002660:	952e                	add	a0,a0,a1
    80002662:	e308                	sd	a0,0(a4)
    80002664:	409406b3          	sub	a3,s0,s1
    80002668:	17f1                	addi	a5,a5,-4
    8000266a:	02070713          	addi	a4,a4,32
    8000266e:	fbd9                	bnez	a5,80002604 <main+0x5f8>
    80002670:	0000a297          	auipc	t0,0xa
    80002674:	9f028293          	addi	t0,t0,-1552 # 8000c060 <kernel>
    80002678:	3b9ad537          	lui	a0,0x3b9ad
    8000267c:	a075031b          	addiw	t1,a0,-1529 # 3b9aca07 <buflen.1+0x3b9ac9c7>
    80002680:	04000893          	li	a7,64
    80002684:	02b68533          	mul	a0,a3,a1
    80002688:	02c53433          	mulhu	s0,a0,a2
    8000268c:	8075                	srli	s0,s0,0x1d
    8000268e:	02640433          	mul	s0,s0,t1
    80002692:	8d01                	sub	a0,a0,s0
    80002694:	02b50433          	mul	s0,a0,a1
    80002698:	02c43733          	mulhu	a4,s0,a2
    8000269c:	8375                	srli	a4,a4,0x1d
    8000269e:	02670733          	mul	a4,a4,t1
    800026a2:	40e40733          	sub	a4,s0,a4
    800026a6:	02b70433          	mul	s0,a4,a1
    800026aa:	02c434b3          	mulhu	s1,s0,a2
    800026ae:	80f5                	srli	s1,s1,0x1d
    800026b0:	026484b3          	mul	s1,s1,t1
    800026b4:	00b683b3          	add	t2,a3,a1
    800026b8:	409404b3          	sub	s1,s0,s1
    800026bc:	02b48433          	mul	s0,s1,a1
    800026c0:	00f286b3          	add	a3,t0,a5
    800026c4:	0076b023          	sd	t2,0(a3)
    800026c8:	952e                	add	a0,a0,a1
    800026ca:	02c433b3          	mulhu	t2,s0,a2
    800026ce:	e688                	sd	a0,8(a3)
    800026d0:	00b70533          	add	a0,a4,a1
    800026d4:	ea88                	sd	a0,16(a3)
    800026d6:	01d3d513          	srli	a0,t2,0x1d
    800026da:	02650533          	mul	a0,a0,t1
    800026de:	00b48733          	add	a4,s1,a1
    800026e2:	ee98                	sd	a4,24(a3)
    800026e4:	02078793          	addi	a5,a5,32
    800026e8:	40a406b3          	sub	a3,s0,a0
    800026ec:	f9179ce3          	bne	a5,a7,80002684 <main+0x678>
    800026f0:	4601                	li	a2,0
    800026f2:	00d83023          	sd	a3,0(a6)
    800026f6:	b0002573          	csrr	a0,mcycle
    800026fa:	e82a                	sd	a0,16(sp)
    800026fc:	0002b683          	ld	a3,0(t0)
    80002700:	0082b503          	ld	a0,8(t0)
    80002704:	ecaa                	sd	a0,88(sp)
    80002706:	0102b503          	ld	a0,16(t0)
    8000270a:	e8aa                	sd	a0,80(sp)
    8000270c:	0182b503          	ld	a0,24(t0)
    80002710:	e4aa                	sd	a0,72(sp)
    80002712:	0202b503          	ld	a0,32(t0)
    80002716:	e0aa                	sd	a0,64(sp)
    80002718:	0282b503          	ld	a0,40(t0)
    8000271c:	fc2a                	sd	a0,56(sp)
    8000271e:	0302b503          	ld	a0,48(t0)
    80002722:	f82a                	sd	a0,48(sp)
    80002724:	0382b503          	ld	a0,56(t0)
    80002728:	f42a                	sd	a0,40(sp)
    8000272a:	0000a517          	auipc	a0,0xa
    8000272e:	97650513          	addi	a0,a0,-1674 # 8000c0a0 <output>
    80002732:	f02a                	sd	a0,32(sp)
    80002734:	6585                	lui	a1,0x1
    80002736:	2e85851b          	addiw	a0,a1,744 # 12e8 <buflen.1+0x12a8>
    8000273a:	ec2a                	sd	a0,24(sp)
    8000273c:	6505                	lui	a0,0x1
    8000273e:	fa85051b          	addiw	a0,a0,-88 # fa8 <buflen.1+0xf68>
    80002742:	950a                	add	a0,a0,sp
    80002744:	01c53023          	sd	t3,0(a0)
    80002748:	6505                	lui	a0,0x1
    8000274a:	fb05051b          	addiw	a0,a0,-80 # fb0 <buflen.1+0xf70>
    8000274e:	950a                	add	a0,a0,sp
    80002750:	e110                	sd	a2,0(a0)
    80002752:	00a61593          	slli	a1,a2,0xa
    80002756:	95f2                	add	a1,a1,t3
    80002758:	0005b803          	ld	a6,0(a1)
    8000275c:	6584                	ld	s1,8(a1)
    8000275e:	0105b283          	ld	t0,16(a1)
    80002762:	6d9c                	ld	a5,24(a1)
    80002764:	0205b383          	ld	t2,32(a1)
    80002768:	7590                	ld	a2,40(a1)
    8000276a:	7998                	ld	a4,48(a1)
    8000276c:	0385b303          	ld	t1,56(a1)
    80002770:	7522                	ld	a0,40(sp)
    80002772:	00a5040b          	.insn	4, 0x00a5040b
    80002776:	7562                	ld	a0,56(sp)
    80002778:	7442                	ld	s0,48(sp)
    8000277a:	e085040b          	.insn	4, 0xe085040b
    8000277e:	6526                	ld	a0,72(sp)
    80002780:	6406                	ld	s0,64(sp)
    80002782:	c085040b          	.insn	4, 0xc085040b
    80002786:	6466                	ld	s0,88(sp)
    80002788:	6546                	ld	a0,80(sp)
    8000278a:	a0a4040b          	.insn	4, 0xa0a4040b
    8000278e:	80d0040b          	.insn	4, 0x80d0040b
    80002792:	0098040b          	.insn	4, 0x0098040b
    80002796:	20f2840b          	.insn	4, 0x20f2840b
    8000279a:	40c3850b          	.insn	4, 0x40c3850b
    8000279e:	0c67057b          	.insn	4, 0x0c67057b
    800027a2:	6705                	lui	a4,0x1
    800027a4:	bf07071b          	addiw	a4,a4,-1040 # bf0 <buflen.1+0xbb0>
    800027a8:	970a                	add	a4,a4,sp
    800027aa:	e308                	sd	a0,0(a4)
    800027ac:	61a8                	ld	a0,64(a1)
    800027ae:	4705                	li	a4,1
    800027b0:	80d7070b          	.insn	4, 0x80d7070b
    800027b4:	4885                	li	a7,1
    800027b6:	0095077b          	.insn	4, 0x0095077b
    800027ba:	6805                	lui	a6,0x1
    800027bc:	be88081b          	addiw	a6,a6,-1048 # be8 <buflen.1+0xba8>
    800027c0:	980a                	add	a6,a6,sp
    800027c2:	00e83023          	sd	a4,0(a6)
    800027c6:	65b8                	ld	a4,72(a1)
    800027c8:	4489                	li	s1,2
    800027ca:	80d4848b          	.insn	4, 0x80d4848b
    800027ce:	4389                	li	t2,2
    800027d0:	00e5057b          	.insn	4, 0x00e5057b
    800027d4:	6805                	lui	a6,0x1
    800027d6:	be08081b          	addiw	a6,a6,-1056 # be0 <buflen.1+0xba0>
    800027da:	980a                	add	a6,a6,sp
    800027dc:	00a83023          	sd	a0,0(a6)
    800027e0:	69a8                	ld	a0,80(a1)
    800027e2:	448d                	li	s1,3
    800027e4:	80d4848b          	.insn	4, 0x80d4848b
    800027e8:	4b8d                	li	s7,3
    800027ea:	04f507fb          	.insn	4, 0x04f507fb
    800027ee:	6805                	lui	a6,0x1
    800027f0:	bd88081b          	addiw	a6,a6,-1064 # bd8 <buflen.1+0xb98>
    800027f4:	980a                	add	a6,a6,sp
    800027f6:	00f83023          	sd	a5,0(a6)
    800027fa:	6dbc                	ld	a5,88(a1)
    800027fc:	4491                	li	s1,4
    800027fe:	80d4848b          	.insn	4, 0x80d4848b
    80002802:	4f91                	li	t6,4
    80002804:	04f5057b          	.insn	4, 0x04f5057b
    80002808:	6805                	lui	a6,0x1
    8000280a:	bd08081b          	addiw	a6,a6,-1072 # bd0 <buflen.1+0xb90>
    8000280e:	980a                	add	a6,a6,sp
    80002810:	00a83023          	sd	a0,0(a6)
    80002814:	71a8                	ld	a0,96(a1)
    80002816:	4495                	li	s1,5
    80002818:	80d4848b          	.insn	4, 0x80d4848b
    8000281c:	4f15                	li	t5,5
    8000281e:	08c5067b          	.insn	4, 0x08c5067b
    80002822:	6805                	lui	a6,0x1
    80002824:	bc08081b          	addiw	a6,a6,-1088 # bc0 <buflen.1+0xb80>
    80002828:	980a                	add	a6,a6,sp
    8000282a:	00c83023          	sd	a2,0(a6)
    8000282e:	75b0                	ld	a2,104(a1)
    80002830:	4499                	li	s1,6
    80002832:	80d4848b          	.insn	4, 0x80d4848b
    80002836:	4b19                	li	s6,6
    80002838:	08c5057b          	.insn	4, 0x08c5057b
    8000283c:	6805                	lui	a6,0x1
    8000283e:	bc88081b          	addiw	a6,a6,-1080 # bc8 <buflen.1+0xb88>
    80002842:	980a                	add	a6,a6,sp
    80002844:	00a83023          	sd	a0,0(a6)
    80002848:	79a8                	ld	a0,112(a1)
    8000284a:	449d                	li	s1,7
    8000284c:	80d4848b          	.insn	4, 0x80d4848b
    80002850:	4e9d                	li	t4,7
    80002852:	0c6504fb          	.insn	4, 0x0c6504fb
    80002856:	6805                	lui	a6,0x1
    80002858:	bb88081b          	addiw	a6,a6,-1096 # bb8 <buflen.1+0xb78>
    8000285c:	980a                	add	a6,a6,sp
    8000285e:	00983023          	sd	s1,0(a6)
    80002862:	7da4                	ld	s1,120(a1)
    80002864:	0c95057b          	.insn	4, 0x0c95057b
    80002868:	6805                	lui	a6,0x1
    8000286a:	bb08081b          	addiw	a6,a6,-1104 # bb0 <buflen.1+0xb70>
    8000286e:	980a                	add	a6,a6,sp
    80002870:	00a83023          	sd	a0,0(a6)
    80002874:	61c8                	ld	a0,128(a1)
    80002876:	80d8840b          	.insn	4, 0x80d8840b
    8000287a:	00e5077b          	.insn	4, 0x00e5077b
    8000287e:	6805                	lui	a6,0x1
    80002880:	ba08081b          	addiw	a6,a6,-1120 # ba0 <buflen.1+0xb60>
    80002884:	980a                	add	a6,a6,sp
    80002886:	00e83023          	sd	a4,0(a6)
    8000288a:	65d8                	ld	a4,136(a1)
    8000288c:	80d3840b          	.insn	4, 0x80d3840b
    80002890:	00e5057b          	.insn	4, 0x00e5057b
    80002894:	6805                	lui	a6,0x1
    80002896:	ba88081b          	addiw	a6,a6,-1112 # ba8 <buflen.1+0xb68>
    8000289a:	980a                	add	a6,a6,sp
    8000289c:	00a83023          	sd	a0,0(a6)
    800028a0:	69c8                	ld	a0,144(a1)
    800028a2:	80db840b          	.insn	4, 0x80db840b
    800028a6:	04f507fb          	.insn	4, 0x04f507fb
    800028aa:	6805                	lui	a6,0x1
    800028ac:	b988081b          	addiw	a6,a6,-1128 # b98 <buflen.1+0xb58>
    800028b0:	980a                	add	a6,a6,sp
    800028b2:	00f83023          	sd	a5,0(a6)
    800028b6:	6ddc                	ld	a5,152(a1)
    800028b8:	80df840b          	.insn	4, 0x80df840b
    800028bc:	04f5057b          	.insn	4, 0x04f5057b
    800028c0:	6805                	lui	a6,0x1
    800028c2:	b908081b          	addiw	a6,a6,-1136 # b90 <buflen.1+0xb50>
    800028c6:	980a                	add	a6,a6,sp
    800028c8:	00a83023          	sd	a0,0(a6)
    800028cc:	71c8                	ld	a0,160(a1)
    800028ce:	80df040b          	.insn	4, 0x80df040b
    800028d2:	08c5067b          	.insn	4, 0x08c5067b
    800028d6:	6805                	lui	a6,0x1
    800028d8:	b808081b          	addiw	a6,a6,-1152 # b80 <buflen.1+0xb40>
    800028dc:	980a                	add	a6,a6,sp
    800028de:	00c83023          	sd	a2,0(a6)
    800028e2:	75d0                	ld	a2,168(a1)
    800028e4:	80db040b          	.insn	4, 0x80db040b
    800028e8:	08c5057b          	.insn	4, 0x08c5057b
    800028ec:	6805                	lui	a6,0x1
    800028ee:	b888081b          	addiw	a6,a6,-1144 # b88 <buflen.1+0xb48>
    800028f2:	980a                	add	a6,a6,sp
    800028f4:	00a83023          	sd	a0,0(a6)
    800028f8:	79c8                	ld	a0,176(a1)
    800028fa:	80de840b          	.insn	4, 0x80de840b
    800028fe:	0c9504fb          	.insn	4, 0x0c9504fb
    80002902:	6805                	lui	a6,0x1
    80002904:	b788081b          	addiw	a6,a6,-1160 # b78 <buflen.1+0xb38>
    80002908:	980a                	add	a6,a6,sp
    8000290a:	00983023          	sd	s1,0(a6)
    8000290e:	7dc4                	ld	s1,184(a1)
    80002910:	0c95057b          	.insn	4, 0x0c95057b
    80002914:	6805                	lui	a6,0x1
    80002916:	b708081b          	addiw	a6,a6,-1168 # b70 <buflen.1+0xb30>
    8000291a:	980a                	add	a6,a6,sp
    8000291c:	00a83023          	sd	a0,0(a6)
    80002920:	61e8                	ld	a0,192(a1)
    80002922:	80d8840b          	.insn	4, 0x80d8840b
    80002926:	00e5077b          	.insn	4, 0x00e5077b
    8000292a:	6805                	lui	a6,0x1
    8000292c:	b608081b          	addiw	a6,a6,-1184 # b60 <buflen.1+0xb20>
    80002930:	980a                	add	a6,a6,sp
    80002932:	00e83023          	sd	a4,0(a6)
    80002936:	65f8                	ld	a4,200(a1)
    80002938:	80d3840b          	.insn	4, 0x80d3840b
    8000293c:	00e5057b          	.insn	4, 0x00e5057b
    80002940:	6805                	lui	a6,0x1
    80002942:	b688081b          	addiw	a6,a6,-1176 # b68 <buflen.1+0xb28>
    80002946:	980a                	add	a6,a6,sp
    80002948:	00a83023          	sd	a0,0(a6)
    8000294c:	69e8                	ld	a0,208(a1)
    8000294e:	80db840b          	.insn	4, 0x80db840b
    80002952:	04f507fb          	.insn	4, 0x04f507fb
    80002956:	6805                	lui	a6,0x1
    80002958:	b588081b          	addiw	a6,a6,-1192 # b58 <buflen.1+0xb18>
    8000295c:	980a                	add	a6,a6,sp
    8000295e:	00f83023          	sd	a5,0(a6)
    80002962:	6dfc                	ld	a5,216(a1)
    80002964:	80df840b          	.insn	4, 0x80df840b
    80002968:	04f5057b          	.insn	4, 0x04f5057b
    8000296c:	6805                	lui	a6,0x1
    8000296e:	b508081b          	addiw	a6,a6,-1200 # b50 <buflen.1+0xb10>
    80002972:	980a                	add	a6,a6,sp
    80002974:	00a83023          	sd	a0,0(a6)
    80002978:	71e8                	ld	a0,224(a1)
    8000297a:	80df040b          	.insn	4, 0x80df040b
    8000297e:	08c5067b          	.insn	4, 0x08c5067b
    80002982:	6805                	lui	a6,0x1
    80002984:	b408081b          	addiw	a6,a6,-1216 # b40 <buflen.1+0xb00>
    80002988:	980a                	add	a6,a6,sp
    8000298a:	00c83023          	sd	a2,0(a6)
    8000298e:	75f0                	ld	a2,232(a1)
    80002990:	80db040b          	.insn	4, 0x80db040b
    80002994:	08c5057b          	.insn	4, 0x08c5057b
    80002998:	6805                	lui	a6,0x1
    8000299a:	b488081b          	addiw	a6,a6,-1208 # b48 <buflen.1+0xb08>
    8000299e:	980a                	add	a6,a6,sp
    800029a0:	00a83023          	sd	a0,0(a6)
    800029a4:	79e8                	ld	a0,240(a1)
    800029a6:	80de840b          	.insn	4, 0x80de840b
    800029aa:	0c9504fb          	.insn	4, 0x0c9504fb
    800029ae:	6805                	lui	a6,0x1
    800029b0:	b388081b          	addiw	a6,a6,-1224 # b38 <buflen.1+0xaf8>
    800029b4:	980a                	add	a6,a6,sp
    800029b6:	00983023          	sd	s1,0(a6)
    800029ba:	7de4                	ld	s1,248(a1)
    800029bc:	0c95057b          	.insn	4, 0x0c95057b
    800029c0:	6805                	lui	a6,0x1
    800029c2:	b308081b          	addiw	a6,a6,-1232 # b30 <buflen.1+0xaf0>
    800029c6:	980a                	add	a6,a6,sp
    800029c8:	00a83023          	sd	a0,0(a6)
    800029cc:	1005b503          	ld	a0,256(a1)
    800029d0:	80d8840b          	.insn	4, 0x80d8840b
    800029d4:	00e5077b          	.insn	4, 0x00e5077b
    800029d8:	6805                	lui	a6,0x1
    800029da:	b208081b          	addiw	a6,a6,-1248 # b20 <buflen.1+0xae0>
    800029de:	980a                	add	a6,a6,sp
    800029e0:	00e83023          	sd	a4,0(a6)
    800029e4:	1085b703          	ld	a4,264(a1)
    800029e8:	80d3840b          	.insn	4, 0x80d3840b
    800029ec:	00e5057b          	.insn	4, 0x00e5057b
    800029f0:	6805                	lui	a6,0x1
    800029f2:	b288081b          	addiw	a6,a6,-1240 # b28 <buflen.1+0xae8>
    800029f6:	980a                	add	a6,a6,sp
    800029f8:	00a83023          	sd	a0,0(a6)
    800029fc:	1105b503          	ld	a0,272(a1)
    80002a00:	80db840b          	.insn	4, 0x80db840b
    80002a04:	04f507fb          	.insn	4, 0x04f507fb
    80002a08:	6805                	lui	a6,0x1
    80002a0a:	b188081b          	addiw	a6,a6,-1256 # b18 <buflen.1+0xad8>
    80002a0e:	980a                	add	a6,a6,sp
    80002a10:	00f83023          	sd	a5,0(a6)
    80002a14:	1185b783          	ld	a5,280(a1)
    80002a18:	80df840b          	.insn	4, 0x80df840b
    80002a1c:	04f5057b          	.insn	4, 0x04f5057b
    80002a20:	6805                	lui	a6,0x1
    80002a22:	b108081b          	addiw	a6,a6,-1264 # b10 <buflen.1+0xad0>
    80002a26:	980a                	add	a6,a6,sp
    80002a28:	00a83023          	sd	a0,0(a6)
    80002a2c:	1205b503          	ld	a0,288(a1)
    80002a30:	80df040b          	.insn	4, 0x80df040b
    80002a34:	08c5067b          	.insn	4, 0x08c5067b
    80002a38:	6805                	lui	a6,0x1
    80002a3a:	b008081b          	addiw	a6,a6,-1280 # b00 <buflen.1+0xac0>
    80002a3e:	980a                	add	a6,a6,sp
    80002a40:	00c83023          	sd	a2,0(a6)
    80002a44:	1285b603          	ld	a2,296(a1)
    80002a48:	80db040b          	.insn	4, 0x80db040b
    80002a4c:	08c5057b          	.insn	4, 0x08c5057b
    80002a50:	6805                	lui	a6,0x1
    80002a52:	b088081b          	addiw	a6,a6,-1272 # b08 <buflen.1+0xac8>
    80002a56:	980a                	add	a6,a6,sp
    80002a58:	00a83023          	sd	a0,0(a6)
    80002a5c:	1305b503          	ld	a0,304(a1)
    80002a60:	80de840b          	.insn	4, 0x80de840b
    80002a64:	0c9504fb          	.insn	4, 0x0c9504fb
    80002a68:	6805                	lui	a6,0x1
    80002a6a:	af88081b          	addiw	a6,a6,-1288 # af8 <buflen.1+0xab8>
    80002a6e:	980a                	add	a6,a6,sp
    80002a70:	00983023          	sd	s1,0(a6)
    80002a74:	1385b483          	ld	s1,312(a1)
    80002a78:	0c95057b          	.insn	4, 0x0c95057b
    80002a7c:	6805                	lui	a6,0x1
    80002a7e:	af08081b          	addiw	a6,a6,-1296 # af0 <buflen.1+0xab0>
    80002a82:	980a                	add	a6,a6,sp
    80002a84:	00a83023          	sd	a0,0(a6)
    80002a88:	1405b503          	ld	a0,320(a1)
    80002a8c:	80d8840b          	.insn	4, 0x80d8840b
    80002a90:	00e5077b          	.insn	4, 0x00e5077b
    80002a94:	6805                	lui	a6,0x1
    80002a96:	ae88081b          	addiw	a6,a6,-1304 # ae8 <buflen.1+0xaa8>
    80002a9a:	980a                	add	a6,a6,sp
    80002a9c:	00e83023          	sd	a4,0(a6)
    80002aa0:	1485b703          	ld	a4,328(a1)
    80002aa4:	80d3840b          	.insn	4, 0x80d3840b
    80002aa8:	00e5057b          	.insn	4, 0x00e5057b
    80002aac:	6805                	lui	a6,0x1
    80002aae:	ae08081b          	addiw	a6,a6,-1312 # ae0 <buflen.1+0xaa0>
    80002ab2:	980a                	add	a6,a6,sp
    80002ab4:	00a83023          	sd	a0,0(a6)
    80002ab8:	1505b503          	ld	a0,336(a1)
    80002abc:	80db840b          	.insn	4, 0x80db840b
    80002ac0:	04f507fb          	.insn	4, 0x04f507fb
    80002ac4:	6805                	lui	a6,0x1
    80002ac6:	ad88081b          	addiw	a6,a6,-1320 # ad8 <buflen.1+0xa98>
    80002aca:	980a                	add	a6,a6,sp
    80002acc:	00f83023          	sd	a5,0(a6)
    80002ad0:	1585b783          	ld	a5,344(a1)
    80002ad4:	80df840b          	.insn	4, 0x80df840b
    80002ad8:	04f5057b          	.insn	4, 0x04f5057b
    80002adc:	6805                	lui	a6,0x1
    80002ade:	ad08081b          	addiw	a6,a6,-1328 # ad0 <buflen.1+0xa90>
    80002ae2:	980a                	add	a6,a6,sp
    80002ae4:	00a83023          	sd	a0,0(a6)
    80002ae8:	1605b503          	ld	a0,352(a1)
    80002aec:	80df040b          	.insn	4, 0x80df040b
    80002af0:	08c5067b          	.insn	4, 0x08c5067b
    80002af4:	6805                	lui	a6,0x1
    80002af6:	ac08081b          	addiw	a6,a6,-1344 # ac0 <buflen.1+0xa80>
    80002afa:	980a                	add	a6,a6,sp
    80002afc:	00c83023          	sd	a2,0(a6)
    80002b00:	1685b603          	ld	a2,360(a1)
    80002b04:	80db040b          	.insn	4, 0x80db040b
    80002b08:	08c5057b          	.insn	4, 0x08c5057b
    80002b0c:	6805                	lui	a6,0x1
    80002b0e:	ac88081b          	addiw	a6,a6,-1336 # ac8 <buflen.1+0xa88>
    80002b12:	980a                	add	a6,a6,sp
    80002b14:	00a83023          	sd	a0,0(a6)
    80002b18:	1705b503          	ld	a0,368(a1)
    80002b1c:	80de840b          	.insn	4, 0x80de840b
    80002b20:	0c9504fb          	.insn	4, 0x0c9504fb
    80002b24:	6805                	lui	a6,0x1
    80002b26:	ab88081b          	addiw	a6,a6,-1352 # ab8 <buflen.1+0xa78>
    80002b2a:	980a                	add	a6,a6,sp
    80002b2c:	00983023          	sd	s1,0(a6)
    80002b30:	1785b483          	ld	s1,376(a1)
    80002b34:	0c95057b          	.insn	4, 0x0c95057b
    80002b38:	6805                	lui	a6,0x1
    80002b3a:	ab08081b          	addiw	a6,a6,-1360 # ab0 <buflen.1+0xa70>
    80002b3e:	980a                	add	a6,a6,sp
    80002b40:	00a83023          	sd	a0,0(a6)
    80002b44:	1805b503          	ld	a0,384(a1)
    80002b48:	80d8840b          	.insn	4, 0x80d8840b
    80002b4c:	00e5077b          	.insn	4, 0x00e5077b
    80002b50:	6805                	lui	a6,0x1
    80002b52:	aa08081b          	addiw	a6,a6,-1376 # aa0 <buflen.1+0xa60>
    80002b56:	980a                	add	a6,a6,sp
    80002b58:	00e83023          	sd	a4,0(a6)
    80002b5c:	1885b703          	ld	a4,392(a1)
    80002b60:	80d3840b          	.insn	4, 0x80d3840b
    80002b64:	00e5057b          	.insn	4, 0x00e5057b
    80002b68:	6805                	lui	a6,0x1
    80002b6a:	aa88081b          	addiw	a6,a6,-1368 # aa8 <buflen.1+0xa68>
    80002b6e:	980a                	add	a6,a6,sp
    80002b70:	00a83023          	sd	a0,0(a6)
    80002b74:	1905b503          	ld	a0,400(a1)
    80002b78:	80db840b          	.insn	4, 0x80db840b
    80002b7c:	04f507fb          	.insn	4, 0x04f507fb
    80002b80:	6805                	lui	a6,0x1
    80002b82:	a988081b          	addiw	a6,a6,-1384 # a98 <buflen.1+0xa58>
    80002b86:	980a                	add	a6,a6,sp
    80002b88:	00f83023          	sd	a5,0(a6)
    80002b8c:	1985b783          	ld	a5,408(a1)
    80002b90:	80df840b          	.insn	4, 0x80df840b
    80002b94:	04f5057b          	.insn	4, 0x04f5057b
    80002b98:	6805                	lui	a6,0x1
    80002b9a:	a908081b          	addiw	a6,a6,-1392 # a90 <buflen.1+0xa50>
    80002b9e:	980a                	add	a6,a6,sp
    80002ba0:	00a83023          	sd	a0,0(a6)
    80002ba4:	1a05b503          	ld	a0,416(a1)
    80002ba8:	80df040b          	.insn	4, 0x80df040b
    80002bac:	08c5067b          	.insn	4, 0x08c5067b
    80002bb0:	6805                	lui	a6,0x1
    80002bb2:	a808081b          	addiw	a6,a6,-1408 # a80 <buflen.1+0xa40>
    80002bb6:	980a                	add	a6,a6,sp
    80002bb8:	00c83023          	sd	a2,0(a6)
    80002bbc:	1a85b603          	ld	a2,424(a1)
    80002bc0:	80db040b          	.insn	4, 0x80db040b
    80002bc4:	08c5057b          	.insn	4, 0x08c5057b
    80002bc8:	6805                	lui	a6,0x1
    80002bca:	a888081b          	addiw	a6,a6,-1400 # a88 <buflen.1+0xa48>
    80002bce:	980a                	add	a6,a6,sp
    80002bd0:	00a83023          	sd	a0,0(a6)
    80002bd4:	1b05b503          	ld	a0,432(a1)
    80002bd8:	80de840b          	.insn	4, 0x80de840b
    80002bdc:	0c9504fb          	.insn	4, 0x0c9504fb
    80002be0:	6805                	lui	a6,0x1
    80002be2:	a788081b          	addiw	a6,a6,-1416 # a78 <buflen.1+0xa38>
    80002be6:	980a                	add	a6,a6,sp
    80002be8:	00983023          	sd	s1,0(a6)
    80002bec:	1b85b483          	ld	s1,440(a1)
    80002bf0:	0c95057b          	.insn	4, 0x0c95057b
    80002bf4:	6805                	lui	a6,0x1
    80002bf6:	a688081b          	addiw	a6,a6,-1432 # a68 <buflen.1+0xa28>
    80002bfa:	980a                	add	a6,a6,sp
    80002bfc:	00a83023          	sd	a0,0(a6)
    80002c00:	1c05b503          	ld	a0,448(a1)
    80002c04:	80d8840b          	.insn	4, 0x80d8840b
    80002c08:	00e5077b          	.insn	4, 0x00e5077b
    80002c0c:	6805                	lui	a6,0x1
    80002c0e:	a508081b          	addiw	a6,a6,-1456 # a50 <buflen.1+0xa10>
    80002c12:	980a                	add	a6,a6,sp
    80002c14:	00e83023          	sd	a4,0(a6)
    80002c18:	1c85b703          	ld	a4,456(a1)
    80002c1c:	80d3840b          	.insn	4, 0x80d3840b
    80002c20:	00e5057b          	.insn	4, 0x00e5057b
    80002c24:	6805                	lui	a6,0x1
    80002c26:	a608081b          	addiw	a6,a6,-1440 # a60 <buflen.1+0xa20>
    80002c2a:	980a                	add	a6,a6,sp
    80002c2c:	00a83023          	sd	a0,0(a6)
    80002c30:	1d05b503          	ld	a0,464(a1)
    80002c34:	80db840b          	.insn	4, 0x80db840b
    80002c38:	04f507fb          	.insn	4, 0x04f507fb
    80002c3c:	6805                	lui	a6,0x1
    80002c3e:	a408081b          	addiw	a6,a6,-1472 # a40 <buflen.1+0xa00>
    80002c42:	980a                	add	a6,a6,sp
    80002c44:	00f83023          	sd	a5,0(a6)
    80002c48:	1d85b783          	ld	a5,472(a1)
    80002c4c:	80df840b          	.insn	4, 0x80df840b
    80002c50:	04f5057b          	.insn	4, 0x04f5057b
    80002c54:	6805                	lui	a6,0x1
    80002c56:	a308081b          	addiw	a6,a6,-1488 # a30 <buflen.1+0x9f0>
    80002c5a:	980a                	add	a6,a6,sp
    80002c5c:	00a83023          	sd	a0,0(a6)
    80002c60:	1e05b503          	ld	a0,480(a1)
    80002c64:	80df040b          	.insn	4, 0x80df040b
    80002c68:	08c5067b          	.insn	4, 0x08c5067b
    80002c6c:	6805                	lui	a6,0x1
    80002c6e:	a188081b          	addiw	a6,a6,-1512 # a18 <buflen.1+0x9d8>
    80002c72:	980a                	add	a6,a6,sp
    80002c74:	00c83023          	sd	a2,0(a6)
    80002c78:	1e85b603          	ld	a2,488(a1)
    80002c7c:	80db040b          	.insn	4, 0x80db040b
    80002c80:	08c5057b          	.insn	4, 0x08c5057b
    80002c84:	6805                	lui	a6,0x1
    80002c86:	a288081b          	addiw	a6,a6,-1496 # a28 <buflen.1+0x9e8>
    80002c8a:	980a                	add	a6,a6,sp
    80002c8c:	00a83023          	sd	a0,0(a6)
    80002c90:	1f05b503          	ld	a0,496(a1)
    80002c94:	80de840b          	.insn	4, 0x80de840b
    80002c98:	0c9504fb          	.insn	4, 0x0c9504fb
    80002c9c:	6805                	lui	a6,0x1
    80002c9e:	a108081b          	addiw	a6,a6,-1520 # a10 <buflen.1+0x9d0>
    80002ca2:	980a                	add	a6,a6,sp
    80002ca4:	00983023          	sd	s1,0(a6)
    80002ca8:	1f85b483          	ld	s1,504(a1)
    80002cac:	0c95057b          	.insn	4, 0x0c95057b
    80002cb0:	6805                	lui	a6,0x1
    80002cb2:	a008081b          	addiw	a6,a6,-1536 # a00 <buflen.1+0x9c0>
    80002cb6:	980a                	add	a6,a6,sp
    80002cb8:	00a83023          	sd	a0,0(a6)
    80002cbc:	2005b503          	ld	a0,512(a1)
    80002cc0:	80d8840b          	.insn	4, 0x80d8840b
    80002cc4:	00e5077b          	.insn	4, 0x00e5077b
    80002cc8:	6805                	lui	a6,0x1
    80002cca:	9e08081b          	addiw	a6,a6,-1568 # 9e0 <buflen.1+0x9a0>
    80002cce:	980a                	add	a6,a6,sp
    80002cd0:	00e83023          	sd	a4,0(a6)
    80002cd4:	2085b703          	ld	a4,520(a1)
    80002cd8:	80d3840b          	.insn	4, 0x80d3840b
    80002cdc:	00e5057b          	.insn	4, 0x00e5057b
    80002ce0:	6805                	lui	a6,0x1
    80002ce2:	9f08081b          	addiw	a6,a6,-1552 # 9f0 <buflen.1+0x9b0>
    80002ce6:	980a                	add	a6,a6,sp
    80002ce8:	00a83023          	sd	a0,0(a6)
    80002cec:	2105b503          	ld	a0,528(a1)
    80002cf0:	80db840b          	.insn	4, 0x80db840b
    80002cf4:	04f507fb          	.insn	4, 0x04f507fb
    80002cf8:	6805                	lui	a6,0x1
    80002cfa:	9d08081b          	addiw	a6,a6,-1584 # 9d0 <buflen.1+0x990>
    80002cfe:	980a                	add	a6,a6,sp
    80002d00:	00f83023          	sd	a5,0(a6)
    80002d04:	2185b783          	ld	a5,536(a1)
    80002d08:	80df840b          	.insn	4, 0x80df840b
    80002d0c:	04f5057b          	.insn	4, 0x04f5057b
    80002d10:	6805                	lui	a6,0x1
    80002d12:	9b08081b          	addiw	a6,a6,-1616 # 9b0 <buflen.1+0x970>
    80002d16:	980a                	add	a6,a6,sp
    80002d18:	00a83023          	sd	a0,0(a6)
    80002d1c:	2205b503          	ld	a0,544(a1)
    80002d20:	80df040b          	.insn	4, 0x80df040b
    80002d24:	08c5067b          	.insn	4, 0x08c5067b
    80002d28:	6805                	lui	a6,0x1
    80002d2a:	9888081b          	addiw	a6,a6,-1656 # 988 <buflen.1+0x948>
    80002d2e:	980a                	add	a6,a6,sp
    80002d30:	00c83023          	sd	a2,0(a6)
    80002d34:	2285b603          	ld	a2,552(a1)
    80002d38:	80db040b          	.insn	4, 0x80db040b
    80002d3c:	08c5057b          	.insn	4, 0x08c5057b
    80002d40:	6805                	lui	a6,0x1
    80002d42:	9988081b          	addiw	a6,a6,-1640 # 998 <buflen.1+0x958>
    80002d46:	980a                	add	a6,a6,sp
    80002d48:	00a83023          	sd	a0,0(a6)
    80002d4c:	2305b503          	ld	a0,560(a1)
    80002d50:	80de840b          	.insn	4, 0x80de840b
    80002d54:	0c9504fb          	.insn	4, 0x0c9504fb
    80002d58:	6805                	lui	a6,0x1
    80002d5a:	9808081b          	addiw	a6,a6,-1664 # 980 <buflen.1+0x940>
    80002d5e:	980a                	add	a6,a6,sp
    80002d60:	00983023          	sd	s1,0(a6)
    80002d64:	2385b483          	ld	s1,568(a1)
    80002d68:	0c95057b          	.insn	4, 0x0c95057b
    80002d6c:	6805                	lui	a6,0x1
    80002d6e:	9708081b          	addiw	a6,a6,-1680 # 970 <buflen.1+0x930>
    80002d72:	980a                	add	a6,a6,sp
    80002d74:	00a83023          	sd	a0,0(a6)
    80002d78:	2405b503          	ld	a0,576(a1)
    80002d7c:	80d8840b          	.insn	4, 0x80d8840b
    80002d80:	00e5077b          	.insn	4, 0x00e5077b
    80002d84:	6805                	lui	a6,0x1
    80002d86:	9488081b          	addiw	a6,a6,-1720 # 948 <buflen.1+0x908>
    80002d8a:	980a                	add	a6,a6,sp
    80002d8c:	00e83023          	sd	a4,0(a6)
    80002d90:	2485b703          	ld	a4,584(a1)
    80002d94:	80d3840b          	.insn	4, 0x80d3840b
    80002d98:	00e5057b          	.insn	4, 0x00e5057b
    80002d9c:	6805                	lui	a6,0x1
    80002d9e:	9408081b          	addiw	a6,a6,-1728 # 940 <buflen.1+0x900>
    80002da2:	980a                	add	a6,a6,sp
    80002da4:	00a83023          	sd	a0,0(a6)
    80002da8:	2505b503          	ld	a0,592(a1)
    80002dac:	80db840b          	.insn	4, 0x80db840b
    80002db0:	04f507fb          	.insn	4, 0x04f507fb
    80002db4:	6805                	lui	a6,0x1
    80002db6:	9288081b          	addiw	a6,a6,-1752 # 928 <buflen.1+0x8e8>
    80002dba:	980a                	add	a6,a6,sp
    80002dbc:	00f83023          	sd	a5,0(a6)
    80002dc0:	2585b783          	ld	a5,600(a1)
    80002dc4:	80df840b          	.insn	4, 0x80df840b
    80002dc8:	04f5057b          	.insn	4, 0x04f5057b
    80002dcc:	6805                	lui	a6,0x1
    80002dce:	9108081b          	addiw	a6,a6,-1776 # 910 <buflen.1+0x8d0>
    80002dd2:	980a                	add	a6,a6,sp
    80002dd4:	00a83023          	sd	a0,0(a6)
    80002dd8:	2605b503          	ld	a0,608(a1)
    80002ddc:	80df040b          	.insn	4, 0x80df040b
    80002de0:	08c5067b          	.insn	4, 0x08c5067b
    80002de4:	6805                	lui	a6,0x1
    80002de6:	8f88081b          	addiw	a6,a6,-1800 # 8f8 <buflen.1+0x8b8>
    80002dea:	980a                	add	a6,a6,sp
    80002dec:	00c83023          	sd	a2,0(a6)
    80002df0:	2685b603          	ld	a2,616(a1)
    80002df4:	80db040b          	.insn	4, 0x80db040b
    80002df8:	08c5057b          	.insn	4, 0x08c5057b
    80002dfc:	6805                	lui	a6,0x1
    80002dfe:	9088081b          	addiw	a6,a6,-1784 # 908 <buflen.1+0x8c8>
    80002e02:	980a                	add	a6,a6,sp
    80002e04:	00a83023          	sd	a0,0(a6)
    80002e08:	2705b503          	ld	a0,624(a1)
    80002e0c:	80de840b          	.insn	4, 0x80de840b
    80002e10:	0c9504fb          	.insn	4, 0x0c9504fb
    80002e14:	6805                	lui	a6,0x1
    80002e16:	8d88081b          	addiw	a6,a6,-1832 # 8d8 <buflen.1+0x898>
    80002e1a:	980a                	add	a6,a6,sp
    80002e1c:	00983023          	sd	s1,0(a6)
    80002e20:	2785b483          	ld	s1,632(a1)
    80002e24:	0c95057b          	.insn	4, 0x0c95057b
    80002e28:	6805                	lui	a6,0x1
    80002e2a:	8c08081b          	addiw	a6,a6,-1856 # 8c0 <buflen.1+0x880>
    80002e2e:	980a                	add	a6,a6,sp
    80002e30:	00a83023          	sd	a0,0(a6)
    80002e34:	2805b503          	ld	a0,640(a1)
    80002e38:	80d8840b          	.insn	4, 0x80d8840b
    80002e3c:	00e5077b          	.insn	4, 0x00e5077b
    80002e40:	6805                	lui	a6,0x1
    80002e42:	8888081b          	addiw	a6,a6,-1912 # 888 <buflen.1+0x848>
    80002e46:	980a                	add	a6,a6,sp
    80002e48:	00e83023          	sd	a4,0(a6)
    80002e4c:	2885b703          	ld	a4,648(a1)
    80002e50:	80d3840b          	.insn	4, 0x80d3840b
    80002e54:	00e5057b          	.insn	4, 0x00e5057b
    80002e58:	6805                	lui	a6,0x1
    80002e5a:	8a08081b          	addiw	a6,a6,-1888 # 8a0 <buflen.1+0x860>
    80002e5e:	980a                	add	a6,a6,sp
    80002e60:	00a83023          	sd	a0,0(a6)
    80002e64:	2905b503          	ld	a0,656(a1)
    80002e68:	80db840b          	.insn	4, 0x80db840b
    80002e6c:	04f507fb          	.insn	4, 0x04f507fb
    80002e70:	6805                	lui	a6,0x1
    80002e72:	8708081b          	addiw	a6,a6,-1936 # 870 <buflen.1+0x830>
    80002e76:	980a                	add	a6,a6,sp
    80002e78:	00f83023          	sd	a5,0(a6)
    80002e7c:	2985b783          	ld	a5,664(a1)
    80002e80:	80df840b          	.insn	4, 0x80df840b
    80002e84:	04f5057b          	.insn	4, 0x04f5057b
    80002e88:	6805                	lui	a6,0x1
    80002e8a:	8588081b          	addiw	a6,a6,-1960 # 858 <buflen.1+0x818>
    80002e8e:	980a                	add	a6,a6,sp
    80002e90:	00a83023          	sd	a0,0(a6)
    80002e94:	2a05b503          	ld	a0,672(a1)
    80002e98:	80df040b          	.insn	4, 0x80df040b
    80002e9c:	08c5067b          	.insn	4, 0x08c5067b
    80002ea0:	6805                	lui	a6,0x1
    80002ea2:	8308081b          	addiw	a6,a6,-2000 # 830 <buflen.1+0x7f0>
    80002ea6:	980a                	add	a6,a6,sp
    80002ea8:	00c83023          	sd	a2,0(a6)
    80002eac:	2a85b603          	ld	a2,680(a1)
    80002eb0:	80db040b          	.insn	4, 0x80db040b
    80002eb4:	08c5057b          	.insn	4, 0x08c5057b
    80002eb8:	6805                	lui	a6,0x1
    80002eba:	8408081b          	addiw	a6,a6,-1984 # 840 <buflen.1+0x800>
    80002ebe:	980a                	add	a6,a6,sp
    80002ec0:	00a83023          	sd	a0,0(a6)
    80002ec4:	2b05b503          	ld	a0,688(a1)
    80002ec8:	80de840b          	.insn	4, 0x80de840b
    80002ecc:	0c9504fb          	.insn	4, 0x0c9504fb
    80002ed0:	6805                	lui	a6,0x1
    80002ed2:	8188081b          	addiw	a6,a6,-2024 # 818 <buflen.1+0x7d8>
    80002ed6:	980a                	add	a6,a6,sp
    80002ed8:	00983023          	sd	s1,0(a6)
    80002edc:	2b85b483          	ld	s1,696(a1)
    80002ee0:	0c95057b          	.insn	4, 0x0c95057b
    80002ee4:	6805                	lui	a6,0x1
    80002ee6:	8108081b          	addiw	a6,a6,-2032 # 810 <buflen.1+0x7d0>
    80002eea:	980a                	add	a6,a6,sp
    80002eec:	00a83023          	sd	a0,0(a6)
    80002ef0:	2c05b503          	ld	a0,704(a1)
    80002ef4:	80d8840b          	.insn	4, 0x80d8840b
    80002ef8:	00e5077b          	.insn	4, 0x00e5077b
    80002efc:	7ee13c23          	sd	a4,2040(sp)
    80002f00:	2c85b703          	ld	a4,712(a1)
    80002f04:	80d3840b          	.insn	4, 0x80d3840b
    80002f08:	00e5057b          	.insn	4, 0x00e5057b
    80002f0c:	6805                	lui	a6,0x1
    80002f0e:	8008081b          	addiw	a6,a6,-2048 # 800 <buflen.1+0x7c0>
    80002f12:	980a                	add	a6,a6,sp
    80002f14:	00a83023          	sd	a0,0(a6)
    80002f18:	2d05b503          	ld	a0,720(a1)
    80002f1c:	80db840b          	.insn	4, 0x80db840b
    80002f20:	04f507fb          	.insn	4, 0x04f507fb
    80002f24:	7ef13023          	sd	a5,2016(sp)
    80002f28:	2d85b783          	ld	a5,728(a1)
    80002f2c:	80df840b          	.insn	4, 0x80df840b
    80002f30:	04f5057b          	.insn	4, 0x04f5057b
    80002f34:	7ca13823          	sd	a0,2000(sp)
    80002f38:	2e05b503          	ld	a0,736(a1)
    80002f3c:	80df040b          	.insn	4, 0x80df040b
    80002f40:	08c5067b          	.insn	4, 0x08c5067b
    80002f44:	7ac13823          	sd	a2,1968(sp)
    80002f48:	2e85b603          	ld	a2,744(a1)
    80002f4c:	80db040b          	.insn	4, 0x80db040b
    80002f50:	08c5057b          	.insn	4, 0x08c5057b
    80002f54:	7ca13023          	sd	a0,1984(sp)
    80002f58:	2f05b503          	ld	a0,752(a1)
    80002f5c:	80de840b          	.insn	4, 0x80de840b
    80002f60:	0c9504fb          	.insn	4, 0x0c9504fb
    80002f64:	7a913023          	sd	s1,1952(sp)
    80002f68:	2f85b483          	ld	s1,760(a1)
    80002f6c:	0c95057b          	.insn	4, 0x0c95057b
    80002f70:	78a13c23          	sd	a0,1944(sp)
    80002f74:	3005b503          	ld	a0,768(a1)
    80002f78:	80d8840b          	.insn	4, 0x80d8840b
    80002f7c:	00e5077b          	.insn	4, 0x00e5077b
    80002f80:	78e13423          	sd	a4,1928(sp)
    80002f84:	3085b703          	ld	a4,776(a1)
    80002f88:	80d3840b          	.insn	4, 0x80d3840b
    80002f8c:	00e5057b          	.insn	4, 0x00e5057b
    80002f90:	78a13823          	sd	a0,1936(sp)
    80002f94:	3105b503          	ld	a0,784(a1)
    80002f98:	80db840b          	.insn	4, 0x80db840b
    80002f9c:	04f507fb          	.insn	4, 0x04f507fb
    80002fa0:	78f13023          	sd	a5,1920(sp)
    80002fa4:	3185b783          	ld	a5,792(a1)
    80002fa8:	80df840b          	.insn	4, 0x80df840b
    80002fac:	04f5057b          	.insn	4, 0x04f5057b
    80002fb0:	76a13c23          	sd	a0,1912(sp)
    80002fb4:	3205b503          	ld	a0,800(a1)
    80002fb8:	80df040b          	.insn	4, 0x80df040b
    80002fbc:	08c5067b          	.insn	4, 0x08c5067b
    80002fc0:	76c13823          	sd	a2,1904(sp)
    80002fc4:	3285b603          	ld	a2,808(a1)
    80002fc8:	80db040b          	.insn	4, 0x80db040b
    80002fcc:	08c5057b          	.insn	4, 0x08c5057b
    80002fd0:	76a13023          	sd	a0,1888(sp)
    80002fd4:	3305b503          	ld	a0,816(a1)
    80002fd8:	80de840b          	.insn	4, 0x80de840b
    80002fdc:	0c9504fb          	.insn	4, 0x0c9504fb
    80002fe0:	74913c23          	sd	s1,1880(sp)
    80002fe4:	3385b483          	ld	s1,824(a1)
    80002fe8:	0c95057b          	.insn	4, 0x0c95057b
    80002fec:	74a13023          	sd	a0,1856(sp)
    80002ff0:	3405b503          	ld	a0,832(a1)
    80002ff4:	80d8840b          	.insn	4, 0x80d8840b
    80002ff8:	00e5077b          	.insn	4, 0x00e5077b
    80002ffc:	70e13823          	sd	a4,1808(sp)
    80003000:	3485b703          	ld	a4,840(a1)
    80003004:	80d3840b          	.insn	4, 0x80d3840b
    80003008:	00e5057b          	.insn	4, 0x00e5057b
    8000300c:	6ea13023          	sd	a0,1760(sp)
    80003010:	3505b503          	ld	a0,848(a1)
    80003014:	80db840b          	.insn	4, 0x80db840b
    80003018:	04f507fb          	.insn	4, 0x04f507fb
    8000301c:	6cf13c23          	sd	a5,1752(sp)
    80003020:	3585b783          	ld	a5,856(a1)
    80003024:	80df840b          	.insn	4, 0x80df840b
    80003028:	04f5057b          	.insn	4, 0x04f5057b
    8000302c:	6ca13823          	sd	a0,1744(sp)
    80003030:	3605b503          	ld	a0,864(a1)
    80003034:	80df040b          	.insn	4, 0x80df040b
    80003038:	08c5067b          	.insn	4, 0x08c5067b
    8000303c:	6cc13423          	sd	a2,1736(sp)
    80003040:	3685b603          	ld	a2,872(a1)
    80003044:	80db040b          	.insn	4, 0x80db040b
    80003048:	08c5057b          	.insn	4, 0x08c5057b
    8000304c:	6ca13023          	sd	a0,1728(sp)
    80003050:	3705b503          	ld	a0,880(a1)
    80003054:	80de840b          	.insn	4, 0x80de840b
    80003058:	0c9504fb          	.insn	4, 0x0c9504fb
    8000305c:	6a913423          	sd	s1,1704(sp)
    80003060:	3785b483          	ld	s1,888(a1)
    80003064:	0c95057b          	.insn	4, 0x0c95057b
    80003068:	6aa13c23          	sd	a0,1720(sp)
    8000306c:	3805b503          	ld	a0,896(a1)
    80003070:	80d8840b          	.insn	4, 0x80d8840b
    80003074:	00e5077b          	.insn	4, 0x00e5077b
    80003078:	68e13823          	sd	a4,1680(sp)
    8000307c:	3885b703          	ld	a4,904(a1)
    80003080:	80d3840b          	.insn	4, 0x80d3840b
    80003084:	00e5057b          	.insn	4, 0x00e5057b
    80003088:	64a13423          	sd	a0,1608(sp)
    8000308c:	3905b503          	ld	a0,912(a1)
    80003090:	80db840b          	.insn	4, 0x80db840b
    80003094:	04f507fb          	.insn	4, 0x04f507fb
    80003098:	62f13c23          	sd	a5,1592(sp)
    8000309c:	3985b783          	ld	a5,920(a1)
    800030a0:	80df840b          	.insn	4, 0x80df840b
    800030a4:	04f5057b          	.insn	4, 0x04f5057b
    800030a8:	62a13823          	sd	a0,1584(sp)
    800030ac:	3a05b503          	ld	a0,928(a1)
    800030b0:	80df040b          	.insn	4, 0x80df040b
    800030b4:	08c5067b          	.insn	4, 0x08c5067b
    800030b8:	60c13c23          	sd	a2,1560(sp)
    800030bc:	3a85b603          	ld	a2,936(a1)
    800030c0:	80db040b          	.insn	4, 0x80db040b
    800030c4:	08c5057b          	.insn	4, 0x08c5057b
    800030c8:	60a13023          	sd	a0,1536(sp)
    800030cc:	3b05b503          	ld	a0,944(a1)
    800030d0:	80de840b          	.insn	4, 0x80de840b
    800030d4:	0c9504fb          	.insn	4, 0x0c9504fb
    800030d8:	5e913423          	sd	s1,1512(sp)
    800030dc:	3b85b483          	ld	s1,952(a1)
    800030e0:	0c95057b          	.insn	4, 0x0c95057b
    800030e4:	5ca13823          	sd	a0,1488(sp)
    800030e8:	3c05b503          	ld	a0,960(a1)
    800030ec:	80d8840b          	.insn	4, 0x80d8840b
    800030f0:	00e5077b          	.insn	4, 0x00e5077b
    800030f4:	5ce13423          	sd	a4,1480(sp)
    800030f8:	3c85b703          	ld	a4,968(a1)
    800030fc:	80d3840b          	.insn	4, 0x80d3840b
    80003100:	00e5057b          	.insn	4, 0x00e5057b
    80003104:	5aa13823          	sd	a0,1456(sp)
    80003108:	3d05b503          	ld	a0,976(a1)
    8000310c:	80db870b          	.insn	4, 0x80db870b
    80003110:	04f5077b          	.insn	4, 0x04f5077b
    80003114:	5ae13023          	sd	a4,1440(sp)
    80003118:	3d85b703          	ld	a4,984(a1)
    8000311c:	80df878b          	.insn	4, 0x80df878b
    80003120:	04e5057b          	.insn	4, 0x04e5057b
    80003124:	58a13c23          	sd	a0,1432(sp)
    80003128:	3e05b503          	ld	a0,992(a1)
    8000312c:	80df070b          	.insn	4, 0x80df070b
    80003130:	08c5067b          	.insn	4, 0x08c5067b
    80003134:	58c13823          	sd	a2,1424(sp)
    80003138:	3e85b603          	ld	a2,1000(a1)
    8000313c:	80db070b          	.insn	4, 0x80db070b
    80003140:	08c5057b          	.insn	4, 0x08c5057b
    80003144:	58a13423          	sd	a0,1416(sp)
    80003148:	3f05b503          	ld	a0,1008(a1)
    8000314c:	80de860b          	.insn	4, 0x80de860b
    80003150:	0c95067b          	.insn	4, 0x0c95067b
    80003154:	58c13023          	sd	a2,1408(sp)
    80003158:	3f85b583          	ld	a1,1016(a1)
    8000315c:	0cb5057b          	.insn	4, 0x0cb5057b
    80003160:	56a13c23          	sd	a0,1400(sp)
    80003164:	6505                	lui	a0,0x1
    80003166:	fb05051b          	addiw	a0,a0,-80 # fb0 <buflen.1+0xf70>
    8000316a:	950a                	add	a0,a0,sp
    8000316c:	6108                	ld	a0,0(a0)
    8000316e:	00156513          	ori	a0,a0,1
    80003172:	56a13823          	sd	a0,1392(sp)
    80003176:	052a                	slli	a0,a0,0xa
    80003178:	00ae05b3          	add	a1,t3,a0
    8000317c:	0005b803          	ld	a6,0(a1)
    80003180:	6590                	ld	a2,8(a1)
    80003182:	0105b303          	ld	t1,16(a1)
    80003186:	6d9c                	ld	a5,24(a1)
    80003188:	7184                	ld	s1,32(a1)
    8000318a:	7580                	ld	s0,40(a1)
    8000318c:	7988                	ld	a0,48(a1)
    8000318e:	0385b283          	ld	t0,56(a1)
    80003192:	00c8070b          	.insn	4, 0x00c8070b
    80003196:	20f3070b          	.insn	4, 0x20f3070b
    8000319a:	4084870b          	.insn	4, 0x4084870b
    8000319e:	0c55057b          	.insn	4, 0x0c55057b
    800031a2:	56a13423          	sd	a0,1384(sp)
    800031a6:	61a8                	ld	a0,64(a1)
    800031a8:	80d8870b          	.insn	4, 0x80d8870b
    800031ac:	00c5067b          	.insn	4, 0x00c5067b
    800031b0:	56c13023          	sd	a2,1376(sp)
    800031b4:	65b0                	ld	a2,72(a1)
    800031b6:	80d3870b          	.insn	4, 0x80d3870b
    800031ba:	00c5057b          	.insn	4, 0x00c5057b
    800031be:	54a13c23          	sd	a0,1368(sp)
    800031c2:	69a8                	ld	a0,80(a1)
    800031c4:	80db870b          	.insn	4, 0x80db870b
    800031c8:	04f5077b          	.insn	4, 0x04f5077b
    800031cc:	54e13823          	sd	a4,1360(sp)
    800031d0:	6db8                	ld	a4,88(a1)
    800031d2:	80df878b          	.insn	4, 0x80df878b
    800031d6:	04e5057b          	.insn	4, 0x04e5057b
    800031da:	54a13423          	sd	a0,1352(sp)
    800031de:	71a8                	ld	a0,96(a1)
    800031e0:	80df078b          	.insn	4, 0x80df078b
    800031e4:	088507fb          	.insn	4, 0x088507fb
    800031e8:	54f13023          	sd	a5,1344(sp)
    800031ec:	75bc                	ld	a5,104(a1)
    800031ee:	80db048b          	.insn	4, 0x80db048b
    800031f2:	08f5057b          	.insn	4, 0x08f5057b
    800031f6:	52a13c23          	sd	a0,1336(sp)
    800031fa:	79a8                	ld	a0,112(a1)
    800031fc:	80de848b          	.insn	4, 0x80de848b
    80003200:	0c5504fb          	.insn	4, 0x0c5504fb
    80003204:	52913823          	sd	s1,1328(sp)
    80003208:	7da4                	ld	s1,120(a1)
    8000320a:	0c95057b          	.insn	4, 0x0c95057b
    8000320e:	52a13423          	sd	a0,1320(sp)
    80003212:	61c8                	ld	a0,128(a1)
    80003214:	80d8840b          	.insn	4, 0x80d8840b
    80003218:	00c5067b          	.insn	4, 0x00c5067b
    8000321c:	52c13023          	sd	a2,1312(sp)
    80003220:	65d0                	ld	a2,136(a1)
    80003222:	80d3840b          	.insn	4, 0x80d3840b
    80003226:	00c5057b          	.insn	4, 0x00c5057b
    8000322a:	50a13c23          	sd	a0,1304(sp)
    8000322e:	69c8                	ld	a0,144(a1)
    80003230:	80db840b          	.insn	4, 0x80db840b
    80003234:	04e5077b          	.insn	4, 0x04e5077b
    80003238:	50e13823          	sd	a4,1296(sp)
    8000323c:	6dd8                	ld	a4,152(a1)
    8000323e:	80df840b          	.insn	4, 0x80df840b
    80003242:	04e5057b          	.insn	4, 0x04e5057b
    80003246:	50a13423          	sd	a0,1288(sp)
    8000324a:	71c8                	ld	a0,160(a1)
    8000324c:	80df040b          	.insn	4, 0x80df040b
    80003250:	08f507fb          	.insn	4, 0x08f507fb
    80003254:	50f13023          	sd	a5,1280(sp)
    80003258:	75dc                	ld	a5,168(a1)
    8000325a:	80db040b          	.insn	4, 0x80db040b
    8000325e:	08f5057b          	.insn	4, 0x08f5057b
    80003262:	4ea13c23          	sd	a0,1272(sp)
    80003266:	79c8                	ld	a0,176(a1)
    80003268:	80de840b          	.insn	4, 0x80de840b
    8000326c:	0c9504fb          	.insn	4, 0x0c9504fb
    80003270:	4e913823          	sd	s1,1264(sp)
    80003274:	7dc4                	ld	s1,184(a1)
    80003276:	0c95057b          	.insn	4, 0x0c95057b
    8000327a:	4ea13423          	sd	a0,1256(sp)
    8000327e:	61e8                	ld	a0,192(a1)
    80003280:	80d8840b          	.insn	4, 0x80d8840b
    80003284:	00c5067b          	.insn	4, 0x00c5067b
    80003288:	4ec13023          	sd	a2,1248(sp)
    8000328c:	65f0                	ld	a2,200(a1)
    8000328e:	80d3840b          	.insn	4, 0x80d3840b
    80003292:	00c5057b          	.insn	4, 0x00c5057b
    80003296:	4ca13c23          	sd	a0,1240(sp)
    8000329a:	69e8                	ld	a0,208(a1)
    8000329c:	80db840b          	.insn	4, 0x80db840b
    800032a0:	04e5077b          	.insn	4, 0x04e5077b
    800032a4:	4ce13823          	sd	a4,1232(sp)
    800032a8:	6df8                	ld	a4,216(a1)
    800032aa:	80df840b          	.insn	4, 0x80df840b
    800032ae:	04e5057b          	.insn	4, 0x04e5057b
    800032b2:	4ca13423          	sd	a0,1224(sp)
    800032b6:	71e8                	ld	a0,224(a1)
    800032b8:	80df040b          	.insn	4, 0x80df040b
    800032bc:	08f507fb          	.insn	4, 0x08f507fb
    800032c0:	4cf13023          	sd	a5,1216(sp)
    800032c4:	75fc                	ld	a5,232(a1)
    800032c6:	80db040b          	.insn	4, 0x80db040b
    800032ca:	08f5057b          	.insn	4, 0x08f5057b
    800032ce:	4aa13c23          	sd	a0,1208(sp)
    800032d2:	79e8                	ld	a0,240(a1)
    800032d4:	80de840b          	.insn	4, 0x80de840b
    800032d8:	0c9504fb          	.insn	4, 0x0c9504fb
    800032dc:	4a913823          	sd	s1,1200(sp)
    800032e0:	7de4                	ld	s1,248(a1)
    800032e2:	0c95057b          	.insn	4, 0x0c95057b
    800032e6:	4aa13423          	sd	a0,1192(sp)
    800032ea:	1005b503          	ld	a0,256(a1)
    800032ee:	80d8840b          	.insn	4, 0x80d8840b
    800032f2:	00c5067b          	.insn	4, 0x00c5067b
    800032f6:	4ac13023          	sd	a2,1184(sp)
    800032fa:	1085b603          	ld	a2,264(a1)
    800032fe:	80d3840b          	.insn	4, 0x80d3840b
    80003302:	00c5057b          	.insn	4, 0x00c5057b
    80003306:	48a13c23          	sd	a0,1176(sp)
    8000330a:	1105b503          	ld	a0,272(a1)
    8000330e:	80db840b          	.insn	4, 0x80db840b
    80003312:	04e5077b          	.insn	4, 0x04e5077b
    80003316:	48e13823          	sd	a4,1168(sp)
    8000331a:	1185b703          	ld	a4,280(a1)
    8000331e:	80df840b          	.insn	4, 0x80df840b
    80003322:	04e5057b          	.insn	4, 0x04e5057b
    80003326:	48a13423          	sd	a0,1160(sp)
    8000332a:	1205b503          	ld	a0,288(a1)
    8000332e:	80df040b          	.insn	4, 0x80df040b
    80003332:	08f507fb          	.insn	4, 0x08f507fb
    80003336:	48f13023          	sd	a5,1152(sp)
    8000333a:	1285b783          	ld	a5,296(a1)
    8000333e:	80db040b          	.insn	4, 0x80db040b
    80003342:	08f5057b          	.insn	4, 0x08f5057b
    80003346:	46a13c23          	sd	a0,1144(sp)
    8000334a:	1305b503          	ld	a0,304(a1)
    8000334e:	80de840b          	.insn	4, 0x80de840b
    80003352:	0c9504fb          	.insn	4, 0x0c9504fb
    80003356:	46913823          	sd	s1,1136(sp)
    8000335a:	1385b483          	ld	s1,312(a1)
    8000335e:	0c95057b          	.insn	4, 0x0c95057b
    80003362:	46a13423          	sd	a0,1128(sp)
    80003366:	1405b503          	ld	a0,320(a1)
    8000336a:	80d8840b          	.insn	4, 0x80d8840b
    8000336e:	00c5067b          	.insn	4, 0x00c5067b
    80003372:	46c13023          	sd	a2,1120(sp)
    80003376:	1485b603          	ld	a2,328(a1)
    8000337a:	80d3840b          	.insn	4, 0x80d3840b
    8000337e:	00c5057b          	.insn	4, 0x00c5057b
    80003382:	44a13c23          	sd	a0,1112(sp)
    80003386:	1505b503          	ld	a0,336(a1)
    8000338a:	80db840b          	.insn	4, 0x80db840b
    8000338e:	04e5077b          	.insn	4, 0x04e5077b
    80003392:	44e13823          	sd	a4,1104(sp)
    80003396:	1585b703          	ld	a4,344(a1)
    8000339a:	80df840b          	.insn	4, 0x80df840b
    8000339e:	04e5057b          	.insn	4, 0x04e5057b
    800033a2:	44a13423          	sd	a0,1096(sp)
    800033a6:	1605b503          	ld	a0,352(a1)
    800033aa:	80df040b          	.insn	4, 0x80df040b
    800033ae:	08f507fb          	.insn	4, 0x08f507fb
    800033b2:	44f13023          	sd	a5,1088(sp)
    800033b6:	1685b783          	ld	a5,360(a1)
    800033ba:	80db040b          	.insn	4, 0x80db040b
    800033be:	08f5057b          	.insn	4, 0x08f5057b
    800033c2:	42a13c23          	sd	a0,1080(sp)
    800033c6:	1705b503          	ld	a0,368(a1)
    800033ca:	80de840b          	.insn	4, 0x80de840b
    800033ce:	0c9504fb          	.insn	4, 0x0c9504fb
    800033d2:	42913823          	sd	s1,1072(sp)
    800033d6:	1785b483          	ld	s1,376(a1)
    800033da:	0c95057b          	.insn	4, 0x0c95057b
    800033de:	42a13423          	sd	a0,1064(sp)
    800033e2:	1805b503          	ld	a0,384(a1)
    800033e6:	80d8840b          	.insn	4, 0x80d8840b
    800033ea:	00c5067b          	.insn	4, 0x00c5067b
    800033ee:	42c13023          	sd	a2,1056(sp)
    800033f2:	1885b603          	ld	a2,392(a1)
    800033f6:	80d3840b          	.insn	4, 0x80d3840b
    800033fa:	00c5057b          	.insn	4, 0x00c5057b
    800033fe:	40a13c23          	sd	a0,1048(sp)
    80003402:	1905b503          	ld	a0,400(a1)
    80003406:	80db840b          	.insn	4, 0x80db840b
    8000340a:	04e5077b          	.insn	4, 0x04e5077b
    8000340e:	40e13823          	sd	a4,1040(sp)
    80003412:	1985b703          	ld	a4,408(a1)
    80003416:	80df840b          	.insn	4, 0x80df840b
    8000341a:	04e5057b          	.insn	4, 0x04e5057b
    8000341e:	40a13423          	sd	a0,1032(sp)
    80003422:	1a05b503          	ld	a0,416(a1)
    80003426:	80df040b          	.insn	4, 0x80df040b
    8000342a:	08f507fb          	.insn	4, 0x08f507fb
    8000342e:	40f13023          	sd	a5,1024(sp)
    80003432:	1a85b783          	ld	a5,424(a1)
    80003436:	80db040b          	.insn	4, 0x80db040b
    8000343a:	08f5057b          	.insn	4, 0x08f5057b
    8000343e:	3ea13c23          	sd	a0,1016(sp)
    80003442:	1b05b503          	ld	a0,432(a1)
    80003446:	80de840b          	.insn	4, 0x80de840b
    8000344a:	0c9504fb          	.insn	4, 0x0c9504fb
    8000344e:	3e913823          	sd	s1,1008(sp)
    80003452:	1b85b483          	ld	s1,440(a1)
    80003456:	0c95057b          	.insn	4, 0x0c95057b
    8000345a:	3ea13423          	sd	a0,1000(sp)
    8000345e:	1c05b503          	ld	a0,448(a1)
    80003462:	80d8840b          	.insn	4, 0x80d8840b
    80003466:	00c5067b          	.insn	4, 0x00c5067b
    8000346a:	3ec13023          	sd	a2,992(sp)
    8000346e:	1c85b603          	ld	a2,456(a1)
    80003472:	80d3840b          	.insn	4, 0x80d3840b
    80003476:	00c5057b          	.insn	4, 0x00c5057b
    8000347a:	3ca13c23          	sd	a0,984(sp)
    8000347e:	1d05b503          	ld	a0,464(a1)
    80003482:	80db840b          	.insn	4, 0x80db840b
    80003486:	04e5077b          	.insn	4, 0x04e5077b
    8000348a:	3ce13823          	sd	a4,976(sp)
    8000348e:	1d85b703          	ld	a4,472(a1)
    80003492:	80df840b          	.insn	4, 0x80df840b
    80003496:	04e5057b          	.insn	4, 0x04e5057b
    8000349a:	3ca13423          	sd	a0,968(sp)
    8000349e:	1e05b503          	ld	a0,480(a1)
    800034a2:	80df040b          	.insn	4, 0x80df040b
    800034a6:	08f507fb          	.insn	4, 0x08f507fb
    800034aa:	3cf13023          	sd	a5,960(sp)
    800034ae:	1e85b783          	ld	a5,488(a1)
    800034b2:	80db040b          	.insn	4, 0x80db040b
    800034b6:	08f5057b          	.insn	4, 0x08f5057b
    800034ba:	3aa13c23          	sd	a0,952(sp)
    800034be:	1f05b503          	ld	a0,496(a1)
    800034c2:	80de840b          	.insn	4, 0x80de840b
    800034c6:	0c9504fb          	.insn	4, 0x0c9504fb
    800034ca:	3a913823          	sd	s1,944(sp)
    800034ce:	1f85b483          	ld	s1,504(a1)
    800034d2:	0c95057b          	.insn	4, 0x0c95057b
    800034d6:	3aa13423          	sd	a0,936(sp)
    800034da:	2005b503          	ld	a0,512(a1)
    800034de:	80d8840b          	.insn	4, 0x80d8840b
    800034e2:	00c5067b          	.insn	4, 0x00c5067b
    800034e6:	3ac13023          	sd	a2,928(sp)
    800034ea:	2085b603          	ld	a2,520(a1)
    800034ee:	80d3840b          	.insn	4, 0x80d3840b
    800034f2:	00c5057b          	.insn	4, 0x00c5057b
    800034f6:	38a13c23          	sd	a0,920(sp)
    800034fa:	2105b503          	ld	a0,528(a1)
    800034fe:	80db840b          	.insn	4, 0x80db840b
    80003502:	04e5077b          	.insn	4, 0x04e5077b
    80003506:	38e13823          	sd	a4,912(sp)
    8000350a:	2185b703          	ld	a4,536(a1)
    8000350e:	80df840b          	.insn	4, 0x80df840b
    80003512:	04e5057b          	.insn	4, 0x04e5057b
    80003516:	38a13423          	sd	a0,904(sp)
    8000351a:	2205b503          	ld	a0,544(a1)
    8000351e:	80df040b          	.insn	4, 0x80df040b
    80003522:	08f507fb          	.insn	4, 0x08f507fb
    80003526:	38f13023          	sd	a5,896(sp)
    8000352a:	2285b783          	ld	a5,552(a1)
    8000352e:	80db040b          	.insn	4, 0x80db040b
    80003532:	08f5057b          	.insn	4, 0x08f5057b
    80003536:	36a13c23          	sd	a0,888(sp)
    8000353a:	2305b503          	ld	a0,560(a1)
    8000353e:	80de840b          	.insn	4, 0x80de840b
    80003542:	0c9504fb          	.insn	4, 0x0c9504fb
    80003546:	36913823          	sd	s1,880(sp)
    8000354a:	2385b483          	ld	s1,568(a1)
    8000354e:	0c95057b          	.insn	4, 0x0c95057b
    80003552:	36a13423          	sd	a0,872(sp)
    80003556:	2405b503          	ld	a0,576(a1)
    8000355a:	80d8840b          	.insn	4, 0x80d8840b
    8000355e:	00c5067b          	.insn	4, 0x00c5067b
    80003562:	36c13023          	sd	a2,864(sp)
    80003566:	2485b603          	ld	a2,584(a1)
    8000356a:	80d3840b          	.insn	4, 0x80d3840b
    8000356e:	00c5057b          	.insn	4, 0x00c5057b
    80003572:	34a13c23          	sd	a0,856(sp)
    80003576:	2505b503          	ld	a0,592(a1)
    8000357a:	80db840b          	.insn	4, 0x80db840b
    8000357e:	04e5077b          	.insn	4, 0x04e5077b
    80003582:	34e13823          	sd	a4,848(sp)
    80003586:	2585b703          	ld	a4,600(a1)
    8000358a:	80df840b          	.insn	4, 0x80df840b
    8000358e:	04e5057b          	.insn	4, 0x04e5057b
    80003592:	34a13423          	sd	a0,840(sp)
    80003596:	2605b503          	ld	a0,608(a1)
    8000359a:	80df040b          	.insn	4, 0x80df040b
    8000359e:	08f507fb          	.insn	4, 0x08f507fb
    800035a2:	32f13823          	sd	a5,816(sp)
    800035a6:	2685b783          	ld	a5,616(a1)
    800035aa:	80db040b          	.insn	4, 0x80db040b
    800035ae:	08f5057b          	.insn	4, 0x08f5057b
    800035b2:	32a13023          	sd	a0,800(sp)
    800035b6:	2705b503          	ld	a0,624(a1)
    800035ba:	80de840b          	.insn	4, 0x80de840b
    800035be:	0c9504fb          	.insn	4, 0x0c9504fb
    800035c2:	34913023          	sd	s1,832(sp)
    800035c6:	2785b483          	ld	s1,632(a1)
    800035ca:	0c95057b          	.insn	4, 0x0c95057b
    800035ce:	32a13c23          	sd	a0,824(sp)
    800035d2:	2805b503          	ld	a0,640(a1)
    800035d6:	80d8840b          	.insn	4, 0x80d8840b
    800035da:	00c5067b          	.insn	4, 0x00c5067b
    800035de:	32c13423          	sd	a2,808(sp)
    800035e2:	2885b603          	ld	a2,648(a1)
    800035e6:	80d3840b          	.insn	4, 0x80d3840b
    800035ea:	00c5057b          	.insn	4, 0x00c5057b
    800035ee:	30a13823          	sd	a0,784(sp)
    800035f2:	2905b503          	ld	a0,656(a1)
    800035f6:	80db840b          	.insn	4, 0x80db840b
    800035fa:	04e5077b          	.insn	4, 0x04e5077b
    800035fe:	30e13c23          	sd	a4,792(sp)
    80003602:	2985b703          	ld	a4,664(a1)
    80003606:	80df840b          	.insn	4, 0x80df840b
    8000360a:	04e5057b          	.insn	4, 0x04e5057b
    8000360e:	30a13423          	sd	a0,776(sp)
    80003612:	2a05b503          	ld	a0,672(a1)
    80003616:	80df040b          	.insn	4, 0x80df040b
    8000361a:	08f507fb          	.insn	4, 0x08f507fb
    8000361e:	30f13023          	sd	a5,768(sp)
    80003622:	2a85b783          	ld	a5,680(a1)
    80003626:	80db040b          	.insn	4, 0x80db040b
    8000362a:	08f5057b          	.insn	4, 0x08f5057b
    8000362e:	2ea13823          	sd	a0,752(sp)
    80003632:	2b05b503          	ld	a0,688(a1)
    80003636:	80de840b          	.insn	4, 0x80de840b
    8000363a:	0c9504fb          	.insn	4, 0x0c9504fb
    8000363e:	2e913c23          	sd	s1,760(sp)
    80003642:	2b85b483          	ld	s1,696(a1)
    80003646:	0c95057b          	.insn	4, 0x0c95057b
    8000364a:	2ea13423          	sd	a0,744(sp)
    8000364e:	2c05b503          	ld	a0,704(a1)
    80003652:	80d8840b          	.insn	4, 0x80d8840b
    80003656:	00c5067b          	.insn	4, 0x00c5067b
    8000365a:	2ec13023          	sd	a2,736(sp)
    8000365e:	2c85b603          	ld	a2,712(a1)
    80003662:	80d3840b          	.insn	4, 0x80d3840b
    80003666:	00c5057b          	.insn	4, 0x00c5057b
    8000366a:	2ca13823          	sd	a0,720(sp)
    8000366e:	2d05b503          	ld	a0,720(a1)
    80003672:	80db840b          	.insn	4, 0x80db840b
    80003676:	04e5077b          	.insn	4, 0x04e5077b
    8000367a:	2ce13c23          	sd	a4,728(sp)
    8000367e:	2d85b703          	ld	a4,728(a1)
    80003682:	80df840b          	.insn	4, 0x80df840b
    80003686:	04e5057b          	.insn	4, 0x04e5057b
    8000368a:	2ca13423          	sd	a0,712(sp)
    8000368e:	2e05b503          	ld	a0,736(a1)
    80003692:	80df040b          	.insn	4, 0x80df040b
    80003696:	08f507fb          	.insn	4, 0x08f507fb
    8000369a:	2cf13023          	sd	a5,704(sp)
    8000369e:	2e85b783          	ld	a5,744(a1)
    800036a2:	80db040b          	.insn	4, 0x80db040b
    800036a6:	08f5057b          	.insn	4, 0x08f5057b
    800036aa:	2aa13c23          	sd	a0,696(sp)
    800036ae:	2f05b503          	ld	a0,752(a1)
    800036b2:	80de840b          	.insn	4, 0x80de840b
    800036b6:	0c9504fb          	.insn	4, 0x0c9504fb
    800036ba:	2a913823          	sd	s1,688(sp)
    800036be:	2f85b483          	ld	s1,760(a1)
    800036c2:	0c95057b          	.insn	4, 0x0c95057b
    800036c6:	2aa13423          	sd	a0,680(sp)
    800036ca:	3005b503          	ld	a0,768(a1)
    800036ce:	80d8840b          	.insn	4, 0x80d8840b
    800036d2:	00c5067b          	.insn	4, 0x00c5067b
    800036d6:	2ac13023          	sd	a2,672(sp)
    800036da:	3085b603          	ld	a2,776(a1)
    800036de:	80d3840b          	.insn	4, 0x80d3840b
    800036e2:	00c5057b          	.insn	4, 0x00c5057b
    800036e6:	28a13823          	sd	a0,656(sp)
    800036ea:	3105b503          	ld	a0,784(a1)
    800036ee:	80db840b          	.insn	4, 0x80db840b
    800036f2:	04e5077b          	.insn	4, 0x04e5077b
    800036f6:	28e13c23          	sd	a4,664(sp)
    800036fa:	3185b703          	ld	a4,792(a1)
    800036fe:	80df840b          	.insn	4, 0x80df840b
    80003702:	04e5057b          	.insn	4, 0x04e5057b
    80003706:	28a13423          	sd	a0,648(sp)
    8000370a:	3205b503          	ld	a0,800(a1)
    8000370e:	80df040b          	.insn	4, 0x80df040b
    80003712:	08f507fb          	.insn	4, 0x08f507fb
    80003716:	28f13023          	sd	a5,640(sp)
    8000371a:	3285b783          	ld	a5,808(a1)
    8000371e:	80db040b          	.insn	4, 0x80db040b
    80003722:	08f5057b          	.insn	4, 0x08f5057b
    80003726:	26a13823          	sd	a0,624(sp)
    8000372a:	3305b503          	ld	a0,816(a1)
    8000372e:	80de840b          	.insn	4, 0x80de840b
    80003732:	0c9504fb          	.insn	4, 0x0c9504fb
    80003736:	26913c23          	sd	s1,632(sp)
    8000373a:	3385b483          	ld	s1,824(a1)
    8000373e:	0c95057b          	.insn	4, 0x0c95057b
    80003742:	26a13423          	sd	a0,616(sp)
    80003746:	3405b503          	ld	a0,832(a1)
    8000374a:	80d8840b          	.insn	4, 0x80d8840b
    8000374e:	00c5067b          	.insn	4, 0x00c5067b
    80003752:	26c13023          	sd	a2,608(sp)
    80003756:	3485b603          	ld	a2,840(a1)
    8000375a:	80d3840b          	.insn	4, 0x80d3840b
    8000375e:	00c5057b          	.insn	4, 0x00c5057b
    80003762:	24a13823          	sd	a0,592(sp)
    80003766:	3505b503          	ld	a0,848(a1)
    8000376a:	80db840b          	.insn	4, 0x80db840b
    8000376e:	04e5077b          	.insn	4, 0x04e5077b
    80003772:	24e13c23          	sd	a4,600(sp)
    80003776:	3585b703          	ld	a4,856(a1)
    8000377a:	80df840b          	.insn	4, 0x80df840b
    8000377e:	04e5057b          	.insn	4, 0x04e5057b
    80003782:	24a13423          	sd	a0,584(sp)
    80003786:	3605b503          	ld	a0,864(a1)
    8000378a:	80df040b          	.insn	4, 0x80df040b
    8000378e:	08f507fb          	.insn	4, 0x08f507fb
    80003792:	24f13023          	sd	a5,576(sp)
    80003796:	3685b783          	ld	a5,872(a1)
    8000379a:	80db040b          	.insn	4, 0x80db040b
    8000379e:	08f5057b          	.insn	4, 0x08f5057b
    800037a2:	22a13823          	sd	a0,560(sp)
    800037a6:	3705b503          	ld	a0,880(a1)
    800037aa:	80de840b          	.insn	4, 0x80de840b
    800037ae:	0c9504fb          	.insn	4, 0x0c9504fb
    800037b2:	22913c23          	sd	s1,568(sp)
    800037b6:	3785b483          	ld	s1,888(a1)
    800037ba:	0c95057b          	.insn	4, 0x0c95057b
    800037be:	22a13423          	sd	a0,552(sp)
    800037c2:	3805b503          	ld	a0,896(a1)
    800037c6:	80d8840b          	.insn	4, 0x80d8840b
    800037ca:	00c5067b          	.insn	4, 0x00c5067b
    800037ce:	22c13023          	sd	a2,544(sp)
    800037d2:	3885b603          	ld	a2,904(a1)
    800037d6:	80d3840b          	.insn	4, 0x80d3840b
    800037da:	00c5057b          	.insn	4, 0x00c5057b
    800037de:	20a13823          	sd	a0,528(sp)
    800037e2:	3905b503          	ld	a0,912(a1)
    800037e6:	80db840b          	.insn	4, 0x80db840b
    800037ea:	04e5077b          	.insn	4, 0x04e5077b
    800037ee:	20e13c23          	sd	a4,536(sp)
    800037f2:	3985b703          	ld	a4,920(a1)
    800037f6:	80df840b          	.insn	4, 0x80df840b
    800037fa:	04e5057b          	.insn	4, 0x04e5057b
    800037fe:	20a13423          	sd	a0,520(sp)
    80003802:	3a05b503          	ld	a0,928(a1)
    80003806:	80df040b          	.insn	4, 0x80df040b
    8000380a:	08f507fb          	.insn	4, 0x08f507fb
    8000380e:	20f13023          	sd	a5,512(sp)
    80003812:	3a85b783          	ld	a5,936(a1)
    80003816:	80db040b          	.insn	4, 0x80db040b
    8000381a:	08f5057b          	.insn	4, 0x08f5057b
    8000381e:	fbaa                	sd	a0,496(sp)
    80003820:	3b05b503          	ld	a0,944(a1)
    80003824:	80de840b          	.insn	4, 0x80de840b
    80003828:	0c9504fb          	.insn	4, 0x0c9504fb
    8000382c:	ffa6                	sd	s1,504(sp)
    8000382e:	3b85b483          	ld	s1,952(a1)
    80003832:	0c95057b          	.insn	4, 0x0c95057b
    80003836:	f7aa                	sd	a0,488(sp)
    80003838:	3c05b503          	ld	a0,960(a1)
    8000383c:	80d8840b          	.insn	4, 0x80d8840b
    80003840:	00c5067b          	.insn	4, 0x00c5067b
    80003844:	f3b2                	sd	a2,480(sp)
    80003846:	3c85b603          	ld	a2,968(a1)
    8000384a:	80d3840b          	.insn	4, 0x80d3840b
    8000384e:	00c5057b          	.insn	4, 0x00c5057b
    80003852:	ebaa                	sd	a0,464(sp)
    80003854:	3d05b503          	ld	a0,976(a1)
    80003858:	80db860b          	.insn	4, 0x80db860b
    8000385c:	04e5067b          	.insn	4, 0x04e5067b
    80003860:	efb2                	sd	a2,472(sp)
    80003862:	3d85b603          	ld	a2,984(a1)
    80003866:	80df870b          	.insn	4, 0x80df870b
    8000386a:	04c5057b          	.insn	4, 0x04c5057b
    8000386e:	e7aa                	sd	a0,456(sp)
    80003870:	3e05b503          	ld	a0,992(a1)
    80003874:	80df060b          	.insn	4, 0x80df060b
    80003878:	08f5067b          	.insn	4, 0x08f5067b
    8000387c:	e3b2                	sd	a2,448(sp)
    8000387e:	3e85b603          	ld	a2,1000(a1)
    80003882:	80db070b          	.insn	4, 0x80db070b
    80003886:	08c5057b          	.insn	4, 0x08c5057b
    8000388a:	ff2a                	sd	a0,440(sp)
    8000388c:	3f05b503          	ld	a0,1008(a1)
    80003890:	80de860b          	.insn	4, 0x80de860b
    80003894:	0c95067b          	.insn	4, 0x0c95067b
    80003898:	6705                	lui	a4,0x1
    8000389a:	f287071b          	addiw	a4,a4,-216 # f28 <buflen.1+0xee8>
    8000389e:	970a                	add	a4,a4,sp
    800038a0:	e310                	sd	a2,0(a4)
    800038a2:	3f85b583          	ld	a1,1016(a1)
    800038a6:	0cb5057b          	.insn	4, 0x0cb5057b
    800038aa:	6585                	lui	a1,0x1
    800038ac:	f205859b          	addiw	a1,a1,-224 # f20 <buflen.1+0xee0>
    800038b0:	958a                	add	a1,a1,sp
    800038b2:	e188                	sd	a0,0(a1)
    800038b4:	6505                	lui	a0,0x1
    800038b6:	fb05051b          	addiw	a0,a0,-80 # fb0 <buflen.1+0xf70>
    800038ba:	950a                	add	a0,a0,sp
    800038bc:	6108                	ld	a0,0(a0)
    800038be:	0509                	addi	a0,a0,2
    800038c0:	052a                	slli	a0,a0,0xa
    800038c2:	00ae05b3          	add	a1,t3,a0
    800038c6:	0005b803          	ld	a6,0(a1)
    800038ca:	6590                	ld	a2,8(a1)
    800038cc:	0105b303          	ld	t1,16(a1)
    800038d0:	6d9c                	ld	a5,24(a1)
    800038d2:	7184                	ld	s1,32(a1)
    800038d4:	7580                	ld	s0,40(a1)
    800038d6:	7988                	ld	a0,48(a1)
    800038d8:	0385b283          	ld	t0,56(a1)
    800038dc:	00c8070b          	.insn	4, 0x00c8070b
    800038e0:	20f3070b          	.insn	4, 0x20f3070b
    800038e4:	4084870b          	.insn	4, 0x4084870b
    800038e8:	0c55057b          	.insn	4, 0x0c55057b
    800038ec:	6705                	lui	a4,0x1
    800038ee:	f107071b          	addiw	a4,a4,-240 # f10 <buflen.1+0xed0>
    800038f2:	970a                	add	a4,a4,sp
    800038f4:	e308                	sd	a0,0(a4)
    800038f6:	61a8                	ld	a0,64(a1)
    800038f8:	4805                	li	a6,1
    800038fa:	80d8070b          	.insn	4, 0x80d8070b
    800038fe:	00c5067b          	.insn	4, 0x00c5067b
    80003902:	6705                	lui	a4,0x1
    80003904:	f087071b          	addiw	a4,a4,-248 # f08 <buflen.1+0xec8>
    80003908:	970a                	add	a4,a4,sp
    8000390a:	e310                	sd	a2,0(a4)
    8000390c:	65b0                	ld	a2,72(a1)
    8000390e:	4889                	li	a7,2
    80003910:	80d8870b          	.insn	4, 0x80d8870b
    80003914:	00c5057b          	.insn	4, 0x00c5057b
    80003918:	6705                	lui	a4,0x1
    8000391a:	f007071b          	addiw	a4,a4,-256 # f00 <buflen.1+0xec0>
    8000391e:	970a                	add	a4,a4,sp
    80003920:	e308                	sd	a0,0(a4)
    80003922:	69a8                	ld	a0,80(a1)
    80003924:	80db870b          	.insn	4, 0x80db870b
    80003928:	04f5077b          	.insn	4, 0x04f5077b
    8000392c:	6785                	lui	a5,0x1
    8000392e:	ef07879b          	addiw	a5,a5,-272 # ef0 <buflen.1+0xeb0>
    80003932:	978a                	add	a5,a5,sp
    80003934:	e398                	sd	a4,0(a5)
    80003936:	6db8                	ld	a4,88(a1)
    80003938:	80df878b          	.insn	4, 0x80df878b
    8000393c:	04e5057b          	.insn	4, 0x04e5057b
    80003940:	6785                	lui	a5,0x1
    80003942:	ee87879b          	addiw	a5,a5,-280 # ee8 <buflen.1+0xea8>
    80003946:	978a                	add	a5,a5,sp
    80003948:	e388                	sd	a0,0(a5)
    8000394a:	71a8                	ld	a0,96(a1)
    8000394c:	80df078b          	.insn	4, 0x80df078b
    80003950:	088507fb          	.insn	4, 0x088507fb
    80003954:	6305                	lui	t1,0x1
    80003956:	ee03031b          	addiw	t1,t1,-288 # ee0 <buflen.1+0xea0>
    8000395a:	930a                	add	t1,t1,sp
    8000395c:	00f33023          	sd	a5,0(t1)
    80003960:	75bc                	ld	a5,104(a1)
    80003962:	80db048b          	.insn	4, 0x80db048b
    80003966:	08f5057b          	.insn	4, 0x08f5057b
    8000396a:	6305                	lui	t1,0x1
    8000396c:	ed83031b          	addiw	t1,t1,-296 # ed8 <buflen.1+0xe98>
    80003970:	930a                	add	t1,t1,sp
    80003972:	00a33023          	sd	a0,0(t1)
    80003976:	79a8                	ld	a0,112(a1)
    80003978:	431d                	li	t1,7
    8000397a:	80d3048b          	.insn	4, 0x80d3048b
    8000397e:	0c5504fb          	.insn	4, 0x0c5504fb
    80003982:	6285                	lui	t0,0x1
    80003984:	ed02829b          	addiw	t0,t0,-304 # ed0 <buflen.1+0xe90>
    80003988:	928a                	add	t0,t0,sp
    8000398a:	0092b023          	sd	s1,0(t0)
    8000398e:	7da4                	ld	s1,120(a1)
    80003990:	0c95057b          	.insn	4, 0x0c95057b
    80003994:	6285                	lui	t0,0x1
    80003996:	ec82829b          	addiw	t0,t0,-312 # ec8 <buflen.1+0xe88>
    8000399a:	928a                	add	t0,t0,sp
    8000399c:	00a2b023          	sd	a0,0(t0)
    800039a0:	61c8                	ld	a0,128(a1)
    800039a2:	80d8040b          	.insn	4, 0x80d8040b
    800039a6:	4385                	li	t2,1
    800039a8:	00c5067b          	.insn	4, 0x00c5067b
    800039ac:	6805                	lui	a6,0x1
    800039ae:	ec08081b          	addiw	a6,a6,-320 # ec0 <buflen.1+0xe80>
    800039b2:	980a                	add	a6,a6,sp
    800039b4:	00c83023          	sd	a2,0(a6)
    800039b8:	65d0                	ld	a2,136(a1)
    800039ba:	80d8840b          	.insn	4, 0x80d8840b
    800039be:	4a89                	li	s5,2
    800039c0:	00c5057b          	.insn	4, 0x00c5057b
    800039c4:	6805                	lui	a6,0x1
    800039c6:	eb88081b          	addiw	a6,a6,-328 # eb8 <buflen.1+0xe78>
    800039ca:	980a                	add	a6,a6,sp
    800039cc:	00a83023          	sd	a0,0(a6)
    800039d0:	0905b283          	ld	t0,144(a1)
    800039d4:	80db840b          	.insn	4, 0x80db840b
    800039d8:	04e2857b          	.insn	4, 0x04e2857b
    800039dc:	6705                	lui	a4,0x1
    800039de:	eb07071b          	addiw	a4,a4,-336 # eb0 <buflen.1+0xe70>
    800039e2:	970a                	add	a4,a4,sp
    800039e4:	e308                	sd	a0,0(a4)
    800039e6:	0985b803          	ld	a6,152(a1)
    800039ea:	80df840b          	.insn	4, 0x80df840b
    800039ee:	0502857b          	.insn	4, 0x0502857b
    800039f2:	6705                	lui	a4,0x1
    800039f4:	ea87071b          	addiw	a4,a4,-344 # ea8 <buflen.1+0xe68>
    800039f8:	970a                	add	a4,a4,sp
    800039fa:	e308                	sd	a0,0(a4)
    800039fc:	0a05b883          	ld	a7,160(a1)
    80003a00:	80df070b          	.insn	4, 0x80df070b
    80003a04:	08f8857b          	.insn	4, 0x08f8857b
    80003a08:	6705                	lui	a4,0x1
    80003a0a:	ea07071b          	addiw	a4,a4,-352 # ea0 <buflen.1+0xe60>
    80003a0e:	970a                	add	a4,a4,sp
    80003a10:	e308                	sd	a0,0(a4)
    80003a12:	0a85be83          	ld	t4,168(a1)
    80003a16:	80db078b          	.insn	4, 0x80db078b
    80003a1a:	09d8857b          	.insn	4, 0x09d8857b
    80003a1e:	6705                	lui	a4,0x1
    80003a20:	e987071b          	addiw	a4,a4,-360 # e98 <buflen.1+0xe58>
    80003a24:	970a                	add	a4,a4,sp
    80003a26:	e308                	sd	a0,0(a4)
    80003a28:	0b05ba03          	ld	s4,176(a1)
    80003a2c:	80d3050b          	.insn	4, 0x80d3050b
    80003a30:	4c9d                	li	s9,7
    80003a32:	0c9a057b          	.insn	4, 0x0c9a057b
    80003a36:	6705                	lui	a4,0x1
    80003a38:	e907071b          	addiw	a4,a4,-368 # e90 <buflen.1+0xe50>
    80003a3c:	970a                	add	a4,a4,sp
    80003a3e:	e308                	sd	a0,0(a4)
    80003a40:	0b85be03          	ld	t3,184(a1)
    80003a44:	0dca057b          	.insn	4, 0x0dca057b
    80003a48:	6705                	lui	a4,0x1
    80003a4a:	e887071b          	addiw	a4,a4,-376 # e88 <buflen.1+0xe48>
    80003a4e:	970a                	add	a4,a4,sp
    80003a50:	e308                	sd	a0,0(a4)
    80003a52:	0c05b303          	ld	t1,192(a1)
    80003a56:	80d3848b          	.insn	4, 0x80d3848b
    80003a5a:	4c05                	li	s8,1
    80003a5c:	00c3057b          	.insn	4, 0x00c3057b
    80003a60:	6605                	lui	a2,0x1
    80003a62:	e786061b          	addiw	a2,a2,-392 # e78 <buflen.1+0xe38>
    80003a66:	960a                	add	a2,a2,sp
    80003a68:	e208                	sd	a0,0(a2)
    80003a6a:	1985b983          	ld	s3,408(a1)
    80003a6e:	6505                	lui	a0,0x1
    80003a70:	9a05051b          	addiw	a0,a0,-1632 # 9a0 <buflen.1+0x960>
    80003a74:	950a                	add	a0,a0,sp
    80003a76:	01353023          	sd	s3,0(a0)
    80003a7a:	1a05b903          	ld	s2,416(a1)
    80003a7e:	6505                	lui	a0,0x1
    80003a80:	9785051b          	addiw	a0,a0,-1672 # 978 <buflen.1+0x938>
    80003a84:	950a                	add	a0,a0,sp
    80003a86:	01253023          	sd	s2,0(a0)
    80003a8a:	1a85b383          	ld	t2,424(a1)
    80003a8e:	6505                	lui	a0,0x1
    80003a90:	f605051b          	addiw	a0,a0,-160 # f60 <buflen.1+0xf20>
    80003a94:	950a                	add	a0,a0,sp
    80003a96:	00753023          	sd	t2,0(a0)
    80003a9a:	1b05b703          	ld	a4,432(a1)
    80003a9e:	6505                	lui	a0,0x1
    80003aa0:	f685051b          	addiw	a0,a0,-152 # f68 <buflen.1+0xf28>
    80003aa4:	950a                	add	a0,a0,sp
    80003aa6:	e118                	sd	a4,0(a0)
    80003aa8:	1b85b483          	ld	s1,440(a1)
    80003aac:	6505                	lui	a0,0x1
    80003aae:	f705051b          	addiw	a0,a0,-144 # f70 <buflen.1+0xf30>
    80003ab2:	950a                	add	a0,a0,sp
    80003ab4:	e104                	sd	s1,0(a0)
    80003ab6:	1c05b783          	ld	a5,448(a1)
    80003aba:	6505                	lui	a0,0x1
    80003abc:	8b85051b          	addiw	a0,a0,-1864 # 8b8 <buflen.1+0x878>
    80003ac0:	950a                	add	a0,a0,sp
    80003ac2:	e11c                	sd	a5,0(a0)
    80003ac4:	1c85b503          	ld	a0,456(a1)
    80003ac8:	6605                	lui	a2,0x1
    80003aca:	f786061b          	addiw	a2,a2,-136 # f78 <buflen.1+0xf38>
    80003ace:	960a                	add	a2,a2,sp
    80003ad0:	e208                	sd	a0,0(a2)
    80003ad2:	1d05b403          	ld	s0,464(a1)
    80003ad6:	6605                	lui	a2,0x1
    80003ad8:	f806061b          	addiw	a2,a2,-128 # f80 <buflen.1+0xf40>
    80003adc:	960a                	add	a2,a2,sp
    80003ade:	e200                	sd	s0,0(a2)
    80003ae0:	80db860b          	.insn	4, 0x80db860b
    80003ae4:	4079060b          	.insn	4, 0x4079060b
    80003ae8:	6097060b          	.insn	4, 0x6097060b
    80003aec:	00a7860b          	.insn	4, 0x00a7860b
    80003af0:	0534057b          	.insn	4, 0x0534057b
    80003af4:	6605                	lui	a2,0x1
    80003af6:	ef86061b          	addiw	a2,a2,-264 # ef8 <buflen.1+0xeb8>
    80003afa:	960a                	add	a2,a2,sp
    80003afc:	e208                	sd	a0,0(a2)
    80003afe:	1585b903          	ld	s2,344(a1)
    80003b02:	6505                	lui	a0,0x1
    80003b04:	9f85051b          	addiw	a0,a0,-1544 # 9f8 <buflen.1+0x9b8>
    80003b08:	950a                	add	a0,a0,sp
    80003b0a:	01253023          	sd	s2,0(a0)
    80003b0e:	1605b383          	ld	t2,352(a1)
    80003b12:	6505                	lui	a0,0x1
    80003b14:	9d85051b          	addiw	a0,a0,-1576 # 9d8 <buflen.1+0x998>
    80003b18:	950a                	add	a0,a0,sp
    80003b1a:	00753023          	sd	t2,0(a0)
    80003b1e:	1685b603          	ld	a2,360(a1)
    80003b22:	6505                	lui	a0,0x1
    80003b24:	9585051b          	addiw	a0,a0,-1704 # 958 <buflen.1+0x918>
    80003b28:	950a                	add	a0,a0,sp
    80003b2a:	e110                	sd	a2,0(a0)
    80003b2c:	1705b783          	ld	a5,368(a1)
    80003b30:	6505                	lui	a0,0x1
    80003b32:	9c05051b          	addiw	a0,a0,-1600 # 9c0 <buflen.1+0x980>
    80003b36:	950a                	add	a0,a0,sp
    80003b38:	e11c                	sd	a5,0(a0)
    80003b3a:	1785b703          	ld	a4,376(a1)
    80003b3e:	6505                	lui	a0,0x1
    80003b40:	9605051b          	addiw	a0,a0,-1696 # 960 <buflen.1+0x920>
    80003b44:	950a                	add	a0,a0,sp
    80003b46:	e118                	sd	a4,0(a0)
    80003b48:	1805b403          	ld	s0,384(a1)
    80003b4c:	6505                	lui	a0,0x1
    80003b4e:	9a85051b          	addiw	a0,a0,-1624 # 9a8 <buflen.1+0x968>
    80003b52:	950a                	add	a0,a0,sp
    80003b54:	e100                	sd	s0,0(a0)
    80003b56:	1885b503          	ld	a0,392(a1)
    80003b5a:	6485                	lui	s1,0x1
    80003b5c:	9684849b          	addiw	s1,s1,-1688 # 968 <buflen.1+0x928>
    80003b60:	948a                	add	s1,s1,sp
    80003b62:	e088                	sd	a0,0(s1)
    80003b64:	1905b483          	ld	s1,400(a1)
    80003b68:	6985                	lui	s3,0x1
    80003b6a:	9909899b          	addiw	s3,s3,-1648 # 990 <buflen.1+0x950>
    80003b6e:	998a                	add	s3,s3,sp
    80003b70:	0099b023          	sd	s1,0(s3)
    80003b74:	40c3860b          	.insn	4, 0x40c3860b
    80003b78:	60e7860b          	.insn	4, 0x60e7860b
    80003b7c:	00a4060b          	.insn	4, 0x00a4060b
    80003b80:	0524857b          	.insn	4, 0x0524857b
    80003b84:	6605                	lui	a2,0x1
    80003b86:	e806061b          	addiw	a2,a2,-384 # e80 <buflen.1+0xe40>
    80003b8a:	960a                	add	a2,a2,sp
    80003b8c:	e208                	sd	a0,0(a2)
    80003b8e:	0c85b383          	ld	t2,200(a1)
    80003b92:	80da848b          	.insn	4, 0x80da848b
    80003b96:	4d09                	li	s10,2
    80003b98:	2102848b          	.insn	4, 0x2102848b
    80003b9c:	41d8848b          	.insn	4, 0x41d8848b
    80003ba0:	61ca078b          	.insn	4, 0x61ca078b
    80003ba4:	0073057b          	.insn	4, 0x0073057b
    80003ba8:	6605                	lui	a2,0x1
    80003baa:	e586061b          	addiw	a2,a2,-424 # e58 <buflen.1+0xe18>
    80003bae:	960a                	add	a2,a2,sp
    80003bb0:	e208                	sd	a0,0(a2)
    80003bb2:	0d05b903          	ld	s2,208(a1)
    80003bb6:	0d85b283          	ld	t0,216(a1)
    80003bba:	0e05b303          	ld	t1,224(a1)
    80003bbe:	80df050b          	.insn	4, 0x80df050b
    80003bc2:	2059050b          	.insn	4, 0x2059050b
    80003bc6:	09d3057b          	.insn	4, 0x09d3057b
    80003bca:	6605                	lui	a2,0x1
    80003bcc:	e506061b          	addiw	a2,a2,-432 # e50 <buflen.1+0xe10>
    80003bd0:	960a                	add	a2,a2,sp
    80003bd2:	e208                	sd	a0,0(a2)
    80003bd4:	80db850b          	.insn	4, 0x80db850b
    80003bd8:	2109050b          	.insn	4, 0x2109050b
    80003bdc:	09d8857b          	.insn	4, 0x09d8857b
    80003be0:	6605                	lui	a2,0x1
    80003be2:	e486061b          	addiw	a2,a2,-440 # e48 <buflen.1+0xe08>
    80003be6:	960a                	add	a2,a2,sp
    80003be8:	e208                	sd	a0,0(a2)
    80003bea:	80df850b          	.insn	4, 0x80df850b
    80003bee:	0459057b          	.insn	4, 0x0459057b
    80003bf2:	6605                	lui	a2,0x1
    80003bf4:	e406061b          	addiw	a2,a2,-448 # e40 <buflen.1+0xe00>
    80003bf8:	960a                	add	a2,a2,sp
    80003bfa:	e208                	sd	a0,0(a2)
    80003bfc:	0e85ba83          	ld	s5,232(a1)
    80003c00:	80db050b          	.insn	4, 0x80db050b
    80003c04:	0953057b          	.insn	4, 0x0953057b
    80003c08:	6605                	lui	a2,0x1
    80003c0a:	e386061b          	addiw	a2,a2,-456 # e38 <buflen.1+0xdf8>
    80003c0e:	960a                	add	a2,a2,sp
    80003c10:	e208                	sd	a0,0(a2)
    80003c12:	79f8                	ld	a4,240(a1)
    80003c14:	80dc850b          	.insn	4, 0x80dc850b
    80003c18:	0dc7057b          	.insn	4, 0x0dc7057b
    80003c1c:	6605                	lui	a2,0x1
    80003c1e:	e206061b          	addiw	a2,a2,-480 # e20 <buflen.1+0xde0>
    80003c22:	960a                	add	a2,a2,sp
    80003c24:	e208                	sd	a0,0(a2)
    80003c26:	7df0                	ld	a2,248(a1)
    80003c28:	0cc7057b          	.insn	4, 0x0cc7057b
    80003c2c:	88ba                	mv	a7,a4
    80003c2e:	8e32                	mv	t3,a2
    80003c30:	6705                	lui	a4,0x1
    80003c32:	e187071b          	addiw	a4,a4,-488 # e18 <buflen.1+0xdd8>
    80003c36:	970a                	add	a4,a4,sp
    80003c38:	e308                	sd	a0,0(a4)
    80003c3a:	1d85b803          	ld	a6,472(a1)
    80003c3e:	6505                	lui	a0,0x1
    80003c40:	8985051b          	addiw	a0,a0,-1896 # 898 <buflen.1+0x858>
    80003c44:	950a                	add	a0,a0,sp
    80003c46:	01053023          	sd	a6,0(a0)
    80003c4a:	1e05b083          	ld	ra,480(a1)
    80003c4e:	1e85bf83          	ld	t6,488(a1)
    80003c52:	1f05b783          	ld	a5,496(a1)
    80003c56:	6505                	lui	a0,0x1
    80003c58:	f585051b          	addiw	a0,a0,-168 # f58 <buflen.1+0xf18>
    80003c5c:	950a                	add	a0,a0,sp
    80003c5e:	e11c                	sd	a5,0(a0)
    80003c60:	1f85bf03          	ld	t5,504(a1)
    80003c64:	2005bd83          	ld	s11,512(a1)
    80003c68:	2085ba03          	ld	s4,520(a1)
    80003c6c:	2105b983          	ld	s3,528(a1)
    80003c70:	80db850b          	.insn	4, 0x80db850b
    80003c74:	41f0850b          	.insn	4, 0x41f0850b
    80003c78:	61e7850b          	.insn	4, 0x61e7850b
    80003c7c:	014d850b          	.insn	4, 0x014d850b
    80003c80:	6505                	lui	a0,0x1
    80003c82:	9205051b          	addiw	a0,a0,-1760 # 920 <buflen.1+0x8e0>
    80003c86:	950a                	add	a0,a0,sp
    80003c88:	01b53023          	sd	s11,0(a0)
    80003c8c:	6505                	lui	a0,0x1
    80003c8e:	9185051b          	addiw	a0,a0,-1768 # 918 <buflen.1+0x8d8>
    80003c92:	950a                	add	a0,a0,sp
    80003c94:	01453023          	sd	s4,0(a0)
    80003c98:	0509857b          	.insn	4, 0x0509857b
    80003c9c:	6705                	lui	a4,0x1
    80003c9e:	9307071b          	addiw	a4,a4,-1744 # 930 <buflen.1+0x8f0>
    80003ca2:	970a                	add	a4,a4,sp
    80003ca4:	01373023          	sd	s3,0(a4)
    80003ca8:	6705                	lui	a4,0x1
    80003caa:	e607071b          	addiw	a4,a4,-416 # e60 <buflen.1+0xe20>
    80003cae:	970a                	add	a4,a4,sp
    80003cb0:	e308                	sd	a0,0(a4)
    80003cb2:	1005b703          	ld	a4,256(a1)
    80003cb6:	80dc050b          	.insn	4, 0x80dc050b
    80003cba:	2059050b          	.insn	4, 0x2059050b
    80003cbe:	4153050b          	.insn	4, 0x4153050b
    80003cc2:	8946                	mv	s2,a7
    80003cc4:	60c8850b          	.insn	4, 0x60c8850b
    80003cc8:	8bb2                	mv	s7,a2
    80003cca:	0077057b          	.insn	4, 0x0077057b
    80003cce:	6605                	lui	a2,0x1
    80003cd0:	e006061b          	addiw	a2,a2,-512 # e00 <buflen.1+0xdc0>
    80003cd4:	960a                	add	a2,a2,sp
    80003cd6:	e208                	sd	a0,0(a2)
    80003cd8:	1085bb03          	ld	s6,264(a1)
    80003cdc:	80dd050b          	.insn	4, 0x80dd050b
    80003ce0:	0167057b          	.insn	4, 0x0167057b
    80003ce4:	8c3a                	mv	s8,a4
    80003ce6:	6605                	lui	a2,0x1
    80003ce8:	df86061b          	addiw	a2,a2,-520 # df8 <buflen.1+0xdb8>
    80003cec:	960a                	add	a2,a2,sp
    80003cee:	e208                	sd	a0,0(a2)
    80003cf0:	2605be03          	ld	t3,608(a1)
    80003cf4:	6505                	lui	a0,0x1
    80003cf6:	8f05051b          	addiw	a0,a0,-1808 # 8f0 <buflen.1+0x8b0>
    80003cfa:	950a                	add	a0,a0,sp
    80003cfc:	01c53023          	sd	t3,0(a0)
    80003d00:	2685b883          	ld	a7,616(a1)
    80003d04:	6505                	lui	a0,0x1
    80003d06:	8805051b          	addiw	a0,a0,-1920 # 880 <buflen.1+0x840>
    80003d0a:	950a                	add	a0,a0,sp
    80003d0c:	01153023          	sd	a7,0(a0)
    80003d10:	2705b383          	ld	t2,624(a1)
    80003d14:	6505                	lui	a0,0x1
    80003d16:	8e85051b          	addiw	a0,a0,-1816 # 8e8 <buflen.1+0x8a8>
    80003d1a:	950a                	add	a0,a0,sp
    80003d1c:	00753023          	sd	t2,0(a0)
    80003d20:	2785b783          	ld	a5,632(a1)
    80003d24:	6505                	lui	a0,0x1
    80003d26:	8905051b          	addiw	a0,a0,-1904 # 890 <buflen.1+0x850>
    80003d2a:	950a                	add	a0,a0,sp
    80003d2c:	e11c                	sd	a5,0(a0)
    80003d2e:	2805b483          	ld	s1,640(a1)
    80003d32:	6505                	lui	a0,0x1
    80003d34:	8e05051b          	addiw	a0,a0,-1824 # 8e0 <buflen.1+0x8a0>
    80003d38:	950a                	add	a0,a0,sp
    80003d3a:	e104                	sd	s1,0(a0)
    80003d3c:	2885b403          	ld	s0,648(a1)
    80003d40:	6505                	lui	a0,0x1
    80003d42:	8605051b          	addiw	a0,a0,-1952 # 860 <buflen.1+0x820>
    80003d46:	950a                	add	a0,a0,sp
    80003d48:	e100                	sd	s0,0(a0)
    80003d4a:	2905b603          	ld	a2,656(a1)
    80003d4e:	6505                	lui	a0,0x1
    80003d50:	8a85051b          	addiw	a0,a0,-1880 # 8a8 <buflen.1+0x868>
    80003d54:	950a                	add	a0,a0,sp
    80003d56:	e110                	sd	a2,0(a0)
    80003d58:	2985b703          	ld	a4,664(a1)
    80003d5c:	6505                	lui	a0,0x1
    80003d5e:	8505051b          	addiw	a0,a0,-1968 # 850 <buflen.1+0x810>
    80003d62:	950a                	add	a0,a0,sp
    80003d64:	e118                	sd	a4,0(a0)
    80003d66:	4811                	li	a6,4
    80003d68:	80d8050b          	.insn	4, 0x80d8050b
    80003d6c:	411e050b          	.insn	4, 0x411e050b
    80003d70:	60f3850b          	.insn	4, 0x60f3850b
    80003d74:	0084850b          	.insn	4, 0x0084850b
    80003d78:	04e6057b          	.insn	4, 0x04e6057b
    80003d7c:	6605                	lui	a2,0x1
    80003d7e:	e686061b          	addiw	a2,a2,-408 # e68 <buflen.1+0xe28>
    80003d82:	960a                	add	a2,a2,sp
    80003d84:	e208                	sd	a0,0(a2)
    80003d86:	1105be83          	ld	t4,272(a1)
    80003d8a:	488d                	li	a7,3
    80003d8c:	80d8850b          	.insn	4, 0x80d8850b
    80003d90:	4153050b          	.insn	4, 0x4153050b
    80003d94:	6179050b          	.insn	4, 0x6179050b
    80003d98:	6505                	lui	a0,0x1
    80003d9a:	a385051b          	addiw	a0,a0,-1480 # a38 <buflen.1+0x9f8>
    80003d9e:	950a                	add	a0,a0,sp
    80003da0:	01753023          	sd	s7,0(a0)
    80003da4:	6505                	lui	a0,0x1
    80003da6:	a485051b          	addiw	a0,a0,-1464 # a48 <buflen.1+0xa08>
    80003daa:	950a                	add	a0,a0,sp
    80003dac:	01253023          	sd	s2,0(a0)
    80003db0:	016c050b          	.insn	4, 0x016c050b
    80003db4:	6505                	lui	a0,0x1
    80003db6:	a205051b          	addiw	a0,a0,-1504 # a20 <buflen.1+0x9e0>
    80003dba:	950a                	add	a0,a0,sp
    80003dbc:	01653023          	sd	s6,0(a0)
    80003dc0:	6505                	lui	a0,0x1
    80003dc2:	a705051b          	addiw	a0,a0,-1424 # a70 <buflen.1+0xa30>
    80003dc6:	950a                	add	a0,a0,sp
    80003dc8:	01853023          	sd	s8,0(a0)
    80003dcc:	045e857b          	.insn	4, 0x045e857b
    80003dd0:	6605                	lui	a2,0x1
    80003dd2:	dd86061b          	addiw	a2,a2,-552 # dd8 <buflen.1+0xd98>
    80003dd6:	960a                	add	a2,a2,sp
    80003dd8:	e208                	sd	a0,0(a2)
    80003dda:	1185b603          	ld	a2,280(a1)
    80003dde:	6505                	lui	a0,0x1
    80003de0:	a085051b          	addiw	a0,a0,-1528 # a08 <buflen.1+0x9c8>
    80003de4:	950a                	add	a0,a0,sp
    80003de6:	e110                	sd	a2,0(a0)
    80003de8:	80d8050b          	.insn	4, 0x80d8050b
    80003dec:	04ce857b          	.insn	4, 0x04ce857b
    80003df0:	6605                	lui	a2,0x1
    80003df2:	a586061b          	addiw	a2,a2,-1448 # a58 <buflen.1+0xa18>
    80003df6:	960a                	add	a2,a2,sp
    80003df8:	01d63023          	sd	t4,0(a2)
    80003dfc:	6605                	lui	a2,0x1
    80003dfe:	dc06061b          	addiw	a2,a2,-576 # dc0 <buflen.1+0xd80>
    80003e02:	960a                	add	a2,a2,sp
    80003e04:	e208                	sd	a0,0(a2)
    80003e06:	6505                	lui	a0,0x1
    80003e08:	fb05051b          	addiw	a0,a0,-80 # fb0 <buflen.1+0xf70>
    80003e0c:	950a                	add	a0,a0,sp
    80003e0e:	6108                	ld	a0,0(a0)
    80003e10:	050d                	addi	a0,a0,3
    80003e12:	052a                	slli	a0,a0,0xa
    80003e14:	6605                	lui	a2,0x1
    80003e16:	fa86061b          	addiw	a2,a2,-88 # fa8 <buflen.1+0xf68>
    80003e1a:	960a                	add	a2,a2,sp
    80003e1c:	6210                	ld	a2,0(a2)
    80003e1e:	00a60433          	add	s0,a2,a0
    80003e22:	35843e03          	ld	t3,856(s0)
    80003e26:	36043383          	ld	t2,864(s0)
    80003e2a:	36843483          	ld	s1,872(s0)
    80003e2e:	37043283          	ld	t0,880(s0)
    80003e32:	6505                	lui	a0,0x1
    80003e34:	f885051b          	addiw	a0,a0,-120 # f88 <buflen.1+0xf48>
    80003e38:	950a                	add	a0,a0,sp
    80003e3a:	00553023          	sd	t0,0(a0)
    80003e3e:	37843783          	ld	a5,888(s0)
    80003e42:	6505                	lui	a0,0x1
    80003e44:	fa05051b          	addiw	a0,a0,-96 # fa0 <buflen.1+0xf60>
    80003e48:	950a                	add	a0,a0,sp
    80003e4a:	e11c                	sd	a5,0(a0)
    80003e4c:	38043803          	ld	a6,896(s0)
    80003e50:	6505                	lui	a0,0x1
    80003e52:	f985051b          	addiw	a0,a0,-104 # f98 <buflen.1+0xf58>
    80003e56:	950a                	add	a0,a0,sp
    80003e58:	01053023          	sd	a6,0(a0)
    80003e5c:	38843603          	ld	a2,904(s0)
    80003e60:	6505                	lui	a0,0x1
    80003e62:	f905051b          	addiw	a0,a0,-112 # f90 <buflen.1+0xf50>
    80003e66:	950a                	add	a0,a0,sp
    80003e68:	e110                	sd	a2,0(a0)
    80003e6a:	39043703          	ld	a4,912(s0)
    80003e6e:	fb3a                	sd	a4,432(sp)
    80003e70:	80d8850b          	.insn	4, 0x80d8850b
    80003e74:	4093850b          	.insn	4, 0x4093850b
    80003e78:	f31e                	sd	t2,416(sp)
    80003e7a:	f726                	sd	s1,424(sp)
    80003e7c:	60f2850b          	.insn	4, 0x60f2850b
    80003e80:	00c8050b          	.insn	4, 0x00c8050b
    80003e84:	05c7057b          	.insn	4, 0x05c7057b
    80003e88:	ef72                	sd	t3,408(sp)
    80003e8a:	6605                	lui	a2,0x1
    80003e8c:	f506061b          	addiw	a2,a2,-176 # f50 <buflen.1+0xf10>
    80003e90:	960a                	add	a2,a2,sp
    80003e92:	e208                	sd	a0,0(a2)
    80003e94:	3285b303          	ld	t1,808(a1)
    80003e98:	72613c23          	sd	t1,1848(sp)
    80003e9c:	3305b283          	ld	t0,816(a1)
    80003ea0:	74513423          	sd	t0,1864(sp)
    80003ea4:	3385b703          	ld	a4,824(a1)
    80003ea8:	6ee13823          	sd	a4,1776(sp)
    80003eac:	3405b883          	ld	a7,832(a1)
    80003eb0:	73113023          	sd	a7,1824(sp)
    80003eb4:	3485b603          	ld	a2,840(a1)
    80003eb8:	6ec13c23          	sd	a2,1784(sp)
    80003ebc:	3505b803          	ld	a6,848(a1)
    80003ec0:	6505                	lui	a0,0x1
    80003ec2:	8205051b          	addiw	a0,a0,-2016 # 820 <buflen.1+0x7e0>
    80003ec6:	950a                	add	a0,a0,sp
    80003ec8:	01053023          	sd	a6,0(a0)
    80003ecc:	3585bd03          	ld	s10,856(a1)
    80003ed0:	6505                	lui	a0,0x1
    80003ed2:	8485051b          	addiw	a0,a0,-1976 # 848 <buflen.1+0x808>
    80003ed6:	950a                	add	a0,a0,sp
    80003ed8:	01a53023          	sd	s10,0(a0)
    80003edc:	3605b783          	ld	a5,864(a1)
    80003ee0:	6505                	lui	a0,0x1
    80003ee2:	8685051b          	addiw	a0,a0,-1944 # 868 <buflen.1+0x828>
    80003ee6:	950a                	add	a0,a0,sp
    80003ee8:	e11c                	sd	a5,0(a0)
    80003eea:	4c95                	li	s9,5
    80003eec:	80dc850b          	.insn	4, 0x80dc850b
    80003ef0:	60e2850b          	.insn	4, 0x60e2850b
    80003ef4:	00c8850b          	.insn	4, 0x00c8850b
    80003ef8:	21a8050b          	.insn	4, 0x21a8050b
    80003efc:	0867857b          	.insn	4, 0x0867857b
    80003f00:	6605                	lui	a2,0x1
    80003f02:	e706061b          	addiw	a2,a2,-400 # e70 <buflen.1+0xe30>
    80003f06:	960a                	add	a2,a2,sp
    80003f08:	e208                	sd	a0,0(a2)
    80003f0a:	2185b603          	ld	a2,536(a1)
    80003f0e:	6505                	lui	a0,0x1
    80003f10:	8c85051b          	addiw	a0,a0,-1848 # 8c8 <buflen.1+0x888>
    80003f14:	950a                	add	a0,a0,sp
    80003f16:	e110                	sd	a2,0(a0)
    80003f18:	4511                	li	a0,4
    80003f1a:	80d5050b          	.insn	4, 0x80d5050b
    80003f1e:	6505                	lui	a0,0x1
    80003f20:	9505051b          	addiw	a0,a0,-1712 # 950 <buflen.1+0x910>
    80003f24:	950a                	add	a0,a0,sp
    80003f26:	01f53023          	sd	t6,0(a0)
    80003f2a:	41f0850b          	.insn	4, 0x41f0850b
    80003f2e:	6505                	lui	a0,0x1
    80003f30:	9385051b          	addiw	a0,a0,-1736 # 938 <buflen.1+0x8f8>
    80003f34:	950a                	add	a0,a0,sp
    80003f36:	01e53023          	sd	t5,0(a0)
    80003f3a:	6505                	lui	a0,0x1
    80003f3c:	f585051b          	addiw	a0,a0,-168 # f58 <buflen.1+0xf18>
    80003f40:	950a                	add	a0,a0,sp
    80003f42:	6108                	ld	a0,0(a0)
    80003f44:	61e5050b          	.insn	4, 0x61e5050b
    80003f48:	014d850b          	.insn	4, 0x014d850b
    80003f4c:	04c9857b          	.insn	4, 0x04c9857b
    80003f50:	6605                	lui	a2,0x1
    80003f52:	db06061b          	addiw	a2,a2,-592 # db0 <buflen.1+0xd70>
    80003f56:	960a                	add	a2,a2,sp
    80003f58:	e208                	sd	a0,0(a2)
    80003f5a:	2205b603          	ld	a2,544(a1)
    80003f5e:	6505                	lui	a0,0x1
    80003f60:	9005051b          	addiw	a0,a0,-1792 # 900 <buflen.1+0x8c0>
    80003f64:	950a                	add	a0,a0,sp
    80003f66:	e110                	sd	a2,0(a0)
    80003f68:	80dc850b          	.insn	4, 0x80dc850b
    80003f6c:	4c95                	li	s9,5
    80003f6e:	09f6057b          	.insn	4, 0x09f6057b
    80003f72:	6705                	lui	a4,0x1
    80003f74:	da07071b          	addiw	a4,a4,-608 # da0 <buflen.1+0xd60>
    80003f78:	970a                	add	a4,a4,sp
    80003f7a:	e308                	sd	a0,0(a4)
    80003f7c:	2285ba03          	ld	s4,552(a1)
    80003f80:	4f99                	li	t6,6
    80003f82:	80df850b          	.insn	4, 0x80df850b
    80003f86:	0946057b          	.insn	4, 0x0946057b
    80003f8a:	6605                	lui	a2,0x1
    80003f8c:	d906061b          	addiw	a2,a2,-624 # d90 <buflen.1+0xd50>
    80003f90:	960a                	add	a2,a2,sp
    80003f92:	e208                	sd	a0,0(a2)
    80003f94:	2305b603          	ld	a2,560(a1)
    80003f98:	6505                	lui	a0,0x1
    80003f9a:	8d05051b          	addiw	a0,a0,-1840 # 8d0 <buflen.1+0x890>
    80003f9e:	950a                	add	a0,a0,sp
    80003fa0:	e110                	sd	a2,0(a0)
    80003fa2:	499d                	li	s3,7
    80003fa4:	80d9850b          	.insn	4, 0x80d9850b
    80003fa8:	0de6057b          	.insn	4, 0x0de6057b
    80003fac:	6705                	lui	a4,0x1
    80003fae:	d807071b          	addiw	a4,a4,-640 # d80 <buflen.1+0xd40>
    80003fb2:	970a                	add	a4,a4,sp
    80003fb4:	e308                	sd	a0,0(a4)
    80003fb6:	2385b503          	ld	a0,568(a1)
    80003fba:	6705                	lui	a4,0x1
    80003fbc:	8b07071b          	addiw	a4,a4,-1872 # 8b0 <buflen.1+0x870>
    80003fc0:	970a                	add	a4,a4,sp
    80003fc2:	e308                	sd	a0,0(a4)
    80003fc4:	0ca6057b          	.insn	4, 0x0ca6057b
    80003fc8:	6605                	lui	a2,0x1
    80003fca:	d706061b          	addiw	a2,a2,-656 # d70 <buflen.1+0xd30>
    80003fce:	960a                	add	a2,a2,sp
    80003fd0:	e208                	sd	a0,0(a2)
    80003fd2:	1205bf03          	ld	t5,288(a1)
    80003fd6:	80dc850b          	.insn	4, 0x80dc850b
    80003fda:	6179050b          	.insn	4, 0x6179050b
    80003fde:	016c050b          	.insn	4, 0x016c050b
    80003fe2:	6505                	lui	a0,0x1
    80003fe4:	a085051b          	addiw	a0,a0,-1528 # a08 <buflen.1+0x9c8>
    80003fe8:	950a                	add	a0,a0,sp
    80003fea:	00053b03          	ld	s6,0(a0)
    80003fee:	216e850b          	.insn	4, 0x216e850b
    80003ff2:	095f057b          	.insn	4, 0x095f057b
    80003ff6:	6605                	lui	a2,0x1
    80003ff8:	cb86061b          	addiw	a2,a2,-840 # cb8 <buflen.1+0xc78>
    80003ffc:	960a                	add	a2,a2,sp
    80003ffe:	e208                	sd	a0,0(a2)
    80004000:	3705be83          	ld	t4,880(a1)
    80004004:	6bd13023          	sd	t4,1696(sp)
    80004008:	3785b303          	ld	t1,888(a1)
    8000400c:	ee9a                	sd	t1,344(sp)
    8000400e:	3805b283          	ld	t0,896(a1)
    80004012:	6a513823          	sd	t0,1712(sp)
    80004016:	3885b803          	ld	a6,904(a1)
    8000401a:	67013423          	sd	a6,1640(sp)
    8000401e:	3905b883          	ld	a7,912(a1)
    80004022:	69113c23          	sd	a7,1688(sp)
    80004026:	3985b703          	ld	a4,920(a1)
    8000402a:	66e13023          	sd	a4,1632(sp)
    8000402e:	3a05b783          	ld	a5,928(a1)
    80004032:	68f13023          	sd	a5,1664(sp)
    80004036:	3a85b603          	ld	a2,936(a1)
    8000403a:	64c13c23          	sd	a2,1624(sp)
    8000403e:	80df850b          	.insn	4, 0x80df850b
    80004042:	4f99                	li	t6,6
    80004044:	606e850b          	.insn	4, 0x606e850b
    80004048:	0102850b          	.insn	4, 0x0102850b
    8000404c:	20e8850b          	.insn	4, 0x20e8850b
    80004050:	08c7857b          	.insn	4, 0x08c7857b
    80004054:	6605                	lui	a2,0x1
    80004056:	e306061b          	addiw	a2,a2,-464 # e30 <buflen.1+0xdf0>
    8000405a:	960a                	add	a2,a2,sp
    8000405c:	e208                	sd	a0,0(a2)
    8000405e:	3b05b803          	ld	a6,944(a1)
    80004062:	67013c23          	sd	a6,1656(sp)
    80004066:	3b85b783          	ld	a5,952(a1)
    8000406a:	f2be                	sd	a5,352(sp)
    8000406c:	3c05b703          	ld	a4,960(a1)
    80004070:	64e13023          	sd	a4,1600(sp)
    80004074:	3c85b603          	ld	a2,968(a1)
    80004078:	66c13823          	sd	a2,1648(sp)
    8000407c:	4b89                	li	s7,2
    8000407e:	80db850b          	.insn	4, 0x80db850b
    80004082:	60f8050b          	.insn	4, 0x60f8050b
    80004086:	00c7057b          	.insn	4, 0x00c7057b
    8000408a:	6605                	lui	a2,0x1
    8000408c:	e286061b          	addiw	a2,a2,-472 # e28 <buflen.1+0xde8>
    80004090:	960a                	add	a2,a2,sp
    80004092:	e208                	sd	a0,0(a2)
    80004094:	3d05b283          	ld	t0,976(a1)
    80004098:	5a513c23          	sd	t0,1464(sp)
    8000409c:	3d85b883          	ld	a7,984(a1)
    800040a0:	5f113c23          	sd	a7,1528(sp)
    800040a4:	3e05b803          	ld	a6,992(a1)
    800040a8:	63013023          	sd	a6,1568(sp)
    800040ac:	3e85b703          	ld	a4,1000(a1)
    800040b0:	62e13423          	sd	a4,1576(sp)
    800040b4:	3f05b603          	ld	a2,1008(a1)
    800040b8:	64c13823          	sd	a2,1616(sp)
    800040bc:	80d9850b          	.insn	4, 0x80d9850b
    800040c0:	491d                	li	s2,7
    800040c2:	2112850b          	.insn	4, 0x2112850b
    800040c6:	40e8050b          	.insn	4, 0x40e8050b
    800040ca:	0cf6057b          	.insn	4, 0x0cf6057b
    800040ce:	6605                	lui	a2,0x1
    800040d0:	e106061b          	addiw	a2,a2,-496 # e10 <buflen.1+0xdd0>
    800040d4:	960a                	add	a2,a2,sp
    800040d6:	e208                	sd	a0,0(a2)
    800040d8:	01843803          	ld	a6,24(s0)
    800040dc:	5f013823          	sd	a6,1520(sp)
    800040e0:	02043303          	ld	t1,32(s0)
    800040e4:	5e613023          	sd	t1,1504(sp)
    800040e8:	02843883          	ld	a7,40(s0)
    800040ec:	f6c6                	sd	a7,360(sp)
    800040ee:	03043e83          	ld	t4,48(s0)
    800040f2:	5dd13c23          	sd	t4,1496(sp)
    800040f6:	03843283          	ld	t0,56(s0)
    800040fa:	5a513423          	sd	t0,1448(sp)
    800040fe:	6038                	ld	a4,64(s0)
    80004100:	60e13823          	sd	a4,1552(sp)
    80004104:	6430                	ld	a2,72(s0)
    80004106:	5cc13023          	sd	a2,1472(sp)
    8000410a:	683c                	ld	a5,80(s0)
    8000410c:	60f13423          	sd	a5,1544(sp)
    80004110:	450d                	li	a0,3
    80004112:	80d5050b          	.insn	4, 0x80d5050b
    80004116:	4113050b          	.insn	4, 0x4113050b
    8000411a:	605e850b          	.insn	4, 0x605e850b
    8000411e:	00c7050b          	.insn	4, 0x00c7050b
    80004122:	0507857b          	.insn	4, 0x0507857b
    80004126:	6605                	lui	a2,0x1
    80004128:	e086061b          	addiw	a2,a2,-504 # e08 <buflen.1+0xdc8>
    8000412c:	960a                	add	a2,a2,sp
    8000412e:	e208                	sd	a0,0(a2)
    80004130:	80dc850b          	.insn	4, 0x80dc850b
    80004134:	6505                	lui	a0,0x1
    80004136:	f705051b          	addiw	a0,a0,-144 # f70 <buflen.1+0xf30>
    8000413a:	950a                	add	a0,a0,sp
    8000413c:	6108                	ld	a0,0(a0)
    8000413e:	6605                	lui	a2,0x1
    80004140:	f686061b          	addiw	a2,a2,-152 # f68 <buflen.1+0xf28>
    80004144:	960a                	add	a2,a2,sp
    80004146:	6210                	ld	a2,0(a2)
    80004148:	60a6050b          	.insn	4, 0x60a6050b
    8000414c:	6505                	lui	a0,0x1
    8000414e:	f785051b          	addiw	a0,a0,-136 # f78 <buflen.1+0xf38>
    80004152:	950a                	add	a0,a0,sp
    80004154:	6108                	ld	a0,0(a0)
    80004156:	6605                	lui	a2,0x1
    80004158:	8b86061b          	addiw	a2,a2,-1864 # 8b8 <buflen.1+0x878>
    8000415c:	960a                	add	a2,a2,sp
    8000415e:	00063983          	ld	s3,0(a2)
    80004162:	00a9850b          	.insn	4, 0x00a9850b
    80004166:	6505                	lui	a0,0x1
    80004168:	f805051b          	addiw	a0,a0,-128 # f80 <buflen.1+0xf40>
    8000416c:	950a                	add	a0,a0,sp
    8000416e:	6108                	ld	a0,0(a0)
    80004170:	6605                	lui	a2,0x1
    80004172:	8986061b          	addiw	a2,a2,-1896 # 898 <buflen.1+0x858>
    80004176:	960a                	add	a2,a2,sp
    80004178:	00063a83          	ld	s5,0(a2)
    8000417c:	2155050b          	.insn	4, 0x2155050b
    80004180:	6505                	lui	a0,0x1
    80004182:	f605051b          	addiw	a0,a0,-160 # f60 <buflen.1+0xf20>
    80004186:	950a                	add	a0,a0,sp
    80004188:	6108                	ld	a0,0(a0)
    8000418a:	08a0857b          	.insn	4, 0x08a0857b
    8000418e:	6605                	lui	a2,0x1
    80004190:	c506061b          	addiw	a2,a2,-944 # c50 <buflen.1+0xc10>
    80004194:	960a                	add	a2,a2,sp
    80004196:	e208                	sd	a0,0(a2)
    80004198:	33043783          	ld	a5,816(s0)
    8000419c:	e33e                	sd	a5,384(sp)
    8000419e:	33843d03          	ld	s10,824(s0)
    800041a2:	34043803          	ld	a6,832(s0)
    800041a6:	34843703          	ld	a4,840(s0)
    800041aa:	e73a                	sd	a4,392(sp)
    800041ac:	35043603          	ld	a2,848(s0)
    800041b0:	eb32                	sd	a2,400(sp)
    800041b2:	80df850b          	.insn	4, 0x80df850b
    800041b6:	4093850b          	.insn	4, 0x4093850b
    800041ba:	61a7850b          	.insn	4, 0x61a7850b
    800041be:	faea                	sd	s10,368(sp)
    800041c0:	00e8050b          	.insn	4, 0x00e8050b
    800041c4:	fec2                	sd	a6,376(sp)
    800041c6:	05c6057b          	.insn	4, 0x05c6057b
    800041ca:	6605                	lui	a2,0x1
    800041cc:	f406061b          	addiw	a2,a2,-192 # f40 <buflen.1+0xf00>
    800041d0:	960a                	add	a2,a2,sp
    800041d2:	e208                	sd	a0,0(a2)
    800041d4:	6505                	lui	a0,0x1
    800041d6:	f885051b          	addiw	a0,a0,-120 # f88 <buflen.1+0xf48>
    800041da:	950a                	add	a0,a0,sp
    800041dc:	00053283          	ld	t0,0(a0)
    800041e0:	6505                	lui	a0,0x1
    800041e2:	fa05051b          	addiw	a0,a0,-96 # fa0 <buflen.1+0xf60>
    800041e6:	950a                	add	a0,a0,sp
    800041e8:	6108                	ld	a0,0(a0)
    800041ea:	0ca2857b          	.insn	4, 0x0ca2857b
    800041ee:	6605                	lui	a2,0x1
    800041f0:	f486061b          	addiw	a2,a2,-184 # f48 <buflen.1+0xf08>
    800041f4:	960a                	add	a2,a2,sp
    800041f6:	e208                	sd	a0,0(a2)
    800041f8:	4505                	li	a0,1
    800041fa:	80d5050b          	.insn	4, 0x80d5050b
    800041fe:	6505                	lui	a0,0x1
    80004200:	f985051b          	addiw	a0,a0,-104 # f98 <buflen.1+0xf58>
    80004204:	950a                	add	a0,a0,sp
    80004206:	00053303          	ld	t1,0(a0)
    8000420a:	00e3057b          	.insn	4, 0x00e3057b
    8000420e:	6605                	lui	a2,0x1
    80004210:	f386061b          	addiw	a2,a2,-200 # f38 <buflen.1+0xef8>
    80004214:	960a                	add	a2,a2,sp
    80004216:	e208                	sd	a0,0(a2)
    80004218:	80db850b          	.insn	4, 0x80db850b
    8000421c:	6505                	lui	a0,0x1
    8000421e:	f905051b          	addiw	a0,a0,-112 # f90 <buflen.1+0xf50>
    80004222:	950a                	add	a0,a0,sp
    80004224:	6108                	ld	a0,0(a0)
    80004226:	00a3057b          	.insn	4, 0x00a3057b
    8000422a:	6605                	lui	a2,0x1
    8000422c:	f306061b          	addiw	a2,a2,-208 # f30 <buflen.1+0xef0>
    80004230:	960a                	add	a2,a2,sp
    80004232:	e208                	sd	a0,0(a2)
    80004234:	80d9050b          	.insn	4, 0x80d9050b
    80004238:	61a2850b          	.insn	4, 0x61a2850b
    8000423c:	00e8057b          	.insn	4, 0x00e8057b
    80004240:	6605                	lui	a2,0x1
    80004242:	f186061b          	addiw	a2,a2,-232 # f18 <buflen.1+0xed8>
    80004246:	960a                	add	a2,a2,sp
    80004248:	e208                	sd	a0,0(a2)
    8000424a:	06043303          	ld	t1,96(s0)
    8000424e:	fe1a                	sd	t1,312(sp)
    80004250:	7424                	ld	s1,104(s0)
    80004252:	fa26                	sd	s1,304(sp)
    80004254:	07043283          	ld	t0,112(s0)
    80004258:	e296                	sd	t0,320(sp)
    8000425a:	7c3c                	ld	a5,120(s0)
    8000425c:	08043883          	ld	a7,128(s0)
    80004260:	e6c6                	sd	a7,328(sp)
    80004262:	6448                	ld	a0,136(s0)
    80004264:	6858                	ld	a4,144(s0)
    80004266:	eaba                	sd	a4,336(sp)
    80004268:	09843803          	ld	a6,152(s0)
    8000426c:	4e11                	li	t3,4
    8000426e:	80de060b          	.insn	4, 0x80de060b
    80004272:	4093060b          	.insn	4, 0x4093060b
    80004276:	60f2860b          	.insn	4, 0x60f2860b
    8000427a:	833e                	mv	t1,a5
    8000427c:	f63e                	sd	a5,296(sp)
    8000427e:	00a8860b          	.insn	4, 0x00a8860b
    80004282:	82aa                	mv	t0,a0
    80004284:	f22a                	sd	a0,288(sp)
    80004286:	0507057b          	.insn	4, 0x0507057b
    8000428a:	6605                	lui	a2,0x1
    8000428c:	df06061b          	addiw	a2,a2,-528 # df0 <buflen.1+0xdb0>
    80004290:	960a                	add	a2,a2,sp
    80004292:	e208                	sd	a0,0(a2)
    80004294:	7050                	ld	a2,160(s0)
    80004296:	80dc870b          	.insn	4, 0x80dc870b
    8000429a:	0896057b          	.insn	4, 0x0896057b
    8000429e:	6705                	lui	a4,0x1
    800042a0:	de87071b          	addiw	a4,a4,-536 # de8 <buflen.1+0xda8>
    800042a4:	970a                	add	a4,a4,sp
    800042a6:	e308                	sd	a0,0(a4)
    800042a8:	7458                	ld	a4,168(s0)
    800042aa:	80df878b          	.insn	4, 0x80df878b
    800042ae:	08e6057b          	.insn	4, 0x08e6057b
    800042b2:	6605                	lui	a2,0x1
    800042b4:	de06061b          	addiw	a2,a2,-544 # de0 <buflen.1+0xda0>
    800042b8:	960a                	add	a2,a2,sp
    800042ba:	e208                	sd	a0,0(a2)
    800042bc:	7850                	ld	a2,176(s0)
    800042be:	439d                	li	t2,7
    800042c0:	80d3878b          	.insn	4, 0x80d3878b
    800042c4:	0c66057b          	.insn	4, 0x0c66057b
    800042c8:	6785                	lui	a5,0x1
    800042ca:	dd07879b          	addiw	a5,a5,-560 # dd0 <buflen.1+0xd90>
    800042ce:	978a                	add	a5,a5,sp
    800042d0:	e388                	sd	a0,0(a5)
    800042d2:	7c5c                	ld	a5,184(s0)
    800042d4:	0cf6057b          	.insn	4, 0x0cf6057b
    800042d8:	6605                	lui	a2,0x1
    800042da:	dc86061b          	addiw	a2,a2,-568 # dc8 <buflen.1+0xd88>
    800042de:	960a                	add	a2,a2,sp
    800042e0:	e208                	sd	a0,0(a2)
    800042e2:	6070                	ld	a2,192(s0)
    800042e4:	4885                	li	a7,1
    800042e6:	80d8848b          	.insn	4, 0x80d8848b
    800042ea:	0056057b          	.insn	4, 0x0056057b
    800042ee:	6285                	lui	t0,0x1
    800042f0:	db82829b          	addiw	t0,t0,-584 # db8 <buflen.1+0xd78>
    800042f4:	928a                	add	t0,t0,sp
    800042f6:	00a2b023          	sd	a0,0(t0)
    800042fa:	6464                	ld	s1,200(s0)
    800042fc:	4309                	li	t1,2
    800042fe:	80d3050b          	.insn	4, 0x80d3050b
    80004302:	0096057b          	.insn	4, 0x0096057b
    80004306:	6605                	lui	a2,0x1
    80004308:	da86061b          	addiw	a2,a2,-600 # da8 <buflen.1+0xd68>
    8000430c:	960a                	add	a2,a2,sp
    8000430e:	e208                	sd	a0,0(a2)
    80004310:	6868                	ld	a0,208(s0)
    80004312:	4e8d                	li	t4,3
    80004314:	80de860b          	.insn	4, 0x80de860b
    80004318:	0505067b          	.insn	4, 0x0505067b
    8000431c:	6805                	lui	a6,0x1
    8000431e:	d988081b          	addiw	a6,a6,-616 # d98 <buflen.1+0xd58>
    80004322:	980a                	add	a6,a6,sp
    80004324:	00c83023          	sd	a2,0(a6)
    80004328:	0d843803          	ld	a6,216(s0)
    8000432c:	80de060b          	.insn	4, 0x80de060b
    80004330:	4911                	li	s2,4
    80004332:	0505057b          	.insn	4, 0x0505057b
    80004336:	6605                	lui	a2,0x1
    80004338:	d886061b          	addiw	a2,a2,-632 # d88 <buflen.1+0xd48>
    8000433c:	960a                	add	a2,a2,sp
    8000433e:	e208                	sd	a0,0(a2)
    80004340:	7068                	ld	a0,224(s0)
    80004342:	80dc860b          	.insn	4, 0x80dc860b
    80004346:	08e5067b          	.insn	4, 0x08e5067b
    8000434a:	6705                	lui	a4,0x1
    8000434c:	d787071b          	addiw	a4,a4,-648 # d78 <buflen.1+0xd38>
    80004350:	970a                	add	a4,a4,sp
    80004352:	e310                	sd	a2,0(a4)
    80004354:	0e843283          	ld	t0,232(s0)
    80004358:	80df870b          	.insn	4, 0x80df870b
    8000435c:	0855057b          	.insn	4, 0x0855057b
    80004360:	6605                	lui	a2,0x1
    80004362:	d686061b          	addiw	a2,a2,-664 # d68 <buflen.1+0xd28>
    80004366:	960a                	add	a2,a2,sp
    80004368:	e208                	sd	a0,0(a2)
    8000436a:	7868                	ld	a0,240(s0)
    8000436c:	80d3870b          	.insn	4, 0x80d3870b
    80004370:	4d9d                	li	s11,7
    80004372:	0cf5067b          	.insn	4, 0x0cf5067b
    80004376:	6705                	lui	a4,0x1
    80004378:	d607071b          	addiw	a4,a4,-672 # d60 <buflen.1+0xd20>
    8000437c:	970a                	add	a4,a4,sp
    8000437e:	e310                	sd	a2,0(a4)
    80004380:	7c78                	ld	a4,248(s0)
    80004382:	0ce5057b          	.insn	4, 0x0ce5057b
    80004386:	6605                	lui	a2,0x1
    80004388:	d586061b          	addiw	a2,a2,-680 # d58 <buflen.1+0xd18>
    8000438c:	960a                	add	a2,a2,sp
    8000438e:	e208                	sd	a0,0(a2)
    80004390:	10043503          	ld	a0,256(s0)
    80004394:	80d8878b          	.insn	4, 0x80d8878b
    80004398:	4885                	li	a7,1
    8000439a:	0095067b          	.insn	4, 0x0095067b
    8000439e:	6785                	lui	a5,0x1
    800043a0:	d507879b          	addiw	a5,a5,-688 # d50 <buflen.1+0xd10>
    800043a4:	978a                	add	a5,a5,sp
    800043a6:	e390                	sd	a2,0(a5)
    800043a8:	10843783          	ld	a5,264(s0)
    800043ac:	80d3048b          	.insn	4, 0x80d3048b
    800043b0:	4c09                	li	s8,2
    800043b2:	00f5057b          	.insn	4, 0x00f5057b
    800043b6:	6605                	lui	a2,0x1
    800043b8:	d486061b          	addiw	a2,a2,-696 # d48 <buflen.1+0xd08>
    800043bc:	960a                	add	a2,a2,sp
    800043be:	e208                	sd	a0,0(a2)
    800043c0:	11043503          	ld	a0,272(s0)
    800043c4:	80de848b          	.insn	4, 0x80de848b
    800043c8:	4e8d                	li	t4,3
    800043ca:	0505067b          	.insn	4, 0x0505067b
    800043ce:	6805                	lui	a6,0x1
    800043d0:	d408081b          	addiw	a6,a6,-704 # d40 <buflen.1+0xd00>
    800043d4:	980a                	add	a6,a6,sp
    800043d6:	00c83023          	sd	a2,0(a6)
    800043da:	11843483          	ld	s1,280(s0)
    800043de:	80d9060b          	.insn	4, 0x80d9060b
    800043e2:	0495057b          	.insn	4, 0x0495057b
    800043e6:	6605                	lui	a2,0x1
    800043e8:	d386061b          	addiw	a2,a2,-712 # d38 <buflen.1+0xcf8>
    800043ec:	960a                	add	a2,a2,sp
    800043ee:	e208                	sd	a0,0(a2)
    800043f0:	12043503          	ld	a0,288(s0)
    800043f4:	80dc860b          	.insn	4, 0x80dc860b
    800043f8:	0855067b          	.insn	4, 0x0855067b
    800043fc:	6805                	lui	a6,0x1
    800043fe:	d308081b          	addiw	a6,a6,-720 # d30 <buflen.1+0xcf0>
    80004402:	980a                	add	a6,a6,sp
    80004404:	00c83023          	sd	a2,0(a6)
    80004408:	12843803          	ld	a6,296(s0)
    8000440c:	80df860b          	.insn	4, 0x80df860b
    80004410:	0905057b          	.insn	4, 0x0905057b
    80004414:	6605                	lui	a2,0x1
    80004416:	d286061b          	addiw	a2,a2,-728 # d28 <buflen.1+0xce8>
    8000441a:	960a                	add	a2,a2,sp
    8000441c:	e208                	sd	a0,0(a2)
    8000441e:	13043503          	ld	a0,304(s0)
    80004422:	80dd860b          	.insn	4, 0x80dd860b
    80004426:	0ce5067b          	.insn	4, 0x0ce5067b
    8000442a:	6705                	lui	a4,0x1
    8000442c:	d207071b          	addiw	a4,a4,-736 # d20 <buflen.1+0xce0>
    80004430:	970a                	add	a4,a4,sp
    80004432:	e310                	sd	a2,0(a4)
    80004434:	13843283          	ld	t0,312(s0)
    80004438:	0c55057b          	.insn	4, 0x0c55057b
    8000443c:	6605                	lui	a2,0x1
    8000443e:	d186061b          	addiw	a2,a2,-744 # d18 <buflen.1+0xcd8>
    80004442:	960a                	add	a2,a2,sp
    80004444:	e208                	sd	a0,0(a2)
    80004446:	14043503          	ld	a0,320(s0)
    8000444a:	80d8870b          	.insn	4, 0x80d8870b
    8000444e:	00f5067b          	.insn	4, 0x00f5067b
    80004452:	6705                	lui	a4,0x1
    80004454:	d107071b          	addiw	a4,a4,-752 # d10 <buflen.1+0xcd0>
    80004458:	970a                	add	a4,a4,sp
    8000445a:	e310                	sd	a2,0(a4)
    8000445c:	14843703          	ld	a4,328(s0)
    80004460:	80dc078b          	.insn	4, 0x80dc078b
    80004464:	00e5057b          	.insn	4, 0x00e5057b
    80004468:	6605                	lui	a2,0x1
    8000446a:	d086061b          	addiw	a2,a2,-760 # d08 <buflen.1+0xcc8>
    8000446e:	960a                	add	a2,a2,sp
    80004470:	e208                	sd	a0,0(a2)
    80004472:	15043503          	ld	a0,336(s0)
    80004476:	80de878b          	.insn	4, 0x80de878b
    8000447a:	0495067b          	.insn	4, 0x0495067b
    8000447e:	6785                	lui	a5,0x1
    80004480:	d007879b          	addiw	a5,a5,-768 # d00 <buflen.1+0xcc0>
    80004484:	978a                	add	a5,a5,sp
    80004486:	e390                	sd	a2,0(a5)
    80004488:	15843783          	ld	a5,344(s0)
    8000448c:	80d9048b          	.insn	4, 0x80d9048b
    80004490:	04f5057b          	.insn	4, 0x04f5057b
    80004494:	6605                	lui	a2,0x1
    80004496:	cf86061b          	addiw	a2,a2,-776 # cf8 <buflen.1+0xcb8>
    8000449a:	960a                	add	a2,a2,sp
    8000449c:	e208                	sd	a0,0(a2)
    8000449e:	16043503          	ld	a0,352(s0)
    800044a2:	80dc848b          	.insn	4, 0x80dc848b
    800044a6:	0905067b          	.insn	4, 0x0905067b
    800044aa:	6805                	lui	a6,0x1
    800044ac:	cf08081b          	addiw	a6,a6,-784 # cf0 <buflen.1+0xcb0>
    800044b0:	980a                	add	a6,a6,sp
    800044b2:	00c83023          	sd	a2,0(a6)
    800044b6:	16843483          	ld	s1,360(s0)
    800044ba:	80df860b          	.insn	4, 0x80df860b
    800044be:	0895057b          	.insn	4, 0x0895057b
    800044c2:	6605                	lui	a2,0x1
    800044c4:	ce86061b          	addiw	a2,a2,-792 # ce8 <buflen.1+0xca8>
    800044c8:	960a                	add	a2,a2,sp
    800044ca:	e208                	sd	a0,0(a2)
    800044cc:	17043503          	ld	a0,368(s0)
    800044d0:	80dd860b          	.insn	4, 0x80dd860b
    800044d4:	0c55067b          	.insn	4, 0x0c55067b
    800044d8:	6805                	lui	a6,0x1
    800044da:	ce08081b          	addiw	a6,a6,-800 # ce0 <buflen.1+0xca0>
    800044de:	980a                	add	a6,a6,sp
    800044e0:	00c83023          	sd	a2,0(a6)
    800044e4:	17843803          	ld	a6,376(s0)
    800044e8:	0d05057b          	.insn	4, 0x0d05057b
    800044ec:	6605                	lui	a2,0x1
    800044ee:	cd86061b          	addiw	a2,a2,-808 # cd8 <buflen.1+0xc98>
    800044f2:	960a                	add	a2,a2,sp
    800044f4:	e208                	sd	a0,0(a2)
    800044f6:	18043503          	ld	a0,384(s0)
    800044fa:	80d8860b          	.insn	4, 0x80d8860b
    800044fe:	00e5067b          	.insn	4, 0x00e5067b
    80004502:	6705                	lui	a4,0x1
    80004504:	cd07071b          	addiw	a4,a4,-816 # cd0 <buflen.1+0xc90>
    80004508:	970a                	add	a4,a4,sp
    8000450a:	e310                	sd	a2,0(a4)
    8000450c:	18843283          	ld	t0,392(s0)
    80004510:	80dc070b          	.insn	4, 0x80dc070b
    80004514:	0055057b          	.insn	4, 0x0055057b
    80004518:	6605                	lui	a2,0x1
    8000451a:	cc86061b          	addiw	a2,a2,-824 # cc8 <buflen.1+0xc88>
    8000451e:	960a                	add	a2,a2,sp
    80004520:	e208                	sd	a0,0(a2)
    80004522:	19043503          	ld	a0,400(s0)
    80004526:	80de870b          	.insn	4, 0x80de870b
    8000452a:	04f5067b          	.insn	4, 0x04f5067b
    8000452e:	6705                	lui	a4,0x1
    80004530:	cc07071b          	addiw	a4,a4,-832 # cc0 <buflen.1+0xc80>
    80004534:	970a                	add	a4,a4,sp
    80004536:	e310                	sd	a2,0(a4)
    80004538:	19843703          	ld	a4,408(s0)
    8000453c:	80d9078b          	.insn	4, 0x80d9078b
    80004540:	04e5057b          	.insn	4, 0x04e5057b
    80004544:	6605                	lui	a2,0x1
    80004546:	cb06061b          	addiw	a2,a2,-848 # cb0 <buflen.1+0xc70>
    8000454a:	960a                	add	a2,a2,sp
    8000454c:	e208                	sd	a0,0(a2)
    8000454e:	1a043503          	ld	a0,416(s0)
    80004552:	80dc878b          	.insn	4, 0x80dc878b
    80004556:	0895067b          	.insn	4, 0x0895067b
    8000455a:	6785                	lui	a5,0x1
    8000455c:	ca87879b          	addiw	a5,a5,-856 # ca8 <buflen.1+0xc68>
    80004560:	978a                	add	a5,a5,sp
    80004562:	e390                	sd	a2,0(a5)
    80004564:	1a843783          	ld	a5,424(s0)
    80004568:	80df848b          	.insn	4, 0x80df848b
    8000456c:	08f5057b          	.insn	4, 0x08f5057b
    80004570:	6605                	lui	a2,0x1
    80004572:	ca06061b          	addiw	a2,a2,-864 # ca0 <buflen.1+0xc60>
    80004576:	960a                	add	a2,a2,sp
    80004578:	e208                	sd	a0,0(a2)
    8000457a:	1b043503          	ld	a0,432(s0)
    8000457e:	80dd848b          	.insn	4, 0x80dd848b
    80004582:	0d05067b          	.insn	4, 0x0d05067b
    80004586:	6805                	lui	a6,0x1
    80004588:	c988081b          	addiw	a6,a6,-872 # c98 <buflen.1+0xc58>
    8000458c:	980a                	add	a6,a6,sp
    8000458e:	00c83023          	sd	a2,0(a6)
    80004592:	1b843483          	ld	s1,440(s0)
    80004596:	0c95057b          	.insn	4, 0x0c95057b
    8000459a:	6605                	lui	a2,0x1
    8000459c:	c906061b          	addiw	a2,a2,-880 # c90 <buflen.1+0xc50>
    800045a0:	960a                	add	a2,a2,sp
    800045a2:	e208                	sd	a0,0(a2)
    800045a4:	1c043503          	ld	a0,448(s0)
    800045a8:	80d8860b          	.insn	4, 0x80d8860b
    800045ac:	0055067b          	.insn	4, 0x0055067b
    800045b0:	6805                	lui	a6,0x1
    800045b2:	c888081b          	addiw	a6,a6,-888 # c88 <buflen.1+0xc48>
    800045b6:	980a                	add	a6,a6,sp
    800045b8:	00c83023          	sd	a2,0(a6)
    800045bc:	1c843803          	ld	a6,456(s0)
    800045c0:	80dc060b          	.insn	4, 0x80dc060b
    800045c4:	0105057b          	.insn	4, 0x0105057b
    800045c8:	6605                	lui	a2,0x1
    800045ca:	c806061b          	addiw	a2,a2,-896 # c80 <buflen.1+0xc40>
    800045ce:	960a                	add	a2,a2,sp
    800045d0:	e208                	sd	a0,0(a2)
    800045d2:	1d043503          	ld	a0,464(s0)
    800045d6:	80de860b          	.insn	4, 0x80de860b
    800045da:	04e5067b          	.insn	4, 0x04e5067b
    800045de:	6705                	lui	a4,0x1
    800045e0:	c787071b          	addiw	a4,a4,-904 # c78 <buflen.1+0xc38>
    800045e4:	970a                	add	a4,a4,sp
    800045e6:	e310                	sd	a2,0(a4)
    800045e8:	1d843283          	ld	t0,472(s0)
    800045ec:	80d9070b          	.insn	4, 0x80d9070b
    800045f0:	0455057b          	.insn	4, 0x0455057b
    800045f4:	6605                	lui	a2,0x1
    800045f6:	c706061b          	addiw	a2,a2,-912 # c70 <buflen.1+0xc30>
    800045fa:	960a                	add	a2,a2,sp
    800045fc:	e208                	sd	a0,0(a2)
    800045fe:	1e043503          	ld	a0,480(s0)
    80004602:	80dc870b          	.insn	4, 0x80dc870b
    80004606:	08f5067b          	.insn	4, 0x08f5067b
    8000460a:	6705                	lui	a4,0x1
    8000460c:	c687071b          	addiw	a4,a4,-920 # c68 <buflen.1+0xc28>
    80004610:	970a                	add	a4,a4,sp
    80004612:	e310                	sd	a2,0(a4)
    80004614:	1e843303          	ld	t1,488(s0)
    80004618:	80df878b          	.insn	4, 0x80df878b
    8000461c:	0865057b          	.insn	4, 0x0865057b
    80004620:	6605                	lui	a2,0x1
    80004622:	c606061b          	addiw	a2,a2,-928 # c60 <buflen.1+0xc20>
    80004626:	960a                	add	a2,a2,sp
    80004628:	e208                	sd	a0,0(a2)
    8000462a:	1f043503          	ld	a0,496(s0)
    8000462e:	80dd878b          	.insn	4, 0x80dd878b
    80004632:	0c95067b          	.insn	4, 0x0c95067b
    80004636:	6705                	lui	a4,0x1
    80004638:	c587071b          	addiw	a4,a4,-936 # c58 <buflen.1+0xc18>
    8000463c:	970a                	add	a4,a4,sp
    8000463e:	e310                	sd	a2,0(a4)
    80004640:	1f843783          	ld	a5,504(s0)
    80004644:	0cf5057b          	.insn	4, 0x0cf5057b
    80004648:	6605                	lui	a2,0x1
    8000464a:	c486061b          	addiw	a2,a2,-952 # c48 <buflen.1+0xc08>
    8000464e:	960a                	add	a2,a2,sp
    80004650:	e208                	sd	a0,0(a2)
    80004652:	20043503          	ld	a0,512(s0)
    80004656:	80d8848b          	.insn	4, 0x80d8848b
    8000465a:	0105067b          	.insn	4, 0x0105067b
    8000465e:	6705                	lui	a4,0x1
    80004660:	c407071b          	addiw	a4,a4,-960 # c40 <buflen.1+0xc00>
    80004664:	970a                	add	a4,a4,sp
    80004666:	e310                	sd	a2,0(a4)
    80004668:	20843483          	ld	s1,520(s0)
    8000466c:	80dc060b          	.insn	4, 0x80dc060b
    80004670:	0095057b          	.insn	4, 0x0095057b
    80004674:	6605                	lui	a2,0x1
    80004676:	c386061b          	addiw	a2,a2,-968 # c38 <buflen.1+0xbf8>
    8000467a:	960a                	add	a2,a2,sp
    8000467c:	e208                	sd	a0,0(a2)
    8000467e:	21043503          	ld	a0,528(s0)
    80004682:	80de860b          	.insn	4, 0x80de860b
    80004686:	0455067b          	.insn	4, 0x0455067b
    8000468a:	6705                	lui	a4,0x1
    8000468c:	c307071b          	addiw	a4,a4,-976 # c30 <buflen.1+0xbf0>
    80004690:	970a                	add	a4,a4,sp
    80004692:	e310                	sd	a2,0(a4)
    80004694:	21843703          	ld	a4,536(s0)
    80004698:	76e13423          	sd	a4,1896(sp)
    8000469c:	80d9060b          	.insn	4, 0x80d9060b
    800046a0:	04e5057b          	.insn	4, 0x04e5057b
    800046a4:	6605                	lui	a2,0x1
    800046a6:	c286061b          	addiw	a2,a2,-984 # c28 <buflen.1+0xbe8>
    800046aa:	960a                	add	a2,a2,sp
    800046ac:	e208                	sd	a0,0(a2)
    800046ae:	22043283          	ld	t0,544(s0)
    800046b2:	80dc850b          	.insn	4, 0x80dc850b
    800046b6:	0862857b          	.insn	4, 0x0862857b
    800046ba:	6605                	lui	a2,0x1
    800046bc:	c206061b          	addiw	a2,a2,-992 # c20 <buflen.1+0xbe0>
    800046c0:	960a                	add	a2,a2,sp
    800046c2:	e208                	sd	a0,0(a2)
    800046c4:	22843d03          	ld	s10,552(s0)
    800046c8:	80df850b          	.insn	4, 0x80df850b
    800046cc:	09a2857b          	.insn	4, 0x09a2857b
    800046d0:	6605                	lui	a2,0x1
    800046d2:	c186061b          	addiw	a2,a2,-1000 # c18 <buflen.1+0xbd8>
    800046d6:	960a                	add	a2,a2,sp
    800046d8:	e208                	sd	a0,0(a2)
    800046da:	23043383          	ld	t2,560(s0)
    800046de:	80dd850b          	.insn	4, 0x80dd850b
    800046e2:	0cf3857b          	.insn	4, 0x0cf3857b
    800046e6:	6605                	lui	a2,0x1
    800046e8:	c106061b          	addiw	a2,a2,-1008 # c10 <buflen.1+0xbd0>
    800046ec:	960a                	add	a2,a2,sp
    800046ee:	e208                	sd	a0,0(a2)
    800046f0:	23843e03          	ld	t3,568(s0)
    800046f4:	0dc3857b          	.insn	4, 0x0dc3857b
    800046f8:	6605                	lui	a2,0x1
    800046fa:	c086061b          	addiw	a2,a2,-1016 # c08 <buflen.1+0xbc8>
    800046fe:	960a                	add	a2,a2,sp
    80004700:	e208                	sd	a0,0(a2)
    80004702:	24043303          	ld	t1,576(s0)
    80004706:	80d8850b          	.insn	4, 0x80d8850b
    8000470a:	0093057b          	.insn	4, 0x0093057b
    8000470e:	6605                	lui	a2,0x1
    80004710:	c006061b          	addiw	a2,a2,-1024 # c00 <buflen.1+0xbc0>
    80004714:	960a                	add	a2,a2,sp
    80004716:	e208                	sd	a0,0(a2)
    80004718:	24843b83          	ld	s7,584(s0)
    8000471c:	80dc050b          	.insn	4, 0x80dc050b
    80004720:	0173057b          	.insn	4, 0x0173057b
    80004724:	6605                	lui	a2,0x1
    80004726:	bf86061b          	addiw	a2,a2,-1032 # bf8 <buflen.1+0xbb8>
    8000472a:	960a                	add	a2,a2,sp
    8000472c:	e208                	sd	a0,0(a2)
    8000472e:	1285b803          	ld	a6,296(a1)
    80004732:	80df860b          	.insn	4, 0x80df860b
    80004736:	6505                	lui	a0,0x1
    80004738:	a385051b          	addiw	a0,a0,-1480 # a38 <buflen.1+0x9f8>
    8000473c:	950a                	add	a0,a0,sp
    8000473e:	611c                	ld	a5,0(a0)
    80004740:	6505                	lui	a0,0x1
    80004742:	a485051b          	addiw	a0,a0,-1464 # a48 <buflen.1+0xa08>
    80004746:	950a                	add	a0,a0,sp
    80004748:	6108                	ld	a0,0(a0)
    8000474a:	60f5060b          	.insn	4, 0x60f5060b
    8000474e:	6505                	lui	a0,0x1
    80004750:	a205051b          	addiw	a0,a0,-1504 # a20 <buflen.1+0x9e0>
    80004754:	950a                	add	a0,a0,sp
    80004756:	6104                	ld	s1,0(a0)
    80004758:	6505                	lui	a0,0x1
    8000475a:	a705051b          	addiw	a0,a0,-1424 # a70 <buflen.1+0xa30>
    8000475e:	950a                	add	a0,a0,sp
    80004760:	6108                	ld	a0,0(a0)
    80004762:	0095060b          	.insn	4, 0x0095060b
    80004766:	855a                	mv	a0,s6
    80004768:	6505                	lui	a0,0x1
    8000476a:	a585051b          	addiw	a0,a0,-1448 # a58 <buflen.1+0xa18>
    8000476e:	950a                	add	a0,a0,sp
    80004770:	6110                	ld	a2,0(a0)
    80004772:	2166060b          	.insn	4, 0x2166060b
    80004776:	090f067b          	.insn	4, 0x090f067b
    8000477a:	6505                	lui	a0,0x1
    8000477c:	a705051b          	addiw	a0,a0,-1424 # a70 <buflen.1+0xa30>
    80004780:	950a                	add	a0,a0,sp
    80004782:	e110                	sd	a2,0(a0)
    80004784:	1305b603          	ld	a2,304(a1)
    80004788:	80dd870b          	.insn	4, 0x80dd870b
    8000478c:	0cf6077b          	.insn	4, 0x0cf6077b
    80004790:	6505                	lui	a0,0x1
    80004792:	a585051b          	addiw	a0,a0,-1448 # a58 <buflen.1+0xa18>
    80004796:	950a                	add	a0,a0,sp
    80004798:	e118                	sd	a4,0(a0)
    8000479a:	1385bf03          	ld	t5,312(a1)
    8000479e:	0de6067b          	.insn	4, 0x0de6067b
    800047a2:	6505                	lui	a0,0x1
    800047a4:	a485051b          	addiw	a0,a0,-1464 # a48 <buflen.1+0xa08>
    800047a8:	950a                	add	a0,a0,sp
    800047aa:	e110                	sd	a2,0(a0)
    800047ac:	1405b603          	ld	a2,320(a1)
    800047b0:	80d8878b          	.insn	4, 0x80d8878b
    800047b4:	009607fb          	.insn	4, 0x009607fb
    800047b8:	6505                	lui	a0,0x1
    800047ba:	a385051b          	addiw	a0,a0,-1480 # a38 <buflen.1+0x9f8>
    800047be:	950a                	add	a0,a0,sp
    800047c0:	e11c                	sd	a5,0(a0)
    800047c2:	1485b783          	ld	a5,328(a1)
    800047c6:	80dc048b          	.insn	4, 0x80dc048b
    800047ca:	00f6067b          	.insn	4, 0x00f6067b
    800047ce:	6505                	lui	a0,0x1
    800047d0:	a205051b          	addiw	a0,a0,-1504 # a20 <buflen.1+0x9e0>
    800047d4:	950a                	add	a0,a0,sp
    800047d6:	e110                	sd	a2,0(a0)
    800047d8:	1505b603          	ld	a2,336(a1)
    800047dc:	80de848b          	.insn	4, 0x80de848b
    800047e0:	056604fb          	.insn	4, 0x056604fb
    800047e4:	6505                	lui	a0,0x1
    800047e6:	a085051b          	addiw	a0,a0,-1528 # a08 <buflen.1+0x9c8>
    800047ea:	950a                	add	a0,a0,sp
    800047ec:	e104                	sd	s1,0(a0)
    800047ee:	80d9048b          	.insn	4, 0x80d9048b
    800047f2:	6505                	lui	a0,0x1
    800047f4:	9f85051b          	addiw	a0,a0,-1544 # 9f8 <buflen.1+0x9b8>
    800047f8:	950a                	add	a0,a0,sp
    800047fa:	6118                	ld	a4,0(a0)
    800047fc:	04e6067b          	.insn	4, 0x04e6067b
    80004800:	6505                	lui	a0,0x1
    80004802:	9f85051b          	addiw	a0,a0,-1544 # 9f8 <buflen.1+0x9b8>
    80004806:	950a                	add	a0,a0,sp
    80004808:	e110                	sd	a2,0(a0)
    8000480a:	80dc860b          	.insn	4, 0x80dc860b
    8000480e:	6505                	lui	a0,0x1
    80004810:	9d85051b          	addiw	a0,a0,-1576 # 9d8 <buflen.1+0x998>
    80004814:	950a                	add	a0,a0,sp
    80004816:	6118                	ld	a4,0(a0)
    80004818:	0907057b          	.insn	4, 0x0907057b
    8000481c:	6605                	lui	a2,0x1
    8000481e:	9e86061b          	addiw	a2,a2,-1560 # 9e8 <buflen.1+0x9a8>
    80004822:	960a                	add	a2,a2,sp
    80004824:	e208                	sd	a0,0(a2)
    80004826:	80df850b          	.insn	4, 0x80df850b
    8000482a:	6505                	lui	a0,0x1
    8000482c:	9585051b          	addiw	a0,a0,-1704 # 958 <buflen.1+0x918>
    80004830:	950a                	add	a0,a0,sp
    80004832:	6110                	ld	a2,0(a0)
    80004834:	08c7057b          	.insn	4, 0x08c7057b
    80004838:	6705                	lui	a4,0x1
    8000483a:	9d87071b          	addiw	a4,a4,-1576 # 9d8 <buflen.1+0x998>
    8000483e:	970a                	add	a4,a4,sp
    80004840:	e308                	sd	a0,0(a4)
    80004842:	80dd850b          	.insn	4, 0x80dd850b
    80004846:	6505                	lui	a0,0x1
    80004848:	9c05051b          	addiw	a0,a0,-1600 # 9c0 <buflen.1+0x980>
    8000484c:	950a                	add	a0,a0,sp
    8000484e:	6118                	ld	a4,0(a0)
    80004850:	0de7057b          	.insn	4, 0x0de7057b
    80004854:	6805                	lui	a6,0x1
    80004856:	9c88081b          	addiw	a6,a6,-1592 # 9c8 <buflen.1+0x988>
    8000485a:	980a                	add	a6,a6,sp
    8000485c:	00a83023          	sd	a0,0(a6)
    80004860:	6505                	lui	a0,0x1
    80004862:	9605051b          	addiw	a0,a0,-1696 # 960 <buflen.1+0x920>
    80004866:	950a                	add	a0,a0,sp
    80004868:	6104                	ld	s1,0(a0)
    8000486a:	0c97057b          	.insn	4, 0x0c97057b
    8000486e:	6705                	lui	a4,0x1
    80004870:	9c07071b          	addiw	a4,a4,-1600 # 9c0 <buflen.1+0x980>
    80004874:	970a                	add	a4,a4,sp
    80004876:	e308                	sd	a0,0(a4)
    80004878:	4f05                	li	t5,1
    8000487a:	80df050b          	.insn	4, 0x80df050b
    8000487e:	6505                	lui	a0,0x1
    80004880:	9a85051b          	addiw	a0,a0,-1624 # 9a8 <buflen.1+0x968>
    80004884:	950a                	add	a0,a0,sp
    80004886:	6118                	ld	a4,0(a0)
    80004888:	00f7057b          	.insn	4, 0x00f7057b
    8000488c:	6785                	lui	a5,0x1
    8000488e:	9b87879b          	addiw	a5,a5,-1608 # 9b8 <buflen.1+0x978>
    80004892:	978a                	add	a5,a5,sp
    80004894:	e388                	sd	a0,0(a5)
    80004896:	80dc050b          	.insn	4, 0x80dc050b
    8000489a:	6505                	lui	a0,0x1
    8000489c:	9685051b          	addiw	a0,a0,-1688 # 968 <buflen.1+0x928>
    800048a0:	950a                	add	a0,a0,sp
    800048a2:	611c                	ld	a5,0(a0)
    800048a4:	00f7057b          	.insn	4, 0x00f7057b
    800048a8:	6705                	lui	a4,0x1
    800048aa:	9a87071b          	addiw	a4,a4,-1624 # 9a8 <buflen.1+0x968>
    800048ae:	970a                	add	a4,a4,sp
    800048b0:	e308                	sd	a0,0(a4)
    800048b2:	4891                	li	a7,4
    800048b4:	80d8850b          	.insn	4, 0x80d8850b
    800048b8:	6505                	lui	a0,0x1
    800048ba:	9a05051b          	addiw	a0,a0,-1632 # 9a0 <buflen.1+0x960>
    800048be:	950a                	add	a0,a0,sp
    800048c0:	6108                	ld	a0,0(a0)
    800048c2:	6705                	lui	a4,0x1
    800048c4:	9907071b          	addiw	a4,a4,-1648 # 990 <buflen.1+0x950>
    800048c8:	970a                	add	a4,a4,sp
    800048ca:	6318                	ld	a4,0(a4)
    800048cc:	04a7057b          	.insn	4, 0x04a7057b
    800048d0:	6705                	lui	a4,0x1
    800048d2:	9a07071b          	addiw	a4,a4,-1632 # 9a0 <buflen.1+0x960>
    800048d6:	970a                	add	a4,a4,sp
    800048d8:	e308                	sd	a0,0(a4)
    800048da:	80dc850b          	.insn	4, 0x80dc850b
    800048de:	6505                	lui	a0,0x1
    800048e0:	9785051b          	addiw	a0,a0,-1672 # 978 <buflen.1+0x938>
    800048e4:	950a                	add	a0,a0,sp
    800048e6:	6118                	ld	a4,0(a0)
    800048e8:	08c7057b          	.insn	4, 0x08c7057b
    800048ec:	6605                	lui	a2,0x1
    800048ee:	9906061b          	addiw	a2,a2,-1648 # 990 <buflen.1+0x950>
    800048f2:	960a                	add	a2,a2,sp
    800048f4:	e208                	sd	a0,0(a2)
    800048f6:	80df850b          	.insn	4, 0x80df850b
    800048fa:	6505                	lui	a0,0x1
    800048fc:	f605051b          	addiw	a0,a0,-160 # f60 <buflen.1+0xf20>
    80004900:	950a                	add	a0,a0,sp
    80004902:	6108                	ld	a0,0(a0)
    80004904:	08a7057b          	.insn	4, 0x08a7057b
    80004908:	6605                	lui	a2,0x1
    8000490a:	f606061b          	addiw	a2,a2,-160 # f60 <buflen.1+0xf20>
    8000490e:	960a                	add	a2,a2,sp
    80004910:	e208                	sd	a0,0(a2)
    80004912:	80dd850b          	.insn	4, 0x80dd850b
    80004916:	6505                	lui	a0,0x1
    80004918:	f685051b          	addiw	a0,a0,-152 # f68 <buflen.1+0xf28>
    8000491c:	950a                	add	a0,a0,sp
    8000491e:	6118                	ld	a4,0(a0)
    80004920:	0c97057b          	.insn	4, 0x0c97057b
    80004924:	6605                	lui	a2,0x1
    80004926:	9786061b          	addiw	a2,a2,-1672 # 978 <buflen.1+0x938>
    8000492a:	960a                	add	a2,a2,sp
    8000492c:	e208                	sd	a0,0(a2)
    8000492e:	6505                	lui	a0,0x1
    80004930:	f705051b          	addiw	a0,a0,-144 # f70 <buflen.1+0xf30>
    80004934:	950a                	add	a0,a0,sp
    80004936:	6104                	ld	s1,0(a0)
    80004938:	0c97057b          	.insn	4, 0x0c97057b
    8000493c:	6605                	lui	a2,0x1
    8000493e:	f686061b          	addiw	a2,a2,-152 # f68 <buflen.1+0xf28>
    80004942:	960a                	add	a2,a2,sp
    80004944:	e208                	sd	a0,0(a2)
    80004946:	80df050b          	.insn	4, 0x80df050b
    8000494a:	00f9857b          	.insn	4, 0x00f9857b
    8000494e:	6605                	lui	a2,0x1
    80004950:	9686061b          	addiw	a2,a2,-1688 # 968 <buflen.1+0x928>
    80004954:	960a                	add	a2,a2,sp
    80004956:	e208                	sd	a0,0(a2)
    80004958:	80dc050b          	.insn	4, 0x80dc050b
    8000495c:	6505                	lui	a0,0x1
    8000495e:	f785051b          	addiw	a0,a0,-136 # f78 <buflen.1+0xf38>
    80004962:	950a                	add	a0,a0,sp
    80004964:	611c                	ld	a5,0(a0)
    80004966:	00f9857b          	.insn	4, 0x00f9857b
    8000496a:	6605                	lui	a2,0x1
    8000496c:	9606061b          	addiw	a2,a2,-1696 # 960 <buflen.1+0x920>
    80004970:	960a                	add	a2,a2,sp
    80004972:	e208                	sd	a0,0(a2)
    80004974:	80d8850b          	.insn	4, 0x80d8850b
    80004978:	4891                	li	a7,4
    8000497a:	6505                	lui	a0,0x1
    8000497c:	f805051b          	addiw	a0,a0,-128 # f80 <buflen.1+0xf40>
    80004980:	950a                	add	a0,a0,sp
    80004982:	6108                	ld	a0,0(a0)
    80004984:	0555057b          	.insn	4, 0x0555057b
    80004988:	6605                	lui	a2,0x1
    8000498a:	9586061b          	addiw	a2,a2,-1704 # 958 <buflen.1+0x918>
    8000498e:	960a                	add	a2,a2,sp
    80004990:	e208                	sd	a0,0(a2)
    80004992:	80df850b          	.insn	4, 0x80df850b
    80004996:	6505                	lui	a0,0x1
    80004998:	9505051b          	addiw	a0,a0,-1712 # 950 <buflen.1+0x910>
    8000499c:	950a                	add	a0,a0,sp
    8000499e:	6108                	ld	a0,0(a0)
    800049a0:	08a0857b          	.insn	4, 0x08a0857b
    800049a4:	6605                	lui	a2,0x1
    800049a6:	9506061b          	addiw	a2,a2,-1712 # 950 <buflen.1+0x910>
    800049aa:	960a                	add	a2,a2,sp
    800049ac:	e208                	sd	a0,0(a2)
    800049ae:	80dd850b          	.insn	4, 0x80dd850b
    800049b2:	6505                	lui	a0,0x1
    800049b4:	f585051b          	addiw	a0,a0,-168 # f58 <buflen.1+0xf18>
    800049b8:	950a                	add	a0,a0,sp
    800049ba:	6110                	ld	a2,0(a0)
    800049bc:	0c96057b          	.insn	4, 0x0c96057b
    800049c0:	6705                	lui	a4,0x1
    800049c2:	f707071b          	addiw	a4,a4,-144 # f70 <buflen.1+0xf30>
    800049c6:	970a                	add	a4,a4,sp
    800049c8:	e308                	sd	a0,0(a4)
    800049ca:	6505                	lui	a0,0x1
    800049cc:	9385051b          	addiw	a0,a0,-1736 # 938 <buflen.1+0x8f8>
    800049d0:	950a                	add	a0,a0,sp
    800049d2:	6108                	ld	a0,0(a0)
    800049d4:	0ca6057b          	.insn	4, 0x0ca6057b
    800049d8:	6605                	lui	a2,0x1
    800049da:	f586061b          	addiw	a2,a2,-168 # f58 <buflen.1+0xf18>
    800049de:	960a                	add	a2,a2,sp
    800049e0:	e208                	sd	a0,0(a2)
    800049e2:	80df050b          	.insn	4, 0x80df050b
    800049e6:	6505                	lui	a0,0x1
    800049e8:	9205051b          	addiw	a0,a0,-1760 # 920 <buflen.1+0x8e0>
    800049ec:	950a                	add	a0,a0,sp
    800049ee:	6110                	ld	a2,0(a0)
    800049f0:	00f6057b          	.insn	4, 0x00f6057b
    800049f4:	6705                	lui	a4,0x1
    800049f6:	9387071b          	addiw	a4,a4,-1736 # 938 <buflen.1+0x8f8>
    800049fa:	970a                	add	a4,a4,sp
    800049fc:	e308                	sd	a0,0(a4)
    800049fe:	80dc050b          	.insn	4, 0x80dc050b
    80004a02:	6505                	lui	a0,0x1
    80004a04:	9185051b          	addiw	a0,a0,-1768 # 918 <buflen.1+0x8d8>
    80004a08:	950a                	add	a0,a0,sp
    80004a0a:	6118                	ld	a4,0(a0)
    80004a0c:	00e6057b          	.insn	4, 0x00e6057b
    80004a10:	6605                	lui	a2,0x1
    80004a12:	9206061b          	addiw	a2,a2,-1760 # 920 <buflen.1+0x8e0>
    80004a16:	960a                	add	a2,a2,sp
    80004a18:	e208                	sd	a0,0(a2)
    80004a1a:	2405b503          	ld	a0,576(a1)
    80004a1e:	80df060b          	.insn	4, 0x80df060b
    80004a22:	4e85                	li	t4,1
    80004a24:	6605                	lui	a2,0x1
    80004a26:	9306061b          	addiw	a2,a2,-1744 # 930 <buflen.1+0x8f0>
    80004a2a:	960a                	add	a2,a2,sp
    80004a2c:	6210                	ld	a2,0(a2)
    80004a2e:	6785                	lui	a5,0x1
    80004a30:	8c87879b          	addiw	a5,a5,-1848 # 8c8 <buflen.1+0x888>
    80004a34:	978a                	add	a5,a5,sp
    80004a36:	639c                	ld	a5,0(a5)
    80004a38:	20f6060b          	.insn	4, 0x20f6060b
    80004a3c:	6605                	lui	a2,0x1
    80004a3e:	9006061b          	addiw	a2,a2,-1792 # 900 <buflen.1+0x8c0>
    80004a42:	960a                	add	a2,a2,sp
    80004a44:	6210                	ld	a2,0(a2)
    80004a46:	4146060b          	.insn	4, 0x4146060b
    80004a4a:	6605                	lui	a2,0x1
    80004a4c:	8d06061b          	addiw	a2,a2,-1840 # 8d0 <buflen.1+0x890>
    80004a50:	960a                	add	a2,a2,sp
    80004a52:	6210                	ld	a2,0(a2)
    80004a54:	6805                	lui	a6,0x1
    80004a56:	8b08081b          	addiw	a6,a6,-1872 # 8b0 <buflen.1+0x870>
    80004a5a:	980a                	add	a6,a6,sp
    80004a5c:	00083803          	ld	a6,0(a6)
    80004a60:	6106060b          	.insn	4, 0x6106060b
    80004a64:	00e5067b          	.insn	4, 0x00e5067b
    80004a68:	6705                	lui	a4,0x1
    80004a6a:	9307071b          	addiw	a4,a4,-1744 # 930 <buflen.1+0x8f0>
    80004a6e:	970a                	add	a4,a4,sp
    80004a70:	e310                	sd	a2,0(a4)
    80004a72:	2485b603          	ld	a2,584(a1)
    80004a76:	80dc070b          	.insn	4, 0x80dc070b
    80004a7a:	00c5057b          	.insn	4, 0x00c5057b
    80004a7e:	6705                	lui	a4,0x1
    80004a80:	9187071b          	addiw	a4,a4,-1768 # 918 <buflen.1+0x8d8>
    80004a84:	970a                	add	a4,a4,sp
    80004a86:	e308                	sd	a0,0(a4)
    80004a88:	2505b503          	ld	a0,592(a1)
    80004a8c:	4f0d                	li	t5,3
    80004a8e:	80df070b          	.insn	4, 0x80df070b
    80004a92:	04f5077b          	.insn	4, 0x04f5077b
    80004a96:	6785                	lui	a5,0x1
    80004a98:	9007879b          	addiw	a5,a5,-1792 # 900 <buflen.1+0x8c0>
    80004a9c:	978a                	add	a5,a5,sp
    80004a9e:	e398                	sd	a4,0(a5)
    80004aa0:	2585b703          	ld	a4,600(a1)
    80004aa4:	80d8878b          	.insn	4, 0x80d8878b
    80004aa8:	04e5057b          	.insn	4, 0x04e5057b
    80004aac:	6785                	lui	a5,0x1
    80004aae:	8d07879b          	addiw	a5,a5,-1840 # 8d0 <buflen.1+0x890>
    80004ab2:	978a                	add	a5,a5,sp
    80004ab4:	e388                	sd	a0,0(a5)
    80004ab6:	80dc850b          	.insn	4, 0x80dc850b
    80004aba:	6505                	lui	a0,0x1
    80004abc:	8f05051b          	addiw	a0,a0,-1808 # 8f0 <buflen.1+0x8b0>
    80004ac0:	950a                	add	a0,a0,sp
    80004ac2:	6104                	ld	s1,0(a0)
    80004ac4:	0944857b          	.insn	4, 0x0944857b
    80004ac8:	6785                	lui	a5,0x1
    80004aca:	8b87879b          	addiw	a5,a5,-1864 # 8b8 <buflen.1+0x878>
    80004ace:	978a                	add	a5,a5,sp
    80004ad0:	e388                	sd	a0,0(a5)
    80004ad2:	80df850b          	.insn	4, 0x80df850b
    80004ad6:	6505                	lui	a0,0x1
    80004ad8:	8805051b          	addiw	a0,a0,-1920 # 880 <buflen.1+0x840>
    80004adc:	950a                	add	a0,a0,sp
    80004ade:	611c                	ld	a5,0(a0)
    80004ae0:	08f4857b          	.insn	4, 0x08f4857b
    80004ae4:	6485                	lui	s1,0x1
    80004ae6:	8984849b          	addiw	s1,s1,-1896 # 898 <buflen.1+0x858>
    80004aea:	948a                	add	s1,s1,sp
    80004aec:	e088                	sd	a0,0(s1)
    80004aee:	80dd850b          	.insn	4, 0x80dd850b
    80004af2:	6505                	lui	a0,0x1
    80004af4:	8e85051b          	addiw	a0,a0,-1816 # 8e8 <buflen.1+0x8a8>
    80004af8:	950a                	add	a0,a0,sp
    80004afa:	6104                	ld	s1,0(a0)
    80004afc:	0d04857b          	.insn	4, 0x0d04857b
    80004b00:	6805                	lui	a6,0x1
    80004b02:	8f08081b          	addiw	a6,a6,-1808 # 8f0 <buflen.1+0x8b0>
    80004b06:	980a                	add	a6,a6,sp
    80004b08:	00a83023          	sd	a0,0(a6)
    80004b0c:	6505                	lui	a0,0x1
    80004b0e:	8905051b          	addiw	a0,a0,-1904 # 890 <buflen.1+0x850>
    80004b12:	950a                	add	a0,a0,sp
    80004b14:	00053903          	ld	s2,0(a0)
    80004b18:	0d24857b          	.insn	4, 0x0d24857b
    80004b1c:	6805                	lui	a6,0x1
    80004b1e:	8e88081b          	addiw	a6,a6,-1816 # 8e8 <buflen.1+0x8a8>
    80004b22:	980a                	add	a6,a6,sp
    80004b24:	00a83023          	sd	a0,0(a6)
    80004b28:	80de850b          	.insn	4, 0x80de850b
    80004b2c:	6505                	lui	a0,0x1
    80004b2e:	8e05051b          	addiw	a0,a0,-1824 # 8e0 <buflen.1+0x8a0>
    80004b32:	950a                	add	a0,a0,sp
    80004b34:	6104                	ld	s1,0(a0)
    80004b36:	00c4857b          	.insn	4, 0x00c4857b
    80004b3a:	6605                	lui	a2,0x1
    80004b3c:	8c86061b          	addiw	a2,a2,-1848 # 8c8 <buflen.1+0x888>
    80004b40:	960a                	add	a2,a2,sp
    80004b42:	e208                	sd	a0,0(a2)
    80004b44:	80dc050b          	.insn	4, 0x80dc050b
    80004b48:	6505                	lui	a0,0x1
    80004b4a:	8605051b          	addiw	a0,a0,-1952 # 860 <buflen.1+0x820>
    80004b4e:	950a                	add	a0,a0,sp
    80004b50:	00053983          	ld	s3,0(a0)
    80004b54:	0134857b          	.insn	4, 0x0134857b
    80004b58:	6605                	lui	a2,0x1
    80004b5a:	8b06061b          	addiw	a2,a2,-1872 # 8b0 <buflen.1+0x870>
    80004b5e:	960a                	add	a2,a2,sp
    80004b60:	e208                	sd	a0,0(a2)
    80004b62:	80df050b          	.insn	4, 0x80df050b
    80004b66:	408d                	li	ra,3
    80004b68:	6505                	lui	a0,0x1
    80004b6a:	8a85051b          	addiw	a0,a0,-1880 # 8a8 <buflen.1+0x868>
    80004b6e:	950a                	add	a0,a0,sp
    80004b70:	6104                	ld	s1,0(a0)
    80004b72:	04e4857b          	.insn	4, 0x04e4857b
    80004b76:	6605                	lui	a2,0x1
    80004b78:	8e06061b          	addiw	a2,a2,-1824 # 8e0 <buflen.1+0x8a0>
    80004b7c:	960a                	add	a2,a2,sp
    80004b7e:	e208                	sd	a0,0(a2)
    80004b80:	2a05b503          	ld	a0,672(a1)
    80004b84:	80dc860b          	.insn	4, 0x80dc860b
    80004b88:	6605                	lui	a2,0x1
    80004b8a:	8506061b          	addiw	a2,a2,-1968 # 850 <buflen.1+0x810>
    80004b8e:	960a                	add	a2,a2,sp
    80004b90:	00063a03          	ld	s4,0(a2)
    80004b94:	2144860b          	.insn	4, 0x2144860b
    80004b98:	08f5067b          	.insn	4, 0x08f5067b
    80004b9c:	6705                	lui	a4,0x1
    80004b9e:	8a87071b          	addiw	a4,a4,-1880 # 8a8 <buflen.1+0x868>
    80004ba2:	970a                	add	a4,a4,sp
    80004ba4:	e310                	sd	a2,0(a4)
    80004ba6:	2a85bf03          	ld	t5,680(a1)
    80004baa:	80df870b          	.insn	4, 0x80df870b
    80004bae:	09e5057b          	.insn	4, 0x09e5057b
    80004bb2:	6605                	lui	a2,0x1
    80004bb4:	8806061b          	addiw	a2,a2,-1920 # 880 <buflen.1+0x840>
    80004bb8:	960a                	add	a2,a2,sp
    80004bba:	e208                	sd	a0,0(a2)
    80004bbc:	2b05b503          	ld	a0,688(a1)
    80004bc0:	80dd870b          	.insn	4, 0x80dd870b
    80004bc4:	0d25067b          	.insn	4, 0x0d25067b
    80004bc8:	6705                	lui	a4,0x1
    80004bca:	8907071b          	addiw	a4,a4,-1904 # 890 <buflen.1+0x850>
    80004bce:	970a                	add	a4,a4,sp
    80004bd0:	e310                	sd	a2,0(a4)
    80004bd2:	2b85b903          	ld	s2,696(a1)
    80004bd6:	0d25057b          	.insn	4, 0x0d25057b
    80004bda:	6605                	lui	a2,0x1
    80004bdc:	8786061b          	addiw	a2,a2,-1928 # 878 <buflen.1+0x838>
    80004be0:	960a                	add	a2,a2,sp
    80004be2:	e208                	sd	a0,0(a2)
    80004be4:	2c05b503          	ld	a0,704(a1)
    80004be8:	80de878b          	.insn	4, 0x80de878b
    80004bec:	0135067b          	.insn	4, 0x0135067b
    80004bf0:	6705                	lui	a4,0x1
    80004bf2:	8607071b          	addiw	a4,a4,-1952 # 860 <buflen.1+0x820>
    80004bf6:	970a                	add	a4,a4,sp
    80004bf8:	e310                	sd	a2,0(a4)
    80004bfa:	2c85b983          	ld	s3,712(a1)
    80004bfe:	80dc048b          	.insn	4, 0x80dc048b
    80004c02:	0135057b          	.insn	4, 0x0135057b
    80004c06:	6605                	lui	a2,0x1
    80004c08:	8386061b          	addiw	a2,a2,-1992 # 838 <buflen.1+0x7f8>
    80004c0c:	960a                	add	a2,a2,sp
    80004c0e:	e208                	sd	a0,0(a2)
    80004c10:	2d05b503          	ld	a0,720(a1)
    80004c14:	80d0848b          	.insn	4, 0x80d0848b
    80004c18:	0545067b          	.insn	4, 0x0545067b
    80004c1c:	6705                	lui	a4,0x1
    80004c1e:	8507071b          	addiw	a4,a4,-1968 # 850 <buflen.1+0x810>
    80004c22:	970a                	add	a4,a4,sp
    80004c24:	e310                	sd	a2,0(a4)
    80004c26:	2d85ba03          	ld	s4,728(a1)
    80004c2a:	80d8860b          	.insn	4, 0x80d8860b
    80004c2e:	0545057b          	.insn	4, 0x0545057b
    80004c32:	6605                	lui	a2,0x1
    80004c34:	8286061b          	addiw	a2,a2,-2008 # 828 <buflen.1+0x7e8>
    80004c38:	960a                	add	a2,a2,sp
    80004c3a:	e208                	sd	a0,0(a2)
    80004c3c:	2e05bb03          	ld	s6,736(a1)
    80004c40:	80dc860b          	.insn	4, 0x80dc860b
    80004c44:	09eb057b          	.insn	4, 0x09eb057b
    80004c48:	6605                	lui	a2,0x1
    80004c4a:	8086061b          	addiw	a2,a2,-2040 # 808 <buflen.1+0x7c8>
    80004c4e:	960a                	add	a2,a2,sp
    80004c50:	e208                	sd	a0,0(a2)
    80004c52:	2e85ba83          	ld	s5,744(a1)
    80004c56:	80df870b          	.insn	4, 0x80df870b
    80004c5a:	095b057b          	.insn	4, 0x095b057b
    80004c5e:	7ea13823          	sd	a0,2032(sp)
    80004c62:	2f05b703          	ld	a4,752(a1)
    80004c66:	80dd878b          	.insn	4, 0x80dd878b
    80004c6a:	0d27057b          	.insn	4, 0x0d27057b
    80004c6e:	7ea13423          	sd	a0,2024(sp)
    80004c72:	2f85b903          	ld	s2,760(a1)
    80004c76:	0d27057b          	.insn	4, 0x0d27057b
    80004c7a:	7ca13c23          	sd	a0,2008(sp)
    80004c7e:	3005b483          	ld	s1,768(a1)
    80004c82:	80de860b          	.insn	4, 0x80de860b
    80004c86:	0134857b          	.insn	4, 0x0134857b
    80004c8a:	7ca13423          	sd	a0,1992(sp)
    80004c8e:	3085b603          	ld	a2,776(a1)
    80004c92:	80dc078b          	.insn	4, 0x80dc078b
    80004c96:	00c4857b          	.insn	4, 0x00c4857b
    80004c9a:	7aa13423          	sd	a0,1960(sp)
    80004c9e:	3105b783          	ld	a5,784(a1)
    80004ca2:	80d0850b          	.insn	4, 0x80d0850b
    80004ca6:	0547857b          	.insn	4, 0x0547857b
    80004caa:	7aa13c23          	sd	a0,1976(sp)
    80004cae:	25043f03          	ld	t5,592(s0)
    80004cb2:	41a2850b          	.insn	4, 0x41a2850b
    80004cb6:	61c3850b          	.insn	4, 0x61c3850b
    80004cba:	0173050b          	.insn	4, 0x0173050b
    80004cbe:	76813503          	ld	a0,1896(sp)
    80004cc2:	04af057b          	.insn	4, 0x04af057b
    80004cc6:	6805                	lui	a6,0x1
    80004cc8:	f808081b          	addiw	a6,a6,-128 # f80 <buflen.1+0xf40>
    80004ccc:	980a                	add	a6,a6,sp
    80004cce:	00a83023          	sd	a0,0(a6)
    80004cd2:	3185b803          	ld	a6,792(a1)
    80004cd6:	80d8850b          	.insn	4, 0x80d8850b
    80004cda:	415b050b          	.insn	4, 0x415b050b
    80004cde:	6127050b          	.insn	4, 0x6127050b
    80004ce2:	00c4850b          	.insn	4, 0x00c4850b
    80004ce6:	0507857b          	.insn	4, 0x0507857b
    80004cea:	76a13423          	sd	a0,1896(sp)
    80004cee:	3205b503          	ld	a0,800(a1)
    80004cf2:	80dc870b          	.insn	4, 0x80dc870b
    80004cf6:	0955077b          	.insn	4, 0x0955077b
    80004cfa:	74e13823          	sd	a4,1872(sp)
    80004cfe:	4e99                	li	t4,6
    80004d00:	80de870b          	.insn	4, 0x80de870b
    80004d04:	73813703          	ld	a4,1848(sp)
    80004d08:	08e5057b          	.insn	4, 0x08e5057b
    80004d0c:	72a13c23          	sd	a0,1848(sp)
    80004d10:	4a1d                	li	s4,7
    80004d12:	80da050b          	.insn	4, 0x80da050b
    80004d16:	74813703          	ld	a4,1864(sp)
    80004d1a:	0d27057b          	.insn	4, 0x0d27057b
    80004d1e:	72a13423          	sd	a0,1832(sp)
    80004d22:	6f013783          	ld	a5,1776(sp)
    80004d26:	0cf7057b          	.insn	4, 0x0cf7057b
    80004d2a:	74a13423          	sd	a0,1864(sp)
    80004d2e:	4b05                	li	s6,1
    80004d30:	80db050b          	.insn	4, 0x80db050b
    80004d34:	72013703          	ld	a4,1824(sp)
    80004d38:	00c7057b          	.insn	4, 0x00c7057b
    80004d3c:	72a13823          	sd	a0,1840(sp)
    80004d40:	80dc050b          	.insn	4, 0x80dc050b
    80004d44:	6f813d83          	ld	s11,1784(sp)
    80004d48:	01b7057b          	.insn	4, 0x01b7057b
    80004d4c:	72a13023          	sd	a0,1824(sp)
    80004d50:	498d                	li	s3,3
    80004d52:	80d9850b          	.insn	4, 0x80d9850b
    80004d56:	6505                	lui	a0,0x1
    80004d58:	8205051b          	addiw	a0,a0,-2016 # 820 <buflen.1+0x7e0>
    80004d5c:	950a                	add	a0,a0,sp
    80004d5e:	6110                	ld	a2,0(a0)
    80004d60:	0506057b          	.insn	4, 0x0506057b
    80004d64:	70a13423          	sd	a0,1800(sp)
    80004d68:	80d8850b          	.insn	4, 0x80d8850b
    80004d6c:	6505                	lui	a0,0x1
    80004d6e:	8485051b          	addiw	a0,a0,-1976 # 848 <buflen.1+0x808>
    80004d72:	950a                	add	a0,a0,sp
    80004d74:	6118                	ld	a4,0(a0)
    80004d76:	04e6057b          	.insn	4, 0x04e6057b
    80004d7a:	8832                	mv	a6,a2
    80004d7c:	70a13c23          	sd	a0,1816(sp)
    80004d80:	3685bc83          	ld	s9,872(a1)
    80004d84:	80de860b          	.insn	4, 0x80de860b
    80004d88:	4e99                	li	t4,6
    80004d8a:	6505                	lui	a0,0x1
    80004d8c:	8685051b          	addiw	a0,a0,-1944 # 868 <buflen.1+0x828>
    80004d90:	950a                	add	a0,a0,sp
    80004d92:	00053a83          	ld	s5,0(a0)
    80004d96:	099a867b          	.insn	4, 0x099a867b
    80004d9a:	70c13023          	sd	a2,1792(sp)
    80004d9e:	80da060b          	.insn	4, 0x80da060b
    80004da2:	491d                	li	s2,7
    80004da4:	6a013503          	ld	a0,1696(sp)
    80004da8:	0cf5067b          	.insn	4, 0x0cf5067b
    80004dac:	6ec13823          	sd	a2,1776(sp)
    80004db0:	67f6                	ld	a5,344(sp)
    80004db2:	0cf5067b          	.insn	4, 0x0cf5067b
    80004db6:	6ec13423          	sd	a2,1768(sp)
    80004dba:	80db060b          	.insn	4, 0x80db060b
    80004dbe:	4f85                	li	t6,1
    80004dc0:	6b013483          	ld	s1,1712(sp)
    80004dc4:	01b4867b          	.insn	4, 0x01b4867b
    80004dc8:	6ec13c23          	sd	a2,1784(sp)
    80004dcc:	25843a03          	ld	s4,600(s0)
    80004dd0:	80d8860b          	.insn	4, 0x80d8860b
    80004dd4:	41a2860b          	.insn	4, 0x41a2860b
    80004dd8:	61c3860b          	.insn	4, 0x61c3860b
    80004ddc:	0173060b          	.insn	4, 0x0173060b
    80004de0:	054f067b          	.insn	4, 0x054f067b
    80004de4:	6285                	lui	t0,0x1
    80004de6:	f782829b          	addiw	t0,t0,-136 # f78 <buflen.1+0xf38>
    80004dea:	928a                	add	t0,t0,sp
    80004dec:	00c2b023          	sd	a2,0(t0)
    80004df0:	80dc060b          	.insn	4, 0x80dc060b
    80004df4:	20e8060b          	.insn	4, 0x20e8060b
    80004df8:	60f5060b          	.insn	4, 0x60f5060b
    80004dfc:	66813283          	ld	t0,1640(sp)
    80004e00:	0054860b          	.insn	4, 0x0054860b
    80004e04:	099a867b          	.insn	4, 0x099a867b
    80004e08:	6ac13823          	sd	a2,1712(sp)
    80004e0c:	80d9860b          	.insn	4, 0x80d9860b
    80004e10:	69813503          	ld	a0,1688(sp)
    80004e14:	04e5067b          	.insn	4, 0x04e5067b
    80004e18:	6ac13023          	sd	a2,1696(sp)
    80004e1c:	80d8860b          	.insn	4, 0x80d8860b
    80004e20:	66013483          	ld	s1,1632(sp)
    80004e24:	0495067b          	.insn	4, 0x0495067b
    80004e28:	68c13423          	sd	a2,1672(sp)
    80004e2c:	4815                	li	a6,5
    80004e2e:	80d8060b          	.insn	4, 0x80d8060b
    80004e32:	68013703          	ld	a4,1664(sp)
    80004e36:	0997057b          	.insn	4, 0x0997057b
    80004e3a:	68a13c23          	sd	a0,1688(sp)
    80004e3e:	80d9050b          	.insn	4, 0x80d9050b
    80004e42:	65813603          	ld	a2,1624(sp)
    80004e46:	40c7050b          	.insn	4, 0x40c7050b
    80004e4a:	67813703          	ld	a4,1656(sp)
    80004e4e:	0cf7057b          	.insn	4, 0x0cf7057b
    80004e52:	68a13023          	sd	a0,1664(sp)
    80004e56:	7516                	ld	a0,352(sp)
    80004e58:	0ca7057b          	.insn	4, 0x0ca7057b
    80004e5c:	66a13c23          	sd	a0,1656(sp)
    80004e60:	80df850b          	.insn	4, 0x80df850b
    80004e64:	64013703          	ld	a4,1600(sp)
    80004e68:	0057057b          	.insn	4, 0x0057057b
    80004e6c:	66a13423          	sd	a0,1640(sp)
    80004e70:	80d9850b          	.insn	4, 0x80d9850b
    80004e74:	4c0d                	li	s8,3
    80004e76:	67013503          	ld	a0,1648(sp)
    80004e7a:	00a7050b          	.insn	4, 0x00a7050b
    80004e7e:	5b813703          	ld	a4,1464(sp)
    80004e82:	0497057b          	.insn	4, 0x0497057b
    80004e86:	66a13823          	sd	a0,1648(sp)
    80004e8a:	80d8850b          	.insn	4, 0x80d8850b
    80004e8e:	5f813503          	ld	a0,1528(sp)
    80004e92:	04a7057b          	.insn	4, 0x04a7057b
    80004e96:	66a13023          	sd	a0,1632(sp)
    80004e9a:	80d8050b          	.insn	4, 0x80d8050b
    80004e9e:	4c95                	li	s9,5
    80004ea0:	62013703          	ld	a4,1568(sp)
    80004ea4:	08c7057b          	.insn	4, 0x08c7057b
    80004ea8:	64a13023          	sd	a0,1600(sp)
    80004eac:	80de850b          	.insn	4, 0x80de850b
    80004eb0:	62813503          	ld	a0,1576(sp)
    80004eb4:	08a7057b          	.insn	4, 0x08a7057b
    80004eb8:	64a13c23          	sd	a0,1624(sp)
    80004ebc:	3f85b503          	ld	a0,1016(a1)
    80004ec0:	65013583          	ld	a1,1616(sp)
    80004ec4:	0ca5857b          	.insn	4, 0x0ca5857b
    80004ec8:	64a13823          	sd	a0,1616(sp)
    80004ecc:	6008                	ld	a0,0(s0)
    80004ece:	640c                	ld	a1,8(s0)
    80004ed0:	6810                	ld	a2,16(s0)
    80004ed2:	74b6                	ld	s1,360(sp)
    80004ed4:	5e013703          	ld	a4,1504(sp)
    80004ed8:	4097070b          	.insn	4, 0x4097070b
    80004edc:	5a813783          	ld	a5,1448(sp)
    80004ee0:	5d813703          	ld	a4,1496(sp)
    80004ee4:	60f7070b          	.insn	4, 0x60f7070b
    80004ee8:	00b5050b          	.insn	4, 0x00b5050b
    80004eec:	5f013503          	ld	a0,1520(sp)
    80004ef0:	04a6057b          	.insn	4, 0x04a6057b
    80004ef4:	62a13423          	sd	a0,1576(sp)
    80004ef8:	80df850b          	.insn	4, 0x80df850b
    80004efc:	61013603          	ld	a2,1552(sp)
    80004f00:	00b6057b          	.insn	4, 0x00b6057b
    80004f04:	62a13023          	sd	a0,1568(sp)
    80004f08:	4809                	li	a6,2
    80004f0a:	80d8050b          	.insn	4, 0x80d8050b
    80004f0e:	5c013703          	ld	a4,1472(sp)
    80004f12:	00e6057b          	.insn	4, 0x00e6057b
    80004f16:	60a13823          	sd	a0,1552(sp)
    80004f1a:	6c28                	ld	a0,88(s0)
    80004f1c:	80d8858b          	.insn	4, 0x80d8858b
    80004f20:	60813583          	ld	a1,1544(sp)
    80004f24:	04a585fb          	.insn	4, 0x04a585fb
    80004f28:	60b13423          	sd	a1,1544(sp)
    80004f2c:	80dc858b          	.insn	4, 0x80dc858b
    80004f30:	7672                	ld	a2,312(sp)
    80004f32:	089605fb          	.insn	4, 0x089605fb
    80004f36:	5eb13c23          	sd	a1,1528(sp)
    80004f3a:	80de858b          	.insn	4, 0x80de858b
    80004f3e:	75d2                	ld	a1,304(sp)
    80004f40:	08b605fb          	.insn	4, 0x08b605fb
    80004f44:	5eb13823          	sd	a1,1520(sp)
    80004f48:	80d9058b          	.insn	4, 0x80d9058b
    80004f4c:	6616                	ld	a2,320(sp)
    80004f4e:	0cf605fb          	.insn	4, 0x0cf605fb
    80004f52:	5eb13023          	sd	a1,1504(sp)
    80004f56:	75b2                	ld	a1,296(sp)
    80004f58:	0cb605fb          	.insn	4, 0x0cb605fb
    80004f5c:	5cb13c23          	sd	a1,1496(sp)
    80004f60:	80df858b          	.insn	4, 0x80df858b
    80004f64:	6636                	ld	a2,328(sp)
    80004f66:	00e605fb          	.insn	4, 0x00e605fb
    80004f6a:	5cb13023          	sd	a1,1472(sp)
    80004f6e:	80d8058b          	.insn	4, 0x80d8058b
    80004f72:	4d89                	li	s11,2
    80004f74:	7592                	ld	a1,288(sp)
    80004f76:	00b605fb          	.insn	4, 0x00b605fb
    80004f7a:	5ab13c23          	sd	a1,1464(sp)
    80004f7e:	80dc058b          	.insn	4, 0x80dc058b
    80004f82:	65d6                	ld	a1,336(sp)
    80004f84:	04a5857b          	.insn	4, 0x04a5857b
    80004f88:	5aa13423          	sd	a0,1448(sp)
    80004f8c:	26043503          	ld	a0,608(s0)
    80004f90:	80dc858b          	.insn	4, 0x80dc858b
    80004f94:	61c3858b          	.insn	4, 0x61c3858b
    80004f98:	0173058b          	.insn	4, 0x0173058b
    80004f9c:	214f058b          	.insn	4, 0x214f058b
    80004fa0:	09a505fb          	.insn	4, 0x09a505fb
    80004fa4:	6605                	lui	a2,0x1
    80004fa6:	8686061b          	addiw	a2,a2,-1944 # 868 <buflen.1+0x828>
    80004faa:	960a                	add	a2,a2,sp
    80004fac:	e20c                	sd	a1,0(a2)
    80004fae:	26843583          	ld	a1,616(s0)
    80004fb2:	80de860b          	.insn	4, 0x80de860b
    80004fb6:	08b5057b          	.insn	4, 0x08b5057b
    80004fba:	6605                	lui	a2,0x1
    80004fbc:	8486061b          	addiw	a2,a2,-1976 # 848 <buflen.1+0x808>
    80004fc0:	960a                	add	a2,a2,sp
    80004fc2:	e208                	sd	a0,0(a2)
    80004fc4:	27043503          	ld	a0,624(s0)
    80004fc8:	80d9060b          	.insn	4, 0x80d9060b
    80004fcc:	0dc5067b          	.insn	4, 0x0dc5067b
    80004fd0:	6705                	lui	a4,0x1
    80004fd2:	8207071b          	addiw	a4,a4,-2016 # 820 <buflen.1+0x7e0>
    80004fd6:	970a                	add	a4,a4,sp
    80004fd8:	e310                	sd	a2,0(a4)
    80004fda:	6605                	lui	a2,0x1
    80004fdc:	fb06061b          	addiw	a2,a2,-80 # fb0 <buflen.1+0xf70>
    80004fe0:	960a                	add	a2,a2,sp
    80004fe2:	6210                	ld	a2,0(a2)
    80004fe4:	3c800813          	li	a6,968
    80004fe8:	03060633          	mul	a2,a2,a6
    80004fec:	7282                	ld	t0,32(sp)
    80004fee:	00c289b3          	add	s3,t0,a2
    80004ff2:	6605                	lui	a2,0x1
    80004ff4:	bf06061b          	addiw	a2,a2,-1040 # bf0 <buflen.1+0xbb0>
    80004ff8:	960a                	add	a2,a2,sp
    80004ffa:	6210                	ld	a2,0(a2)
    80004ffc:	00c9b023          	sd	a2,0(s3)
    80005000:	6605                	lui	a2,0x1
    80005002:	be86061b          	addiw	a2,a2,-1048 # be8 <buflen.1+0xba8>
    80005006:	960a                	add	a2,a2,sp
    80005008:	6210                	ld	a2,0(a2)
    8000500a:	00c9b423          	sd	a2,8(s3)
    8000500e:	27843603          	ld	a2,632(s0)
    80005012:	0cc5057b          	.insn	4, 0x0cc5057b
    80005016:	6705                	lui	a4,0x1
    80005018:	bf07071b          	addiw	a4,a4,-1040 # bf0 <buflen.1+0xbb0>
    8000501c:	970a                	add	a4,a4,sp
    8000501e:	e308                	sd	a0,0(a4)
    80005020:	6505                	lui	a0,0x1
    80005022:	be05051b          	addiw	a0,a0,-1056 # be0 <buflen.1+0xba0>
    80005026:	950a                	add	a0,a0,sp
    80005028:	6108                	ld	a0,0(a0)
    8000502a:	00a9b823          	sd	a0,16(s3)
    8000502e:	6505                	lui	a0,0x1
    80005030:	bd85051b          	addiw	a0,a0,-1064 # bd8 <buflen.1+0xb98>
    80005034:	950a                	add	a0,a0,sp
    80005036:	6108                	ld	a0,0(a0)
    80005038:	00a9bc23          	sd	a0,24(s3)
    8000503c:	6505                	lui	a0,0x1
    8000503e:	bd05051b          	addiw	a0,a0,-1072 # bd0 <buflen.1+0xb90>
    80005042:	950a                	add	a0,a0,sp
    80005044:	6108                	ld	a0,0(a0)
    80005046:	02a9b023          	sd	a0,32(s3)
    8000504a:	6505                	lui	a0,0x1
    8000504c:	bc05051b          	addiw	a0,a0,-1088 # bc0 <buflen.1+0xb80>
    80005050:	950a                	add	a0,a0,sp
    80005052:	6108                	ld	a0,0(a0)
    80005054:	02a9b423          	sd	a0,40(s3)
    80005058:	28043503          	ld	a0,640(s0)
    8000505c:	80df870b          	.insn	4, 0x80df870b
    80005060:	0175077b          	.insn	4, 0x0175077b
    80005064:	6785                	lui	a5,0x1
    80005066:	be87879b          	addiw	a5,a5,-1048 # be8 <buflen.1+0xba8>
    8000506a:	978a                	add	a5,a5,sp
    8000506c:	e398                	sd	a4,0(a5)
    8000506e:	6705                	lui	a4,0x1
    80005070:	bc87071b          	addiw	a4,a4,-1080 # bc8 <buflen.1+0xb88>
    80005074:	970a                	add	a4,a4,sp
    80005076:	6318                	ld	a4,0(a4)
    80005078:	02e9b823          	sd	a4,48(s3)
    8000507c:	6705                	lui	a4,0x1
    8000507e:	bb87071b          	addiw	a4,a4,-1096 # bb8 <buflen.1+0xb78>
    80005082:	970a                	add	a4,a4,sp
    80005084:	6318                	ld	a4,0(a4)
    80005086:	02e9bc23          	sd	a4,56(s3)
    8000508a:	6705                	lui	a4,0x1
    8000508c:	bb07071b          	addiw	a4,a4,-1104 # bb0 <buflen.1+0xb70>
    80005090:	970a                	add	a4,a4,sp
    80005092:	6318                	ld	a4,0(a4)
    80005094:	04e9b023          	sd	a4,64(s3)
    80005098:	6705                	lui	a4,0x1
    8000509a:	ba07071b          	addiw	a4,a4,-1120 # ba0 <buflen.1+0xb60>
    8000509e:	970a                	add	a4,a4,sp
    800050a0:	6318                	ld	a4,0(a4)
    800050a2:	04e9b423          	sd	a4,72(s3)
    800050a6:	28843703          	ld	a4,648(s0)
    800050aa:	80dd878b          	.insn	4, 0x80dd878b
    800050ae:	00e5057b          	.insn	4, 0x00e5057b
    800050b2:	6785                	lui	a5,0x1
    800050b4:	be07879b          	addiw	a5,a5,-1056 # be0 <buflen.1+0xba0>
    800050b8:	978a                	add	a5,a5,sp
    800050ba:	e388                	sd	a0,0(a5)
    800050bc:	6505                	lui	a0,0x1
    800050be:	ba85051b          	addiw	a0,a0,-1112 # ba8 <buflen.1+0xb68>
    800050c2:	950a                	add	a0,a0,sp
    800050c4:	6108                	ld	a0,0(a0)
    800050c6:	04a9b823          	sd	a0,80(s3)
    800050ca:	6505                	lui	a0,0x1
    800050cc:	b985051b          	addiw	a0,a0,-1128 # b98 <buflen.1+0xb58>
    800050d0:	950a                	add	a0,a0,sp
    800050d2:	6108                	ld	a0,0(a0)
    800050d4:	04a9bc23          	sd	a0,88(s3)
    800050d8:	6505                	lui	a0,0x1
    800050da:	b905051b          	addiw	a0,a0,-1136 # b90 <buflen.1+0xb50>
    800050de:	950a                	add	a0,a0,sp
    800050e0:	6108                	ld	a0,0(a0)
    800050e2:	06a9b023          	sd	a0,96(s3)
    800050e6:	6505                	lui	a0,0x1
    800050e8:	b805051b          	addiw	a0,a0,-1152 # b80 <buflen.1+0xb40>
    800050ec:	950a                	add	a0,a0,sp
    800050ee:	6108                	ld	a0,0(a0)
    800050f0:	06a9b423          	sd	a0,104(s3)
    800050f4:	29043503          	ld	a0,656(s0)
    800050f8:	80dc078b          	.insn	4, 0x80dc078b
    800050fc:	054507fb          	.insn	4, 0x054507fb
    80005100:	6305                	lui	t1,0x1
    80005102:	bd83031b          	addiw	t1,t1,-1064 # bd8 <buflen.1+0xb98>
    80005106:	930a                	add	t1,t1,sp
    80005108:	00f33023          	sd	a5,0(t1)
    8000510c:	6785                	lui	a5,0x1
    8000510e:	b887879b          	addiw	a5,a5,-1144 # b88 <buflen.1+0xb48>
    80005112:	978a                	add	a5,a5,sp
    80005114:	639c                	ld	a5,0(a5)
    80005116:	06f9b823          	sd	a5,112(s3)
    8000511a:	6785                	lui	a5,0x1
    8000511c:	b787879b          	addiw	a5,a5,-1160 # b78 <buflen.1+0xb38>
    80005120:	978a                	add	a5,a5,sp
    80005122:	639c                	ld	a5,0(a5)
    80005124:	06f9bc23          	sd	a5,120(s3)
    80005128:	6785                	lui	a5,0x1
    8000512a:	b707879b          	addiw	a5,a5,-1168 # b70 <buflen.1+0xb30>
    8000512e:	978a                	add	a5,a5,sp
    80005130:	639c                	ld	a5,0(a5)
    80005132:	08f9b023          	sd	a5,128(s3)
    80005136:	6785                	lui	a5,0x1
    80005138:	b607879b          	addiw	a5,a5,-1184 # b60 <buflen.1+0xb20>
    8000513c:	978a                	add	a5,a5,sp
    8000513e:	639c                	ld	a5,0(a5)
    80005140:	08f9b423          	sd	a5,136(s3)
    80005144:	29843783          	ld	a5,664(s0)
    80005148:	80d8848b          	.insn	4, 0x80d8848b
    8000514c:	04f5057b          	.insn	4, 0x04f5057b
    80005150:	6305                	lui	t1,0x1
    80005152:	bd03031b          	addiw	t1,t1,-1072 # bd0 <buflen.1+0xb90>
    80005156:	930a                	add	t1,t1,sp
    80005158:	00a33023          	sd	a0,0(t1)
    8000515c:	6505                	lui	a0,0x1
    8000515e:	b685051b          	addiw	a0,a0,-1176 # b68 <buflen.1+0xb28>
    80005162:	950a                	add	a0,a0,sp
    80005164:	6108                	ld	a0,0(a0)
    80005166:	08a9b823          	sd	a0,144(s3)
    8000516a:	6505                	lui	a0,0x1
    8000516c:	b585051b          	addiw	a0,a0,-1192 # b58 <buflen.1+0xb18>
    80005170:	950a                	add	a0,a0,sp
    80005172:	6108                	ld	a0,0(a0)
    80005174:	08a9bc23          	sd	a0,152(s3)
    80005178:	6505                	lui	a0,0x1
    8000517a:	b505051b          	addiw	a0,a0,-1200 # b50 <buflen.1+0xb10>
    8000517e:	950a                	add	a0,a0,sp
    80005180:	6108                	ld	a0,0(a0)
    80005182:	0aa9b023          	sd	a0,160(s3)
    80005186:	6505                	lui	a0,0x1
    80005188:	b405051b          	addiw	a0,a0,-1216 # b40 <buflen.1+0xb00>
    8000518c:	950a                	add	a0,a0,sp
    8000518e:	6108                	ld	a0,0(a0)
    80005190:	0aa9b423          	sd	a0,168(s3)
    80005194:	2a043503          	ld	a0,672(s0)
    80005198:	80dc848b          	.insn	4, 0x80dc848b
    8000519c:	08b505fb          	.insn	4, 0x08b505fb
    800051a0:	6305                	lui	t1,0x1
    800051a2:	bc83031b          	addiw	t1,t1,-1080 # bc8 <buflen.1+0xb88>
    800051a6:	930a                	add	t1,t1,sp
    800051a8:	00b33023          	sd	a1,0(t1)
    800051ac:	6585                	lui	a1,0x1
    800051ae:	b485859b          	addiw	a1,a1,-1208 # b48 <buflen.1+0xb08>
    800051b2:	958a                	add	a1,a1,sp
    800051b4:	618c                	ld	a1,0(a1)
    800051b6:	0ab9b823          	sd	a1,176(s3)
    800051ba:	6585                	lui	a1,0x1
    800051bc:	b385859b          	addiw	a1,a1,-1224 # b38 <buflen.1+0xaf8>
    800051c0:	958a                	add	a1,a1,sp
    800051c2:	618c                	ld	a1,0(a1)
    800051c4:	0ab9bc23          	sd	a1,184(s3)
    800051c8:	6585                	lui	a1,0x1
    800051ca:	b305859b          	addiw	a1,a1,-1232 # b30 <buflen.1+0xaf0>
    800051ce:	958a                	add	a1,a1,sp
    800051d0:	618c                	ld	a1,0(a1)
    800051d2:	0cb9b023          	sd	a1,192(s3)
    800051d6:	6585                	lui	a1,0x1
    800051d8:	b205859b          	addiw	a1,a1,-1248 # b20 <buflen.1+0xae0>
    800051dc:	958a                	add	a1,a1,sp
    800051de:	618c                	ld	a1,0(a1)
    800051e0:	0cb9b423          	sd	a1,200(s3)
    800051e4:	2a843583          	ld	a1,680(s0)
    800051e8:	80de848b          	.insn	4, 0x80de848b
    800051ec:	08b5057b          	.insn	4, 0x08b5057b
    800051f0:	6305                	lui	t1,0x1
    800051f2:	bc03031b          	addiw	t1,t1,-1088 # bc0 <buflen.1+0xb80>
    800051f6:	930a                	add	t1,t1,sp
    800051f8:	00a33023          	sd	a0,0(t1)
    800051fc:	6505                	lui	a0,0x1
    800051fe:	b285051b          	addiw	a0,a0,-1240 # b28 <buflen.1+0xae8>
    80005202:	950a                	add	a0,a0,sp
    80005204:	6108                	ld	a0,0(a0)
    80005206:	0ca9b823          	sd	a0,208(s3)
    8000520a:	6505                	lui	a0,0x1
    8000520c:	b185051b          	addiw	a0,a0,-1256 # b18 <buflen.1+0xad8>
    80005210:	950a                	add	a0,a0,sp
    80005212:	6108                	ld	a0,0(a0)
    80005214:	0ca9bc23          	sd	a0,216(s3)
    80005218:	6505                	lui	a0,0x1
    8000521a:	b105051b          	addiw	a0,a0,-1264 # b10 <buflen.1+0xad0>
    8000521e:	950a                	add	a0,a0,sp
    80005220:	6108                	ld	a0,0(a0)
    80005222:	0ea9b023          	sd	a0,224(s3)
    80005226:	6505                	lui	a0,0x1
    80005228:	b005051b          	addiw	a0,a0,-1280 # b00 <buflen.1+0xac0>
    8000522c:	950a                	add	a0,a0,sp
    8000522e:	6108                	ld	a0,0(a0)
    80005230:	0ea9b423          	sd	a0,232(s3)
    80005234:	2b043503          	ld	a0,688(s0)
    80005238:	80d9048b          	.insn	4, 0x80d9048b
    8000523c:	0cc5067b          	.insn	4, 0x0cc5067b
    80005240:	6305                	lui	t1,0x1
    80005242:	bb83031b          	addiw	t1,t1,-1096 # bb8 <buflen.1+0xb78>
    80005246:	930a                	add	t1,t1,sp
    80005248:	00c33023          	sd	a2,0(t1)
    8000524c:	6605                	lui	a2,0x1
    8000524e:	b086061b          	addiw	a2,a2,-1272 # b08 <buflen.1+0xac8>
    80005252:	960a                	add	a2,a2,sp
    80005254:	6210                	ld	a2,0(a2)
    80005256:	0ec9b823          	sd	a2,240(s3)
    8000525a:	6605                	lui	a2,0x1
    8000525c:	af86061b          	addiw	a2,a2,-1288 # af8 <buflen.1+0xab8>
    80005260:	960a                	add	a2,a2,sp
    80005262:	6210                	ld	a2,0(a2)
    80005264:	0ec9bc23          	sd	a2,248(s3)
    80005268:	6605                	lui	a2,0x1
    8000526a:	af06061b          	addiw	a2,a2,-1296 # af0 <buflen.1+0xab0>
    8000526e:	960a                	add	a2,a2,sp
    80005270:	6210                	ld	a2,0(a2)
    80005272:	10c9b023          	sd	a2,256(s3)
    80005276:	6605                	lui	a2,0x1
    80005278:	ae86061b          	addiw	a2,a2,-1304 # ae8 <buflen.1+0xaa8>
    8000527c:	960a                	add	a2,a2,sp
    8000527e:	6210                	ld	a2,0(a2)
    80005280:	10c9b423          	sd	a2,264(s3)
    80005284:	2b843603          	ld	a2,696(s0)
    80005288:	0cc5057b          	.insn	4, 0x0cc5057b
    8000528c:	6305                	lui	t1,0x1
    8000528e:	bb03031b          	addiw	t1,t1,-1104 # bb0 <buflen.1+0xb70>
    80005292:	930a                	add	t1,t1,sp
    80005294:	00a33023          	sd	a0,0(t1)
    80005298:	6505                	lui	a0,0x1
    8000529a:	ae05051b          	addiw	a0,a0,-1312 # ae0 <buflen.1+0xaa0>
    8000529e:	950a                	add	a0,a0,sp
    800052a0:	6108                	ld	a0,0(a0)
    800052a2:	10a9b823          	sd	a0,272(s3)
    800052a6:	6505                	lui	a0,0x1
    800052a8:	ad85051b          	addiw	a0,a0,-1320 # ad8 <buflen.1+0xa98>
    800052ac:	950a                	add	a0,a0,sp
    800052ae:	6108                	ld	a0,0(a0)
    800052b0:	10a9bc23          	sd	a0,280(s3)
    800052b4:	6505                	lui	a0,0x1
    800052b6:	ad05051b          	addiw	a0,a0,-1328 # ad0 <buflen.1+0xa90>
    800052ba:	950a                	add	a0,a0,sp
    800052bc:	6108                	ld	a0,0(a0)
    800052be:	12a9b023          	sd	a0,288(s3)
    800052c2:	6505                	lui	a0,0x1
    800052c4:	ac05051b          	addiw	a0,a0,-1344 # ac0 <buflen.1+0xa80>
    800052c8:	950a                	add	a0,a0,sp
    800052ca:	6108                	ld	a0,0(a0)
    800052cc:	12a9b423          	sd	a0,296(s3)
    800052d0:	2c043503          	ld	a0,704(s0)
    800052d4:	80df848b          	.insn	4, 0x80df848b
    800052d8:	00e5077b          	.insn	4, 0x00e5077b
    800052dc:	6305                	lui	t1,0x1
    800052de:	ba83031b          	addiw	t1,t1,-1112 # ba8 <buflen.1+0xb68>
    800052e2:	930a                	add	t1,t1,sp
    800052e4:	00e33023          	sd	a4,0(t1)
    800052e8:	6705                	lui	a4,0x1
    800052ea:	ac87071b          	addiw	a4,a4,-1336 # ac8 <buflen.1+0xa88>
    800052ee:	970a                	add	a4,a4,sp
    800052f0:	6318                	ld	a4,0(a4)
    800052f2:	12e9b823          	sd	a4,304(s3)
    800052f6:	6705                	lui	a4,0x1
    800052f8:	ab87071b          	addiw	a4,a4,-1352 # ab8 <buflen.1+0xa78>
    800052fc:	970a                	add	a4,a4,sp
    800052fe:	6318                	ld	a4,0(a4)
    80005300:	12e9bc23          	sd	a4,312(s3)
    80005304:	6705                	lui	a4,0x1
    80005306:	ab07071b          	addiw	a4,a4,-1360 # ab0 <buflen.1+0xa70>
    8000530a:	970a                	add	a4,a4,sp
    8000530c:	6318                	ld	a4,0(a4)
    8000530e:	14e9b023          	sd	a4,320(s3)
    80005312:	6705                	lui	a4,0x1
    80005314:	aa07071b          	addiw	a4,a4,-1376 # aa0 <buflen.1+0xa60>
    80005318:	970a                	add	a4,a4,sp
    8000531a:	6318                	ld	a4,0(a4)
    8000531c:	14e9b423          	sd	a4,328(s3)
    80005320:	2c843703          	ld	a4,712(s0)
    80005324:	80dd848b          	.insn	4, 0x80dd848b
    80005328:	00e5057b          	.insn	4, 0x00e5057b
    8000532c:	6305                	lui	t1,0x1
    8000532e:	ba03031b          	addiw	t1,t1,-1120 # ba0 <buflen.1+0xb60>
    80005332:	930a                	add	t1,t1,sp
    80005334:	00a33023          	sd	a0,0(t1)
    80005338:	6505                	lui	a0,0x1
    8000533a:	aa85051b          	addiw	a0,a0,-1368 # aa8 <buflen.1+0xa68>
    8000533e:	950a                	add	a0,a0,sp
    80005340:	6108                	ld	a0,0(a0)
    80005342:	14a9b823          	sd	a0,336(s3)
    80005346:	6505                	lui	a0,0x1
    80005348:	a985051b          	addiw	a0,a0,-1384 # a98 <buflen.1+0xa58>
    8000534c:	950a                	add	a0,a0,sp
    8000534e:	6108                	ld	a0,0(a0)
    80005350:	14a9bc23          	sd	a0,344(s3)
    80005354:	6505                	lui	a0,0x1
    80005356:	a905051b          	addiw	a0,a0,-1392 # a90 <buflen.1+0xa50>
    8000535a:	950a                	add	a0,a0,sp
    8000535c:	6108                	ld	a0,0(a0)
    8000535e:	16a9b023          	sd	a0,352(s3)
    80005362:	6505                	lui	a0,0x1
    80005364:	a805051b          	addiw	a0,a0,-1408 # a80 <buflen.1+0xa40>
    80005368:	950a                	add	a0,a0,sp
    8000536a:	6108                	ld	a0,0(a0)
    8000536c:	16a9b423          	sd	a0,360(s3)
    80005370:	2d043503          	ld	a0,720(s0)
    80005374:	80dc048b          	.insn	4, 0x80dc048b
    80005378:	04f507fb          	.insn	4, 0x04f507fb
    8000537c:	6305                	lui	t1,0x1
    8000537e:	b983031b          	addiw	t1,t1,-1128 # b98 <buflen.1+0xb58>
    80005382:	930a                	add	t1,t1,sp
    80005384:	00f33023          	sd	a5,0(t1)
    80005388:	6785                	lui	a5,0x1
    8000538a:	a887879b          	addiw	a5,a5,-1400 # a88 <buflen.1+0xa48>
    8000538e:	978a                	add	a5,a5,sp
    80005390:	639c                	ld	a5,0(a5)
    80005392:	16f9b823          	sd	a5,368(s3)
    80005396:	6785                	lui	a5,0x1
    80005398:	a787879b          	addiw	a5,a5,-1416 # a78 <buflen.1+0xa38>
    8000539c:	978a                	add	a5,a5,sp
    8000539e:	639c                	ld	a5,0(a5)
    800053a0:	16f9bc23          	sd	a5,376(s3)
    800053a4:	6785                	lui	a5,0x1
    800053a6:	a687879b          	addiw	a5,a5,-1432 # a68 <buflen.1+0xa28>
    800053aa:	978a                	add	a5,a5,sp
    800053ac:	639c                	ld	a5,0(a5)
    800053ae:	18f9b023          	sd	a5,384(s3)
    800053b2:	6785                	lui	a5,0x1
    800053b4:	a507879b          	addiw	a5,a5,-1456 # a50 <buflen.1+0xa10>
    800053b8:	978a                	add	a5,a5,sp
    800053ba:	639c                	ld	a5,0(a5)
    800053bc:	18f9b423          	sd	a5,392(s3)
    800053c0:	2d843783          	ld	a5,728(s0)
    800053c4:	80d8848b          	.insn	4, 0x80d8848b
    800053c8:	04f5057b          	.insn	4, 0x04f5057b
    800053cc:	6305                	lui	t1,0x1
    800053ce:	b903031b          	addiw	t1,t1,-1136 # b90 <buflen.1+0xb50>
    800053d2:	930a                	add	t1,t1,sp
    800053d4:	00a33023          	sd	a0,0(t1)
    800053d8:	6505                	lui	a0,0x1
    800053da:	a605051b          	addiw	a0,a0,-1440 # a60 <buflen.1+0xa20>
    800053de:	950a                	add	a0,a0,sp
    800053e0:	6108                	ld	a0,0(a0)
    800053e2:	18a9b823          	sd	a0,400(s3)
    800053e6:	6505                	lui	a0,0x1
    800053e8:	a405051b          	addiw	a0,a0,-1472 # a40 <buflen.1+0xa00>
    800053ec:	950a                	add	a0,a0,sp
    800053ee:	6108                	ld	a0,0(a0)
    800053f0:	18a9bc23          	sd	a0,408(s3)
    800053f4:	6505                	lui	a0,0x1
    800053f6:	a305051b          	addiw	a0,a0,-1488 # a30 <buflen.1+0x9f0>
    800053fa:	950a                	add	a0,a0,sp
    800053fc:	6108                	ld	a0,0(a0)
    800053fe:	1aa9b023          	sd	a0,416(s3)
    80005402:	6505                	lui	a0,0x1
    80005404:	a185051b          	addiw	a0,a0,-1512 # a18 <buflen.1+0x9d8>
    80005408:	950a                	add	a0,a0,sp
    8000540a:	6108                	ld	a0,0(a0)
    8000540c:	1aa9b423          	sd	a0,424(s3)
    80005410:	2e043503          	ld	a0,736(s0)
    80005414:	80dc848b          	.insn	4, 0x80dc848b
    80005418:	08b505fb          	.insn	4, 0x08b505fb
    8000541c:	6305                	lui	t1,0x1
    8000541e:	b883031b          	addiw	t1,t1,-1144 # b88 <buflen.1+0xb48>
    80005422:	930a                	add	t1,t1,sp
    80005424:	00b33023          	sd	a1,0(t1)
    80005428:	6585                	lui	a1,0x1
    8000542a:	a285859b          	addiw	a1,a1,-1496 # a28 <buflen.1+0x9e8>
    8000542e:	958a                	add	a1,a1,sp
    80005430:	618c                	ld	a1,0(a1)
    80005432:	1ab9b823          	sd	a1,432(s3)
    80005436:	6585                	lui	a1,0x1
    80005438:	a105859b          	addiw	a1,a1,-1520 # a10 <buflen.1+0x9d0>
    8000543c:	958a                	add	a1,a1,sp
    8000543e:	618c                	ld	a1,0(a1)
    80005440:	1ab9bc23          	sd	a1,440(s3)
    80005444:	6585                	lui	a1,0x1
    80005446:	a005859b          	addiw	a1,a1,-1536 # a00 <buflen.1+0x9c0>
    8000544a:	958a                	add	a1,a1,sp
    8000544c:	618c                	ld	a1,0(a1)
    8000544e:	1cb9b023          	sd	a1,448(s3)
    80005452:	6585                	lui	a1,0x1
    80005454:	9e05859b          	addiw	a1,a1,-1568 # 9e0 <buflen.1+0x9a0>
    80005458:	958a                	add	a1,a1,sp
    8000545a:	618c                	ld	a1,0(a1)
    8000545c:	1cb9b423          	sd	a1,456(s3)
    80005460:	2e843583          	ld	a1,744(s0)
    80005464:	80de848b          	.insn	4, 0x80de848b
    80005468:	08b5057b          	.insn	4, 0x08b5057b
    8000546c:	6305                	lui	t1,0x1
    8000546e:	b803031b          	addiw	t1,t1,-1152 # b80 <buflen.1+0xb40>
    80005472:	930a                	add	t1,t1,sp
    80005474:	00a33023          	sd	a0,0(t1)
    80005478:	6505                	lui	a0,0x1
    8000547a:	9f05051b          	addiw	a0,a0,-1552 # 9f0 <buflen.1+0x9b0>
    8000547e:	950a                	add	a0,a0,sp
    80005480:	6108                	ld	a0,0(a0)
    80005482:	1ca9b823          	sd	a0,464(s3)
    80005486:	6505                	lui	a0,0x1
    80005488:	9d05051b          	addiw	a0,a0,-1584 # 9d0 <buflen.1+0x990>
    8000548c:	950a                	add	a0,a0,sp
    8000548e:	6108                	ld	a0,0(a0)
    80005490:	1ca9bc23          	sd	a0,472(s3)
    80005494:	6505                	lui	a0,0x1
    80005496:	9b05051b          	addiw	a0,a0,-1616 # 9b0 <buflen.1+0x970>
    8000549a:	950a                	add	a0,a0,sp
    8000549c:	6108                	ld	a0,0(a0)
    8000549e:	1ea9b023          	sd	a0,480(s3)
    800054a2:	6505                	lui	a0,0x1
    800054a4:	9885051b          	addiw	a0,a0,-1656 # 988 <buflen.1+0x948>
    800054a8:	950a                	add	a0,a0,sp
    800054aa:	6108                	ld	a0,0(a0)
    800054ac:	1ea9b423          	sd	a0,488(s3)
    800054b0:	2f043503          	ld	a0,752(s0)
    800054b4:	80d9048b          	.insn	4, 0x80d9048b
    800054b8:	0cc5067b          	.insn	4, 0x0cc5067b
    800054bc:	6305                	lui	t1,0x1
    800054be:	b783031b          	addiw	t1,t1,-1160 # b78 <buflen.1+0xb38>
    800054c2:	930a                	add	t1,t1,sp
    800054c4:	00c33023          	sd	a2,0(t1)
    800054c8:	6605                	lui	a2,0x1
    800054ca:	9986061b          	addiw	a2,a2,-1640 # 998 <buflen.1+0x958>
    800054ce:	960a                	add	a2,a2,sp
    800054d0:	6210                	ld	a2,0(a2)
    800054d2:	1ec9b823          	sd	a2,496(s3)
    800054d6:	6605                	lui	a2,0x1
    800054d8:	9806061b          	addiw	a2,a2,-1664 # 980 <buflen.1+0x940>
    800054dc:	960a                	add	a2,a2,sp
    800054de:	6210                	ld	a2,0(a2)
    800054e0:	1ec9bc23          	sd	a2,504(s3)
    800054e4:	6605                	lui	a2,0x1
    800054e6:	9706061b          	addiw	a2,a2,-1680 # 970 <buflen.1+0x930>
    800054ea:	960a                	add	a2,a2,sp
    800054ec:	6210                	ld	a2,0(a2)
    800054ee:	20c9b023          	sd	a2,512(s3)
    800054f2:	6605                	lui	a2,0x1
    800054f4:	9486061b          	addiw	a2,a2,-1720 # 948 <buflen.1+0x908>
    800054f8:	960a                	add	a2,a2,sp
    800054fa:	6210                	ld	a2,0(a2)
    800054fc:	20c9b423          	sd	a2,520(s3)
    80005500:	2f843603          	ld	a2,760(s0)
    80005504:	0cc5057b          	.insn	4, 0x0cc5057b
    80005508:	6305                	lui	t1,0x1
    8000550a:	b703031b          	addiw	t1,t1,-1168 # b70 <buflen.1+0xb30>
    8000550e:	930a                	add	t1,t1,sp
    80005510:	00a33023          	sd	a0,0(t1)
    80005514:	6505                	lui	a0,0x1
    80005516:	9405051b          	addiw	a0,a0,-1728 # 940 <buflen.1+0x900>
    8000551a:	950a                	add	a0,a0,sp
    8000551c:	6108                	ld	a0,0(a0)
    8000551e:	20a9b823          	sd	a0,528(s3)
    80005522:	6505                	lui	a0,0x1
    80005524:	9285051b          	addiw	a0,a0,-1752 # 928 <buflen.1+0x8e8>
    80005528:	950a                	add	a0,a0,sp
    8000552a:	6108                	ld	a0,0(a0)
    8000552c:	20a9bc23          	sd	a0,536(s3)
    80005530:	6505                	lui	a0,0x1
    80005532:	9105051b          	addiw	a0,a0,-1776 # 910 <buflen.1+0x8d0>
    80005536:	950a                	add	a0,a0,sp
    80005538:	6108                	ld	a0,0(a0)
    8000553a:	22a9b023          	sd	a0,544(s3)
    8000553e:	6505                	lui	a0,0x1
    80005540:	8f85051b          	addiw	a0,a0,-1800 # 8f8 <buflen.1+0x8b8>
    80005544:	950a                	add	a0,a0,sp
    80005546:	6108                	ld	a0,0(a0)
    80005548:	22a9b423          	sd	a0,552(s3)
    8000554c:	30043503          	ld	a0,768(s0)
    80005550:	80df848b          	.insn	4, 0x80df848b
    80005554:	00e5077b          	.insn	4, 0x00e5077b
    80005558:	6305                	lui	t1,0x1
    8000555a:	b683031b          	addiw	t1,t1,-1176 # b68 <buflen.1+0xb28>
    8000555e:	930a                	add	t1,t1,sp
    80005560:	00e33023          	sd	a4,0(t1)
    80005564:	6705                	lui	a4,0x1
    80005566:	9087071b          	addiw	a4,a4,-1784 # 908 <buflen.1+0x8c8>
    8000556a:	970a                	add	a4,a4,sp
    8000556c:	6318                	ld	a4,0(a4)
    8000556e:	22e9b823          	sd	a4,560(s3)
    80005572:	6705                	lui	a4,0x1
    80005574:	8d87071b          	addiw	a4,a4,-1832 # 8d8 <buflen.1+0x898>
    80005578:	970a                	add	a4,a4,sp
    8000557a:	6318                	ld	a4,0(a4)
    8000557c:	22e9bc23          	sd	a4,568(s3)
    80005580:	6705                	lui	a4,0x1
    80005582:	8c07071b          	addiw	a4,a4,-1856 # 8c0 <buflen.1+0x880>
    80005586:	970a                	add	a4,a4,sp
    80005588:	6318                	ld	a4,0(a4)
    8000558a:	24e9b023          	sd	a4,576(s3)
    8000558e:	6705                	lui	a4,0x1
    80005590:	8887071b          	addiw	a4,a4,-1912 # 888 <buflen.1+0x848>
    80005594:	970a                	add	a4,a4,sp
    80005596:	6318                	ld	a4,0(a4)
    80005598:	24e9b423          	sd	a4,584(s3)
    8000559c:	30843703          	ld	a4,776(s0)
    800055a0:	80dd848b          	.insn	4, 0x80dd848b
    800055a4:	00e5057b          	.insn	4, 0x00e5057b
    800055a8:	6305                	lui	t1,0x1
    800055aa:	b603031b          	addiw	t1,t1,-1184 # b60 <buflen.1+0xb20>
    800055ae:	930a                	add	t1,t1,sp
    800055b0:	00a33023          	sd	a0,0(t1)
    800055b4:	6505                	lui	a0,0x1
    800055b6:	8a05051b          	addiw	a0,a0,-1888 # 8a0 <buflen.1+0x860>
    800055ba:	950a                	add	a0,a0,sp
    800055bc:	6108                	ld	a0,0(a0)
    800055be:	24a9b823          	sd	a0,592(s3)
    800055c2:	6505                	lui	a0,0x1
    800055c4:	8705051b          	addiw	a0,a0,-1936 # 870 <buflen.1+0x830>
    800055c8:	950a                	add	a0,a0,sp
    800055ca:	6108                	ld	a0,0(a0)
    800055cc:	24a9bc23          	sd	a0,600(s3)
    800055d0:	6505                	lui	a0,0x1
    800055d2:	8585051b          	addiw	a0,a0,-1960 # 858 <buflen.1+0x818>
    800055d6:	950a                	add	a0,a0,sp
    800055d8:	6108                	ld	a0,0(a0)
    800055da:	26a9b023          	sd	a0,608(s3)
    800055de:	6505                	lui	a0,0x1
    800055e0:	8305051b          	addiw	a0,a0,-2000 # 830 <buflen.1+0x7f0>
    800055e4:	950a                	add	a0,a0,sp
    800055e6:	6108                	ld	a0,0(a0)
    800055e8:	26a9b423          	sd	a0,616(s3)
    800055ec:	31043503          	ld	a0,784(s0)
    800055f0:	80dc048b          	.insn	4, 0x80dc048b
    800055f4:	04f507fb          	.insn	4, 0x04f507fb
    800055f8:	6305                	lui	t1,0x1
    800055fa:	b583031b          	addiw	t1,t1,-1192 # b58 <buflen.1+0xb18>
    800055fe:	930a                	add	t1,t1,sp
    80005600:	00f33023          	sd	a5,0(t1)
    80005604:	6785                	lui	a5,0x1
    80005606:	8407879b          	addiw	a5,a5,-1984 # 840 <buflen.1+0x800>
    8000560a:	978a                	add	a5,a5,sp
    8000560c:	639c                	ld	a5,0(a5)
    8000560e:	26f9b823          	sd	a5,624(s3)
    80005612:	6785                	lui	a5,0x1
    80005614:	8187879b          	addiw	a5,a5,-2024 # 818 <buflen.1+0x7d8>
    80005618:	978a                	add	a5,a5,sp
    8000561a:	639c                	ld	a5,0(a5)
    8000561c:	26f9bc23          	sd	a5,632(s3)
    80005620:	6785                	lui	a5,0x1
    80005622:	8107879b          	addiw	a5,a5,-2032 # 810 <buflen.1+0x7d0>
    80005626:	978a                	add	a5,a5,sp
    80005628:	639c                	ld	a5,0(a5)
    8000562a:	28f9b023          	sd	a5,640(s3)
    8000562e:	7f813783          	ld	a5,2040(sp)
    80005632:	28f9b423          	sd	a5,648(s3)
    80005636:	31843783          	ld	a5,792(s0)
    8000563a:	80d8848b          	.insn	4, 0x80d8848b
    8000563e:	04f5057b          	.insn	4, 0x04f5057b
    80005642:	6305                	lui	t1,0x1
    80005644:	b503031b          	addiw	t1,t1,-1200 # b50 <buflen.1+0xb10>
    80005648:	930a                	add	t1,t1,sp
    8000564a:	00a33023          	sd	a0,0(t1)
    8000564e:	6505                	lui	a0,0x1
    80005650:	8005051b          	addiw	a0,a0,-2048 # 800 <buflen.1+0x7c0>
    80005654:	950a                	add	a0,a0,sp
    80005656:	6108                	ld	a0,0(a0)
    80005658:	28a9b823          	sd	a0,656(s3)
    8000565c:	7e013503          	ld	a0,2016(sp)
    80005660:	28a9bc23          	sd	a0,664(s3)
    80005664:	7d013503          	ld	a0,2000(sp)
    80005668:	2aa9b023          	sd	a0,672(s3)
    8000566c:	7b013503          	ld	a0,1968(sp)
    80005670:	2aa9b423          	sd	a0,680(s3)
    80005674:	32043503          	ld	a0,800(s0)
    80005678:	80dc848b          	.insn	4, 0x80dc848b
    8000567c:	08b505fb          	.insn	4, 0x08b505fb
    80005680:	6305                	lui	t1,0x1
    80005682:	b483031b          	addiw	t1,t1,-1208 # b48 <buflen.1+0xb08>
    80005686:	930a                	add	t1,t1,sp
    80005688:	00b33023          	sd	a1,0(t1)
    8000568c:	7c013583          	ld	a1,1984(sp)
    80005690:	2ab9b823          	sd	a1,688(s3)
    80005694:	7a013583          	ld	a1,1952(sp)
    80005698:	2ab9bc23          	sd	a1,696(s3)
    8000569c:	79813583          	ld	a1,1944(sp)
    800056a0:	2cb9b023          	sd	a1,704(s3)
    800056a4:	78813583          	ld	a1,1928(sp)
    800056a8:	2cb9b423          	sd	a1,712(s3)
    800056ac:	32843583          	ld	a1,808(s0)
    800056b0:	80de848b          	.insn	4, 0x80de848b
    800056b4:	08b5057b          	.insn	4, 0x08b5057b
    800056b8:	6305                	lui	t1,0x1
    800056ba:	b403031b          	addiw	t1,t1,-1216 # b40 <buflen.1+0xb00>
    800056be:	930a                	add	t1,t1,sp
    800056c0:	00a33023          	sd	a0,0(t1)
    800056c4:	79013503          	ld	a0,1936(sp)
    800056c8:	2ca9b823          	sd	a0,720(s3)
    800056cc:	78013503          	ld	a0,1920(sp)
    800056d0:	2ca9bc23          	sd	a0,728(s3)
    800056d4:	77813503          	ld	a0,1912(sp)
    800056d8:	2ea9b023          	sd	a0,736(s3)
    800056dc:	77013503          	ld	a0,1904(sp)
    800056e0:	2ea9b423          	sd	a0,744(s3)
    800056e4:	76013503          	ld	a0,1888(sp)
    800056e8:	2ea9b823          	sd	a0,752(s3)
    800056ec:	80d9050b          	.insn	4, 0x80d9050b
    800056f0:	649a                	ld	s1,384(sp)
    800056f2:	0cc4857b          	.insn	4, 0x0cc4857b
    800056f6:	6605                	lui	a2,0x1
    800056f8:	b386061b          	addiw	a2,a2,-1224 # b38 <buflen.1+0xaf8>
    800056fc:	960a                	add	a2,a2,sp
    800056fe:	e208                	sd	a0,0(a2)
    80005700:	75813503          	ld	a0,1880(sp)
    80005704:	2ea9bc23          	sd	a0,760(s3)
    80005708:	74013503          	ld	a0,1856(sp)
    8000570c:	30a9b023          	sd	a0,768(s3)
    80005710:	71013503          	ld	a0,1808(sp)
    80005714:	30a9b423          	sd	a0,776(s3)
    80005718:	6e013503          	ld	a0,1760(sp)
    8000571c:	30a9b823          	sd	a0,784(s3)
    80005720:	7556                	ld	a0,368(sp)
    80005722:	0ca4857b          	.insn	4, 0x0ca4857b
    80005726:	6605                	lui	a2,0x1
    80005728:	b306061b          	addiw	a2,a2,-1232 # b30 <buflen.1+0xaf0>
    8000572c:	960a                	add	a2,a2,sp
    8000572e:	e208                	sd	a0,0(a2)
    80005730:	6d813503          	ld	a0,1752(sp)
    80005734:	30a9bc23          	sd	a0,792(s3)
    80005738:	6d013503          	ld	a0,1744(sp)
    8000573c:	32a9b023          	sd	a0,800(s3)
    80005740:	6c813503          	ld	a0,1736(sp)
    80005744:	32a9b423          	sd	a0,808(s3)
    80005748:	6c013503          	ld	a0,1728(sp)
    8000574c:	32a9b823          	sd	a0,816(s3)
    80005750:	6a813503          	ld	a0,1704(sp)
    80005754:	32a9bc23          	sd	a0,824(s3)
    80005758:	80df850b          	.insn	4, 0x80df850b
    8000575c:	7676                	ld	a2,376(sp)
    8000575e:	00e6057b          	.insn	4, 0x00e6057b
    80005762:	6705                	lui	a4,0x1
    80005764:	b287071b          	addiw	a4,a4,-1240 # b28 <buflen.1+0xae8>
    80005768:	970a                	add	a4,a4,sp
    8000576a:	e308                	sd	a0,0(a4)
    8000576c:	6b813503          	ld	a0,1720(sp)
    80005770:	34a9b023          	sd	a0,832(s3)
    80005774:	69013503          	ld	a0,1680(sp)
    80005778:	34a9b423          	sd	a0,840(s3)
    8000577c:	64813503          	ld	a0,1608(sp)
    80005780:	34a9b823          	sd	a0,848(s3)
    80005784:	63813503          	ld	a0,1592(sp)
    80005788:	34a9bc23          	sd	a0,856(s3)
    8000578c:	80dd850b          	.insn	4, 0x80dd850b
    80005790:	653a                	ld	a0,392(sp)
    80005792:	00a6057b          	.insn	4, 0x00a6057b
    80005796:	6605                	lui	a2,0x1
    80005798:	b206061b          	addiw	a2,a2,-1248 # b20 <buflen.1+0xae0>
    8000579c:	960a                	add	a2,a2,sp
    8000579e:	e208                	sd	a0,0(a2)
    800057a0:	63013503          	ld	a0,1584(sp)
    800057a4:	36a9b023          	sd	a0,864(s3)
    800057a8:	61813503          	ld	a0,1560(sp)
    800057ac:	36a9b423          	sd	a0,872(s3)
    800057b0:	60013503          	ld	a0,1536(sp)
    800057b4:	36a9b823          	sd	a0,880(s3)
    800057b8:	5e813503          	ld	a0,1512(sp)
    800057bc:	36a9bc23          	sd	a0,888(s3)
    800057c0:	5d013503          	ld	a0,1488(sp)
    800057c4:	38a9b023          	sd	a0,896(s3)
    800057c8:	80dc050b          	.insn	4, 0x80dc050b
    800057cc:	665a                	ld	a2,400(sp)
    800057ce:	04f6057b          	.insn	4, 0x04f6057b
    800057d2:	6705                	lui	a4,0x1
    800057d4:	b187071b          	addiw	a4,a4,-1256 # b18 <buflen.1+0xad8>
    800057d8:	970a                	add	a4,a4,sp
    800057da:	e308                	sd	a0,0(a4)
    800057dc:	5c813503          	ld	a0,1480(sp)
    800057e0:	38a9b423          	sd	a0,904(s3)
    800057e4:	5b013503          	ld	a0,1456(sp)
    800057e8:	38a9b823          	sd	a0,912(s3)
    800057ec:	5a013503          	ld	a0,1440(sp)
    800057f0:	38a9bc23          	sd	a0,920(s3)
    800057f4:	59813503          	ld	a0,1432(sp)
    800057f8:	3aa9b023          	sd	a0,928(s3)
    800057fc:	80d8850b          	.insn	4, 0x80d8850b
    80005800:	657a                	ld	a0,408(sp)
    80005802:	04a6057b          	.insn	4, 0x04a6057b
    80005806:	6605                	lui	a2,0x1
    80005808:	b106061b          	addiw	a2,a2,-1264 # b10 <buflen.1+0xad0>
    8000580c:	960a                	add	a2,a2,sp
    8000580e:	e208                	sd	a0,0(a2)
    80005810:	59013503          	ld	a0,1424(sp)
    80005814:	3aa9b423          	sd	a0,936(s3)
    80005818:	58813503          	ld	a0,1416(sp)
    8000581c:	3aa9b823          	sd	a0,944(s3)
    80005820:	57013503          	ld	a0,1392(sp)
    80005824:	03050533          	mul	a0,a0,a6
    80005828:	58013603          	ld	a2,1408(sp)
    8000582c:	3ac9bc23          	sd	a2,952(s3)
    80005830:	57813603          	ld	a2,1400(sp)
    80005834:	3cc9b023          	sd	a2,960(s3)
    80005838:	00a28ab3          	add	s5,t0,a0
    8000583c:	80dc850b          	.insn	4, 0x80dc850b
    80005840:	761a                	ld	a2,416(sp)
    80005842:	08b6057b          	.insn	4, 0x08b6057b
    80005846:	6585                	lui	a1,0x1
    80005848:	b085859b          	addiw	a1,a1,-1272 # b08 <buflen.1+0xac8>
    8000584c:	958a                	add	a1,a1,sp
    8000584e:	e188                	sd	a0,0(a1)
    80005850:	56813503          	ld	a0,1384(sp)
    80005854:	00aab023          	sd	a0,0(s5)
    80005858:	56013503          	ld	a0,1376(sp)
    8000585c:	00aab423          	sd	a0,8(s5)
    80005860:	55813503          	ld	a0,1368(sp)
    80005864:	00aab823          	sd	a0,16(s5)
    80005868:	55013503          	ld	a0,1360(sp)
    8000586c:	00aabc23          	sd	a0,24(s5)
    80005870:	54813503          	ld	a0,1352(sp)
    80005874:	02aab023          	sd	a0,32(s5)
    80005878:	54013503          	ld	a0,1344(sp)
    8000587c:	02aab423          	sd	a0,40(s5)
    80005880:	53813503          	ld	a0,1336(sp)
    80005884:	02aab823          	sd	a0,48(s5)
    80005888:	53013503          	ld	a0,1328(sp)
    8000588c:	02aabc23          	sd	a0,56(s5)
    80005890:	52813503          	ld	a0,1320(sp)
    80005894:	04aab023          	sd	a0,64(s5)
    80005898:	52013503          	ld	a0,1312(sp)
    8000589c:	04aab423          	sd	a0,72(s5)
    800058a0:	51813503          	ld	a0,1304(sp)
    800058a4:	04aab823          	sd	a0,80(s5)
    800058a8:	51013503          	ld	a0,1296(sp)
    800058ac:	04aabc23          	sd	a0,88(s5)
    800058b0:	50813503          	ld	a0,1288(sp)
    800058b4:	06aab023          	sd	a0,96(s5)
    800058b8:	50013503          	ld	a0,1280(sp)
    800058bc:	06aab423          	sd	a0,104(s5)
    800058c0:	4f813503          	ld	a0,1272(sp)
    800058c4:	06aab823          	sd	a0,112(s5)
    800058c8:	4f013503          	ld	a0,1264(sp)
    800058cc:	06aabc23          	sd	a0,120(s5)
    800058d0:	4e813503          	ld	a0,1256(sp)
    800058d4:	08aab023          	sd	a0,128(s5)
    800058d8:	4e013503          	ld	a0,1248(sp)
    800058dc:	08aab423          	sd	a0,136(s5)
    800058e0:	4d813503          	ld	a0,1240(sp)
    800058e4:	08aab823          	sd	a0,144(s5)
    800058e8:	4d013503          	ld	a0,1232(sp)
    800058ec:	08aabc23          	sd	a0,152(s5)
    800058f0:	4c813503          	ld	a0,1224(sp)
    800058f4:	0aaab023          	sd	a0,160(s5)
    800058f8:	4c013503          	ld	a0,1216(sp)
    800058fc:	0aaab423          	sd	a0,168(s5)
    80005900:	4b813503          	ld	a0,1208(sp)
    80005904:	0aaab823          	sd	a0,176(s5)
    80005908:	4b013503          	ld	a0,1200(sp)
    8000590c:	0aaabc23          	sd	a0,184(s5)
    80005910:	4a813503          	ld	a0,1192(sp)
    80005914:	0caab023          	sd	a0,192(s5)
    80005918:	4a013503          	ld	a0,1184(sp)
    8000591c:	0caab423          	sd	a0,200(s5)
    80005920:	49813503          	ld	a0,1176(sp)
    80005924:	0caab823          	sd	a0,208(s5)
    80005928:	49013503          	ld	a0,1168(sp)
    8000592c:	0caabc23          	sd	a0,216(s5)
    80005930:	48813503          	ld	a0,1160(sp)
    80005934:	0eaab023          	sd	a0,224(s5)
    80005938:	48013503          	ld	a0,1152(sp)
    8000593c:	0eaab423          	sd	a0,232(s5)
    80005940:	47813503          	ld	a0,1144(sp)
    80005944:	0eaab823          	sd	a0,240(s5)
    80005948:	47013503          	ld	a0,1136(sp)
    8000594c:	0eaabc23          	sd	a0,248(s5)
    80005950:	46813503          	ld	a0,1128(sp)
    80005954:	10aab023          	sd	a0,256(s5)
    80005958:	46013503          	ld	a0,1120(sp)
    8000595c:	10aab423          	sd	a0,264(s5)
    80005960:	45813503          	ld	a0,1112(sp)
    80005964:	10aab823          	sd	a0,272(s5)
    80005968:	45013503          	ld	a0,1104(sp)
    8000596c:	10aabc23          	sd	a0,280(s5)
    80005970:	44813503          	ld	a0,1096(sp)
    80005974:	12aab023          	sd	a0,288(s5)
    80005978:	44013503          	ld	a0,1088(sp)
    8000597c:	12aab423          	sd	a0,296(s5)
    80005980:	43813503          	ld	a0,1080(sp)
    80005984:	12aab823          	sd	a0,304(s5)
    80005988:	43013503          	ld	a0,1072(sp)
    8000598c:	12aabc23          	sd	a0,312(s5)
    80005990:	42813503          	ld	a0,1064(sp)
    80005994:	14aab023          	sd	a0,320(s5)
    80005998:	42013503          	ld	a0,1056(sp)
    8000599c:	14aab423          	sd	a0,328(s5)
    800059a0:	41813503          	ld	a0,1048(sp)
    800059a4:	14aab823          	sd	a0,336(s5)
    800059a8:	41013503          	ld	a0,1040(sp)
    800059ac:	14aabc23          	sd	a0,344(s5)
    800059b0:	40813503          	ld	a0,1032(sp)
    800059b4:	16aab023          	sd	a0,352(s5)
    800059b8:	40013503          	ld	a0,1024(sp)
    800059bc:	16aab423          	sd	a0,360(s5)
    800059c0:	3f813503          	ld	a0,1016(sp)
    800059c4:	16aab823          	sd	a0,368(s5)
    800059c8:	3f013503          	ld	a0,1008(sp)
    800059cc:	16aabc23          	sd	a0,376(s5)
    800059d0:	3e813503          	ld	a0,1000(sp)
    800059d4:	18aab023          	sd	a0,384(s5)
    800059d8:	3e013503          	ld	a0,992(sp)
    800059dc:	18aab423          	sd	a0,392(s5)
    800059e0:	3d813503          	ld	a0,984(sp)
    800059e4:	18aab823          	sd	a0,400(s5)
    800059e8:	3d013503          	ld	a0,976(sp)
    800059ec:	18aabc23          	sd	a0,408(s5)
    800059f0:	3c813503          	ld	a0,968(sp)
    800059f4:	1aaab023          	sd	a0,416(s5)
    800059f8:	3c013503          	ld	a0,960(sp)
    800059fc:	1aaab423          	sd	a0,424(s5)
    80005a00:	3b813503          	ld	a0,952(sp)
    80005a04:	1aaab823          	sd	a0,432(s5)
    80005a08:	3b013503          	ld	a0,944(sp)
    80005a0c:	1aaabc23          	sd	a0,440(s5)
    80005a10:	3a813503          	ld	a0,936(sp)
    80005a14:	1caab023          	sd	a0,448(s5)
    80005a18:	3a013503          	ld	a0,928(sp)
    80005a1c:	1caab423          	sd	a0,456(s5)
    80005a20:	39813503          	ld	a0,920(sp)
    80005a24:	1caab823          	sd	a0,464(s5)
    80005a28:	39013503          	ld	a0,912(sp)
    80005a2c:	1caabc23          	sd	a0,472(s5)
    80005a30:	38813503          	ld	a0,904(sp)
    80005a34:	1eaab023          	sd	a0,480(s5)
    80005a38:	38013503          	ld	a0,896(sp)
    80005a3c:	1eaab423          	sd	a0,488(s5)
    80005a40:	37813503          	ld	a0,888(sp)
    80005a44:	1eaab823          	sd	a0,496(s5)
    80005a48:	37013503          	ld	a0,880(sp)
    80005a4c:	1eaabc23          	sd	a0,504(s5)
    80005a50:	36813503          	ld	a0,872(sp)
    80005a54:	20aab023          	sd	a0,512(s5)
    80005a58:	36013503          	ld	a0,864(sp)
    80005a5c:	20aab423          	sd	a0,520(s5)
    80005a60:	35813503          	ld	a0,856(sp)
    80005a64:	20aab823          	sd	a0,528(s5)
    80005a68:	35013503          	ld	a0,848(sp)
    80005a6c:	20aabc23          	sd	a0,536(s5)
    80005a70:	34813503          	ld	a0,840(sp)
    80005a74:	22aab023          	sd	a0,544(s5)
    80005a78:	33013503          	ld	a0,816(sp)
    80005a7c:	22aab423          	sd	a0,552(s5)
    80005a80:	32013503          	ld	a0,800(sp)
    80005a84:	22aab823          	sd	a0,560(s5)
    80005a88:	39843503          	ld	a0,920(s0)
    80005a8c:	80d8858b          	.insn	4, 0x80d8858b
    80005a90:	773a                	ld	a4,424(sp)
    80005a92:	40e6058b          	.insn	4, 0x40e6058b
    80005a96:	6585                	lui	a1,0x1
    80005a98:	fa05859b          	addiw	a1,a1,-96 # fa0 <buflen.1+0xf60>
    80005a9c:	958a                	add	a1,a1,sp
    80005a9e:	619c                	ld	a5,0(a1)
    80005aa0:	6585                	lui	a1,0x1
    80005aa2:	f885859b          	addiw	a1,a1,-120 # f88 <buflen.1+0xf48>
    80005aa6:	958a                	add	a1,a1,sp
    80005aa8:	618c                	ld	a1,0(a1)
    80005aaa:	60f5858b          	.insn	4, 0x60f5858b
    80005aae:	6585                	lui	a1,0x1
    80005ab0:	f905859b          	addiw	a1,a1,-112 # f90 <buflen.1+0xf50>
    80005ab4:	958a                	add	a1,a1,sp
    80005ab6:	6184                	ld	s1,0(a1)
    80005ab8:	6585                	lui	a1,0x1
    80005aba:	f985859b          	addiw	a1,a1,-104 # f98 <buflen.1+0xf58>
    80005abe:	958a                	add	a1,a1,sp
    80005ac0:	618c                	ld	a1,0(a1)
    80005ac2:	0095858b          	.insn	4, 0x0095858b
    80005ac6:	75da                	ld	a1,432(sp)
    80005ac8:	04a585fb          	.insn	4, 0x04a585fb
    80005acc:	6605                	lui	a2,0x1
    80005ace:	a786061b          	addiw	a2,a2,-1416 # a78 <buflen.1+0xa38>
    80005ad2:	960a                	add	a2,a2,sp
    80005ad4:	e20c                	sd	a1,0(a2)
    80005ad6:	34013583          	ld	a1,832(sp)
    80005ada:	22babc23          	sd	a1,568(s5)
    80005ade:	33813583          	ld	a1,824(sp)
    80005ae2:	24bab023          	sd	a1,576(s5)
    80005ae6:	32813583          	ld	a1,808(sp)
    80005aea:	24bab423          	sd	a1,584(s5)
    80005aee:	31013583          	ld	a1,784(sp)
    80005af2:	24bab823          	sd	a1,592(s5)
    80005af6:	3a043583          	ld	a1,928(s0)
    80005afa:	80dc860b          	.insn	4, 0x80dc860b
    80005afe:	08e5867b          	.insn	4, 0x08e5867b
    80005b02:	6705                	lui	a4,0x1
    80005b04:	a507071b          	addiw	a4,a4,-1456 # a50 <buflen.1+0xa10>
    80005b08:	970a                	add	a4,a4,sp
    80005b0a:	e310                	sd	a2,0(a4)
    80005b0c:	31813603          	ld	a2,792(sp)
    80005b10:	24cabc23          	sd	a2,600(s5)
    80005b14:	30813603          	ld	a2,776(sp)
    80005b18:	26cab023          	sd	a2,608(s5)
    80005b1c:	30013603          	ld	a2,768(sp)
    80005b20:	26cab423          	sd	a2,616(s5)
    80005b24:	2f013603          	ld	a2,752(sp)
    80005b28:	26cab823          	sd	a2,624(s5)
    80005b2c:	3a843603          	ld	a2,936(s0)
    80005b30:	80de870b          	.insn	4, 0x80de870b
    80005b34:	08c585fb          	.insn	4, 0x08c585fb
    80005b38:	6705                	lui	a4,0x1
    80005b3a:	a307071b          	addiw	a4,a4,-1488 # a30 <buflen.1+0x9f0>
    80005b3e:	970a                	add	a4,a4,sp
    80005b40:	e30c                	sd	a1,0(a4)
    80005b42:	2f813583          	ld	a1,760(sp)
    80005b46:	26babc23          	sd	a1,632(s5)
    80005b4a:	2e813583          	ld	a1,744(sp)
    80005b4e:	28bab023          	sd	a1,640(s5)
    80005b52:	2e013583          	ld	a1,736(sp)
    80005b56:	28bab423          	sd	a1,648(s5)
    80005b5a:	2d013583          	ld	a1,720(sp)
    80005b5e:	28bab823          	sd	a1,656(s5)
    80005b62:	3b043583          	ld	a1,944(s0)
    80005b66:	80d9070b          	.insn	4, 0x80d9070b
    80005b6a:	0cf5877b          	.insn	4, 0x0cf5877b
    80005b6e:	6785                	lui	a5,0x1
    80005b70:	9e07879b          	addiw	a5,a5,-1568 # 9e0 <buflen.1+0x9a0>
    80005b74:	978a                	add	a5,a5,sp
    80005b76:	e398                	sd	a4,0(a5)
    80005b78:	2d813703          	ld	a4,728(sp)
    80005b7c:	28eabc23          	sd	a4,664(s5)
    80005b80:	2c813703          	ld	a4,712(sp)
    80005b84:	2aeab023          	sd	a4,672(s5)
    80005b88:	2c013703          	ld	a4,704(sp)
    80005b8c:	2aeab423          	sd	a4,680(s5)
    80005b90:	2b813703          	ld	a4,696(sp)
    80005b94:	2aeab823          	sd	a4,688(s5)
    80005b98:	3b843703          	ld	a4,952(s0)
    80005b9c:	0ce585fb          	.insn	4, 0x0ce585fb
    80005ba0:	6785                	lui	a5,0x1
    80005ba2:	9b07879b          	addiw	a5,a5,-1616 # 9b0 <buflen.1+0x970>
    80005ba6:	978a                	add	a5,a5,sp
    80005ba8:	e38c                	sd	a1,0(a5)
    80005baa:	2b013583          	ld	a1,688(sp)
    80005bae:	2ababc23          	sd	a1,696(s5)
    80005bb2:	2a813583          	ld	a1,680(sp)
    80005bb6:	2cbab023          	sd	a1,704(s5)
    80005bba:	2a013583          	ld	a1,672(sp)
    80005bbe:	2cbab423          	sd	a1,712(s5)
    80005bc2:	29013583          	ld	a1,656(sp)
    80005bc6:	2cbab823          	sd	a1,720(s5)
    80005bca:	3c043583          	ld	a1,960(s0)
    80005bce:	80df878b          	.insn	4, 0x80df878b
    80005bd2:	009587fb          	.insn	4, 0x009587fb
    80005bd6:	6805                	lui	a6,0x1
    80005bd8:	9808081b          	addiw	a6,a6,-1664 # 980 <buflen.1+0x940>
    80005bdc:	980a                	add	a6,a6,sp
    80005bde:	00f83023          	sd	a5,0(a6)
    80005be2:	29813783          	ld	a5,664(sp)
    80005be6:	2cfabc23          	sd	a5,728(s5)
    80005bea:	28813783          	ld	a5,648(sp)
    80005bee:	2efab023          	sd	a5,736(s5)
    80005bf2:	28013783          	ld	a5,640(sp)
    80005bf6:	2efab423          	sd	a5,744(s5)
    80005bfa:	27013783          	ld	a5,624(sp)
    80005bfe:	2efab823          	sd	a5,752(s5)
    80005c02:	3c843783          	ld	a5,968(s0)
    80005c06:	80dd848b          	.insn	4, 0x80dd848b
    80005c0a:	00f585fb          	.insn	4, 0x00f585fb
    80005c0e:	6785                	lui	a5,0x1
    80005c10:	9487879b          	addiw	a5,a5,-1720 # 948 <buflen.1+0x908>
    80005c14:	978a                	add	a5,a5,sp
    80005c16:	e38c                	sd	a1,0(a5)
    80005c18:	27813583          	ld	a1,632(sp)
    80005c1c:	2ebabc23          	sd	a1,760(s5)
    80005c20:	26813583          	ld	a1,616(sp)
    80005c24:	30bab023          	sd	a1,768(s5)
    80005c28:	26013583          	ld	a1,608(sp)
    80005c2c:	30bab423          	sd	a1,776(s5)
    80005c30:	25013583          	ld	a1,592(sp)
    80005c34:	30bab823          	sd	a1,784(s5)
    80005c38:	3d043583          	ld	a1,976(s0)
    80005c3c:	80dc078b          	.insn	4, 0x80dc078b
    80005c40:	04a5857b          	.insn	4, 0x04a5857b
    80005c44:	6785                	lui	a5,0x1
    80005c46:	9107879b          	addiw	a5,a5,-1776 # 910 <buflen.1+0x8d0>
    80005c4a:	978a                	add	a5,a5,sp
    80005c4c:	e388                	sd	a0,0(a5)
    80005c4e:	25813503          	ld	a0,600(sp)
    80005c52:	30aabc23          	sd	a0,792(s5)
    80005c56:	24813503          	ld	a0,584(sp)
    80005c5a:	32aab023          	sd	a0,800(s5)
    80005c5e:	24013503          	ld	a0,576(sp)
    80005c62:	32aab423          	sd	a0,808(s5)
    80005c66:	23013503          	ld	a0,560(sp)
    80005c6a:	32aab823          	sd	a0,816(s5)
    80005c6e:	3d843503          	ld	a0,984(s0)
    80005c72:	80d8878b          	.insn	4, 0x80d8878b
    80005c76:	04a5857b          	.insn	4, 0x04a5857b
    80005c7a:	6585                	lui	a1,0x1
    80005c7c:	8d85859b          	addiw	a1,a1,-1832 # 8d8 <buflen.1+0x898>
    80005c80:	958a                	add	a1,a1,sp
    80005c82:	e188                	sd	a0,0(a1)
    80005c84:	23813503          	ld	a0,568(sp)
    80005c88:	32aabc23          	sd	a0,824(s5)
    80005c8c:	22813503          	ld	a0,552(sp)
    80005c90:	34aab023          	sd	a0,832(s5)
    80005c94:	22013503          	ld	a0,544(sp)
    80005c98:	34aab423          	sd	a0,840(s5)
    80005c9c:	21013503          	ld	a0,528(sp)
    80005ca0:	34aab823          	sd	a0,848(s5)
    80005ca4:	3e043503          	ld	a0,992(s0)
    80005ca8:	80dc858b          	.insn	4, 0x80dc858b
    80005cac:	08c505fb          	.insn	4, 0x08c505fb
    80005cb0:	6605                	lui	a2,0x1
    80005cb2:	8a06061b          	addiw	a2,a2,-1888 # 8a0 <buflen.1+0x860>
    80005cb6:	960a                	add	a2,a2,sp
    80005cb8:	e20c                	sd	a1,0(a2)
    80005cba:	21813583          	ld	a1,536(sp)
    80005cbe:	34babc23          	sd	a1,856(s5)
    80005cc2:	20813583          	ld	a1,520(sp)
    80005cc6:	36bab023          	sd	a1,864(s5)
    80005cca:	20013583          	ld	a1,512(sp)
    80005cce:	36bab423          	sd	a1,872(s5)
    80005cd2:	75de                	ld	a1,496(sp)
    80005cd4:	36bab823          	sd	a1,880(s5)
    80005cd8:	3e843583          	ld	a1,1000(s0)
    80005cdc:	80de860b          	.insn	4, 0x80de860b
    80005ce0:	08b5057b          	.insn	4, 0x08b5057b
    80005ce4:	6585                	lui	a1,0x1
    80005ce6:	8585859b          	addiw	a1,a1,-1960 # 858 <buflen.1+0x818>
    80005cea:	958a                	add	a1,a1,sp
    80005cec:	e188                	sd	a0,0(a1)
    80005cee:	757e                	ld	a0,504(sp)
    80005cf0:	36aabc23          	sd	a0,888(s5)
    80005cf4:	753e                	ld	a0,488(sp)
