
mainop_BASELINE_O2U4.riscv:     file format elf64-littleriscv


Disassembly of section .text.init:

0000000080000000 <_start>:
    80000000:	4081                	li	ra,0
    80000002:	4101                	li	sp,0
    80000004:	4181                	li	gp,0
    80000006:	4201                	li	tp,0
    80000008:	4281                	li	t0,0
    8000000a:	4301                	li	t1,0
    8000000c:	4381                	li	t2,0
    8000000e:	4401                	li	s0,0
    80000010:	4481                	li	s1,0
    80000012:	4501                	li	a0,0
    80000014:	4581                	li	a1,0
    80000016:	4601                	li	a2,0
    80000018:	4681                	li	a3,0
    8000001a:	4701                	li	a4,0
    8000001c:	4781                	li	a5,0
    8000001e:	4801                	li	a6,0
    80000020:	4881                	li	a7,0
    80000022:	4901                	li	s2,0
    80000024:	4981                	li	s3,0
    80000026:	4a01                	li	s4,0
    80000028:	4a81                	li	s5,0
    8000002a:	4b01                	li	s6,0
    8000002c:	4b81                	li	s7,0
    8000002e:	4c01                	li	s8,0
    80000030:	4c81                	li	s9,0
    80000032:	4d01                	li	s10,0
    80000034:	4d81                	li	s11,0
    80000036:	4e01                	li	t3,0
    80000038:	4e81                	li	t4,0
    8000003a:	4f01                	li	t5,0
    8000003c:	4f81                	li	t6,0
    8000003e:	62f9                	lui	t0,0x1e
    80000040:	3002a073          	csrs	mstatus,t0
    80000044:	4285                	li	t0,1
    80000046:	02fe                	slli	t0,t0,0x1f
    80000048:	0002d863          	bgez	t0,80000058 <_start+0x58>
    8000004c:	4505                	li	a0,1
    8000004e:	00001297          	auipc	t0,0x1
    80000052:	faa2a923          	sw	a0,-78(t0) # 80001000 <tohost>
    80000056:	bfdd                	j	8000004c <_start+0x4c>
    80000058:	00000297          	auipc	t0,0x0
    8000005c:	09028293          	addi	t0,t0,144 # 800000e8 <_start+0xe8>
    80000060:	30529073          	csrw	mtvec,t0
    80000064:	00301073          	fscsr	zero
    80000068:	f0000053          	fmv.w.x	ft0,zero
    8000006c:	f00000d3          	fmv.w.x	ft1,zero
    80000070:	f0000153          	fmv.w.x	ft2,zero
    80000074:	f00001d3          	fmv.w.x	ft3,zero
    80000078:	f0000253          	fmv.w.x	ft4,zero
    8000007c:	f00002d3          	fmv.w.x	ft5,zero
    80000080:	f0000353          	fmv.w.x	ft6,zero
    80000084:	f00003d3          	fmv.w.x	ft7,zero
    80000088:	f0000453          	fmv.w.x	fs0,zero
    8000008c:	f00004d3          	fmv.w.x	fs1,zero
    80000090:	f0000553          	fmv.w.x	fa0,zero
    80000094:	f00005d3          	fmv.w.x	fa1,zero
    80000098:	f0000653          	fmv.w.x	fa2,zero
    8000009c:	f00006d3          	fmv.w.x	fa3,zero
    800000a0:	f0000753          	fmv.w.x	fa4,zero
    800000a4:	f00007d3          	fmv.w.x	fa5,zero
    800000a8:	f0000853          	fmv.w.x	fa6,zero
    800000ac:	f00008d3          	fmv.w.x	fa7,zero
    800000b0:	f0000953          	fmv.w.x	fs2,zero
    800000b4:	f00009d3          	fmv.w.x	fs3,zero
    800000b8:	f0000a53          	fmv.w.x	fs4,zero
    800000bc:	f0000ad3          	fmv.w.x	fs5,zero
    800000c0:	f0000b53          	fmv.w.x	fs6,zero
    800000c4:	f0000bd3          	fmv.w.x	fs7,zero
    800000c8:	f0000c53          	fmv.w.x	fs8,zero
    800000cc:	f0000cd3          	fmv.w.x	fs9,zero
    800000d0:	f0000d53          	fmv.w.x	fs10,zero
    800000d4:	f0000dd3          	fmv.w.x	fs11,zero
    800000d8:	f0000e53          	fmv.w.x	ft8,zero
    800000dc:	f0000ed3          	fmv.w.x	ft9,zero
    800000e0:	f0000f53          	fmv.w.x	ft10,zero
    800000e4:	f0000fd3          	fmv.w.x	ft11,zero
    800000e8:	00000297          	auipc	t0,0x0
    800000ec:	03c28293          	addi	t0,t0,60 # 80000124 <trap_entry>
    800000f0:	30529073          	csrw	mtvec,t0
    800000f4:	00007197          	auipc	gp,0x7
    800000f8:	4cc18193          	addi	gp,gp,1228 # 800075c0 <__global_pointer$>
    800000fc:	00008217          	auipc	tp,0x8
    80000100:	7c320213          	addi	tp,tp,1987 # 800088bf <_end+0x3f>
    80000104:	fc027213          	andi	tp,tp,-64
    80000108:	f1402573          	csrr	a0,mhartid
    8000010c:	4585                	li	a1,1
    8000010e:	00b57063          	bgeu	a0,a1,8000010e <_start+0x10e>
    80000112:	00150113          	addi	sp,a0,1
    80000116:	0146                	slli	sp,sp,0x11
    80000118:	9112                	add	sp,sp,tp
    8000011a:	01151613          	slli	a2,a0,0x11
    8000011e:	9232                	add	tp,tp,a2
    80000120:	2220606f          	j	80006342 <_init>

0000000080000124 <trap_entry>:
    80000124:	716d                	addi	sp,sp,-272
    80000126:	e406                	sd	ra,8(sp)
    80000128:	e80a                	sd	sp,16(sp)
    8000012a:	ec0e                	sd	gp,24(sp)
    8000012c:	f012                	sd	tp,32(sp)
    8000012e:	f416                	sd	t0,40(sp)
    80000130:	f81a                	sd	t1,48(sp)
    80000132:	fc1e                	sd	t2,56(sp)
    80000134:	e0a2                	sd	s0,64(sp)
    80000136:	e4a6                	sd	s1,72(sp)
    80000138:	e8aa                	sd	a0,80(sp)
    8000013a:	ecae                	sd	a1,88(sp)
    8000013c:	f0b2                	sd	a2,96(sp)
    8000013e:	f4b6                	sd	a3,104(sp)
    80000140:	f8ba                	sd	a4,112(sp)
    80000142:	fcbe                	sd	a5,120(sp)
    80000144:	e142                	sd	a6,128(sp)
    80000146:	e546                	sd	a7,136(sp)
    80000148:	e94a                	sd	s2,144(sp)
    8000014a:	ed4e                	sd	s3,152(sp)
    8000014c:	f152                	sd	s4,160(sp)
    8000014e:	f556                	sd	s5,168(sp)
    80000150:	f95a                	sd	s6,176(sp)
    80000152:	fd5e                	sd	s7,184(sp)
    80000154:	e1e2                	sd	s8,192(sp)
    80000156:	e5e6                	sd	s9,200(sp)
    80000158:	e9ea                	sd	s10,208(sp)
    8000015a:	edee                	sd	s11,216(sp)
    8000015c:	f1f2                	sd	t3,224(sp)
    8000015e:	f5f6                	sd	t4,232(sp)
    80000160:	f9fa                	sd	t5,240(sp)
    80000162:	fdfe                	sd	t6,248(sp)
    80000164:	34202573          	csrr	a0,mcause
    80000168:	341025f3          	csrr	a1,mepc
    8000016c:	860a                	mv	a2,sp
    8000016e:	00c060ef          	jal	8000617a <handle_trap>
    80000172:	34151073          	csrw	mepc,a0
    80000176:	6289                	lui	t0,0x2
    80000178:	8002829b          	addiw	t0,t0,-2048 # 1800 <buflen.1+0x17c0>
    8000017c:	3002a073          	csrs	mstatus,t0
    80000180:	60a2                	ld	ra,8(sp)
    80000182:	6142                	ld	sp,16(sp)
    80000184:	61e2                	ld	gp,24(sp)
    80000186:	7202                	ld	tp,32(sp)
    80000188:	72a2                	ld	t0,40(sp)
    8000018a:	7342                	ld	t1,48(sp)
    8000018c:	73e2                	ld	t2,56(sp)
    8000018e:	6406                	ld	s0,64(sp)
    80000190:	64a6                	ld	s1,72(sp)
    80000192:	6546                	ld	a0,80(sp)
    80000194:	65e6                	ld	a1,88(sp)
    80000196:	7606                	ld	a2,96(sp)
    80000198:	76a6                	ld	a3,104(sp)
    8000019a:	7746                	ld	a4,112(sp)
    8000019c:	77e6                	ld	a5,120(sp)
    8000019e:	680a                	ld	a6,128(sp)
    800001a0:	68aa                	ld	a7,136(sp)
    800001a2:	694a                	ld	s2,144(sp)
    800001a4:	69ea                	ld	s3,152(sp)
    800001a6:	7a0a                	ld	s4,160(sp)
    800001a8:	7aaa                	ld	s5,168(sp)
    800001aa:	7b4a                	ld	s6,176(sp)
    800001ac:	7bea                	ld	s7,184(sp)
    800001ae:	6c0e                	ld	s8,192(sp)
    800001b0:	6cae                	ld	s9,200(sp)
    800001b2:	6d4e                	ld	s10,208(sp)
    800001b4:	6dee                	ld	s11,216(sp)
    800001b6:	7e0e                	ld	t3,224(sp)
    800001b8:	7eae                	ld	t4,232(sp)
    800001ba:	7f4e                	ld	t5,240(sp)
    800001bc:	7fee                	ld	t6,248(sp)
    800001be:	6151                	addi	sp,sp,272
    800001c0:	30200073          	mret
    800001c4:	0000                	unimp

Disassembly of section .text:

0000000080002000 <d2ull>:
    80002000:	e2050553          	fmv.x.d	a0,fa0
    80002004:	8082                	ret

0000000080002006 <ull2d>:
    80002006:	f2050553          	fmv.d.x	fa0,a0
    8000200a:	8082                	ret

000000008000200c <PickResult>:
    8000200c:	058e                	slli	a1,a1,0x3
    8000200e:	952e                	add	a0,a0,a1
    80002010:	6108                	ld	a0,0(a0)
    80002012:	8082                	ret

0000000080002014 <Impl_SBOX>:
    80002014:	6114                	ld	a3,0(a0)
    80002016:	0ff6f713          	zext.b	a4,a3
    8000201a:	00005617          	auipc	a2,0x5
    8000201e:	a0760613          	addi	a2,a2,-1529 # 80006a21 <__sbox>
    80002022:	9732                	add	a4,a4,a2
    80002024:	03769793          	slli	a5,a3,0x37
    80002028:	93e1                	srli	a5,a5,0x38
    8000202a:	97b2                	add	a5,a5,a2
    8000202c:	0007c783          	lbu	a5,0(a5)
    80002030:	00074703          	lbu	a4,0(a4)
    80002034:	0786                	slli	a5,a5,0x1
    80002036:	00e7e833          	or	a6,a5,a4
    8000203a:	03669793          	slli	a5,a3,0x36
    8000203e:	93e1                	srli	a5,a5,0x38
    80002040:	97b2                	add	a5,a5,a2
    80002042:	0007c783          	lbu	a5,0(a5)
    80002046:	03569713          	slli	a4,a3,0x35
    8000204a:	9361                	srli	a4,a4,0x38
    8000204c:	9732                	add	a4,a4,a2
    8000204e:	00074703          	lbu	a4,0(a4)
    80002052:	078a                	slli	a5,a5,0x2
    80002054:	0107e7b3          	or	a5,a5,a6
    80002058:	070e                	slli	a4,a4,0x3
    8000205a:	00f76833          	or	a6,a4,a5
    8000205e:	03069793          	slli	a5,a3,0x30
    80002062:	93e1                	srli	a5,a5,0x38
    80002064:	97b2                	add	a5,a5,a2
    80002066:	0007c783          	lbu	a5,0(a5)
    8000206a:	02f69713          	slli	a4,a3,0x2f
    8000206e:	9361                	srli	a4,a4,0x38
    80002070:	9732                	add	a4,a4,a2
    80002072:	00074703          	lbu	a4,0(a4)
    80002076:	07a2                	slli	a5,a5,0x8
    80002078:	0107e7b3          	or	a5,a5,a6
    8000207c:	0726                	slli	a4,a4,0x9
    8000207e:	00f76833          	or	a6,a4,a5
    80002082:	02e69793          	slli	a5,a3,0x2e
    80002086:	93e1                	srli	a5,a5,0x38
    80002088:	97b2                	add	a5,a5,a2
    8000208a:	0007c783          	lbu	a5,0(a5)
    8000208e:	02d69713          	slli	a4,a3,0x2d
    80002092:	9361                	srli	a4,a4,0x38
    80002094:	9732                	add	a4,a4,a2
    80002096:	00074703          	lbu	a4,0(a4)
    8000209a:	07aa                	slli	a5,a5,0xa
    8000209c:	0107e7b3          	or	a5,a5,a6
    800020a0:	072e                	slli	a4,a4,0xb
    800020a2:	00f76833          	or	a6,a4,a5
    800020a6:	02869793          	slli	a5,a3,0x28
    800020aa:	93e1                	srli	a5,a5,0x38
    800020ac:	97b2                	add	a5,a5,a2
    800020ae:	0007c783          	lbu	a5,0(a5)
    800020b2:	02769713          	slli	a4,a3,0x27
    800020b6:	9361                	srli	a4,a4,0x38
    800020b8:	9732                	add	a4,a4,a2
    800020ba:	00074703          	lbu	a4,0(a4)
    800020be:	07c2                	slli	a5,a5,0x10
    800020c0:	0107e7b3          	or	a5,a5,a6
    800020c4:	0746                	slli	a4,a4,0x11
    800020c6:	00f76833          	or	a6,a4,a5
    800020ca:	02669793          	slli	a5,a3,0x26
    800020ce:	93e1                	srli	a5,a5,0x38
    800020d0:	97b2                	add	a5,a5,a2
    800020d2:	0007c783          	lbu	a5,0(a5)
    800020d6:	02569713          	slli	a4,a3,0x25
    800020da:	9361                	srli	a4,a4,0x38
    800020dc:	9732                	add	a4,a4,a2
    800020de:	00074703          	lbu	a4,0(a4)
    800020e2:	07ca                	slli	a5,a5,0x12
    800020e4:	0107e7b3          	or	a5,a5,a6
    800020e8:	074e                	slli	a4,a4,0x13
    800020ea:	00f76833          	or	a6,a4,a5
    800020ee:	0186d79b          	srliw	a5,a3,0x18
    800020f2:	97b2                	add	a5,a5,a2
    800020f4:	0007c783          	lbu	a5,0(a5)
    800020f8:	01f69713          	slli	a4,a3,0x1f
    800020fc:	9361                	srli	a4,a4,0x38
    800020fe:	9732                	add	a4,a4,a2
    80002100:	00074703          	lbu	a4,0(a4)
    80002104:	07e2                	slli	a5,a5,0x18
    80002106:	0107e7b3          	or	a5,a5,a6
    8000210a:	0766                	slli	a4,a4,0x19
    8000210c:	8f5d                	or	a4,a4,a5
    8000210e:	01e69793          	slli	a5,a3,0x1e
    80002112:	93e1                	srli	a5,a5,0x38
    80002114:	97b2                	add	a5,a5,a2
    80002116:	0007c783          	lbu	a5,0(a5)
    8000211a:	06f6                	slli	a3,a3,0x1d
    8000211c:	92e1                	srli	a3,a3,0x38
    8000211e:	96b2                	add	a3,a3,a2
    80002120:	0006c683          	lbu	a3,0(a3)
    80002124:	07ea                	slli	a5,a5,0x1a
    80002126:	8f5d                	or	a4,a4,a5
    80002128:	06ee                	slli	a3,a3,0x1b
    8000212a:	8ed9                	or	a3,a3,a4
    8000212c:	e194                	sd	a3,0(a1)
    8000212e:	6508                	ld	a0,8(a0)
    80002130:	0ff57693          	zext.b	a3,a0
    80002134:	96b2                	add	a3,a3,a2
    80002136:	03751713          	slli	a4,a0,0x37
    8000213a:	9361                	srli	a4,a4,0x38
    8000213c:	9732                	add	a4,a4,a2
    8000213e:	00074703          	lbu	a4,0(a4)
    80002142:	0006c683          	lbu	a3,0(a3)
    80002146:	0706                	slli	a4,a4,0x1
    80002148:	8ed9                	or	a3,a3,a4
    8000214a:	03651713          	slli	a4,a0,0x36
    8000214e:	9361                	srli	a4,a4,0x38
    80002150:	9732                	add	a4,a4,a2
    80002152:	00074703          	lbu	a4,0(a4)
    80002156:	03551793          	slli	a5,a0,0x35
    8000215a:	93e1                	srli	a5,a5,0x38
    8000215c:	97b2                	add	a5,a5,a2
    8000215e:	0007c783          	lbu	a5,0(a5)
    80002162:	070a                	slli	a4,a4,0x2
    80002164:	8ed9                	or	a3,a3,a4
    80002166:	00379713          	slli	a4,a5,0x3
    8000216a:	8ed9                	or	a3,a3,a4
    8000216c:	03051713          	slli	a4,a0,0x30
    80002170:	9361                	srli	a4,a4,0x38
    80002172:	9732                	add	a4,a4,a2
    80002174:	00074703          	lbu	a4,0(a4)
    80002178:	02f51793          	slli	a5,a0,0x2f
    8000217c:	93e1                	srli	a5,a5,0x38
    8000217e:	97b2                	add	a5,a5,a2
    80002180:	0007c783          	lbu	a5,0(a5)
    80002184:	0722                	slli	a4,a4,0x8
    80002186:	8ed9                	or	a3,a3,a4
    80002188:	00979713          	slli	a4,a5,0x9
    8000218c:	8ed9                	or	a3,a3,a4
    8000218e:	02e51713          	slli	a4,a0,0x2e
    80002192:	9361                	srli	a4,a4,0x38
    80002194:	9732                	add	a4,a4,a2
    80002196:	00074703          	lbu	a4,0(a4)
    8000219a:	02d51793          	slli	a5,a0,0x2d
    8000219e:	93e1                	srli	a5,a5,0x38
    800021a0:	97b2                	add	a5,a5,a2
    800021a2:	0007c783          	lbu	a5,0(a5)
    800021a6:	072a                	slli	a4,a4,0xa
    800021a8:	8ed9                	or	a3,a3,a4
    800021aa:	00b79713          	slli	a4,a5,0xb
    800021ae:	8ed9                	or	a3,a3,a4
    800021b0:	02851713          	slli	a4,a0,0x28
    800021b4:	9361                	srli	a4,a4,0x38
    800021b6:	9732                	add	a4,a4,a2
    800021b8:	00074703          	lbu	a4,0(a4)
    800021bc:	02751793          	slli	a5,a0,0x27
    800021c0:	93e1                	srli	a5,a5,0x38
    800021c2:	97b2                	add	a5,a5,a2
    800021c4:	0007c783          	lbu	a5,0(a5)
    800021c8:	0742                	slli	a4,a4,0x10
    800021ca:	8ed9                	or	a3,a3,a4
    800021cc:	01179713          	slli	a4,a5,0x11
    800021d0:	8ed9                	or	a3,a3,a4
    800021d2:	02651713          	slli	a4,a0,0x26
    800021d6:	9361                	srli	a4,a4,0x38
    800021d8:	9732                	add	a4,a4,a2
    800021da:	00074703          	lbu	a4,0(a4)
    800021de:	02551793          	slli	a5,a0,0x25
    800021e2:	93e1                	srli	a5,a5,0x38
    800021e4:	97b2                	add	a5,a5,a2
    800021e6:	0007c783          	lbu	a5,0(a5)
    800021ea:	074a                	slli	a4,a4,0x12
    800021ec:	8ed9                	or	a3,a3,a4
    800021ee:	01379713          	slli	a4,a5,0x13
    800021f2:	8ed9                	or	a3,a3,a4
    800021f4:	0185571b          	srliw	a4,a0,0x18
    800021f8:	9732                	add	a4,a4,a2
    800021fa:	00074703          	lbu	a4,0(a4)
    800021fe:	01f51793          	slli	a5,a0,0x1f
    80002202:	93e1                	srli	a5,a5,0x38
    80002204:	97b2                	add	a5,a5,a2
    80002206:	0007c783          	lbu	a5,0(a5)
    8000220a:	0762                	slli	a4,a4,0x18
    8000220c:	8ed9                	or	a3,a3,a4
    8000220e:	01979713          	slli	a4,a5,0x19
    80002212:	8ed9                	or	a3,a3,a4
    80002214:	01e51713          	slli	a4,a0,0x1e
    80002218:	9361                	srli	a4,a4,0x38
    8000221a:	9732                	add	a4,a4,a2
    8000221c:	00074703          	lbu	a4,0(a4)
    80002220:	0576                	slli	a0,a0,0x1d
    80002222:	9161                	srli	a0,a0,0x38
    80002224:	9532                	add	a0,a0,a2
    80002226:	00054503          	lbu	a0,0(a0)
    8000222a:	01a71613          	slli	a2,a4,0x1a
    8000222e:	8e55                	or	a2,a2,a3
    80002230:	056e                	slli	a0,a0,0x1b
    80002232:	8d51                	or	a0,a0,a2
    80002234:	e588                	sd	a0,8(a1)
    80002236:	8082                	ret

0000000080002238 <gmul_>:
    80002238:	715d                	addi	sp,sp,-80
    8000223a:	e4a2                	sd	s0,72(sp)
    8000223c:	e0a6                	sd	s1,64(sp)
    8000223e:	fc4a                	sd	s2,56(sp)
    80002240:	f84e                	sd	s3,48(sp)
    80002242:	f452                	sd	s4,40(sp)
    80002244:	f056                	sd	s5,32(sp)
    80002246:	ec5a                	sd	s6,24(sp)
    80002248:	e85e                	sd	s7,16(sp)
    8000224a:	e462                	sd	s8,8(sp)
    8000224c:	4601                	li	a2,0
    8000224e:	4801                	li	a6,0
    80002250:	4701                	li	a4,0
    80002252:	469d                	li	a3,7
    80002254:	87aa                	mv	a5,a0
    80002256:	a039                	j	80002264 <gmul_+0x2c>
    80002258:	00366493          	ori	s1,a2,3
    8000225c:	2611                	addiw	a2,a2,4
    8000225e:	4705                	li	a4,1
    80002260:	04d4fb63          	bgeu	s1,a3,800022b6 <gmul_+0x7e>
    80002264:	03879493          	slli	s1,a5,0x38
    80002268:	94e1                	srai	s1,s1,0x38
    8000226a:	0786                	slli	a5,a5,0x1
    8000226c:	0004d463          	bgez	s1,80002274 <gmul_+0x3c>
    80002270:	01b7c793          	xori	a5,a5,27
    80002274:	8b05                	andi	a4,a4,1
    80002276:	e319                	bnez	a4,8000227c <gmul_+0x44>
    80002278:	00f84833          	xor	a6,a6,a5
    8000227c:	03879713          	slli	a4,a5,0x38
    80002280:	43875493          	srai	s1,a4,0x38
    80002284:	00179713          	slli	a4,a5,0x1
    80002288:	0004d463          	bgez	s1,80002290 <gmul_+0x58>
    8000228c:	01b74713          	xori	a4,a4,27
    80002290:	03871793          	slli	a5,a4,0x38
    80002294:	97e1                	srai	a5,a5,0x38
    80002296:	0706                	slli	a4,a4,0x1
    80002298:	0007d463          	bgez	a5,800022a0 <gmul_+0x68>
    8000229c:	01b74713          	xori	a4,a4,27
    800022a0:	03871793          	slli	a5,a4,0x38
    800022a4:	4387d493          	srai	s1,a5,0x38
    800022a8:	00171793          	slli	a5,a4,0x1
    800022ac:	fa04d6e3          	bgez	s1,80002258 <gmul_+0x20>
    800022b0:	01b7c793          	xori	a5,a5,27
    800022b4:	b755                	j	80002258 <gmul_+0x20>
    800022b6:	4601                	li	a2,0
    800022b8:	4881                	li	a7,0
    800022ba:	4781                	li	a5,0
    800022bc:	0085531b          	srliw	t1,a0,0x8
    800022c0:	469d                	li	a3,7
    800022c2:	871a                	mv	a4,t1
    800022c4:	a039                	j	800022d2 <gmul_+0x9a>
    800022c6:	00366493          	ori	s1,a2,3
    800022ca:	2611                	addiw	a2,a2,4
    800022cc:	4785                	li	a5,1
    800022ce:	04d4fa63          	bgeu	s1,a3,80002322 <gmul_+0xea>
    800022d2:	8b85                	andi	a5,a5,1
    800022d4:	e399                	bnez	a5,800022da <gmul_+0xa2>
    800022d6:	00e8c8b3          	xor	a7,a7,a4
    800022da:	03871493          	slli	s1,a4,0x38
    800022de:	94e1                	srai	s1,s1,0x38
    800022e0:	0706                	slli	a4,a4,0x1
    800022e2:	0004d463          	bgez	s1,800022ea <gmul_+0xb2>
    800022e6:	01b74713          	xori	a4,a4,27
    800022ea:	e399                	bnez	a5,800022f0 <gmul_+0xb8>
    800022ec:	00e8c8b3          	xor	a7,a7,a4
    800022f0:	03871793          	slli	a5,a4,0x38
    800022f4:	97e1                	srai	a5,a5,0x38
    800022f6:	0706                	slli	a4,a4,0x1
    800022f8:	0007d463          	bgez	a5,80002300 <gmul_+0xc8>
    800022fc:	01b74713          	xori	a4,a4,27
    80002300:	03871793          	slli	a5,a4,0x38
    80002304:	97e1                	srai	a5,a5,0x38
    80002306:	0706                	slli	a4,a4,0x1
    80002308:	0007d463          	bgez	a5,80002310 <gmul_+0xd8>
    8000230c:	01b74713          	xori	a4,a4,27
    80002310:	03871793          	slli	a5,a4,0x38
    80002314:	97e1                	srai	a5,a5,0x38
    80002316:	0706                	slli	a4,a4,0x1
    80002318:	fa07d7e3          	bgez	a5,800022c6 <gmul_+0x8e>
    8000231c:	01b74713          	xori	a4,a4,27
    80002320:	b75d                	j	800022c6 <gmul_+0x8e>
    80002322:	4601                	li	a2,0
    80002324:	4f01                	li	t5,0
    80002326:	01055e9b          	srliw	t4,a0,0x10
    8000232a:	469d                	li	a3,7
    8000232c:	8776                	mv	a4,t4
    8000232e:	01e74f33          	xor	t5,a4,t5
    80002332:	00366793          	ori	a5,a2,3
    80002336:	2611                	addiw	a2,a2,4
    80002338:	4701                	li	a4,0
    8000233a:	fed7eae3          	bltu	a5,a3,8000232e <gmul_+0xf6>
    8000233e:	4601                	li	a2,0
    80002340:	4f81                	li	t6,0
    80002342:	0185539b          	srliw	t2,a0,0x18
    80002346:	469d                	li	a3,7
    80002348:	871e                	mv	a4,t2
    8000234a:	01f74fb3          	xor	t6,a4,t6
    8000234e:	00366793          	ori	a5,a2,3
    80002352:	2611                	addiw	a2,a2,4
    80002354:	4701                	li	a4,0
    80002356:	fed7eae3          	bltu	a5,a3,8000234a <gmul_+0x112>
    8000235a:	4601                	li	a2,0
    8000235c:	4b01                	li	s6,0
    8000235e:	469d                	li	a3,7
    80002360:	872a                	mv	a4,a0
    80002362:	01674b33          	xor	s6,a4,s6
    80002366:	00366793          	ori	a5,a2,3
    8000236a:	2611                	addiw	a2,a2,4
    8000236c:	4701                	li	a4,0
    8000236e:	fed7eae3          	bltu	a5,a3,80002362 <gmul_+0x12a>
    80002372:	4601                	li	a2,0
    80002374:	4281                	li	t0,0
    80002376:	4781                	li	a5,0
    80002378:	471d                	li	a4,7
    8000237a:	869a                	mv	a3,t1
    8000237c:	a039                	j	8000238a <gmul_+0x152>
    8000237e:	00366493          	ori	s1,a2,3
    80002382:	2611                	addiw	a2,a2,4
    80002384:	4785                	li	a5,1
    80002386:	04e4f763          	bgeu	s1,a4,800023d4 <gmul_+0x19c>
    8000238a:	03869493          	slli	s1,a3,0x38
    8000238e:	94e1                	srai	s1,s1,0x38
    80002390:	0686                	slli	a3,a3,0x1
    80002392:	0004d463          	bgez	s1,8000239a <gmul_+0x162>
    80002396:	01b6c693          	xori	a3,a3,27
    8000239a:	8b85                	andi	a5,a5,1
    8000239c:	e399                	bnez	a5,800023a2 <gmul_+0x16a>
    8000239e:	00d2c2b3          	xor	t0,t0,a3
    800023a2:	03869793          	slli	a5,a3,0x38
    800023a6:	97e1                	srai	a5,a5,0x38
    800023a8:	0686                	slli	a3,a3,0x1
    800023aa:	0007d463          	bgez	a5,800023b2 <gmul_+0x17a>
    800023ae:	01b6c693          	xori	a3,a3,27
    800023b2:	03869793          	slli	a5,a3,0x38
    800023b6:	97e1                	srai	a5,a5,0x38
    800023b8:	0686                	slli	a3,a3,0x1
    800023ba:	0007d463          	bgez	a5,800023c2 <gmul_+0x18a>
    800023be:	01b6c693          	xori	a3,a3,27
    800023c2:	03869793          	slli	a5,a3,0x38
    800023c6:	97e1                	srai	a5,a5,0x38
    800023c8:	0686                	slli	a3,a3,0x1
    800023ca:	fa07dae3          	bgez	a5,8000237e <gmul_+0x146>
    800023ce:	01b6c693          	xori	a3,a3,27
    800023d2:	b775                	j	8000237e <gmul_+0x146>
    800023d4:	4601                	li	a2,0
    800023d6:	4e01                	li	t3,0
    800023d8:	4681                	li	a3,0
    800023da:	471d                	li	a4,7
    800023dc:	87f6                	mv	a5,t4
    800023de:	a039                	j	800023ec <gmul_+0x1b4>
    800023e0:	00366413          	ori	s0,a2,3
    800023e4:	2611                	addiw	a2,a2,4
    800023e6:	4685                	li	a3,1
    800023e8:	04e47f63          	bgeu	s0,a4,80002446 <gmul_+0x20e>
    800023ec:	0016f413          	andi	s0,a3,1
    800023f0:	e019                	bnez	s0,800023f6 <gmul_+0x1be>
    800023f2:	00fe4e33          	xor	t3,t3,a5
    800023f6:	03879693          	slli	a3,a5,0x38
    800023fa:	4386d493          	srai	s1,a3,0x38
    800023fe:	00179693          	slli	a3,a5,0x1
    80002402:	0004d463          	bgez	s1,8000240a <gmul_+0x1d2>
    80002406:	01b6c693          	xori	a3,a3,27
    8000240a:	e019                	bnez	s0,80002410 <gmul_+0x1d8>
    8000240c:	00de4e33          	xor	t3,t3,a3
    80002410:	03869793          	slli	a5,a3,0x38
    80002414:	97e1                	srai	a5,a5,0x38
    80002416:	0686                	slli	a3,a3,0x1
    80002418:	0007d463          	bgez	a5,80002420 <gmul_+0x1e8>
    8000241c:	01b6c693          	xori	a3,a3,27
    80002420:	03869793          	slli	a5,a3,0x38
    80002424:	97e1                	srai	a5,a5,0x38
    80002426:	0686                	slli	a3,a3,0x1
    80002428:	0007d463          	bgez	a5,80002430 <gmul_+0x1f8>
    8000242c:	01b6c693          	xori	a3,a3,27
    80002430:	03869793          	slli	a5,a3,0x38
    80002434:	4387d413          	srai	s0,a5,0x38
    80002438:	00169793          	slli	a5,a3,0x1
    8000243c:	fa0452e3          	bgez	s0,800023e0 <gmul_+0x1a8>
    80002440:	01b7c793          	xori	a5,a5,27
    80002444:	bf71                	j	800023e0 <gmul_+0x1a8>
    80002446:	4601                	li	a2,0
    80002448:	4b81                	li	s7,0
    8000244a:	469d                	li	a3,7
    8000244c:	871e                	mv	a4,t2
    8000244e:	01774bb3          	xor	s7,a4,s7
    80002452:	00366793          	ori	a5,a2,3
    80002456:	2611                	addiw	a2,a2,4
    80002458:	4701                	li	a4,0
    8000245a:	fed7eae3          	bltu	a5,a3,8000244e <gmul_+0x216>
    8000245e:	4601                	li	a2,0
    80002460:	4c01                	li	s8,0
    80002462:	469d                	li	a3,7
    80002464:	87aa                	mv	a5,a0
    80002466:	0187cc33          	xor	s8,a5,s8
    8000246a:	00366413          	ori	s0,a2,3
    8000246e:	2611                	addiw	a2,a2,4
    80002470:	4781                	li	a5,0
    80002472:	fed46ae3          	bltu	s0,a3,80002466 <gmul_+0x22e>
    80002476:	4601                	li	a2,0
    80002478:	4781                	li	a5,0
    8000247a:	469d                	li	a3,7
    8000247c:	841a                	mv	s0,t1
    8000247e:	8fa1                	xor	a5,a5,s0
    80002480:	00366493          	ori	s1,a2,3
    80002484:	2611                	addiw	a2,a2,4
    80002486:	4401                	li	s0,0
    80002488:	fed4ebe3          	bltu	s1,a3,8000247e <gmul_+0x246>
    8000248c:	4401                	li	s0,0
    8000248e:	4901                	li	s2,0
    80002490:	4481                	li	s1,0
    80002492:	499d                	li	s3,7
    80002494:	86f6                	mv	a3,t4
    80002496:	a039                	j	800024a4 <gmul_+0x26c>
    80002498:	00346613          	ori	a2,s0,3
    8000249c:	2411                	addiw	s0,s0,4
    8000249e:	4485                	li	s1,1
    800024a0:	05367c63          	bgeu	a2,s3,800024f8 <gmul_+0x2c0>
    800024a4:	03869613          	slli	a2,a3,0x38
    800024a8:	9661                	srai	a2,a2,0x38
    800024aa:	0686                	slli	a3,a3,0x1
    800024ac:	00065463          	bgez	a2,800024b4 <gmul_+0x27c>
    800024b0:	01b6c693          	xori	a3,a3,27
    800024b4:	0014f613          	andi	a2,s1,1
    800024b8:	e219                	bnez	a2,800024be <gmul_+0x286>
    800024ba:	00d94933          	xor	s2,s2,a3
    800024be:	03869613          	slli	a2,a3,0x38
    800024c2:	43865493          	srai	s1,a2,0x38
    800024c6:	00169613          	slli	a2,a3,0x1
    800024ca:	0004d463          	bgez	s1,800024d2 <gmul_+0x29a>
    800024ce:	01b64613          	xori	a2,a2,27
    800024d2:	03861693          	slli	a3,a2,0x38
    800024d6:	96e1                	srai	a3,a3,0x38
    800024d8:	0606                	slli	a2,a2,0x1
    800024da:	0006d463          	bgez	a3,800024e2 <gmul_+0x2aa>
    800024de:	01b64613          	xori	a2,a2,27
    800024e2:	03861693          	slli	a3,a2,0x38
    800024e6:	4386d493          	srai	s1,a3,0x38
    800024ea:	00161693          	slli	a3,a2,0x1
    800024ee:	fa04d5e3          	bgez	s1,80002498 <gmul_+0x260>
    800024f2:	01b6c693          	xori	a3,a3,27
    800024f6:	b74d                	j	80002498 <gmul_+0x260>
    800024f8:	4401                	li	s0,0
    800024fa:	4981                	li	s3,0
    800024fc:	4601                	li	a2,0
    800024fe:	4a1d                	li	s4,7
    80002500:	849e                	mv	s1,t2
    80002502:	a039                	j	80002510 <gmul_+0x2d8>
    80002504:	00346693          	ori	a3,s0,3
    80002508:	2411                	addiw	s0,s0,4
    8000250a:	4605                	li	a2,1
    8000250c:	0546fe63          	bgeu	a3,s4,80002568 <gmul_+0x330>
    80002510:	00167693          	andi	a3,a2,1
    80002514:	e299                	bnez	a3,8000251a <gmul_+0x2e2>
    80002516:	0099c9b3          	xor	s3,s3,s1
    8000251a:	03849613          	slli	a2,s1,0x38
    8000251e:	9661                	srai	a2,a2,0x38
    80002520:	0486                	slli	s1,s1,0x1
    80002522:	00065463          	bgez	a2,8000252a <gmul_+0x2f2>
    80002526:	01b4c493          	xori	s1,s1,27
    8000252a:	e299                	bnez	a3,80002530 <gmul_+0x2f8>
    8000252c:	0099c9b3          	xor	s3,s3,s1
    80002530:	03849613          	slli	a2,s1,0x38
    80002534:	43865693          	srai	a3,a2,0x38
    80002538:	00149613          	slli	a2,s1,0x1
    8000253c:	0006d463          	bgez	a3,80002544 <gmul_+0x30c>
    80002540:	01b64613          	xori	a2,a2,27
    80002544:	03861693          	slli	a3,a2,0x38
    80002548:	96e1                	srai	a3,a3,0x38
    8000254a:	0606                	slli	a2,a2,0x1
    8000254c:	0006d463          	bgez	a3,80002554 <gmul_+0x31c>
    80002550:	01b64613          	xori	a2,a2,27
    80002554:	03861693          	slli	a3,a2,0x38
    80002558:	96e1                	srai	a3,a3,0x38
    8000255a:	00161493          	slli	s1,a2,0x1
    8000255e:	fa06d3e3          	bgez	a3,80002504 <gmul_+0x2cc>
    80002562:	01b4c493          	xori	s1,s1,27
    80002566:	bf79                	j	80002504 <gmul_+0x2cc>
    80002568:	4481                	li	s1,0
    8000256a:	4a81                	li	s5,0
    8000256c:	4601                	li	a2,0
    8000256e:	4a1d                	li	s4,7
    80002570:	a039                	j	8000257e <gmul_+0x346>
    80002572:	0034e693          	ori	a3,s1,3
    80002576:	2491                	addiw	s1,s1,4
    80002578:	4605                	li	a2,1
    8000257a:	0546fb63          	bgeu	a3,s4,800025d0 <gmul_+0x398>
    8000257e:	00167693          	andi	a3,a2,1
    80002582:	e299                	bnez	a3,80002588 <gmul_+0x350>
    80002584:	00aacab3          	xor	s5,s5,a0
    80002588:	03851613          	slli	a2,a0,0x38
    8000258c:	9661                	srai	a2,a2,0x38
    8000258e:	0506                	slli	a0,a0,0x1
    80002590:	00065463          	bgez	a2,80002598 <gmul_+0x360>
    80002594:	01b54513          	xori	a0,a0,27
    80002598:	e299                	bnez	a3,8000259e <gmul_+0x366>
    8000259a:	00aacab3          	xor	s5,s5,a0
    8000259e:	03851613          	slli	a2,a0,0x38
    800025a2:	9661                	srai	a2,a2,0x38
    800025a4:	0506                	slli	a0,a0,0x1
    800025a6:	00065463          	bgez	a2,800025ae <gmul_+0x376>
    800025aa:	01b54513          	xori	a0,a0,27
    800025ae:	03851613          	slli	a2,a0,0x38
    800025b2:	9661                	srai	a2,a2,0x38
    800025b4:	0506                	slli	a0,a0,0x1
    800025b6:	00065463          	bgez	a2,800025be <gmul_+0x386>
    800025ba:	01b54513          	xori	a0,a0,27
    800025be:	03851613          	slli	a2,a0,0x38
    800025c2:	9661                	srai	a2,a2,0x38
    800025c4:	0506                	slli	a0,a0,0x1
    800025c6:	fa0656e3          	bgez	a2,80002572 <gmul_+0x33a>
    800025ca:	01b54513          	xori	a0,a0,27
    800025ce:	b755                	j	80002572 <gmul_+0x33a>
    800025d0:	4601                	li	a2,0
    800025d2:	4501                	li	a0,0
    800025d4:	469d                	li	a3,7
    800025d6:	00a34533          	xor	a0,t1,a0
    800025da:	00366413          	ori	s0,a2,3
    800025de:	2611                	addiw	a2,a2,4
    800025e0:	4301                	li	t1,0
    800025e2:	fed46ae3          	bltu	s0,a3,800025d6 <gmul_+0x39e>
    800025e6:	4601                	li	a2,0
    800025e8:	4481                	li	s1,0
    800025ea:	469d                	li	a3,7
    800025ec:	009ec4b3          	xor	s1,t4,s1
    800025f0:	00366413          	ori	s0,a2,3
    800025f4:	2611                	addiw	a2,a2,4
    800025f6:	4e81                	li	t4,0
    800025f8:	fed46ae3          	bltu	s0,a3,800025ec <gmul_+0x3b4>
    800025fc:	4401                	li	s0,0
    800025fe:	4301                	li	t1,0
    80002600:	4601                	li	a2,0
    80002602:	4e9d                	li	t4,7
    80002604:	a039                	j	80002612 <gmul_+0x3da>
    80002606:	00346693          	ori	a3,s0,3
    8000260a:	2411                	addiw	s0,s0,4
    8000260c:	4605                	li	a2,1
    8000260e:	05d6fc63          	bgeu	a3,t4,80002666 <gmul_+0x42e>
    80002612:	03839693          	slli	a3,t2,0x38
    80002616:	4386d713          	srai	a4,a3,0x38
    8000261a:	00139693          	slli	a3,t2,0x1
    8000261e:	00075463          	bgez	a4,80002626 <gmul_+0x3ee>
    80002622:	01b6c693          	xori	a3,a3,27
    80002626:	8a05                	andi	a2,a2,1
    80002628:	e219                	bnez	a2,8000262e <gmul_+0x3f6>
    8000262a:	00d34333          	xor	t1,t1,a3
    8000262e:	03869613          	slli	a2,a3,0x38
    80002632:	43865713          	srai	a4,a2,0x38
    80002636:	00169613          	slli	a2,a3,0x1
    8000263a:	00075463          	bgez	a4,80002642 <gmul_+0x40a>
    8000263e:	01b64613          	xori	a2,a2,27
    80002642:	03861693          	slli	a3,a2,0x38
    80002646:	96e1                	srai	a3,a3,0x38
    80002648:	0606                	slli	a2,a2,0x1
    8000264a:	0006d463          	bgez	a3,80002652 <gmul_+0x41a>
    8000264e:	01b64613          	xori	a2,a2,27
    80002652:	03861693          	slli	a3,a2,0x38
    80002656:	96e1                	srai	a3,a3,0x38
    80002658:	00161393          	slli	t2,a2,0x1
    8000265c:	fa06d5e3          	bgez	a3,80002606 <gmul_+0x3ce>
    80002660:	01b3c393          	xori	t2,t2,27
    80002664:	b74d                	j	80002606 <gmul_+0x3ce>
    80002666:	0187c633          	xor	a2,a5,s8
    8000266a:	00c94633          	xor	a2,s2,a2
    8000266e:	00c9c633          	xor	a2,s3,a2
    80002672:	0ff67613          	zext.b	a2,a2
    80002676:	0642                	slli	a2,a2,0x10
    80002678:	0162c6b3          	xor	a3,t0,s6
    8000267c:	00de46b3          	xor	a3,t3,a3
    80002680:	00dbc6b3          	xor	a3,s7,a3
    80002684:	0ff6f693          	zext.b	a3,a3
    80002688:	06a2                	slli	a3,a3,0x8
    8000268a:	0108c733          	xor	a4,a7,a6
    8000268e:	00ef4733          	xor	a4,t5,a4
    80002692:	00efc733          	xor	a4,t6,a4
    80002696:	0ff77713          	zext.b	a4,a4
    8000269a:	8ed9                	or	a3,a3,a4
    8000269c:	8e55                	or	a2,a2,a3
    8000269e:	01554533          	xor	a0,a0,s5
    800026a2:	8d25                	xor	a0,a0,s1
    800026a4:	00a34533          	xor	a0,t1,a0
    800026a8:	0562                	slli	a0,a0,0x18
    800026aa:	8d51                	or	a0,a0,a2
    800026ac:	c188                	sw	a0,0(a1)
    800026ae:	6426                	ld	s0,72(sp)
    800026b0:	6486                	ld	s1,64(sp)
    800026b2:	7962                	ld	s2,56(sp)
    800026b4:	79c2                	ld	s3,48(sp)
    800026b6:	7a22                	ld	s4,40(sp)
    800026b8:	7a82                	ld	s5,32(sp)
    800026ba:	6b62                	ld	s6,24(sp)
    800026bc:	6bc2                	ld	s7,16(sp)
    800026be:	6c22                	ld	s8,8(sp)
    800026c0:	6161                	addi	sp,sp,80
    800026c2:	8082                	ret

00000000800026c4 <Impl_gmul>:
    800026c4:	7139                	addi	sp,sp,-64
    800026c6:	fc06                	sd	ra,56(sp)
    800026c8:	f822                	sd	s0,48(sp)
    800026ca:	f426                	sd	s1,40(sp)
    800026cc:	f04a                	sd	s2,32(sp)
    800026ce:	ec4e                	sd	s3,24(sp)
    800026d0:	89ae                	mv	s3,a1
    800026d2:	6104                	ld	s1,0(a0)
    800026d4:	6500                	ld	s0,8(a0)
    800026d6:	c802                	sw	zero,16(sp)
    800026d8:	e402                	sd	zero,8(sp)
    800026da:	01010913          	addi	s2,sp,16
    800026de:	4204d513          	srai	a0,s1,0x20
    800026e2:	002c                	addi	a1,sp,8
    800026e4:	b55ff0ef          	jal	80002238 <gmul_>
    800026e8:	006c                	addi	a1,sp,12
    800026ea:	0004051b          	sext.w	a0,s0
    800026ee:	b4bff0ef          	jal	80002238 <gmul_>
    800026f2:	42045513          	srai	a0,s0,0x20
    800026f6:	85ca                	mv	a1,s2
    800026f8:	b41ff0ef          	jal	80002238 <gmul_>
    800026fc:	02049513          	slli	a0,s1,0x20
    80002700:	45a2                	lw	a1,8(sp)
    80002702:	9101                	srli	a0,a0,0x20
    80002704:	1582                	slli	a1,a1,0x20
    80002706:	8d4d                	or	a0,a0,a1
    80002708:	45c2                	lw	a1,16(sp)
    8000270a:	00c16603          	lwu	a2,12(sp)
    8000270e:	1582                	slli	a1,a1,0x20
    80002710:	8dd1                	or	a1,a1,a2
    80002712:	00a9b023          	sd	a0,0(s3)
    80002716:	00b9b423          	sd	a1,8(s3)
    8000271a:	70e2                	ld	ra,56(sp)
    8000271c:	7442                	ld	s0,48(sp)
    8000271e:	74a2                	ld	s1,40(sp)
    80002720:	7902                	ld	s2,32(sp)
    80002722:	69e2                	ld	s3,24(sp)
    80002724:	6121                	addi	sp,sp,64
    80002726:	8082                	ret

0000000080002728 <Impl_ShiftRows>:
    80002728:	7159                	addi	sp,sp,-112
    8000272a:	f486                	sd	ra,104(sp)
    8000272c:	f0a2                	sd	s0,96(sp)
    8000272e:	eca6                	sd	s1,88(sp)
    80002730:	e8ca                	sd	s2,80(sp)
    80002732:	e4ce                	sd	s3,72(sp)
    80002734:	e0d2                	sd	s4,64(sp)
    80002736:	fc56                	sd	s5,56(sp)
    80002738:	f85a                	sd	s6,48(sp)
    8000273a:	f45e                	sd	s7,40(sp)
    8000273c:	f062                	sd	s8,32(sp)
    8000273e:	ec66                	sd	s9,24(sp)
    80002740:	e86a                	sd	s10,16(sp)
    80002742:	e46e                	sd	s11,8(sp)
    80002744:	00053b03          	ld	s6,0(a0)
    80002748:	892e                	mv	s2,a1
    8000274a:	020b1593          	slli	a1,s6,0x20
    8000274e:	0205da93          	srli	s5,a1,0x20
    80002752:	6500                	ld	s0,8(a0)
    80002754:	020b5a13          	srli	s4,s6,0x20
    80002758:	02045993          	srli	s3,s0,0x20
    8000275c:	c202                	sw	zero,4(sp)
    8000275e:	0ffb7513          	zext.b	a0,s6
    80002762:	018b5593          	srli	a1,s6,0x18
    80002766:	6641                	lui	a2,0x10
    80002768:	f006049b          	addiw	s1,a2,-256 # ff00 <buflen.1+0xfec0>
    8000276c:	8de5                	and	a1,a1,s1
    8000276e:	03841613          	slli	a2,s0,0x38
    80002772:	9221                	srli	a2,a2,0x28
    80002774:	0189969b          	slliw	a3,s3,0x18
    80002778:	8d4d                	or	a0,a0,a1
    8000277a:	8d51                	or	a0,a0,a2
    8000277c:	8d55                	or	a0,a0,a3
    8000277e:	004c                	addi	a1,sp,4
    80002780:	ab9ff0ef          	jal	80002238 <gmul_>
    80002784:	00416503          	lwu	a0,4(sp)
    80002788:	0ff57b93          	zext.b	s7,a0
    8000278c:	03051593          	slli	a1,a0,0x30
    80002790:	0385dc13          	srli	s8,a1,0x38
    80002794:	02851593          	slli	a1,a0,0x28
    80002798:	0385dc93          	srli	s9,a1,0x38
    8000279c:	01855d13          	srli	s10,a0,0x18
    800027a0:	c202                	sw	zero,4(sp)
    800027a2:	030a9513          	slli	a0,s5,0x30
    800027a6:	9161                	srli	a0,a0,0x38
    800027a8:	009a75b3          	and	a1,s4,s1
    800027ac:	8d4d                	or	a0,a0,a1
    800027ae:	00841593          	slli	a1,s0,0x8
    800027b2:	00ff0db7          	lui	s11,0xff0
    800027b6:	01b5f5b3          	and	a1,a1,s11
    800027ba:	8d4d                	or	a0,a0,a1
    800027bc:	01045593          	srli	a1,s0,0x10
    800027c0:	2581                	sext.w	a1,a1
    800027c2:	ff000a37          	lui	s4,0xff000
    800027c6:	0145f5b3          	and	a1,a1,s4
    800027ca:	8d4d                	or	a0,a0,a1
    800027cc:	004c                	addi	a1,sp,4
    800027ce:	a6bff0ef          	jal	80002238 <gmul_>
    800027d2:	00416503          	lwu	a0,4(sp)
    800027d6:	03851593          	slli	a1,a0,0x38
    800027da:	91c1                	srli	a1,a1,0x30
    800027dc:	0175ebb3          	or	s7,a1,s7
    800027e0:	009575b3          	and	a1,a0,s1
    800027e4:	0185ec33          	or	s8,a1,s8
    800027e8:	00855593          	srli	a1,a0,0x8
    800027ec:	8de5                	and	a1,a1,s1
    800027ee:	0195ecb3          	or	s9,a1,s9
    800027f2:	8161                	srli	a0,a0,0x18
    800027f4:	0522                	slli	a0,a0,0x8
    800027f6:	01a56d33          	or	s10,a0,s10
    800027fa:	c202                	sw	zero,4(sp)
    800027fc:	028a9513          	slli	a0,s5,0x28
    80002800:	9161                	srli	a0,a0,0x38
    80002802:	028b5593          	srli	a1,s6,0x28
    80002806:	8de5                	and	a1,a1,s1
    80002808:	01b47633          	and	a2,s0,s11
    8000280c:	01845693          	srli	a3,s0,0x18
    80002810:	2681                	sext.w	a3,a3
    80002812:	0146f6b3          	and	a3,a3,s4
    80002816:	8d51                	or	a0,a0,a2
    80002818:	8d4d                	or	a0,a0,a1
    8000281a:	8d55                	or	a0,a0,a3
    8000281c:	004c                	addi	a1,sp,4
    8000281e:	a1bff0ef          	jal	80002238 <gmul_>
    80002822:	00416503          	lwu	a0,4(sp)
    80002826:	03851593          	slli	a1,a0,0x38
    8000282a:	91a1                	srli	a1,a1,0x28
    8000282c:	00bbe4b3          	or	s1,s7,a1
    80002830:	00851593          	slli	a1,a0,0x8
    80002834:	01b5f5b3          	and	a1,a1,s11
    80002838:	00bc6ab3          	or	s5,s8,a1
    8000283c:	01b575b3          	and	a1,a0,s11
    80002840:	00bcebb3          	or	s7,s9,a1
    80002844:	0185551b          	srliw	a0,a0,0x18
    80002848:	0542                	slli	a0,a0,0x10
    8000284a:	00ad6c33          	or	s8,s10,a0
    8000284e:	c202                	sw	zero,4(sp)
    80002850:	018b551b          	srliw	a0,s6,0x18
    80002854:	038b5593          	srli	a1,s6,0x38
    80002858:	05a2                	slli	a1,a1,0x8
    8000285a:	8d4d                	or	a0,a0,a1
    8000285c:	0184559b          	srliw	a1,s0,0x18
    80002860:	05c2                	slli	a1,a1,0x10
    80002862:	8d4d                	or	a0,a0,a1
    80002864:	0149f5b3          	and	a1,s3,s4
    80002868:	8d4d                	or	a0,a0,a1
    8000286a:	2501                	sext.w	a0,a0
    8000286c:	004c                	addi	a1,sp,4
    8000286e:	9cbff0ef          	jal	80002238 <gmul_>
    80002872:	00416503          	lwu	a0,4(sp)
    80002876:	01851593          	slli	a1,a0,0x18
    8000287a:	8dc5                	or	a1,a1,s1
    8000287c:	00855613          	srli	a2,a0,0x8
    80002880:	0662                	slli	a2,a2,0x18
    80002882:	00cae633          	or	a2,s5,a2
    80002886:	00851693          	slli	a3,a0,0x8
    8000288a:	0ff00713          	li	a4,255
    8000288e:	0762                	slli	a4,a4,0x18
    80002890:	8ef9                	and	a3,a3,a4
    80002892:	00dbe6b3          	or	a3,s7,a3
    80002896:	01457533          	and	a0,a0,s4
    8000289a:	00ac6533          	or	a0,s8,a0
    8000289e:	1582                	slli	a1,a1,0x20
    800028a0:	9181                	srli	a1,a1,0x20
    800028a2:	1602                	slli	a2,a2,0x20
    800028a4:	8dd1                	or	a1,a1,a2
    800028a6:	1502                	slli	a0,a0,0x20
    800028a8:	8d55                	or	a0,a0,a3
    800028aa:	00b93023          	sd	a1,0(s2)
    800028ae:	00a93423          	sd	a0,8(s2)
    800028b2:	70a6                	ld	ra,104(sp)
    800028b4:	7406                	ld	s0,96(sp)
    800028b6:	64e6                	ld	s1,88(sp)
    800028b8:	6946                	ld	s2,80(sp)
    800028ba:	69a6                	ld	s3,72(sp)
    800028bc:	6a06                	ld	s4,64(sp)
    800028be:	7ae2                	ld	s5,56(sp)
    800028c0:	7b42                	ld	s6,48(sp)
    800028c2:	7ba2                	ld	s7,40(sp)
    800028c4:	7c02                	ld	s8,32(sp)
    800028c6:	6ce2                	ld	s9,24(sp)
    800028c8:	6d42                	ld	s10,16(sp)
    800028ca:	6da2                	ld	s11,8(sp)
    800028cc:	6165                	addi	sp,sp,112
    800028ce:	8082                	ret

00000000800028d0 <OP_ShiftRows>:
    800028d0:	1101                	addi	sp,sp,-32
    800028d2:	ec06                	sd	ra,24(sp)
    800028d4:	86aa                	mv	a3,a0
    800028d6:	e42e                	sd	a1,8(sp)
    800028d8:	e832                	sd	a2,16(sp)
    800028da:	0028                	addi	a0,sp,8
    800028dc:	85b6                	mv	a1,a3
    800028de:	e4bff0ef          	jal	80002728 <Impl_ShiftRows>
    800028e2:	60e2                	ld	ra,24(sp)
    800028e4:	6105                	addi	sp,sp,32
    800028e6:	8082                	ret

00000000800028e8 <OP_gmul>:
    800028e8:	7139                	addi	sp,sp,-64
    800028ea:	fc06                	sd	ra,56(sp)
    800028ec:	f822                	sd	s0,48(sp)
    800028ee:	f426                	sd	s1,40(sp)
    800028f0:	f04a                	sd	s2,32(sp)
    800028f2:	ec4e                	sd	s3,24(sp)
    800028f4:	8432                	mv	s0,a2
    800028f6:	84ae                	mv	s1,a1
    800028f8:	892a                	mv	s2,a0
    800028fa:	c802                	sw	zero,16(sp)
    800028fc:	e402                	sd	zero,8(sp)
    800028fe:	01010993          	addi	s3,sp,16
    80002902:	4205d513          	srai	a0,a1,0x20
    80002906:	002c                	addi	a1,sp,8
    80002908:	931ff0ef          	jal	80002238 <gmul_>
    8000290c:	006c                	addi	a1,sp,12
    8000290e:	0004051b          	sext.w	a0,s0
    80002912:	927ff0ef          	jal	80002238 <gmul_>
    80002916:	42045513          	srai	a0,s0,0x20
    8000291a:	85ce                	mv	a1,s3
    8000291c:	91dff0ef          	jal	80002238 <gmul_>
    80002920:	02049513          	slli	a0,s1,0x20
    80002924:	45a2                	lw	a1,8(sp)
    80002926:	9101                	srli	a0,a0,0x20
    80002928:	1582                	slli	a1,a1,0x20
    8000292a:	8d4d                	or	a0,a0,a1
    8000292c:	45c2                	lw	a1,16(sp)
    8000292e:	00c16603          	lwu	a2,12(sp)
    80002932:	1582                	slli	a1,a1,0x20
    80002934:	8dd1                	or	a1,a1,a2
    80002936:	00a93023          	sd	a0,0(s2)
    8000293a:	00b93423          	sd	a1,8(s2)
    8000293e:	70e2                	ld	ra,56(sp)
    80002940:	7442                	ld	s0,48(sp)
    80002942:	74a2                	ld	s1,40(sp)
    80002944:	7902                	ld	s2,32(sp)
    80002946:	69e2                	ld	s3,24(sp)
    80002948:	6121                	addi	sp,sp,64
    8000294a:	8082                	ret

000000008000294c <OP_SBOX>:
    8000294c:	1101                	addi	sp,sp,-32
    8000294e:	ec06                	sd	ra,24(sp)
    80002950:	86aa                	mv	a3,a0
    80002952:	e42e                	sd	a1,8(sp)
    80002954:	e832                	sd	a2,16(sp)
    80002956:	0028                	addi	a0,sp,8
    80002958:	85b6                	mv	a1,a3
    8000295a:	ebaff0ef          	jal	80002014 <Impl_SBOX>
    8000295e:	60e2                	ld	ra,24(sp)
    80002960:	6105                	addi	sp,sp,32
    80002962:	8082                	ret

0000000080002964 <KeyExpansion>:
    80002964:	7119                	addi	sp,sp,-128
    80002966:	fc86                	sd	ra,120(sp)
    80002968:	f8a2                	sd	s0,112(sp)
    8000296a:	f4a6                	sd	s1,104(sp)
    8000296c:	f0ca                	sd	s2,96(sp)
    8000296e:	ecce                	sd	s3,88(sp)
    80002970:	e8d2                	sd	s4,80(sp)
    80002972:	e4d6                	sd	s5,72(sp)
    80002974:	e0da                	sd	s6,64(sp)
    80002976:	fc5e                	sd	s7,56(sp)
    80002978:	f862                	sd	s8,48(sp)
    8000297a:	f466                	sd	s9,40(sp)
    8000297c:	f06a                	sd	s10,32(sp)
    8000297e:	ec6e                	sd	s11,24(sp)
    80002980:	4601                	li	a2,0
    80002982:	050d                	addi	a0,a0,3
    80002984:	46c1                	li	a3,16
    80002986:	00c50733          	add	a4,a0,a2
    8000298a:	ffd70783          	lb	a5,-3(a4)
    8000298e:	00c584b3          	add	s1,a1,a2
    80002992:	00f48023          	sb	a5,0(s1)
    80002996:	ffe70783          	lb	a5,-2(a4)
    8000299a:	00f480a3          	sb	a5,1(s1)
    8000299e:	fff70783          	lb	a5,-1(a4)
    800029a2:	00f48123          	sb	a5,2(s1)
    800029a6:	00070703          	lb	a4,0(a4)
    800029aa:	0611                	addi	a2,a2,4
    800029ac:	00e481a3          	sb	a4,3(s1)
    800029b0:	fcd61be3          	bne	a2,a3,80002986 <KeyExpansion+0x22>
    800029b4:	00c5c303          	lbu	t1,12(a1)
    800029b8:	00d5c703          	lbu	a4,13(a1)
    800029bc:	00004517          	auipc	a0,0x4
    800029c0:	26550513          	addi	a0,a0,613 # 80006c21 <Rcon>
    800029c4:	00150603          	lb	a2,1(a0)
    800029c8:	82aa                	mv	t0,a0
    800029ca:	00004517          	auipc	a0,0x4
    800029ce:	15750513          	addi	a0,a0,343 # 80006b21 <sbox>
    800029d2:	00e506b3          	add	a3,a0,a4
    800029d6:	883a                	mv	a6,a4
    800029d8:	00068683          	lb	a3,0(a3)
    800029dc:	00e5c383          	lbu	t2,14(a1)
    800029e0:	00f5c883          	lbu	a7,15(a1)
    800029e4:	8e35                	xor	a2,a2,a3
    800029e6:	006506b3          	add	a3,a0,t1
    800029ea:	00068683          	lb	a3,0(a3)
    800029ee:	01150733          	add	a4,a0,a7
    800029f2:	00070703          	lb	a4,0(a4)
    800029f6:	007507b3          	add	a5,a0,t2
    800029fa:	00058483          	lb	s1,0(a1)
    800029fe:	00078783          	lb	a5,0(a5)
    80002a02:	00158403          	lb	s0,1(a1)
    80002a06:	00964b33          	xor	s6,a2,s1
    80002a0a:	01658823          	sb	s6,16(a1)
    80002a0e:	0087cbb3          	xor	s7,a5,s0
    80002a12:	00258483          	lb	s1,2(a1)
    80002a16:	017588a3          	sb	s7,17(a1)
    80002a1a:	00358403          	lb	s0,3(a1)
    80002a1e:	00974cb3          	xor	s9,a4,s1
    80002a22:	01958923          	sb	s9,18(a1)
    80002a26:	0086cc33          	xor	s8,a3,s0
    80002a2a:	00458903          	lb	s2,4(a1)
    80002a2e:	018589a3          	sb	s8,19(a1)
    80002a32:	00558983          	lb	s3,5(a1)
    80002a36:	012b4433          	xor	s0,s6,s2
    80002a3a:	00858a23          	sb	s0,20(a1)
    80002a3e:	013bc4b3          	xor	s1,s7,s3
    80002a42:	00658a03          	lb	s4,6(a1)
    80002a46:	00958aa3          	sb	s1,21(a1)
    80002a4a:	00758a83          	lb	s5,7(a1)
    80002a4e:	014cc633          	xor	a2,s9,s4
    80002a52:	00c58b23          	sb	a2,22(a1)
    80002a56:	015c47b3          	xor	a5,s8,s5
    80002a5a:	00858683          	lb	a3,8(a1)
    80002a5e:	00f58ba3          	sb	a5,23(a1)
    80002a62:	00958703          	lb	a4,9(a1)
    80002a66:	00d44e33          	xor	t3,s0,a3
    80002a6a:	01c58c23          	sb	t3,24(a1)
    80002a6e:	00e4ceb3          	xor	t4,s1,a4
    80002a72:	00a58683          	lb	a3,10(a1)
    80002a76:	01d58ca3          	sb	t4,25(a1)
    80002a7a:	00b58703          	lb	a4,11(a1)
    80002a7e:	00d64fb3          	xor	t6,a2,a3
    80002a82:	01f58d23          	sb	t6,26(a1)
    80002a86:	00e7cf33          	xor	t5,a5,a4
    80002a8a:	01e58da3          	sb	t5,27(a1)
    80002a8e:	006e4633          	xor	a2,t3,t1
    80002a92:	00c58e23          	sb	a2,28(a1)
    80002a96:	010ec6b3          	xor	a3,t4,a6
    80002a9a:	8dc2                	mv	s11,a6
    80002a9c:	e842                	sd	a6,16(sp)
    80002a9e:	00d58ea3          	sb	a3,29(a1)
    80002aa2:	007fc733          	xor	a4,t6,t2
    80002aa6:	00e58f23          	sb	a4,30(a1)
    80002aaa:	011f47b3          	xor	a5,t5,a7
    80002aae:	00f58fa3          	sb	a5,31(a1)
    80002ab2:	00228403          	lb	s0,2(t0)
    80002ab6:	0ff6f693          	zext.b	a3,a3
    80002aba:	96aa                	add	a3,a3,a0
    80002abc:	00068683          	lb	a3,0(a3)
    80002ac0:	8ea1                	xor	a3,a3,s0
    80002ac2:	0ff67613          	zext.b	a2,a2
    80002ac6:	962a                	add	a2,a2,a0
    80002ac8:	00060403          	lb	s0,0(a2)
    80002acc:	0ff7f613          	zext.b	a2,a5
    80002ad0:	962a                	add	a2,a2,a0
    80002ad2:	00060483          	lb	s1,0(a2)
    80002ad6:	0ff77613          	zext.b	a2,a4
    80002ada:	962a                	add	a2,a2,a0
    80002adc:	00060703          	lb	a4,0(a2)
    80002ae0:	0166cb33          	xor	s6,a3,s6
    80002ae4:	03658023          	sb	s6,32(a1)
    80002ae8:	01774bb3          	xor	s7,a4,s7
    80002aec:	037580a3          	sb	s7,33(a1)
    80002af0:	0194ccb3          	xor	s9,s1,s9
    80002af4:	03958123          	sb	s9,34(a1)
    80002af8:	01844c33          	xor	s8,s0,s8
    80002afc:	038581a3          	sb	s8,35(a1)
    80002b00:	0126c933          	xor	s2,a3,s2
    80002b04:	03258223          	sb	s2,36(a1)
    80002b08:	01374d33          	xor	s10,a4,s3
    80002b0c:	03a582a3          	sb	s10,37(a1)
    80002b10:	0144c9b3          	xor	s3,s1,s4
    80002b14:	03358323          	sb	s3,38(a1)
    80002b18:	01544a33          	xor	s4,s0,s5
    80002b1c:	034583a3          	sb	s4,39(a1)
    80002b20:	01c94433          	xor	s0,s2,t3
    80002b24:	02858423          	sb	s0,40(a1)
    80002b28:	01dd4433          	xor	s0,s10,t4
    80002b2c:	028584a3          	sb	s0,41(a1)
    80002b30:	01f9c433          	xor	s0,s3,t6
    80002b34:	02858523          	sb	s0,42(a1)
    80002b38:	01ea4433          	xor	s0,s4,t5
    80002b3c:	028585a3          	sb	s0,43(a1)
    80002b40:	00694833          	xor	a6,s2,t1
    80002b44:	03058623          	sb	a6,44(a1)
    80002b48:	01bd44b3          	xor	s1,s10,s11
    80002b4c:	029586a3          	sb	s1,45(a1)
    80002b50:	0079cdb3          	xor	s11,s3,t2
    80002b54:	03b58723          	sb	s11,46(a1)
    80002b58:	011a40b3          	xor	ra,s4,a7
    80002b5c:	021587a3          	sb	ra,47(a1)
    80002b60:	00328703          	lb	a4,3(t0)
    80002b64:	0ff4f793          	zext.b	a5,s1
    80002b68:	97aa                	add	a5,a5,a0
    80002b6a:	00078783          	lb	a5,0(a5)
    80002b6e:	8f3d                	xor	a4,a4,a5
    80002b70:	0ff87793          	zext.b	a5,a6
    80002b74:	97aa                	add	a5,a5,a0
    80002b76:	00078a83          	lb	s5,0(a5)
    80002b7a:	0ff0f793          	zext.b	a5,ra
    80002b7e:	97aa                	add	a5,a5,a0
    80002b80:	00078783          	lb	a5,0(a5)
    80002b84:	0ffdf613          	zext.b	a2,s11
    80002b88:	962a                	add	a2,a2,a0
    80002b8a:	00060603          	lb	a2,0(a2)
    80002b8e:	01674733          	xor	a4,a4,s6
    80002b92:	02e58823          	sb	a4,48(a1)
    80002b96:	01764b33          	xor	s6,a2,s7
    80002b9a:	036588a3          	sb	s6,49(a1)
    80002b9e:	0197c7b3          	xor	a5,a5,s9
    80002ba2:	02f58923          	sb	a5,50(a1)
    80002ba6:	018acab3          	xor	s5,s5,s8
    80002baa:	035589a3          	sb	s5,51(a1)
    80002bae:	01274433          	xor	s0,a4,s2
    80002bb2:	02858a23          	sb	s0,52(a1)
    80002bb6:	01ab4433          	xor	s0,s6,s10
    80002bba:	02858aa3          	sb	s0,53(a1)
    80002bbe:	0137c433          	xor	s0,a5,s3
    80002bc2:	02858b23          	sb	s0,54(a1)
    80002bc6:	014ac433          	xor	s0,s5,s4
    80002bca:	02858ba3          	sb	s0,55(a1)
    80002bce:	01c74e33          	xor	t3,a4,t3
    80002bd2:	03c58c23          	sb	t3,56(a1)
    80002bd6:	01db4eb3          	xor	t4,s6,t4
    80002bda:	03d58ca3          	sb	t4,57(a1)
    80002bde:	01f7cfb3          	xor	t6,a5,t6
    80002be2:	03f58d23          	sb	t6,58(a1)
    80002be6:	01eacf33          	xor	t5,s5,t5
    80002bea:	03e58da3          	sb	t5,59(a1)
    80002bee:	010e4433          	xor	s0,t3,a6
    80002bf2:	02858e23          	sb	s0,60(a1)
    80002bf6:	009ec4b3          	xor	s1,t4,s1
    80002bfa:	02958ea3          	sb	s1,61(a1)
    80002bfe:	01bfc633          	xor	a2,t6,s11
    80002c02:	02c58f23          	sb	a2,62(a1)
    80002c06:	001f46b3          	xor	a3,t5,ra
    80002c0a:	02d58fa3          	sb	a3,63(a1)
    80002c0e:	8096                	mv	ra,t0
    80002c10:	00428803          	lb	a6,4(t0)
    80002c14:	0ff4f493          	zext.b	s1,s1
    80002c18:	94aa                	add	s1,s1,a0
    80002c1a:	00048483          	lb	s1,0(s1)
    80002c1e:	009844b3          	xor	s1,a6,s1
    80002c22:	0ff47413          	zext.b	s0,s0
    80002c26:	942a                	add	s0,s0,a0
    80002c28:	00040403          	lb	s0,0(s0)
    80002c2c:	0ff6f693          	zext.b	a3,a3
    80002c30:	96aa                	add	a3,a3,a0
    80002c32:	00068683          	lb	a3,0(a3)
    80002c36:	0ff67613          	zext.b	a2,a2
    80002c3a:	962a                	add	a2,a2,a0
    80002c3c:	00060603          	lb	a2,0(a2)
    80002c40:	00e4cdb3          	xor	s11,s1,a4
    80002c44:	05b58023          	sb	s11,64(a1)
    80002c48:	01664c33          	xor	s8,a2,s6
    80002c4c:	058580a3          	sb	s8,65(a1)
    80002c50:	00f6c2b3          	xor	t0,a3,a5
    80002c54:	04558123          	sb	t0,66(a1)
    80002c58:	01544cb3          	xor	s9,s0,s5
    80002c5c:	059581a3          	sb	s9,67(a1)
    80002c60:	0124cb33          	xor	s6,s1,s2
    80002c64:	05658223          	sb	s6,68(a1)
    80002c68:	01a64ab3          	xor	s5,a2,s10
    80002c6c:	055582a3          	sb	s5,69(a1)
    80002c70:	0136cbb3          	xor	s7,a3,s3
    80002c74:	05758323          	sb	s7,70(a1)
    80002c78:	01444a33          	xor	s4,s0,s4
    80002c7c:	054583a3          	sb	s4,71(a1)
    80002c80:	01cb4733          	xor	a4,s6,t3
    80002c84:	04e58423          	sb	a4,72(a1)
    80002c88:	01dac733          	xor	a4,s5,t4
    80002c8c:	04e584a3          	sb	a4,73(a1)
    80002c90:	01fbc733          	xor	a4,s7,t6
    80002c94:	04e58523          	sb	a4,74(a1)
    80002c98:	01ea4733          	xor	a4,s4,t5
    80002c9c:	04e585a3          	sb	a4,75(a1)
    80002ca0:	0064c733          	xor	a4,s1,t1
    80002ca4:	04e58623          	sb	a4,76(a1)
    80002ca8:	87ba                	mv	a5,a4
    80002caa:	6742                	ld	a4,16(sp)
    80002cac:	00e649b3          	xor	s3,a2,a4
    80002cb0:	053586a3          	sb	s3,77(a1)
    80002cb4:	0076c633          	xor	a2,a3,t2
    80002cb8:	04c58723          	sb	a2,78(a1)
    80002cbc:	011444b3          	xor	s1,s0,a7
    80002cc0:	049587a3          	sb	s1,79(a1)
    80002cc4:	00508703          	lb	a4,5(ra)
    80002cc8:	0ff9f693          	zext.b	a3,s3
    80002ccc:	96aa                	add	a3,a3,a0
    80002cce:	00068683          	lb	a3,0(a3)
    80002cd2:	00d74433          	xor	s0,a4,a3
    80002cd6:	0ff7f693          	zext.b	a3,a5
    80002cda:	833e                	mv	t1,a5
    80002cdc:	96aa                	add	a3,a3,a0
    80002cde:	00068783          	lb	a5,0(a3)
    80002ce2:	0ff4f713          	zext.b	a4,s1
    80002ce6:	8826                	mv	a6,s1
    80002ce8:	972a                	add	a4,a4,a0
    80002cea:	00070703          	lb	a4,0(a4)
    80002cee:	0ff67493          	zext.b	s1,a2
    80002cf2:	86b2                	mv	a3,a2
    80002cf4:	94aa                	add	s1,s1,a0
    80002cf6:	00048483          	lb	s1,0(s1)
    80002cfa:	01b44d33          	xor	s10,s0,s11
    80002cfe:	05a58823          	sb	s10,80(a1)
    80002d02:	0184c433          	xor	s0,s1,s8
    80002d06:	048588a3          	sb	s0,81(a1)
    80002d0a:	005744b3          	xor	s1,a4,t0
    80002d0e:	04958923          	sb	s1,82(a1)
    80002d12:	0197cc33          	xor	s8,a5,s9
    80002d16:	058589a3          	sb	s8,83(a1)
    80002d1a:	016d4733          	xor	a4,s10,s6
    80002d1e:	04e58a23          	sb	a4,84(a1)
    80002d22:	01544733          	xor	a4,s0,s5
    80002d26:	04e58aa3          	sb	a4,85(a1)
    80002d2a:	0174c733          	xor	a4,s1,s7
    80002d2e:	04e58b23          	sb	a4,86(a1)
    80002d32:	014c4733          	xor	a4,s8,s4
    80002d36:	04e58ba3          	sb	a4,87(a1)
    80002d3a:	01cd4e33          	xor	t3,s10,t3
    80002d3e:	05c58c23          	sb	t3,88(a1)
    80002d42:	01d44eb3          	xor	t4,s0,t4
    80002d46:	05d58ca3          	sb	t4,89(a1)
    80002d4a:	01f4c8b3          	xor	a7,s1,t6
    80002d4e:	05158d23          	sb	a7,90(a1)
    80002d52:	01ec43b3          	xor	t2,s8,t5
    80002d56:	04758da3          	sb	t2,91(a1)
    80002d5a:	8d9a                	mv	s11,t1
    80002d5c:	e01a                	sd	t1,0(sp)
    80002d5e:	006e4733          	xor	a4,t3,t1
    80002d62:	04e58e23          	sb	a4,92(a1)
    80002d66:	013ec7b3          	xor	a5,t4,s3
    80002d6a:	04f58ea3          	sb	a5,93(a1)
    80002d6e:	00c8c633          	xor	a2,a7,a2
    80002d72:	8fb6                	mv	t6,a3
    80002d74:	e436                	sd	a3,8(sp)
    80002d76:	04c58f23          	sb	a2,94(a1)
    80002d7a:	0103c6b3          	xor	a3,t2,a6
    80002d7e:	8342                	mv	t1,a6
    80002d80:	e842                	sd	a6,16(sp)
    80002d82:	04d58fa3          	sb	a3,95(a1)
    80002d86:	00608f03          	lb	t5,6(ra)
    80002d8a:	8286                	mv	t0,ra
    80002d8c:	0ff7f793          	zext.b	a5,a5
    80002d90:	97aa                	add	a5,a5,a0
    80002d92:	00078783          	lb	a5,0(a5)
    80002d96:	00ff47b3          	xor	a5,t5,a5
    80002d9a:	0ff77713          	zext.b	a4,a4
    80002d9e:	972a                	add	a4,a4,a0
    80002da0:	00070703          	lb	a4,0(a4)
    80002da4:	0ff6f693          	zext.b	a3,a3
    80002da8:	96aa                	add	a3,a3,a0
    80002daa:	00068683          	lb	a3,0(a3)
    80002dae:	0ff67613          	zext.b	a2,a2
    80002db2:	962a                	add	a2,a2,a0
    80002db4:	00060603          	lb	a2,0(a2)
    80002db8:	01a7cf33          	xor	t5,a5,s10
    80002dbc:	07e58023          	sb	t5,96(a1)
    80002dc0:	00864933          	xor	s2,a2,s0
    80002dc4:	072580a3          	sb	s2,97(a1)
    80002dc8:	0096ccb3          	xor	s9,a3,s1
    80002dcc:	07958123          	sb	s9,98(a1)
    80002dd0:	01874c33          	xor	s8,a4,s8
    80002dd4:	078581a3          	sb	s8,99(a1)
    80002dd8:	0167cb33          	xor	s6,a5,s6
    80002ddc:	07658223          	sb	s6,100(a1)
    80002de0:	01564d33          	xor	s10,a2,s5
    80002de4:	07a582a3          	sb	s10,101(a1)
    80002de8:	0176cab3          	xor	s5,a3,s7
    80002dec:	07558323          	sb	s5,102(a1)
    80002df0:	01474a33          	xor	s4,a4,s4
    80002df4:	074583a3          	sb	s4,103(a1)
    80002df8:	01cb4733          	xor	a4,s6,t3
    80002dfc:	06e58423          	sb	a4,104(a1)
    80002e00:	01dd4733          	xor	a4,s10,t4
    80002e04:	06e584a3          	sb	a4,105(a1)
    80002e08:	011ac733          	xor	a4,s5,a7
    80002e0c:	06e58523          	sb	a4,106(a1)
    80002e10:	007a4733          	xor	a4,s4,t2
    80002e14:	06e585a3          	sb	a4,107(a1)
    80002e18:	01bb4833          	xor	a6,s6,s11
    80002e1c:	07058623          	sb	a6,108(a1)
    80002e20:	013d47b3          	xor	a5,s10,s3
    80002e24:	06f586a3          	sb	a5,109(a1)
    80002e28:	01facdb3          	xor	s11,s5,t6
    80002e2c:	07b58723          	sb	s11,110(a1)
    80002e30:	006a40b3          	xor	ra,s4,t1
    80002e34:	061587a3          	sb	ra,111(a1)
    80002e38:	00728403          	lb	s0,7(t0)
    80002e3c:	0ff7f493          	zext.b	s1,a5
    80002e40:	94aa                	add	s1,s1,a0
    80002e42:	00048483          	lb	s1,0(s1)
    80002e46:	8c25                	xor	s0,s0,s1
    80002e48:	0ff87493          	zext.b	s1,a6
    80002e4c:	94aa                	add	s1,s1,a0
    80002e4e:	00048b83          	lb	s7,0(s1)
    80002e52:	0ff0f493          	zext.b	s1,ra
    80002e56:	94aa                	add	s1,s1,a0
    80002e58:	00048483          	lb	s1,0(s1)
    80002e5c:	0ffdf613          	zext.b	a2,s11
    80002e60:	962a                	add	a2,a2,a0
    80002e62:	00060603          	lb	a2,0(a2)
    80002e66:	01e44433          	xor	s0,s0,t5
    80002e6a:	06858823          	sb	s0,112(a1)
    80002e6e:	01264633          	xor	a2,a2,s2
    80002e72:	06c588a3          	sb	a2,113(a1)
    80002e76:	0194ccb3          	xor	s9,s1,s9
    80002e7a:	07958923          	sb	s9,114(a1)
    80002e7e:	018bcbb3          	xor	s7,s7,s8
    80002e82:	077589a3          	sb	s7,115(a1)
    80002e86:	01644733          	xor	a4,s0,s6
    80002e8a:	06e58a23          	sb	a4,116(a1)
    80002e8e:	01a64733          	xor	a4,a2,s10
    80002e92:	06e58aa3          	sb	a4,117(a1)
    80002e96:	015cc733          	xor	a4,s9,s5
    80002e9a:	06e58b23          	sb	a4,118(a1)
    80002e9e:	014bc733          	xor	a4,s7,s4
    80002ea2:	06e58ba3          	sb	a4,119(a1)
    80002ea6:	01c44f33          	xor	t5,s0,t3
    80002eaa:	07e58c23          	sb	t5,120(a1)
    80002eae:	01d64fb3          	xor	t6,a2,t4
    80002eb2:	07f58ca3          	sb	t6,121(a1)
    80002eb6:	011cc8b3          	xor	a7,s9,a7
    80002eba:	07158d23          	sb	a7,122(a1)
    80002ebe:	007bc3b3          	xor	t2,s7,t2
    80002ec2:	06758da3          	sb	t2,123(a1)
    80002ec6:	010f4733          	xor	a4,t5,a6
    80002eca:	06e58e23          	sb	a4,124(a1)
    80002ece:	00ffc7b3          	xor	a5,t6,a5
    80002ed2:	06f58ea3          	sb	a5,125(a1)
    80002ed6:	01b8c6b3          	xor	a3,a7,s11
    80002eda:	06d58f23          	sb	a3,126(a1)
    80002ede:	0013c4b3          	xor	s1,t2,ra
    80002ee2:	06958fa3          	sb	s1,127(a1)
    80002ee6:	00828803          	lb	a6,8(t0)
    80002eea:	0ff7f793          	zext.b	a5,a5
    80002eee:	97aa                	add	a5,a5,a0
    80002ef0:	00078783          	lb	a5,0(a5)
    80002ef4:	00f847b3          	xor	a5,a6,a5
    80002ef8:	0ff77713          	zext.b	a4,a4
    80002efc:	972a                	add	a4,a4,a0
    80002efe:	00070703          	lb	a4,0(a4)
    80002f02:	0ff4f493          	zext.b	s1,s1
    80002f06:	94aa                	add	s1,s1,a0
    80002f08:	00048483          	lb	s1,0(s1)
    80002f0c:	0ff6f693          	zext.b	a3,a3
    80002f10:	96aa                	add	a3,a3,a0
    80002f12:	00068683          	lb	a3,0(a3)
    80002f16:	0087cc33          	xor	s8,a5,s0
    80002f1a:	09858023          	sb	s8,128(a1)
    80002f1e:	00c6cdb3          	xor	s11,a3,a2
    80002f22:	09b580a3          	sb	s11,129(a1)
    80002f26:	0194ccb3          	xor	s9,s1,s9
    80002f2a:	09958123          	sb	s9,130(a1)
    80002f2e:	01774bb3          	xor	s7,a4,s7
    80002f32:	097581a3          	sb	s7,131(a1)
    80002f36:	0167c0b3          	xor	ra,a5,s6
    80002f3a:	08158223          	sb	ra,132(a1)
    80002f3e:	01a6cb33          	xor	s6,a3,s10
    80002f42:	096582a3          	sb	s6,133(a1)
    80002f46:	0154cab3          	xor	s5,s1,s5
    80002f4a:	09558323          	sb	s5,134(a1)
    80002f4e:	01474a33          	xor	s4,a4,s4
    80002f52:	094583a3          	sb	s4,135(a1)
    80002f56:	01e0c633          	xor	a2,ra,t5
    80002f5a:	08c58423          	sb	a2,136(a1)
    80002f5e:	01fb4633          	xor	a2,s6,t6
    80002f62:	08c584a3          	sb	a2,137(a1)
    80002f66:	011ac633          	xor	a2,s5,a7
    80002f6a:	08c58523          	sb	a2,138(a1)
    80002f6e:	007a4633          	xor	a2,s4,t2
    80002f72:	08c585a3          	sb	a2,139(a1)
    80002f76:	6602                	ld	a2,0(sp)
    80002f78:	00c7ce33          	xor	t3,a5,a2
    80002f7c:	09c58623          	sb	t3,140(a1)
    80002f80:	0136ceb3          	xor	t4,a3,s3
    80002f84:	09d586a3          	sb	t4,141(a1)
    80002f88:	6622                	ld	a2,8(sp)
    80002f8a:	00c4c333          	xor	t1,s1,a2
    80002f8e:	08658723          	sb	t1,142(a1)
    80002f92:	6642                	ld	a2,16(sp)
    80002f94:	00c74833          	xor	a6,a4,a2
    80002f98:	090587a3          	sb	a6,143(a1)
    80002f9c:	8d16                	mv	s10,t0
    80002f9e:	00928603          	lb	a2,9(t0)
    80002fa2:	0ffef693          	zext.b	a3,t4
    80002fa6:	96aa                	add	a3,a3,a0
    80002fa8:	00068683          	lb	a3,0(a3)
    80002fac:	8e35                	xor	a2,a2,a3
    80002fae:	0ffe7693          	zext.b	a3,t3
    80002fb2:	96aa                	add	a3,a3,a0
    80002fb4:	00068683          	lb	a3,0(a3)
    80002fb8:	0ff87713          	zext.b	a4,a6
    80002fbc:	972a                	add	a4,a4,a0
    80002fbe:	00070703          	lb	a4,0(a4)
    80002fc2:	0ff37793          	zext.b	a5,t1
    80002fc6:	97aa                	add	a5,a5,a0
    80002fc8:	00078783          	lb	a5,0(a5)
    80002fcc:	018649b3          	xor	s3,a2,s8
    80002fd0:	09358823          	sb	s3,144(a1)
    80002fd4:	01b7c7b3          	xor	a5,a5,s11
    80002fd8:	08f588a3          	sb	a5,145(a1)
    80002fdc:	01974733          	xor	a4,a4,s9
    80002fe0:	08e58923          	sb	a4,146(a1)
    80002fe4:	0176cbb3          	xor	s7,a3,s7
    80002fe8:	097589a3          	sb	s7,147(a1)
    80002fec:	0019c4b3          	xor	s1,s3,ra
    80002ff0:	08958a23          	sb	s1,148(a1)
    80002ff4:	0167c4b3          	xor	s1,a5,s6
    80002ff8:	08958aa3          	sb	s1,149(a1)
    80002ffc:	015744b3          	xor	s1,a4,s5
    80003000:	08958b23          	sb	s1,150(a1)
    80003004:	014bc4b3          	xor	s1,s7,s4
    80003008:	08958ba3          	sb	s1,151(a1)
    8000300c:	01e9c933          	xor	s2,s3,t5
    80003010:	09258c23          	sb	s2,152(a1)
    80003014:	01f7cf33          	xor	t5,a5,t6
    80003018:	09e58ca3          	sb	t5,153(a1)
    8000301c:	011748b3          	xor	a7,a4,a7
    80003020:	09158d23          	sb	a7,154(a1)
    80003024:	007bc2b3          	xor	t0,s7,t2
    80003028:	08558da3          	sb	t0,155(a1)
    8000302c:	01c94433          	xor	s0,s2,t3
    80003030:	08858e23          	sb	s0,156(a1)
    80003034:	01df44b3          	xor	s1,t5,t4
    80003038:	08958ea3          	sb	s1,157(a1)
    8000303c:	0068c633          	xor	a2,a7,t1
    80003040:	08c58f23          	sb	a2,158(a1)
    80003044:	0102c6b3          	xor	a3,t0,a6
    80003048:	08d58fa3          	sb	a3,159(a1)
    8000304c:	00ad0383          	lb	t2,10(s10)
    80003050:	0ff4f493          	zext.b	s1,s1
    80003054:	94aa                	add	s1,s1,a0
    80003056:	00048483          	lb	s1,0(s1)
    8000305a:	0093c4b3          	xor	s1,t2,s1
    8000305e:	0ff47413          	zext.b	s0,s0
    80003062:	942a                	add	s0,s0,a0
    80003064:	00040403          	lb	s0,0(s0)
    80003068:	0ff6f693          	zext.b	a3,a3
    8000306c:	96aa                	add	a3,a3,a0
    8000306e:	00068683          	lb	a3,0(a3)
    80003072:	0ff67613          	zext.b	a2,a2
    80003076:	9532                	add	a0,a0,a2
    80003078:	00050503          	lb	a0,0(a0)
    8000307c:	0134c633          	xor	a2,s1,s3
    80003080:	0ac58023          	sb	a2,160(a1)
    80003084:	00f54633          	xor	a2,a0,a5
    80003088:	0ac580a3          	sb	a2,161(a1)
    8000308c:	00e6c633          	xor	a2,a3,a4
    80003090:	0ac58123          	sb	a2,162(a1)
    80003094:	01744633          	xor	a2,s0,s7
    80003098:	0ac581a3          	sb	a2,163(a1)
    8000309c:	0014c633          	xor	a2,s1,ra
    800030a0:	0ac58223          	sb	a2,164(a1)
    800030a4:	01654533          	xor	a0,a0,s6
    800030a8:	0aa582a3          	sb	a0,165(a1)
    800030ac:	0156c6b3          	xor	a3,a3,s5
    800030b0:	0ad58323          	sb	a3,166(a1)
    800030b4:	01444733          	xor	a4,s0,s4
    800030b8:	0ae583a3          	sb	a4,167(a1)
    800030bc:	012647b3          	xor	a5,a2,s2
    800030c0:	0af58423          	sb	a5,168(a1)
    800030c4:	01e547b3          	xor	a5,a0,t5
    800030c8:	0af584a3          	sb	a5,169(a1)
    800030cc:	0116c7b3          	xor	a5,a3,a7
    800030d0:	0af58523          	sb	a5,170(a1)
    800030d4:	005747b3          	xor	a5,a4,t0
    800030d8:	0af585a3          	sb	a5,171(a1)
    800030dc:	01c64633          	xor	a2,a2,t3
    800030e0:	0ac58623          	sb	a2,172(a1)
    800030e4:	01d54533          	xor	a0,a0,t4
    800030e8:	0aa586a3          	sb	a0,173(a1)
    800030ec:	0066c533          	xor	a0,a3,t1
    800030f0:	0aa58723          	sb	a0,174(a1)
    800030f4:	01074533          	xor	a0,a4,a6
    800030f8:	0aa587a3          	sb	a0,175(a1)
    800030fc:	70e6                	ld	ra,120(sp)
    800030fe:	7446                	ld	s0,112(sp)
    80003100:	74a6                	ld	s1,104(sp)
    80003102:	7906                	ld	s2,96(sp)
    80003104:	69e6                	ld	s3,88(sp)
    80003106:	6a46                	ld	s4,80(sp)
    80003108:	6aa6                	ld	s5,72(sp)
    8000310a:	6b06                	ld	s6,64(sp)
    8000310c:	7be2                	ld	s7,56(sp)
    8000310e:	7c42                	ld	s8,48(sp)
    80003110:	7ca2                	ld	s9,40(sp)
    80003112:	7d02                	ld	s10,32(sp)
    80003114:	6de2                	ld	s11,24(sp)
    80003116:	6109                	addi	sp,sp,128
    80003118:	8082                	ret

000000008000311a <AES_Encrypt>:
    8000311a:	c4010113          	addi	sp,sp,-960
    8000311e:	3a113c23          	sd	ra,952(sp)
    80003122:	3a813823          	sd	s0,944(sp)
    80003126:	3a913423          	sd	s1,936(sp)
    8000312a:	3b213023          	sd	s2,928(sp)
    8000312e:	39313c23          	sd	s3,920(sp)
    80003132:	39413823          	sd	s4,912(sp)
    80003136:	39513423          	sd	s5,904(sp)
    8000313a:	39613023          	sd	s6,896(sp)
    8000313e:	37713c23          	sd	s7,888(sp)
    80003142:	37813823          	sd	s8,880(sp)
    80003146:	37913423          	sd	s9,872(sp)
    8000314a:	37a13023          	sd	s10,864(sp)
    8000314e:	35b13c23          	sd	s11,856(sp)
    80003152:	8c36                	mv	s8,a3
    80003154:	8ab2                	mv	s5,a2
    80003156:	84aa                	mv	s1,a0
    80003158:	00004a17          	auipc	s4,0x4
    8000315c:	ca8a0a13          	addi	s4,s4,-856 # 80006e00 <expandedKey>
    80003160:	852e                	mv	a0,a1
    80003162:	85d2                	mv	a1,s4
    80003164:	801ff0ef          	jal	80002964 <KeyExpansion>
    80003168:	4541                	li	a0,16
    8000316a:	00ac5463          	bge	s8,a0,80003172 <AES_Encrypt+0x58>
    8000316e:	3cd0206f          	j	80005d3a <AES_Encrypt+0x2c20>
    80003172:	4501                	li	a0,0
    80003174:	001c1593          	slli	a1,s8,0x1
    80003178:	91f1                	srli	a1,a1,0x3c
    8000317a:	00bc05bb          	addw	a1,s8,a1
    8000317e:	4045d59b          	sraiw	a1,a1,0x4
    80003182:	1582                	slli	a1,a1,0x20
    80003184:	ec2e                	sd	a1,24(sp)
    80003186:	9181                	srli	a1,a1,0x20
    80003188:	82818b13          	addi	s6,gp,-2008 # 80006de8 <pstate>
    8000318c:	00a48633          	add	a2,s1,a0
    80003190:	00060683          	lb	a3,0(a2)
    80003194:	000a0703          	lb	a4,0(s4)
    80003198:	000b3783          	ld	a5,0(s6)
    8000319c:	8eb9                	xor	a3,a3,a4
    8000319e:	00a78733          	add	a4,a5,a0
    800031a2:	00d70023          	sb	a3,0(a4)
    800031a6:	00160683          	lb	a3,1(a2)
    800031aa:	001a0703          	lb	a4,1(s4)
    800031ae:	000b3783          	ld	a5,0(s6)
    800031b2:	8eb9                	xor	a3,a3,a4
    800031b4:	00a78733          	add	a4,a5,a0
    800031b8:	00d70223          	sb	a3,4(a4)
    800031bc:	00260683          	lb	a3,2(a2)
    800031c0:	002a0703          	lb	a4,2(s4)
    800031c4:	000b3783          	ld	a5,0(s6)
    800031c8:	8eb9                	xor	a3,a3,a4
    800031ca:	00a78733          	add	a4,a5,a0
    800031ce:	00d70423          	sb	a3,8(a4)
    800031d2:	00360683          	lb	a3,3(a2)
    800031d6:	003a0703          	lb	a4,3(s4)
    800031da:	000b3783          	ld	a5,0(s6)
    800031de:	8eb9                	xor	a3,a3,a4
    800031e0:	00a78733          	add	a4,a5,a0
    800031e4:	00d70623          	sb	a3,12(a4)
    800031e8:	00460683          	lb	a3,4(a2)
    800031ec:	004a0703          	lb	a4,4(s4)
    800031f0:	000b3783          	ld	a5,0(s6)
    800031f4:	8eb9                	xor	a3,a3,a4
    800031f6:	00a78733          	add	a4,a5,a0
    800031fa:	00d700a3          	sb	a3,1(a4)
    800031fe:	00560683          	lb	a3,5(a2)
    80003202:	005a0703          	lb	a4,5(s4)
    80003206:	000b3783          	ld	a5,0(s6)
    8000320a:	8eb9                	xor	a3,a3,a4
    8000320c:	00a78733          	add	a4,a5,a0
    80003210:	00d702a3          	sb	a3,5(a4)
    80003214:	00660683          	lb	a3,6(a2)
    80003218:	006a0703          	lb	a4,6(s4)
    8000321c:	000b3783          	ld	a5,0(s6)
    80003220:	8eb9                	xor	a3,a3,a4
    80003222:	00a78733          	add	a4,a5,a0
    80003226:	00d704a3          	sb	a3,9(a4)
    8000322a:	00760683          	lb	a3,7(a2)
    8000322e:	007a0703          	lb	a4,7(s4)
    80003232:	000b3783          	ld	a5,0(s6)
    80003236:	8eb9                	xor	a3,a3,a4
    80003238:	00a78733          	add	a4,a5,a0
    8000323c:	00d706a3          	sb	a3,13(a4)
    80003240:	00860683          	lb	a3,8(a2)
    80003244:	008a0703          	lb	a4,8(s4)
    80003248:	000b3783          	ld	a5,0(s6)
    8000324c:	8eb9                	xor	a3,a3,a4
    8000324e:	00a78733          	add	a4,a5,a0
    80003252:	00d70123          	sb	a3,2(a4)
    80003256:	00960683          	lb	a3,9(a2)
    8000325a:	009a0703          	lb	a4,9(s4)
    8000325e:	000b3783          	ld	a5,0(s6)
    80003262:	8eb9                	xor	a3,a3,a4
    80003264:	00a78733          	add	a4,a5,a0
    80003268:	00d70323          	sb	a3,6(a4)
    8000326c:	00a60683          	lb	a3,10(a2)
    80003270:	00aa0703          	lb	a4,10(s4)
    80003274:	000b3783          	ld	a5,0(s6)
    80003278:	8eb9                	xor	a3,a3,a4
    8000327a:	00a78733          	add	a4,a5,a0
    8000327e:	00d70523          	sb	a3,10(a4)
    80003282:	00b60683          	lb	a3,11(a2)
    80003286:	00ba0703          	lb	a4,11(s4)
    8000328a:	000b3783          	ld	a5,0(s6)
    8000328e:	8eb9                	xor	a3,a3,a4
    80003290:	00a78733          	add	a4,a5,a0
    80003294:	00d70723          	sb	a3,14(a4)
    80003298:	00c60683          	lb	a3,12(a2)
    8000329c:	00ca0703          	lb	a4,12(s4)
    800032a0:	000b3783          	ld	a5,0(s6)
    800032a4:	8eb9                	xor	a3,a3,a4
    800032a6:	00a78733          	add	a4,a5,a0
    800032aa:	00d701a3          	sb	a3,3(a4)
    800032ae:	00d60683          	lb	a3,13(a2)
    800032b2:	00da0703          	lb	a4,13(s4)
    800032b6:	000b3783          	ld	a5,0(s6)
    800032ba:	8eb9                	xor	a3,a3,a4
    800032bc:	00a78733          	add	a4,a5,a0
    800032c0:	00d703a3          	sb	a3,7(a4)
    800032c4:	00e60683          	lb	a3,14(a2)
    800032c8:	00ea0703          	lb	a4,14(s4)
    800032cc:	000b3783          	ld	a5,0(s6)
    800032d0:	8eb9                	xor	a3,a3,a4
    800032d2:	00a78733          	add	a4,a5,a0
    800032d6:	00d705a3          	sb	a3,11(a4)
    800032da:	00f60603          	lb	a2,15(a2)
    800032de:	00fa0683          	lb	a3,15(s4)
    800032e2:	000b3703          	ld	a4,0(s6)
    800032e6:	8e35                	xor	a2,a2,a3
    800032e8:	00a706b3          	add	a3,a4,a0
    800032ec:	00c687a3          	sb	a2,15(a3)
    800032f0:	15fd                	addi	a1,a1,-1
    800032f2:	0541                	addi	a0,a0,16
    800032f4:	e8059ce3          	bnez	a1,8000318c <AES_Encrypt+0x72>
    800032f8:	4541                	li	a0,16
    800032fa:	00ac5463          	bge	s8,a0,80003302 <AES_Encrypt+0x1e8>
    800032fe:	23d0206f          	j	80005d3a <AES_Encrypt+0x2c20>
    80003302:	6562                	ld	a0,24(sp)
    80003304:	02055d93          	srli	s11,a0,0x20
    80003308:	83018c93          	addi	s9,gp,-2000 # 80006df0 <pullstate>
    8000330c:	000cb503          	ld	a0,0(s9)
    80003310:	fffd8493          	addi	s1,s11,-1 # feffff <buflen.1+0xfeffbf>
    80003314:	02000413          	li	s0,32
    80003318:	4905                	li	s2,1
    8000331a:	4989                	li	s3,2
    8000331c:	5bfd                	li	s7,-1
    8000331e:	9522                	add	a0,a0,s0
    80003320:	fe053583          	ld	a1,-32(a0)
    80003324:	fe853503          	ld	a0,-24(a0)
    80003328:	34b13423          	sd	a1,840(sp)
    8000332c:	34a13823          	sd	a0,848(sp)
    80003330:	06a8                	addi	a0,sp,840
    80003332:	102c                	addi	a1,sp,40
    80003334:	ce1fe0ef          	jal	80002014 <Impl_SBOX>
    80003338:	000cb503          	ld	a0,0(s9)
    8000333c:	75a2                	ld	a1,40(sp)
    8000333e:	9522                	add	a0,a0,s0
    80003340:	feb53023          	sd	a1,-32(a0)
    80003344:	75c2                	ld	a1,48(sp)
    80003346:	feb53423          	sd	a1,-24(a0)
    8000334a:	c0d1                	beqz	s1,800033ce <AES_Encrypt+0x2b4>
    8000334c:	ff053583          	ld	a1,-16(a0)
    80003350:	ff853503          	ld	a0,-8(a0)
    80003354:	34b13423          	sd	a1,840(sp)
    80003358:	34a13823          	sd	a0,848(sp)
    8000335c:	06a8                	addi	a0,sp,840
    8000335e:	102c                	addi	a1,sp,40
    80003360:	cb5fe0ef          	jal	80002014 <Impl_SBOX>
    80003364:	000cb503          	ld	a0,0(s9)
    80003368:	75a2                	ld	a1,40(sp)
    8000336a:	9522                	add	a0,a0,s0
    8000336c:	feb53823          	sd	a1,-16(a0)
    80003370:	75c2                	ld	a1,48(sp)
    80003372:	feb53c23          	sd	a1,-8(a0)
    80003376:	05248c63          	beq	s1,s2,800033ce <AES_Encrypt+0x2b4>
    8000337a:	610c                	ld	a1,0(a0)
    8000337c:	6508                	ld	a0,8(a0)
    8000337e:	34b13423          	sd	a1,840(sp)
    80003382:	34a13823          	sd	a0,848(sp)
    80003386:	06a8                	addi	a0,sp,840
    80003388:	102c                	addi	a1,sp,40
    8000338a:	c8bfe0ef          	jal	80002014 <Impl_SBOX>
    8000338e:	000cb503          	ld	a0,0(s9)
    80003392:	75a2                	ld	a1,40(sp)
    80003394:	9522                	add	a0,a0,s0
    80003396:	e10c                	sd	a1,0(a0)
    80003398:	75c2                	ld	a1,48(sp)
    8000339a:	e50c                	sd	a1,8(a0)
    8000339c:	03348963          	beq	s1,s3,800033ce <AES_Encrypt+0x2b4>
    800033a0:	690c                	ld	a1,16(a0)
    800033a2:	6d08                	ld	a0,24(a0)
    800033a4:	34b13423          	sd	a1,840(sp)
    800033a8:	34a13823          	sd	a0,848(sp)
    800033ac:	06a8                	addi	a0,sp,840
    800033ae:	102c                	addi	a1,sp,40
    800033b0:	c65fe0ef          	jal	80002014 <Impl_SBOX>
    800033b4:	000cb503          	ld	a0,0(s9)
    800033b8:	75a2                	ld	a1,40(sp)
    800033ba:	00850633          	add	a2,a0,s0
    800033be:	ea0c                	sd	a1,16(a2)
    800033c0:	75c2                	ld	a1,48(sp)
    800033c2:	ee0c                	sd	a1,24(a2)
    800033c4:	14f1                	addi	s1,s1,-4
    800033c6:	04040413          	addi	s0,s0,64
    800033ca:	f5749ae3          	bne	s1,s7,8000331e <AES_Encrypt+0x204>
    800033ce:	4541                	li	a0,16
    800033d0:	00ac5463          	bge	s8,a0,800033d8 <AES_Encrypt+0x2be>
    800033d4:	1670206f          	j	80005d3a <AES_Encrypt+0x2c20>
    800033d8:	e462                	sd	s8,8(sp)
    800033da:	e056                	sd	s5,0(sp)
    800033dc:	5d7d                	li	s10,-1
    800033de:	020d5a93          	srli	s5,s10,0x20
    800033e2:	e866                	sd	s9,16(sp)
    800033e4:	000cb503          	ld	a0,0(s9)
    800033e8:	fffd8c13          	addi	s8,s11,-1
    800033ec:	02050913          	addi	s2,a0,32
    800033f0:	4b85                	li	s7,1
    800033f2:	4989                	li	s3,2
    800033f4:	02c10c93          	addi	s9,sp,44
    800033f8:	1804                	addi	s1,sp,48
    800033fa:	f056                	sd	s5,32(sp)
    800033fc:	fe093403          	ld	s0,-32(s2)
    80003400:	fe893a83          	ld	s5,-24(s2)
    80003404:	d802                	sw	zero,48(sp)
    80003406:	f402                	sd	zero,40(sp)
    80003408:	42045513          	srai	a0,s0,0x20
    8000340c:	102c                	addi	a1,sp,40
    8000340e:	e2bfe0ef          	jal	80002238 <gmul_>
    80003412:	000a851b          	sext.w	a0,s5
    80003416:	85e6                	mv	a1,s9
    80003418:	e21fe0ef          	jal	80002238 <gmul_>
    8000341c:	420ad513          	srai	a0,s5,0x20
    80003420:	7a82                	ld	s5,32(sp)
    80003422:	85a6                	mv	a1,s1
    80003424:	e15fe0ef          	jal	80002238 <gmul_>
    80003428:	5522                	lw	a0,40(sp)
    8000342a:	015475b3          	and	a1,s0,s5
    8000342e:	1502                	slli	a0,a0,0x20
    80003430:	8d4d                	or	a0,a0,a1
    80003432:	55c2                	lw	a1,48(sp)
    80003434:	02c16603          	lwu	a2,44(sp)
    80003438:	1582                	slli	a1,a1,0x20
    8000343a:	8dd1                	or	a1,a1,a2
    8000343c:	fea93023          	sd	a0,-32(s2)
    80003440:	feb93423          	sd	a1,-24(s2)
    80003444:	0e0c0563          	beqz	s8,8000352e <AES_Encrypt+0x414>
    80003448:	ff093403          	ld	s0,-16(s2)
    8000344c:	ff893483          	ld	s1,-8(s2)
    80003450:	d802                	sw	zero,48(sp)
    80003452:	f402                	sd	zero,40(sp)
    80003454:	42045513          	srai	a0,s0,0x20
    80003458:	102c                	addi	a1,sp,40
    8000345a:	ddffe0ef          	jal	80002238 <gmul_>
    8000345e:	0004851b          	sext.w	a0,s1
    80003462:	85e6                	mv	a1,s9
    80003464:	dd5fe0ef          	jal	80002238 <gmul_>
    80003468:	4204d513          	srai	a0,s1,0x20
    8000346c:	180c                	addi	a1,sp,48
    8000346e:	dcbfe0ef          	jal	80002238 <gmul_>
    80003472:	5522                	lw	a0,40(sp)
    80003474:	015475b3          	and	a1,s0,s5
    80003478:	1502                	slli	a0,a0,0x20
    8000347a:	8d4d                	or	a0,a0,a1
    8000347c:	55c2                	lw	a1,48(sp)
    8000347e:	02c16603          	lwu	a2,44(sp)
    80003482:	1582                	slli	a1,a1,0x20
    80003484:	8dd1                	or	a1,a1,a2
    80003486:	fea93823          	sd	a0,-16(s2)
    8000348a:	feb93c23          	sd	a1,-8(s2)
    8000348e:	0b7c0063          	beq	s8,s7,8000352e <AES_Encrypt+0x414>
    80003492:	00093403          	ld	s0,0(s2)
    80003496:	00893483          	ld	s1,8(s2)
    8000349a:	d802                	sw	zero,48(sp)
    8000349c:	f402                	sd	zero,40(sp)
    8000349e:	42045513          	srai	a0,s0,0x20
    800034a2:	102c                	addi	a1,sp,40
    800034a4:	d95fe0ef          	jal	80002238 <gmul_>
    800034a8:	0004851b          	sext.w	a0,s1
    800034ac:	85e6                	mv	a1,s9
    800034ae:	d8bfe0ef          	jal	80002238 <gmul_>
    800034b2:	4204d513          	srai	a0,s1,0x20
    800034b6:	180c                	addi	a1,sp,48
    800034b8:	d81fe0ef          	jal	80002238 <gmul_>
    800034bc:	5522                	lw	a0,40(sp)
    800034be:	015475b3          	and	a1,s0,s5
    800034c2:	1502                	slli	a0,a0,0x20
    800034c4:	8d4d                	or	a0,a0,a1
    800034c6:	55c2                	lw	a1,48(sp)
    800034c8:	02c16603          	lwu	a2,44(sp)
    800034cc:	1582                	slli	a1,a1,0x20
    800034ce:	8dd1                	or	a1,a1,a2
    800034d0:	00a93023          	sd	a0,0(s2)
    800034d4:	00b93423          	sd	a1,8(s2)
    800034d8:	053c0b63          	beq	s8,s3,8000352e <AES_Encrypt+0x414>
    800034dc:	01093403          	ld	s0,16(s2)
    800034e0:	01893483          	ld	s1,24(s2)
    800034e4:	d802                	sw	zero,48(sp)
    800034e6:	f402                	sd	zero,40(sp)
    800034e8:	42045513          	srai	a0,s0,0x20
    800034ec:	102c                	addi	a1,sp,40
    800034ee:	d4bfe0ef          	jal	80002238 <gmul_>
    800034f2:	0004851b          	sext.w	a0,s1
    800034f6:	85e6                	mv	a1,s9
    800034f8:	d41fe0ef          	jal	80002238 <gmul_>
    800034fc:	4204d513          	srai	a0,s1,0x20
    80003500:	1804                	addi	s1,sp,48
    80003502:	85a6                	mv	a1,s1
    80003504:	d35fe0ef          	jal	80002238 <gmul_>
    80003508:	5522                	lw	a0,40(sp)
    8000350a:	015475b3          	and	a1,s0,s5
    8000350e:	1502                	slli	a0,a0,0x20
    80003510:	8d4d                	or	a0,a0,a1
    80003512:	55c2                	lw	a1,48(sp)
    80003514:	02c16603          	lwu	a2,44(sp)
    80003518:	1582                	slli	a1,a1,0x20
    8000351a:	8dd1                	or	a1,a1,a2
    8000351c:	00a93823          	sd	a0,16(s2)
    80003520:	00b93c23          	sd	a1,24(s2)
    80003524:	1c71                	addi	s8,s8,-4
    80003526:	04090913          	addi	s2,s2,64
    8000352a:	edac19e3          	bne	s8,s10,800033fc <AES_Encrypt+0x2e2>
    8000352e:	4541                	li	a0,16
    80003530:	6c22                	ld	s8,8(sp)
    80003532:	6ac2                	ld	s5,16(sp)
    80003534:	00ac5463          	bge	s8,a0,8000353c <AES_Encrypt+0x422>
    80003538:	0030206f          	j	80005d3a <AES_Encrypt+0x2c20>
    8000353c:	000ab503          	ld	a0,0(s5)
    80003540:	fffd8413          	addi	s0,s11,-1
    80003544:	02050493          	addi	s1,a0,32
    80003548:	4905                	li	s2,1
    8000354a:	4989                	li	s3,2
    8000354c:	5bfd                	li	s7,-1
    8000354e:	fe04b503          	ld	a0,-32(s1)
    80003552:	fe84b583          	ld	a1,-24(s1)
    80003556:	34a13423          	sd	a0,840(sp)
    8000355a:	34b13823          	sd	a1,848(sp)
    8000355e:	06a8                	addi	a0,sp,840
    80003560:	102c                	addi	a1,sp,40
    80003562:	9c6ff0ef          	jal	80002728 <Impl_ShiftRows>
    80003566:	7522                	ld	a0,40(sp)
    80003568:	fea4b023          	sd	a0,-32(s1)
    8000356c:	7542                	ld	a0,48(sp)
    8000356e:	fea4b423          	sd	a0,-24(s1)
    80003572:	c825                	beqz	s0,800035e2 <AES_Encrypt+0x4c8>
    80003574:	ff04b503          	ld	a0,-16(s1)
    80003578:	ff84b583          	ld	a1,-8(s1)
    8000357c:	34a13423          	sd	a0,840(sp)
    80003580:	34b13823          	sd	a1,848(sp)
    80003584:	06a8                	addi	a0,sp,840
    80003586:	102c                	addi	a1,sp,40
    80003588:	9a0ff0ef          	jal	80002728 <Impl_ShiftRows>
    8000358c:	7522                	ld	a0,40(sp)
    8000358e:	fea4b823          	sd	a0,-16(s1)
    80003592:	7542                	ld	a0,48(sp)
    80003594:	fea4bc23          	sd	a0,-8(s1)
    80003598:	05240563          	beq	s0,s2,800035e2 <AES_Encrypt+0x4c8>
    8000359c:	6088                	ld	a0,0(s1)
    8000359e:	648c                	ld	a1,8(s1)
    800035a0:	34a13423          	sd	a0,840(sp)
    800035a4:	34b13823          	sd	a1,848(sp)
    800035a8:	06a8                	addi	a0,sp,840
    800035aa:	102c                	addi	a1,sp,40
    800035ac:	97cff0ef          	jal	80002728 <Impl_ShiftRows>
    800035b0:	7522                	ld	a0,40(sp)
    800035b2:	e088                	sd	a0,0(s1)
    800035b4:	7542                	ld	a0,48(sp)
    800035b6:	e488                	sd	a0,8(s1)
    800035b8:	03340563          	beq	s0,s3,800035e2 <AES_Encrypt+0x4c8>
    800035bc:	6888                	ld	a0,16(s1)
    800035be:	6c8c                	ld	a1,24(s1)
    800035c0:	34a13423          	sd	a0,840(sp)
    800035c4:	34b13823          	sd	a1,848(sp)
    800035c8:	06a8                	addi	a0,sp,840
    800035ca:	102c                	addi	a1,sp,40
    800035cc:	95cff0ef          	jal	80002728 <Impl_ShiftRows>
    800035d0:	7522                	ld	a0,40(sp)
    800035d2:	e888                	sd	a0,16(s1)
    800035d4:	7542                	ld	a0,48(sp)
    800035d6:	ec88                	sd	a0,24(s1)
    800035d8:	1471                	addi	s0,s0,-4
    800035da:	04048493          	addi	s1,s1,64
    800035de:	f77418e3          	bne	s0,s7,8000354e <AES_Encrypt+0x434>
    800035e2:	4541                	li	a0,16
    800035e4:	00ac5463          	bge	s8,a0,800035ec <AES_Encrypt+0x4d2>
    800035e8:	7520206f          	j	80005d3a <AES_Encrypt+0x2c20>
    800035ec:	4501                	li	a0,0
    800035ee:	000b3583          	ld	a1,0(s6)
    800035f2:	010a0603          	lb	a2,16(s4)
    800035f6:	95aa                	add	a1,a1,a0
    800035f8:	00058683          	lb	a3,0(a1)
    800035fc:	8e35                	xor	a2,a2,a3
    800035fe:	00c58023          	sb	a2,0(a1)
    80003602:	000b3583          	ld	a1,0(s6)
    80003606:	011a0603          	lb	a2,17(s4)
    8000360a:	95aa                	add	a1,a1,a0
    8000360c:	00158683          	lb	a3,1(a1)
    80003610:	8e35                	xor	a2,a2,a3
    80003612:	00c580a3          	sb	a2,1(a1)
    80003616:	000b3583          	ld	a1,0(s6)
    8000361a:	012a0603          	lb	a2,18(s4)
    8000361e:	95aa                	add	a1,a1,a0
    80003620:	00258683          	lb	a3,2(a1)
    80003624:	8e35                	xor	a2,a2,a3
    80003626:	00c58123          	sb	a2,2(a1)
    8000362a:	000b3583          	ld	a1,0(s6)
    8000362e:	013a0603          	lb	a2,19(s4)
    80003632:	95aa                	add	a1,a1,a0
    80003634:	00358683          	lb	a3,3(a1)
    80003638:	8e35                	xor	a2,a2,a3
    8000363a:	00c581a3          	sb	a2,3(a1)
    8000363e:	000b3583          	ld	a1,0(s6)
    80003642:	014a0603          	lb	a2,20(s4)
    80003646:	95aa                	add	a1,a1,a0
    80003648:	00458683          	lb	a3,4(a1)
    8000364c:	8e35                	xor	a2,a2,a3
    8000364e:	00c58223          	sb	a2,4(a1)
    80003652:	000b3583          	ld	a1,0(s6)
    80003656:	015a0603          	lb	a2,21(s4)
    8000365a:	95aa                	add	a1,a1,a0
    8000365c:	00558683          	lb	a3,5(a1)
    80003660:	8e35                	xor	a2,a2,a3
    80003662:	00c582a3          	sb	a2,5(a1)
    80003666:	000b3583          	ld	a1,0(s6)
    8000366a:	016a0603          	lb	a2,22(s4)
    8000366e:	95aa                	add	a1,a1,a0
    80003670:	00658683          	lb	a3,6(a1)
    80003674:	8e35                	xor	a2,a2,a3
    80003676:	00c58323          	sb	a2,6(a1)
    8000367a:	000b3583          	ld	a1,0(s6)
    8000367e:	017a0603          	lb	a2,23(s4)
    80003682:	95aa                	add	a1,a1,a0
    80003684:	00758683          	lb	a3,7(a1)
    80003688:	8e35                	xor	a2,a2,a3
    8000368a:	00c583a3          	sb	a2,7(a1)
    8000368e:	000b3583          	ld	a1,0(s6)
    80003692:	018a0603          	lb	a2,24(s4)
    80003696:	95aa                	add	a1,a1,a0
    80003698:	00858683          	lb	a3,8(a1)
    8000369c:	8e35                	xor	a2,a2,a3
    8000369e:	00c58423          	sb	a2,8(a1)
    800036a2:	000b3583          	ld	a1,0(s6)
    800036a6:	019a0603          	lb	a2,25(s4)
    800036aa:	95aa                	add	a1,a1,a0
    800036ac:	00958683          	lb	a3,9(a1)
    800036b0:	8e35                	xor	a2,a2,a3
    800036b2:	00c584a3          	sb	a2,9(a1)
    800036b6:	000b3583          	ld	a1,0(s6)
    800036ba:	01aa0603          	lb	a2,26(s4)
    800036be:	95aa                	add	a1,a1,a0
    800036c0:	00a58683          	lb	a3,10(a1)
    800036c4:	8e35                	xor	a2,a2,a3
    800036c6:	00c58523          	sb	a2,10(a1)
    800036ca:	000b3583          	ld	a1,0(s6)
    800036ce:	01ba0603          	lb	a2,27(s4)
    800036d2:	95aa                	add	a1,a1,a0
    800036d4:	00b58683          	lb	a3,11(a1)
    800036d8:	8e35                	xor	a2,a2,a3
    800036da:	00c585a3          	sb	a2,11(a1)
    800036de:	000b3583          	ld	a1,0(s6)
    800036e2:	01ca0603          	lb	a2,28(s4)
    800036e6:	95aa                	add	a1,a1,a0
    800036e8:	00c58683          	lb	a3,12(a1)
    800036ec:	8e35                	xor	a2,a2,a3
    800036ee:	00c58623          	sb	a2,12(a1)
    800036f2:	000b3583          	ld	a1,0(s6)
    800036f6:	01da0603          	lb	a2,29(s4)
    800036fa:	95aa                	add	a1,a1,a0
    800036fc:	00d58683          	lb	a3,13(a1)
    80003700:	8e35                	xor	a2,a2,a3
    80003702:	00c586a3          	sb	a2,13(a1)
    80003706:	000b3583          	ld	a1,0(s6)
    8000370a:	01ea0603          	lb	a2,30(s4)
    8000370e:	95aa                	add	a1,a1,a0
    80003710:	00e58683          	lb	a3,14(a1)
    80003714:	8e35                	xor	a2,a2,a3
    80003716:	00c58723          	sb	a2,14(a1)
    8000371a:	000b3583          	ld	a1,0(s6)
    8000371e:	01fa0603          	lb	a2,31(s4)
    80003722:	95aa                	add	a1,a1,a0
    80003724:	00f58683          	lb	a3,15(a1)
    80003728:	8e35                	xor	a2,a2,a3
    8000372a:	00c587a3          	sb	a2,15(a1)
    8000372e:	1dfd                	addi	s11,s11,-1
    80003730:	0541                	addi	a0,a0,16
    80003732:	ea0d9ee3          	bnez	s11,800035ee <AES_Encrypt+0x4d4>
    80003736:	4541                	li	a0,16
    80003738:	00ac5463          	bge	s8,a0,80003740 <AES_Encrypt+0x626>
    8000373c:	5fe0206f          	j	80005d3a <AES_Encrypt+0x2c20>
    80003740:	6562                	ld	a0,24(sp)
    80003742:	02055d13          	srli	s10,a0,0x20
    80003746:	000ab503          	ld	a0,0(s5)
    8000374a:	fffd0413          	addi	s0,s10,-1
    8000374e:	02000493          	li	s1,32
    80003752:	4905                	li	s2,1
    80003754:	4989                	li	s3,2
    80003756:	5bfd                	li	s7,-1
    80003758:	9526                	add	a0,a0,s1
    8000375a:	fe053583          	ld	a1,-32(a0)
    8000375e:	fe853503          	ld	a0,-24(a0)
    80003762:	34b13423          	sd	a1,840(sp)
    80003766:	34a13823          	sd	a0,848(sp)
    8000376a:	06a8                	addi	a0,sp,840
    8000376c:	102c                	addi	a1,sp,40
    8000376e:	8a7fe0ef          	jal	80002014 <Impl_SBOX>
    80003772:	000ab503          	ld	a0,0(s5)
    80003776:	75a2                	ld	a1,40(sp)
    80003778:	9526                	add	a0,a0,s1
    8000377a:	feb53023          	sd	a1,-32(a0)
    8000377e:	75c2                	ld	a1,48(sp)
    80003780:	feb53423          	sd	a1,-24(a0)
    80003784:	c051                	beqz	s0,80003808 <AES_Encrypt+0x6ee>
    80003786:	ff053583          	ld	a1,-16(a0)
    8000378a:	ff853503          	ld	a0,-8(a0)
    8000378e:	34b13423          	sd	a1,840(sp)
    80003792:	34a13823          	sd	a0,848(sp)
    80003796:	06a8                	addi	a0,sp,840
    80003798:	102c                	addi	a1,sp,40
    8000379a:	87bfe0ef          	jal	80002014 <Impl_SBOX>
    8000379e:	000ab503          	ld	a0,0(s5)
    800037a2:	75a2                	ld	a1,40(sp)
    800037a4:	9526                	add	a0,a0,s1
    800037a6:	feb53823          	sd	a1,-16(a0)
    800037aa:	75c2                	ld	a1,48(sp)
    800037ac:	feb53c23          	sd	a1,-8(a0)
    800037b0:	05240c63          	beq	s0,s2,80003808 <AES_Encrypt+0x6ee>
    800037b4:	610c                	ld	a1,0(a0)
    800037b6:	6508                	ld	a0,8(a0)
    800037b8:	34b13423          	sd	a1,840(sp)
    800037bc:	34a13823          	sd	a0,848(sp)
    800037c0:	06a8                	addi	a0,sp,840
    800037c2:	102c                	addi	a1,sp,40
    800037c4:	851fe0ef          	jal	80002014 <Impl_SBOX>
    800037c8:	000ab503          	ld	a0,0(s5)
    800037cc:	75a2                	ld	a1,40(sp)
    800037ce:	9526                	add	a0,a0,s1
    800037d0:	e10c                	sd	a1,0(a0)
    800037d2:	75c2                	ld	a1,48(sp)
    800037d4:	e50c                	sd	a1,8(a0)
    800037d6:	03340963          	beq	s0,s3,80003808 <AES_Encrypt+0x6ee>
    800037da:	690c                	ld	a1,16(a0)
    800037dc:	6d08                	ld	a0,24(a0)
    800037de:	34b13423          	sd	a1,840(sp)
    800037e2:	34a13823          	sd	a0,848(sp)
    800037e6:	06a8                	addi	a0,sp,840
    800037e8:	102c                	addi	a1,sp,40
    800037ea:	82bfe0ef          	jal	80002014 <Impl_SBOX>
    800037ee:	000ab503          	ld	a0,0(s5)
    800037f2:	75a2                	ld	a1,40(sp)
    800037f4:	00950633          	add	a2,a0,s1
    800037f8:	ea0c                	sd	a1,16(a2)
    800037fa:	75c2                	ld	a1,48(sp)
    800037fc:	ee0c                	sd	a1,24(a2)
    800037fe:	1471                	addi	s0,s0,-4
    80003800:	04048493          	addi	s1,s1,64
    80003804:	f5741ae3          	bne	s0,s7,80003758 <AES_Encrypt+0x63e>
    80003808:	4541                	li	a0,16
    8000380a:	00ac5463          	bge	s8,a0,80003812 <AES_Encrypt+0x6f8>
    8000380e:	52c0206f          	j	80005d3a <AES_Encrypt+0x2c20>
    80003812:	000ab503          	ld	a0,0(s5)
    80003816:	fffd0913          	addi	s2,s10,-1
    8000381a:	02050493          	addi	s1,a0,32
    8000381e:	4b85                	li	s7,1
    80003820:	4989                	li	s3,2
    80003822:	02c10c93          	addi	s9,sp,44
    80003826:	03010d93          	addi	s11,sp,48
    8000382a:	fe04ba83          	ld	s5,-32(s1)
    8000382e:	fe84b403          	ld	s0,-24(s1)
    80003832:	d802                	sw	zero,48(sp)
    80003834:	f402                	sd	zero,40(sp)
    80003836:	420ad513          	srai	a0,s5,0x20
    8000383a:	102c                	addi	a1,sp,40
    8000383c:	9fdfe0ef          	jal	80002238 <gmul_>
    80003840:	0004051b          	sext.w	a0,s0
    80003844:	85e6                	mv	a1,s9
    80003846:	9f3fe0ef          	jal	80002238 <gmul_>
    8000384a:	42045513          	srai	a0,s0,0x20
    8000384e:	85ee                	mv	a1,s11
    80003850:	9e9fe0ef          	jal	80002238 <gmul_>
    80003854:	5522                	lw	a0,40(sp)
    80003856:	7582                	ld	a1,32(sp)
    80003858:	00baf5b3          	and	a1,s5,a1
    8000385c:	1502                	slli	a0,a0,0x20
    8000385e:	8d4d                	or	a0,a0,a1
    80003860:	55c2                	lw	a1,48(sp)
    80003862:	02c16603          	lwu	a2,44(sp)
    80003866:	1582                	slli	a1,a1,0x20
    80003868:	8dd1                	or	a1,a1,a2
    8000386a:	fea4b023          	sd	a0,-32(s1)
    8000386e:	feb4b423          	sd	a1,-24(s1)
    80003872:	0e090263          	beqz	s2,80003956 <AES_Encrypt+0x83c>
    80003876:	ff04ba83          	ld	s5,-16(s1)
    8000387a:	ff84b403          	ld	s0,-8(s1)
    8000387e:	d802                	sw	zero,48(sp)
    80003880:	f402                	sd	zero,40(sp)
    80003882:	420ad513          	srai	a0,s5,0x20
    80003886:	102c                	addi	a1,sp,40
    80003888:	9b1fe0ef          	jal	80002238 <gmul_>
    8000388c:	0004051b          	sext.w	a0,s0
    80003890:	85e6                	mv	a1,s9
    80003892:	9a7fe0ef          	jal	80002238 <gmul_>
    80003896:	42045513          	srai	a0,s0,0x20
    8000389a:	85ee                	mv	a1,s11
    8000389c:	99dfe0ef          	jal	80002238 <gmul_>
    800038a0:	5522                	lw	a0,40(sp)
    800038a2:	7582                	ld	a1,32(sp)
    800038a4:	00baf5b3          	and	a1,s5,a1
    800038a8:	1502                	slli	a0,a0,0x20
    800038aa:	8d4d                	or	a0,a0,a1
    800038ac:	55c2                	lw	a1,48(sp)
    800038ae:	02c16603          	lwu	a2,44(sp)
    800038b2:	1582                	slli	a1,a1,0x20
    800038b4:	8dd1                	or	a1,a1,a2
    800038b6:	fea4b823          	sd	a0,-16(s1)
    800038ba:	feb4bc23          	sd	a1,-8(s1)
    800038be:	09790c63          	beq	s2,s7,80003956 <AES_Encrypt+0x83c>
    800038c2:	0004ba83          	ld	s5,0(s1)
    800038c6:	6480                	ld	s0,8(s1)
    800038c8:	d802                	sw	zero,48(sp)
    800038ca:	f402                	sd	zero,40(sp)
    800038cc:	420ad513          	srai	a0,s5,0x20
    800038d0:	102c                	addi	a1,sp,40
    800038d2:	967fe0ef          	jal	80002238 <gmul_>
    800038d6:	0004051b          	sext.w	a0,s0
    800038da:	85e6                	mv	a1,s9
    800038dc:	95dfe0ef          	jal	80002238 <gmul_>
    800038e0:	42045513          	srai	a0,s0,0x20
    800038e4:	85ee                	mv	a1,s11
    800038e6:	953fe0ef          	jal	80002238 <gmul_>
    800038ea:	5522                	lw	a0,40(sp)
    800038ec:	7582                	ld	a1,32(sp)
    800038ee:	00baf5b3          	and	a1,s5,a1
    800038f2:	1502                	slli	a0,a0,0x20
    800038f4:	8d4d                	or	a0,a0,a1
    800038f6:	55c2                	lw	a1,48(sp)
    800038f8:	02c16603          	lwu	a2,44(sp)
    800038fc:	1582                	slli	a1,a1,0x20
    800038fe:	8dd1                	or	a1,a1,a2
    80003900:	e088                	sd	a0,0(s1)
    80003902:	e48c                	sd	a1,8(s1)
    80003904:	05390963          	beq	s2,s3,80003956 <AES_Encrypt+0x83c>
    80003908:	0104ba83          	ld	s5,16(s1)
    8000390c:	6c80                	ld	s0,24(s1)
    8000390e:	d802                	sw	zero,48(sp)
    80003910:	f402                	sd	zero,40(sp)
    80003912:	420ad513          	srai	a0,s5,0x20
    80003916:	102c                	addi	a1,sp,40
    80003918:	921fe0ef          	jal	80002238 <gmul_>
    8000391c:	0004051b          	sext.w	a0,s0
    80003920:	85e6                	mv	a1,s9
    80003922:	917fe0ef          	jal	80002238 <gmul_>
    80003926:	42045513          	srai	a0,s0,0x20
    8000392a:	85ee                	mv	a1,s11
    8000392c:	90dfe0ef          	jal	80002238 <gmul_>
    80003930:	5522                	lw	a0,40(sp)
    80003932:	7582                	ld	a1,32(sp)
    80003934:	00baf5b3          	and	a1,s5,a1
    80003938:	1502                	slli	a0,a0,0x20
    8000393a:	8d4d                	or	a0,a0,a1
    8000393c:	55c2                	lw	a1,48(sp)
    8000393e:	02c16603          	lwu	a2,44(sp)
    80003942:	1582                	slli	a1,a1,0x20
    80003944:	8dd1                	or	a1,a1,a2
    80003946:	e888                	sd	a0,16(s1)
    80003948:	ec8c                	sd	a1,24(s1)
    8000394a:	1971                	addi	s2,s2,-4
    8000394c:	04048493          	addi	s1,s1,64
    80003950:	557d                	li	a0,-1
    80003952:	eca91ce3          	bne	s2,a0,8000382a <AES_Encrypt+0x710>
    80003956:	4541                	li	a0,16
    80003958:	6ac2                	ld	s5,16(sp)
    8000395a:	00ac5463          	bge	s8,a0,80003962 <AES_Encrypt+0x848>
    8000395e:	3dc0206f          	j	80005d3a <AES_Encrypt+0x2c20>
    80003962:	000ab503          	ld	a0,0(s5)
    80003966:	fffd0413          	addi	s0,s10,-1
    8000396a:	02050493          	addi	s1,a0,32
    8000396e:	4905                	li	s2,1
    80003970:	4989                	li	s3,2
    80003972:	5bfd                	li	s7,-1
    80003974:	fe04b503          	ld	a0,-32(s1)
    80003978:	fe84b583          	ld	a1,-24(s1)
    8000397c:	34a13423          	sd	a0,840(sp)
    80003980:	34b13823          	sd	a1,848(sp)
    80003984:	06a8                	addi	a0,sp,840
    80003986:	102c                	addi	a1,sp,40
    80003988:	da1fe0ef          	jal	80002728 <Impl_ShiftRows>
    8000398c:	7522                	ld	a0,40(sp)
    8000398e:	fea4b023          	sd	a0,-32(s1)
    80003992:	7542                	ld	a0,48(sp)
    80003994:	fea4b423          	sd	a0,-24(s1)
    80003998:	c825                	beqz	s0,80003a08 <AES_Encrypt+0x8ee>
    8000399a:	ff04b503          	ld	a0,-16(s1)
    8000399e:	ff84b583          	ld	a1,-8(s1)
    800039a2:	34a13423          	sd	a0,840(sp)
    800039a6:	34b13823          	sd	a1,848(sp)
    800039aa:	06a8                	addi	a0,sp,840
    800039ac:	102c                	addi	a1,sp,40
    800039ae:	d7bfe0ef          	jal	80002728 <Impl_ShiftRows>
    800039b2:	7522                	ld	a0,40(sp)
    800039b4:	fea4b823          	sd	a0,-16(s1)
    800039b8:	7542                	ld	a0,48(sp)
    800039ba:	fea4bc23          	sd	a0,-8(s1)
    800039be:	05240563          	beq	s0,s2,80003a08 <AES_Encrypt+0x8ee>
    800039c2:	6088                	ld	a0,0(s1)
    800039c4:	648c                	ld	a1,8(s1)
    800039c6:	34a13423          	sd	a0,840(sp)
    800039ca:	34b13823          	sd	a1,848(sp)
    800039ce:	06a8                	addi	a0,sp,840
    800039d0:	102c                	addi	a1,sp,40
    800039d2:	d57fe0ef          	jal	80002728 <Impl_ShiftRows>
    800039d6:	7522                	ld	a0,40(sp)
    800039d8:	e088                	sd	a0,0(s1)
    800039da:	7542                	ld	a0,48(sp)
    800039dc:	e488                	sd	a0,8(s1)
    800039de:	03340563          	beq	s0,s3,80003a08 <AES_Encrypt+0x8ee>
    800039e2:	6888                	ld	a0,16(s1)
    800039e4:	6c8c                	ld	a1,24(s1)
    800039e6:	34a13423          	sd	a0,840(sp)
    800039ea:	34b13823          	sd	a1,848(sp)
    800039ee:	06a8                	addi	a0,sp,840
    800039f0:	102c                	addi	a1,sp,40
    800039f2:	d37fe0ef          	jal	80002728 <Impl_ShiftRows>
    800039f6:	7522                	ld	a0,40(sp)
    800039f8:	e888                	sd	a0,16(s1)
    800039fa:	7542                	ld	a0,48(sp)
    800039fc:	ec88                	sd	a0,24(s1)
    800039fe:	1471                	addi	s0,s0,-4
    80003a00:	04048493          	addi	s1,s1,64
    80003a04:	f77418e3          	bne	s0,s7,80003974 <AES_Encrypt+0x85a>
    80003a08:	4541                	li	a0,16
    80003a0a:	00ac5463          	bge	s8,a0,80003a12 <AES_Encrypt+0x8f8>
    80003a0e:	32c0206f          	j	80005d3a <AES_Encrypt+0x2c20>
    80003a12:	453d                	li	a0,15
    80003a14:	000b3583          	ld	a1,0(s6)
    80003a18:	020a0603          	lb	a2,32(s4)
    80003a1c:	95aa                	add	a1,a1,a0
    80003a1e:	ff158683          	lb	a3,-15(a1)
    80003a22:	8e35                	xor	a2,a2,a3
    80003a24:	fec588a3          	sb	a2,-15(a1)
    80003a28:	000b3583          	ld	a1,0(s6)
    80003a2c:	021a0603          	lb	a2,33(s4)
    80003a30:	95aa                	add	a1,a1,a0
    80003a32:	ff258683          	lb	a3,-14(a1)
    80003a36:	8e35                	xor	a2,a2,a3
    80003a38:	fec58923          	sb	a2,-14(a1)
    80003a3c:	000b3583          	ld	a1,0(s6)
    80003a40:	022a0603          	lb	a2,34(s4)
    80003a44:	95aa                	add	a1,a1,a0
    80003a46:	ff358683          	lb	a3,-13(a1)
    80003a4a:	8e35                	xor	a2,a2,a3
    80003a4c:	fec589a3          	sb	a2,-13(a1)
    80003a50:	000b3583          	ld	a1,0(s6)
    80003a54:	023a0603          	lb	a2,35(s4)
    80003a58:	95aa                	add	a1,a1,a0
    80003a5a:	ff458683          	lb	a3,-12(a1)
    80003a5e:	8e35                	xor	a2,a2,a3
    80003a60:	fec58a23          	sb	a2,-12(a1)
    80003a64:	000b3583          	ld	a1,0(s6)
    80003a68:	024a0603          	lb	a2,36(s4)
    80003a6c:	95aa                	add	a1,a1,a0
    80003a6e:	ff558683          	lb	a3,-11(a1)
    80003a72:	8e35                	xor	a2,a2,a3
    80003a74:	fec58aa3          	sb	a2,-11(a1)
    80003a78:	000b3583          	ld	a1,0(s6)
    80003a7c:	025a0603          	lb	a2,37(s4)
    80003a80:	95aa                	add	a1,a1,a0
    80003a82:	ff658683          	lb	a3,-10(a1)
    80003a86:	8e35                	xor	a2,a2,a3
    80003a88:	fec58b23          	sb	a2,-10(a1)
    80003a8c:	000b3583          	ld	a1,0(s6)
    80003a90:	026a0603          	lb	a2,38(s4)
    80003a94:	95aa                	add	a1,a1,a0
    80003a96:	ff758683          	lb	a3,-9(a1)
    80003a9a:	8e35                	xor	a2,a2,a3
    80003a9c:	fec58ba3          	sb	a2,-9(a1)
    80003aa0:	000b3583          	ld	a1,0(s6)
    80003aa4:	027a0603          	lb	a2,39(s4)
    80003aa8:	95aa                	add	a1,a1,a0
    80003aaa:	ff858683          	lb	a3,-8(a1)
    80003aae:	8e35                	xor	a2,a2,a3
    80003ab0:	fec58c23          	sb	a2,-8(a1)
    80003ab4:	000b3583          	ld	a1,0(s6)
    80003ab8:	028a0603          	lb	a2,40(s4)
    80003abc:	95aa                	add	a1,a1,a0
    80003abe:	ff958683          	lb	a3,-7(a1)
    80003ac2:	8e35                	xor	a2,a2,a3
    80003ac4:	fec58ca3          	sb	a2,-7(a1)
    80003ac8:	000b3583          	ld	a1,0(s6)
    80003acc:	029a0603          	lb	a2,41(s4)
    80003ad0:	95aa                	add	a1,a1,a0
    80003ad2:	ffa58683          	lb	a3,-6(a1)
    80003ad6:	8e35                	xor	a2,a2,a3
    80003ad8:	fec58d23          	sb	a2,-6(a1)
    80003adc:	000b3583          	ld	a1,0(s6)
    80003ae0:	02aa0603          	lb	a2,42(s4)
    80003ae4:	95aa                	add	a1,a1,a0
    80003ae6:	ffb58683          	lb	a3,-5(a1)
    80003aea:	8e35                	xor	a2,a2,a3
    80003aec:	fec58da3          	sb	a2,-5(a1)
    80003af0:	000b3583          	ld	a1,0(s6)
    80003af4:	02ba0603          	lb	a2,43(s4)
    80003af8:	95aa                	add	a1,a1,a0
    80003afa:	ffc58683          	lb	a3,-4(a1)
    80003afe:	8e35                	xor	a2,a2,a3
    80003b00:	fec58e23          	sb	a2,-4(a1)
    80003b04:	000b3583          	ld	a1,0(s6)
    80003b08:	02ca0603          	lb	a2,44(s4)
    80003b0c:	95aa                	add	a1,a1,a0
    80003b0e:	ffd58683          	lb	a3,-3(a1)
    80003b12:	8e35                	xor	a2,a2,a3
    80003b14:	fec58ea3          	sb	a2,-3(a1)
    80003b18:	000b3583          	ld	a1,0(s6)
    80003b1c:	02da0603          	lb	a2,45(s4)
    80003b20:	95aa                	add	a1,a1,a0
    80003b22:	ffe58683          	lb	a3,-2(a1)
    80003b26:	8e35                	xor	a2,a2,a3
    80003b28:	fec58f23          	sb	a2,-2(a1)
    80003b2c:	000b3583          	ld	a1,0(s6)
    80003b30:	02ea0603          	lb	a2,46(s4)
    80003b34:	95aa                	add	a1,a1,a0
    80003b36:	fff58683          	lb	a3,-1(a1)
    80003b3a:	8e35                	xor	a2,a2,a3
    80003b3c:	fec58fa3          	sb	a2,-1(a1)
    80003b40:	000b3583          	ld	a1,0(s6)
    80003b44:	02fa0603          	lb	a2,47(s4)
    80003b48:	95aa                	add	a1,a1,a0
    80003b4a:	00058683          	lb	a3,0(a1)
    80003b4e:	8e35                	xor	a2,a2,a3
    80003b50:	00c58023          	sb	a2,0(a1)
    80003b54:	1d7d                	addi	s10,s10,-1
    80003b56:	0541                	addi	a0,a0,16
    80003b58:	ea0d1ee3          	bnez	s10,80003a14 <AES_Encrypt+0x8fa>
    80003b5c:	4541                	li	a0,16
    80003b5e:	00ac5463          	bge	s8,a0,80003b66 <AES_Encrypt+0xa4c>
    80003b62:	1d80206f          	j	80005d3a <AES_Encrypt+0x2c20>
    80003b66:	6562                	ld	a0,24(sp)
    80003b68:	02055d13          	srli	s10,a0,0x20
    80003b6c:	000ab503          	ld	a0,0(s5)
    80003b70:	fffd0413          	addi	s0,s10,-1
    80003b74:	02000493          	li	s1,32
    80003b78:	4905                	li	s2,1
    80003b7a:	4989                	li	s3,2
    80003b7c:	5bfd                	li	s7,-1
    80003b7e:	9526                	add	a0,a0,s1
    80003b80:	fe053583          	ld	a1,-32(a0)
    80003b84:	fe853503          	ld	a0,-24(a0)
    80003b88:	34b13423          	sd	a1,840(sp)
    80003b8c:	34a13823          	sd	a0,848(sp)
    80003b90:	06a8                	addi	a0,sp,840
    80003b92:	102c                	addi	a1,sp,40
    80003b94:	c80fe0ef          	jal	80002014 <Impl_SBOX>
    80003b98:	000ab503          	ld	a0,0(s5)
    80003b9c:	75a2                	ld	a1,40(sp)
    80003b9e:	9526                	add	a0,a0,s1
    80003ba0:	feb53023          	sd	a1,-32(a0)
    80003ba4:	75c2                	ld	a1,48(sp)
    80003ba6:	feb53423          	sd	a1,-24(a0)
    80003baa:	c051                	beqz	s0,80003c2e <AES_Encrypt+0xb14>
    80003bac:	ff053583          	ld	a1,-16(a0)
    80003bb0:	ff853503          	ld	a0,-8(a0)
    80003bb4:	34b13423          	sd	a1,840(sp)
    80003bb8:	34a13823          	sd	a0,848(sp)
    80003bbc:	06a8                	addi	a0,sp,840
    80003bbe:	102c                	addi	a1,sp,40
    80003bc0:	c54fe0ef          	jal	80002014 <Impl_SBOX>
    80003bc4:	000ab503          	ld	a0,0(s5)
    80003bc8:	75a2                	ld	a1,40(sp)
    80003bca:	9526                	add	a0,a0,s1
    80003bcc:	feb53823          	sd	a1,-16(a0)
    80003bd0:	75c2                	ld	a1,48(sp)
    80003bd2:	feb53c23          	sd	a1,-8(a0)
    80003bd6:	05240c63          	beq	s0,s2,80003c2e <AES_Encrypt+0xb14>
    80003bda:	610c                	ld	a1,0(a0)
    80003bdc:	6508                	ld	a0,8(a0)
    80003bde:	34b13423          	sd	a1,840(sp)
    80003be2:	34a13823          	sd	a0,848(sp)
    80003be6:	06a8                	addi	a0,sp,840
    80003be8:	102c                	addi	a1,sp,40
    80003bea:	c2afe0ef          	jal	80002014 <Impl_SBOX>
    80003bee:	000ab503          	ld	a0,0(s5)
    80003bf2:	75a2                	ld	a1,40(sp)
    80003bf4:	9526                	add	a0,a0,s1
    80003bf6:	e10c                	sd	a1,0(a0)
    80003bf8:	75c2                	ld	a1,48(sp)
    80003bfa:	e50c                	sd	a1,8(a0)
    80003bfc:	03340963          	beq	s0,s3,80003c2e <AES_Encrypt+0xb14>
    80003c00:	690c                	ld	a1,16(a0)
    80003c02:	6d08                	ld	a0,24(a0)
    80003c04:	34b13423          	sd	a1,840(sp)
    80003c08:	34a13823          	sd	a0,848(sp)
    80003c0c:	06a8                	addi	a0,sp,840
    80003c0e:	102c                	addi	a1,sp,40
    80003c10:	c04fe0ef          	jal	80002014 <Impl_SBOX>
    80003c14:	000ab503          	ld	a0,0(s5)
    80003c18:	75a2                	ld	a1,40(sp)
    80003c1a:	00950633          	add	a2,a0,s1
    80003c1e:	ea0c                	sd	a1,16(a2)
    80003c20:	75c2                	ld	a1,48(sp)
    80003c22:	ee0c                	sd	a1,24(a2)
    80003c24:	1471                	addi	s0,s0,-4
    80003c26:	04048493          	addi	s1,s1,64
    80003c2a:	f5741ae3          	bne	s0,s7,80003b7e <AES_Encrypt+0xa64>
    80003c2e:	4541                	li	a0,16
    80003c30:	00ac5463          	bge	s8,a0,80003c38 <AES_Encrypt+0xb1e>
    80003c34:	1060206f          	j	80005d3a <AES_Encrypt+0x2c20>
    80003c38:	000ab503          	ld	a0,0(s5)
    80003c3c:	fffd0913          	addi	s2,s10,-1
    80003c40:	02050493          	addi	s1,a0,32
    80003c44:	4b85                	li	s7,1
    80003c46:	4989                	li	s3,2
    80003c48:	02c10c93          	addi	s9,sp,44
    80003c4c:	03010d93          	addi	s11,sp,48
    80003c50:	fe04ba83          	ld	s5,-32(s1)
    80003c54:	fe84b403          	ld	s0,-24(s1)
    80003c58:	d802                	sw	zero,48(sp)
    80003c5a:	f402                	sd	zero,40(sp)
    80003c5c:	420ad513          	srai	a0,s5,0x20
    80003c60:	102c                	addi	a1,sp,40
    80003c62:	dd6fe0ef          	jal	80002238 <gmul_>
    80003c66:	0004051b          	sext.w	a0,s0
    80003c6a:	85e6                	mv	a1,s9
    80003c6c:	dccfe0ef          	jal	80002238 <gmul_>
    80003c70:	42045513          	srai	a0,s0,0x20
    80003c74:	85ee                	mv	a1,s11
    80003c76:	dc2fe0ef          	jal	80002238 <gmul_>
    80003c7a:	5522                	lw	a0,40(sp)
    80003c7c:	7582                	ld	a1,32(sp)
    80003c7e:	00baf5b3          	and	a1,s5,a1
    80003c82:	7a82                	ld	s5,32(sp)
    80003c84:	1502                	slli	a0,a0,0x20
    80003c86:	8d4d                	or	a0,a0,a1
    80003c88:	55c2                	lw	a1,48(sp)
    80003c8a:	02c16603          	lwu	a2,44(sp)
    80003c8e:	1582                	slli	a1,a1,0x20
    80003c90:	8dd1                	or	a1,a1,a2
    80003c92:	fea4b023          	sd	a0,-32(s1)
    80003c96:	feb4b423          	sd	a1,-24(s1)
    80003c9a:	0e090563          	beqz	s2,80003d84 <AES_Encrypt+0xc6a>
    80003c9e:	ff04ba83          	ld	s5,-16(s1)
    80003ca2:	ff84b403          	ld	s0,-8(s1)
    80003ca6:	d802                	sw	zero,48(sp)
    80003ca8:	f402                	sd	zero,40(sp)
    80003caa:	420ad513          	srai	a0,s5,0x20
    80003cae:	102c                	addi	a1,sp,40
    80003cb0:	d88fe0ef          	jal	80002238 <gmul_>
    80003cb4:	0004051b          	sext.w	a0,s0
    80003cb8:	85e6                	mv	a1,s9
    80003cba:	d7efe0ef          	jal	80002238 <gmul_>
    80003cbe:	42045513          	srai	a0,s0,0x20
    80003cc2:	85ee                	mv	a1,s11
    80003cc4:	d74fe0ef          	jal	80002238 <gmul_>
    80003cc8:	5522                	lw	a0,40(sp)
    80003cca:	7582                	ld	a1,32(sp)
    80003ccc:	00baf5b3          	and	a1,s5,a1
    80003cd0:	7a82                	ld	s5,32(sp)
    80003cd2:	1502                	slli	a0,a0,0x20
    80003cd4:	8d4d                	or	a0,a0,a1
    80003cd6:	55c2                	lw	a1,48(sp)
    80003cd8:	02c16603          	lwu	a2,44(sp)
    80003cdc:	1582                	slli	a1,a1,0x20
    80003cde:	8dd1                	or	a1,a1,a2
    80003ce0:	fea4b823          	sd	a0,-16(s1)
    80003ce4:	feb4bc23          	sd	a1,-8(s1)
    80003ce8:	09790e63          	beq	s2,s7,80003d84 <AES_Encrypt+0xc6a>
    80003cec:	0004ba83          	ld	s5,0(s1)
    80003cf0:	6480                	ld	s0,8(s1)
    80003cf2:	d802                	sw	zero,48(sp)
    80003cf4:	f402                	sd	zero,40(sp)
    80003cf6:	420ad513          	srai	a0,s5,0x20
    80003cfa:	102c                	addi	a1,sp,40
    80003cfc:	d3cfe0ef          	jal	80002238 <gmul_>
    80003d00:	0004051b          	sext.w	a0,s0
    80003d04:	85e6                	mv	a1,s9
    80003d06:	d32fe0ef          	jal	80002238 <gmul_>
    80003d0a:	42045513          	srai	a0,s0,0x20
    80003d0e:	85ee                	mv	a1,s11
    80003d10:	d28fe0ef          	jal	80002238 <gmul_>
    80003d14:	5522                	lw	a0,40(sp)
    80003d16:	7582                	ld	a1,32(sp)
    80003d18:	00baf5b3          	and	a1,s5,a1
    80003d1c:	7a82                	ld	s5,32(sp)
    80003d1e:	1502                	slli	a0,a0,0x20
    80003d20:	8d4d                	or	a0,a0,a1
    80003d22:	55c2                	lw	a1,48(sp)
    80003d24:	02c16603          	lwu	a2,44(sp)
    80003d28:	1582                	slli	a1,a1,0x20
    80003d2a:	8dd1                	or	a1,a1,a2
    80003d2c:	e088                	sd	a0,0(s1)
    80003d2e:	e48c                	sd	a1,8(s1)
    80003d30:	05390a63          	beq	s2,s3,80003d84 <AES_Encrypt+0xc6a>
    80003d34:	0104ba83          	ld	s5,16(s1)
    80003d38:	6c80                	ld	s0,24(s1)
    80003d3a:	d802                	sw	zero,48(sp)
    80003d3c:	f402                	sd	zero,40(sp)
    80003d3e:	420ad513          	srai	a0,s5,0x20
    80003d42:	102c                	addi	a1,sp,40
    80003d44:	cf4fe0ef          	jal	80002238 <gmul_>
    80003d48:	0004051b          	sext.w	a0,s0
    80003d4c:	85e6                	mv	a1,s9
    80003d4e:	ceafe0ef          	jal	80002238 <gmul_>
    80003d52:	42045513          	srai	a0,s0,0x20
    80003d56:	85ee                	mv	a1,s11
    80003d58:	ce0fe0ef          	jal	80002238 <gmul_>
    80003d5c:	5522                	lw	a0,40(sp)
    80003d5e:	7582                	ld	a1,32(sp)
    80003d60:	00baf5b3          	and	a1,s5,a1
    80003d64:	7a82                	ld	s5,32(sp)
    80003d66:	1502                	slli	a0,a0,0x20
    80003d68:	8d4d                	or	a0,a0,a1
    80003d6a:	55c2                	lw	a1,48(sp)
    80003d6c:	02c16603          	lwu	a2,44(sp)
    80003d70:	1582                	slli	a1,a1,0x20
    80003d72:	8dd1                	or	a1,a1,a2
    80003d74:	e888                	sd	a0,16(s1)
    80003d76:	ec8c                	sd	a1,24(s1)
    80003d78:	1971                	addi	s2,s2,-4
    80003d7a:	04048493          	addi	s1,s1,64
    80003d7e:	557d                	li	a0,-1
    80003d80:	eca918e3          	bne	s2,a0,80003c50 <AES_Encrypt+0xb36>
    80003d84:	4541                	li	a0,16
    80003d86:	6cc2                	ld	s9,16(sp)
    80003d88:	00ac5463          	bge	s8,a0,80003d90 <AES_Encrypt+0xc76>
    80003d8c:	7af0106f          	j	80005d3a <AES_Encrypt+0x2c20>
    80003d90:	000cb503          	ld	a0,0(s9)
    80003d94:	fffd0413          	addi	s0,s10,-1
    80003d98:	02050493          	addi	s1,a0,32
    80003d9c:	4905                	li	s2,1
    80003d9e:	4989                	li	s3,2
    80003da0:	5bfd                	li	s7,-1
    80003da2:	fe04b503          	ld	a0,-32(s1)
    80003da6:	fe84b583          	ld	a1,-24(s1)
    80003daa:	34a13423          	sd	a0,840(sp)
    80003dae:	34b13823          	sd	a1,848(sp)
    80003db2:	06a8                	addi	a0,sp,840
    80003db4:	102c                	addi	a1,sp,40
    80003db6:	973fe0ef          	jal	80002728 <Impl_ShiftRows>
    80003dba:	7522                	ld	a0,40(sp)
    80003dbc:	fea4b023          	sd	a0,-32(s1)
    80003dc0:	7542                	ld	a0,48(sp)
    80003dc2:	fea4b423          	sd	a0,-24(s1)
    80003dc6:	c825                	beqz	s0,80003e36 <AES_Encrypt+0xd1c>
    80003dc8:	ff04b503          	ld	a0,-16(s1)
    80003dcc:	ff84b583          	ld	a1,-8(s1)
    80003dd0:	34a13423          	sd	a0,840(sp)
    80003dd4:	34b13823          	sd	a1,848(sp)
    80003dd8:	06a8                	addi	a0,sp,840
    80003dda:	102c                	addi	a1,sp,40
    80003ddc:	94dfe0ef          	jal	80002728 <Impl_ShiftRows>
    80003de0:	7522                	ld	a0,40(sp)
    80003de2:	fea4b823          	sd	a0,-16(s1)
    80003de6:	7542                	ld	a0,48(sp)
    80003de8:	fea4bc23          	sd	a0,-8(s1)
    80003dec:	05240563          	beq	s0,s2,80003e36 <AES_Encrypt+0xd1c>
    80003df0:	6088                	ld	a0,0(s1)
    80003df2:	648c                	ld	a1,8(s1)
    80003df4:	34a13423          	sd	a0,840(sp)
    80003df8:	34b13823          	sd	a1,848(sp)
    80003dfc:	06a8                	addi	a0,sp,840
    80003dfe:	102c                	addi	a1,sp,40
    80003e00:	929fe0ef          	jal	80002728 <Impl_ShiftRows>
    80003e04:	7522                	ld	a0,40(sp)
    80003e06:	e088                	sd	a0,0(s1)
    80003e08:	7542                	ld	a0,48(sp)
    80003e0a:	e488                	sd	a0,8(s1)
    80003e0c:	03340563          	beq	s0,s3,80003e36 <AES_Encrypt+0xd1c>
    80003e10:	6888                	ld	a0,16(s1)
    80003e12:	6c8c                	ld	a1,24(s1)
    80003e14:	34a13423          	sd	a0,840(sp)
    80003e18:	34b13823          	sd	a1,848(sp)
    80003e1c:	06a8                	addi	a0,sp,840
    80003e1e:	102c                	addi	a1,sp,40
    80003e20:	909fe0ef          	jal	80002728 <Impl_ShiftRows>
    80003e24:	7522                	ld	a0,40(sp)
    80003e26:	e888                	sd	a0,16(s1)
    80003e28:	7542                	ld	a0,48(sp)
    80003e2a:	ec88                	sd	a0,24(s1)
    80003e2c:	1471                	addi	s0,s0,-4
    80003e2e:	04048493          	addi	s1,s1,64
    80003e32:	f77418e3          	bne	s0,s7,80003da2 <AES_Encrypt+0xc88>
    80003e36:	4541                	li	a0,16
    80003e38:	00ac5463          	bge	s8,a0,80003e40 <AES_Encrypt+0xd26>
    80003e3c:	6ff0106f          	j	80005d3a <AES_Encrypt+0x2c20>
    80003e40:	453d                	li	a0,15
    80003e42:	000b3583          	ld	a1,0(s6)
    80003e46:	030a0603          	lb	a2,48(s4)
    80003e4a:	95aa                	add	a1,a1,a0
    80003e4c:	ff158683          	lb	a3,-15(a1)
    80003e50:	8e35                	xor	a2,a2,a3
    80003e52:	fec588a3          	sb	a2,-15(a1)
    80003e56:	000b3583          	ld	a1,0(s6)
    80003e5a:	031a0603          	lb	a2,49(s4)
    80003e5e:	95aa                	add	a1,a1,a0
    80003e60:	ff258683          	lb	a3,-14(a1)
    80003e64:	8e35                	xor	a2,a2,a3
    80003e66:	fec58923          	sb	a2,-14(a1)
    80003e6a:	000b3583          	ld	a1,0(s6)
    80003e6e:	032a0603          	lb	a2,50(s4)
    80003e72:	95aa                	add	a1,a1,a0
    80003e74:	ff358683          	lb	a3,-13(a1)
    80003e78:	8e35                	xor	a2,a2,a3
    80003e7a:	fec589a3          	sb	a2,-13(a1)
    80003e7e:	000b3583          	ld	a1,0(s6)
    80003e82:	033a0603          	lb	a2,51(s4)
    80003e86:	95aa                	add	a1,a1,a0
    80003e88:	ff458683          	lb	a3,-12(a1)
    80003e8c:	8e35                	xor	a2,a2,a3
    80003e8e:	fec58a23          	sb	a2,-12(a1)
    80003e92:	000b3583          	ld	a1,0(s6)
    80003e96:	034a0603          	lb	a2,52(s4)
    80003e9a:	95aa                	add	a1,a1,a0
    80003e9c:	ff558683          	lb	a3,-11(a1)
    80003ea0:	8e35                	xor	a2,a2,a3
    80003ea2:	fec58aa3          	sb	a2,-11(a1)
    80003ea6:	000b3583          	ld	a1,0(s6)
    80003eaa:	035a0603          	lb	a2,53(s4)
    80003eae:	95aa                	add	a1,a1,a0
    80003eb0:	ff658683          	lb	a3,-10(a1)
    80003eb4:	8e35                	xor	a2,a2,a3
    80003eb6:	fec58b23          	sb	a2,-10(a1)
    80003eba:	000b3583          	ld	a1,0(s6)
    80003ebe:	036a0603          	lb	a2,54(s4)
    80003ec2:	95aa                	add	a1,a1,a0
    80003ec4:	ff758683          	lb	a3,-9(a1)
    80003ec8:	8e35                	xor	a2,a2,a3
    80003eca:	fec58ba3          	sb	a2,-9(a1)
    80003ece:	000b3583          	ld	a1,0(s6)
    80003ed2:	037a0603          	lb	a2,55(s4)
    80003ed6:	95aa                	add	a1,a1,a0
    80003ed8:	ff858683          	lb	a3,-8(a1)
    80003edc:	8e35                	xor	a2,a2,a3
    80003ede:	fec58c23          	sb	a2,-8(a1)
    80003ee2:	000b3583          	ld	a1,0(s6)
    80003ee6:	038a0603          	lb	a2,56(s4)
    80003eea:	95aa                	add	a1,a1,a0
    80003eec:	ff958683          	lb	a3,-7(a1)
    80003ef0:	8e35                	xor	a2,a2,a3
    80003ef2:	fec58ca3          	sb	a2,-7(a1)
    80003ef6:	000b3583          	ld	a1,0(s6)
    80003efa:	039a0603          	lb	a2,57(s4)
    80003efe:	95aa                	add	a1,a1,a0
    80003f00:	ffa58683          	lb	a3,-6(a1)
    80003f04:	8e35                	xor	a2,a2,a3
    80003f06:	fec58d23          	sb	a2,-6(a1)
    80003f0a:	000b3583          	ld	a1,0(s6)
    80003f0e:	03aa0603          	lb	a2,58(s4)
    80003f12:	95aa                	add	a1,a1,a0
    80003f14:	ffb58683          	lb	a3,-5(a1)
    80003f18:	8e35                	xor	a2,a2,a3
    80003f1a:	fec58da3          	sb	a2,-5(a1)
    80003f1e:	000b3583          	ld	a1,0(s6)
    80003f22:	03ba0603          	lb	a2,59(s4)
    80003f26:	95aa                	add	a1,a1,a0
    80003f28:	ffc58683          	lb	a3,-4(a1)
    80003f2c:	8e35                	xor	a2,a2,a3
    80003f2e:	fec58e23          	sb	a2,-4(a1)
    80003f32:	000b3583          	ld	a1,0(s6)
    80003f36:	03ca0603          	lb	a2,60(s4)
    80003f3a:	95aa                	add	a1,a1,a0
    80003f3c:	ffd58683          	lb	a3,-3(a1)
    80003f40:	8e35                	xor	a2,a2,a3
    80003f42:	fec58ea3          	sb	a2,-3(a1)
    80003f46:	000b3583          	ld	a1,0(s6)
    80003f4a:	03da0603          	lb	a2,61(s4)
    80003f4e:	95aa                	add	a1,a1,a0
    80003f50:	ffe58683          	lb	a3,-2(a1)
    80003f54:	8e35                	xor	a2,a2,a3
    80003f56:	fec58f23          	sb	a2,-2(a1)
    80003f5a:	000b3583          	ld	a1,0(s6)
    80003f5e:	03ea0603          	lb	a2,62(s4)
    80003f62:	95aa                	add	a1,a1,a0
    80003f64:	fff58683          	lb	a3,-1(a1)
    80003f68:	8e35                	xor	a2,a2,a3
    80003f6a:	fec58fa3          	sb	a2,-1(a1)
    80003f6e:	000b3583          	ld	a1,0(s6)
    80003f72:	03fa0603          	lb	a2,63(s4)
    80003f76:	95aa                	add	a1,a1,a0
    80003f78:	00058683          	lb	a3,0(a1)
    80003f7c:	8e35                	xor	a2,a2,a3
    80003f7e:	00c58023          	sb	a2,0(a1)
    80003f82:	1d7d                	addi	s10,s10,-1
    80003f84:	0541                	addi	a0,a0,16
    80003f86:	ea0d1ee3          	bnez	s10,80003e42 <AES_Encrypt+0xd28>
    80003f8a:	4541                	li	a0,16
    80003f8c:	00ac5463          	bge	s8,a0,80003f94 <AES_Encrypt+0xe7a>
    80003f90:	5ab0106f          	j	80005d3a <AES_Encrypt+0x2c20>
    80003f94:	6562                	ld	a0,24(sp)
    80003f96:	02055d13          	srli	s10,a0,0x20
    80003f9a:	000cb503          	ld	a0,0(s9)
    80003f9e:	fffd0413          	addi	s0,s10,-1
    80003fa2:	02000493          	li	s1,32
    80003fa6:	4905                	li	s2,1
    80003fa8:	4989                	li	s3,2
    80003faa:	5bfd                	li	s7,-1
    80003fac:	9526                	add	a0,a0,s1
    80003fae:	fe053583          	ld	a1,-32(a0)
    80003fb2:	fe853503          	ld	a0,-24(a0)
    80003fb6:	34b13423          	sd	a1,840(sp)
    80003fba:	34a13823          	sd	a0,848(sp)
    80003fbe:	06a8                	addi	a0,sp,840
    80003fc0:	102c                	addi	a1,sp,40
    80003fc2:	852fe0ef          	jal	80002014 <Impl_SBOX>
    80003fc6:	000cb503          	ld	a0,0(s9)
    80003fca:	75a2                	ld	a1,40(sp)
    80003fcc:	9526                	add	a0,a0,s1
    80003fce:	feb53023          	sd	a1,-32(a0)
    80003fd2:	75c2                	ld	a1,48(sp)
    80003fd4:	feb53423          	sd	a1,-24(a0)
    80003fd8:	c051                	beqz	s0,8000405c <AES_Encrypt+0xf42>
    80003fda:	ff053583          	ld	a1,-16(a0)
    80003fde:	ff853503          	ld	a0,-8(a0)
    80003fe2:	34b13423          	sd	a1,840(sp)
    80003fe6:	34a13823          	sd	a0,848(sp)
    80003fea:	06a8                	addi	a0,sp,840
    80003fec:	102c                	addi	a1,sp,40
    80003fee:	826fe0ef          	jal	80002014 <Impl_SBOX>
    80003ff2:	000cb503          	ld	a0,0(s9)
    80003ff6:	75a2                	ld	a1,40(sp)
    80003ff8:	9526                	add	a0,a0,s1
    80003ffa:	feb53823          	sd	a1,-16(a0)
    80003ffe:	75c2                	ld	a1,48(sp)
    80004000:	feb53c23          	sd	a1,-8(a0)
    80004004:	05240c63          	beq	s0,s2,8000405c <AES_Encrypt+0xf42>
    80004008:	610c                	ld	a1,0(a0)
    8000400a:	6508                	ld	a0,8(a0)
    8000400c:	34b13423          	sd	a1,840(sp)
    80004010:	34a13823          	sd	a0,848(sp)
    80004014:	06a8                	addi	a0,sp,840
    80004016:	102c                	addi	a1,sp,40
    80004018:	ffdfd0ef          	jal	80002014 <Impl_SBOX>
    8000401c:	000cb503          	ld	a0,0(s9)
    80004020:	75a2                	ld	a1,40(sp)
    80004022:	9526                	add	a0,a0,s1
    80004024:	e10c                	sd	a1,0(a0)
    80004026:	75c2                	ld	a1,48(sp)
    80004028:	e50c                	sd	a1,8(a0)
    8000402a:	03340963          	beq	s0,s3,8000405c <AES_Encrypt+0xf42>
    8000402e:	690c                	ld	a1,16(a0)
    80004030:	6d08                	ld	a0,24(a0)
    80004032:	34b13423          	sd	a1,840(sp)
    80004036:	34a13823          	sd	a0,848(sp)
    8000403a:	06a8                	addi	a0,sp,840
    8000403c:	102c                	addi	a1,sp,40
    8000403e:	fd7fd0ef          	jal	80002014 <Impl_SBOX>
    80004042:	000cb503          	ld	a0,0(s9)
    80004046:	75a2                	ld	a1,40(sp)
    80004048:	00950633          	add	a2,a0,s1
    8000404c:	ea0c                	sd	a1,16(a2)
    8000404e:	75c2                	ld	a1,48(sp)
    80004050:	ee0c                	sd	a1,24(a2)
    80004052:	1471                	addi	s0,s0,-4
    80004054:	04048493          	addi	s1,s1,64
    80004058:	f5741ae3          	bne	s0,s7,80003fac <AES_Encrypt+0xe92>
    8000405c:	4541                	li	a0,16
    8000405e:	00ac5463          	bge	s8,a0,80004066 <AES_Encrypt+0xf4c>
    80004062:	4d90106f          	j	80005d3a <AES_Encrypt+0x2c20>
    80004066:	000cb503          	ld	a0,0(s9)
    8000406a:	fffd0913          	addi	s2,s10,-1
    8000406e:	02050493          	addi	s1,a0,32
    80004072:	4b85                	li	s7,1
    80004074:	4989                	li	s3,2
    80004076:	8c56                	mv	s8,s5
    80004078:	02c10c93          	addi	s9,sp,44
    8000407c:	03010d93          	addi	s11,sp,48
    80004080:	fe04ba83          	ld	s5,-32(s1)
    80004084:	fe84b403          	ld	s0,-24(s1)
    80004088:	d802                	sw	zero,48(sp)
    8000408a:	f402                	sd	zero,40(sp)
    8000408c:	420ad513          	srai	a0,s5,0x20
    80004090:	102c                	addi	a1,sp,40
    80004092:	9a6fe0ef          	jal	80002238 <gmul_>
    80004096:	0004051b          	sext.w	a0,s0
    8000409a:	85e6                	mv	a1,s9
    8000409c:	99cfe0ef          	jal	80002238 <gmul_>
    800040a0:	42045513          	srai	a0,s0,0x20
    800040a4:	85ee                	mv	a1,s11
    800040a6:	992fe0ef          	jal	80002238 <gmul_>
    800040aa:	5522                	lw	a0,40(sp)
    800040ac:	018af5b3          	and	a1,s5,s8
    800040b0:	1502                	slli	a0,a0,0x20
    800040b2:	8d4d                	or	a0,a0,a1
    800040b4:	55c2                	lw	a1,48(sp)
    800040b6:	02c16603          	lwu	a2,44(sp)
    800040ba:	1582                	slli	a1,a1,0x20
    800040bc:	8dd1                	or	a1,a1,a2
    800040be:	fea4b023          	sd	a0,-32(s1)
    800040c2:	feb4b423          	sd	a1,-24(s1)
    800040c6:	0c090f63          	beqz	s2,800041a4 <AES_Encrypt+0x108a>
    800040ca:	ff04ba83          	ld	s5,-16(s1)
    800040ce:	ff84b403          	ld	s0,-8(s1)
    800040d2:	d802                	sw	zero,48(sp)
    800040d4:	f402                	sd	zero,40(sp)
    800040d6:	420ad513          	srai	a0,s5,0x20
    800040da:	102c                	addi	a1,sp,40
    800040dc:	95cfe0ef          	jal	80002238 <gmul_>
    800040e0:	0004051b          	sext.w	a0,s0
    800040e4:	85e6                	mv	a1,s9
    800040e6:	952fe0ef          	jal	80002238 <gmul_>
    800040ea:	42045513          	srai	a0,s0,0x20
    800040ee:	85ee                	mv	a1,s11
    800040f0:	948fe0ef          	jal	80002238 <gmul_>
    800040f4:	5522                	lw	a0,40(sp)
    800040f6:	018af5b3          	and	a1,s5,s8
    800040fa:	1502                	slli	a0,a0,0x20
    800040fc:	8d4d                	or	a0,a0,a1
    800040fe:	55c2                	lw	a1,48(sp)
    80004100:	02c16603          	lwu	a2,44(sp)
    80004104:	1582                	slli	a1,a1,0x20
    80004106:	8dd1                	or	a1,a1,a2
    80004108:	fea4b823          	sd	a0,-16(s1)
    8000410c:	feb4bc23          	sd	a1,-8(s1)
    80004110:	09790a63          	beq	s2,s7,800041a4 <AES_Encrypt+0x108a>
    80004114:	0004ba83          	ld	s5,0(s1)
    80004118:	6480                	ld	s0,8(s1)
    8000411a:	d802                	sw	zero,48(sp)
    8000411c:	f402                	sd	zero,40(sp)
    8000411e:	420ad513          	srai	a0,s5,0x20
    80004122:	102c                	addi	a1,sp,40
    80004124:	914fe0ef          	jal	80002238 <gmul_>
    80004128:	0004051b          	sext.w	a0,s0
    8000412c:	85e6                	mv	a1,s9
    8000412e:	90afe0ef          	jal	80002238 <gmul_>
    80004132:	42045513          	srai	a0,s0,0x20
    80004136:	85ee                	mv	a1,s11
    80004138:	900fe0ef          	jal	80002238 <gmul_>
    8000413c:	5522                	lw	a0,40(sp)
    8000413e:	018af5b3          	and	a1,s5,s8
    80004142:	1502                	slli	a0,a0,0x20
    80004144:	8d4d                	or	a0,a0,a1
    80004146:	55c2                	lw	a1,48(sp)
    80004148:	02c16603          	lwu	a2,44(sp)
    8000414c:	1582                	slli	a1,a1,0x20
    8000414e:	8dd1                	or	a1,a1,a2
    80004150:	e088                	sd	a0,0(s1)
    80004152:	e48c                	sd	a1,8(s1)
    80004154:	05390863          	beq	s2,s3,800041a4 <AES_Encrypt+0x108a>
    80004158:	0104ba83          	ld	s5,16(s1)
    8000415c:	6c80                	ld	s0,24(s1)
    8000415e:	d802                	sw	zero,48(sp)
    80004160:	f402                	sd	zero,40(sp)
    80004162:	420ad513          	srai	a0,s5,0x20
    80004166:	102c                	addi	a1,sp,40
    80004168:	8d0fe0ef          	jal	80002238 <gmul_>
    8000416c:	0004051b          	sext.w	a0,s0
    80004170:	85e6                	mv	a1,s9
    80004172:	8c6fe0ef          	jal	80002238 <gmul_>
    80004176:	42045513          	srai	a0,s0,0x20
    8000417a:	85ee                	mv	a1,s11
    8000417c:	8bcfe0ef          	jal	80002238 <gmul_>
    80004180:	5522                	lw	a0,40(sp)
    80004182:	018af5b3          	and	a1,s5,s8
    80004186:	1502                	slli	a0,a0,0x20
    80004188:	8d4d                	or	a0,a0,a1
    8000418a:	55c2                	lw	a1,48(sp)
    8000418c:	02c16603          	lwu	a2,44(sp)
    80004190:	1582                	slli	a1,a1,0x20
    80004192:	8dd1                	or	a1,a1,a2
    80004194:	e888                	sd	a0,16(s1)
    80004196:	ec8c                	sd	a1,24(s1)
    80004198:	1971                	addi	s2,s2,-4
    8000419a:	04048493          	addi	s1,s1,64
    8000419e:	557d                	li	a0,-1
    800041a0:	eea910e3          	bne	s2,a0,80004080 <AES_Encrypt+0xf66>
    800041a4:	4541                	li	a0,16
    800041a6:	65a2                	ld	a1,8(sp)
    800041a8:	6642                	ld	a2,16(sp)
    800041aa:	00a5d463          	bge	a1,a0,800041b2 <AES_Encrypt+0x1098>
    800041ae:	38d0106f          	j	80005d3a <AES_Encrypt+0x2c20>
    800041b2:	6208                	ld	a0,0(a2)
    800041b4:	fffd0413          	addi	s0,s10,-1
    800041b8:	02050493          	addi	s1,a0,32
    800041bc:	4905                	li	s2,1
    800041be:	4989                	li	s3,2
    800041c0:	5bfd                	li	s7,-1
    800041c2:	fe04b503          	ld	a0,-32(s1)
    800041c6:	fe84b583          	ld	a1,-24(s1)
    800041ca:	34a13423          	sd	a0,840(sp)
    800041ce:	34b13823          	sd	a1,848(sp)
    800041d2:	06a8                	addi	a0,sp,840
    800041d4:	102c                	addi	a1,sp,40
    800041d6:	d52fe0ef          	jal	80002728 <Impl_ShiftRows>
    800041da:	7522                	ld	a0,40(sp)
    800041dc:	fea4b023          	sd	a0,-32(s1)
    800041e0:	7542                	ld	a0,48(sp)
    800041e2:	fea4b423          	sd	a0,-24(s1)
    800041e6:	c825                	beqz	s0,80004256 <AES_Encrypt+0x113c>
    800041e8:	ff04b503          	ld	a0,-16(s1)
    800041ec:	ff84b583          	ld	a1,-8(s1)
    800041f0:	34a13423          	sd	a0,840(sp)
    800041f4:	34b13823          	sd	a1,848(sp)
    800041f8:	06a8                	addi	a0,sp,840
    800041fa:	102c                	addi	a1,sp,40
    800041fc:	d2cfe0ef          	jal	80002728 <Impl_ShiftRows>
    80004200:	7522                	ld	a0,40(sp)
    80004202:	fea4b823          	sd	a0,-16(s1)
    80004206:	7542                	ld	a0,48(sp)
    80004208:	fea4bc23          	sd	a0,-8(s1)
    8000420c:	05240563          	beq	s0,s2,80004256 <AES_Encrypt+0x113c>
    80004210:	6088                	ld	a0,0(s1)
    80004212:	648c                	ld	a1,8(s1)
    80004214:	34a13423          	sd	a0,840(sp)
    80004218:	34b13823          	sd	a1,848(sp)
    8000421c:	06a8                	addi	a0,sp,840
    8000421e:	102c                	addi	a1,sp,40
    80004220:	d08fe0ef          	jal	80002728 <Impl_ShiftRows>
    80004224:	7522                	ld	a0,40(sp)
    80004226:	e088                	sd	a0,0(s1)
    80004228:	7542                	ld	a0,48(sp)
    8000422a:	e488                	sd	a0,8(s1)
    8000422c:	03340563          	beq	s0,s3,80004256 <AES_Encrypt+0x113c>
    80004230:	6888                	ld	a0,16(s1)
    80004232:	6c8c                	ld	a1,24(s1)
    80004234:	34a13423          	sd	a0,840(sp)
    80004238:	34b13823          	sd	a1,848(sp)
    8000423c:	06a8                	addi	a0,sp,840
    8000423e:	102c                	addi	a1,sp,40
    80004240:	ce8fe0ef          	jal	80002728 <Impl_ShiftRows>
    80004244:	7522                	ld	a0,40(sp)
    80004246:	e888                	sd	a0,16(s1)
    80004248:	7542                	ld	a0,48(sp)
    8000424a:	ec88                	sd	a0,24(s1)
    8000424c:	1471                	addi	s0,s0,-4
    8000424e:	04048493          	addi	s1,s1,64
    80004252:	f77418e3          	bne	s0,s7,800041c2 <AES_Encrypt+0x10a8>
    80004256:	4541                	li	a0,16
    80004258:	65a2                	ld	a1,8(sp)
    8000425a:	00a5d463          	bge	a1,a0,80004262 <AES_Encrypt+0x1148>
    8000425e:	2dd0106f          	j	80005d3a <AES_Encrypt+0x2c20>
    80004262:	453d                	li	a0,15
    80004264:	000b3583          	ld	a1,0(s6)
    80004268:	040a0603          	lb	a2,64(s4)
    8000426c:	95aa                	add	a1,a1,a0
    8000426e:	ff158683          	lb	a3,-15(a1)
    80004272:	8e35                	xor	a2,a2,a3
    80004274:	fec588a3          	sb	a2,-15(a1)
    80004278:	000b3583          	ld	a1,0(s6)
    8000427c:	041a0603          	lb	a2,65(s4)
    80004280:	95aa                	add	a1,a1,a0
    80004282:	ff258683          	lb	a3,-14(a1)
    80004286:	8e35                	xor	a2,a2,a3
    80004288:	fec58923          	sb	a2,-14(a1)
    8000428c:	000b3583          	ld	a1,0(s6)
    80004290:	042a0603          	lb	a2,66(s4)
    80004294:	95aa                	add	a1,a1,a0
    80004296:	ff358683          	lb	a3,-13(a1)
    8000429a:	8e35                	xor	a2,a2,a3
    8000429c:	fec589a3          	sb	a2,-13(a1)
    800042a0:	000b3583          	ld	a1,0(s6)
    800042a4:	043a0603          	lb	a2,67(s4)
    800042a8:	95aa                	add	a1,a1,a0
    800042aa:	ff458683          	lb	a3,-12(a1)
    800042ae:	8e35                	xor	a2,a2,a3
    800042b0:	fec58a23          	sb	a2,-12(a1)
    800042b4:	000b3583          	ld	a1,0(s6)
    800042b8:	044a0603          	lb	a2,68(s4)
    800042bc:	95aa                	add	a1,a1,a0
    800042be:	ff558683          	lb	a3,-11(a1)
    800042c2:	8e35                	xor	a2,a2,a3
    800042c4:	fec58aa3          	sb	a2,-11(a1)
    800042c8:	000b3583          	ld	a1,0(s6)
    800042cc:	045a0603          	lb	a2,69(s4)
    800042d0:	95aa                	add	a1,a1,a0
    800042d2:	ff658683          	lb	a3,-10(a1)
    800042d6:	8e35                	xor	a2,a2,a3
    800042d8:	fec58b23          	sb	a2,-10(a1)
    800042dc:	000b3583          	ld	a1,0(s6)
    800042e0:	046a0603          	lb	a2,70(s4)
    800042e4:	95aa                	add	a1,a1,a0
    800042e6:	ff758683          	lb	a3,-9(a1)
    800042ea:	8e35                	xor	a2,a2,a3
    800042ec:	fec58ba3          	sb	a2,-9(a1)
    800042f0:	000b3583          	ld	a1,0(s6)
    800042f4:	047a0603          	lb	a2,71(s4)
    800042f8:	95aa                	add	a1,a1,a0
    800042fa:	ff858683          	lb	a3,-8(a1)
    800042fe:	8e35                	xor	a2,a2,a3
    80004300:	fec58c23          	sb	a2,-8(a1)
    80004304:	000b3583          	ld	a1,0(s6)
    80004308:	048a0603          	lb	a2,72(s4)
    8000430c:	95aa                	add	a1,a1,a0
    8000430e:	ff958683          	lb	a3,-7(a1)
    80004312:	8e35                	xor	a2,a2,a3
    80004314:	fec58ca3          	sb	a2,-7(a1)
    80004318:	000b3583          	ld	a1,0(s6)
    8000431c:	049a0603          	lb	a2,73(s4)
    80004320:	95aa                	add	a1,a1,a0
    80004322:	ffa58683          	lb	a3,-6(a1)
    80004326:	8e35                	xor	a2,a2,a3
    80004328:	fec58d23          	sb	a2,-6(a1)
    8000432c:	000b3583          	ld	a1,0(s6)
    80004330:	04aa0603          	lb	a2,74(s4)
    80004334:	95aa                	add	a1,a1,a0
    80004336:	ffb58683          	lb	a3,-5(a1)
    8000433a:	8e35                	xor	a2,a2,a3
    8000433c:	fec58da3          	sb	a2,-5(a1)
    80004340:	000b3583          	ld	a1,0(s6)
    80004344:	04ba0603          	lb	a2,75(s4)
    80004348:	95aa                	add	a1,a1,a0
    8000434a:	ffc58683          	lb	a3,-4(a1)
    8000434e:	8e35                	xor	a2,a2,a3
    80004350:	fec58e23          	sb	a2,-4(a1)
    80004354:	000b3583          	ld	a1,0(s6)
    80004358:	04ca0603          	lb	a2,76(s4)
    8000435c:	95aa                	add	a1,a1,a0
    8000435e:	ffd58683          	lb	a3,-3(a1)
    80004362:	8e35                	xor	a2,a2,a3
    80004364:	fec58ea3          	sb	a2,-3(a1)
    80004368:	000b3583          	ld	a1,0(s6)
    8000436c:	04da0603          	lb	a2,77(s4)
    80004370:	95aa                	add	a1,a1,a0
    80004372:	ffe58683          	lb	a3,-2(a1)
    80004376:	8e35                	xor	a2,a2,a3
    80004378:	fec58f23          	sb	a2,-2(a1)
    8000437c:	000b3583          	ld	a1,0(s6)
    80004380:	04ea0603          	lb	a2,78(s4)
    80004384:	95aa                	add	a1,a1,a0
    80004386:	fff58683          	lb	a3,-1(a1)
    8000438a:	8e35                	xor	a2,a2,a3
    8000438c:	fec58fa3          	sb	a2,-1(a1)
    80004390:	000b3583          	ld	a1,0(s6)
    80004394:	04fa0603          	lb	a2,79(s4)
    80004398:	95aa                	add	a1,a1,a0
    8000439a:	00058683          	lb	a3,0(a1)
    8000439e:	8e35                	xor	a2,a2,a3
    800043a0:	00c58023          	sb	a2,0(a1)
    800043a4:	1d7d                	addi	s10,s10,-1
    800043a6:	0541                	addi	a0,a0,16
    800043a8:	ea0d1ee3          	bnez	s10,80004264 <AES_Encrypt+0x114a>
    800043ac:	4541                	li	a0,16
    800043ae:	65a2                	ld	a1,8(sp)
    800043b0:	6ac2                	ld	s5,16(sp)
    800043b2:	00a5d463          	bge	a1,a0,800043ba <AES_Encrypt+0x12a0>
    800043b6:	1850106f          	j	80005d3a <AES_Encrypt+0x2c20>
    800043ba:	6562                	ld	a0,24(sp)
    800043bc:	02055d13          	srli	s10,a0,0x20
    800043c0:	000ab503          	ld	a0,0(s5)
    800043c4:	fffd0413          	addi	s0,s10,-1
    800043c8:	02000493          	li	s1,32
    800043cc:	4905                	li	s2,1
    800043ce:	4989                	li	s3,2
    800043d0:	5bfd                	li	s7,-1
    800043d2:	9526                	add	a0,a0,s1
    800043d4:	fe053583          	ld	a1,-32(a0)
    800043d8:	fe853503          	ld	a0,-24(a0)
    800043dc:	34b13423          	sd	a1,840(sp)
    800043e0:	34a13823          	sd	a0,848(sp)
    800043e4:	06a8                	addi	a0,sp,840
    800043e6:	102c                	addi	a1,sp,40
    800043e8:	c2dfd0ef          	jal	80002014 <Impl_SBOX>
    800043ec:	000ab503          	ld	a0,0(s5)
    800043f0:	75a2                	ld	a1,40(sp)
    800043f2:	9526                	add	a0,a0,s1
    800043f4:	feb53023          	sd	a1,-32(a0)
    800043f8:	75c2                	ld	a1,48(sp)
    800043fa:	feb53423          	sd	a1,-24(a0)
    800043fe:	c051                	beqz	s0,80004482 <AES_Encrypt+0x1368>
    80004400:	ff053583          	ld	a1,-16(a0)
    80004404:	ff853503          	ld	a0,-8(a0)
    80004408:	34b13423          	sd	a1,840(sp)
    8000440c:	34a13823          	sd	a0,848(sp)
    80004410:	06a8                	addi	a0,sp,840
    80004412:	102c                	addi	a1,sp,40
    80004414:	c01fd0ef          	jal	80002014 <Impl_SBOX>
    80004418:	000ab503          	ld	a0,0(s5)
    8000441c:	75a2                	ld	a1,40(sp)
    8000441e:	9526                	add	a0,a0,s1
    80004420:	feb53823          	sd	a1,-16(a0)
    80004424:	75c2                	ld	a1,48(sp)
    80004426:	feb53c23          	sd	a1,-8(a0)
    8000442a:	05240c63          	beq	s0,s2,80004482 <AES_Encrypt+0x1368>
    8000442e:	610c                	ld	a1,0(a0)
    80004430:	6508                	ld	a0,8(a0)
    80004432:	34b13423          	sd	a1,840(sp)
    80004436:	34a13823          	sd	a0,848(sp)
    8000443a:	06a8                	addi	a0,sp,840
    8000443c:	102c                	addi	a1,sp,40
    8000443e:	bd7fd0ef          	jal	80002014 <Impl_SBOX>
    80004442:	000ab503          	ld	a0,0(s5)
    80004446:	75a2                	ld	a1,40(sp)
    80004448:	9526                	add	a0,a0,s1
    8000444a:	e10c                	sd	a1,0(a0)
    8000444c:	75c2                	ld	a1,48(sp)
    8000444e:	e50c                	sd	a1,8(a0)
    80004450:	03340963          	beq	s0,s3,80004482 <AES_Encrypt+0x1368>
    80004454:	690c                	ld	a1,16(a0)
    80004456:	6d08                	ld	a0,24(a0)
    80004458:	34b13423          	sd	a1,840(sp)
    8000445c:	34a13823          	sd	a0,848(sp)
    80004460:	06a8                	addi	a0,sp,840
    80004462:	102c                	addi	a1,sp,40
    80004464:	bb1fd0ef          	jal	80002014 <Impl_SBOX>
    80004468:	000ab503          	ld	a0,0(s5)
    8000446c:	75a2                	ld	a1,40(sp)
    8000446e:	00950633          	add	a2,a0,s1
    80004472:	ea0c                	sd	a1,16(a2)
    80004474:	75c2                	ld	a1,48(sp)
    80004476:	ee0c                	sd	a1,24(a2)
    80004478:	1471                	addi	s0,s0,-4
    8000447a:	04048493          	addi	s1,s1,64
    8000447e:	f5741ae3          	bne	s0,s7,800043d2 <AES_Encrypt+0x12b8>
    80004482:	4541                	li	a0,16
    80004484:	65a2                	ld	a1,8(sp)
    80004486:	00a5d463          	bge	a1,a0,8000448e <AES_Encrypt+0x1374>
    8000448a:	0b10106f          	j	80005d3a <AES_Encrypt+0x2c20>
    8000448e:	000ab503          	ld	a0,0(s5)
    80004492:	fffd0913          	addi	s2,s10,-1
    80004496:	02050493          	addi	s1,a0,32
    8000449a:	4b85                	li	s7,1
    8000449c:	4989                	li	s3,2
    8000449e:	5dfd                	li	s11,-1
    800044a0:	fe04ba83          	ld	s5,-32(s1)
    800044a4:	fe84b403          	ld	s0,-24(s1)
    800044a8:	d802                	sw	zero,48(sp)
    800044aa:	f402                	sd	zero,40(sp)
    800044ac:	420ad513          	srai	a0,s5,0x20
    800044b0:	102c                	addi	a1,sp,40
    800044b2:	d87fd0ef          	jal	80002238 <gmul_>
    800044b6:	0004051b          	sext.w	a0,s0
    800044ba:	106c                	addi	a1,sp,44
    800044bc:	d7dfd0ef          	jal	80002238 <gmul_>
    800044c0:	42045513          	srai	a0,s0,0x20
    800044c4:	180c                	addi	a1,sp,48
    800044c6:	d73fd0ef          	jal	80002238 <gmul_>
    800044ca:	5522                	lw	a0,40(sp)
    800044cc:	7582                	ld	a1,32(sp)
    800044ce:	00baf5b3          	and	a1,s5,a1
    800044d2:	1502                	slli	a0,a0,0x20
    800044d4:	8d4d                	or	a0,a0,a1
    800044d6:	55c2                	lw	a1,48(sp)
    800044d8:	02c16603          	lwu	a2,44(sp)
    800044dc:	1582                	slli	a1,a1,0x20
    800044de:	8dd1                	or	a1,a1,a2
    800044e0:	fea4b023          	sd	a0,-32(s1)
    800044e4:	feb4b423          	sd	a1,-24(s1)
    800044e8:	0e090163          	beqz	s2,800045ca <AES_Encrypt+0x14b0>
    800044ec:	ff04ba83          	ld	s5,-16(s1)
    800044f0:	ff84b403          	ld	s0,-8(s1)
    800044f4:	d802                	sw	zero,48(sp)
    800044f6:	f402                	sd	zero,40(sp)
    800044f8:	420ad513          	srai	a0,s5,0x20
    800044fc:	102c                	addi	a1,sp,40
    800044fe:	d3bfd0ef          	jal	80002238 <gmul_>
    80004502:	0004051b          	sext.w	a0,s0
    80004506:	106c                	addi	a1,sp,44
    80004508:	d31fd0ef          	jal	80002238 <gmul_>
    8000450c:	42045513          	srai	a0,s0,0x20
    80004510:	180c                	addi	a1,sp,48
    80004512:	d27fd0ef          	jal	80002238 <gmul_>
    80004516:	5522                	lw	a0,40(sp)
    80004518:	7582                	ld	a1,32(sp)
    8000451a:	00baf5b3          	and	a1,s5,a1
    8000451e:	1502                	slli	a0,a0,0x20
    80004520:	8d4d                	or	a0,a0,a1
    80004522:	55c2                	lw	a1,48(sp)
    80004524:	02c16603          	lwu	a2,44(sp)
    80004528:	1582                	slli	a1,a1,0x20
    8000452a:	8dd1                	or	a1,a1,a2
    8000452c:	fea4b823          	sd	a0,-16(s1)
    80004530:	feb4bc23          	sd	a1,-8(s1)
    80004534:	09790b63          	beq	s2,s7,800045ca <AES_Encrypt+0x14b0>
    80004538:	0004ba83          	ld	s5,0(s1)
    8000453c:	6480                	ld	s0,8(s1)
    8000453e:	d802                	sw	zero,48(sp)
    80004540:	f402                	sd	zero,40(sp)
    80004542:	420ad513          	srai	a0,s5,0x20
    80004546:	102c                	addi	a1,sp,40
    80004548:	cf1fd0ef          	jal	80002238 <gmul_>
    8000454c:	0004051b          	sext.w	a0,s0
    80004550:	106c                	addi	a1,sp,44
    80004552:	ce7fd0ef          	jal	80002238 <gmul_>
    80004556:	42045513          	srai	a0,s0,0x20
    8000455a:	180c                	addi	a1,sp,48
    8000455c:	cddfd0ef          	jal	80002238 <gmul_>
    80004560:	5522                	lw	a0,40(sp)
    80004562:	7582                	ld	a1,32(sp)
    80004564:	00baf5b3          	and	a1,s5,a1
    80004568:	1502                	slli	a0,a0,0x20
    8000456a:	8d4d                	or	a0,a0,a1
    8000456c:	55c2                	lw	a1,48(sp)
    8000456e:	02c16603          	lwu	a2,44(sp)
    80004572:	1582                	slli	a1,a1,0x20
    80004574:	8dd1                	or	a1,a1,a2
    80004576:	e088                	sd	a0,0(s1)
    80004578:	e48c                	sd	a1,8(s1)
    8000457a:	05390863          	beq	s2,s3,800045ca <AES_Encrypt+0x14b0>
    8000457e:	0104ba83          	ld	s5,16(s1)
    80004582:	6c80                	ld	s0,24(s1)
    80004584:	d802                	sw	zero,48(sp)
    80004586:	f402                	sd	zero,40(sp)
    80004588:	420ad513          	srai	a0,s5,0x20
    8000458c:	102c                	addi	a1,sp,40
    8000458e:	cabfd0ef          	jal	80002238 <gmul_>
    80004592:	0004051b          	sext.w	a0,s0
    80004596:	106c                	addi	a1,sp,44
    80004598:	ca1fd0ef          	jal	80002238 <gmul_>
    8000459c:	42045513          	srai	a0,s0,0x20
    800045a0:	180c                	addi	a1,sp,48
    800045a2:	c97fd0ef          	jal	80002238 <gmul_>
    800045a6:	5522                	lw	a0,40(sp)
    800045a8:	7582                	ld	a1,32(sp)
    800045aa:	00baf5b3          	and	a1,s5,a1
    800045ae:	1502                	slli	a0,a0,0x20
    800045b0:	8d4d                	or	a0,a0,a1
    800045b2:	55c2                	lw	a1,48(sp)
    800045b4:	02c16603          	lwu	a2,44(sp)
    800045b8:	1582                	slli	a1,a1,0x20
    800045ba:	8dd1                	or	a1,a1,a2
    800045bc:	e888                	sd	a0,16(s1)
    800045be:	ec8c                	sd	a1,24(s1)
    800045c0:	1971                	addi	s2,s2,-4
    800045c2:	04048493          	addi	s1,s1,64
    800045c6:	edb91de3          	bne	s2,s11,800044a0 <AES_Encrypt+0x1386>
    800045ca:	4541                	li	a0,16
    800045cc:	65a2                	ld	a1,8(sp)
    800045ce:	6642                	ld	a2,16(sp)
    800045d0:	00a5d463          	bge	a1,a0,800045d8 <AES_Encrypt+0x14be>
    800045d4:	7660106f          	j	80005d3a <AES_Encrypt+0x2c20>
    800045d8:	6208                	ld	a0,0(a2)
    800045da:	fffd0413          	addi	s0,s10,-1
    800045de:	02050493          	addi	s1,a0,32
    800045e2:	4905                	li	s2,1
    800045e4:	4989                	li	s3,2
    800045e6:	5bfd                	li	s7,-1
    800045e8:	fe04b503          	ld	a0,-32(s1)
    800045ec:	fe84b583          	ld	a1,-24(s1)
    800045f0:	34a13423          	sd	a0,840(sp)
    800045f4:	34b13823          	sd	a1,848(sp)
    800045f8:	06a8                	addi	a0,sp,840
    800045fa:	102c                	addi	a1,sp,40
    800045fc:	92cfe0ef          	jal	80002728 <Impl_ShiftRows>
    80004600:	7522                	ld	a0,40(sp)
    80004602:	fea4b023          	sd	a0,-32(s1)
    80004606:	7542                	ld	a0,48(sp)
    80004608:	fea4b423          	sd	a0,-24(s1)
    8000460c:	c825                	beqz	s0,8000467c <AES_Encrypt+0x1562>
    8000460e:	ff04b503          	ld	a0,-16(s1)
    80004612:	ff84b583          	ld	a1,-8(s1)
    80004616:	34a13423          	sd	a0,840(sp)
    8000461a:	34b13823          	sd	a1,848(sp)
    8000461e:	06a8                	addi	a0,sp,840
    80004620:	102c                	addi	a1,sp,40
    80004622:	906fe0ef          	jal	80002728 <Impl_ShiftRows>
    80004626:	7522                	ld	a0,40(sp)
    80004628:	fea4b823          	sd	a0,-16(s1)
    8000462c:	7542                	ld	a0,48(sp)
    8000462e:	fea4bc23          	sd	a0,-8(s1)
    80004632:	05240563          	beq	s0,s2,8000467c <AES_Encrypt+0x1562>
    80004636:	6088                	ld	a0,0(s1)
    80004638:	648c                	ld	a1,8(s1)
    8000463a:	34a13423          	sd	a0,840(sp)
    8000463e:	34b13823          	sd	a1,848(sp)
    80004642:	06a8                	addi	a0,sp,840
    80004644:	102c                	addi	a1,sp,40
    80004646:	8e2fe0ef          	jal	80002728 <Impl_ShiftRows>
    8000464a:	7522                	ld	a0,40(sp)
    8000464c:	e088                	sd	a0,0(s1)
    8000464e:	7542                	ld	a0,48(sp)
    80004650:	e488                	sd	a0,8(s1)
    80004652:	03340563          	beq	s0,s3,8000467c <AES_Encrypt+0x1562>
    80004656:	6888                	ld	a0,16(s1)
    80004658:	6c8c                	ld	a1,24(s1)
    8000465a:	34a13423          	sd	a0,840(sp)
    8000465e:	34b13823          	sd	a1,848(sp)
    80004662:	06a8                	addi	a0,sp,840
    80004664:	102c                	addi	a1,sp,40
    80004666:	8c2fe0ef          	jal	80002728 <Impl_ShiftRows>
    8000466a:	7522                	ld	a0,40(sp)
    8000466c:	e888                	sd	a0,16(s1)
    8000466e:	7542                	ld	a0,48(sp)
    80004670:	ec88                	sd	a0,24(s1)
    80004672:	1471                	addi	s0,s0,-4
    80004674:	04048493          	addi	s1,s1,64
    80004678:	f77418e3          	bne	s0,s7,800045e8 <AES_Encrypt+0x14ce>
    8000467c:	4541                	li	a0,16
    8000467e:	65a2                	ld	a1,8(sp)
    80004680:	00a5d463          	bge	a1,a0,80004688 <AES_Encrypt+0x156e>
    80004684:	6b60106f          	j	80005d3a <AES_Encrypt+0x2c20>
    80004688:	453d                	li	a0,15
    8000468a:	000b3583          	ld	a1,0(s6)
    8000468e:	050a0603          	lb	a2,80(s4)
    80004692:	95aa                	add	a1,a1,a0
    80004694:	ff158683          	lb	a3,-15(a1)
    80004698:	8e35                	xor	a2,a2,a3
    8000469a:	fec588a3          	sb	a2,-15(a1)
    8000469e:	000b3583          	ld	a1,0(s6)
    800046a2:	051a0603          	lb	a2,81(s4)
    800046a6:	95aa                	add	a1,a1,a0
    800046a8:	ff258683          	lb	a3,-14(a1)
    800046ac:	8e35                	xor	a2,a2,a3
    800046ae:	fec58923          	sb	a2,-14(a1)
    800046b2:	000b3583          	ld	a1,0(s6)
    800046b6:	052a0603          	lb	a2,82(s4)
    800046ba:	95aa                	add	a1,a1,a0
    800046bc:	ff358683          	lb	a3,-13(a1)
    800046c0:	8e35                	xor	a2,a2,a3
    800046c2:	fec589a3          	sb	a2,-13(a1)
    800046c6:	000b3583          	ld	a1,0(s6)
    800046ca:	053a0603          	lb	a2,83(s4)
    800046ce:	95aa                	add	a1,a1,a0
    800046d0:	ff458683          	lb	a3,-12(a1)
    800046d4:	8e35                	xor	a2,a2,a3
    800046d6:	fec58a23          	sb	a2,-12(a1)
    800046da:	000b3583          	ld	a1,0(s6)
    800046de:	054a0603          	lb	a2,84(s4)
    800046e2:	95aa                	add	a1,a1,a0
    800046e4:	ff558683          	lb	a3,-11(a1)
    800046e8:	8e35                	xor	a2,a2,a3
    800046ea:	fec58aa3          	sb	a2,-11(a1)
    800046ee:	000b3583          	ld	a1,0(s6)
    800046f2:	055a0603          	lb	a2,85(s4)
    800046f6:	95aa                	add	a1,a1,a0
    800046f8:	ff658683          	lb	a3,-10(a1)
    800046fc:	8e35                	xor	a2,a2,a3
    800046fe:	fec58b23          	sb	a2,-10(a1)
    80004702:	000b3583          	ld	a1,0(s6)
    80004706:	056a0603          	lb	a2,86(s4)
    8000470a:	95aa                	add	a1,a1,a0
    8000470c:	ff758683          	lb	a3,-9(a1)
    80004710:	8e35                	xor	a2,a2,a3
    80004712:	fec58ba3          	sb	a2,-9(a1)
    80004716:	000b3583          	ld	a1,0(s6)
    8000471a:	057a0603          	lb	a2,87(s4)
    8000471e:	95aa                	add	a1,a1,a0
    80004720:	ff858683          	lb	a3,-8(a1)
    80004724:	8e35                	xor	a2,a2,a3
    80004726:	fec58c23          	sb	a2,-8(a1)
    8000472a:	000b3583          	ld	a1,0(s6)
    8000472e:	058a0603          	lb	a2,88(s4)
    80004732:	95aa                	add	a1,a1,a0
    80004734:	ff958683          	lb	a3,-7(a1)
    80004738:	8e35                	xor	a2,a2,a3
    8000473a:	fec58ca3          	sb	a2,-7(a1)
    8000473e:	000b3583          	ld	a1,0(s6)
    80004742:	059a0603          	lb	a2,89(s4)
    80004746:	95aa                	add	a1,a1,a0
    80004748:	ffa58683          	lb	a3,-6(a1)
    8000474c:	8e35                	xor	a2,a2,a3
    8000474e:	fec58d23          	sb	a2,-6(a1)
    80004752:	000b3583          	ld	a1,0(s6)
    80004756:	05aa0603          	lb	a2,90(s4)
    8000475a:	95aa                	add	a1,a1,a0
    8000475c:	ffb58683          	lb	a3,-5(a1)
    80004760:	8e35                	xor	a2,a2,a3
    80004762:	fec58da3          	sb	a2,-5(a1)
    80004766:	000b3583          	ld	a1,0(s6)
    8000476a:	05ba0603          	lb	a2,91(s4)
    8000476e:	95aa                	add	a1,a1,a0
    80004770:	ffc58683          	lb	a3,-4(a1)
    80004774:	8e35                	xor	a2,a2,a3
    80004776:	fec58e23          	sb	a2,-4(a1)
    8000477a:	000b3583          	ld	a1,0(s6)
    8000477e:	05ca0603          	lb	a2,92(s4)
    80004782:	95aa                	add	a1,a1,a0
    80004784:	ffd58683          	lb	a3,-3(a1)
    80004788:	8e35                	xor	a2,a2,a3
    8000478a:	fec58ea3          	sb	a2,-3(a1)
    8000478e:	000b3583          	ld	a1,0(s6)
    80004792:	05da0603          	lb	a2,93(s4)
    80004796:	95aa                	add	a1,a1,a0
    80004798:	ffe58683          	lb	a3,-2(a1)
    8000479c:	8e35                	xor	a2,a2,a3
    8000479e:	fec58f23          	sb	a2,-2(a1)
    800047a2:	000b3583          	ld	a1,0(s6)
    800047a6:	05ea0603          	lb	a2,94(s4)
    800047aa:	95aa                	add	a1,a1,a0
    800047ac:	fff58683          	lb	a3,-1(a1)
    800047b0:	8e35                	xor	a2,a2,a3
    800047b2:	fec58fa3          	sb	a2,-1(a1)
    800047b6:	000b3583          	ld	a1,0(s6)
    800047ba:	05fa0603          	lb	a2,95(s4)
    800047be:	95aa                	add	a1,a1,a0
    800047c0:	00058683          	lb	a3,0(a1)
    800047c4:	8e35                	xor	a2,a2,a3
    800047c6:	00c58023          	sb	a2,0(a1)
    800047ca:	1d7d                	addi	s10,s10,-1
    800047cc:	0541                	addi	a0,a0,16
    800047ce:	ea0d1ee3          	bnez	s10,8000468a <AES_Encrypt+0x1570>
    800047d2:	4541                	li	a0,16
    800047d4:	65a2                	ld	a1,8(sp)
    800047d6:	6642                	ld	a2,16(sp)
    800047d8:	00a5d463          	bge	a1,a0,800047e0 <AES_Encrypt+0x16c6>
    800047dc:	55e0106f          	j	80005d3a <AES_Encrypt+0x2c20>
    800047e0:	6562                	ld	a0,24(sp)
    800047e2:	02055d13          	srli	s10,a0,0x20
    800047e6:	6208                	ld	a0,0(a2)
    800047e8:	fffd0413          	addi	s0,s10,-1
    800047ec:	02000493          	li	s1,32
    800047f0:	4905                	li	s2,1
    800047f2:	4989                	li	s3,2
    800047f4:	5bfd                	li	s7,-1
    800047f6:	9526                	add	a0,a0,s1
    800047f8:	fe053583          	ld	a1,-32(a0)
    800047fc:	fe853503          	ld	a0,-24(a0)
    80004800:	34b13423          	sd	a1,840(sp)
    80004804:	34a13823          	sd	a0,848(sp)
    80004808:	06a8                	addi	a0,sp,840
    8000480a:	102c                	addi	a1,sp,40
    8000480c:	809fd0ef          	jal	80002014 <Impl_SBOX>
    80004810:	6542                	ld	a0,16(sp)
    80004812:	6108                	ld	a0,0(a0)
    80004814:	75a2                	ld	a1,40(sp)
    80004816:	9526                	add	a0,a0,s1
    80004818:	feb53023          	sd	a1,-32(a0)
    8000481c:	75c2                	ld	a1,48(sp)
    8000481e:	feb53423          	sd	a1,-24(a0)
    80004822:	c051                	beqz	s0,800048a6 <AES_Encrypt+0x178c>
    80004824:	ff053583          	ld	a1,-16(a0)
    80004828:	ff853503          	ld	a0,-8(a0)
    8000482c:	34b13423          	sd	a1,840(sp)
    80004830:	34a13823          	sd	a0,848(sp)
    80004834:	06a8                	addi	a0,sp,840
    80004836:	102c                	addi	a1,sp,40
    80004838:	fdcfd0ef          	jal	80002014 <Impl_SBOX>
    8000483c:	6542                	ld	a0,16(sp)
    8000483e:	6108                	ld	a0,0(a0)
    80004840:	75a2                	ld	a1,40(sp)
    80004842:	9526                	add	a0,a0,s1
    80004844:	feb53823          	sd	a1,-16(a0)
    80004848:	75c2                	ld	a1,48(sp)
    8000484a:	feb53c23          	sd	a1,-8(a0)
    8000484e:	05240c63          	beq	s0,s2,800048a6 <AES_Encrypt+0x178c>
    80004852:	610c                	ld	a1,0(a0)
    80004854:	6508                	ld	a0,8(a0)
    80004856:	34b13423          	sd	a1,840(sp)
    8000485a:	34a13823          	sd	a0,848(sp)
    8000485e:	06a8                	addi	a0,sp,840
    80004860:	102c                	addi	a1,sp,40
    80004862:	fb2fd0ef          	jal	80002014 <Impl_SBOX>
    80004866:	6542                	ld	a0,16(sp)
    80004868:	6108                	ld	a0,0(a0)
    8000486a:	75a2                	ld	a1,40(sp)
    8000486c:	9526                	add	a0,a0,s1
    8000486e:	e10c                	sd	a1,0(a0)
    80004870:	75c2                	ld	a1,48(sp)
    80004872:	e50c                	sd	a1,8(a0)
    80004874:	03340963          	beq	s0,s3,800048a6 <AES_Encrypt+0x178c>
    80004878:	690c                	ld	a1,16(a0)
    8000487a:	6d08                	ld	a0,24(a0)
    8000487c:	34b13423          	sd	a1,840(sp)
    80004880:	34a13823          	sd	a0,848(sp)
    80004884:	06a8                	addi	a0,sp,840
    80004886:	102c                	addi	a1,sp,40
    80004888:	f8cfd0ef          	jal	80002014 <Impl_SBOX>
    8000488c:	6542                	ld	a0,16(sp)
    8000488e:	6108                	ld	a0,0(a0)
    80004890:	75a2                	ld	a1,40(sp)
    80004892:	00950633          	add	a2,a0,s1
    80004896:	ea0c                	sd	a1,16(a2)
    80004898:	75c2                	ld	a1,48(sp)
    8000489a:	ee0c                	sd	a1,24(a2)
    8000489c:	1471                	addi	s0,s0,-4
    8000489e:	04048493          	addi	s1,s1,64
    800048a2:	f5741ae3          	bne	s0,s7,800047f6 <AES_Encrypt+0x16dc>
    800048a6:	4541                	li	a0,16
    800048a8:	65a2                	ld	a1,8(sp)
    800048aa:	6642                	ld	a2,16(sp)
    800048ac:	00a5d463          	bge	a1,a0,800048b4 <AES_Encrypt+0x179a>
    800048b0:	48a0106f          	j	80005d3a <AES_Encrypt+0x2c20>
    800048b4:	6208                	ld	a0,0(a2)
    800048b6:	fffd0913          	addi	s2,s10,-1
    800048ba:	02050493          	addi	s1,a0,32
    800048be:	4b85                	li	s7,1
    800048c0:	4989                	li	s3,2
    800048c2:	5dfd                	li	s11,-1
    800048c4:	fe04ba83          	ld	s5,-32(s1)
    800048c8:	fe84b403          	ld	s0,-24(s1)
    800048cc:	d802                	sw	zero,48(sp)
    800048ce:	f402                	sd	zero,40(sp)
    800048d0:	420ad513          	srai	a0,s5,0x20
    800048d4:	102c                	addi	a1,sp,40
    800048d6:	963fd0ef          	jal	80002238 <gmul_>
    800048da:	0004051b          	sext.w	a0,s0
    800048de:	106c                	addi	a1,sp,44
    800048e0:	959fd0ef          	jal	80002238 <gmul_>
    800048e4:	42045513          	srai	a0,s0,0x20
    800048e8:	180c                	addi	a1,sp,48
    800048ea:	94ffd0ef          	jal	80002238 <gmul_>
    800048ee:	5522                	lw	a0,40(sp)
    800048f0:	7582                	ld	a1,32(sp)
    800048f2:	00baf5b3          	and	a1,s5,a1
    800048f6:	1502                	slli	a0,a0,0x20
    800048f8:	8d4d                	or	a0,a0,a1
    800048fa:	55c2                	lw	a1,48(sp)
    800048fc:	02c16603          	lwu	a2,44(sp)
    80004900:	1582                	slli	a1,a1,0x20
    80004902:	8dd1                	or	a1,a1,a2
    80004904:	fea4b023          	sd	a0,-32(s1)
    80004908:	feb4b423          	sd	a1,-24(s1)
    8000490c:	0e090163          	beqz	s2,800049ee <AES_Encrypt+0x18d4>
    80004910:	ff04ba83          	ld	s5,-16(s1)
    80004914:	ff84b403          	ld	s0,-8(s1)
    80004918:	d802                	sw	zero,48(sp)
    8000491a:	f402                	sd	zero,40(sp)
    8000491c:	420ad513          	srai	a0,s5,0x20
    80004920:	102c                	addi	a1,sp,40
    80004922:	917fd0ef          	jal	80002238 <gmul_>
    80004926:	0004051b          	sext.w	a0,s0
    8000492a:	106c                	addi	a1,sp,44
    8000492c:	90dfd0ef          	jal	80002238 <gmul_>
    80004930:	42045513          	srai	a0,s0,0x20
    80004934:	180c                	addi	a1,sp,48
    80004936:	903fd0ef          	jal	80002238 <gmul_>
    8000493a:	5522                	lw	a0,40(sp)
    8000493c:	7582                	ld	a1,32(sp)
    8000493e:	00baf5b3          	and	a1,s5,a1
    80004942:	1502                	slli	a0,a0,0x20
    80004944:	8d4d                	or	a0,a0,a1
    80004946:	55c2                	lw	a1,48(sp)
    80004948:	02c16603          	lwu	a2,44(sp)
    8000494c:	1582                	slli	a1,a1,0x20
    8000494e:	8dd1                	or	a1,a1,a2
    80004950:	fea4b823          	sd	a0,-16(s1)
    80004954:	feb4bc23          	sd	a1,-8(s1)
    80004958:	09790b63          	beq	s2,s7,800049ee <AES_Encrypt+0x18d4>
    8000495c:	0004ba83          	ld	s5,0(s1)
    80004960:	6480                	ld	s0,8(s1)
    80004962:	d802                	sw	zero,48(sp)
    80004964:	f402                	sd	zero,40(sp)
    80004966:	420ad513          	srai	a0,s5,0x20
    8000496a:	102c                	addi	a1,sp,40
    8000496c:	8cdfd0ef          	jal	80002238 <gmul_>
    80004970:	0004051b          	sext.w	a0,s0
    80004974:	106c                	addi	a1,sp,44
    80004976:	8c3fd0ef          	jal	80002238 <gmul_>
    8000497a:	42045513          	srai	a0,s0,0x20
    8000497e:	180c                	addi	a1,sp,48
    80004980:	8b9fd0ef          	jal	80002238 <gmul_>
    80004984:	5522                	lw	a0,40(sp)
    80004986:	7582                	ld	a1,32(sp)
    80004988:	00baf5b3          	and	a1,s5,a1
    8000498c:	1502                	slli	a0,a0,0x20
    8000498e:	8d4d                	or	a0,a0,a1
    80004990:	55c2                	lw	a1,48(sp)
    80004992:	02c16603          	lwu	a2,44(sp)
    80004996:	1582                	slli	a1,a1,0x20
    80004998:	8dd1                	or	a1,a1,a2
    8000499a:	e088                	sd	a0,0(s1)
    8000499c:	e48c                	sd	a1,8(s1)
    8000499e:	05390863          	beq	s2,s3,800049ee <AES_Encrypt+0x18d4>
    800049a2:	0104ba83          	ld	s5,16(s1)
    800049a6:	6c80                	ld	s0,24(s1)
    800049a8:	d802                	sw	zero,48(sp)
    800049aa:	f402                	sd	zero,40(sp)
    800049ac:	420ad513          	srai	a0,s5,0x20
    800049b0:	102c                	addi	a1,sp,40
    800049b2:	887fd0ef          	jal	80002238 <gmul_>
    800049b6:	0004051b          	sext.w	a0,s0
    800049ba:	106c                	addi	a1,sp,44
    800049bc:	87dfd0ef          	jal	80002238 <gmul_>
    800049c0:	42045513          	srai	a0,s0,0x20
    800049c4:	180c                	addi	a1,sp,48
    800049c6:	873fd0ef          	jal	80002238 <gmul_>
    800049ca:	5522                	lw	a0,40(sp)
    800049cc:	7582                	ld	a1,32(sp)
    800049ce:	00baf5b3          	and	a1,s5,a1
    800049d2:	1502                	slli	a0,a0,0x20
    800049d4:	8d4d                	or	a0,a0,a1
    800049d6:	55c2                	lw	a1,48(sp)
    800049d8:	02c16603          	lwu	a2,44(sp)
    800049dc:	1582                	slli	a1,a1,0x20
    800049de:	8dd1                	or	a1,a1,a2
    800049e0:	e888                	sd	a0,16(s1)
    800049e2:	ec8c                	sd	a1,24(s1)
    800049e4:	1971                	addi	s2,s2,-4
    800049e6:	04048493          	addi	s1,s1,64
    800049ea:	edb91de3          	bne	s2,s11,800048c4 <AES_Encrypt+0x17aa>
    800049ee:	4541                	li	a0,16
    800049f0:	65a2                	ld	a1,8(sp)
    800049f2:	6642                	ld	a2,16(sp)
    800049f4:	00a5d463          	bge	a1,a0,800049fc <AES_Encrypt+0x18e2>
    800049f8:	3420106f          	j	80005d3a <AES_Encrypt+0x2c20>
    800049fc:	6208                	ld	a0,0(a2)
    800049fe:	fffd0413          	addi	s0,s10,-1
    80004a02:	02050493          	addi	s1,a0,32
    80004a06:	4905                	li	s2,1
    80004a08:	4989                	li	s3,2
    80004a0a:	5bfd                	li	s7,-1
    80004a0c:	fe04b503          	ld	a0,-32(s1)
    80004a10:	fe84b583          	ld	a1,-24(s1)
    80004a14:	34a13423          	sd	a0,840(sp)
    80004a18:	34b13823          	sd	a1,848(sp)
    80004a1c:	06a8                	addi	a0,sp,840
    80004a1e:	102c                	addi	a1,sp,40
    80004a20:	d09fd0ef          	jal	80002728 <Impl_ShiftRows>
    80004a24:	7522                	ld	a0,40(sp)
    80004a26:	fea4b023          	sd	a0,-32(s1)
    80004a2a:	7542                	ld	a0,48(sp)
    80004a2c:	fea4b423          	sd	a0,-24(s1)
    80004a30:	c825                	beqz	s0,80004aa0 <AES_Encrypt+0x1986>
    80004a32:	ff04b503          	ld	a0,-16(s1)
    80004a36:	ff84b583          	ld	a1,-8(s1)
    80004a3a:	34a13423          	sd	a0,840(sp)
    80004a3e:	34b13823          	sd	a1,848(sp)
    80004a42:	06a8                	addi	a0,sp,840
    80004a44:	102c                	addi	a1,sp,40
    80004a46:	ce3fd0ef          	jal	80002728 <Impl_ShiftRows>
    80004a4a:	7522                	ld	a0,40(sp)
    80004a4c:	fea4b823          	sd	a0,-16(s1)
    80004a50:	7542                	ld	a0,48(sp)
    80004a52:	fea4bc23          	sd	a0,-8(s1)
    80004a56:	05240563          	beq	s0,s2,80004aa0 <AES_Encrypt+0x1986>
    80004a5a:	6088                	ld	a0,0(s1)
    80004a5c:	648c                	ld	a1,8(s1)
    80004a5e:	34a13423          	sd	a0,840(sp)
    80004a62:	34b13823          	sd	a1,848(sp)
    80004a66:	06a8                	addi	a0,sp,840
    80004a68:	102c                	addi	a1,sp,40
    80004a6a:	cbffd0ef          	jal	80002728 <Impl_ShiftRows>
    80004a6e:	7522                	ld	a0,40(sp)
    80004a70:	e088                	sd	a0,0(s1)
    80004a72:	7542                	ld	a0,48(sp)
    80004a74:	e488                	sd	a0,8(s1)
    80004a76:	03340563          	beq	s0,s3,80004aa0 <AES_Encrypt+0x1986>
    80004a7a:	6888                	ld	a0,16(s1)
    80004a7c:	6c8c                	ld	a1,24(s1)
    80004a7e:	34a13423          	sd	a0,840(sp)
    80004a82:	34b13823          	sd	a1,848(sp)
    80004a86:	06a8                	addi	a0,sp,840
    80004a88:	102c                	addi	a1,sp,40
    80004a8a:	c9ffd0ef          	jal	80002728 <Impl_ShiftRows>
    80004a8e:	7522                	ld	a0,40(sp)
    80004a90:	e888                	sd	a0,16(s1)
    80004a92:	7542                	ld	a0,48(sp)
    80004a94:	ec88                	sd	a0,24(s1)
    80004a96:	1471                	addi	s0,s0,-4
    80004a98:	04048493          	addi	s1,s1,64
    80004a9c:	f77418e3          	bne	s0,s7,80004a0c <AES_Encrypt+0x18f2>
    80004aa0:	4541                	li	a0,16
    80004aa2:	65a2                	ld	a1,8(sp)
    80004aa4:	00a5d463          	bge	a1,a0,80004aac <AES_Encrypt+0x1992>
    80004aa8:	2920106f          	j	80005d3a <AES_Encrypt+0x2c20>
    80004aac:	453d                	li	a0,15
    80004aae:	000b3583          	ld	a1,0(s6)
    80004ab2:	060a0603          	lb	a2,96(s4)
    80004ab6:	95aa                	add	a1,a1,a0
    80004ab8:	ff158683          	lb	a3,-15(a1)
    80004abc:	8e35                	xor	a2,a2,a3
    80004abe:	fec588a3          	sb	a2,-15(a1)
    80004ac2:	000b3583          	ld	a1,0(s6)
    80004ac6:	061a0603          	lb	a2,97(s4)
    80004aca:	95aa                	add	a1,a1,a0
    80004acc:	ff258683          	lb	a3,-14(a1)
    80004ad0:	8e35                	xor	a2,a2,a3
    80004ad2:	fec58923          	sb	a2,-14(a1)
    80004ad6:	000b3583          	ld	a1,0(s6)
    80004ada:	062a0603          	lb	a2,98(s4)
    80004ade:	95aa                	add	a1,a1,a0
    80004ae0:	ff358683          	lb	a3,-13(a1)
    80004ae4:	8e35                	xor	a2,a2,a3
    80004ae6:	fec589a3          	sb	a2,-13(a1)
    80004aea:	000b3583          	ld	a1,0(s6)
    80004aee:	063a0603          	lb	a2,99(s4)
    80004af2:	95aa                	add	a1,a1,a0
    80004af4:	ff458683          	lb	a3,-12(a1)
    80004af8:	8e35                	xor	a2,a2,a3
    80004afa:	fec58a23          	sb	a2,-12(a1)
    80004afe:	000b3583          	ld	a1,0(s6)
    80004b02:	064a0603          	lb	a2,100(s4)
    80004b06:	95aa                	add	a1,a1,a0
    80004b08:	ff558683          	lb	a3,-11(a1)
    80004b0c:	8e35                	xor	a2,a2,a3
    80004b0e:	fec58aa3          	sb	a2,-11(a1)
    80004b12:	000b3583          	ld	a1,0(s6)
    80004b16:	065a0603          	lb	a2,101(s4)
    80004b1a:	95aa                	add	a1,a1,a0
    80004b1c:	ff658683          	lb	a3,-10(a1)
    80004b20:	8e35                	xor	a2,a2,a3
    80004b22:	fec58b23          	sb	a2,-10(a1)
    80004b26:	000b3583          	ld	a1,0(s6)
    80004b2a:	066a0603          	lb	a2,102(s4)
    80004b2e:	95aa                	add	a1,a1,a0
    80004b30:	ff758683          	lb	a3,-9(a1)
    80004b34:	8e35                	xor	a2,a2,a3
    80004b36:	fec58ba3          	sb	a2,-9(a1)
    80004b3a:	000b3583          	ld	a1,0(s6)
    80004b3e:	067a0603          	lb	a2,103(s4)
    80004b42:	95aa                	add	a1,a1,a0
    80004b44:	ff858683          	lb	a3,-8(a1)
    80004b48:	8e35                	xor	a2,a2,a3
    80004b4a:	fec58c23          	sb	a2,-8(a1)
    80004b4e:	000b3583          	ld	a1,0(s6)
    80004b52:	068a0603          	lb	a2,104(s4)
    80004b56:	95aa                	add	a1,a1,a0
    80004b58:	ff958683          	lb	a3,-7(a1)
    80004b5c:	8e35                	xor	a2,a2,a3
    80004b5e:	fec58ca3          	sb	a2,-7(a1)
    80004b62:	000b3583          	ld	a1,0(s6)
    80004b66:	069a0603          	lb	a2,105(s4)
    80004b6a:	95aa                	add	a1,a1,a0
    80004b6c:	ffa58683          	lb	a3,-6(a1)
    80004b70:	8e35                	xor	a2,a2,a3
    80004b72:	fec58d23          	sb	a2,-6(a1)
    80004b76:	000b3583          	ld	a1,0(s6)
    80004b7a:	06aa0603          	lb	a2,106(s4)
    80004b7e:	95aa                	add	a1,a1,a0
    80004b80:	ffb58683          	lb	a3,-5(a1)
    80004b84:	8e35                	xor	a2,a2,a3
    80004b86:	fec58da3          	sb	a2,-5(a1)
    80004b8a:	000b3583          	ld	a1,0(s6)
    80004b8e:	06ba0603          	lb	a2,107(s4)
    80004b92:	95aa                	add	a1,a1,a0
    80004b94:	ffc58683          	lb	a3,-4(a1)
    80004b98:	8e35                	xor	a2,a2,a3
    80004b9a:	fec58e23          	sb	a2,-4(a1)
    80004b9e:	000b3583          	ld	a1,0(s6)
    80004ba2:	06ca0603          	lb	a2,108(s4)
    80004ba6:	95aa                	add	a1,a1,a0
    80004ba8:	ffd58683          	lb	a3,-3(a1)
    80004bac:	8e35                	xor	a2,a2,a3
    80004bae:	fec58ea3          	sb	a2,-3(a1)
    80004bb2:	000b3583          	ld	a1,0(s6)
    80004bb6:	06da0603          	lb	a2,109(s4)
    80004bba:	95aa                	add	a1,a1,a0
    80004bbc:	ffe58683          	lb	a3,-2(a1)
    80004bc0:	8e35                	xor	a2,a2,a3
    80004bc2:	fec58f23          	sb	a2,-2(a1)
    80004bc6:	000b3583          	ld	a1,0(s6)
    80004bca:	06ea0603          	lb	a2,110(s4)
    80004bce:	95aa                	add	a1,a1,a0
    80004bd0:	fff58683          	lb	a3,-1(a1)
    80004bd4:	8e35                	xor	a2,a2,a3
    80004bd6:	fec58fa3          	sb	a2,-1(a1)
    80004bda:	000b3583          	ld	a1,0(s6)
    80004bde:	06fa0603          	lb	a2,111(s4)
    80004be2:	95aa                	add	a1,a1,a0
    80004be4:	00058683          	lb	a3,0(a1)
    80004be8:	8e35                	xor	a2,a2,a3
    80004bea:	00c58023          	sb	a2,0(a1)
    80004bee:	1d7d                	addi	s10,s10,-1
    80004bf0:	0541                	addi	a0,a0,16
    80004bf2:	ea0d1ee3          	bnez	s10,80004aae <AES_Encrypt+0x1994>
    80004bf6:	4541                	li	a0,16
    80004bf8:	65a2                	ld	a1,8(sp)
    80004bfa:	6642                	ld	a2,16(sp)
    80004bfc:	00a5d463          	bge	a1,a0,80004c04 <AES_Encrypt+0x1aea>
    80004c00:	13a0106f          	j	80005d3a <AES_Encrypt+0x2c20>
    80004c04:	6562                	ld	a0,24(sp)
    80004c06:	02055d13          	srli	s10,a0,0x20
    80004c0a:	6208                	ld	a0,0(a2)
    80004c0c:	fffd0413          	addi	s0,s10,-1
    80004c10:	02000493          	li	s1,32
    80004c14:	4905                	li	s2,1
    80004c16:	4989                	li	s3,2
    80004c18:	5bfd                	li	s7,-1
    80004c1a:	9526                	add	a0,a0,s1
    80004c1c:	fe053583          	ld	a1,-32(a0)
    80004c20:	fe853503          	ld	a0,-24(a0)
    80004c24:	34b13423          	sd	a1,840(sp)
    80004c28:	34a13823          	sd	a0,848(sp)
    80004c2c:	06a8                	addi	a0,sp,840
    80004c2e:	102c                	addi	a1,sp,40
    80004c30:	be4fd0ef          	jal	80002014 <Impl_SBOX>
    80004c34:	6542                	ld	a0,16(sp)
    80004c36:	6108                	ld	a0,0(a0)
    80004c38:	75a2                	ld	a1,40(sp)
    80004c3a:	9526                	add	a0,a0,s1
    80004c3c:	feb53023          	sd	a1,-32(a0)
    80004c40:	75c2                	ld	a1,48(sp)
    80004c42:	feb53423          	sd	a1,-24(a0)
    80004c46:	c051                	beqz	s0,80004cca <AES_Encrypt+0x1bb0>
    80004c48:	ff053583          	ld	a1,-16(a0)
    80004c4c:	ff853503          	ld	a0,-8(a0)
    80004c50:	34b13423          	sd	a1,840(sp)
    80004c54:	34a13823          	sd	a0,848(sp)
    80004c58:	06a8                	addi	a0,sp,840
    80004c5a:	102c                	addi	a1,sp,40
    80004c5c:	bb8fd0ef          	jal	80002014 <Impl_SBOX>
    80004c60:	6542                	ld	a0,16(sp)
    80004c62:	6108                	ld	a0,0(a0)
    80004c64:	75a2                	ld	a1,40(sp)
    80004c66:	9526                	add	a0,a0,s1
    80004c68:	feb53823          	sd	a1,-16(a0)
    80004c6c:	75c2                	ld	a1,48(sp)
    80004c6e:	feb53c23          	sd	a1,-8(a0)
    80004c72:	05240c63          	beq	s0,s2,80004cca <AES_Encrypt+0x1bb0>
    80004c76:	610c                	ld	a1,0(a0)
    80004c78:	6508                	ld	a0,8(a0)
    80004c7a:	34b13423          	sd	a1,840(sp)
    80004c7e:	34a13823          	sd	a0,848(sp)
    80004c82:	06a8                	addi	a0,sp,840
    80004c84:	102c                	addi	a1,sp,40
    80004c86:	b8efd0ef          	jal	80002014 <Impl_SBOX>
    80004c8a:	6542                	ld	a0,16(sp)
    80004c8c:	6108                	ld	a0,0(a0)
    80004c8e:	75a2                	ld	a1,40(sp)
    80004c90:	9526                	add	a0,a0,s1
    80004c92:	e10c                	sd	a1,0(a0)
    80004c94:	75c2                	ld	a1,48(sp)
    80004c96:	e50c                	sd	a1,8(a0)
    80004c98:	03340963          	beq	s0,s3,80004cca <AES_Encrypt+0x1bb0>
    80004c9c:	690c                	ld	a1,16(a0)
    80004c9e:	6d08                	ld	a0,24(a0)
    80004ca0:	34b13423          	sd	a1,840(sp)
    80004ca4:	34a13823          	sd	a0,848(sp)
    80004ca8:	06a8                	addi	a0,sp,840
    80004caa:	102c                	addi	a1,sp,40
    80004cac:	b68fd0ef          	jal	80002014 <Impl_SBOX>
    80004cb0:	6542                	ld	a0,16(sp)
    80004cb2:	6108                	ld	a0,0(a0)
    80004cb4:	75a2                	ld	a1,40(sp)
    80004cb6:	00950633          	add	a2,a0,s1
    80004cba:	ea0c                	sd	a1,16(a2)
    80004cbc:	75c2                	ld	a1,48(sp)
    80004cbe:	ee0c                	sd	a1,24(a2)
    80004cc0:	1471                	addi	s0,s0,-4
    80004cc2:	04048493          	addi	s1,s1,64
    80004cc6:	f5741ae3          	bne	s0,s7,80004c1a <AES_Encrypt+0x1b00>
    80004cca:	4541                	li	a0,16
    80004ccc:	65a2                	ld	a1,8(sp)
    80004cce:	6642                	ld	a2,16(sp)
    80004cd0:	00a5d463          	bge	a1,a0,80004cd8 <AES_Encrypt+0x1bbe>
    80004cd4:	0660106f          	j	80005d3a <AES_Encrypt+0x2c20>
    80004cd8:	6208                	ld	a0,0(a2)
    80004cda:	fffd0913          	addi	s2,s10,-1
    80004cde:	02050493          	addi	s1,a0,32
    80004ce2:	4b85                	li	s7,1
    80004ce4:	4989                	li	s3,2
    80004ce6:	5dfd                	li	s11,-1
    80004ce8:	fe04ba83          	ld	s5,-32(s1)
    80004cec:	fe84b403          	ld	s0,-24(s1)
    80004cf0:	d802                	sw	zero,48(sp)
    80004cf2:	f402                	sd	zero,40(sp)
    80004cf4:	420ad513          	srai	a0,s5,0x20
    80004cf8:	102c                	addi	a1,sp,40
    80004cfa:	d3efd0ef          	jal	80002238 <gmul_>
    80004cfe:	0004051b          	sext.w	a0,s0
    80004d02:	106c                	addi	a1,sp,44
    80004d04:	d34fd0ef          	jal	80002238 <gmul_>
    80004d08:	42045513          	srai	a0,s0,0x20
    80004d0c:	180c                	addi	a1,sp,48
    80004d0e:	d2afd0ef          	jal	80002238 <gmul_>
    80004d12:	5522                	lw	a0,40(sp)
    80004d14:	7582                	ld	a1,32(sp)
    80004d16:	00baf5b3          	and	a1,s5,a1
    80004d1a:	1502                	slli	a0,a0,0x20
    80004d1c:	8d4d                	or	a0,a0,a1
    80004d1e:	55c2                	lw	a1,48(sp)
    80004d20:	02c16603          	lwu	a2,44(sp)
    80004d24:	1582                	slli	a1,a1,0x20
    80004d26:	8dd1                	or	a1,a1,a2
    80004d28:	fea4b023          	sd	a0,-32(s1)
    80004d2c:	feb4b423          	sd	a1,-24(s1)
    80004d30:	0e090163          	beqz	s2,80004e12 <AES_Encrypt+0x1cf8>
    80004d34:	ff04ba83          	ld	s5,-16(s1)
    80004d38:	ff84b403          	ld	s0,-8(s1)
    80004d3c:	d802                	sw	zero,48(sp)
    80004d3e:	f402                	sd	zero,40(sp)
    80004d40:	420ad513          	srai	a0,s5,0x20
    80004d44:	102c                	addi	a1,sp,40
    80004d46:	cf2fd0ef          	jal	80002238 <gmul_>
    80004d4a:	0004051b          	sext.w	a0,s0
    80004d4e:	106c                	addi	a1,sp,44
    80004d50:	ce8fd0ef          	jal	80002238 <gmul_>
    80004d54:	42045513          	srai	a0,s0,0x20
    80004d58:	180c                	addi	a1,sp,48
    80004d5a:	cdefd0ef          	jal	80002238 <gmul_>
    80004d5e:	5522                	lw	a0,40(sp)
    80004d60:	7582                	ld	a1,32(sp)
    80004d62:	00baf5b3          	and	a1,s5,a1
    80004d66:	1502                	slli	a0,a0,0x20
    80004d68:	8d4d                	or	a0,a0,a1
    80004d6a:	55c2                	lw	a1,48(sp)
    80004d6c:	02c16603          	lwu	a2,44(sp)
    80004d70:	1582                	slli	a1,a1,0x20
    80004d72:	8dd1                	or	a1,a1,a2
    80004d74:	fea4b823          	sd	a0,-16(s1)
    80004d78:	feb4bc23          	sd	a1,-8(s1)
    80004d7c:	09790b63          	beq	s2,s7,80004e12 <AES_Encrypt+0x1cf8>
    80004d80:	0004ba83          	ld	s5,0(s1)
    80004d84:	6480                	ld	s0,8(s1)
    80004d86:	d802                	sw	zero,48(sp)
    80004d88:	f402                	sd	zero,40(sp)
    80004d8a:	420ad513          	srai	a0,s5,0x20
    80004d8e:	102c                	addi	a1,sp,40
    80004d90:	ca8fd0ef          	jal	80002238 <gmul_>
    80004d94:	0004051b          	sext.w	a0,s0
    80004d98:	106c                	addi	a1,sp,44
    80004d9a:	c9efd0ef          	jal	80002238 <gmul_>
    80004d9e:	42045513          	srai	a0,s0,0x20
    80004da2:	180c                	addi	a1,sp,48
    80004da4:	c94fd0ef          	jal	80002238 <gmul_>
    80004da8:	5522                	lw	a0,40(sp)
    80004daa:	7582                	ld	a1,32(sp)
    80004dac:	00baf5b3          	and	a1,s5,a1
    80004db0:	1502                	slli	a0,a0,0x20
    80004db2:	8d4d                	or	a0,a0,a1
    80004db4:	55c2                	lw	a1,48(sp)
    80004db6:	02c16603          	lwu	a2,44(sp)
    80004dba:	1582                	slli	a1,a1,0x20
    80004dbc:	8dd1                	or	a1,a1,a2
    80004dbe:	e088                	sd	a0,0(s1)
    80004dc0:	e48c                	sd	a1,8(s1)
    80004dc2:	05390863          	beq	s2,s3,80004e12 <AES_Encrypt+0x1cf8>
    80004dc6:	0104ba83          	ld	s5,16(s1)
    80004dca:	6c80                	ld	s0,24(s1)
    80004dcc:	d802                	sw	zero,48(sp)
    80004dce:	f402                	sd	zero,40(sp)
    80004dd0:	420ad513          	srai	a0,s5,0x20
    80004dd4:	102c                	addi	a1,sp,40
    80004dd6:	c62fd0ef          	jal	80002238 <gmul_>
    80004dda:	0004051b          	sext.w	a0,s0
    80004dde:	106c                	addi	a1,sp,44
    80004de0:	c58fd0ef          	jal	80002238 <gmul_>
    80004de4:	42045513          	srai	a0,s0,0x20
    80004de8:	180c                	addi	a1,sp,48
    80004dea:	c4efd0ef          	jal	80002238 <gmul_>
    80004dee:	5522                	lw	a0,40(sp)
    80004df0:	7582                	ld	a1,32(sp)
    80004df2:	00baf5b3          	and	a1,s5,a1
    80004df6:	1502                	slli	a0,a0,0x20
    80004df8:	8d4d                	or	a0,a0,a1
    80004dfa:	55c2                	lw	a1,48(sp)
    80004dfc:	02c16603          	lwu	a2,44(sp)
    80004e00:	1582                	slli	a1,a1,0x20
    80004e02:	8dd1                	or	a1,a1,a2
    80004e04:	e888                	sd	a0,16(s1)
    80004e06:	ec8c                	sd	a1,24(s1)
    80004e08:	1971                	addi	s2,s2,-4
    80004e0a:	04048493          	addi	s1,s1,64
    80004e0e:	edb91de3          	bne	s2,s11,80004ce8 <AES_Encrypt+0x1bce>
    80004e12:	4541                	li	a0,16
    80004e14:	65a2                	ld	a1,8(sp)
    80004e16:	6642                	ld	a2,16(sp)
    80004e18:	00a5d463          	bge	a1,a0,80004e20 <AES_Encrypt+0x1d06>
    80004e1c:	71f0006f          	j	80005d3a <AES_Encrypt+0x2c20>
    80004e20:	6208                	ld	a0,0(a2)
    80004e22:	fffd0413          	addi	s0,s10,-1
    80004e26:	02050493          	addi	s1,a0,32
    80004e2a:	4905                	li	s2,1
    80004e2c:	4989                	li	s3,2
    80004e2e:	5bfd                	li	s7,-1
    80004e30:	fe04b503          	ld	a0,-32(s1)
    80004e34:	fe84b583          	ld	a1,-24(s1)
    80004e38:	34a13423          	sd	a0,840(sp)
    80004e3c:	34b13823          	sd	a1,848(sp)
    80004e40:	06a8                	addi	a0,sp,840
    80004e42:	102c                	addi	a1,sp,40
    80004e44:	8e5fd0ef          	jal	80002728 <Impl_ShiftRows>
    80004e48:	7522                	ld	a0,40(sp)
    80004e4a:	fea4b023          	sd	a0,-32(s1)
    80004e4e:	7542                	ld	a0,48(sp)
    80004e50:	fea4b423          	sd	a0,-24(s1)
    80004e54:	c825                	beqz	s0,80004ec4 <AES_Encrypt+0x1daa>
    80004e56:	ff04b503          	ld	a0,-16(s1)
    80004e5a:	ff84b583          	ld	a1,-8(s1)
    80004e5e:	34a13423          	sd	a0,840(sp)
    80004e62:	34b13823          	sd	a1,848(sp)
    80004e66:	06a8                	addi	a0,sp,840
    80004e68:	102c                	addi	a1,sp,40
    80004e6a:	8bffd0ef          	jal	80002728 <Impl_ShiftRows>
    80004e6e:	7522                	ld	a0,40(sp)
    80004e70:	fea4b823          	sd	a0,-16(s1)
    80004e74:	7542                	ld	a0,48(sp)
    80004e76:	fea4bc23          	sd	a0,-8(s1)
    80004e7a:	05240563          	beq	s0,s2,80004ec4 <AES_Encrypt+0x1daa>
    80004e7e:	6088                	ld	a0,0(s1)
    80004e80:	648c                	ld	a1,8(s1)
    80004e82:	34a13423          	sd	a0,840(sp)
    80004e86:	34b13823          	sd	a1,848(sp)
    80004e8a:	06a8                	addi	a0,sp,840
    80004e8c:	102c                	addi	a1,sp,40
    80004e8e:	89bfd0ef          	jal	80002728 <Impl_ShiftRows>
    80004e92:	7522                	ld	a0,40(sp)
    80004e94:	e088                	sd	a0,0(s1)
    80004e96:	7542                	ld	a0,48(sp)
    80004e98:	e488                	sd	a0,8(s1)
    80004e9a:	03340563          	beq	s0,s3,80004ec4 <AES_Encrypt+0x1daa>
    80004e9e:	6888                	ld	a0,16(s1)
    80004ea0:	6c8c                	ld	a1,24(s1)
    80004ea2:	34a13423          	sd	a0,840(sp)
    80004ea6:	34b13823          	sd	a1,848(sp)
    80004eaa:	06a8                	addi	a0,sp,840
    80004eac:	102c                	addi	a1,sp,40
    80004eae:	87bfd0ef          	jal	80002728 <Impl_ShiftRows>
    80004eb2:	7522                	ld	a0,40(sp)
    80004eb4:	e888                	sd	a0,16(s1)
    80004eb6:	7542                	ld	a0,48(sp)
    80004eb8:	ec88                	sd	a0,24(s1)
    80004eba:	1471                	addi	s0,s0,-4
    80004ebc:	04048493          	addi	s1,s1,64
    80004ec0:	f77418e3          	bne	s0,s7,80004e30 <AES_Encrypt+0x1d16>
    80004ec4:	4541                	li	a0,16
    80004ec6:	65a2                	ld	a1,8(sp)
    80004ec8:	66a5c9e3          	blt	a1,a0,80005d3a <AES_Encrypt+0x2c20>
    80004ecc:	453d                	li	a0,15
    80004ece:	000b3583          	ld	a1,0(s6)
    80004ed2:	070a0603          	lb	a2,112(s4)
    80004ed6:	95aa                	add	a1,a1,a0
    80004ed8:	ff158683          	lb	a3,-15(a1)
    80004edc:	8e35                	xor	a2,a2,a3
    80004ede:	fec588a3          	sb	a2,-15(a1)
    80004ee2:	000b3583          	ld	a1,0(s6)
    80004ee6:	071a0603          	lb	a2,113(s4)
    80004eea:	95aa                	add	a1,a1,a0
    80004eec:	ff258683          	lb	a3,-14(a1)
    80004ef0:	8e35                	xor	a2,a2,a3
    80004ef2:	fec58923          	sb	a2,-14(a1)
    80004ef6:	000b3583          	ld	a1,0(s6)
    80004efa:	072a0603          	lb	a2,114(s4)
    80004efe:	95aa                	add	a1,a1,a0
    80004f00:	ff358683          	lb	a3,-13(a1)
    80004f04:	8e35                	xor	a2,a2,a3
    80004f06:	fec589a3          	sb	a2,-13(a1)
    80004f0a:	000b3583          	ld	a1,0(s6)
    80004f0e:	073a0603          	lb	a2,115(s4)
    80004f12:	95aa                	add	a1,a1,a0
    80004f14:	ff458683          	lb	a3,-12(a1)
    80004f18:	8e35                	xor	a2,a2,a3
    80004f1a:	fec58a23          	sb	a2,-12(a1)
    80004f1e:	000b3583          	ld	a1,0(s6)
    80004f22:	074a0603          	lb	a2,116(s4)
    80004f26:	95aa                	add	a1,a1,a0
    80004f28:	ff558683          	lb	a3,-11(a1)
    80004f2c:	8e35                	xor	a2,a2,a3
    80004f2e:	fec58aa3          	sb	a2,-11(a1)
    80004f32:	000b3583          	ld	a1,0(s6)
    80004f36:	075a0603          	lb	a2,117(s4)
    80004f3a:	95aa                	add	a1,a1,a0
    80004f3c:	ff658683          	lb	a3,-10(a1)
    80004f40:	8e35                	xor	a2,a2,a3
    80004f42:	fec58b23          	sb	a2,-10(a1)
    80004f46:	000b3583          	ld	a1,0(s6)
    80004f4a:	076a0603          	lb	a2,118(s4)
    80004f4e:	95aa                	add	a1,a1,a0
    80004f50:	ff758683          	lb	a3,-9(a1)
    80004f54:	8e35                	xor	a2,a2,a3
    80004f56:	fec58ba3          	sb	a2,-9(a1)
    80004f5a:	000b3583          	ld	a1,0(s6)
    80004f5e:	077a0603          	lb	a2,119(s4)
    80004f62:	95aa                	add	a1,a1,a0
    80004f64:	ff858683          	lb	a3,-8(a1)
    80004f68:	8e35                	xor	a2,a2,a3
    80004f6a:	fec58c23          	sb	a2,-8(a1)
    80004f6e:	000b3583          	ld	a1,0(s6)
    80004f72:	078a0603          	lb	a2,120(s4)
    80004f76:	95aa                	add	a1,a1,a0
    80004f78:	ff958683          	lb	a3,-7(a1)
    80004f7c:	8e35                	xor	a2,a2,a3
    80004f7e:	fec58ca3          	sb	a2,-7(a1)
    80004f82:	000b3583          	ld	a1,0(s6)
    80004f86:	079a0603          	lb	a2,121(s4)
    80004f8a:	95aa                	add	a1,a1,a0
    80004f8c:	ffa58683          	lb	a3,-6(a1)
    80004f90:	8e35                	xor	a2,a2,a3
    80004f92:	fec58d23          	sb	a2,-6(a1)
    80004f96:	000b3583          	ld	a1,0(s6)
    80004f9a:	07aa0603          	lb	a2,122(s4)
    80004f9e:	95aa                	add	a1,a1,a0
    80004fa0:	ffb58683          	lb	a3,-5(a1)
    80004fa4:	8e35                	xor	a2,a2,a3
    80004fa6:	fec58da3          	sb	a2,-5(a1)
    80004faa:	000b3583          	ld	a1,0(s6)
    80004fae:	07ba0603          	lb	a2,123(s4)
    80004fb2:	95aa                	add	a1,a1,a0
    80004fb4:	ffc58683          	lb	a3,-4(a1)
    80004fb8:	8e35                	xor	a2,a2,a3
    80004fba:	fec58e23          	sb	a2,-4(a1)
    80004fbe:	000b3583          	ld	a1,0(s6)
    80004fc2:	07ca0603          	lb	a2,124(s4)
    80004fc6:	95aa                	add	a1,a1,a0
    80004fc8:	ffd58683          	lb	a3,-3(a1)
    80004fcc:	8e35                	xor	a2,a2,a3
    80004fce:	fec58ea3          	sb	a2,-3(a1)
    80004fd2:	000b3583          	ld	a1,0(s6)
    80004fd6:	07da0603          	lb	a2,125(s4)
    80004fda:	95aa                	add	a1,a1,a0
    80004fdc:	ffe58683          	lb	a3,-2(a1)
    80004fe0:	8e35                	xor	a2,a2,a3
    80004fe2:	fec58f23          	sb	a2,-2(a1)
    80004fe6:	000b3583          	ld	a1,0(s6)
    80004fea:	07ea0603          	lb	a2,126(s4)
    80004fee:	95aa                	add	a1,a1,a0
    80004ff0:	fff58683          	lb	a3,-1(a1)
    80004ff4:	8e35                	xor	a2,a2,a3
    80004ff6:	fec58fa3          	sb	a2,-1(a1)
    80004ffa:	000b3583          	ld	a1,0(s6)
    80004ffe:	07fa0603          	lb	a2,127(s4)
    80005002:	95aa                	add	a1,a1,a0
    80005004:	00058683          	lb	a3,0(a1)
    80005008:	8e35                	xor	a2,a2,a3
    8000500a:	00c58023          	sb	a2,0(a1)
    8000500e:	1d7d                	addi	s10,s10,-1
    80005010:	0541                	addi	a0,a0,16
    80005012:	ea0d1ee3          	bnez	s10,80004ece <AES_Encrypt+0x1db4>
    80005016:	4541                	li	a0,16
    80005018:	65a2                	ld	a1,8(sp)
    8000501a:	6642                	ld	a2,16(sp)
    8000501c:	50a5cfe3          	blt	a1,a0,80005d3a <AES_Encrypt+0x2c20>
    80005020:	6562                	ld	a0,24(sp)
    80005022:	02055d13          	srli	s10,a0,0x20
    80005026:	6208                	ld	a0,0(a2)
    80005028:	fffd0413          	addi	s0,s10,-1
    8000502c:	02000493          	li	s1,32
    80005030:	4905                	li	s2,1
    80005032:	4989                	li	s3,2
    80005034:	5bfd                	li	s7,-1
    80005036:	9526                	add	a0,a0,s1
    80005038:	fe053583          	ld	a1,-32(a0)
    8000503c:	fe853503          	ld	a0,-24(a0)
    80005040:	34b13423          	sd	a1,840(sp)
    80005044:	34a13823          	sd	a0,848(sp)
    80005048:	06a8                	addi	a0,sp,840
    8000504a:	102c                	addi	a1,sp,40
    8000504c:	fc9fc0ef          	jal	80002014 <Impl_SBOX>
    80005050:	6542                	ld	a0,16(sp)
    80005052:	6108                	ld	a0,0(a0)
    80005054:	75a2                	ld	a1,40(sp)
    80005056:	9526                	add	a0,a0,s1
    80005058:	feb53023          	sd	a1,-32(a0)
    8000505c:	75c2                	ld	a1,48(sp)
    8000505e:	feb53423          	sd	a1,-24(a0)
    80005062:	c051                	beqz	s0,800050e6 <AES_Encrypt+0x1fcc>
    80005064:	ff053583          	ld	a1,-16(a0)
    80005068:	ff853503          	ld	a0,-8(a0)
    8000506c:	34b13423          	sd	a1,840(sp)
    80005070:	34a13823          	sd	a0,848(sp)
    80005074:	06a8                	addi	a0,sp,840
    80005076:	102c                	addi	a1,sp,40
    80005078:	f9dfc0ef          	jal	80002014 <Impl_SBOX>
    8000507c:	6542                	ld	a0,16(sp)
    8000507e:	6108                	ld	a0,0(a0)
    80005080:	75a2                	ld	a1,40(sp)
    80005082:	9526                	add	a0,a0,s1
    80005084:	feb53823          	sd	a1,-16(a0)
    80005088:	75c2                	ld	a1,48(sp)
    8000508a:	feb53c23          	sd	a1,-8(a0)
    8000508e:	05240c63          	beq	s0,s2,800050e6 <AES_Encrypt+0x1fcc>
    80005092:	610c                	ld	a1,0(a0)
    80005094:	6508                	ld	a0,8(a0)
    80005096:	34b13423          	sd	a1,840(sp)
    8000509a:	34a13823          	sd	a0,848(sp)
    8000509e:	06a8                	addi	a0,sp,840
    800050a0:	102c                	addi	a1,sp,40
    800050a2:	f73fc0ef          	jal	80002014 <Impl_SBOX>
    800050a6:	6542                	ld	a0,16(sp)
    800050a8:	6108                	ld	a0,0(a0)
    800050aa:	75a2                	ld	a1,40(sp)
    800050ac:	9526                	add	a0,a0,s1
    800050ae:	e10c                	sd	a1,0(a0)
    800050b0:	75c2                	ld	a1,48(sp)
    800050b2:	e50c                	sd	a1,8(a0)
    800050b4:	03340963          	beq	s0,s3,800050e6 <AES_Encrypt+0x1fcc>
    800050b8:	690c                	ld	a1,16(a0)
    800050ba:	6d08                	ld	a0,24(a0)
    800050bc:	34b13423          	sd	a1,840(sp)
    800050c0:	34a13823          	sd	a0,848(sp)
    800050c4:	06a8                	addi	a0,sp,840
    800050c6:	102c                	addi	a1,sp,40
    800050c8:	f4dfc0ef          	jal	80002014 <Impl_SBOX>
    800050cc:	6542                	ld	a0,16(sp)
    800050ce:	6108                	ld	a0,0(a0)
    800050d0:	75a2                	ld	a1,40(sp)
    800050d2:	00950633          	add	a2,a0,s1
    800050d6:	ea0c                	sd	a1,16(a2)
    800050d8:	75c2                	ld	a1,48(sp)
    800050da:	ee0c                	sd	a1,24(a2)
    800050dc:	1471                	addi	s0,s0,-4
    800050de:	04048493          	addi	s1,s1,64
    800050e2:	f5741ae3          	bne	s0,s7,80005036 <AES_Encrypt+0x1f1c>
    800050e6:	4541                	li	a0,16
    800050e8:	65a2                	ld	a1,8(sp)
    800050ea:	6642                	ld	a2,16(sp)
    800050ec:	44a5c7e3          	blt	a1,a0,80005d3a <AES_Encrypt+0x2c20>
    800050f0:	6208                	ld	a0,0(a2)
    800050f2:	fffd0913          	addi	s2,s10,-1
    800050f6:	02050493          	addi	s1,a0,32
    800050fa:	4b85                	li	s7,1
    800050fc:	4989                	li	s3,2
    800050fe:	5dfd                	li	s11,-1
    80005100:	fe04ba83          	ld	s5,-32(s1)
    80005104:	fe84b403          	ld	s0,-24(s1)
    80005108:	d802                	sw	zero,48(sp)
    8000510a:	f402                	sd	zero,40(sp)
    8000510c:	420ad513          	srai	a0,s5,0x20
    80005110:	102c                	addi	a1,sp,40
    80005112:	926fd0ef          	jal	80002238 <gmul_>
    80005116:	0004051b          	sext.w	a0,s0
    8000511a:	106c                	addi	a1,sp,44
    8000511c:	91cfd0ef          	jal	80002238 <gmul_>
    80005120:	42045513          	srai	a0,s0,0x20
    80005124:	180c                	addi	a1,sp,48
    80005126:	912fd0ef          	jal	80002238 <gmul_>
    8000512a:	5522                	lw	a0,40(sp)
    8000512c:	7582                	ld	a1,32(sp)
    8000512e:	00baf5b3          	and	a1,s5,a1
    80005132:	1502                	slli	a0,a0,0x20
    80005134:	8d4d                	or	a0,a0,a1
    80005136:	55c2                	lw	a1,48(sp)
    80005138:	02c16603          	lwu	a2,44(sp)
    8000513c:	1582                	slli	a1,a1,0x20
    8000513e:	8dd1                	or	a1,a1,a2
    80005140:	fea4b023          	sd	a0,-32(s1)
    80005144:	feb4b423          	sd	a1,-24(s1)
    80005148:	0e090163          	beqz	s2,8000522a <AES_Encrypt+0x2110>
    8000514c:	ff04ba83          	ld	s5,-16(s1)
    80005150:	ff84b403          	ld	s0,-8(s1)
    80005154:	d802                	sw	zero,48(sp)
    80005156:	f402                	sd	zero,40(sp)
    80005158:	420ad513          	srai	a0,s5,0x20
    8000515c:	102c                	addi	a1,sp,40
    8000515e:	8dafd0ef          	jal	80002238 <gmul_>
    80005162:	0004051b          	sext.w	a0,s0
    80005166:	106c                	addi	a1,sp,44
    80005168:	8d0fd0ef          	jal	80002238 <gmul_>
    8000516c:	42045513          	srai	a0,s0,0x20
    80005170:	180c                	addi	a1,sp,48
    80005172:	8c6fd0ef          	jal	80002238 <gmul_>
    80005176:	5522                	lw	a0,40(sp)
    80005178:	7582                	ld	a1,32(sp)
    8000517a:	00baf5b3          	and	a1,s5,a1
    8000517e:	1502                	slli	a0,a0,0x20
    80005180:	8d4d                	or	a0,a0,a1
    80005182:	55c2                	lw	a1,48(sp)
    80005184:	02c16603          	lwu	a2,44(sp)
    80005188:	1582                	slli	a1,a1,0x20
    8000518a:	8dd1                	or	a1,a1,a2
    8000518c:	fea4b823          	sd	a0,-16(s1)
    80005190:	feb4bc23          	sd	a1,-8(s1)
    80005194:	09790b63          	beq	s2,s7,8000522a <AES_Encrypt+0x2110>
    80005198:	0004ba83          	ld	s5,0(s1)
    8000519c:	6480                	ld	s0,8(s1)
    8000519e:	d802                	sw	zero,48(sp)
    800051a0:	f402                	sd	zero,40(sp)
    800051a2:	420ad513          	srai	a0,s5,0x20
    800051a6:	102c                	addi	a1,sp,40
    800051a8:	890fd0ef          	jal	80002238 <gmul_>
    800051ac:	0004051b          	sext.w	a0,s0
    800051b0:	106c                	addi	a1,sp,44
    800051b2:	886fd0ef          	jal	80002238 <gmul_>
    800051b6:	42045513          	srai	a0,s0,0x20
    800051ba:	180c                	addi	a1,sp,48
    800051bc:	87cfd0ef          	jal	80002238 <gmul_>
    800051c0:	5522                	lw	a0,40(sp)
    800051c2:	7582                	ld	a1,32(sp)
    800051c4:	00baf5b3          	and	a1,s5,a1
    800051c8:	1502                	slli	a0,a0,0x20
    800051ca:	8d4d                	or	a0,a0,a1
    800051cc:	55c2                	lw	a1,48(sp)
    800051ce:	02c16603          	lwu	a2,44(sp)
    800051d2:	1582                	slli	a1,a1,0x20
    800051d4:	8dd1                	or	a1,a1,a2
    800051d6:	e088                	sd	a0,0(s1)
    800051d8:	e48c                	sd	a1,8(s1)
    800051da:	05390863          	beq	s2,s3,8000522a <AES_Encrypt+0x2110>
    800051de:	0104ba83          	ld	s5,16(s1)
    800051e2:	6c80                	ld	s0,24(s1)
    800051e4:	d802                	sw	zero,48(sp)
    800051e6:	f402                	sd	zero,40(sp)
    800051e8:	420ad513          	srai	a0,s5,0x20
    800051ec:	102c                	addi	a1,sp,40
    800051ee:	84afd0ef          	jal	80002238 <gmul_>
    800051f2:	0004051b          	sext.w	a0,s0
    800051f6:	106c                	addi	a1,sp,44
    800051f8:	840fd0ef          	jal	80002238 <gmul_>
    800051fc:	42045513          	srai	a0,s0,0x20
    80005200:	180c                	addi	a1,sp,48
    80005202:	836fd0ef          	jal	80002238 <gmul_>
    80005206:	5522                	lw	a0,40(sp)
    80005208:	7582                	ld	a1,32(sp)
    8000520a:	00baf5b3          	and	a1,s5,a1
    8000520e:	1502                	slli	a0,a0,0x20
    80005210:	8d4d                	or	a0,a0,a1
    80005212:	55c2                	lw	a1,48(sp)
    80005214:	02c16603          	lwu	a2,44(sp)
    80005218:	1582                	slli	a1,a1,0x20
    8000521a:	8dd1                	or	a1,a1,a2
    8000521c:	e888                	sd	a0,16(s1)
    8000521e:	ec8c                	sd	a1,24(s1)
    80005220:	1971                	addi	s2,s2,-4
    80005222:	04048493          	addi	s1,s1,64
    80005226:	edb91de3          	bne	s2,s11,80005100 <AES_Encrypt+0x1fe6>
    8000522a:	4541                	li	a0,16
    8000522c:	65a2                	ld	a1,8(sp)
    8000522e:	6642                	ld	a2,16(sp)
    80005230:	30a5c5e3          	blt	a1,a0,80005d3a <AES_Encrypt+0x2c20>
    80005234:	6208                	ld	a0,0(a2)
    80005236:	fffd0413          	addi	s0,s10,-1
    8000523a:	02050493          	addi	s1,a0,32
    8000523e:	4905                	li	s2,1
    80005240:	4989                	li	s3,2
    80005242:	5bfd                	li	s7,-1
    80005244:	fe04b503          	ld	a0,-32(s1)
    80005248:	fe84b583          	ld	a1,-24(s1)
    8000524c:	34a13423          	sd	a0,840(sp)
    80005250:	34b13823          	sd	a1,848(sp)
    80005254:	06a8                	addi	a0,sp,840
    80005256:	102c                	addi	a1,sp,40
    80005258:	cd0fd0ef          	jal	80002728 <Impl_ShiftRows>
    8000525c:	7522                	ld	a0,40(sp)
    8000525e:	fea4b023          	sd	a0,-32(s1)
    80005262:	7542                	ld	a0,48(sp)
    80005264:	fea4b423          	sd	a0,-24(s1)
    80005268:	c825                	beqz	s0,800052d8 <AES_Encrypt+0x21be>
    8000526a:	ff04b503          	ld	a0,-16(s1)
    8000526e:	ff84b583          	ld	a1,-8(s1)
    80005272:	34a13423          	sd	a0,840(sp)
    80005276:	34b13823          	sd	a1,848(sp)
    8000527a:	06a8                	addi	a0,sp,840
    8000527c:	102c                	addi	a1,sp,40
    8000527e:	caafd0ef          	jal	80002728 <Impl_ShiftRows>
    80005282:	7522                	ld	a0,40(sp)
    80005284:	fea4b823          	sd	a0,-16(s1)
    80005288:	7542                	ld	a0,48(sp)
    8000528a:	fea4bc23          	sd	a0,-8(s1)
    8000528e:	05240563          	beq	s0,s2,800052d8 <AES_Encrypt+0x21be>
    80005292:	6088                	ld	a0,0(s1)
    80005294:	648c                	ld	a1,8(s1)
    80005296:	34a13423          	sd	a0,840(sp)
    8000529a:	34b13823          	sd	a1,848(sp)
    8000529e:	06a8                	addi	a0,sp,840
    800052a0:	102c                	addi	a1,sp,40
    800052a2:	c86fd0ef          	jal	80002728 <Impl_ShiftRows>
    800052a6:	7522                	ld	a0,40(sp)
    800052a8:	e088                	sd	a0,0(s1)
    800052aa:	7542                	ld	a0,48(sp)
    800052ac:	e488                	sd	a0,8(s1)
    800052ae:	03340563          	beq	s0,s3,800052d8 <AES_Encrypt+0x21be>
    800052b2:	6888                	ld	a0,16(s1)
    800052b4:	6c8c                	ld	a1,24(s1)
    800052b6:	34a13423          	sd	a0,840(sp)
    800052ba:	34b13823          	sd	a1,848(sp)
    800052be:	06a8                	addi	a0,sp,840
    800052c0:	102c                	addi	a1,sp,40
    800052c2:	c66fd0ef          	jal	80002728 <Impl_ShiftRows>
    800052c6:	7522                	ld	a0,40(sp)
    800052c8:	e888                	sd	a0,16(s1)
    800052ca:	7542                	ld	a0,48(sp)
    800052cc:	ec88                	sd	a0,24(s1)
    800052ce:	1471                	addi	s0,s0,-4
    800052d0:	04048493          	addi	s1,s1,64
    800052d4:	f77418e3          	bne	s0,s7,80005244 <AES_Encrypt+0x212a>
    800052d8:	4541                	li	a0,16
    800052da:	65a2                	ld	a1,8(sp)
    800052dc:	24a5cfe3          	blt	a1,a0,80005d3a <AES_Encrypt+0x2c20>
    800052e0:	453d                	li	a0,15
    800052e2:	000b3583          	ld	a1,0(s6)
    800052e6:	080a0603          	lb	a2,128(s4)
    800052ea:	95aa                	add	a1,a1,a0
    800052ec:	ff158683          	lb	a3,-15(a1)
    800052f0:	8e35                	xor	a2,a2,a3
    800052f2:	fec588a3          	sb	a2,-15(a1)
    800052f6:	000b3583          	ld	a1,0(s6)
    800052fa:	081a0603          	lb	a2,129(s4)
    800052fe:	95aa                	add	a1,a1,a0
    80005300:	ff258683          	lb	a3,-14(a1)
    80005304:	8e35                	xor	a2,a2,a3
    80005306:	fec58923          	sb	a2,-14(a1)
    8000530a:	000b3583          	ld	a1,0(s6)
    8000530e:	082a0603          	lb	a2,130(s4)
    80005312:	95aa                	add	a1,a1,a0
    80005314:	ff358683          	lb	a3,-13(a1)
    80005318:	8e35                	xor	a2,a2,a3
    8000531a:	fec589a3          	sb	a2,-13(a1)
    8000531e:	000b3583          	ld	a1,0(s6)
    80005322:	083a0603          	lb	a2,131(s4)
    80005326:	95aa                	add	a1,a1,a0
    80005328:	ff458683          	lb	a3,-12(a1)
    8000532c:	8e35                	xor	a2,a2,a3
    8000532e:	fec58a23          	sb	a2,-12(a1)
    80005332:	000b3583          	ld	a1,0(s6)
    80005336:	084a0603          	lb	a2,132(s4)
    8000533a:	95aa                	add	a1,a1,a0
    8000533c:	ff558683          	lb	a3,-11(a1)
    80005340:	8e35                	xor	a2,a2,a3
    80005342:	fec58aa3          	sb	a2,-11(a1)
    80005346:	000b3583          	ld	a1,0(s6)
    8000534a:	085a0603          	lb	a2,133(s4)
    8000534e:	95aa                	add	a1,a1,a0
    80005350:	ff658683          	lb	a3,-10(a1)
    80005354:	8e35                	xor	a2,a2,a3
    80005356:	fec58b23          	sb	a2,-10(a1)
    8000535a:	000b3583          	ld	a1,0(s6)
    8000535e:	086a0603          	lb	a2,134(s4)
    80005362:	95aa                	add	a1,a1,a0
    80005364:	ff758683          	lb	a3,-9(a1)
    80005368:	8e35                	xor	a2,a2,a3
    8000536a:	fec58ba3          	sb	a2,-9(a1)
    8000536e:	000b3583          	ld	a1,0(s6)
    80005372:	087a0603          	lb	a2,135(s4)
    80005376:	95aa                	add	a1,a1,a0
    80005378:	ff858683          	lb	a3,-8(a1)
    8000537c:	8e35                	xor	a2,a2,a3
    8000537e:	fec58c23          	sb	a2,-8(a1)
    80005382:	000b3583          	ld	a1,0(s6)
    80005386:	088a0603          	lb	a2,136(s4)
    8000538a:	95aa                	add	a1,a1,a0
    8000538c:	ff958683          	lb	a3,-7(a1)
    80005390:	8e35                	xor	a2,a2,a3
    80005392:	fec58ca3          	sb	a2,-7(a1)
    80005396:	000b3583          	ld	a1,0(s6)
    8000539a:	089a0603          	lb	a2,137(s4)
    8000539e:	95aa                	add	a1,a1,a0
    800053a0:	ffa58683          	lb	a3,-6(a1)
    800053a4:	8e35                	xor	a2,a2,a3
    800053a6:	fec58d23          	sb	a2,-6(a1)
    800053aa:	000b3583          	ld	a1,0(s6)
    800053ae:	08aa0603          	lb	a2,138(s4)
    800053b2:	95aa                	add	a1,a1,a0
    800053b4:	ffb58683          	lb	a3,-5(a1)
    800053b8:	8e35                	xor	a2,a2,a3
    800053ba:	fec58da3          	sb	a2,-5(a1)
    800053be:	000b3583          	ld	a1,0(s6)
    800053c2:	08ba0603          	lb	a2,139(s4)
    800053c6:	95aa                	add	a1,a1,a0
    800053c8:	ffc58683          	lb	a3,-4(a1)
    800053cc:	8e35                	xor	a2,a2,a3
    800053ce:	fec58e23          	sb	a2,-4(a1)
    800053d2:	000b3583          	ld	a1,0(s6)
    800053d6:	08ca0603          	lb	a2,140(s4)
    800053da:	95aa                	add	a1,a1,a0
    800053dc:	ffd58683          	lb	a3,-3(a1)
    800053e0:	8e35                	xor	a2,a2,a3
    800053e2:	fec58ea3          	sb	a2,-3(a1)
    800053e6:	000b3583          	ld	a1,0(s6)
    800053ea:	08da0603          	lb	a2,141(s4)
    800053ee:	95aa                	add	a1,a1,a0
    800053f0:	ffe58683          	lb	a3,-2(a1)
    800053f4:	8e35                	xor	a2,a2,a3
    800053f6:	fec58f23          	sb	a2,-2(a1)
    800053fa:	000b3583          	ld	a1,0(s6)
    800053fe:	08ea0603          	lb	a2,142(s4)
    80005402:	95aa                	add	a1,a1,a0
    80005404:	fff58683          	lb	a3,-1(a1)
    80005408:	8e35                	xor	a2,a2,a3
    8000540a:	fec58fa3          	sb	a2,-1(a1)
    8000540e:	000b3583          	ld	a1,0(s6)
    80005412:	08fa0603          	lb	a2,143(s4)
    80005416:	95aa                	add	a1,a1,a0
    80005418:	00058683          	lb	a3,0(a1)
    8000541c:	8e35                	xor	a2,a2,a3
    8000541e:	00c58023          	sb	a2,0(a1)
    80005422:	1d7d                	addi	s10,s10,-1
    80005424:	0541                	addi	a0,a0,16
    80005426:	ea0d1ee3          	bnez	s10,800052e2 <AES_Encrypt+0x21c8>
    8000542a:	4541                	li	a0,16
    8000542c:	65a2                	ld	a1,8(sp)
    8000542e:	6642                	ld	a2,16(sp)
    80005430:	10a5c5e3          	blt	a1,a0,80005d3a <AES_Encrypt+0x2c20>
    80005434:	6562                	ld	a0,24(sp)
    80005436:	02055d13          	srli	s10,a0,0x20
    8000543a:	6208                	ld	a0,0(a2)
    8000543c:	fffd0413          	addi	s0,s10,-1
    80005440:	02000493          	li	s1,32
    80005444:	4905                	li	s2,1
    80005446:	4989                	li	s3,2
    80005448:	5bfd                	li	s7,-1
    8000544a:	9526                	add	a0,a0,s1
    8000544c:	fe053583          	ld	a1,-32(a0)
    80005450:	fe853503          	ld	a0,-24(a0)
    80005454:	34b13423          	sd	a1,840(sp)
    80005458:	34a13823          	sd	a0,848(sp)
    8000545c:	06a8                	addi	a0,sp,840
    8000545e:	102c                	addi	a1,sp,40
    80005460:	bb5fc0ef          	jal	80002014 <Impl_SBOX>
    80005464:	6542                	ld	a0,16(sp)
    80005466:	6108                	ld	a0,0(a0)
    80005468:	75a2                	ld	a1,40(sp)
    8000546a:	9526                	add	a0,a0,s1
    8000546c:	feb53023          	sd	a1,-32(a0)
    80005470:	75c2                	ld	a1,48(sp)
    80005472:	feb53423          	sd	a1,-24(a0)
    80005476:	c051                	beqz	s0,800054fa <AES_Encrypt+0x23e0>
    80005478:	ff053583          	ld	a1,-16(a0)
    8000547c:	ff853503          	ld	a0,-8(a0)
    80005480:	34b13423          	sd	a1,840(sp)
    80005484:	34a13823          	sd	a0,848(sp)
    80005488:	06a8                	addi	a0,sp,840
    8000548a:	102c                	addi	a1,sp,40
    8000548c:	b89fc0ef          	jal	80002014 <Impl_SBOX>
    80005490:	6542                	ld	a0,16(sp)
    80005492:	6108                	ld	a0,0(a0)
    80005494:	75a2                	ld	a1,40(sp)
    80005496:	9526                	add	a0,a0,s1
    80005498:	feb53823          	sd	a1,-16(a0)
    8000549c:	75c2                	ld	a1,48(sp)
    8000549e:	feb53c23          	sd	a1,-8(a0)
    800054a2:	05240c63          	beq	s0,s2,800054fa <AES_Encrypt+0x23e0>
    800054a6:	610c                	ld	a1,0(a0)
    800054a8:	6508                	ld	a0,8(a0)
    800054aa:	34b13423          	sd	a1,840(sp)
    800054ae:	34a13823          	sd	a0,848(sp)
    800054b2:	06a8                	addi	a0,sp,840
    800054b4:	102c                	addi	a1,sp,40
    800054b6:	b5ffc0ef          	jal	80002014 <Impl_SBOX>
    800054ba:	6542                	ld	a0,16(sp)
    800054bc:	6108                	ld	a0,0(a0)
    800054be:	75a2                	ld	a1,40(sp)
    800054c0:	9526                	add	a0,a0,s1
    800054c2:	e10c                	sd	a1,0(a0)
    800054c4:	75c2                	ld	a1,48(sp)
    800054c6:	e50c                	sd	a1,8(a0)
    800054c8:	03340963          	beq	s0,s3,800054fa <AES_Encrypt+0x23e0>
    800054cc:	690c                	ld	a1,16(a0)
    800054ce:	6d08                	ld	a0,24(a0)
    800054d0:	34b13423          	sd	a1,840(sp)
    800054d4:	34a13823          	sd	a0,848(sp)
    800054d8:	06a8                	addi	a0,sp,840
    800054da:	102c                	addi	a1,sp,40
    800054dc:	b39fc0ef          	jal	80002014 <Impl_SBOX>
    800054e0:	6542                	ld	a0,16(sp)
    800054e2:	6108                	ld	a0,0(a0)
    800054e4:	75a2                	ld	a1,40(sp)
    800054e6:	00950633          	add	a2,a0,s1
    800054ea:	ea0c                	sd	a1,16(a2)
    800054ec:	75c2                	ld	a1,48(sp)
    800054ee:	ee0c                	sd	a1,24(a2)
    800054f0:	1471                	addi	s0,s0,-4
    800054f2:	04048493          	addi	s1,s1,64
    800054f6:	f5741ae3          	bne	s0,s7,8000544a <AES_Encrypt+0x2330>
    800054fa:	4541                	li	a0,16
    800054fc:	65a2                	ld	a1,8(sp)
    800054fe:	6642                	ld	a2,16(sp)
    80005500:	02a5cde3          	blt	a1,a0,80005d3a <AES_Encrypt+0x2c20>
    80005504:	6208                	ld	a0,0(a2)
    80005506:	fffd0913          	addi	s2,s10,-1
    8000550a:	02050493          	addi	s1,a0,32
    8000550e:	4b85                	li	s7,1
    80005510:	4989                	li	s3,2
    80005512:	5dfd                	li	s11,-1
    80005514:	fe04ba83          	ld	s5,-32(s1)
    80005518:	fe84b403          	ld	s0,-24(s1)
    8000551c:	d802                	sw	zero,48(sp)
    8000551e:	f402                	sd	zero,40(sp)
    80005520:	420ad513          	srai	a0,s5,0x20
    80005524:	102c                	addi	a1,sp,40
    80005526:	d13fc0ef          	jal	80002238 <gmul_>
    8000552a:	0004051b          	sext.w	a0,s0
    8000552e:	106c                	addi	a1,sp,44
    80005530:	d09fc0ef          	jal	80002238 <gmul_>
    80005534:	42045513          	srai	a0,s0,0x20
    80005538:	180c                	addi	a1,sp,48
    8000553a:	cfffc0ef          	jal	80002238 <gmul_>
    8000553e:	5522                	lw	a0,40(sp)
    80005540:	7582                	ld	a1,32(sp)
    80005542:	00baf5b3          	and	a1,s5,a1
    80005546:	1502                	slli	a0,a0,0x20
    80005548:	8d4d                	or	a0,a0,a1
    8000554a:	55c2                	lw	a1,48(sp)
    8000554c:	02c16603          	lwu	a2,44(sp)
    80005550:	1582                	slli	a1,a1,0x20
    80005552:	8dd1                	or	a1,a1,a2
    80005554:	fea4b023          	sd	a0,-32(s1)
    80005558:	feb4b423          	sd	a1,-24(s1)
    8000555c:	0e090163          	beqz	s2,8000563e <AES_Encrypt+0x2524>
    80005560:	ff04ba83          	ld	s5,-16(s1)
    80005564:	ff84b403          	ld	s0,-8(s1)
    80005568:	d802                	sw	zero,48(sp)
    8000556a:	f402                	sd	zero,40(sp)
    8000556c:	420ad513          	srai	a0,s5,0x20
    80005570:	102c                	addi	a1,sp,40
    80005572:	cc7fc0ef          	jal	80002238 <gmul_>
    80005576:	0004051b          	sext.w	a0,s0
    8000557a:	106c                	addi	a1,sp,44
    8000557c:	cbdfc0ef          	jal	80002238 <gmul_>
    80005580:	42045513          	srai	a0,s0,0x20
    80005584:	180c                	addi	a1,sp,48
    80005586:	cb3fc0ef          	jal	80002238 <gmul_>
    8000558a:	5522                	lw	a0,40(sp)
    8000558c:	7582                	ld	a1,32(sp)
    8000558e:	00baf5b3          	and	a1,s5,a1
    80005592:	1502                	slli	a0,a0,0x20
    80005594:	8d4d                	or	a0,a0,a1
    80005596:	55c2                	lw	a1,48(sp)
    80005598:	02c16603          	lwu	a2,44(sp)
    8000559c:	1582                	slli	a1,a1,0x20
    8000559e:	8dd1                	or	a1,a1,a2
    800055a0:	fea4b823          	sd	a0,-16(s1)
    800055a4:	feb4bc23          	sd	a1,-8(s1)
    800055a8:	09790b63          	beq	s2,s7,8000563e <AES_Encrypt+0x2524>
    800055ac:	0004ba83          	ld	s5,0(s1)
    800055b0:	6480                	ld	s0,8(s1)
    800055b2:	d802                	sw	zero,48(sp)
    800055b4:	f402                	sd	zero,40(sp)
    800055b6:	420ad513          	srai	a0,s5,0x20
    800055ba:	102c                	addi	a1,sp,40
    800055bc:	c7dfc0ef          	jal	80002238 <gmul_>
    800055c0:	0004051b          	sext.w	a0,s0
    800055c4:	106c                	addi	a1,sp,44
    800055c6:	c73fc0ef          	jal	80002238 <gmul_>
    800055ca:	42045513          	srai	a0,s0,0x20
    800055ce:	180c                	addi	a1,sp,48
    800055d0:	c69fc0ef          	jal	80002238 <gmul_>
    800055d4:	5522                	lw	a0,40(sp)
    800055d6:	7582                	ld	a1,32(sp)
    800055d8:	00baf5b3          	and	a1,s5,a1
    800055dc:	1502                	slli	a0,a0,0x20
    800055de:	8d4d                	or	a0,a0,a1
    800055e0:	55c2                	lw	a1,48(sp)
    800055e2:	02c16603          	lwu	a2,44(sp)
    800055e6:	1582                	slli	a1,a1,0x20
    800055e8:	8dd1                	or	a1,a1,a2
    800055ea:	e088                	sd	a0,0(s1)
    800055ec:	e48c                	sd	a1,8(s1)
    800055ee:	05390863          	beq	s2,s3,8000563e <AES_Encrypt+0x2524>
    800055f2:	0104ba83          	ld	s5,16(s1)
    800055f6:	6c80                	ld	s0,24(s1)
    800055f8:	d802                	sw	zero,48(sp)
    800055fa:	f402                	sd	zero,40(sp)
    800055fc:	420ad513          	srai	a0,s5,0x20
    80005600:	102c                	addi	a1,sp,40
    80005602:	c37fc0ef          	jal	80002238 <gmul_>
    80005606:	0004051b          	sext.w	a0,s0
    8000560a:	106c                	addi	a1,sp,44
    8000560c:	c2dfc0ef          	jal	80002238 <gmul_>
    80005610:	42045513          	srai	a0,s0,0x20
    80005614:	180c                	addi	a1,sp,48
    80005616:	c23fc0ef          	jal	80002238 <gmul_>
    8000561a:	5522                	lw	a0,40(sp)
    8000561c:	7582                	ld	a1,32(sp)
    8000561e:	00baf5b3          	and	a1,s5,a1
    80005622:	1502                	slli	a0,a0,0x20
    80005624:	8d4d                	or	a0,a0,a1
    80005626:	55c2                	lw	a1,48(sp)
    80005628:	02c16603          	lwu	a2,44(sp)
    8000562c:	1582                	slli	a1,a1,0x20
    8000562e:	8dd1                	or	a1,a1,a2
    80005630:	e888                	sd	a0,16(s1)
    80005632:	ec8c                	sd	a1,24(s1)
    80005634:	1971                	addi	s2,s2,-4
    80005636:	04048493          	addi	s1,s1,64
    8000563a:	edb91de3          	bne	s2,s11,80005514 <AES_Encrypt+0x23fa>
    8000563e:	4541                	li	a0,16
    80005640:	65a2                	ld	a1,8(sp)
    80005642:	6642                	ld	a2,16(sp)
    80005644:	6ea5cb63          	blt	a1,a0,80005d3a <AES_Encrypt+0x2c20>
    80005648:	6208                	ld	a0,0(a2)
    8000564a:	fffd0413          	addi	s0,s10,-1
    8000564e:	02050493          	addi	s1,a0,32
    80005652:	4905                	li	s2,1
    80005654:	4989                	li	s3,2
    80005656:	5bfd                	li	s7,-1
    80005658:	fe04b503          	ld	a0,-32(s1)
    8000565c:	fe84b583          	ld	a1,-24(s1)
    80005660:	34a13423          	sd	a0,840(sp)
    80005664:	34b13823          	sd	a1,848(sp)
    80005668:	06a8                	addi	a0,sp,840
    8000566a:	102c                	addi	a1,sp,40
    8000566c:	8bcfd0ef          	jal	80002728 <Impl_ShiftRows>
    80005670:	7522                	ld	a0,40(sp)
    80005672:	fea4b023          	sd	a0,-32(s1)
    80005676:	7542                	ld	a0,48(sp)
    80005678:	fea4b423          	sd	a0,-24(s1)
    8000567c:	c825                	beqz	s0,800056ec <AES_Encrypt+0x25d2>
    8000567e:	ff04b503          	ld	a0,-16(s1)
    80005682:	ff84b583          	ld	a1,-8(s1)
    80005686:	34a13423          	sd	a0,840(sp)
    8000568a:	34b13823          	sd	a1,848(sp)
    8000568e:	06a8                	addi	a0,sp,840
    80005690:	102c                	addi	a1,sp,40
    80005692:	896fd0ef          	jal	80002728 <Impl_ShiftRows>
    80005696:	7522                	ld	a0,40(sp)
    80005698:	fea4b823          	sd	a0,-16(s1)
    8000569c:	7542                	ld	a0,48(sp)
    8000569e:	fea4bc23          	sd	a0,-8(s1)
    800056a2:	05240563          	beq	s0,s2,800056ec <AES_Encrypt+0x25d2>
    800056a6:	6088                	ld	a0,0(s1)
    800056a8:	648c                	ld	a1,8(s1)
    800056aa:	34a13423          	sd	a0,840(sp)
    800056ae:	34b13823          	sd	a1,848(sp)
    800056b2:	06a8                	addi	a0,sp,840
    800056b4:	102c                	addi	a1,sp,40
    800056b6:	872fd0ef          	jal	80002728 <Impl_ShiftRows>
    800056ba:	7522                	ld	a0,40(sp)
    800056bc:	e088                	sd	a0,0(s1)
    800056be:	7542                	ld	a0,48(sp)
    800056c0:	e488                	sd	a0,8(s1)
    800056c2:	03340563          	beq	s0,s3,800056ec <AES_Encrypt+0x25d2>
    800056c6:	6888                	ld	a0,16(s1)
    800056c8:	6c8c                	ld	a1,24(s1)
    800056ca:	34a13423          	sd	a0,840(sp)
    800056ce:	34b13823          	sd	a1,848(sp)
    800056d2:	06a8                	addi	a0,sp,840
    800056d4:	102c                	addi	a1,sp,40
    800056d6:	852fd0ef          	jal	80002728 <Impl_ShiftRows>
    800056da:	7522                	ld	a0,40(sp)
    800056dc:	e888                	sd	a0,16(s1)
    800056de:	7542                	ld	a0,48(sp)
    800056e0:	ec88                	sd	a0,24(s1)
    800056e2:	1471                	addi	s0,s0,-4
    800056e4:	04048493          	addi	s1,s1,64
    800056e8:	f77418e3          	bne	s0,s7,80005658 <AES_Encrypt+0x253e>
    800056ec:	4541                	li	a0,16
    800056ee:	65a2                	ld	a1,8(sp)
    800056f0:	64a5c563          	blt	a1,a0,80005d3a <AES_Encrypt+0x2c20>
    800056f4:	453d                	li	a0,15
    800056f6:	000b3583          	ld	a1,0(s6)
    800056fa:	090a0603          	lb	a2,144(s4)
    800056fe:	95aa                	add	a1,a1,a0
    80005700:	ff158683          	lb	a3,-15(a1)
    80005704:	8e35                	xor	a2,a2,a3
    80005706:	fec588a3          	sb	a2,-15(a1)
    8000570a:	000b3583          	ld	a1,0(s6)
    8000570e:	091a0603          	lb	a2,145(s4)
    80005712:	95aa                	add	a1,a1,a0
    80005714:	ff258683          	lb	a3,-14(a1)
    80005718:	8e35                	xor	a2,a2,a3
    8000571a:	fec58923          	sb	a2,-14(a1)
    8000571e:	000b3583          	ld	a1,0(s6)
    80005722:	092a0603          	lb	a2,146(s4)
    80005726:	95aa                	add	a1,a1,a0
    80005728:	ff358683          	lb	a3,-13(a1)
    8000572c:	8e35                	xor	a2,a2,a3
    8000572e:	fec589a3          	sb	a2,-13(a1)
    80005732:	000b3583          	ld	a1,0(s6)
    80005736:	093a0603          	lb	a2,147(s4)
    8000573a:	95aa                	add	a1,a1,a0
    8000573c:	ff458683          	lb	a3,-12(a1)
    80005740:	8e35                	xor	a2,a2,a3
    80005742:	fec58a23          	sb	a2,-12(a1)
    80005746:	000b3583          	ld	a1,0(s6)
    8000574a:	094a0603          	lb	a2,148(s4)
    8000574e:	95aa                	add	a1,a1,a0
    80005750:	ff558683          	lb	a3,-11(a1)
    80005754:	8e35                	xor	a2,a2,a3
    80005756:	fec58aa3          	sb	a2,-11(a1)
    8000575a:	000b3583          	ld	a1,0(s6)
    8000575e:	095a0603          	lb	a2,149(s4)
    80005762:	95aa                	add	a1,a1,a0
    80005764:	ff658683          	lb	a3,-10(a1)
    80005768:	8e35                	xor	a2,a2,a3
    8000576a:	fec58b23          	sb	a2,-10(a1)
    8000576e:	000b3583          	ld	a1,0(s6)
    80005772:	096a0603          	lb	a2,150(s4)
    80005776:	95aa                	add	a1,a1,a0
    80005778:	ff758683          	lb	a3,-9(a1)
    8000577c:	8e35                	xor	a2,a2,a3
    8000577e:	fec58ba3          	sb	a2,-9(a1)
    80005782:	000b3583          	ld	a1,0(s6)
    80005786:	097a0603          	lb	a2,151(s4)
    8000578a:	95aa                	add	a1,a1,a0
    8000578c:	ff858683          	lb	a3,-8(a1)
    80005790:	8e35                	xor	a2,a2,a3
    80005792:	fec58c23          	sb	a2,-8(a1)
    80005796:	000b3583          	ld	a1,0(s6)
    8000579a:	098a0603          	lb	a2,152(s4)
    8000579e:	95aa                	add	a1,a1,a0
    800057a0:	ff958683          	lb	a3,-7(a1)
    800057a4:	8e35                	xor	a2,a2,a3
    800057a6:	fec58ca3          	sb	a2,-7(a1)
    800057aa:	000b3583          	ld	a1,0(s6)
    800057ae:	099a0603          	lb	a2,153(s4)
    800057b2:	95aa                	add	a1,a1,a0
    800057b4:	ffa58683          	lb	a3,-6(a1)
    800057b8:	8e35                	xor	a2,a2,a3
    800057ba:	fec58d23          	sb	a2,-6(a1)
    800057be:	000b3583          	ld	a1,0(s6)
    800057c2:	09aa0603          	lb	a2,154(s4)
    800057c6:	95aa                	add	a1,a1,a0
    800057c8:	ffb58683          	lb	a3,-5(a1)
    800057cc:	8e35                	xor	a2,a2,a3
    800057ce:	fec58da3          	sb	a2,-5(a1)
    800057d2:	000b3583          	ld	a1,0(s6)
    800057d6:	09ba0603          	lb	a2,155(s4)
    800057da:	95aa                	add	a1,a1,a0
    800057dc:	ffc58683          	lb	a3,-4(a1)
    800057e0:	8e35                	xor	a2,a2,a3
    800057e2:	fec58e23          	sb	a2,-4(a1)
    800057e6:	000b3583          	ld	a1,0(s6)
    800057ea:	09ca0603          	lb	a2,156(s4)
    800057ee:	95aa                	add	a1,a1,a0
    800057f0:	ffd58683          	lb	a3,-3(a1)
    800057f4:	8e35                	xor	a2,a2,a3
    800057f6:	fec58ea3          	sb	a2,-3(a1)
    800057fa:	000b3583          	ld	a1,0(s6)
    800057fe:	09da0603          	lb	a2,157(s4)
    80005802:	95aa                	add	a1,a1,a0
    80005804:	ffe58683          	lb	a3,-2(a1)
    80005808:	8e35                	xor	a2,a2,a3
    8000580a:	fec58f23          	sb	a2,-2(a1)
    8000580e:	000b3583          	ld	a1,0(s6)
    80005812:	09ea0603          	lb	a2,158(s4)
    80005816:	95aa                	add	a1,a1,a0
    80005818:	fff58683          	lb	a3,-1(a1)
    8000581c:	8e35                	xor	a2,a2,a3
    8000581e:	fec58fa3          	sb	a2,-1(a1)
    80005822:	000b3583          	ld	a1,0(s6)
    80005826:	09fa0603          	lb	a2,159(s4)
    8000582a:	95aa                	add	a1,a1,a0
    8000582c:	00058683          	lb	a3,0(a1)
    80005830:	8e35                	xor	a2,a2,a3
    80005832:	00c58023          	sb	a2,0(a1)
    80005836:	1d7d                	addi	s10,s10,-1
    80005838:	0541                	addi	a0,a0,16
    8000583a:	ea0d1ee3          	bnez	s10,800056f6 <AES_Encrypt+0x25dc>
    8000583e:	453d                	li	a0,15
    80005840:	65a2                	ld	a1,8(sp)
    80005842:	4eb55c63          	bge	a0,a1,80005d3a <AES_Encrypt+0x2c20>
    80005846:	4501                	li	a0,0
    80005848:	65e2                	ld	a1,24(sp)
    8000584a:	9181                	srli	a1,a1,0x20
    8000584c:	00001617          	auipc	a2,0x1
    80005850:	2d560613          	addi	a2,a2,725 # 80006b21 <sbox>
    80005854:	000b3683          	ld	a3,0(s6)
    80005858:	96aa                	add	a3,a3,a0
    8000585a:	0006c703          	lbu	a4,0(a3)
    8000585e:	9732                	add	a4,a4,a2
    80005860:	00070703          	lb	a4,0(a4)
    80005864:	00e68023          	sb	a4,0(a3)
    80005868:	000b3683          	ld	a3,0(s6)
    8000586c:	96aa                	add	a3,a3,a0
    8000586e:	0016c703          	lbu	a4,1(a3)
    80005872:	9732                	add	a4,a4,a2
    80005874:	00070703          	lb	a4,0(a4)
    80005878:	00e680a3          	sb	a4,1(a3)
    8000587c:	000b3683          	ld	a3,0(s6)
    80005880:	96aa                	add	a3,a3,a0
    80005882:	0026c703          	lbu	a4,2(a3)
    80005886:	9732                	add	a4,a4,a2
    80005888:	00070703          	lb	a4,0(a4)
    8000588c:	00e68123          	sb	a4,2(a3)
    80005890:	000b3683          	ld	a3,0(s6)
    80005894:	96aa                	add	a3,a3,a0
    80005896:	0036c703          	lbu	a4,3(a3)
    8000589a:	9732                	add	a4,a4,a2
    8000589c:	00070703          	lb	a4,0(a4)
    800058a0:	00e681a3          	sb	a4,3(a3)
    800058a4:	000b3683          	ld	a3,0(s6)
    800058a8:	96aa                	add	a3,a3,a0
    800058aa:	0046c703          	lbu	a4,4(a3)
    800058ae:	9732                	add	a4,a4,a2
    800058b0:	00070703          	lb	a4,0(a4)
    800058b4:	00e68223          	sb	a4,4(a3)
    800058b8:	000b3683          	ld	a3,0(s6)
    800058bc:	96aa                	add	a3,a3,a0
    800058be:	0056c703          	lbu	a4,5(a3)
    800058c2:	9732                	add	a4,a4,a2
    800058c4:	00070703          	lb	a4,0(a4)
    800058c8:	00e682a3          	sb	a4,5(a3)
    800058cc:	000b3683          	ld	a3,0(s6)
    800058d0:	96aa                	add	a3,a3,a0
    800058d2:	0066c703          	lbu	a4,6(a3)
    800058d6:	9732                	add	a4,a4,a2
    800058d8:	00070703          	lb	a4,0(a4)
    800058dc:	00e68323          	sb	a4,6(a3)
    800058e0:	000b3683          	ld	a3,0(s6)
    800058e4:	96aa                	add	a3,a3,a0
    800058e6:	0076c703          	lbu	a4,7(a3)
    800058ea:	9732                	add	a4,a4,a2
    800058ec:	00070703          	lb	a4,0(a4)
    800058f0:	00e683a3          	sb	a4,7(a3)
    800058f4:	000b3683          	ld	a3,0(s6)
    800058f8:	96aa                	add	a3,a3,a0
    800058fa:	0086c703          	lbu	a4,8(a3)
    800058fe:	9732                	add	a4,a4,a2
    80005900:	00070703          	lb	a4,0(a4)
    80005904:	00e68423          	sb	a4,8(a3)
    80005908:	000b3683          	ld	a3,0(s6)
    8000590c:	96aa                	add	a3,a3,a0
    8000590e:	0096c703          	lbu	a4,9(a3)
    80005912:	9732                	add	a4,a4,a2
    80005914:	00070703          	lb	a4,0(a4)
    80005918:	00e684a3          	sb	a4,9(a3)
    8000591c:	000b3683          	ld	a3,0(s6)
    80005920:	96aa                	add	a3,a3,a0
    80005922:	00a6c703          	lbu	a4,10(a3)
    80005926:	9732                	add	a4,a4,a2
    80005928:	00070703          	lb	a4,0(a4)
    8000592c:	00e68523          	sb	a4,10(a3)
    80005930:	000b3683          	ld	a3,0(s6)
    80005934:	96aa                	add	a3,a3,a0
    80005936:	00b6c703          	lbu	a4,11(a3)
    8000593a:	9732                	add	a4,a4,a2
    8000593c:	00070703          	lb	a4,0(a4)
    80005940:	00e685a3          	sb	a4,11(a3)
    80005944:	000b3683          	ld	a3,0(s6)
    80005948:	96aa                	add	a3,a3,a0
    8000594a:	00c6c703          	lbu	a4,12(a3)
    8000594e:	9732                	add	a4,a4,a2
    80005950:	00070703          	lb	a4,0(a4)
    80005954:	00e68623          	sb	a4,12(a3)
    80005958:	000b3683          	ld	a3,0(s6)
    8000595c:	96aa                	add	a3,a3,a0
    8000595e:	00d6c703          	lbu	a4,13(a3)
    80005962:	9732                	add	a4,a4,a2
    80005964:	00070703          	lb	a4,0(a4)
    80005968:	00e686a3          	sb	a4,13(a3)
    8000596c:	000b3683          	ld	a3,0(s6)
    80005970:	96aa                	add	a3,a3,a0
    80005972:	00e6c703          	lbu	a4,14(a3)
    80005976:	9732                	add	a4,a4,a2
    80005978:	00070703          	lb	a4,0(a4)
    8000597c:	00e68723          	sb	a4,14(a3)
    80005980:	000b3683          	ld	a3,0(s6)
    80005984:	96aa                	add	a3,a3,a0
    80005986:	00f6c703          	lbu	a4,15(a3)
    8000598a:	9732                	add	a4,a4,a2
    8000598c:	00070703          	lb	a4,0(a4)
    80005990:	00e687a3          	sb	a4,15(a3)
    80005994:	15fd                	addi	a1,a1,-1
    80005996:	0541                	addi	a0,a0,16
    80005998:	ea059ee3          	bnez	a1,80005854 <AES_Encrypt+0x273a>
    8000599c:	4541                	li	a0,16
    8000599e:	65a2                	ld	a1,8(sp)
    800059a0:	6642                	ld	a2,16(sp)
    800059a2:	38a5cc63          	blt	a1,a0,80005d3a <AES_Encrypt+0x2c20>
    800059a6:	6208                	ld	a0,0(a2)
    800059a8:	02c10993          	addi	s3,sp,44
    800059ac:	03010a93          	addi	s5,sp,48
    800059b0:	65e2                	ld	a1,24(sp)
    800059b2:	0205dc93          	srli	s9,a1,0x20
    800059b6:	fffc8d13          	addi	s10,s9,-1
    800059ba:	02050493          	addi	s1,a0,32
    800059be:	4d85                	li	s11,1
    800059c0:	4909                	li	s2,2
    800059c2:	5bfd                	li	s7,-1
    800059c4:	fe04bc03          	ld	s8,-32(s1)
    800059c8:	fe84b403          	ld	s0,-24(s1)
    800059cc:	d802                	sw	zero,48(sp)
    800059ce:	f402                	sd	zero,40(sp)
    800059d0:	420c5513          	srai	a0,s8,0x20
    800059d4:	102c                	addi	a1,sp,40
    800059d6:	863fc0ef          	jal	80002238 <gmul_>
    800059da:	0004051b          	sext.w	a0,s0
    800059de:	85ce                	mv	a1,s3
    800059e0:	859fc0ef          	jal	80002238 <gmul_>
    800059e4:	42045513          	srai	a0,s0,0x20
    800059e8:	85d6                	mv	a1,s5
    800059ea:	84ffc0ef          	jal	80002238 <gmul_>
    800059ee:	5522                	lw	a0,40(sp)
    800059f0:	7582                	ld	a1,32(sp)
    800059f2:	00bc75b3          	and	a1,s8,a1
    800059f6:	1502                	slli	a0,a0,0x20
    800059f8:	8d4d                	or	a0,a0,a1
    800059fa:	55c2                	lw	a1,48(sp)
    800059fc:	02c16603          	lwu	a2,44(sp)
    80005a00:	1582                	slli	a1,a1,0x20
    80005a02:	8dd1                	or	a1,a1,a2
    80005a04:	fea4b023          	sd	a0,-32(s1)
    80005a08:	feb4b423          	sd	a1,-24(s1)
    80005a0c:	0e0d0163          	beqz	s10,80005aee <AES_Encrypt+0x29d4>
    80005a10:	ff04bc03          	ld	s8,-16(s1)
    80005a14:	ff84b403          	ld	s0,-8(s1)
    80005a18:	d802                	sw	zero,48(sp)
    80005a1a:	f402                	sd	zero,40(sp)
    80005a1c:	420c5513          	srai	a0,s8,0x20
    80005a20:	102c                	addi	a1,sp,40
    80005a22:	817fc0ef          	jal	80002238 <gmul_>
    80005a26:	0004051b          	sext.w	a0,s0
    80005a2a:	85ce                	mv	a1,s3
    80005a2c:	80dfc0ef          	jal	80002238 <gmul_>
    80005a30:	42045513          	srai	a0,s0,0x20
    80005a34:	85d6                	mv	a1,s5
    80005a36:	803fc0ef          	jal	80002238 <gmul_>
    80005a3a:	5522                	lw	a0,40(sp)
    80005a3c:	7582                	ld	a1,32(sp)
    80005a3e:	00bc75b3          	and	a1,s8,a1
    80005a42:	1502                	slli	a0,a0,0x20
    80005a44:	8d4d                	or	a0,a0,a1
    80005a46:	55c2                	lw	a1,48(sp)
    80005a48:	02c16603          	lwu	a2,44(sp)
    80005a4c:	1582                	slli	a1,a1,0x20
    80005a4e:	8dd1                	or	a1,a1,a2
    80005a50:	fea4b823          	sd	a0,-16(s1)
    80005a54:	feb4bc23          	sd	a1,-8(s1)
    80005a58:	09bd0b63          	beq	s10,s11,80005aee <AES_Encrypt+0x29d4>
    80005a5c:	0004bc03          	ld	s8,0(s1)
    80005a60:	6480                	ld	s0,8(s1)
    80005a62:	d802                	sw	zero,48(sp)
    80005a64:	f402                	sd	zero,40(sp)
    80005a66:	420c5513          	srai	a0,s8,0x20
    80005a6a:	102c                	addi	a1,sp,40
    80005a6c:	fccfc0ef          	jal	80002238 <gmul_>
    80005a70:	0004051b          	sext.w	a0,s0
    80005a74:	85ce                	mv	a1,s3
    80005a76:	fc2fc0ef          	jal	80002238 <gmul_>
    80005a7a:	42045513          	srai	a0,s0,0x20
    80005a7e:	85d6                	mv	a1,s5
    80005a80:	fb8fc0ef          	jal	80002238 <gmul_>
    80005a84:	5522                	lw	a0,40(sp)
    80005a86:	7582                	ld	a1,32(sp)
    80005a88:	00bc75b3          	and	a1,s8,a1
    80005a8c:	1502                	slli	a0,a0,0x20
    80005a8e:	8d4d                	or	a0,a0,a1
    80005a90:	55c2                	lw	a1,48(sp)
    80005a92:	02c16603          	lwu	a2,44(sp)
    80005a96:	1582                	slli	a1,a1,0x20
    80005a98:	8dd1                	or	a1,a1,a2
    80005a9a:	e088                	sd	a0,0(s1)
    80005a9c:	e48c                	sd	a1,8(s1)
    80005a9e:	052d0863          	beq	s10,s2,80005aee <AES_Encrypt+0x29d4>
    80005aa2:	0104bc03          	ld	s8,16(s1)
    80005aa6:	6c80                	ld	s0,24(s1)
    80005aa8:	d802                	sw	zero,48(sp)
    80005aaa:	f402                	sd	zero,40(sp)
    80005aac:	420c5513          	srai	a0,s8,0x20
    80005ab0:	102c                	addi	a1,sp,40
    80005ab2:	f86fc0ef          	jal	80002238 <gmul_>
    80005ab6:	0004051b          	sext.w	a0,s0
    80005aba:	85ce                	mv	a1,s3
    80005abc:	f7cfc0ef          	jal	80002238 <gmul_>
    80005ac0:	42045513          	srai	a0,s0,0x20
    80005ac4:	85d6                	mv	a1,s5
    80005ac6:	f72fc0ef          	jal	80002238 <gmul_>
    80005aca:	5522                	lw	a0,40(sp)
    80005acc:	7582                	ld	a1,32(sp)
    80005ace:	00bc75b3          	and	a1,s8,a1
    80005ad2:	1502                	slli	a0,a0,0x20
    80005ad4:	8d4d                	or	a0,a0,a1
    80005ad6:	55c2                	lw	a1,48(sp)
    80005ad8:	02c16603          	lwu	a2,44(sp)
    80005adc:	1582                	slli	a1,a1,0x20
    80005ade:	8dd1                	or	a1,a1,a2
    80005ae0:	e888                	sd	a0,16(s1)
    80005ae2:	ec8c                	sd	a1,24(s1)
    80005ae4:	1d71                	addi	s10,s10,-4
    80005ae6:	04048493          	addi	s1,s1,64
    80005aea:	ed7d1de3          	bne	s10,s7,800059c4 <AES_Encrypt+0x28aa>
    80005aee:	4541                	li	a0,16
    80005af0:	65a2                	ld	a1,8(sp)
    80005af2:	24a5c463          	blt	a1,a0,80005d3a <AES_Encrypt+0x2c20>
    80005af6:	4501                	li	a0,0
    80005af8:	000b3583          	ld	a1,0(s6)
    80005afc:	0a0a0603          	lb	a2,160(s4)
    80005b00:	95aa                	add	a1,a1,a0
    80005b02:	00058683          	lb	a3,0(a1)
    80005b06:	8e35                	xor	a2,a2,a3
    80005b08:	00c58023          	sb	a2,0(a1)
    80005b0c:	000b3583          	ld	a1,0(s6)
    80005b10:	0a1a0603          	lb	a2,161(s4)
    80005b14:	95aa                	add	a1,a1,a0
    80005b16:	00158683          	lb	a3,1(a1)
    80005b1a:	8e35                	xor	a2,a2,a3
    80005b1c:	00c580a3          	sb	a2,1(a1)
    80005b20:	000b3583          	ld	a1,0(s6)
    80005b24:	0a2a0603          	lb	a2,162(s4)
    80005b28:	95aa                	add	a1,a1,a0
    80005b2a:	00258683          	lb	a3,2(a1)
    80005b2e:	8e35                	xor	a2,a2,a3
    80005b30:	00c58123          	sb	a2,2(a1)
    80005b34:	000b3583          	ld	a1,0(s6)
    80005b38:	0a3a0603          	lb	a2,163(s4)
    80005b3c:	95aa                	add	a1,a1,a0
    80005b3e:	00358683          	lb	a3,3(a1)
    80005b42:	8e35                	xor	a2,a2,a3
    80005b44:	00c581a3          	sb	a2,3(a1)
    80005b48:	000b3583          	ld	a1,0(s6)
    80005b4c:	0a4a0603          	lb	a2,164(s4)
    80005b50:	95aa                	add	a1,a1,a0
    80005b52:	00458683          	lb	a3,4(a1)
    80005b56:	8e35                	xor	a2,a2,a3
    80005b58:	00c58223          	sb	a2,4(a1)
    80005b5c:	000b3583          	ld	a1,0(s6)
    80005b60:	0a5a0603          	lb	a2,165(s4)
    80005b64:	95aa                	add	a1,a1,a0
    80005b66:	00558683          	lb	a3,5(a1)
    80005b6a:	8e35                	xor	a2,a2,a3
    80005b6c:	00c582a3          	sb	a2,5(a1)
    80005b70:	000b3583          	ld	a1,0(s6)
    80005b74:	0a6a0603          	lb	a2,166(s4)
    80005b78:	95aa                	add	a1,a1,a0
    80005b7a:	00658683          	lb	a3,6(a1)
    80005b7e:	8e35                	xor	a2,a2,a3
    80005b80:	00c58323          	sb	a2,6(a1)
    80005b84:	000b3583          	ld	a1,0(s6)
    80005b88:	0a7a0603          	lb	a2,167(s4)
    80005b8c:	95aa                	add	a1,a1,a0
    80005b8e:	00758683          	lb	a3,7(a1)
    80005b92:	8e35                	xor	a2,a2,a3
    80005b94:	00c583a3          	sb	a2,7(a1)
    80005b98:	000b3583          	ld	a1,0(s6)
    80005b9c:	0a8a0603          	lb	a2,168(s4)
    80005ba0:	95aa                	add	a1,a1,a0
    80005ba2:	00858683          	lb	a3,8(a1)
    80005ba6:	8e35                	xor	a2,a2,a3
    80005ba8:	00c58423          	sb	a2,8(a1)
    80005bac:	000b3583          	ld	a1,0(s6)
    80005bb0:	0a9a0603          	lb	a2,169(s4)
    80005bb4:	95aa                	add	a1,a1,a0
    80005bb6:	00958683          	lb	a3,9(a1)
    80005bba:	8e35                	xor	a2,a2,a3
    80005bbc:	00c584a3          	sb	a2,9(a1)
    80005bc0:	000b3583          	ld	a1,0(s6)
    80005bc4:	0aaa0603          	lb	a2,170(s4)
    80005bc8:	95aa                	add	a1,a1,a0
    80005bca:	00a58683          	lb	a3,10(a1)
