
mainop_O2U4_YY.riscv:     file format elf64-littleriscv


Disassembly of section .text.init:

0000000080000000 <_start>:
    80000000:	4081                	li	ra,0
    80000002:	4101                	li	sp,0
    80000004:	4181                	li	gp,0
    80000006:	4201                	li	tp,0
    80000008:	4281                	li	t0,0
    8000000a:	4301                	li	t1,0
    8000000c:	4381                	li	t2,0
    8000000e:	4401                	li	s0,0
    80000010:	4481                	li	s1,0
    80000012:	4501                	li	a0,0
    80000014:	4581                	li	a1,0
    80000016:	4601                	li	a2,0
    80000018:	4681                	li	a3,0
    8000001a:	4701                	li	a4,0
    8000001c:	4781                	li	a5,0
    8000001e:	4801                	li	a6,0
    80000020:	4881                	li	a7,0
    80000022:	4901                	li	s2,0
    80000024:	4981                	li	s3,0
    80000026:	4a01                	li	s4,0
    80000028:	4a81                	li	s5,0
    8000002a:	4b01                	li	s6,0
    8000002c:	4b81                	li	s7,0
    8000002e:	4c01                	li	s8,0
    80000030:	4c81                	li	s9,0
    80000032:	4d01                	li	s10,0
    80000034:	4d81                	li	s11,0
    80000036:	4e01                	li	t3,0
    80000038:	4e81                	li	t4,0
    8000003a:	4f01                	li	t5,0
    8000003c:	4f81                	li	t6,0
    8000003e:	62f9                	lui	t0,0x1e
    80000040:	3002a073          	csrs	mstatus,t0
    80000044:	4285                	li	t0,1
    80000046:	02fe                	slli	t0,t0,0x1f
    80000048:	0002d863          	bgez	t0,80000058 <_start+0x58>
    8000004c:	4505                	li	a0,1
    8000004e:	00001297          	auipc	t0,0x1
    80000052:	faa2a923          	sw	a0,-78(t0) # 80001000 <tohost>
    80000056:	bfdd                	j	8000004c <_start+0x4c>
    80000058:	00000297          	auipc	t0,0x0
    8000005c:	09028293          	addi	t0,t0,144 # 800000e8 <_start+0xe8>
    80000060:	30529073          	csrw	mtvec,t0
    80000064:	00301073          	fscsr	zero
    80000068:	f0000053          	fmv.w.x	ft0,zero
    8000006c:	f00000d3          	fmv.w.x	ft1,zero
    80000070:	f0000153          	fmv.w.x	ft2,zero
    80000074:	f00001d3          	fmv.w.x	ft3,zero
    80000078:	f0000253          	fmv.w.x	ft4,zero
    8000007c:	f00002d3          	fmv.w.x	ft5,zero
    80000080:	f0000353          	fmv.w.x	ft6,zero
    80000084:	f00003d3          	fmv.w.x	ft7,zero
    80000088:	f0000453          	fmv.w.x	fs0,zero
    8000008c:	f00004d3          	fmv.w.x	fs1,zero
    80000090:	f0000553          	fmv.w.x	fa0,zero
    80000094:	f00005d3          	fmv.w.x	fa1,zero
    80000098:	f0000653          	fmv.w.x	fa2,zero
    8000009c:	f00006d3          	fmv.w.x	fa3,zero
    800000a0:	f0000753          	fmv.w.x	fa4,zero
    800000a4:	f00007d3          	fmv.w.x	fa5,zero
    800000a8:	f0000853          	fmv.w.x	fa6,zero
    800000ac:	f00008d3          	fmv.w.x	fa7,zero
    800000b0:	f0000953          	fmv.w.x	fs2,zero
    800000b4:	f00009d3          	fmv.w.x	fs3,zero
    800000b8:	f0000a53          	fmv.w.x	fs4,zero
    800000bc:	f0000ad3          	fmv.w.x	fs5,zero
    800000c0:	f0000b53          	fmv.w.x	fs6,zero
    800000c4:	f0000bd3          	fmv.w.x	fs7,zero
    800000c8:	f0000c53          	fmv.w.x	fs8,zero
    800000cc:	f0000cd3          	fmv.w.x	fs9,zero
    800000d0:	f0000d53          	fmv.w.x	fs10,zero
    800000d4:	f0000dd3          	fmv.w.x	fs11,zero
    800000d8:	f0000e53          	fmv.w.x	ft8,zero
    800000dc:	f0000ed3          	fmv.w.x	ft9,zero
    800000e0:	f0000f53          	fmv.w.x	ft10,zero
    800000e4:	f0000fd3          	fmv.w.x	ft11,zero
    800000e8:	00000297          	auipc	t0,0x0
    800000ec:	03c28293          	addi	t0,t0,60 # 80000124 <trap_entry>
    800000f0:	30529073          	csrw	mtvec,t0
    800000f4:	00006197          	auipc	gp,0x6
    800000f8:	d6c18193          	addi	gp,gp,-660 # 80005e60 <__global_pointer$>
    800000fc:	00007217          	auipc	tp,0x7
    80000100:	04320213          	addi	tp,tp,67 # 8000713f <_end+0x3f>
    80000104:	fc027213          	andi	tp,tp,-64
    80000108:	f1402573          	csrr	a0,mhartid
    8000010c:	4585                	li	a1,1
    8000010e:	00b57063          	bgeu	a0,a1,8000010e <_start+0x10e>
    80000112:	00150113          	addi	sp,a0,1
    80000116:	0146                	slli	sp,sp,0x11
    80000118:	9112                	add	sp,sp,tp
    8000011a:	01151613          	slli	a2,a0,0x11
    8000011e:	9232                	add	tp,tp,a2
    80000120:	3c50406f          	j	80004ce4 <_init>

0000000080000124 <trap_entry>:
    80000124:	716d                	addi	sp,sp,-272
    80000126:	e406                	sd	ra,8(sp)
    80000128:	e80a                	sd	sp,16(sp)
    8000012a:	ec0e                	sd	gp,24(sp)
    8000012c:	f012                	sd	tp,32(sp)
    8000012e:	f416                	sd	t0,40(sp)
    80000130:	f81a                	sd	t1,48(sp)
    80000132:	fc1e                	sd	t2,56(sp)
    80000134:	e0a2                	sd	s0,64(sp)
    80000136:	e4a6                	sd	s1,72(sp)
    80000138:	e8aa                	sd	a0,80(sp)
    8000013a:	ecae                	sd	a1,88(sp)
    8000013c:	f0b2                	sd	a2,96(sp)
    8000013e:	f4b6                	sd	a3,104(sp)
    80000140:	f8ba                	sd	a4,112(sp)
    80000142:	fcbe                	sd	a5,120(sp)
    80000144:	e142                	sd	a6,128(sp)
    80000146:	e546                	sd	a7,136(sp)
    80000148:	e94a                	sd	s2,144(sp)
    8000014a:	ed4e                	sd	s3,152(sp)
    8000014c:	f152                	sd	s4,160(sp)
    8000014e:	f556                	sd	s5,168(sp)
    80000150:	f95a                	sd	s6,176(sp)
    80000152:	fd5e                	sd	s7,184(sp)
    80000154:	e1e2                	sd	s8,192(sp)
    80000156:	e5e6                	sd	s9,200(sp)
    80000158:	e9ea                	sd	s10,208(sp)
    8000015a:	edee                	sd	s11,216(sp)
    8000015c:	f1f2                	sd	t3,224(sp)
    8000015e:	f5f6                	sd	t4,232(sp)
    80000160:	f9fa                	sd	t5,240(sp)
    80000162:	fdfe                	sd	t6,248(sp)
    80000164:	34202573          	csrr	a0,mcause
    80000168:	341025f3          	csrr	a1,mepc
    8000016c:	860a                	mv	a2,sp
    8000016e:	1af040ef          	jal	80004b1c <handle_trap>
    80000172:	34151073          	csrw	mepc,a0
    80000176:	6289                	lui	t0,0x2
    80000178:	8002829b          	addiw	t0,t0,-2048 # 1800 <buflen.1+0x17c0>
    8000017c:	3002a073          	csrs	mstatus,t0
    80000180:	60a2                	ld	ra,8(sp)
    80000182:	6142                	ld	sp,16(sp)
    80000184:	61e2                	ld	gp,24(sp)
    80000186:	7202                	ld	tp,32(sp)
    80000188:	72a2                	ld	t0,40(sp)
    8000018a:	7342                	ld	t1,48(sp)
    8000018c:	73e2                	ld	t2,56(sp)
    8000018e:	6406                	ld	s0,64(sp)
    80000190:	64a6                	ld	s1,72(sp)
    80000192:	6546                	ld	a0,80(sp)
    80000194:	65e6                	ld	a1,88(sp)
    80000196:	7606                	ld	a2,96(sp)
    80000198:	76a6                	ld	a3,104(sp)
    8000019a:	7746                	ld	a4,112(sp)
    8000019c:	77e6                	ld	a5,120(sp)
    8000019e:	680a                	ld	a6,128(sp)
    800001a0:	68aa                	ld	a7,136(sp)
    800001a2:	694a                	ld	s2,144(sp)
    800001a4:	69ea                	ld	s3,152(sp)
    800001a6:	7a0a                	ld	s4,160(sp)
    800001a8:	7aaa                	ld	s5,168(sp)
    800001aa:	7b4a                	ld	s6,176(sp)
    800001ac:	7bea                	ld	s7,184(sp)
    800001ae:	6c0e                	ld	s8,192(sp)
    800001b0:	6cae                	ld	s9,200(sp)
    800001b2:	6d4e                	ld	s10,208(sp)
    800001b4:	6dee                	ld	s11,216(sp)
    800001b6:	7e0e                	ld	t3,224(sp)
    800001b8:	7eae                	ld	t4,232(sp)
    800001ba:	7f4e                	ld	t5,240(sp)
    800001bc:	7fee                	ld	t6,248(sp)
    800001be:	6151                	addi	sp,sp,272
    800001c0:	30200073          	mret
    800001c4:	0000                	unimp

Disassembly of section .text:

0000000080002000 <d2ull>:
    80002000:	e2050553          	fmv.x.d	a0,fa0
    80002004:	8082                	ret

0000000080002006 <ull2d>:
    80002006:	f2050553          	fmv.d.x	fa0,a0
    8000200a:	8082                	ret

000000008000200c <KeyExpansion>:
    8000200c:	7119                	addi	sp,sp,-128
    8000200e:	fc86                	sd	ra,120(sp)
    80002010:	f8a2                	sd	s0,112(sp)
    80002012:	f4a6                	sd	s1,104(sp)
    80002014:	f0ca                	sd	s2,96(sp)
    80002016:	ecce                	sd	s3,88(sp)
    80002018:	e8d2                	sd	s4,80(sp)
    8000201a:	e4d6                	sd	s5,72(sp)
    8000201c:	e0da                	sd	s6,64(sp)
    8000201e:	fc5e                	sd	s7,56(sp)
    80002020:	f862                	sd	s8,48(sp)
    80002022:	f466                	sd	s9,40(sp)
    80002024:	f06a                	sd	s10,32(sp)
    80002026:	ec6e                	sd	s11,24(sp)
    80002028:	4601                	li	a2,0
    8000202a:	0505                	addi	a0,a0,1
    8000202c:	46c1                	li	a3,16
    8000202e:	00c50733          	add	a4,a0,a2
    80002032:	fff70783          	lb	a5,-1(a4)
    80002036:	00c584b3          	add	s1,a1,a2
    8000203a:	00f48023          	sb	a5,0(s1)
    8000203e:	00070783          	lb	a5,0(a4)
    80002042:	00f480a3          	sb	a5,1(s1)
    80002046:	00170783          	lb	a5,1(a4)
    8000204a:	00f48123          	sb	a5,2(s1)
    8000204e:	00270703          	lb	a4,2(a4)
    80002052:	0611                	addi	a2,a2,4
    80002054:	00e481a3          	sb	a4,3(s1)
    80002058:	fcd61be3          	bne	a2,a3,8000202e <KeyExpansion+0x22>
    8000205c:	00c5c303          	lbu	t1,12(a1)
    80002060:	00d5c703          	lbu	a4,13(a1)
    80002064:	00003517          	auipc	a0,0x3
    80002068:	45d50513          	addi	a0,a0,1117 # 800054c1 <Rcon>
    8000206c:	00150603          	lb	a2,1(a0)
    80002070:	82aa                	mv	t0,a0
    80002072:	00003517          	auipc	a0,0x3
    80002076:	34f50513          	addi	a0,a0,847 # 800053c1 <sbox>
    8000207a:	00e506b3          	add	a3,a0,a4
    8000207e:	883a                	mv	a6,a4
    80002080:	00068683          	lb	a3,0(a3)
    80002084:	00e5c383          	lbu	t2,14(a1)
    80002088:	00f5c883          	lbu	a7,15(a1)
    8000208c:	8e35                	xor	a2,a2,a3
    8000208e:	006506b3          	add	a3,a0,t1
    80002092:	00068683          	lb	a3,0(a3)
    80002096:	01150733          	add	a4,a0,a7
    8000209a:	00070703          	lb	a4,0(a4)
    8000209e:	007507b3          	add	a5,a0,t2
    800020a2:	00058483          	lb	s1,0(a1)
    800020a6:	00078783          	lb	a5,0(a5)
    800020aa:	00158403          	lb	s0,1(a1)
    800020ae:	00964b33          	xor	s6,a2,s1
    800020b2:	01658823          	sb	s6,16(a1)
    800020b6:	0087cbb3          	xor	s7,a5,s0
    800020ba:	00258483          	lb	s1,2(a1)
    800020be:	017588a3          	sb	s7,17(a1)
    800020c2:	00358403          	lb	s0,3(a1)
    800020c6:	00974cb3          	xor	s9,a4,s1
    800020ca:	01958923          	sb	s9,18(a1)
    800020ce:	0086cc33          	xor	s8,a3,s0
    800020d2:	00458903          	lb	s2,4(a1)
    800020d6:	018589a3          	sb	s8,19(a1)
    800020da:	00558983          	lb	s3,5(a1)
    800020de:	012b4433          	xor	s0,s6,s2
    800020e2:	00858a23          	sb	s0,20(a1)
    800020e6:	013bc4b3          	xor	s1,s7,s3
    800020ea:	00658a03          	lb	s4,6(a1)
    800020ee:	00958aa3          	sb	s1,21(a1)
    800020f2:	00758a83          	lb	s5,7(a1)
    800020f6:	014cc633          	xor	a2,s9,s4
    800020fa:	00c58b23          	sb	a2,22(a1)
    800020fe:	015c47b3          	xor	a5,s8,s5
    80002102:	00858683          	lb	a3,8(a1)
    80002106:	00f58ba3          	sb	a5,23(a1)
    8000210a:	00958703          	lb	a4,9(a1)
    8000210e:	00d44e33          	xor	t3,s0,a3
    80002112:	01c58c23          	sb	t3,24(a1)
    80002116:	00e4ceb3          	xor	t4,s1,a4
    8000211a:	00a58683          	lb	a3,10(a1)
    8000211e:	01d58ca3          	sb	t4,25(a1)
    80002122:	00b58703          	lb	a4,11(a1)
    80002126:	00d64fb3          	xor	t6,a2,a3
    8000212a:	01f58d23          	sb	t6,26(a1)
    8000212e:	00e7cf33          	xor	t5,a5,a4
    80002132:	01e58da3          	sb	t5,27(a1)
    80002136:	006e4633          	xor	a2,t3,t1
    8000213a:	00c58e23          	sb	a2,28(a1)
    8000213e:	010ec6b3          	xor	a3,t4,a6
    80002142:	8dc2                	mv	s11,a6
    80002144:	e842                	sd	a6,16(sp)
    80002146:	00d58ea3          	sb	a3,29(a1)
    8000214a:	007fc733          	xor	a4,t6,t2
    8000214e:	00e58f23          	sb	a4,30(a1)
    80002152:	011f47b3          	xor	a5,t5,a7
    80002156:	00f58fa3          	sb	a5,31(a1)
    8000215a:	00228403          	lb	s0,2(t0)
    8000215e:	0ff6f693          	zext.b	a3,a3
    80002162:	96aa                	add	a3,a3,a0
    80002164:	00068683          	lb	a3,0(a3)
    80002168:	8ea1                	xor	a3,a3,s0
    8000216a:	0ff67613          	zext.b	a2,a2
    8000216e:	962a                	add	a2,a2,a0
    80002170:	00060403          	lb	s0,0(a2)
    80002174:	0ff7f613          	zext.b	a2,a5
    80002178:	962a                	add	a2,a2,a0
    8000217a:	00060483          	lb	s1,0(a2)
    8000217e:	0ff77613          	zext.b	a2,a4
    80002182:	962a                	add	a2,a2,a0
    80002184:	00060703          	lb	a4,0(a2)
    80002188:	0166cb33          	xor	s6,a3,s6
    8000218c:	03658023          	sb	s6,32(a1)
    80002190:	01774bb3          	xor	s7,a4,s7
    80002194:	037580a3          	sb	s7,33(a1)
    80002198:	0194ccb3          	xor	s9,s1,s9
    8000219c:	03958123          	sb	s9,34(a1)
    800021a0:	01844c33          	xor	s8,s0,s8
    800021a4:	038581a3          	sb	s8,35(a1)
    800021a8:	0126c933          	xor	s2,a3,s2
    800021ac:	03258223          	sb	s2,36(a1)
    800021b0:	01374d33          	xor	s10,a4,s3
    800021b4:	03a582a3          	sb	s10,37(a1)
    800021b8:	0144c9b3          	xor	s3,s1,s4
    800021bc:	03358323          	sb	s3,38(a1)
    800021c0:	01544a33          	xor	s4,s0,s5
    800021c4:	034583a3          	sb	s4,39(a1)
    800021c8:	01c94433          	xor	s0,s2,t3
    800021cc:	02858423          	sb	s0,40(a1)
    800021d0:	01dd4433          	xor	s0,s10,t4
    800021d4:	028584a3          	sb	s0,41(a1)
    800021d8:	01f9c433          	xor	s0,s3,t6
    800021dc:	02858523          	sb	s0,42(a1)
    800021e0:	01ea4433          	xor	s0,s4,t5
    800021e4:	028585a3          	sb	s0,43(a1)
    800021e8:	00694833          	xor	a6,s2,t1
    800021ec:	03058623          	sb	a6,44(a1)
    800021f0:	01bd44b3          	xor	s1,s10,s11
    800021f4:	029586a3          	sb	s1,45(a1)
    800021f8:	0079cdb3          	xor	s11,s3,t2
    800021fc:	03b58723          	sb	s11,46(a1)
    80002200:	011a40b3          	xor	ra,s4,a7
    80002204:	021587a3          	sb	ra,47(a1)
    80002208:	00328703          	lb	a4,3(t0)
    8000220c:	0ff4f793          	zext.b	a5,s1
    80002210:	97aa                	add	a5,a5,a0
    80002212:	00078783          	lb	a5,0(a5)
    80002216:	8f3d                	xor	a4,a4,a5
    80002218:	0ff87793          	zext.b	a5,a6
    8000221c:	97aa                	add	a5,a5,a0
    8000221e:	00078a83          	lb	s5,0(a5)
    80002222:	0ff0f793          	zext.b	a5,ra
    80002226:	97aa                	add	a5,a5,a0
    80002228:	00078783          	lb	a5,0(a5)
    8000222c:	0ffdf613          	zext.b	a2,s11
    80002230:	962a                	add	a2,a2,a0
    80002232:	00060603          	lb	a2,0(a2)
    80002236:	01674733          	xor	a4,a4,s6
    8000223a:	02e58823          	sb	a4,48(a1)
    8000223e:	01764b33          	xor	s6,a2,s7
    80002242:	036588a3          	sb	s6,49(a1)
    80002246:	0197c7b3          	xor	a5,a5,s9
    8000224a:	02f58923          	sb	a5,50(a1)
    8000224e:	018acab3          	xor	s5,s5,s8
    80002252:	035589a3          	sb	s5,51(a1)
    80002256:	01274433          	xor	s0,a4,s2
    8000225a:	02858a23          	sb	s0,52(a1)
    8000225e:	01ab4433          	xor	s0,s6,s10
    80002262:	02858aa3          	sb	s0,53(a1)
    80002266:	0137c433          	xor	s0,a5,s3
    8000226a:	02858b23          	sb	s0,54(a1)
    8000226e:	014ac433          	xor	s0,s5,s4
    80002272:	02858ba3          	sb	s0,55(a1)
    80002276:	01c74e33          	xor	t3,a4,t3
    8000227a:	03c58c23          	sb	t3,56(a1)
    8000227e:	01db4eb3          	xor	t4,s6,t4
    80002282:	03d58ca3          	sb	t4,57(a1)
    80002286:	01f7cfb3          	xor	t6,a5,t6
    8000228a:	03f58d23          	sb	t6,58(a1)
    8000228e:	01eacf33          	xor	t5,s5,t5
    80002292:	03e58da3          	sb	t5,59(a1)
    80002296:	010e4433          	xor	s0,t3,a6
    8000229a:	02858e23          	sb	s0,60(a1)
    8000229e:	009ec4b3          	xor	s1,t4,s1
    800022a2:	02958ea3          	sb	s1,61(a1)
    800022a6:	01bfc633          	xor	a2,t6,s11
    800022aa:	02c58f23          	sb	a2,62(a1)
    800022ae:	001f46b3          	xor	a3,t5,ra
    800022b2:	02d58fa3          	sb	a3,63(a1)
    800022b6:	8096                	mv	ra,t0
    800022b8:	00428803          	lb	a6,4(t0)
    800022bc:	0ff4f493          	zext.b	s1,s1
    800022c0:	94aa                	add	s1,s1,a0
    800022c2:	00048483          	lb	s1,0(s1)
    800022c6:	009844b3          	xor	s1,a6,s1
    800022ca:	0ff47413          	zext.b	s0,s0
    800022ce:	942a                	add	s0,s0,a0
    800022d0:	00040403          	lb	s0,0(s0)
    800022d4:	0ff6f693          	zext.b	a3,a3
    800022d8:	96aa                	add	a3,a3,a0
    800022da:	00068683          	lb	a3,0(a3)
    800022de:	0ff67613          	zext.b	a2,a2
    800022e2:	962a                	add	a2,a2,a0
    800022e4:	00060603          	lb	a2,0(a2)
    800022e8:	00e4cdb3          	xor	s11,s1,a4
    800022ec:	05b58023          	sb	s11,64(a1)
    800022f0:	01664c33          	xor	s8,a2,s6
    800022f4:	058580a3          	sb	s8,65(a1)
    800022f8:	00f6c2b3          	xor	t0,a3,a5
    800022fc:	04558123          	sb	t0,66(a1)
    80002300:	01544cb3          	xor	s9,s0,s5
    80002304:	059581a3          	sb	s9,67(a1)
    80002308:	0124cb33          	xor	s6,s1,s2
    8000230c:	05658223          	sb	s6,68(a1)
    80002310:	01a64ab3          	xor	s5,a2,s10
    80002314:	055582a3          	sb	s5,69(a1)
    80002318:	0136cbb3          	xor	s7,a3,s3
    8000231c:	05758323          	sb	s7,70(a1)
    80002320:	01444a33          	xor	s4,s0,s4
    80002324:	054583a3          	sb	s4,71(a1)
    80002328:	01cb4733          	xor	a4,s6,t3
    8000232c:	04e58423          	sb	a4,72(a1)
    80002330:	01dac733          	xor	a4,s5,t4
    80002334:	04e584a3          	sb	a4,73(a1)
    80002338:	01fbc733          	xor	a4,s7,t6
    8000233c:	04e58523          	sb	a4,74(a1)
    80002340:	01ea4733          	xor	a4,s4,t5
    80002344:	04e585a3          	sb	a4,75(a1)
    80002348:	0064c733          	xor	a4,s1,t1
    8000234c:	04e58623          	sb	a4,76(a1)
    80002350:	87ba                	mv	a5,a4
    80002352:	6742                	ld	a4,16(sp)
    80002354:	00e649b3          	xor	s3,a2,a4
    80002358:	053586a3          	sb	s3,77(a1)
    8000235c:	0076c633          	xor	a2,a3,t2
    80002360:	04c58723          	sb	a2,78(a1)
    80002364:	011444b3          	xor	s1,s0,a7
    80002368:	049587a3          	sb	s1,79(a1)
    8000236c:	00508703          	lb	a4,5(ra)
    80002370:	0ff9f693          	zext.b	a3,s3
    80002374:	96aa                	add	a3,a3,a0
    80002376:	00068683          	lb	a3,0(a3)
    8000237a:	00d74433          	xor	s0,a4,a3
    8000237e:	0ff7f693          	zext.b	a3,a5
    80002382:	833e                	mv	t1,a5
    80002384:	96aa                	add	a3,a3,a0
    80002386:	00068783          	lb	a5,0(a3)
    8000238a:	0ff4f713          	zext.b	a4,s1
    8000238e:	8826                	mv	a6,s1
    80002390:	972a                	add	a4,a4,a0
    80002392:	00070703          	lb	a4,0(a4)
    80002396:	0ff67493          	zext.b	s1,a2
    8000239a:	86b2                	mv	a3,a2
    8000239c:	94aa                	add	s1,s1,a0
    8000239e:	00048483          	lb	s1,0(s1)
    800023a2:	01b44d33          	xor	s10,s0,s11
    800023a6:	05a58823          	sb	s10,80(a1)
    800023aa:	0184c433          	xor	s0,s1,s8
    800023ae:	048588a3          	sb	s0,81(a1)
    800023b2:	005744b3          	xor	s1,a4,t0
    800023b6:	04958923          	sb	s1,82(a1)
    800023ba:	0197cc33          	xor	s8,a5,s9
    800023be:	058589a3          	sb	s8,83(a1)
    800023c2:	016d4733          	xor	a4,s10,s6
    800023c6:	04e58a23          	sb	a4,84(a1)
    800023ca:	01544733          	xor	a4,s0,s5
    800023ce:	04e58aa3          	sb	a4,85(a1)
    800023d2:	0174c733          	xor	a4,s1,s7
    800023d6:	04e58b23          	sb	a4,86(a1)
    800023da:	014c4733          	xor	a4,s8,s4
    800023de:	04e58ba3          	sb	a4,87(a1)
    800023e2:	01cd4e33          	xor	t3,s10,t3
    800023e6:	05c58c23          	sb	t3,88(a1)
    800023ea:	01d44eb3          	xor	t4,s0,t4
    800023ee:	05d58ca3          	sb	t4,89(a1)
    800023f2:	01f4c8b3          	xor	a7,s1,t6
    800023f6:	05158d23          	sb	a7,90(a1)
    800023fa:	01ec43b3          	xor	t2,s8,t5
    800023fe:	04758da3          	sb	t2,91(a1)
    80002402:	8d9a                	mv	s11,t1
    80002404:	e01a                	sd	t1,0(sp)
    80002406:	006e4733          	xor	a4,t3,t1
    8000240a:	04e58e23          	sb	a4,92(a1)
    8000240e:	013ec7b3          	xor	a5,t4,s3
    80002412:	04f58ea3          	sb	a5,93(a1)
    80002416:	00c8c633          	xor	a2,a7,a2
    8000241a:	8fb6                	mv	t6,a3
    8000241c:	e436                	sd	a3,8(sp)
    8000241e:	04c58f23          	sb	a2,94(a1)
    80002422:	0103c6b3          	xor	a3,t2,a6
    80002426:	8342                	mv	t1,a6
    80002428:	e842                	sd	a6,16(sp)
    8000242a:	04d58fa3          	sb	a3,95(a1)
    8000242e:	00608f03          	lb	t5,6(ra)
    80002432:	8286                	mv	t0,ra
    80002434:	0ff7f793          	zext.b	a5,a5
    80002438:	97aa                	add	a5,a5,a0
    8000243a:	00078783          	lb	a5,0(a5)
    8000243e:	00ff47b3          	xor	a5,t5,a5
    80002442:	0ff77713          	zext.b	a4,a4
    80002446:	972a                	add	a4,a4,a0
    80002448:	00070703          	lb	a4,0(a4)
    8000244c:	0ff6f693          	zext.b	a3,a3
    80002450:	96aa                	add	a3,a3,a0
    80002452:	00068683          	lb	a3,0(a3)
    80002456:	0ff67613          	zext.b	a2,a2
    8000245a:	962a                	add	a2,a2,a0
    8000245c:	00060603          	lb	a2,0(a2)
    80002460:	01a7cf33          	xor	t5,a5,s10
    80002464:	07e58023          	sb	t5,96(a1)
    80002468:	00864933          	xor	s2,a2,s0
    8000246c:	072580a3          	sb	s2,97(a1)
    80002470:	0096ccb3          	xor	s9,a3,s1
    80002474:	07958123          	sb	s9,98(a1)
    80002478:	01874c33          	xor	s8,a4,s8
    8000247c:	078581a3          	sb	s8,99(a1)
    80002480:	0167cb33          	xor	s6,a5,s6
    80002484:	07658223          	sb	s6,100(a1)
    80002488:	01564d33          	xor	s10,a2,s5
    8000248c:	07a582a3          	sb	s10,101(a1)
    80002490:	0176cab3          	xor	s5,a3,s7
    80002494:	07558323          	sb	s5,102(a1)
    80002498:	01474a33          	xor	s4,a4,s4
    8000249c:	074583a3          	sb	s4,103(a1)
    800024a0:	01cb4733          	xor	a4,s6,t3
    800024a4:	06e58423          	sb	a4,104(a1)
    800024a8:	01dd4733          	xor	a4,s10,t4
    800024ac:	06e584a3          	sb	a4,105(a1)
    800024b0:	011ac733          	xor	a4,s5,a7
    800024b4:	06e58523          	sb	a4,106(a1)
    800024b8:	007a4733          	xor	a4,s4,t2
    800024bc:	06e585a3          	sb	a4,107(a1)
    800024c0:	01bb4833          	xor	a6,s6,s11
    800024c4:	07058623          	sb	a6,108(a1)
    800024c8:	013d47b3          	xor	a5,s10,s3
    800024cc:	06f586a3          	sb	a5,109(a1)
    800024d0:	01facdb3          	xor	s11,s5,t6
    800024d4:	07b58723          	sb	s11,110(a1)
    800024d8:	006a40b3          	xor	ra,s4,t1
    800024dc:	061587a3          	sb	ra,111(a1)
    800024e0:	00728403          	lb	s0,7(t0)
    800024e4:	0ff7f493          	zext.b	s1,a5
    800024e8:	94aa                	add	s1,s1,a0
    800024ea:	00048483          	lb	s1,0(s1)
    800024ee:	8c25                	xor	s0,s0,s1
    800024f0:	0ff87493          	zext.b	s1,a6
    800024f4:	94aa                	add	s1,s1,a0
    800024f6:	00048b83          	lb	s7,0(s1)
    800024fa:	0ff0f493          	zext.b	s1,ra
    800024fe:	94aa                	add	s1,s1,a0
    80002500:	00048483          	lb	s1,0(s1)
    80002504:	0ffdf613          	zext.b	a2,s11
    80002508:	962a                	add	a2,a2,a0
    8000250a:	00060603          	lb	a2,0(a2)
    8000250e:	01e44433          	xor	s0,s0,t5
    80002512:	06858823          	sb	s0,112(a1)
    80002516:	01264633          	xor	a2,a2,s2
    8000251a:	06c588a3          	sb	a2,113(a1)
    8000251e:	0194ccb3          	xor	s9,s1,s9
    80002522:	07958923          	sb	s9,114(a1)
    80002526:	018bcbb3          	xor	s7,s7,s8
    8000252a:	077589a3          	sb	s7,115(a1)
    8000252e:	01644733          	xor	a4,s0,s6
    80002532:	06e58a23          	sb	a4,116(a1)
    80002536:	01a64733          	xor	a4,a2,s10
    8000253a:	06e58aa3          	sb	a4,117(a1)
    8000253e:	015cc733          	xor	a4,s9,s5
    80002542:	06e58b23          	sb	a4,118(a1)
    80002546:	014bc733          	xor	a4,s7,s4
    8000254a:	06e58ba3          	sb	a4,119(a1)
    8000254e:	01c44f33          	xor	t5,s0,t3
    80002552:	07e58c23          	sb	t5,120(a1)
    80002556:	01d64fb3          	xor	t6,a2,t4
    8000255a:	07f58ca3          	sb	t6,121(a1)
    8000255e:	011cc8b3          	xor	a7,s9,a7
    80002562:	07158d23          	sb	a7,122(a1)
    80002566:	007bc3b3          	xor	t2,s7,t2
    8000256a:	06758da3          	sb	t2,123(a1)
    8000256e:	010f4733          	xor	a4,t5,a6
    80002572:	06e58e23          	sb	a4,124(a1)
    80002576:	00ffc7b3          	xor	a5,t6,a5
    8000257a:	06f58ea3          	sb	a5,125(a1)
    8000257e:	01b8c6b3          	xor	a3,a7,s11
    80002582:	06d58f23          	sb	a3,126(a1)
    80002586:	0013c4b3          	xor	s1,t2,ra
    8000258a:	06958fa3          	sb	s1,127(a1)
    8000258e:	00828803          	lb	a6,8(t0)
    80002592:	0ff7f793          	zext.b	a5,a5
    80002596:	97aa                	add	a5,a5,a0
    80002598:	00078783          	lb	a5,0(a5)
    8000259c:	00f847b3          	xor	a5,a6,a5
    800025a0:	0ff77713          	zext.b	a4,a4
    800025a4:	972a                	add	a4,a4,a0
    800025a6:	00070703          	lb	a4,0(a4)
    800025aa:	0ff4f493          	zext.b	s1,s1
    800025ae:	94aa                	add	s1,s1,a0
    800025b0:	00048483          	lb	s1,0(s1)
    800025b4:	0ff6f693          	zext.b	a3,a3
    800025b8:	96aa                	add	a3,a3,a0
    800025ba:	00068683          	lb	a3,0(a3)
    800025be:	0087cc33          	xor	s8,a5,s0
    800025c2:	09858023          	sb	s8,128(a1)
    800025c6:	00c6cdb3          	xor	s11,a3,a2
    800025ca:	09b580a3          	sb	s11,129(a1)
    800025ce:	0194ccb3          	xor	s9,s1,s9
    800025d2:	09958123          	sb	s9,130(a1)
    800025d6:	01774bb3          	xor	s7,a4,s7
    800025da:	097581a3          	sb	s7,131(a1)
    800025de:	0167c0b3          	xor	ra,a5,s6
    800025e2:	08158223          	sb	ra,132(a1)
    800025e6:	01a6cb33          	xor	s6,a3,s10
    800025ea:	096582a3          	sb	s6,133(a1)
    800025ee:	0154cab3          	xor	s5,s1,s5
    800025f2:	09558323          	sb	s5,134(a1)
    800025f6:	01474a33          	xor	s4,a4,s4
    800025fa:	094583a3          	sb	s4,135(a1)
    800025fe:	01e0c633          	xor	a2,ra,t5
    80002602:	08c58423          	sb	a2,136(a1)
    80002606:	01fb4633          	xor	a2,s6,t6
    8000260a:	08c584a3          	sb	a2,137(a1)
    8000260e:	011ac633          	xor	a2,s5,a7
    80002612:	08c58523          	sb	a2,138(a1)
    80002616:	007a4633          	xor	a2,s4,t2
    8000261a:	08c585a3          	sb	a2,139(a1)
    8000261e:	6602                	ld	a2,0(sp)
    80002620:	00c7ce33          	xor	t3,a5,a2
    80002624:	09c58623          	sb	t3,140(a1)
    80002628:	0136ceb3          	xor	t4,a3,s3
    8000262c:	09d586a3          	sb	t4,141(a1)
    80002630:	6622                	ld	a2,8(sp)
    80002632:	00c4c333          	xor	t1,s1,a2
    80002636:	08658723          	sb	t1,142(a1)
    8000263a:	6642                	ld	a2,16(sp)
    8000263c:	00c74833          	xor	a6,a4,a2
    80002640:	090587a3          	sb	a6,143(a1)
    80002644:	8d16                	mv	s10,t0
    80002646:	00928603          	lb	a2,9(t0)
    8000264a:	0ffef693          	zext.b	a3,t4
    8000264e:	96aa                	add	a3,a3,a0
    80002650:	00068683          	lb	a3,0(a3)
    80002654:	8e35                	xor	a2,a2,a3
    80002656:	0ffe7693          	zext.b	a3,t3
    8000265a:	96aa                	add	a3,a3,a0
    8000265c:	00068683          	lb	a3,0(a3)
    80002660:	0ff87713          	zext.b	a4,a6
    80002664:	972a                	add	a4,a4,a0
    80002666:	00070703          	lb	a4,0(a4)
    8000266a:	0ff37793          	zext.b	a5,t1
    8000266e:	97aa                	add	a5,a5,a0
    80002670:	00078783          	lb	a5,0(a5)
    80002674:	018649b3          	xor	s3,a2,s8
    80002678:	09358823          	sb	s3,144(a1)
    8000267c:	01b7c7b3          	xor	a5,a5,s11
    80002680:	08f588a3          	sb	a5,145(a1)
    80002684:	01974733          	xor	a4,a4,s9
    80002688:	08e58923          	sb	a4,146(a1)
    8000268c:	0176cbb3          	xor	s7,a3,s7
    80002690:	097589a3          	sb	s7,147(a1)
    80002694:	0019c4b3          	xor	s1,s3,ra
    80002698:	08958a23          	sb	s1,148(a1)
    8000269c:	0167c4b3          	xor	s1,a5,s6
    800026a0:	08958aa3          	sb	s1,149(a1)
    800026a4:	015744b3          	xor	s1,a4,s5
    800026a8:	08958b23          	sb	s1,150(a1)
    800026ac:	014bc4b3          	xor	s1,s7,s4
    800026b0:	08958ba3          	sb	s1,151(a1)
    800026b4:	01e9c933          	xor	s2,s3,t5
    800026b8:	09258c23          	sb	s2,152(a1)
    800026bc:	01f7cf33          	xor	t5,a5,t6
    800026c0:	09e58ca3          	sb	t5,153(a1)
    800026c4:	011748b3          	xor	a7,a4,a7
    800026c8:	09158d23          	sb	a7,154(a1)
    800026cc:	007bc2b3          	xor	t0,s7,t2
    800026d0:	08558da3          	sb	t0,155(a1)
    800026d4:	01c94433          	xor	s0,s2,t3
    800026d8:	08858e23          	sb	s0,156(a1)
    800026dc:	01df44b3          	xor	s1,t5,t4
    800026e0:	08958ea3          	sb	s1,157(a1)
    800026e4:	0068c633          	xor	a2,a7,t1
    800026e8:	08c58f23          	sb	a2,158(a1)
    800026ec:	0102c6b3          	xor	a3,t0,a6
    800026f0:	08d58fa3          	sb	a3,159(a1)
    800026f4:	00ad0383          	lb	t2,10(s10)
    800026f8:	0ff4f493          	zext.b	s1,s1
    800026fc:	94aa                	add	s1,s1,a0
    800026fe:	00048483          	lb	s1,0(s1)
    80002702:	0093c4b3          	xor	s1,t2,s1
    80002706:	0ff47413          	zext.b	s0,s0
    8000270a:	942a                	add	s0,s0,a0
    8000270c:	00040403          	lb	s0,0(s0)
    80002710:	0ff6f693          	zext.b	a3,a3
    80002714:	96aa                	add	a3,a3,a0
    80002716:	00068683          	lb	a3,0(a3)
    8000271a:	0ff67613          	zext.b	a2,a2
    8000271e:	9532                	add	a0,a0,a2
    80002720:	00050503          	lb	a0,0(a0)
    80002724:	0134c633          	xor	a2,s1,s3
    80002728:	0ac58023          	sb	a2,160(a1)
    8000272c:	00f54633          	xor	a2,a0,a5
    80002730:	0ac580a3          	sb	a2,161(a1)
    80002734:	00e6c633          	xor	a2,a3,a4
    80002738:	0ac58123          	sb	a2,162(a1)
    8000273c:	01744633          	xor	a2,s0,s7
    80002740:	0ac581a3          	sb	a2,163(a1)
    80002744:	0014c633          	xor	a2,s1,ra
    80002748:	0ac58223          	sb	a2,164(a1)
    8000274c:	01654533          	xor	a0,a0,s6
    80002750:	0aa582a3          	sb	a0,165(a1)
    80002754:	0156c6b3          	xor	a3,a3,s5
    80002758:	0ad58323          	sb	a3,166(a1)
    8000275c:	01444733          	xor	a4,s0,s4
    80002760:	0ae583a3          	sb	a4,167(a1)
    80002764:	012647b3          	xor	a5,a2,s2
    80002768:	0af58423          	sb	a5,168(a1)
    8000276c:	01e547b3          	xor	a5,a0,t5
    80002770:	0af584a3          	sb	a5,169(a1)
    80002774:	0116c7b3          	xor	a5,a3,a7
    80002778:	0af58523          	sb	a5,170(a1)
    8000277c:	005747b3          	xor	a5,a4,t0
    80002780:	0af585a3          	sb	a5,171(a1)
    80002784:	01c64633          	xor	a2,a2,t3
    80002788:	0ac58623          	sb	a2,172(a1)
    8000278c:	01d54533          	xor	a0,a0,t4
    80002790:	0aa586a3          	sb	a0,173(a1)
    80002794:	0066c533          	xor	a0,a3,t1
    80002798:	0aa58723          	sb	a0,174(a1)
    8000279c:	01074533          	xor	a0,a4,a6
    800027a0:	0aa587a3          	sb	a0,175(a1)
    800027a4:	70e6                	ld	ra,120(sp)
    800027a6:	7446                	ld	s0,112(sp)
    800027a8:	74a6                	ld	s1,104(sp)
    800027aa:	7906                	ld	s2,96(sp)
    800027ac:	69e6                	ld	s3,88(sp)
    800027ae:	6a46                	ld	s4,80(sp)
    800027b0:	6aa6                	ld	s5,72(sp)
    800027b2:	6b06                	ld	s6,64(sp)
    800027b4:	7be2                	ld	s7,56(sp)
    800027b6:	7c42                	ld	s8,48(sp)
    800027b8:	7ca2                	ld	s9,40(sp)
    800027ba:	7d02                	ld	s10,32(sp)
    800027bc:	6de2                	ld	s11,24(sp)
    800027be:	6109                	addi	sp,sp,128
    800027c0:	8082                	ret

00000000800027c2 <AES_Encrypt>:
    800027c2:	7179                	addi	sp,sp,-48
    800027c4:	f406                	sd	ra,40(sp)
    800027c6:	f022                	sd	s0,32(sp)
    800027c8:	ec26                	sd	s1,24(sp)
    800027ca:	e84a                	sd	s2,16(sp)
    800027cc:	e44e                	sd	s3,8(sp)
    800027ce:	89b6                	mv	s3,a3
    800027d0:	8932                	mv	s2,a2
    800027d2:	84aa                	mv	s1,a0
    800027d4:	00003417          	auipc	s0,0x3
    800027d8:	ecc40413          	addi	s0,s0,-308 # 800056a0 <expandedKey>
    800027dc:	852e                	mv	a0,a1
    800027de:	85a2                	mv	a1,s0
    800027e0:	00000097          	auipc	ra,0x0
    800027e4:	82c080e7          	jalr	-2004(ra) # 8000200c <KeyExpansion>
    800027e8:	4541                	li	a0,16
    800027ea:	00a9d463          	bge	s3,a0,800027f2 <AES_Encrypt+0x30>
    800027ee:	70f0106f          	j	800046fc <AES_Encrypt+0x1f3a>
    800027f2:	00199513          	slli	a0,s3,0x1
    800027f6:	9171                	srli	a0,a0,0x3c
    800027f8:	00a9853b          	addw	a0,s3,a0
    800027fc:	4045551b          	sraiw	a0,a0,0x4
    80002800:	02051893          	slli	a7,a0,0x20
    80002804:	0208d613          	srli	a2,a7,0x20
    80002808:	46bd                	li	a3,15
    8000280a:	00003297          	auipc	t0,0x3
    8000280e:	e7e28293          	addi	t0,t0,-386 # 80005688 <pstate>
    80002812:	00d48733          	add	a4,s1,a3
    80002816:	ff170583          	lb	a1,-15(a4)
    8000281a:	00040783          	lb	a5,0(s0)
    8000281e:	0002b503          	ld	a0,0(t0)
    80002822:	8dbd                	xor	a1,a1,a5
    80002824:	9536                	add	a0,a0,a3
    80002826:	feb508a3          	sb	a1,-15(a0)
    8000282a:	ff270503          	lb	a0,-14(a4)
    8000282e:	00140583          	lb	a1,1(s0)
    80002832:	0002b783          	ld	a5,0(t0)
    80002836:	8d2d                	xor	a0,a0,a1
    80002838:	00d785b3          	add	a1,a5,a3
    8000283c:	fea58aa3          	sb	a0,-11(a1)
    80002840:	ff370503          	lb	a0,-13(a4)
    80002844:	00240583          	lb	a1,2(s0)
    80002848:	0002b783          	ld	a5,0(t0)
    8000284c:	8d2d                	xor	a0,a0,a1
    8000284e:	00d785b3          	add	a1,a5,a3
    80002852:	fea58ca3          	sb	a0,-7(a1)
    80002856:	ff470503          	lb	a0,-12(a4)
    8000285a:	00340583          	lb	a1,3(s0)
    8000285e:	0002b783          	ld	a5,0(t0)
    80002862:	8d2d                	xor	a0,a0,a1
    80002864:	00d785b3          	add	a1,a5,a3
    80002868:	fea58ea3          	sb	a0,-3(a1)
    8000286c:	ff570503          	lb	a0,-11(a4)
    80002870:	00440583          	lb	a1,4(s0)
    80002874:	0002b783          	ld	a5,0(t0)
    80002878:	8d2d                	xor	a0,a0,a1
    8000287a:	00d785b3          	add	a1,a5,a3
    8000287e:	fea58923          	sb	a0,-14(a1)
    80002882:	ff670503          	lb	a0,-10(a4)
    80002886:	00540583          	lb	a1,5(s0)
    8000288a:	0002b783          	ld	a5,0(t0)
    8000288e:	8d2d                	xor	a0,a0,a1
    80002890:	00d785b3          	add	a1,a5,a3
    80002894:	fea58b23          	sb	a0,-10(a1)
    80002898:	ff770503          	lb	a0,-9(a4)
    8000289c:	00640583          	lb	a1,6(s0)
    800028a0:	0002b783          	ld	a5,0(t0)
    800028a4:	8d2d                	xor	a0,a0,a1
    800028a6:	00d785b3          	add	a1,a5,a3
    800028aa:	fea58d23          	sb	a0,-6(a1)
    800028ae:	ff870503          	lb	a0,-8(a4)
    800028b2:	00740583          	lb	a1,7(s0)
    800028b6:	0002b783          	ld	a5,0(t0)
    800028ba:	8d2d                	xor	a0,a0,a1
    800028bc:	00d785b3          	add	a1,a5,a3
    800028c0:	fea58f23          	sb	a0,-2(a1)
    800028c4:	ff970503          	lb	a0,-7(a4)
    800028c8:	00840583          	lb	a1,8(s0)
    800028cc:	0002b783          	ld	a5,0(t0)
    800028d0:	8d2d                	xor	a0,a0,a1
    800028d2:	00d785b3          	add	a1,a5,a3
    800028d6:	fea589a3          	sb	a0,-13(a1)
    800028da:	ffa70503          	lb	a0,-6(a4)
    800028de:	00940583          	lb	a1,9(s0)
    800028e2:	0002b783          	ld	a5,0(t0)
    800028e6:	8d2d                	xor	a0,a0,a1
    800028e8:	00d785b3          	add	a1,a5,a3
    800028ec:	fea58ba3          	sb	a0,-9(a1)
    800028f0:	ffb70503          	lb	a0,-5(a4)
    800028f4:	00a40583          	lb	a1,10(s0)
    800028f8:	0002b783          	ld	a5,0(t0)
    800028fc:	8d2d                	xor	a0,a0,a1
    800028fe:	00d785b3          	add	a1,a5,a3
    80002902:	fea58da3          	sb	a0,-5(a1)
    80002906:	ffc70503          	lb	a0,-4(a4)
    8000290a:	00b40583          	lb	a1,11(s0)
    8000290e:	0002b783          	ld	a5,0(t0)
    80002912:	8d2d                	xor	a0,a0,a1
    80002914:	00d785b3          	add	a1,a5,a3
    80002918:	fea58fa3          	sb	a0,-1(a1)
    8000291c:	ffd70503          	lb	a0,-3(a4)
    80002920:	00c40583          	lb	a1,12(s0)
    80002924:	0002b783          	ld	a5,0(t0)
    80002928:	8d2d                	xor	a0,a0,a1
    8000292a:	00d785b3          	add	a1,a5,a3
    8000292e:	fea58a23          	sb	a0,-12(a1)
    80002932:	ffe70503          	lb	a0,-2(a4)
    80002936:	00d40583          	lb	a1,13(s0)
    8000293a:	0002b783          	ld	a5,0(t0)
    8000293e:	8d2d                	xor	a0,a0,a1
    80002940:	00d785b3          	add	a1,a5,a3
    80002944:	fea58c23          	sb	a0,-8(a1)
    80002948:	fff70503          	lb	a0,-1(a4)
    8000294c:	00e40583          	lb	a1,14(s0)
    80002950:	0002b783          	ld	a5,0(t0)
    80002954:	8d2d                	xor	a0,a0,a1
    80002956:	00d785b3          	add	a1,a5,a3
    8000295a:	fea58e23          	sb	a0,-4(a1)
    8000295e:	00070503          	lb	a0,0(a4)
    80002962:	00f40583          	lb	a1,15(s0)
    80002966:	0002b703          	ld	a4,0(t0)
    8000296a:	8d2d                	xor	a0,a0,a1
    8000296c:	00d705b3          	add	a1,a4,a3
    80002970:	00a58023          	sb	a0,0(a1)
    80002974:	167d                	addi	a2,a2,-1
    80002976:	06c1                	addi	a3,a3,16
    80002978:	e8061de3          	bnez	a2,80002812 <AES_Encrypt+0x50>
    8000297c:	4541                	li	a0,16
    8000297e:	00a9d463          	bge	s3,a0,80002986 <AES_Encrypt+0x1c4>
    80002982:	57b0106f          	j	800046fc <AES_Encrypt+0x1f3a>
    80002986:	00003817          	auipc	a6,0x3
    8000298a:	d0a80813          	addi	a6,a6,-758 # 80005690 <pullstate>
    8000298e:	00083503          	ld	a0,0(a6)
    80002992:	0208d693          	srli	a3,a7,0x20
    80002996:	fff68713          	addi	a4,a3,-1
    8000299a:	02050793          	addi	a5,a0,32
    8000299e:	4485                	li	s1,1
    800029a0:	4609                	li	a2,2
    800029a2:	537d                	li	t1,-1
    800029a4:	fe07b503          	ld	a0,-32(a5)
    800029a8:	fe87b583          	ld	a1,-24(a5)
    800029ac:	40b5057b          	.insn	4, 0x40b5057b
    800029b0:	08a515ab          	.insn	4, 0x08a515ab
    800029b4:	fea7b023          	sd	a0,-32(a5)
    800029b8:	feb7b423          	sd	a1,-24(a5)
    800029bc:	c731                	beqz	a4,80002a08 <AES_Encrypt+0x246>
    800029be:	ff07b503          	ld	a0,-16(a5)
    800029c2:	ff87b583          	ld	a1,-8(a5)
    800029c6:	40b5057b          	.insn	4, 0x40b5057b
    800029ca:	08a515ab          	.insn	4, 0x08a515ab
    800029ce:	fea7b823          	sd	a0,-16(a5)
    800029d2:	feb7bc23          	sd	a1,-8(a5)
    800029d6:	02970963          	beq	a4,s1,80002a08 <AES_Encrypt+0x246>
    800029da:	6388                	ld	a0,0(a5)
    800029dc:	678c                	ld	a1,8(a5)
    800029de:	40b5057b          	.insn	4, 0x40b5057b
    800029e2:	08a515ab          	.insn	4, 0x08a515ab
    800029e6:	e388                	sd	a0,0(a5)
    800029e8:	e78c                	sd	a1,8(a5)
    800029ea:	00c70f63          	beq	a4,a2,80002a08 <AES_Encrypt+0x246>
    800029ee:	6b88                	ld	a0,16(a5)
    800029f0:	6f8c                	ld	a1,24(a5)
    800029f2:	40b5057b          	.insn	4, 0x40b5057b
    800029f6:	08a515ab          	.insn	4, 0x08a515ab
    800029fa:	eb88                	sd	a0,16(a5)
    800029fc:	ef8c                	sd	a1,24(a5)
    800029fe:	1771                	addi	a4,a4,-4
    80002a00:	04078793          	addi	a5,a5,64
    80002a04:	fa6710e3          	bne	a4,t1,800029a4 <AES_Encrypt+0x1e2>
    80002a08:	4541                	li	a0,16
    80002a0a:	00a9d463          	bge	s3,a0,80002a12 <AES_Encrypt+0x250>
    80002a0e:	4ef0106f          	j	800046fc <AES_Encrypt+0x1f3a>
    80002a12:	00083503          	ld	a0,0(a6)
    80002a16:	fff68713          	addi	a4,a3,-1
    80002a1a:	02050793          	addi	a5,a0,32
    80002a1e:	4485                	li	s1,1
    80002a20:	4609                	li	a2,2
    80002a22:	537d                	li	t1,-1
    80002a24:	fe07b503          	ld	a0,-32(a5)
    80002a28:	fe87b583          	ld	a1,-24(a5)
    80002a2c:	20b5057b          	.insn	4, 0x20b5057b
    80002a30:	04a515ab          	.insn	4, 0x04a515ab
    80002a34:	fea7b023          	sd	a0,-32(a5)
    80002a38:	feb7b423          	sd	a1,-24(a5)
    80002a3c:	c731                	beqz	a4,80002a88 <AES_Encrypt+0x2c6>
    80002a3e:	ff07b503          	ld	a0,-16(a5)
    80002a42:	ff87b583          	ld	a1,-8(a5)
    80002a46:	20b5057b          	.insn	4, 0x20b5057b
    80002a4a:	04a515ab          	.insn	4, 0x04a515ab
    80002a4e:	fea7b823          	sd	a0,-16(a5)
    80002a52:	feb7bc23          	sd	a1,-8(a5)
    80002a56:	02970963          	beq	a4,s1,80002a88 <AES_Encrypt+0x2c6>
    80002a5a:	6388                	ld	a0,0(a5)
    80002a5c:	678c                	ld	a1,8(a5)
    80002a5e:	20b5057b          	.insn	4, 0x20b5057b
    80002a62:	04a515ab          	.insn	4, 0x04a515ab
    80002a66:	e388                	sd	a0,0(a5)
    80002a68:	e78c                	sd	a1,8(a5)
    80002a6a:	00c70f63          	beq	a4,a2,80002a88 <AES_Encrypt+0x2c6>
    80002a6e:	6b88                	ld	a0,16(a5)
    80002a70:	6f8c                	ld	a1,24(a5)
    80002a72:	20b5057b          	.insn	4, 0x20b5057b
    80002a76:	04a515ab          	.insn	4, 0x04a515ab
    80002a7a:	eb88                	sd	a0,16(a5)
    80002a7c:	ef8c                	sd	a1,24(a5)
    80002a7e:	1771                	addi	a4,a4,-4
    80002a80:	04078793          	addi	a5,a5,64
    80002a84:	fa6710e3          	bne	a4,t1,80002a24 <AES_Encrypt+0x262>
    80002a88:	4541                	li	a0,16
    80002a8a:	00a9d463          	bge	s3,a0,80002a92 <AES_Encrypt+0x2d0>
    80002a8e:	46f0106f          	j	800046fc <AES_Encrypt+0x1f3a>
    80002a92:	00083503          	ld	a0,0(a6)
    80002a96:	fff68713          	addi	a4,a3,-1
    80002a9a:	02050793          	addi	a5,a0,32
    80002a9e:	4485                	li	s1,1
    80002aa0:	4609                	li	a2,2
    80002aa2:	537d                	li	t1,-1
    80002aa4:	fe07b503          	ld	a0,-32(a5)
    80002aa8:	fe87b583          	ld	a1,-24(a5)
    80002aac:	00b5057b          	.insn	4, 0x00b5057b
    80002ab0:	00a515ab          	.insn	4, 0x00a515ab
    80002ab4:	fea7b023          	sd	a0,-32(a5)
    80002ab8:	feb7b423          	sd	a1,-24(a5)
    80002abc:	c731                	beqz	a4,80002b08 <AES_Encrypt+0x346>
    80002abe:	ff07b503          	ld	a0,-16(a5)
    80002ac2:	ff87b583          	ld	a1,-8(a5)
    80002ac6:	00b5057b          	.insn	4, 0x00b5057b
    80002aca:	00a515ab          	.insn	4, 0x00a515ab
    80002ace:	fea7b823          	sd	a0,-16(a5)
    80002ad2:	feb7bc23          	sd	a1,-8(a5)
    80002ad6:	02970963          	beq	a4,s1,80002b08 <AES_Encrypt+0x346>
    80002ada:	6388                	ld	a0,0(a5)
    80002adc:	678c                	ld	a1,8(a5)
    80002ade:	00b5057b          	.insn	4, 0x00b5057b
    80002ae2:	00a515ab          	.insn	4, 0x00a515ab
    80002ae6:	e388                	sd	a0,0(a5)
    80002ae8:	e78c                	sd	a1,8(a5)
    80002aea:	00c70f63          	beq	a4,a2,80002b08 <AES_Encrypt+0x346>
    80002aee:	6b88                	ld	a0,16(a5)
    80002af0:	6f8c                	ld	a1,24(a5)
    80002af2:	00b5057b          	.insn	4, 0x00b5057b
    80002af6:	00a515ab          	.insn	4, 0x00a515ab
    80002afa:	eb88                	sd	a0,16(a5)
    80002afc:	ef8c                	sd	a1,24(a5)
    80002afe:	1771                	addi	a4,a4,-4
    80002b00:	04078793          	addi	a5,a5,64
    80002b04:	fa6710e3          	bne	a4,t1,80002aa4 <AES_Encrypt+0x2e2>
    80002b08:	4541                	li	a0,16
    80002b0a:	00a9d463          	bge	s3,a0,80002b12 <AES_Encrypt+0x350>
    80002b0e:	3ef0106f          	j	800046fc <AES_Encrypt+0x1f3a>
    80002b12:	473d                	li	a4,15
    80002b14:	0002b503          	ld	a0,0(t0)
    80002b18:	01040583          	lb	a1,16(s0)
    80002b1c:	953a                	add	a0,a0,a4
    80002b1e:	ff150603          	lb	a2,-15(a0)
    80002b22:	8db1                	xor	a1,a1,a2
    80002b24:	feb508a3          	sb	a1,-15(a0)
    80002b28:	0002b503          	ld	a0,0(t0)
    80002b2c:	01140583          	lb	a1,17(s0)
    80002b30:	953a                	add	a0,a0,a4
    80002b32:	ff250603          	lb	a2,-14(a0)
    80002b36:	8db1                	xor	a1,a1,a2
    80002b38:	feb50923          	sb	a1,-14(a0)
    80002b3c:	0002b503          	ld	a0,0(t0)
    80002b40:	01240583          	lb	a1,18(s0)
    80002b44:	953a                	add	a0,a0,a4
    80002b46:	ff350603          	lb	a2,-13(a0)
    80002b4a:	8db1                	xor	a1,a1,a2
    80002b4c:	feb509a3          	sb	a1,-13(a0)
    80002b50:	0002b503          	ld	a0,0(t0)
    80002b54:	01340583          	lb	a1,19(s0)
    80002b58:	953a                	add	a0,a0,a4
    80002b5a:	ff450603          	lb	a2,-12(a0)
    80002b5e:	8db1                	xor	a1,a1,a2
    80002b60:	feb50a23          	sb	a1,-12(a0)
    80002b64:	0002b503          	ld	a0,0(t0)
    80002b68:	01440583          	lb	a1,20(s0)
    80002b6c:	953a                	add	a0,a0,a4
    80002b6e:	ff550603          	lb	a2,-11(a0)
    80002b72:	8db1                	xor	a1,a1,a2
    80002b74:	feb50aa3          	sb	a1,-11(a0)
    80002b78:	0002b503          	ld	a0,0(t0)
    80002b7c:	01540583          	lb	a1,21(s0)
    80002b80:	953a                	add	a0,a0,a4
    80002b82:	ff650603          	lb	a2,-10(a0)
    80002b86:	8db1                	xor	a1,a1,a2
    80002b88:	feb50b23          	sb	a1,-10(a0)
    80002b8c:	0002b503          	ld	a0,0(t0)
    80002b90:	01640583          	lb	a1,22(s0)
    80002b94:	953a                	add	a0,a0,a4
    80002b96:	ff750603          	lb	a2,-9(a0)
    80002b9a:	8db1                	xor	a1,a1,a2
    80002b9c:	feb50ba3          	sb	a1,-9(a0)
    80002ba0:	0002b503          	ld	a0,0(t0)
    80002ba4:	01740583          	lb	a1,23(s0)
    80002ba8:	953a                	add	a0,a0,a4
    80002baa:	ff850603          	lb	a2,-8(a0)
    80002bae:	8db1                	xor	a1,a1,a2
    80002bb0:	feb50c23          	sb	a1,-8(a0)
    80002bb4:	0002b503          	ld	a0,0(t0)
    80002bb8:	01840583          	lb	a1,24(s0)
    80002bbc:	953a                	add	a0,a0,a4
    80002bbe:	ff950603          	lb	a2,-7(a0)
    80002bc2:	8db1                	xor	a1,a1,a2
    80002bc4:	feb50ca3          	sb	a1,-7(a0)
    80002bc8:	0002b503          	ld	a0,0(t0)
    80002bcc:	01940583          	lb	a1,25(s0)
    80002bd0:	953a                	add	a0,a0,a4
    80002bd2:	ffa50603          	lb	a2,-6(a0)
    80002bd6:	8db1                	xor	a1,a1,a2
    80002bd8:	feb50d23          	sb	a1,-6(a0)
    80002bdc:	0002b503          	ld	a0,0(t0)
    80002be0:	01a40583          	lb	a1,26(s0)
    80002be4:	953a                	add	a0,a0,a4
    80002be6:	ffb50603          	lb	a2,-5(a0)
    80002bea:	8db1                	xor	a1,a1,a2
    80002bec:	feb50da3          	sb	a1,-5(a0)
    80002bf0:	0002b503          	ld	a0,0(t0)
    80002bf4:	01b40583          	lb	a1,27(s0)
    80002bf8:	953a                	add	a0,a0,a4
    80002bfa:	ffc50603          	lb	a2,-4(a0)
    80002bfe:	8db1                	xor	a1,a1,a2
    80002c00:	feb50e23          	sb	a1,-4(a0)
    80002c04:	0002b503          	ld	a0,0(t0)
    80002c08:	01c40583          	lb	a1,28(s0)
    80002c0c:	953a                	add	a0,a0,a4
    80002c0e:	ffd50603          	lb	a2,-3(a0)
    80002c12:	8db1                	xor	a1,a1,a2
    80002c14:	feb50ea3          	sb	a1,-3(a0)
    80002c18:	0002b503          	ld	a0,0(t0)
    80002c1c:	01d40583          	lb	a1,29(s0)
    80002c20:	953a                	add	a0,a0,a4
    80002c22:	ffe50603          	lb	a2,-2(a0)
    80002c26:	8db1                	xor	a1,a1,a2
    80002c28:	feb50f23          	sb	a1,-2(a0)
    80002c2c:	0002b503          	ld	a0,0(t0)
    80002c30:	01e40583          	lb	a1,30(s0)
    80002c34:	953a                	add	a0,a0,a4
    80002c36:	fff50603          	lb	a2,-1(a0)
    80002c3a:	8db1                	xor	a1,a1,a2
    80002c3c:	feb50fa3          	sb	a1,-1(a0)
    80002c40:	0002b503          	ld	a0,0(t0)
    80002c44:	01f40583          	lb	a1,31(s0)
    80002c48:	953a                	add	a0,a0,a4
    80002c4a:	00050603          	lb	a2,0(a0)
    80002c4e:	8db1                	xor	a1,a1,a2
    80002c50:	00b50023          	sb	a1,0(a0)
    80002c54:	16fd                	addi	a3,a3,-1
    80002c56:	0741                	addi	a4,a4,16
    80002c58:	ea069ee3          	bnez	a3,80002b14 <AES_Encrypt+0x352>
    80002c5c:	4541                	li	a0,16
    80002c5e:	00a9d463          	bge	s3,a0,80002c66 <AES_Encrypt+0x4a4>
    80002c62:	29b0106f          	j	800046fc <AES_Encrypt+0x1f3a>
    80002c66:	00083503          	ld	a0,0(a6)
    80002c6a:	0208d693          	srli	a3,a7,0x20
    80002c6e:	fff68713          	addi	a4,a3,-1
    80002c72:	02050793          	addi	a5,a0,32
    80002c76:	4605                	li	a2,1
    80002c78:	4589                	li	a1,2
    80002c7a:	537d                	li	t1,-1
    80002c7c:	fe07b503          	ld	a0,-32(a5)
    80002c80:	fe87b483          	ld	s1,-24(a5)
    80002c84:	4095057b          	.insn	4, 0x4095057b
    80002c88:	08a514ab          	.insn	4, 0x08a514ab
    80002c8c:	fea7b023          	sd	a0,-32(a5)
    80002c90:	fe97b423          	sd	s1,-24(a5)
    80002c94:	c731                	beqz	a4,80002ce0 <AES_Encrypt+0x51e>
    80002c96:	ff07b503          	ld	a0,-16(a5)
    80002c9a:	ff87b483          	ld	s1,-8(a5)
    80002c9e:	4095057b          	.insn	4, 0x4095057b
    80002ca2:	08a514ab          	.insn	4, 0x08a514ab
    80002ca6:	fea7b823          	sd	a0,-16(a5)
    80002caa:	fe97bc23          	sd	s1,-8(a5)
    80002cae:	02c70963          	beq	a4,a2,80002ce0 <AES_Encrypt+0x51e>
    80002cb2:	6388                	ld	a0,0(a5)
    80002cb4:	6784                	ld	s1,8(a5)
    80002cb6:	4095057b          	.insn	4, 0x4095057b
    80002cba:	08a514ab          	.insn	4, 0x08a514ab
    80002cbe:	e388                	sd	a0,0(a5)
    80002cc0:	e784                	sd	s1,8(a5)
    80002cc2:	00b70f63          	beq	a4,a1,80002ce0 <AES_Encrypt+0x51e>
    80002cc6:	6b88                	ld	a0,16(a5)
    80002cc8:	6f84                	ld	s1,24(a5)
    80002cca:	4095057b          	.insn	4, 0x4095057b
    80002cce:	08a514ab          	.insn	4, 0x08a514ab
    80002cd2:	eb88                	sd	a0,16(a5)
    80002cd4:	ef84                	sd	s1,24(a5)
    80002cd6:	1771                	addi	a4,a4,-4
    80002cd8:	04078793          	addi	a5,a5,64
    80002cdc:	fa6710e3          	bne	a4,t1,80002c7c <AES_Encrypt+0x4ba>
    80002ce0:	4541                	li	a0,16
    80002ce2:	00a9d463          	bge	s3,a0,80002cea <AES_Encrypt+0x528>
    80002ce6:	2170106f          	j	800046fc <AES_Encrypt+0x1f3a>
    80002cea:	00083503          	ld	a0,0(a6)
    80002cee:	fff68713          	addi	a4,a3,-1
    80002cf2:	02050793          	addi	a5,a0,32
    80002cf6:	4605                	li	a2,1
    80002cf8:	4589                	li	a1,2
    80002cfa:	537d                	li	t1,-1
    80002cfc:	fe07b503          	ld	a0,-32(a5)
    80002d00:	fe87b483          	ld	s1,-24(a5)
    80002d04:	2095057b          	.insn	4, 0x2095057b
    80002d08:	04a514ab          	.insn	4, 0x04a514ab
    80002d0c:	fea7b023          	sd	a0,-32(a5)
    80002d10:	fe97b423          	sd	s1,-24(a5)
    80002d14:	c731                	beqz	a4,80002d60 <AES_Encrypt+0x59e>
    80002d16:	ff07b503          	ld	a0,-16(a5)
    80002d1a:	ff87b483          	ld	s1,-8(a5)
    80002d1e:	2095057b          	.insn	4, 0x2095057b
    80002d22:	04a514ab          	.insn	4, 0x04a514ab
    80002d26:	fea7b823          	sd	a0,-16(a5)
    80002d2a:	fe97bc23          	sd	s1,-8(a5)
    80002d2e:	02c70963          	beq	a4,a2,80002d60 <AES_Encrypt+0x59e>
    80002d32:	6388                	ld	a0,0(a5)
    80002d34:	6784                	ld	s1,8(a5)
    80002d36:	2095057b          	.insn	4, 0x2095057b
    80002d3a:	04a514ab          	.insn	4, 0x04a514ab
    80002d3e:	e388                	sd	a0,0(a5)
    80002d40:	e784                	sd	s1,8(a5)
    80002d42:	00b70f63          	beq	a4,a1,80002d60 <AES_Encrypt+0x59e>
    80002d46:	6b88                	ld	a0,16(a5)
    80002d48:	6f84                	ld	s1,24(a5)
    80002d4a:	2095057b          	.insn	4, 0x2095057b
    80002d4e:	04a514ab          	.insn	4, 0x04a514ab
    80002d52:	eb88                	sd	a0,16(a5)
    80002d54:	ef84                	sd	s1,24(a5)
    80002d56:	1771                	addi	a4,a4,-4
    80002d58:	04078793          	addi	a5,a5,64
    80002d5c:	fa6710e3          	bne	a4,t1,80002cfc <AES_Encrypt+0x53a>
    80002d60:	4541                	li	a0,16
    80002d62:	00a9d463          	bge	s3,a0,80002d6a <AES_Encrypt+0x5a8>
    80002d66:	1970106f          	j	800046fc <AES_Encrypt+0x1f3a>
    80002d6a:	00083503          	ld	a0,0(a6)
    80002d6e:	fff68713          	addi	a4,a3,-1
    80002d72:	02050793          	addi	a5,a0,32
    80002d76:	4605                	li	a2,1
    80002d78:	4589                	li	a1,2
    80002d7a:	537d                	li	t1,-1
    80002d7c:	fe07b503          	ld	a0,-32(a5)
    80002d80:	fe87b483          	ld	s1,-24(a5)
    80002d84:	0095057b          	.insn	4, 0x0095057b
    80002d88:	00a514ab          	.insn	4, 0x00a514ab
    80002d8c:	fea7b023          	sd	a0,-32(a5)
    80002d90:	fe97b423          	sd	s1,-24(a5)
    80002d94:	c731                	beqz	a4,80002de0 <AES_Encrypt+0x61e>
    80002d96:	ff07b503          	ld	a0,-16(a5)
    80002d9a:	ff87b483          	ld	s1,-8(a5)
    80002d9e:	0095057b          	.insn	4, 0x0095057b
    80002da2:	00a514ab          	.insn	4, 0x00a514ab
    80002da6:	fea7b823          	sd	a0,-16(a5)
    80002daa:	fe97bc23          	sd	s1,-8(a5)
    80002dae:	02c70963          	beq	a4,a2,80002de0 <AES_Encrypt+0x61e>
    80002db2:	6388                	ld	a0,0(a5)
    80002db4:	6784                	ld	s1,8(a5)
    80002db6:	0095057b          	.insn	4, 0x0095057b
    80002dba:	00a514ab          	.insn	4, 0x00a514ab
    80002dbe:	e388                	sd	a0,0(a5)
    80002dc0:	e784                	sd	s1,8(a5)
    80002dc2:	00b70f63          	beq	a4,a1,80002de0 <AES_Encrypt+0x61e>
    80002dc6:	6b88                	ld	a0,16(a5)
    80002dc8:	6f84                	ld	s1,24(a5)
    80002dca:	0095057b          	.insn	4, 0x0095057b
    80002dce:	00a514ab          	.insn	4, 0x00a514ab
    80002dd2:	eb88                	sd	a0,16(a5)
    80002dd4:	ef84                	sd	s1,24(a5)
    80002dd6:	1771                	addi	a4,a4,-4
    80002dd8:	04078793          	addi	a5,a5,64
    80002ddc:	fa6710e3          	bne	a4,t1,80002d7c <AES_Encrypt+0x5ba>
    80002de0:	4541                	li	a0,16
    80002de2:	00a9d463          	bge	s3,a0,80002dea <AES_Encrypt+0x628>
    80002de6:	1170106f          	j	800046fc <AES_Encrypt+0x1f3a>
    80002dea:	473d                	li	a4,15
    80002dec:	0002b503          	ld	a0,0(t0)
    80002df0:	02040583          	lb	a1,32(s0)
    80002df4:	953a                	add	a0,a0,a4
    80002df6:	ff150603          	lb	a2,-15(a0)
    80002dfa:	8db1                	xor	a1,a1,a2
    80002dfc:	feb508a3          	sb	a1,-15(a0)
    80002e00:	0002b503          	ld	a0,0(t0)
    80002e04:	02140583          	lb	a1,33(s0)
    80002e08:	953a                	add	a0,a0,a4
    80002e0a:	ff250603          	lb	a2,-14(a0)
    80002e0e:	8db1                	xor	a1,a1,a2
    80002e10:	feb50923          	sb	a1,-14(a0)
    80002e14:	0002b503          	ld	a0,0(t0)
    80002e18:	02240583          	lb	a1,34(s0)
    80002e1c:	953a                	add	a0,a0,a4
    80002e1e:	ff350603          	lb	a2,-13(a0)
    80002e22:	8db1                	xor	a1,a1,a2
    80002e24:	feb509a3          	sb	a1,-13(a0)
    80002e28:	0002b503          	ld	a0,0(t0)
    80002e2c:	02340583          	lb	a1,35(s0)
    80002e30:	953a                	add	a0,a0,a4
    80002e32:	ff450603          	lb	a2,-12(a0)
    80002e36:	8db1                	xor	a1,a1,a2
    80002e38:	feb50a23          	sb	a1,-12(a0)
    80002e3c:	0002b503          	ld	a0,0(t0)
    80002e40:	02440583          	lb	a1,36(s0)
    80002e44:	953a                	add	a0,a0,a4
    80002e46:	ff550603          	lb	a2,-11(a0)
    80002e4a:	8db1                	xor	a1,a1,a2
    80002e4c:	feb50aa3          	sb	a1,-11(a0)
    80002e50:	0002b503          	ld	a0,0(t0)
    80002e54:	02540583          	lb	a1,37(s0)
    80002e58:	953a                	add	a0,a0,a4
    80002e5a:	ff650603          	lb	a2,-10(a0)
    80002e5e:	8db1                	xor	a1,a1,a2
    80002e60:	feb50b23          	sb	a1,-10(a0)
    80002e64:	0002b503          	ld	a0,0(t0)
    80002e68:	02640583          	lb	a1,38(s0)
    80002e6c:	953a                	add	a0,a0,a4
    80002e6e:	ff750603          	lb	a2,-9(a0)
    80002e72:	8db1                	xor	a1,a1,a2
    80002e74:	feb50ba3          	sb	a1,-9(a0)
    80002e78:	0002b503          	ld	a0,0(t0)
    80002e7c:	02740583          	lb	a1,39(s0)
    80002e80:	953a                	add	a0,a0,a4
    80002e82:	ff850603          	lb	a2,-8(a0)
    80002e86:	8db1                	xor	a1,a1,a2
    80002e88:	feb50c23          	sb	a1,-8(a0)
    80002e8c:	0002b503          	ld	a0,0(t0)
    80002e90:	02840583          	lb	a1,40(s0)
    80002e94:	953a                	add	a0,a0,a4
    80002e96:	ff950603          	lb	a2,-7(a0)
    80002e9a:	8db1                	xor	a1,a1,a2
    80002e9c:	feb50ca3          	sb	a1,-7(a0)
    80002ea0:	0002b503          	ld	a0,0(t0)
    80002ea4:	02940583          	lb	a1,41(s0)
    80002ea8:	953a                	add	a0,a0,a4
    80002eaa:	ffa50603          	lb	a2,-6(a0)
    80002eae:	8db1                	xor	a1,a1,a2
    80002eb0:	feb50d23          	sb	a1,-6(a0)
    80002eb4:	0002b503          	ld	a0,0(t0)
    80002eb8:	02a40583          	lb	a1,42(s0)
    80002ebc:	953a                	add	a0,a0,a4
    80002ebe:	ffb50603          	lb	a2,-5(a0)
    80002ec2:	8db1                	xor	a1,a1,a2
    80002ec4:	feb50da3          	sb	a1,-5(a0)
    80002ec8:	0002b503          	ld	a0,0(t0)
    80002ecc:	02b40583          	lb	a1,43(s0)
    80002ed0:	953a                	add	a0,a0,a4
    80002ed2:	ffc50603          	lb	a2,-4(a0)
    80002ed6:	8db1                	xor	a1,a1,a2
    80002ed8:	feb50e23          	sb	a1,-4(a0)
    80002edc:	0002b503          	ld	a0,0(t0)
    80002ee0:	02c40583          	lb	a1,44(s0)
    80002ee4:	953a                	add	a0,a0,a4
    80002ee6:	ffd50603          	lb	a2,-3(a0)
    80002eea:	8db1                	xor	a1,a1,a2
    80002eec:	feb50ea3          	sb	a1,-3(a0)
    80002ef0:	0002b503          	ld	a0,0(t0)
    80002ef4:	02d40583          	lb	a1,45(s0)
    80002ef8:	953a                	add	a0,a0,a4
    80002efa:	ffe50603          	lb	a2,-2(a0)
    80002efe:	8db1                	xor	a1,a1,a2
    80002f00:	feb50f23          	sb	a1,-2(a0)
    80002f04:	0002b503          	ld	a0,0(t0)
    80002f08:	02e40583          	lb	a1,46(s0)
    80002f0c:	953a                	add	a0,a0,a4
    80002f0e:	fff50603          	lb	a2,-1(a0)
    80002f12:	8db1                	xor	a1,a1,a2
    80002f14:	feb50fa3          	sb	a1,-1(a0)
    80002f18:	0002b503          	ld	a0,0(t0)
    80002f1c:	02f40583          	lb	a1,47(s0)
    80002f20:	953a                	add	a0,a0,a4
    80002f22:	00050603          	lb	a2,0(a0)
    80002f26:	8db1                	xor	a1,a1,a2
    80002f28:	00b50023          	sb	a1,0(a0)
    80002f2c:	16fd                	addi	a3,a3,-1
    80002f2e:	0741                	addi	a4,a4,16
    80002f30:	ea069ee3          	bnez	a3,80002dec <AES_Encrypt+0x62a>
    80002f34:	4541                	li	a0,16
    80002f36:	00a9d463          	bge	s3,a0,80002f3e <AES_Encrypt+0x77c>
    80002f3a:	7c20106f          	j	800046fc <AES_Encrypt+0x1f3a>
    80002f3e:	00083503          	ld	a0,0(a6)
    80002f42:	0208d693          	srli	a3,a7,0x20
    80002f46:	fff68713          	addi	a4,a3,-1
    80002f4a:	02050793          	addi	a5,a0,32
    80002f4e:	4605                	li	a2,1
    80002f50:	4589                	li	a1,2
    80002f52:	537d                	li	t1,-1
    80002f54:	fe07b503          	ld	a0,-32(a5)
    80002f58:	fe87b483          	ld	s1,-24(a5)
    80002f5c:	4095057b          	.insn	4, 0x4095057b
    80002f60:	08a514ab          	.insn	4, 0x08a514ab
    80002f64:	fea7b023          	sd	a0,-32(a5)
    80002f68:	fe97b423          	sd	s1,-24(a5)
    80002f6c:	c731                	beqz	a4,80002fb8 <AES_Encrypt+0x7f6>
    80002f6e:	ff07b503          	ld	a0,-16(a5)
    80002f72:	ff87b483          	ld	s1,-8(a5)
    80002f76:	4095057b          	.insn	4, 0x4095057b
    80002f7a:	08a514ab          	.insn	4, 0x08a514ab
    80002f7e:	fea7b823          	sd	a0,-16(a5)
    80002f82:	fe97bc23          	sd	s1,-8(a5)
    80002f86:	02c70963          	beq	a4,a2,80002fb8 <AES_Encrypt+0x7f6>
    80002f8a:	6388                	ld	a0,0(a5)
    80002f8c:	6784                	ld	s1,8(a5)
    80002f8e:	4095057b          	.insn	4, 0x4095057b
    80002f92:	08a514ab          	.insn	4, 0x08a514ab
    80002f96:	e388                	sd	a0,0(a5)
    80002f98:	e784                	sd	s1,8(a5)
    80002f9a:	00b70f63          	beq	a4,a1,80002fb8 <AES_Encrypt+0x7f6>
    80002f9e:	6b88                	ld	a0,16(a5)
    80002fa0:	6f84                	ld	s1,24(a5)
    80002fa2:	4095057b          	.insn	4, 0x4095057b
    80002fa6:	08a514ab          	.insn	4, 0x08a514ab
    80002faa:	eb88                	sd	a0,16(a5)
    80002fac:	ef84                	sd	s1,24(a5)
    80002fae:	1771                	addi	a4,a4,-4
    80002fb0:	04078793          	addi	a5,a5,64
    80002fb4:	fa6710e3          	bne	a4,t1,80002f54 <AES_Encrypt+0x792>
    80002fb8:	4541                	li	a0,16
    80002fba:	00a9d463          	bge	s3,a0,80002fc2 <AES_Encrypt+0x800>
    80002fbe:	73e0106f          	j	800046fc <AES_Encrypt+0x1f3a>
    80002fc2:	00083503          	ld	a0,0(a6)
    80002fc6:	fff68713          	addi	a4,a3,-1
    80002fca:	02050793          	addi	a5,a0,32
    80002fce:	4605                	li	a2,1
    80002fd0:	4589                	li	a1,2
    80002fd2:	537d                	li	t1,-1
    80002fd4:	fe07b503          	ld	a0,-32(a5)
    80002fd8:	fe87b483          	ld	s1,-24(a5)
    80002fdc:	2095057b          	.insn	4, 0x2095057b
    80002fe0:	04a514ab          	.insn	4, 0x04a514ab
    80002fe4:	fea7b023          	sd	a0,-32(a5)
    80002fe8:	fe97b423          	sd	s1,-24(a5)
    80002fec:	c731                	beqz	a4,80003038 <AES_Encrypt+0x876>
    80002fee:	ff07b503          	ld	a0,-16(a5)
    80002ff2:	ff87b483          	ld	s1,-8(a5)
    80002ff6:	2095057b          	.insn	4, 0x2095057b
    80002ffa:	04a514ab          	.insn	4, 0x04a514ab
    80002ffe:	fea7b823          	sd	a0,-16(a5)
    80003002:	fe97bc23          	sd	s1,-8(a5)
    80003006:	02c70963          	beq	a4,a2,80003038 <AES_Encrypt+0x876>
    8000300a:	6388                	ld	a0,0(a5)
    8000300c:	6784                	ld	s1,8(a5)
    8000300e:	2095057b          	.insn	4, 0x2095057b
    80003012:	04a514ab          	.insn	4, 0x04a514ab
    80003016:	e388                	sd	a0,0(a5)
    80003018:	e784                	sd	s1,8(a5)
    8000301a:	00b70f63          	beq	a4,a1,80003038 <AES_Encrypt+0x876>
    8000301e:	6b88                	ld	a0,16(a5)
    80003020:	6f84                	ld	s1,24(a5)
    80003022:	2095057b          	.insn	4, 0x2095057b
    80003026:	04a514ab          	.insn	4, 0x04a514ab
    8000302a:	eb88                	sd	a0,16(a5)
    8000302c:	ef84                	sd	s1,24(a5)
    8000302e:	1771                	addi	a4,a4,-4
    80003030:	04078793          	addi	a5,a5,64
    80003034:	fa6710e3          	bne	a4,t1,80002fd4 <AES_Encrypt+0x812>
    80003038:	4541                	li	a0,16
    8000303a:	00a9d463          	bge	s3,a0,80003042 <AES_Encrypt+0x880>
    8000303e:	6be0106f          	j	800046fc <AES_Encrypt+0x1f3a>
    80003042:	00083503          	ld	a0,0(a6)
    80003046:	fff68713          	addi	a4,a3,-1
    8000304a:	02050793          	addi	a5,a0,32
    8000304e:	4605                	li	a2,1
    80003050:	4589                	li	a1,2
    80003052:	537d                	li	t1,-1
    80003054:	fe07b503          	ld	a0,-32(a5)
    80003058:	fe87b483          	ld	s1,-24(a5)
    8000305c:	0095057b          	.insn	4, 0x0095057b
    80003060:	00a514ab          	.insn	4, 0x00a514ab
    80003064:	fea7b023          	sd	a0,-32(a5)
    80003068:	fe97b423          	sd	s1,-24(a5)
    8000306c:	c731                	beqz	a4,800030b8 <AES_Encrypt+0x8f6>
    8000306e:	ff07b503          	ld	a0,-16(a5)
    80003072:	ff87b483          	ld	s1,-8(a5)
    80003076:	0095057b          	.insn	4, 0x0095057b
    8000307a:	00a514ab          	.insn	4, 0x00a514ab
    8000307e:	fea7b823          	sd	a0,-16(a5)
    80003082:	fe97bc23          	sd	s1,-8(a5)
    80003086:	02c70963          	beq	a4,a2,800030b8 <AES_Encrypt+0x8f6>
    8000308a:	6388                	ld	a0,0(a5)
    8000308c:	6784                	ld	s1,8(a5)
    8000308e:	0095057b          	.insn	4, 0x0095057b
    80003092:	00a514ab          	.insn	4, 0x00a514ab
    80003096:	e388                	sd	a0,0(a5)
    80003098:	e784                	sd	s1,8(a5)
    8000309a:	00b70f63          	beq	a4,a1,800030b8 <AES_Encrypt+0x8f6>
    8000309e:	6b88                	ld	a0,16(a5)
    800030a0:	6f84                	ld	s1,24(a5)
    800030a2:	0095057b          	.insn	4, 0x0095057b
    800030a6:	00a514ab          	.insn	4, 0x00a514ab
    800030aa:	eb88                	sd	a0,16(a5)
    800030ac:	ef84                	sd	s1,24(a5)
    800030ae:	1771                	addi	a4,a4,-4
    800030b0:	04078793          	addi	a5,a5,64
    800030b4:	fa6710e3          	bne	a4,t1,80003054 <AES_Encrypt+0x892>
    800030b8:	4541                	li	a0,16
    800030ba:	00a9d463          	bge	s3,a0,800030c2 <AES_Encrypt+0x900>
    800030be:	63e0106f          	j	800046fc <AES_Encrypt+0x1f3a>
    800030c2:	473d                	li	a4,15
    800030c4:	0002b503          	ld	a0,0(t0)
    800030c8:	03040583          	lb	a1,48(s0)
    800030cc:	953a                	add	a0,a0,a4
    800030ce:	ff150603          	lb	a2,-15(a0)
    800030d2:	8db1                	xor	a1,a1,a2
    800030d4:	feb508a3          	sb	a1,-15(a0)
    800030d8:	0002b503          	ld	a0,0(t0)
    800030dc:	03140583          	lb	a1,49(s0)
    800030e0:	953a                	add	a0,a0,a4
    800030e2:	ff250603          	lb	a2,-14(a0)
    800030e6:	8db1                	xor	a1,a1,a2
    800030e8:	feb50923          	sb	a1,-14(a0)
    800030ec:	0002b503          	ld	a0,0(t0)
    800030f0:	03240583          	lb	a1,50(s0)
    800030f4:	953a                	add	a0,a0,a4
    800030f6:	ff350603          	lb	a2,-13(a0)
    800030fa:	8db1                	xor	a1,a1,a2
    800030fc:	feb509a3          	sb	a1,-13(a0)
    80003100:	0002b503          	ld	a0,0(t0)
    80003104:	03340583          	lb	a1,51(s0)
    80003108:	953a                	add	a0,a0,a4
    8000310a:	ff450603          	lb	a2,-12(a0)
    8000310e:	8db1                	xor	a1,a1,a2
    80003110:	feb50a23          	sb	a1,-12(a0)
    80003114:	0002b503          	ld	a0,0(t0)
    80003118:	03440583          	lb	a1,52(s0)
    8000311c:	953a                	add	a0,a0,a4
    8000311e:	ff550603          	lb	a2,-11(a0)
    80003122:	8db1                	xor	a1,a1,a2
    80003124:	feb50aa3          	sb	a1,-11(a0)
    80003128:	0002b503          	ld	a0,0(t0)
    8000312c:	03540583          	lb	a1,53(s0)
    80003130:	953a                	add	a0,a0,a4
    80003132:	ff650603          	lb	a2,-10(a0)
    80003136:	8db1                	xor	a1,a1,a2
    80003138:	feb50b23          	sb	a1,-10(a0)
    8000313c:	0002b503          	ld	a0,0(t0)
    80003140:	03640583          	lb	a1,54(s0)
    80003144:	953a                	add	a0,a0,a4
    80003146:	ff750603          	lb	a2,-9(a0)
    8000314a:	8db1                	xor	a1,a1,a2
    8000314c:	feb50ba3          	sb	a1,-9(a0)
    80003150:	0002b503          	ld	a0,0(t0)
    80003154:	03740583          	lb	a1,55(s0)
    80003158:	953a                	add	a0,a0,a4
    8000315a:	ff850603          	lb	a2,-8(a0)
    8000315e:	8db1                	xor	a1,a1,a2
    80003160:	feb50c23          	sb	a1,-8(a0)
    80003164:	0002b503          	ld	a0,0(t0)
    80003168:	03840583          	lb	a1,56(s0)
    8000316c:	953a                	add	a0,a0,a4
    8000316e:	ff950603          	lb	a2,-7(a0)
    80003172:	8db1                	xor	a1,a1,a2
    80003174:	feb50ca3          	sb	a1,-7(a0)
    80003178:	0002b503          	ld	a0,0(t0)
    8000317c:	03940583          	lb	a1,57(s0)
    80003180:	953a                	add	a0,a0,a4
    80003182:	ffa50603          	lb	a2,-6(a0)
    80003186:	8db1                	xor	a1,a1,a2
    80003188:	feb50d23          	sb	a1,-6(a0)
    8000318c:	0002b503          	ld	a0,0(t0)
    80003190:	03a40583          	lb	a1,58(s0)
    80003194:	953a                	add	a0,a0,a4
    80003196:	ffb50603          	lb	a2,-5(a0)
    8000319a:	8db1                	xor	a1,a1,a2
    8000319c:	feb50da3          	sb	a1,-5(a0)
    800031a0:	0002b503          	ld	a0,0(t0)
    800031a4:	03b40583          	lb	a1,59(s0)
    800031a8:	953a                	add	a0,a0,a4
    800031aa:	ffc50603          	lb	a2,-4(a0)
    800031ae:	8db1                	xor	a1,a1,a2
    800031b0:	feb50e23          	sb	a1,-4(a0)
    800031b4:	0002b503          	ld	a0,0(t0)
    800031b8:	03c40583          	lb	a1,60(s0)
    800031bc:	953a                	add	a0,a0,a4
    800031be:	ffd50603          	lb	a2,-3(a0)
    800031c2:	8db1                	xor	a1,a1,a2
    800031c4:	feb50ea3          	sb	a1,-3(a0)
    800031c8:	0002b503          	ld	a0,0(t0)
    800031cc:	03d40583          	lb	a1,61(s0)
    800031d0:	953a                	add	a0,a0,a4
    800031d2:	ffe50603          	lb	a2,-2(a0)
    800031d6:	8db1                	xor	a1,a1,a2
    800031d8:	feb50f23          	sb	a1,-2(a0)
    800031dc:	0002b503          	ld	a0,0(t0)
    800031e0:	03e40583          	lb	a1,62(s0)
    800031e4:	953a                	add	a0,a0,a4
    800031e6:	fff50603          	lb	a2,-1(a0)
    800031ea:	8db1                	xor	a1,a1,a2
    800031ec:	feb50fa3          	sb	a1,-1(a0)
    800031f0:	0002b503          	ld	a0,0(t0)
    800031f4:	03f40583          	lb	a1,63(s0)
    800031f8:	953a                	add	a0,a0,a4
    800031fa:	00050603          	lb	a2,0(a0)
    800031fe:	8db1                	xor	a1,a1,a2
    80003200:	00b50023          	sb	a1,0(a0)
    80003204:	16fd                	addi	a3,a3,-1
    80003206:	0741                	addi	a4,a4,16
    80003208:	ea069ee3          	bnez	a3,800030c4 <AES_Encrypt+0x902>
    8000320c:	4541                	li	a0,16
    8000320e:	00a9d463          	bge	s3,a0,80003216 <AES_Encrypt+0xa54>
    80003212:	4ea0106f          	j	800046fc <AES_Encrypt+0x1f3a>
    80003216:	00083503          	ld	a0,0(a6)
    8000321a:	0208d693          	srli	a3,a7,0x20
    8000321e:	fff68713          	addi	a4,a3,-1
    80003222:	02050793          	addi	a5,a0,32
    80003226:	4605                	li	a2,1
    80003228:	4589                	li	a1,2
    8000322a:	537d                	li	t1,-1
    8000322c:	fe07b503          	ld	a0,-32(a5)
    80003230:	fe87b483          	ld	s1,-24(a5)
    80003234:	4095057b          	.insn	4, 0x4095057b
    80003238:	08a514ab          	.insn	4, 0x08a514ab
    8000323c:	fea7b023          	sd	a0,-32(a5)
    80003240:	fe97b423          	sd	s1,-24(a5)
    80003244:	c731                	beqz	a4,80003290 <AES_Encrypt+0xace>
    80003246:	ff07b503          	ld	a0,-16(a5)
    8000324a:	ff87b483          	ld	s1,-8(a5)
    8000324e:	4095057b          	.insn	4, 0x4095057b
    80003252:	08a514ab          	.insn	4, 0x08a514ab
    80003256:	fea7b823          	sd	a0,-16(a5)
    8000325a:	fe97bc23          	sd	s1,-8(a5)
    8000325e:	02c70963          	beq	a4,a2,80003290 <AES_Encrypt+0xace>
    80003262:	6388                	ld	a0,0(a5)
    80003264:	6784                	ld	s1,8(a5)
    80003266:	4095057b          	.insn	4, 0x4095057b
    8000326a:	08a514ab          	.insn	4, 0x08a514ab
    8000326e:	e388                	sd	a0,0(a5)
    80003270:	e784                	sd	s1,8(a5)
    80003272:	00b70f63          	beq	a4,a1,80003290 <AES_Encrypt+0xace>
    80003276:	6b88                	ld	a0,16(a5)
    80003278:	6f84                	ld	s1,24(a5)
    8000327a:	4095057b          	.insn	4, 0x4095057b
    8000327e:	08a514ab          	.insn	4, 0x08a514ab
    80003282:	eb88                	sd	a0,16(a5)
    80003284:	ef84                	sd	s1,24(a5)
    80003286:	1771                	addi	a4,a4,-4
    80003288:	04078793          	addi	a5,a5,64
    8000328c:	fa6710e3          	bne	a4,t1,8000322c <AES_Encrypt+0xa6a>
    80003290:	4541                	li	a0,16
    80003292:	00a9d463          	bge	s3,a0,8000329a <AES_Encrypt+0xad8>
    80003296:	4660106f          	j	800046fc <AES_Encrypt+0x1f3a>
    8000329a:	00083503          	ld	a0,0(a6)
    8000329e:	fff68713          	addi	a4,a3,-1
    800032a2:	02050793          	addi	a5,a0,32
    800032a6:	4605                	li	a2,1
    800032a8:	4589                	li	a1,2
    800032aa:	537d                	li	t1,-1
    800032ac:	fe07b503          	ld	a0,-32(a5)
    800032b0:	fe87b483          	ld	s1,-24(a5)
    800032b4:	2095057b          	.insn	4, 0x2095057b
    800032b8:	04a514ab          	.insn	4, 0x04a514ab
    800032bc:	fea7b023          	sd	a0,-32(a5)
    800032c0:	fe97b423          	sd	s1,-24(a5)
    800032c4:	c731                	beqz	a4,80003310 <AES_Encrypt+0xb4e>
    800032c6:	ff07b503          	ld	a0,-16(a5)
    800032ca:	ff87b483          	ld	s1,-8(a5)
    800032ce:	2095057b          	.insn	4, 0x2095057b
    800032d2:	04a514ab          	.insn	4, 0x04a514ab
    800032d6:	fea7b823          	sd	a0,-16(a5)
    800032da:	fe97bc23          	sd	s1,-8(a5)
    800032de:	02c70963          	beq	a4,a2,80003310 <AES_Encrypt+0xb4e>
    800032e2:	6388                	ld	a0,0(a5)
    800032e4:	6784                	ld	s1,8(a5)
    800032e6:	2095057b          	.insn	4, 0x2095057b
    800032ea:	04a514ab          	.insn	4, 0x04a514ab
    800032ee:	e388                	sd	a0,0(a5)
    800032f0:	e784                	sd	s1,8(a5)
    800032f2:	00b70f63          	beq	a4,a1,80003310 <AES_Encrypt+0xb4e>
    800032f6:	6b88                	ld	a0,16(a5)
    800032f8:	6f84                	ld	s1,24(a5)
    800032fa:	2095057b          	.insn	4, 0x2095057b
    800032fe:	04a514ab          	.insn	4, 0x04a514ab
    80003302:	eb88                	sd	a0,16(a5)
    80003304:	ef84                	sd	s1,24(a5)
    80003306:	1771                	addi	a4,a4,-4
    80003308:	04078793          	addi	a5,a5,64
    8000330c:	fa6710e3          	bne	a4,t1,800032ac <AES_Encrypt+0xaea>
    80003310:	4541                	li	a0,16
    80003312:	00a9d463          	bge	s3,a0,8000331a <AES_Encrypt+0xb58>
    80003316:	3e60106f          	j	800046fc <AES_Encrypt+0x1f3a>
    8000331a:	00083503          	ld	a0,0(a6)
    8000331e:	fff68713          	addi	a4,a3,-1
    80003322:	02050793          	addi	a5,a0,32
    80003326:	4605                	li	a2,1
    80003328:	4589                	li	a1,2
    8000332a:	537d                	li	t1,-1
    8000332c:	fe07b503          	ld	a0,-32(a5)
    80003330:	fe87b483          	ld	s1,-24(a5)
    80003334:	0095057b          	.insn	4, 0x0095057b
    80003338:	00a514ab          	.insn	4, 0x00a514ab
    8000333c:	fea7b023          	sd	a0,-32(a5)
    80003340:	fe97b423          	sd	s1,-24(a5)
    80003344:	c731                	beqz	a4,80003390 <AES_Encrypt+0xbce>
    80003346:	ff07b503          	ld	a0,-16(a5)
    8000334a:	ff87b483          	ld	s1,-8(a5)
    8000334e:	0095057b          	.insn	4, 0x0095057b
    80003352:	00a514ab          	.insn	4, 0x00a514ab
    80003356:	fea7b823          	sd	a0,-16(a5)
    8000335a:	fe97bc23          	sd	s1,-8(a5)
    8000335e:	02c70963          	beq	a4,a2,80003390 <AES_Encrypt+0xbce>
    80003362:	6388                	ld	a0,0(a5)
    80003364:	6784                	ld	s1,8(a5)
    80003366:	0095057b          	.insn	4, 0x0095057b
    8000336a:	00a514ab          	.insn	4, 0x00a514ab
    8000336e:	e388                	sd	a0,0(a5)
    80003370:	e784                	sd	s1,8(a5)
    80003372:	00b70f63          	beq	a4,a1,80003390 <AES_Encrypt+0xbce>
    80003376:	6b88                	ld	a0,16(a5)
    80003378:	6f84                	ld	s1,24(a5)
    8000337a:	0095057b          	.insn	4, 0x0095057b
    8000337e:	00a514ab          	.insn	4, 0x00a514ab
    80003382:	eb88                	sd	a0,16(a5)
    80003384:	ef84                	sd	s1,24(a5)
    80003386:	1771                	addi	a4,a4,-4
    80003388:	04078793          	addi	a5,a5,64
    8000338c:	fa6710e3          	bne	a4,t1,8000332c <AES_Encrypt+0xb6a>
    80003390:	4541                	li	a0,16
    80003392:	00a9d463          	bge	s3,a0,8000339a <AES_Encrypt+0xbd8>
    80003396:	3660106f          	j	800046fc <AES_Encrypt+0x1f3a>
    8000339a:	473d                	li	a4,15
    8000339c:	0002b503          	ld	a0,0(t0)
    800033a0:	04040583          	lb	a1,64(s0)
    800033a4:	953a                	add	a0,a0,a4
    800033a6:	ff150603          	lb	a2,-15(a0)
    800033aa:	8db1                	xor	a1,a1,a2
    800033ac:	feb508a3          	sb	a1,-15(a0)
    800033b0:	0002b503          	ld	a0,0(t0)
    800033b4:	04140583          	lb	a1,65(s0)
    800033b8:	953a                	add	a0,a0,a4
    800033ba:	ff250603          	lb	a2,-14(a0)
    800033be:	8db1                	xor	a1,a1,a2
    800033c0:	feb50923          	sb	a1,-14(a0)
    800033c4:	0002b503          	ld	a0,0(t0)
    800033c8:	04240583          	lb	a1,66(s0)
    800033cc:	953a                	add	a0,a0,a4
    800033ce:	ff350603          	lb	a2,-13(a0)
    800033d2:	8db1                	xor	a1,a1,a2
    800033d4:	feb509a3          	sb	a1,-13(a0)
    800033d8:	0002b503          	ld	a0,0(t0)
    800033dc:	04340583          	lb	a1,67(s0)
    800033e0:	953a                	add	a0,a0,a4
    800033e2:	ff450603          	lb	a2,-12(a0)
    800033e6:	8db1                	xor	a1,a1,a2
    800033e8:	feb50a23          	sb	a1,-12(a0)
    800033ec:	0002b503          	ld	a0,0(t0)
    800033f0:	04440583          	lb	a1,68(s0)
    800033f4:	953a                	add	a0,a0,a4
    800033f6:	ff550603          	lb	a2,-11(a0)
    800033fa:	8db1                	xor	a1,a1,a2
    800033fc:	feb50aa3          	sb	a1,-11(a0)
    80003400:	0002b503          	ld	a0,0(t0)
    80003404:	04540583          	lb	a1,69(s0)
    80003408:	953a                	add	a0,a0,a4
    8000340a:	ff650603          	lb	a2,-10(a0)
    8000340e:	8db1                	xor	a1,a1,a2
    80003410:	feb50b23          	sb	a1,-10(a0)
    80003414:	0002b503          	ld	a0,0(t0)
    80003418:	04640583          	lb	a1,70(s0)
    8000341c:	953a                	add	a0,a0,a4
    8000341e:	ff750603          	lb	a2,-9(a0)
    80003422:	8db1                	xor	a1,a1,a2
    80003424:	feb50ba3          	sb	a1,-9(a0)
    80003428:	0002b503          	ld	a0,0(t0)
    8000342c:	04740583          	lb	a1,71(s0)
    80003430:	953a                	add	a0,a0,a4
    80003432:	ff850603          	lb	a2,-8(a0)
    80003436:	8db1                	xor	a1,a1,a2
    80003438:	feb50c23          	sb	a1,-8(a0)
    8000343c:	0002b503          	ld	a0,0(t0)
    80003440:	04840583          	lb	a1,72(s0)
    80003444:	953a                	add	a0,a0,a4
    80003446:	ff950603          	lb	a2,-7(a0)
    8000344a:	8db1                	xor	a1,a1,a2
    8000344c:	feb50ca3          	sb	a1,-7(a0)
    80003450:	0002b503          	ld	a0,0(t0)
    80003454:	04940583          	lb	a1,73(s0)
    80003458:	953a                	add	a0,a0,a4
    8000345a:	ffa50603          	lb	a2,-6(a0)
    8000345e:	8db1                	xor	a1,a1,a2
    80003460:	feb50d23          	sb	a1,-6(a0)
    80003464:	0002b503          	ld	a0,0(t0)
    80003468:	04a40583          	lb	a1,74(s0)
    8000346c:	953a                	add	a0,a0,a4
    8000346e:	ffb50603          	lb	a2,-5(a0)
    80003472:	8db1                	xor	a1,a1,a2
    80003474:	feb50da3          	sb	a1,-5(a0)
    80003478:	0002b503          	ld	a0,0(t0)
    8000347c:	04b40583          	lb	a1,75(s0)
    80003480:	953a                	add	a0,a0,a4
    80003482:	ffc50603          	lb	a2,-4(a0)
    80003486:	8db1                	xor	a1,a1,a2
    80003488:	feb50e23          	sb	a1,-4(a0)
    8000348c:	0002b503          	ld	a0,0(t0)
    80003490:	04c40583          	lb	a1,76(s0)
    80003494:	953a                	add	a0,a0,a4
    80003496:	ffd50603          	lb	a2,-3(a0)
    8000349a:	8db1                	xor	a1,a1,a2
    8000349c:	feb50ea3          	sb	a1,-3(a0)
    800034a0:	0002b503          	ld	a0,0(t0)
    800034a4:	04d40583          	lb	a1,77(s0)
    800034a8:	953a                	add	a0,a0,a4
    800034aa:	ffe50603          	lb	a2,-2(a0)
    800034ae:	8db1                	xor	a1,a1,a2
    800034b0:	feb50f23          	sb	a1,-2(a0)
    800034b4:	0002b503          	ld	a0,0(t0)
    800034b8:	04e40583          	lb	a1,78(s0)
    800034bc:	953a                	add	a0,a0,a4
    800034be:	fff50603          	lb	a2,-1(a0)
    800034c2:	8db1                	xor	a1,a1,a2
    800034c4:	feb50fa3          	sb	a1,-1(a0)
    800034c8:	0002b503          	ld	a0,0(t0)
    800034cc:	04f40583          	lb	a1,79(s0)
    800034d0:	953a                	add	a0,a0,a4
    800034d2:	00050603          	lb	a2,0(a0)
    800034d6:	8db1                	xor	a1,a1,a2
    800034d8:	00b50023          	sb	a1,0(a0)
    800034dc:	16fd                	addi	a3,a3,-1
    800034de:	0741                	addi	a4,a4,16
    800034e0:	ea069ee3          	bnez	a3,8000339c <AES_Encrypt+0xbda>
    800034e4:	4541                	li	a0,16
    800034e6:	00a9d463          	bge	s3,a0,800034ee <AES_Encrypt+0xd2c>
    800034ea:	2120106f          	j	800046fc <AES_Encrypt+0x1f3a>
    800034ee:	00083503          	ld	a0,0(a6)
    800034f2:	0208d693          	srli	a3,a7,0x20
    800034f6:	fff68713          	addi	a4,a3,-1
    800034fa:	02050793          	addi	a5,a0,32
    800034fe:	4605                	li	a2,1
    80003500:	4589                	li	a1,2
    80003502:	537d                	li	t1,-1
    80003504:	fe07b503          	ld	a0,-32(a5)
    80003508:	fe87b483          	ld	s1,-24(a5)
    8000350c:	4095057b          	.insn	4, 0x4095057b
    80003510:	08a514ab          	.insn	4, 0x08a514ab
    80003514:	fea7b023          	sd	a0,-32(a5)
    80003518:	fe97b423          	sd	s1,-24(a5)
    8000351c:	c731                	beqz	a4,80003568 <AES_Encrypt+0xda6>
    8000351e:	ff07b503          	ld	a0,-16(a5)
    80003522:	ff87b483          	ld	s1,-8(a5)
    80003526:	4095057b          	.insn	4, 0x4095057b
    8000352a:	08a514ab          	.insn	4, 0x08a514ab
    8000352e:	fea7b823          	sd	a0,-16(a5)
    80003532:	fe97bc23          	sd	s1,-8(a5)
    80003536:	02c70963          	beq	a4,a2,80003568 <AES_Encrypt+0xda6>
    8000353a:	6388                	ld	a0,0(a5)
    8000353c:	6784                	ld	s1,8(a5)
    8000353e:	4095057b          	.insn	4, 0x4095057b
    80003542:	08a514ab          	.insn	4, 0x08a514ab
    80003546:	e388                	sd	a0,0(a5)
    80003548:	e784                	sd	s1,8(a5)
    8000354a:	00b70f63          	beq	a4,a1,80003568 <AES_Encrypt+0xda6>
    8000354e:	6b88                	ld	a0,16(a5)
    80003550:	6f84                	ld	s1,24(a5)
    80003552:	4095057b          	.insn	4, 0x4095057b
    80003556:	08a514ab          	.insn	4, 0x08a514ab
    8000355a:	eb88                	sd	a0,16(a5)
    8000355c:	ef84                	sd	s1,24(a5)
    8000355e:	1771                	addi	a4,a4,-4
    80003560:	04078793          	addi	a5,a5,64
    80003564:	fa6710e3          	bne	a4,t1,80003504 <AES_Encrypt+0xd42>
    80003568:	4541                	li	a0,16
    8000356a:	00a9d463          	bge	s3,a0,80003572 <AES_Encrypt+0xdb0>
    8000356e:	18e0106f          	j	800046fc <AES_Encrypt+0x1f3a>
    80003572:	00083503          	ld	a0,0(a6)
    80003576:	fff68713          	addi	a4,a3,-1
    8000357a:	02050793          	addi	a5,a0,32
    8000357e:	4605                	li	a2,1
    80003580:	4589                	li	a1,2
    80003582:	537d                	li	t1,-1
    80003584:	fe07b503          	ld	a0,-32(a5)
    80003588:	fe87b483          	ld	s1,-24(a5)
    8000358c:	2095057b          	.insn	4, 0x2095057b
    80003590:	04a514ab          	.insn	4, 0x04a514ab
    80003594:	fea7b023          	sd	a0,-32(a5)
    80003598:	fe97b423          	sd	s1,-24(a5)
    8000359c:	c731                	beqz	a4,800035e8 <AES_Encrypt+0xe26>
    8000359e:	ff07b503          	ld	a0,-16(a5)
    800035a2:	ff87b483          	ld	s1,-8(a5)
    800035a6:	2095057b          	.insn	4, 0x2095057b
    800035aa:	04a514ab          	.insn	4, 0x04a514ab
    800035ae:	fea7b823          	sd	a0,-16(a5)
    800035b2:	fe97bc23          	sd	s1,-8(a5)
    800035b6:	02c70963          	beq	a4,a2,800035e8 <AES_Encrypt+0xe26>
    800035ba:	6388                	ld	a0,0(a5)
    800035bc:	6784                	ld	s1,8(a5)
    800035be:	2095057b          	.insn	4, 0x2095057b
    800035c2:	04a514ab          	.insn	4, 0x04a514ab
    800035c6:	e388                	sd	a0,0(a5)
    800035c8:	e784                	sd	s1,8(a5)
    800035ca:	00b70f63          	beq	a4,a1,800035e8 <AES_Encrypt+0xe26>
    800035ce:	6b88                	ld	a0,16(a5)
    800035d0:	6f84                	ld	s1,24(a5)
    800035d2:	2095057b          	.insn	4, 0x2095057b
    800035d6:	04a514ab          	.insn	4, 0x04a514ab
    800035da:	eb88                	sd	a0,16(a5)
    800035dc:	ef84                	sd	s1,24(a5)
    800035de:	1771                	addi	a4,a4,-4
    800035e0:	04078793          	addi	a5,a5,64
    800035e4:	fa6710e3          	bne	a4,t1,80003584 <AES_Encrypt+0xdc2>
    800035e8:	4541                	li	a0,16
    800035ea:	00a9d463          	bge	s3,a0,800035f2 <AES_Encrypt+0xe30>
    800035ee:	10e0106f          	j	800046fc <AES_Encrypt+0x1f3a>
    800035f2:	00083503          	ld	a0,0(a6)
    800035f6:	fff68713          	addi	a4,a3,-1
    800035fa:	02050793          	addi	a5,a0,32
    800035fe:	4605                	li	a2,1
    80003600:	4589                	li	a1,2
    80003602:	537d                	li	t1,-1
    80003604:	fe07b503          	ld	a0,-32(a5)
    80003608:	fe87b483          	ld	s1,-24(a5)
    8000360c:	0095057b          	.insn	4, 0x0095057b
    80003610:	00a514ab          	.insn	4, 0x00a514ab
    80003614:	fea7b023          	sd	a0,-32(a5)
    80003618:	fe97b423          	sd	s1,-24(a5)
    8000361c:	c731                	beqz	a4,80003668 <AES_Encrypt+0xea6>
    8000361e:	ff07b503          	ld	a0,-16(a5)
    80003622:	ff87b483          	ld	s1,-8(a5)
    80003626:	0095057b          	.insn	4, 0x0095057b
    8000362a:	00a514ab          	.insn	4, 0x00a514ab
    8000362e:	fea7b823          	sd	a0,-16(a5)
    80003632:	fe97bc23          	sd	s1,-8(a5)
    80003636:	02c70963          	beq	a4,a2,80003668 <AES_Encrypt+0xea6>
    8000363a:	6388                	ld	a0,0(a5)
    8000363c:	6784                	ld	s1,8(a5)
    8000363e:	0095057b          	.insn	4, 0x0095057b
    80003642:	00a514ab          	.insn	4, 0x00a514ab
    80003646:	e388                	sd	a0,0(a5)
    80003648:	e784                	sd	s1,8(a5)
    8000364a:	00b70f63          	beq	a4,a1,80003668 <AES_Encrypt+0xea6>
    8000364e:	6b88                	ld	a0,16(a5)
    80003650:	6f84                	ld	s1,24(a5)
    80003652:	0095057b          	.insn	4, 0x0095057b
    80003656:	00a514ab          	.insn	4, 0x00a514ab
    8000365a:	eb88                	sd	a0,16(a5)
    8000365c:	ef84                	sd	s1,24(a5)
    8000365e:	1771                	addi	a4,a4,-4
    80003660:	04078793          	addi	a5,a5,64
    80003664:	fa6710e3          	bne	a4,t1,80003604 <AES_Encrypt+0xe42>
    80003668:	4541                	li	a0,16
    8000366a:	00a9d463          	bge	s3,a0,80003672 <AES_Encrypt+0xeb0>
    8000366e:	08e0106f          	j	800046fc <AES_Encrypt+0x1f3a>
    80003672:	473d                	li	a4,15
    80003674:	0002b503          	ld	a0,0(t0)
    80003678:	05040583          	lb	a1,80(s0)
    8000367c:	953a                	add	a0,a0,a4
    8000367e:	ff150603          	lb	a2,-15(a0)
    80003682:	8db1                	xor	a1,a1,a2
    80003684:	feb508a3          	sb	a1,-15(a0)
    80003688:	0002b503          	ld	a0,0(t0)
    8000368c:	05140583          	lb	a1,81(s0)
    80003690:	953a                	add	a0,a0,a4
    80003692:	ff250603          	lb	a2,-14(a0)
    80003696:	8db1                	xor	a1,a1,a2
    80003698:	feb50923          	sb	a1,-14(a0)
    8000369c:	0002b503          	ld	a0,0(t0)
    800036a0:	05240583          	lb	a1,82(s0)
    800036a4:	953a                	add	a0,a0,a4
    800036a6:	ff350603          	lb	a2,-13(a0)
    800036aa:	8db1                	xor	a1,a1,a2
    800036ac:	feb509a3          	sb	a1,-13(a0)
    800036b0:	0002b503          	ld	a0,0(t0)
    800036b4:	05340583          	lb	a1,83(s0)
    800036b8:	953a                	add	a0,a0,a4
    800036ba:	ff450603          	lb	a2,-12(a0)
    800036be:	8db1                	xor	a1,a1,a2
    800036c0:	feb50a23          	sb	a1,-12(a0)
    800036c4:	0002b503          	ld	a0,0(t0)
    800036c8:	05440583          	lb	a1,84(s0)
    800036cc:	953a                	add	a0,a0,a4
    800036ce:	ff550603          	lb	a2,-11(a0)
    800036d2:	8db1                	xor	a1,a1,a2
    800036d4:	feb50aa3          	sb	a1,-11(a0)
    800036d8:	0002b503          	ld	a0,0(t0)
    800036dc:	05540583          	lb	a1,85(s0)
    800036e0:	953a                	add	a0,a0,a4
    800036e2:	ff650603          	lb	a2,-10(a0)
    800036e6:	8db1                	xor	a1,a1,a2
    800036e8:	feb50b23          	sb	a1,-10(a0)
    800036ec:	0002b503          	ld	a0,0(t0)
    800036f0:	05640583          	lb	a1,86(s0)
    800036f4:	953a                	add	a0,a0,a4
    800036f6:	ff750603          	lb	a2,-9(a0)
    800036fa:	8db1                	xor	a1,a1,a2
    800036fc:	feb50ba3          	sb	a1,-9(a0)
    80003700:	0002b503          	ld	a0,0(t0)
    80003704:	05740583          	lb	a1,87(s0)
    80003708:	953a                	add	a0,a0,a4
    8000370a:	ff850603          	lb	a2,-8(a0)
    8000370e:	8db1                	xor	a1,a1,a2
    80003710:	feb50c23          	sb	a1,-8(a0)
    80003714:	0002b503          	ld	a0,0(t0)
    80003718:	05840583          	lb	a1,88(s0)
    8000371c:	953a                	add	a0,a0,a4
    8000371e:	ff950603          	lb	a2,-7(a0)
    80003722:	8db1                	xor	a1,a1,a2
    80003724:	feb50ca3          	sb	a1,-7(a0)
    80003728:	0002b503          	ld	a0,0(t0)
    8000372c:	05940583          	lb	a1,89(s0)
    80003730:	953a                	add	a0,a0,a4
    80003732:	ffa50603          	lb	a2,-6(a0)
    80003736:	8db1                	xor	a1,a1,a2
    80003738:	feb50d23          	sb	a1,-6(a0)
    8000373c:	0002b503          	ld	a0,0(t0)
    80003740:	05a40583          	lb	a1,90(s0)
    80003744:	953a                	add	a0,a0,a4
    80003746:	ffb50603          	lb	a2,-5(a0)
    8000374a:	8db1                	xor	a1,a1,a2
    8000374c:	feb50da3          	sb	a1,-5(a0)
    80003750:	0002b503          	ld	a0,0(t0)
    80003754:	05b40583          	lb	a1,91(s0)
    80003758:	953a                	add	a0,a0,a4
    8000375a:	ffc50603          	lb	a2,-4(a0)
    8000375e:	8db1                	xor	a1,a1,a2
    80003760:	feb50e23          	sb	a1,-4(a0)
    80003764:	0002b503          	ld	a0,0(t0)
    80003768:	05c40583          	lb	a1,92(s0)
    8000376c:	953a                	add	a0,a0,a4
    8000376e:	ffd50603          	lb	a2,-3(a0)
    80003772:	8db1                	xor	a1,a1,a2
    80003774:	feb50ea3          	sb	a1,-3(a0)
    80003778:	0002b503          	ld	a0,0(t0)
    8000377c:	05d40583          	lb	a1,93(s0)
    80003780:	953a                	add	a0,a0,a4
    80003782:	ffe50603          	lb	a2,-2(a0)
    80003786:	8db1                	xor	a1,a1,a2
    80003788:	feb50f23          	sb	a1,-2(a0)
    8000378c:	0002b503          	ld	a0,0(t0)
    80003790:	05e40583          	lb	a1,94(s0)
    80003794:	953a                	add	a0,a0,a4
    80003796:	fff50603          	lb	a2,-1(a0)
    8000379a:	8db1                	xor	a1,a1,a2
    8000379c:	feb50fa3          	sb	a1,-1(a0)
    800037a0:	0002b503          	ld	a0,0(t0)
    800037a4:	05f40583          	lb	a1,95(s0)
    800037a8:	953a                	add	a0,a0,a4
    800037aa:	00050603          	lb	a2,0(a0)
    800037ae:	8db1                	xor	a1,a1,a2
    800037b0:	00b50023          	sb	a1,0(a0)
    800037b4:	16fd                	addi	a3,a3,-1
    800037b6:	0741                	addi	a4,a4,16
    800037b8:	ea069ee3          	bnez	a3,80003674 <AES_Encrypt+0xeb2>
    800037bc:	4541                	li	a0,16
    800037be:	72a9cfe3          	blt	s3,a0,800046fc <AES_Encrypt+0x1f3a>
    800037c2:	00083503          	ld	a0,0(a6)
    800037c6:	0208d693          	srli	a3,a7,0x20
    800037ca:	fff68713          	addi	a4,a3,-1
    800037ce:	02050793          	addi	a5,a0,32
    800037d2:	4605                	li	a2,1
    800037d4:	4589                	li	a1,2
    800037d6:	537d                	li	t1,-1
    800037d8:	fe07b503          	ld	a0,-32(a5)
    800037dc:	fe87b483          	ld	s1,-24(a5)
    800037e0:	4095057b          	.insn	4, 0x4095057b
    800037e4:	08a514ab          	.insn	4, 0x08a514ab
    800037e8:	fea7b023          	sd	a0,-32(a5)
    800037ec:	fe97b423          	sd	s1,-24(a5)
    800037f0:	c731                	beqz	a4,8000383c <AES_Encrypt+0x107a>
    800037f2:	ff07b503          	ld	a0,-16(a5)
    800037f6:	ff87b483          	ld	s1,-8(a5)
    800037fa:	4095057b          	.insn	4, 0x4095057b
    800037fe:	08a514ab          	.insn	4, 0x08a514ab
    80003802:	fea7b823          	sd	a0,-16(a5)
    80003806:	fe97bc23          	sd	s1,-8(a5)
    8000380a:	02c70963          	beq	a4,a2,8000383c <AES_Encrypt+0x107a>
    8000380e:	6388                	ld	a0,0(a5)
    80003810:	6784                	ld	s1,8(a5)
    80003812:	4095057b          	.insn	4, 0x4095057b
    80003816:	08a514ab          	.insn	4, 0x08a514ab
    8000381a:	e388                	sd	a0,0(a5)
    8000381c:	e784                	sd	s1,8(a5)
    8000381e:	00b70f63          	beq	a4,a1,8000383c <AES_Encrypt+0x107a>
    80003822:	6b88                	ld	a0,16(a5)
    80003824:	6f84                	ld	s1,24(a5)
    80003826:	4095057b          	.insn	4, 0x4095057b
    8000382a:	08a514ab          	.insn	4, 0x08a514ab
    8000382e:	eb88                	sd	a0,16(a5)
    80003830:	ef84                	sd	s1,24(a5)
    80003832:	1771                	addi	a4,a4,-4
    80003834:	04078793          	addi	a5,a5,64
    80003838:	fa6710e3          	bne	a4,t1,800037d8 <AES_Encrypt+0x1016>
    8000383c:	4541                	li	a0,16
    8000383e:	6aa9cfe3          	blt	s3,a0,800046fc <AES_Encrypt+0x1f3a>
    80003842:	00083503          	ld	a0,0(a6)
    80003846:	fff68713          	addi	a4,a3,-1
    8000384a:	02050793          	addi	a5,a0,32
    8000384e:	4605                	li	a2,1
    80003850:	4589                	li	a1,2
    80003852:	537d                	li	t1,-1
    80003854:	fe07b503          	ld	a0,-32(a5)
    80003858:	fe87b483          	ld	s1,-24(a5)
    8000385c:	2095057b          	.insn	4, 0x2095057b
    80003860:	04a514ab          	.insn	4, 0x04a514ab
    80003864:	fea7b023          	sd	a0,-32(a5)
    80003868:	fe97b423          	sd	s1,-24(a5)
    8000386c:	c731                	beqz	a4,800038b8 <AES_Encrypt+0x10f6>
    8000386e:	ff07b503          	ld	a0,-16(a5)
    80003872:	ff87b483          	ld	s1,-8(a5)
    80003876:	2095057b          	.insn	4, 0x2095057b
    8000387a:	04a514ab          	.insn	4, 0x04a514ab
    8000387e:	fea7b823          	sd	a0,-16(a5)
    80003882:	fe97bc23          	sd	s1,-8(a5)
    80003886:	02c70963          	beq	a4,a2,800038b8 <AES_Encrypt+0x10f6>
    8000388a:	6388                	ld	a0,0(a5)
    8000388c:	6784                	ld	s1,8(a5)
    8000388e:	2095057b          	.insn	4, 0x2095057b
    80003892:	04a514ab          	.insn	4, 0x04a514ab
    80003896:	e388                	sd	a0,0(a5)
    80003898:	e784                	sd	s1,8(a5)
    8000389a:	00b70f63          	beq	a4,a1,800038b8 <AES_Encrypt+0x10f6>
    8000389e:	6b88                	ld	a0,16(a5)
    800038a0:	6f84                	ld	s1,24(a5)
    800038a2:	2095057b          	.insn	4, 0x2095057b
    800038a6:	04a514ab          	.insn	4, 0x04a514ab
    800038aa:	eb88                	sd	a0,16(a5)
    800038ac:	ef84                	sd	s1,24(a5)
    800038ae:	1771                	addi	a4,a4,-4
    800038b0:	04078793          	addi	a5,a5,64
    800038b4:	fa6710e3          	bne	a4,t1,80003854 <AES_Encrypt+0x1092>
    800038b8:	4541                	li	a0,16
    800038ba:	64a9c1e3          	blt	s3,a0,800046fc <AES_Encrypt+0x1f3a>
    800038be:	00083503          	ld	a0,0(a6)
    800038c2:	fff68713          	addi	a4,a3,-1
    800038c6:	02050793          	addi	a5,a0,32
    800038ca:	4605                	li	a2,1
    800038cc:	4589                	li	a1,2
    800038ce:	537d                	li	t1,-1
    800038d0:	fe07b503          	ld	a0,-32(a5)
    800038d4:	fe87b483          	ld	s1,-24(a5)
    800038d8:	0095057b          	.insn	4, 0x0095057b
    800038dc:	00a514ab          	.insn	4, 0x00a514ab
    800038e0:	fea7b023          	sd	a0,-32(a5)
    800038e4:	fe97b423          	sd	s1,-24(a5)
    800038e8:	c731                	beqz	a4,80003934 <AES_Encrypt+0x1172>
    800038ea:	ff07b503          	ld	a0,-16(a5)
    800038ee:	ff87b483          	ld	s1,-8(a5)
    800038f2:	0095057b          	.insn	4, 0x0095057b
    800038f6:	00a514ab          	.insn	4, 0x00a514ab
    800038fa:	fea7b823          	sd	a0,-16(a5)
    800038fe:	fe97bc23          	sd	s1,-8(a5)
    80003902:	02c70963          	beq	a4,a2,80003934 <AES_Encrypt+0x1172>
    80003906:	6388                	ld	a0,0(a5)
    80003908:	6784                	ld	s1,8(a5)
    8000390a:	0095057b          	.insn	4, 0x0095057b
    8000390e:	00a514ab          	.insn	4, 0x00a514ab
    80003912:	e388                	sd	a0,0(a5)
    80003914:	e784                	sd	s1,8(a5)
    80003916:	00b70f63          	beq	a4,a1,80003934 <AES_Encrypt+0x1172>
    8000391a:	6b88                	ld	a0,16(a5)
    8000391c:	6f84                	ld	s1,24(a5)
    8000391e:	0095057b          	.insn	4, 0x0095057b
    80003922:	00a514ab          	.insn	4, 0x00a514ab
    80003926:	eb88                	sd	a0,16(a5)
    80003928:	ef84                	sd	s1,24(a5)
    8000392a:	1771                	addi	a4,a4,-4
    8000392c:	04078793          	addi	a5,a5,64
    80003930:	fa6710e3          	bne	a4,t1,800038d0 <AES_Encrypt+0x110e>
    80003934:	4541                	li	a0,16
    80003936:	5ca9c3e3          	blt	s3,a0,800046fc <AES_Encrypt+0x1f3a>
    8000393a:	473d                	li	a4,15
    8000393c:	0002b503          	ld	a0,0(t0)
    80003940:	06040583          	lb	a1,96(s0)
    80003944:	953a                	add	a0,a0,a4
    80003946:	ff150603          	lb	a2,-15(a0)
    8000394a:	8db1                	xor	a1,a1,a2
    8000394c:	feb508a3          	sb	a1,-15(a0)
    80003950:	0002b503          	ld	a0,0(t0)
    80003954:	06140583          	lb	a1,97(s0)
    80003958:	953a                	add	a0,a0,a4
    8000395a:	ff250603          	lb	a2,-14(a0)
    8000395e:	8db1                	xor	a1,a1,a2
    80003960:	feb50923          	sb	a1,-14(a0)
    80003964:	0002b503          	ld	a0,0(t0)
    80003968:	06240583          	lb	a1,98(s0)
    8000396c:	953a                	add	a0,a0,a4
    8000396e:	ff350603          	lb	a2,-13(a0)
    80003972:	8db1                	xor	a1,a1,a2
    80003974:	feb509a3          	sb	a1,-13(a0)
    80003978:	0002b503          	ld	a0,0(t0)
    8000397c:	06340583          	lb	a1,99(s0)
    80003980:	953a                	add	a0,a0,a4
    80003982:	ff450603          	lb	a2,-12(a0)
    80003986:	8db1                	xor	a1,a1,a2
    80003988:	feb50a23          	sb	a1,-12(a0)
    8000398c:	0002b503          	ld	a0,0(t0)
    80003990:	06440583          	lb	a1,100(s0)
    80003994:	953a                	add	a0,a0,a4
    80003996:	ff550603          	lb	a2,-11(a0)
    8000399a:	8db1                	xor	a1,a1,a2
    8000399c:	feb50aa3          	sb	a1,-11(a0)
    800039a0:	0002b503          	ld	a0,0(t0)
    800039a4:	06540583          	lb	a1,101(s0)
    800039a8:	953a                	add	a0,a0,a4
    800039aa:	ff650603          	lb	a2,-10(a0)
    800039ae:	8db1                	xor	a1,a1,a2
    800039b0:	feb50b23          	sb	a1,-10(a0)
    800039b4:	0002b503          	ld	a0,0(t0)
    800039b8:	06640583          	lb	a1,102(s0)
    800039bc:	953a                	add	a0,a0,a4
    800039be:	ff750603          	lb	a2,-9(a0)
    800039c2:	8db1                	xor	a1,a1,a2
    800039c4:	feb50ba3          	sb	a1,-9(a0)
    800039c8:	0002b503          	ld	a0,0(t0)
    800039cc:	06740583          	lb	a1,103(s0)
    800039d0:	953a                	add	a0,a0,a4
    800039d2:	ff850603          	lb	a2,-8(a0)
    800039d6:	8db1                	xor	a1,a1,a2
    800039d8:	feb50c23          	sb	a1,-8(a0)
    800039dc:	0002b503          	ld	a0,0(t0)
    800039e0:	06840583          	lb	a1,104(s0)
    800039e4:	953a                	add	a0,a0,a4
    800039e6:	ff950603          	lb	a2,-7(a0)
    800039ea:	8db1                	xor	a1,a1,a2
    800039ec:	feb50ca3          	sb	a1,-7(a0)
    800039f0:	0002b503          	ld	a0,0(t0)
    800039f4:	06940583          	lb	a1,105(s0)
    800039f8:	953a                	add	a0,a0,a4
    800039fa:	ffa50603          	lb	a2,-6(a0)
    800039fe:	8db1                	xor	a1,a1,a2
    80003a00:	feb50d23          	sb	a1,-6(a0)
    80003a04:	0002b503          	ld	a0,0(t0)
    80003a08:	06a40583          	lb	a1,106(s0)
    80003a0c:	953a                	add	a0,a0,a4
    80003a0e:	ffb50603          	lb	a2,-5(a0)
    80003a12:	8db1                	xor	a1,a1,a2
    80003a14:	feb50da3          	sb	a1,-5(a0)
    80003a18:	0002b503          	ld	a0,0(t0)
    80003a1c:	06b40583          	lb	a1,107(s0)
    80003a20:	953a                	add	a0,a0,a4
    80003a22:	ffc50603          	lb	a2,-4(a0)
    80003a26:	8db1                	xor	a1,a1,a2
    80003a28:	feb50e23          	sb	a1,-4(a0)
    80003a2c:	0002b503          	ld	a0,0(t0)
    80003a30:	06c40583          	lb	a1,108(s0)
    80003a34:	953a                	add	a0,a0,a4
    80003a36:	ffd50603          	lb	a2,-3(a0)
    80003a3a:	8db1                	xor	a1,a1,a2
    80003a3c:	feb50ea3          	sb	a1,-3(a0)
    80003a40:	0002b503          	ld	a0,0(t0)
    80003a44:	06d40583          	lb	a1,109(s0)
    80003a48:	953a                	add	a0,a0,a4
    80003a4a:	ffe50603          	lb	a2,-2(a0)
    80003a4e:	8db1                	xor	a1,a1,a2
    80003a50:	feb50f23          	sb	a1,-2(a0)
    80003a54:	0002b503          	ld	a0,0(t0)
    80003a58:	06e40583          	lb	a1,110(s0)
    80003a5c:	953a                	add	a0,a0,a4
    80003a5e:	fff50603          	lb	a2,-1(a0)
    80003a62:	8db1                	xor	a1,a1,a2
    80003a64:	feb50fa3          	sb	a1,-1(a0)
    80003a68:	0002b503          	ld	a0,0(t0)
    80003a6c:	06f40583          	lb	a1,111(s0)
    80003a70:	953a                	add	a0,a0,a4
    80003a72:	00050603          	lb	a2,0(a0)
    80003a76:	8db1                	xor	a1,a1,a2
    80003a78:	00b50023          	sb	a1,0(a0)
    80003a7c:	16fd                	addi	a3,a3,-1
    80003a7e:	0741                	addi	a4,a4,16
    80003a80:	ea069ee3          	bnez	a3,8000393c <AES_Encrypt+0x117a>
    80003a84:	4541                	li	a0,16
    80003a86:	46a9cbe3          	blt	s3,a0,800046fc <AES_Encrypt+0x1f3a>
    80003a8a:	00083503          	ld	a0,0(a6)
    80003a8e:	0208d693          	srli	a3,a7,0x20
    80003a92:	fff68713          	addi	a4,a3,-1
    80003a96:	02050793          	addi	a5,a0,32
    80003a9a:	4605                	li	a2,1
    80003a9c:	4589                	li	a1,2
    80003a9e:	537d                	li	t1,-1
    80003aa0:	fe07b503          	ld	a0,-32(a5)
    80003aa4:	fe87b483          	ld	s1,-24(a5)
    80003aa8:	4095057b          	.insn	4, 0x4095057b
    80003aac:	08a514ab          	.insn	4, 0x08a514ab
    80003ab0:	fea7b023          	sd	a0,-32(a5)
    80003ab4:	fe97b423          	sd	s1,-24(a5)
    80003ab8:	c731                	beqz	a4,80003b04 <AES_Encrypt+0x1342>
    80003aba:	ff07b503          	ld	a0,-16(a5)
    80003abe:	ff87b483          	ld	s1,-8(a5)
    80003ac2:	4095057b          	.insn	4, 0x4095057b
    80003ac6:	08a514ab          	.insn	4, 0x08a514ab
    80003aca:	fea7b823          	sd	a0,-16(a5)
    80003ace:	fe97bc23          	sd	s1,-8(a5)
    80003ad2:	02c70963          	beq	a4,a2,80003b04 <AES_Encrypt+0x1342>
    80003ad6:	6388                	ld	a0,0(a5)
    80003ad8:	6784                	ld	s1,8(a5)
    80003ada:	4095057b          	.insn	4, 0x4095057b
    80003ade:	08a514ab          	.insn	4, 0x08a514ab
    80003ae2:	e388                	sd	a0,0(a5)
    80003ae4:	e784                	sd	s1,8(a5)
    80003ae6:	00b70f63          	beq	a4,a1,80003b04 <AES_Encrypt+0x1342>
    80003aea:	6b88                	ld	a0,16(a5)
    80003aec:	6f84                	ld	s1,24(a5)
    80003aee:	4095057b          	.insn	4, 0x4095057b
    80003af2:	08a514ab          	.insn	4, 0x08a514ab
    80003af6:	eb88                	sd	a0,16(a5)
    80003af8:	ef84                	sd	s1,24(a5)
    80003afa:	1771                	addi	a4,a4,-4
    80003afc:	04078793          	addi	a5,a5,64
    80003b00:	fa6710e3          	bne	a4,t1,80003aa0 <AES_Encrypt+0x12de>
    80003b04:	4541                	li	a0,16
    80003b06:	3ea9cbe3          	blt	s3,a0,800046fc <AES_Encrypt+0x1f3a>
    80003b0a:	00083503          	ld	a0,0(a6)
    80003b0e:	fff68713          	addi	a4,a3,-1
    80003b12:	02050793          	addi	a5,a0,32
    80003b16:	4605                	li	a2,1
    80003b18:	4589                	li	a1,2
    80003b1a:	537d                	li	t1,-1
    80003b1c:	fe07b503          	ld	a0,-32(a5)
    80003b20:	fe87b483          	ld	s1,-24(a5)
    80003b24:	2095057b          	.insn	4, 0x2095057b
    80003b28:	04a514ab          	.insn	4, 0x04a514ab
    80003b2c:	fea7b023          	sd	a0,-32(a5)
    80003b30:	fe97b423          	sd	s1,-24(a5)
    80003b34:	c731                	beqz	a4,80003b80 <AES_Encrypt+0x13be>
    80003b36:	ff07b503          	ld	a0,-16(a5)
    80003b3a:	ff87b483          	ld	s1,-8(a5)
    80003b3e:	2095057b          	.insn	4, 0x2095057b
    80003b42:	04a514ab          	.insn	4, 0x04a514ab
    80003b46:	fea7b823          	sd	a0,-16(a5)
    80003b4a:	fe97bc23          	sd	s1,-8(a5)
    80003b4e:	02c70963          	beq	a4,a2,80003b80 <AES_Encrypt+0x13be>
    80003b52:	6388                	ld	a0,0(a5)
    80003b54:	6784                	ld	s1,8(a5)
    80003b56:	2095057b          	.insn	4, 0x2095057b
    80003b5a:	04a514ab          	.insn	4, 0x04a514ab
    80003b5e:	e388                	sd	a0,0(a5)
    80003b60:	e784                	sd	s1,8(a5)
    80003b62:	00b70f63          	beq	a4,a1,80003b80 <AES_Encrypt+0x13be>
    80003b66:	6b88                	ld	a0,16(a5)
    80003b68:	6f84                	ld	s1,24(a5)
    80003b6a:	2095057b          	.insn	4, 0x2095057b
    80003b6e:	04a514ab          	.insn	4, 0x04a514ab
    80003b72:	eb88                	sd	a0,16(a5)
    80003b74:	ef84                	sd	s1,24(a5)
    80003b76:	1771                	addi	a4,a4,-4
    80003b78:	04078793          	addi	a5,a5,64
    80003b7c:	fa6710e3          	bne	a4,t1,80003b1c <AES_Encrypt+0x135a>
    80003b80:	4541                	li	a0,16
    80003b82:	36a9cde3          	blt	s3,a0,800046fc <AES_Encrypt+0x1f3a>
    80003b86:	00083503          	ld	a0,0(a6)
    80003b8a:	fff68713          	addi	a4,a3,-1
    80003b8e:	02050793          	addi	a5,a0,32
    80003b92:	4605                	li	a2,1
    80003b94:	4589                	li	a1,2
    80003b96:	537d                	li	t1,-1
    80003b98:	fe07b503          	ld	a0,-32(a5)
    80003b9c:	fe87b483          	ld	s1,-24(a5)
    80003ba0:	0095057b          	.insn	4, 0x0095057b
    80003ba4:	00a514ab          	.insn	4, 0x00a514ab
    80003ba8:	fea7b023          	sd	a0,-32(a5)
    80003bac:	fe97b423          	sd	s1,-24(a5)
    80003bb0:	c731                	beqz	a4,80003bfc <AES_Encrypt+0x143a>
    80003bb2:	ff07b503          	ld	a0,-16(a5)
    80003bb6:	ff87b483          	ld	s1,-8(a5)
    80003bba:	0095057b          	.insn	4, 0x0095057b
    80003bbe:	00a514ab          	.insn	4, 0x00a514ab
    80003bc2:	fea7b823          	sd	a0,-16(a5)
    80003bc6:	fe97bc23          	sd	s1,-8(a5)
    80003bca:	02c70963          	beq	a4,a2,80003bfc <AES_Encrypt+0x143a>
    80003bce:	6388                	ld	a0,0(a5)
    80003bd0:	6784                	ld	s1,8(a5)
    80003bd2:	0095057b          	.insn	4, 0x0095057b
    80003bd6:	00a514ab          	.insn	4, 0x00a514ab
    80003bda:	e388                	sd	a0,0(a5)
    80003bdc:	e784                	sd	s1,8(a5)
    80003bde:	00b70f63          	beq	a4,a1,80003bfc <AES_Encrypt+0x143a>
    80003be2:	6b88                	ld	a0,16(a5)
    80003be4:	6f84                	ld	s1,24(a5)
    80003be6:	0095057b          	.insn	4, 0x0095057b
    80003bea:	00a514ab          	.insn	4, 0x00a514ab
    80003bee:	eb88                	sd	a0,16(a5)
    80003bf0:	ef84                	sd	s1,24(a5)
    80003bf2:	1771                	addi	a4,a4,-4
    80003bf4:	04078793          	addi	a5,a5,64
    80003bf8:	fa6710e3          	bne	a4,t1,80003b98 <AES_Encrypt+0x13d6>
    80003bfc:	4541                	li	a0,16
    80003bfe:	2ea9cfe3          	blt	s3,a0,800046fc <AES_Encrypt+0x1f3a>
    80003c02:	473d                	li	a4,15
    80003c04:	0002b503          	ld	a0,0(t0)
    80003c08:	07040583          	lb	a1,112(s0)
    80003c0c:	953a                	add	a0,a0,a4
    80003c0e:	ff150603          	lb	a2,-15(a0)
    80003c12:	8db1                	xor	a1,a1,a2
    80003c14:	feb508a3          	sb	a1,-15(a0)
    80003c18:	0002b503          	ld	a0,0(t0)
    80003c1c:	07140583          	lb	a1,113(s0)
    80003c20:	953a                	add	a0,a0,a4
    80003c22:	ff250603          	lb	a2,-14(a0)
    80003c26:	8db1                	xor	a1,a1,a2
    80003c28:	feb50923          	sb	a1,-14(a0)
    80003c2c:	0002b503          	ld	a0,0(t0)
    80003c30:	07240583          	lb	a1,114(s0)
    80003c34:	953a                	add	a0,a0,a4
    80003c36:	ff350603          	lb	a2,-13(a0)
    80003c3a:	8db1                	xor	a1,a1,a2
    80003c3c:	feb509a3          	sb	a1,-13(a0)
    80003c40:	0002b503          	ld	a0,0(t0)
    80003c44:	07340583          	lb	a1,115(s0)
    80003c48:	953a                	add	a0,a0,a4
    80003c4a:	ff450603          	lb	a2,-12(a0)
    80003c4e:	8db1                	xor	a1,a1,a2
    80003c50:	feb50a23          	sb	a1,-12(a0)
    80003c54:	0002b503          	ld	a0,0(t0)
    80003c58:	07440583          	lb	a1,116(s0)
    80003c5c:	953a                	add	a0,a0,a4
    80003c5e:	ff550603          	lb	a2,-11(a0)
    80003c62:	8db1                	xor	a1,a1,a2
    80003c64:	feb50aa3          	sb	a1,-11(a0)
    80003c68:	0002b503          	ld	a0,0(t0)
    80003c6c:	07540583          	lb	a1,117(s0)
    80003c70:	953a                	add	a0,a0,a4
    80003c72:	ff650603          	lb	a2,-10(a0)
    80003c76:	8db1                	xor	a1,a1,a2
    80003c78:	feb50b23          	sb	a1,-10(a0)
    80003c7c:	0002b503          	ld	a0,0(t0)
    80003c80:	07640583          	lb	a1,118(s0)
    80003c84:	953a                	add	a0,a0,a4
    80003c86:	ff750603          	lb	a2,-9(a0)
    80003c8a:	8db1                	xor	a1,a1,a2
    80003c8c:	feb50ba3          	sb	a1,-9(a0)
    80003c90:	0002b503          	ld	a0,0(t0)
    80003c94:	07740583          	lb	a1,119(s0)
    80003c98:	953a                	add	a0,a0,a4
    80003c9a:	ff850603          	lb	a2,-8(a0)
    80003c9e:	8db1                	xor	a1,a1,a2
    80003ca0:	feb50c23          	sb	a1,-8(a0)
    80003ca4:	0002b503          	ld	a0,0(t0)
    80003ca8:	07840583          	lb	a1,120(s0)
    80003cac:	953a                	add	a0,a0,a4
    80003cae:	ff950603          	lb	a2,-7(a0)
    80003cb2:	8db1                	xor	a1,a1,a2
    80003cb4:	feb50ca3          	sb	a1,-7(a0)
    80003cb8:	0002b503          	ld	a0,0(t0)
    80003cbc:	07940583          	lb	a1,121(s0)
    80003cc0:	953a                	add	a0,a0,a4
    80003cc2:	ffa50603          	lb	a2,-6(a0)
    80003cc6:	8db1                	xor	a1,a1,a2
    80003cc8:	feb50d23          	sb	a1,-6(a0)
    80003ccc:	0002b503          	ld	a0,0(t0)
    80003cd0:	07a40583          	lb	a1,122(s0)
    80003cd4:	953a                	add	a0,a0,a4
    80003cd6:	ffb50603          	lb	a2,-5(a0)
    80003cda:	8db1                	xor	a1,a1,a2
    80003cdc:	feb50da3          	sb	a1,-5(a0)
    80003ce0:	0002b503          	ld	a0,0(t0)
    80003ce4:	07b40583          	lb	a1,123(s0)
    80003ce8:	953a                	add	a0,a0,a4
    80003cea:	ffc50603          	lb	a2,-4(a0)
    80003cee:	8db1                	xor	a1,a1,a2
    80003cf0:	feb50e23          	sb	a1,-4(a0)
    80003cf4:	0002b503          	ld	a0,0(t0)
    80003cf8:	07c40583          	lb	a1,124(s0)
    80003cfc:	953a                	add	a0,a0,a4
    80003cfe:	ffd50603          	lb	a2,-3(a0)
    80003d02:	8db1                	xor	a1,a1,a2
    80003d04:	feb50ea3          	sb	a1,-3(a0)
    80003d08:	0002b503          	ld	a0,0(t0)
    80003d0c:	07d40583          	lb	a1,125(s0)
    80003d10:	953a                	add	a0,a0,a4
    80003d12:	ffe50603          	lb	a2,-2(a0)
    80003d16:	8db1                	xor	a1,a1,a2
    80003d18:	feb50f23          	sb	a1,-2(a0)
    80003d1c:	0002b503          	ld	a0,0(t0)
    80003d20:	07e40583          	lb	a1,126(s0)
    80003d24:	953a                	add	a0,a0,a4
    80003d26:	fff50603          	lb	a2,-1(a0)
    80003d2a:	8db1                	xor	a1,a1,a2
    80003d2c:	feb50fa3          	sb	a1,-1(a0)
    80003d30:	0002b503          	ld	a0,0(t0)
    80003d34:	07f40583          	lb	a1,127(s0)
    80003d38:	953a                	add	a0,a0,a4
    80003d3a:	00050603          	lb	a2,0(a0)
    80003d3e:	8db1                	xor	a1,a1,a2
    80003d40:	00b50023          	sb	a1,0(a0)
    80003d44:	16fd                	addi	a3,a3,-1
    80003d46:	0741                	addi	a4,a4,16
    80003d48:	ea069ee3          	bnez	a3,80003c04 <AES_Encrypt+0x1442>
    80003d4c:	4541                	li	a0,16
    80003d4e:	1aa9c7e3          	blt	s3,a0,800046fc <AES_Encrypt+0x1f3a>
    80003d52:	00083503          	ld	a0,0(a6)
    80003d56:	0208d693          	srli	a3,a7,0x20
    80003d5a:	fff68713          	addi	a4,a3,-1
    80003d5e:	02050793          	addi	a5,a0,32
    80003d62:	4605                	li	a2,1
    80003d64:	4589                	li	a1,2
    80003d66:	537d                	li	t1,-1
    80003d68:	fe07b503          	ld	a0,-32(a5)
    80003d6c:	fe87b483          	ld	s1,-24(a5)
    80003d70:	4095057b          	.insn	4, 0x4095057b
    80003d74:	08a514ab          	.insn	4, 0x08a514ab
    80003d78:	fea7b023          	sd	a0,-32(a5)
    80003d7c:	fe97b423          	sd	s1,-24(a5)
    80003d80:	c731                	beqz	a4,80003dcc <AES_Encrypt+0x160a>
    80003d82:	ff07b503          	ld	a0,-16(a5)
    80003d86:	ff87b483          	ld	s1,-8(a5)
    80003d8a:	4095057b          	.insn	4, 0x4095057b
    80003d8e:	08a514ab          	.insn	4, 0x08a514ab
    80003d92:	fea7b823          	sd	a0,-16(a5)
    80003d96:	fe97bc23          	sd	s1,-8(a5)
    80003d9a:	02c70963          	beq	a4,a2,80003dcc <AES_Encrypt+0x160a>
    80003d9e:	6388                	ld	a0,0(a5)
    80003da0:	6784                	ld	s1,8(a5)
    80003da2:	4095057b          	.insn	4, 0x4095057b
    80003da6:	08a514ab          	.insn	4, 0x08a514ab
    80003daa:	e388                	sd	a0,0(a5)
    80003dac:	e784                	sd	s1,8(a5)
    80003dae:	00b70f63          	beq	a4,a1,80003dcc <AES_Encrypt+0x160a>
    80003db2:	6b88                	ld	a0,16(a5)
    80003db4:	6f84                	ld	s1,24(a5)
    80003db6:	4095057b          	.insn	4, 0x4095057b
    80003dba:	08a514ab          	.insn	4, 0x08a514ab
    80003dbe:	eb88                	sd	a0,16(a5)
    80003dc0:	ef84                	sd	s1,24(a5)
    80003dc2:	1771                	addi	a4,a4,-4
    80003dc4:	04078793          	addi	a5,a5,64
    80003dc8:	fa6710e3          	bne	a4,t1,80003d68 <AES_Encrypt+0x15a6>
    80003dcc:	4541                	li	a0,16
    80003dce:	12a9c7e3          	blt	s3,a0,800046fc <AES_Encrypt+0x1f3a>
    80003dd2:	00083503          	ld	a0,0(a6)
    80003dd6:	fff68713          	addi	a4,a3,-1
    80003dda:	02050793          	addi	a5,a0,32
    80003dde:	4605                	li	a2,1
    80003de0:	4589                	li	a1,2
    80003de2:	537d                	li	t1,-1
    80003de4:	fe07b503          	ld	a0,-32(a5)
    80003de8:	fe87b483          	ld	s1,-24(a5)
    80003dec:	2095057b          	.insn	4, 0x2095057b
    80003df0:	04a514ab          	.insn	4, 0x04a514ab
    80003df4:	fea7b023          	sd	a0,-32(a5)
    80003df8:	fe97b423          	sd	s1,-24(a5)
    80003dfc:	c731                	beqz	a4,80003e48 <AES_Encrypt+0x1686>
    80003dfe:	ff07b503          	ld	a0,-16(a5)
    80003e02:	ff87b483          	ld	s1,-8(a5)
    80003e06:	2095057b          	.insn	4, 0x2095057b
    80003e0a:	04a514ab          	.insn	4, 0x04a514ab
    80003e0e:	fea7b823          	sd	a0,-16(a5)
    80003e12:	fe97bc23          	sd	s1,-8(a5)
    80003e16:	02c70963          	beq	a4,a2,80003e48 <AES_Encrypt+0x1686>
    80003e1a:	6388                	ld	a0,0(a5)
    80003e1c:	6784                	ld	s1,8(a5)
    80003e1e:	2095057b          	.insn	4, 0x2095057b
    80003e22:	04a514ab          	.insn	4, 0x04a514ab
    80003e26:	e388                	sd	a0,0(a5)
    80003e28:	e784                	sd	s1,8(a5)
    80003e2a:	00b70f63          	beq	a4,a1,80003e48 <AES_Encrypt+0x1686>
    80003e2e:	6b88                	ld	a0,16(a5)
    80003e30:	6f84                	ld	s1,24(a5)
    80003e32:	2095057b          	.insn	4, 0x2095057b
    80003e36:	04a514ab          	.insn	4, 0x04a514ab
    80003e3a:	eb88                	sd	a0,16(a5)
    80003e3c:	ef84                	sd	s1,24(a5)
    80003e3e:	1771                	addi	a4,a4,-4
    80003e40:	04078793          	addi	a5,a5,64
    80003e44:	fa6710e3          	bne	a4,t1,80003de4 <AES_Encrypt+0x1622>
    80003e48:	4541                	li	a0,16
    80003e4a:	0aa9c9e3          	blt	s3,a0,800046fc <AES_Encrypt+0x1f3a>
    80003e4e:	00083503          	ld	a0,0(a6)
    80003e52:	fff68713          	addi	a4,a3,-1
    80003e56:	02050793          	addi	a5,a0,32
    80003e5a:	4605                	li	a2,1
    80003e5c:	4589                	li	a1,2
    80003e5e:	537d                	li	t1,-1
    80003e60:	fe07b503          	ld	a0,-32(a5)
    80003e64:	fe87b483          	ld	s1,-24(a5)
    80003e68:	0095057b          	.insn	4, 0x0095057b
    80003e6c:	00a514ab          	.insn	4, 0x00a514ab
    80003e70:	fea7b023          	sd	a0,-32(a5)
    80003e74:	fe97b423          	sd	s1,-24(a5)
    80003e78:	c731                	beqz	a4,80003ec4 <AES_Encrypt+0x1702>
    80003e7a:	ff07b503          	ld	a0,-16(a5)
    80003e7e:	ff87b483          	ld	s1,-8(a5)
    80003e82:	0095057b          	.insn	4, 0x0095057b
    80003e86:	00a514ab          	.insn	4, 0x00a514ab
    80003e8a:	fea7b823          	sd	a0,-16(a5)
    80003e8e:	fe97bc23          	sd	s1,-8(a5)
    80003e92:	02c70963          	beq	a4,a2,80003ec4 <AES_Encrypt+0x1702>
    80003e96:	6388                	ld	a0,0(a5)
    80003e98:	6784                	ld	s1,8(a5)
    80003e9a:	0095057b          	.insn	4, 0x0095057b
    80003e9e:	00a514ab          	.insn	4, 0x00a514ab
    80003ea2:	e388                	sd	a0,0(a5)
    80003ea4:	e784                	sd	s1,8(a5)
    80003ea6:	00b70f63          	beq	a4,a1,80003ec4 <AES_Encrypt+0x1702>
    80003eaa:	6b88                	ld	a0,16(a5)
    80003eac:	6f84                	ld	s1,24(a5)
    80003eae:	0095057b          	.insn	4, 0x0095057b
    80003eb2:	00a514ab          	.insn	4, 0x00a514ab
    80003eb6:	eb88                	sd	a0,16(a5)
    80003eb8:	ef84                	sd	s1,24(a5)
    80003eba:	1771                	addi	a4,a4,-4
    80003ebc:	04078793          	addi	a5,a5,64
    80003ec0:	fa6710e3          	bne	a4,t1,80003e60 <AES_Encrypt+0x169e>
    80003ec4:	4541                	li	a0,16
    80003ec6:	02a9cbe3          	blt	s3,a0,800046fc <AES_Encrypt+0x1f3a>
    80003eca:	473d                	li	a4,15
    80003ecc:	0002b503          	ld	a0,0(t0)
    80003ed0:	08040583          	lb	a1,128(s0)
    80003ed4:	953a                	add	a0,a0,a4
    80003ed6:	ff150603          	lb	a2,-15(a0)
    80003eda:	8db1                	xor	a1,a1,a2
    80003edc:	feb508a3          	sb	a1,-15(a0)
    80003ee0:	0002b503          	ld	a0,0(t0)
    80003ee4:	08140583          	lb	a1,129(s0)
    80003ee8:	953a                	add	a0,a0,a4
    80003eea:	ff250603          	lb	a2,-14(a0)
    80003eee:	8db1                	xor	a1,a1,a2
    80003ef0:	feb50923          	sb	a1,-14(a0)
    80003ef4:	0002b503          	ld	a0,0(t0)
    80003ef8:	08240583          	lb	a1,130(s0)
    80003efc:	953a                	add	a0,a0,a4
    80003efe:	ff350603          	lb	a2,-13(a0)
    80003f02:	8db1                	xor	a1,a1,a2
    80003f04:	feb509a3          	sb	a1,-13(a0)
    80003f08:	0002b503          	ld	a0,0(t0)
    80003f0c:	08340583          	lb	a1,131(s0)
    80003f10:	953a                	add	a0,a0,a4
    80003f12:	ff450603          	lb	a2,-12(a0)
    80003f16:	8db1                	xor	a1,a1,a2
    80003f18:	feb50a23          	sb	a1,-12(a0)
    80003f1c:	0002b503          	ld	a0,0(t0)
    80003f20:	08440583          	lb	a1,132(s0)
    80003f24:	953a                	add	a0,a0,a4
    80003f26:	ff550603          	lb	a2,-11(a0)
    80003f2a:	8db1                	xor	a1,a1,a2
    80003f2c:	feb50aa3          	sb	a1,-11(a0)
    80003f30:	0002b503          	ld	a0,0(t0)
    80003f34:	08540583          	lb	a1,133(s0)
    80003f38:	953a                	add	a0,a0,a4
    80003f3a:	ff650603          	lb	a2,-10(a0)
    80003f3e:	8db1                	xor	a1,a1,a2
    80003f40:	feb50b23          	sb	a1,-10(a0)
    80003f44:	0002b503          	ld	a0,0(t0)
    80003f48:	08640583          	lb	a1,134(s0)
    80003f4c:	953a                	add	a0,a0,a4
    80003f4e:	ff750603          	lb	a2,-9(a0)
    80003f52:	8db1                	xor	a1,a1,a2
    80003f54:	feb50ba3          	sb	a1,-9(a0)
    80003f58:	0002b503          	ld	a0,0(t0)
    80003f5c:	08740583          	lb	a1,135(s0)
    80003f60:	953a                	add	a0,a0,a4
    80003f62:	ff850603          	lb	a2,-8(a0)
    80003f66:	8db1                	xor	a1,a1,a2
    80003f68:	feb50c23          	sb	a1,-8(a0)
    80003f6c:	0002b503          	ld	a0,0(t0)
    80003f70:	08840583          	lb	a1,136(s0)
    80003f74:	953a                	add	a0,a0,a4
    80003f76:	ff950603          	lb	a2,-7(a0)
    80003f7a:	8db1                	xor	a1,a1,a2
    80003f7c:	feb50ca3          	sb	a1,-7(a0)
    80003f80:	0002b503          	ld	a0,0(t0)
    80003f84:	08940583          	lb	a1,137(s0)
    80003f88:	953a                	add	a0,a0,a4
    80003f8a:	ffa50603          	lb	a2,-6(a0)
    80003f8e:	8db1                	xor	a1,a1,a2
    80003f90:	feb50d23          	sb	a1,-6(a0)
    80003f94:	0002b503          	ld	a0,0(t0)
    80003f98:	08a40583          	lb	a1,138(s0)
    80003f9c:	953a                	add	a0,a0,a4
    80003f9e:	ffb50603          	lb	a2,-5(a0)
    80003fa2:	8db1                	xor	a1,a1,a2
    80003fa4:	feb50da3          	sb	a1,-5(a0)
    80003fa8:	0002b503          	ld	a0,0(t0)
    80003fac:	08b40583          	lb	a1,139(s0)
    80003fb0:	953a                	add	a0,a0,a4
    80003fb2:	ffc50603          	lb	a2,-4(a0)
    80003fb6:	8db1                	xor	a1,a1,a2
    80003fb8:	feb50e23          	sb	a1,-4(a0)
    80003fbc:	0002b503          	ld	a0,0(t0)
    80003fc0:	08c40583          	lb	a1,140(s0)
    80003fc4:	953a                	add	a0,a0,a4
    80003fc6:	ffd50603          	lb	a2,-3(a0)
    80003fca:	8db1                	xor	a1,a1,a2
    80003fcc:	feb50ea3          	sb	a1,-3(a0)
    80003fd0:	0002b503          	ld	a0,0(t0)
    80003fd4:	08d40583          	lb	a1,141(s0)
    80003fd8:	953a                	add	a0,a0,a4
    80003fda:	ffe50603          	lb	a2,-2(a0)
    80003fde:	8db1                	xor	a1,a1,a2
    80003fe0:	feb50f23          	sb	a1,-2(a0)
    80003fe4:	0002b503          	ld	a0,0(t0)
    80003fe8:	08e40583          	lb	a1,142(s0)
    80003fec:	953a                	add	a0,a0,a4
    80003fee:	fff50603          	lb	a2,-1(a0)
    80003ff2:	8db1                	xor	a1,a1,a2
    80003ff4:	feb50fa3          	sb	a1,-1(a0)
    80003ff8:	0002b503          	ld	a0,0(t0)
    80003ffc:	08f40583          	lb	a1,143(s0)
    80004000:	953a                	add	a0,a0,a4
    80004002:	00050603          	lb	a2,0(a0)
    80004006:	8db1                	xor	a1,a1,a2
    80004008:	00b50023          	sb	a1,0(a0)
    8000400c:	16fd                	addi	a3,a3,-1
    8000400e:	0741                	addi	a4,a4,16
    80004010:	ea069ee3          	bnez	a3,80003ecc <AES_Encrypt+0x170a>
    80004014:	4541                	li	a0,16
    80004016:	6ea9c363          	blt	s3,a0,800046fc <AES_Encrypt+0x1f3a>
    8000401a:	00083503          	ld	a0,0(a6)
    8000401e:	0208d693          	srli	a3,a7,0x20
    80004022:	fff68713          	addi	a4,a3,-1
    80004026:	02050793          	addi	a5,a0,32
    8000402a:	4605                	li	a2,1
    8000402c:	4589                	li	a1,2
    8000402e:	537d                	li	t1,-1
    80004030:	fe07b503          	ld	a0,-32(a5)
    80004034:	fe87b483          	ld	s1,-24(a5)
    80004038:	4095057b          	.insn	4, 0x4095057b
    8000403c:	08a514ab          	.insn	4, 0x08a514ab
    80004040:	fea7b023          	sd	a0,-32(a5)
    80004044:	fe97b423          	sd	s1,-24(a5)
    80004048:	c731                	beqz	a4,80004094 <AES_Encrypt+0x18d2>
    8000404a:	ff07b503          	ld	a0,-16(a5)
    8000404e:	ff87b483          	ld	s1,-8(a5)
    80004052:	4095057b          	.insn	4, 0x4095057b
    80004056:	08a514ab          	.insn	4, 0x08a514ab
    8000405a:	fea7b823          	sd	a0,-16(a5)
    8000405e:	fe97bc23          	sd	s1,-8(a5)
    80004062:	02c70963          	beq	a4,a2,80004094 <AES_Encrypt+0x18d2>
    80004066:	6388                	ld	a0,0(a5)
    80004068:	6784                	ld	s1,8(a5)
    8000406a:	4095057b          	.insn	4, 0x4095057b
    8000406e:	08a514ab          	.insn	4, 0x08a514ab
    80004072:	e388                	sd	a0,0(a5)
    80004074:	e784                	sd	s1,8(a5)
    80004076:	00b70f63          	beq	a4,a1,80004094 <AES_Encrypt+0x18d2>
    8000407a:	6b88                	ld	a0,16(a5)
    8000407c:	6f84                	ld	s1,24(a5)
    8000407e:	4095057b          	.insn	4, 0x4095057b
    80004082:	08a514ab          	.insn	4, 0x08a514ab
    80004086:	eb88                	sd	a0,16(a5)
    80004088:	ef84                	sd	s1,24(a5)
    8000408a:	1771                	addi	a4,a4,-4
    8000408c:	04078793          	addi	a5,a5,64
    80004090:	fa6710e3          	bne	a4,t1,80004030 <AES_Encrypt+0x186e>
    80004094:	4541                	li	a0,16
    80004096:	66a9c363          	blt	s3,a0,800046fc <AES_Encrypt+0x1f3a>
    8000409a:	00083503          	ld	a0,0(a6)
    8000409e:	fff68713          	addi	a4,a3,-1
    800040a2:	02050793          	addi	a5,a0,32
    800040a6:	4605                	li	a2,1
    800040a8:	4589                	li	a1,2
    800040aa:	537d                	li	t1,-1
    800040ac:	fe07b503          	ld	a0,-32(a5)
    800040b0:	fe87b483          	ld	s1,-24(a5)
    800040b4:	2095057b          	.insn	4, 0x2095057b
    800040b8:	04a514ab          	.insn	4, 0x04a514ab
    800040bc:	fea7b023          	sd	a0,-32(a5)
    800040c0:	fe97b423          	sd	s1,-24(a5)
    800040c4:	c731                	beqz	a4,80004110 <AES_Encrypt+0x194e>
    800040c6:	ff07b503          	ld	a0,-16(a5)
    800040ca:	ff87b483          	ld	s1,-8(a5)
    800040ce:	2095057b          	.insn	4, 0x2095057b
    800040d2:	04a514ab          	.insn	4, 0x04a514ab
    800040d6:	fea7b823          	sd	a0,-16(a5)
    800040da:	fe97bc23          	sd	s1,-8(a5)
    800040de:	02c70963          	beq	a4,a2,80004110 <AES_Encrypt+0x194e>
    800040e2:	6388                	ld	a0,0(a5)
    800040e4:	6784                	ld	s1,8(a5)
    800040e6:	2095057b          	.insn	4, 0x2095057b
    800040ea:	04a514ab          	.insn	4, 0x04a514ab
    800040ee:	e388                	sd	a0,0(a5)
    800040f0:	e784                	sd	s1,8(a5)
    800040f2:	00b70f63          	beq	a4,a1,80004110 <AES_Encrypt+0x194e>
    800040f6:	6b88                	ld	a0,16(a5)
    800040f8:	6f84                	ld	s1,24(a5)
    800040fa:	2095057b          	.insn	4, 0x2095057b
    800040fe:	04a514ab          	.insn	4, 0x04a514ab
    80004102:	eb88                	sd	a0,16(a5)
    80004104:	ef84                	sd	s1,24(a5)
    80004106:	1771                	addi	a4,a4,-4
    80004108:	04078793          	addi	a5,a5,64
    8000410c:	fa6710e3          	bne	a4,t1,800040ac <AES_Encrypt+0x18ea>
    80004110:	4541                	li	a0,16
    80004112:	5ea9c563          	blt	s3,a0,800046fc <AES_Encrypt+0x1f3a>
    80004116:	00083503          	ld	a0,0(a6)
    8000411a:	fff68713          	addi	a4,a3,-1
    8000411e:	02050793          	addi	a5,a0,32
    80004122:	4605                	li	a2,1
    80004124:	4589                	li	a1,2
    80004126:	537d                	li	t1,-1
    80004128:	fe07b503          	ld	a0,-32(a5)
    8000412c:	fe87b483          	ld	s1,-24(a5)
    80004130:	0095057b          	.insn	4, 0x0095057b
    80004134:	00a514ab          	.insn	4, 0x00a514ab
    80004138:	fea7b023          	sd	a0,-32(a5)
    8000413c:	fe97b423          	sd	s1,-24(a5)
    80004140:	c731                	beqz	a4,8000418c <AES_Encrypt+0x19ca>
    80004142:	ff07b503          	ld	a0,-16(a5)
    80004146:	ff87b483          	ld	s1,-8(a5)
    8000414a:	0095057b          	.insn	4, 0x0095057b
    8000414e:	00a514ab          	.insn	4, 0x00a514ab
    80004152:	fea7b823          	sd	a0,-16(a5)
    80004156:	fe97bc23          	sd	s1,-8(a5)
    8000415a:	02c70963          	beq	a4,a2,8000418c <AES_Encrypt+0x19ca>
    8000415e:	6388                	ld	a0,0(a5)
    80004160:	6784                	ld	s1,8(a5)
    80004162:	0095057b          	.insn	4, 0x0095057b
    80004166:	00a514ab          	.insn	4, 0x00a514ab
    8000416a:	e388                	sd	a0,0(a5)
    8000416c:	e784                	sd	s1,8(a5)
    8000416e:	00b70f63          	beq	a4,a1,8000418c <AES_Encrypt+0x19ca>
    80004172:	6b88                	ld	a0,16(a5)
    80004174:	6f84                	ld	s1,24(a5)
    80004176:	0095057b          	.insn	4, 0x0095057b
    8000417a:	00a514ab          	.insn	4, 0x00a514ab
    8000417e:	eb88                	sd	a0,16(a5)
    80004180:	ef84                	sd	s1,24(a5)
    80004182:	1771                	addi	a4,a4,-4
    80004184:	04078793          	addi	a5,a5,64
    80004188:	fa6710e3          	bne	a4,t1,80004128 <AES_Encrypt+0x1966>
    8000418c:	4541                	li	a0,16
    8000418e:	56a9c763          	blt	s3,a0,800046fc <AES_Encrypt+0x1f3a>
    80004192:	473d                	li	a4,15
    80004194:	0002b503          	ld	a0,0(t0)
    80004198:	09040583          	lb	a1,144(s0)
    8000419c:	953a                	add	a0,a0,a4
    8000419e:	ff150603          	lb	a2,-15(a0)
    800041a2:	8db1                	xor	a1,a1,a2
    800041a4:	feb508a3          	sb	a1,-15(a0)
    800041a8:	0002b503          	ld	a0,0(t0)
    800041ac:	09140583          	lb	a1,145(s0)
    800041b0:	953a                	add	a0,a0,a4
    800041b2:	ff250603          	lb	a2,-14(a0)
    800041b6:	8db1                	xor	a1,a1,a2
    800041b8:	feb50923          	sb	a1,-14(a0)
    800041bc:	0002b503          	ld	a0,0(t0)
    800041c0:	09240583          	lb	a1,146(s0)
    800041c4:	953a                	add	a0,a0,a4
    800041c6:	ff350603          	lb	a2,-13(a0)
    800041ca:	8db1                	xor	a1,a1,a2
    800041cc:	feb509a3          	sb	a1,-13(a0)
    800041d0:	0002b503          	ld	a0,0(t0)
    800041d4:	09340583          	lb	a1,147(s0)
    800041d8:	953a                	add	a0,a0,a4
    800041da:	ff450603          	lb	a2,-12(a0)
    800041de:	8db1                	xor	a1,a1,a2
    800041e0:	feb50a23          	sb	a1,-12(a0)
    800041e4:	0002b503          	ld	a0,0(t0)
    800041e8:	09440583          	lb	a1,148(s0)
    800041ec:	953a                	add	a0,a0,a4
    800041ee:	ff550603          	lb	a2,-11(a0)
    800041f2:	8db1                	xor	a1,a1,a2
    800041f4:	feb50aa3          	sb	a1,-11(a0)
    800041f8:	0002b503          	ld	a0,0(t0)
    800041fc:	09540583          	lb	a1,149(s0)
    80004200:	953a                	add	a0,a0,a4
    80004202:	ff650603          	lb	a2,-10(a0)
    80004206:	8db1                	xor	a1,a1,a2
    80004208:	feb50b23          	sb	a1,-10(a0)
    8000420c:	0002b503          	ld	a0,0(t0)
    80004210:	09640583          	lb	a1,150(s0)
    80004214:	953a                	add	a0,a0,a4
    80004216:	ff750603          	lb	a2,-9(a0)
    8000421a:	8db1                	xor	a1,a1,a2
    8000421c:	feb50ba3          	sb	a1,-9(a0)
    80004220:	0002b503          	ld	a0,0(t0)
    80004224:	09740583          	lb	a1,151(s0)
    80004228:	953a                	add	a0,a0,a4
    8000422a:	ff850603          	lb	a2,-8(a0)
    8000422e:	8db1                	xor	a1,a1,a2
    80004230:	feb50c23          	sb	a1,-8(a0)
    80004234:	0002b503          	ld	a0,0(t0)
    80004238:	09840583          	lb	a1,152(s0)
    8000423c:	953a                	add	a0,a0,a4
    8000423e:	ff950603          	lb	a2,-7(a0)
    80004242:	8db1                	xor	a1,a1,a2
    80004244:	feb50ca3          	sb	a1,-7(a0)
    80004248:	0002b503          	ld	a0,0(t0)
    8000424c:	09940583          	lb	a1,153(s0)
    80004250:	953a                	add	a0,a0,a4
    80004252:	ffa50603          	lb	a2,-6(a0)
    80004256:	8db1                	xor	a1,a1,a2
    80004258:	feb50d23          	sb	a1,-6(a0)
    8000425c:	0002b503          	ld	a0,0(t0)
    80004260:	09a40583          	lb	a1,154(s0)
    80004264:	953a                	add	a0,a0,a4
    80004266:	ffb50603          	lb	a2,-5(a0)
    8000426a:	8db1                	xor	a1,a1,a2
    8000426c:	feb50da3          	sb	a1,-5(a0)
    80004270:	0002b503          	ld	a0,0(t0)
    80004274:	09b40583          	lb	a1,155(s0)
    80004278:	953a                	add	a0,a0,a4
    8000427a:	ffc50603          	lb	a2,-4(a0)
    8000427e:	8db1                	xor	a1,a1,a2
    80004280:	feb50e23          	sb	a1,-4(a0)
    80004284:	0002b503          	ld	a0,0(t0)
    80004288:	09c40583          	lb	a1,156(s0)
    8000428c:	953a                	add	a0,a0,a4
    8000428e:	ffd50603          	lb	a2,-3(a0)
    80004292:	8db1                	xor	a1,a1,a2
    80004294:	feb50ea3          	sb	a1,-3(a0)
    80004298:	0002b503          	ld	a0,0(t0)
    8000429c:	09d40583          	lb	a1,157(s0)
    800042a0:	953a                	add	a0,a0,a4
    800042a2:	ffe50603          	lb	a2,-2(a0)
    800042a6:	8db1                	xor	a1,a1,a2
    800042a8:	feb50f23          	sb	a1,-2(a0)
    800042ac:	0002b503          	ld	a0,0(t0)
    800042b0:	09e40583          	lb	a1,158(s0)
    800042b4:	953a                	add	a0,a0,a4
    800042b6:	fff50603          	lb	a2,-1(a0)
    800042ba:	8db1                	xor	a1,a1,a2
    800042bc:	feb50fa3          	sb	a1,-1(a0)
    800042c0:	0002b503          	ld	a0,0(t0)
    800042c4:	09f40583          	lb	a1,159(s0)
    800042c8:	953a                	add	a0,a0,a4
    800042ca:	00050603          	lb	a2,0(a0)
    800042ce:	8db1                	xor	a1,a1,a2
    800042d0:	00b50023          	sb	a1,0(a0)
    800042d4:	16fd                	addi	a3,a3,-1
    800042d6:	0741                	addi	a4,a4,16
    800042d8:	ea069ee3          	bnez	a3,80004194 <AES_Encrypt+0x19d2>
    800042dc:	46bd                	li	a3,15
    800042de:	4136df63          	bge	a3,s3,800046fc <AES_Encrypt+0x1f3a>
    800042e2:	0208d713          	srli	a4,a7,0x20
    800042e6:	00001797          	auipc	a5,0x1
    800042ea:	0db78793          	addi	a5,a5,219 # 800053c1 <sbox>
    800042ee:	0002b503          	ld	a0,0(t0)
    800042f2:	9536                	add	a0,a0,a3
    800042f4:	ff154583          	lbu	a1,-15(a0)
    800042f8:	95be                	add	a1,a1,a5
    800042fa:	00058583          	lb	a1,0(a1)
    800042fe:	feb508a3          	sb	a1,-15(a0)
    80004302:	0002b503          	ld	a0,0(t0)
    80004306:	9536                	add	a0,a0,a3
    80004308:	ff254583          	lbu	a1,-14(a0)
    8000430c:	95be                	add	a1,a1,a5
    8000430e:	00058583          	lb	a1,0(a1)
    80004312:	feb50923          	sb	a1,-14(a0)
    80004316:	0002b503          	ld	a0,0(t0)
    8000431a:	9536                	add	a0,a0,a3
    8000431c:	ff354583          	lbu	a1,-13(a0)
    80004320:	95be                	add	a1,a1,a5
    80004322:	00058583          	lb	a1,0(a1)
    80004326:	feb509a3          	sb	a1,-13(a0)
    8000432a:	0002b503          	ld	a0,0(t0)
    8000432e:	9536                	add	a0,a0,a3
    80004330:	ff454583          	lbu	a1,-12(a0)
    80004334:	95be                	add	a1,a1,a5
    80004336:	00058583          	lb	a1,0(a1)
    8000433a:	feb50a23          	sb	a1,-12(a0)
    8000433e:	0002b503          	ld	a0,0(t0)
    80004342:	9536                	add	a0,a0,a3
    80004344:	ff554583          	lbu	a1,-11(a0)
    80004348:	95be                	add	a1,a1,a5
    8000434a:	00058583          	lb	a1,0(a1)
    8000434e:	feb50aa3          	sb	a1,-11(a0)
    80004352:	0002b503          	ld	a0,0(t0)
    80004356:	9536                	add	a0,a0,a3
    80004358:	ff654583          	lbu	a1,-10(a0)
    8000435c:	95be                	add	a1,a1,a5
    8000435e:	00058583          	lb	a1,0(a1)
    80004362:	feb50b23          	sb	a1,-10(a0)
    80004366:	0002b503          	ld	a0,0(t0)
    8000436a:	9536                	add	a0,a0,a3
    8000436c:	ff754583          	lbu	a1,-9(a0)
    80004370:	95be                	add	a1,a1,a5
    80004372:	00058583          	lb	a1,0(a1)
    80004376:	feb50ba3          	sb	a1,-9(a0)
    8000437a:	0002b503          	ld	a0,0(t0)
    8000437e:	9536                	add	a0,a0,a3
    80004380:	ff854583          	lbu	a1,-8(a0)
    80004384:	95be                	add	a1,a1,a5
    80004386:	00058583          	lb	a1,0(a1)
    8000438a:	feb50c23          	sb	a1,-8(a0)
    8000438e:	0002b503          	ld	a0,0(t0)
    80004392:	9536                	add	a0,a0,a3
    80004394:	ff954583          	lbu	a1,-7(a0)
    80004398:	95be                	add	a1,a1,a5
    8000439a:	00058583          	lb	a1,0(a1)
    8000439e:	feb50ca3          	sb	a1,-7(a0)
    800043a2:	0002b503          	ld	a0,0(t0)
    800043a6:	9536                	add	a0,a0,a3
    800043a8:	ffa54583          	lbu	a1,-6(a0)
    800043ac:	95be                	add	a1,a1,a5
    800043ae:	00058583          	lb	a1,0(a1)
    800043b2:	feb50d23          	sb	a1,-6(a0)
    800043b6:	0002b503          	ld	a0,0(t0)
    800043ba:	9536                	add	a0,a0,a3
    800043bc:	ffb54583          	lbu	a1,-5(a0)
    800043c0:	95be                	add	a1,a1,a5
    800043c2:	00058583          	lb	a1,0(a1)
    800043c6:	feb50da3          	sb	a1,-5(a0)
    800043ca:	0002b503          	ld	a0,0(t0)
    800043ce:	9536                	add	a0,a0,a3
    800043d0:	ffc54583          	lbu	a1,-4(a0)
    800043d4:	95be                	add	a1,a1,a5
    800043d6:	00058583          	lb	a1,0(a1)
    800043da:	feb50e23          	sb	a1,-4(a0)
    800043de:	0002b503          	ld	a0,0(t0)
    800043e2:	9536                	add	a0,a0,a3
    800043e4:	ffd54583          	lbu	a1,-3(a0)
    800043e8:	95be                	add	a1,a1,a5
    800043ea:	00058583          	lb	a1,0(a1)
    800043ee:	feb50ea3          	sb	a1,-3(a0)
    800043f2:	0002b503          	ld	a0,0(t0)
    800043f6:	9536                	add	a0,a0,a3
    800043f8:	ffe54583          	lbu	a1,-2(a0)
    800043fc:	95be                	add	a1,a1,a5
    800043fe:	00058583          	lb	a1,0(a1)
    80004402:	feb50f23          	sb	a1,-2(a0)
    80004406:	0002b503          	ld	a0,0(t0)
    8000440a:	9536                	add	a0,a0,a3
    8000440c:	fff54583          	lbu	a1,-1(a0)
    80004410:	95be                	add	a1,a1,a5
    80004412:	00058583          	lb	a1,0(a1)
    80004416:	feb50fa3          	sb	a1,-1(a0)
    8000441a:	0002b503          	ld	a0,0(t0)
    8000441e:	9536                	add	a0,a0,a3
    80004420:	00054583          	lbu	a1,0(a0)
    80004424:	95be                	add	a1,a1,a5
    80004426:	00058583          	lb	a1,0(a1)
    8000442a:	00b50023          	sb	a1,0(a0)
    8000442e:	177d                	addi	a4,a4,-1
    80004430:	06c1                	addi	a3,a3,16
    80004432:	ea071ee3          	bnez	a4,800042ee <AES_Encrypt+0x1b2c>
    80004436:	4541                	li	a0,16
    80004438:	2ca9c263          	blt	s3,a0,800046fc <AES_Encrypt+0x1f3a>
    8000443c:	00083503          	ld	a0,0(a6)
    80004440:	0208d613          	srli	a2,a7,0x20
    80004444:	fff60693          	addi	a3,a2,-1
    80004448:	02050713          	addi	a4,a0,32
    8000444c:	4785                	li	a5,1
    8000444e:	4489                	li	s1,2
    80004450:	587d                	li	a6,-1
    80004452:	fe073503          	ld	a0,-32(a4)
    80004456:	fe873583          	ld	a1,-24(a4)
    8000445a:	20b5057b          	.insn	4, 0x20b5057b
    8000445e:	04a515ab          	.insn	4, 0x04a515ab
    80004462:	fea73023          	sd	a0,-32(a4)
    80004466:	feb73423          	sd	a1,-24(a4)
    8000446a:	c6b1                	beqz	a3,800044b6 <AES_Encrypt+0x1cf4>
    8000446c:	ff073503          	ld	a0,-16(a4)
    80004470:	ff873583          	ld	a1,-8(a4)
    80004474:	20b5057b          	.insn	4, 0x20b5057b
    80004478:	04a515ab          	.insn	4, 0x04a515ab
    8000447c:	fea73823          	sd	a0,-16(a4)
    80004480:	feb73c23          	sd	a1,-8(a4)
    80004484:	02f68963          	beq	a3,a5,800044b6 <AES_Encrypt+0x1cf4>
    80004488:	6308                	ld	a0,0(a4)
    8000448a:	670c                	ld	a1,8(a4)
    8000448c:	20b5057b          	.insn	4, 0x20b5057b
    80004490:	04a515ab          	.insn	4, 0x04a515ab
    80004494:	e308                	sd	a0,0(a4)
    80004496:	e70c                	sd	a1,8(a4)
    80004498:	00968f63          	beq	a3,s1,800044b6 <AES_Encrypt+0x1cf4>
    8000449c:	6b08                	ld	a0,16(a4)
    8000449e:	6f0c                	ld	a1,24(a4)
    800044a0:	20b5057b          	.insn	4, 0x20b5057b
    800044a4:	04a515ab          	.insn	4, 0x04a515ab
    800044a8:	eb08                	sd	a0,16(a4)
    800044aa:	ef0c                	sd	a1,24(a4)
    800044ac:	16f1                	addi	a3,a3,-4
    800044ae:	04070713          	addi	a4,a4,64
    800044b2:	fb0690e3          	bne	a3,a6,80004452 <AES_Encrypt+0x1c90>
    800044b6:	4541                	li	a0,16
    800044b8:	24a9c263          	blt	s3,a0,800046fc <AES_Encrypt+0x1f3a>
    800044bc:	46bd                	li	a3,15
    800044be:	0002b503          	ld	a0,0(t0)
    800044c2:	0a040583          	lb	a1,160(s0)
    800044c6:	9536                	add	a0,a0,a3
    800044c8:	ff150703          	lb	a4,-15(a0)
    800044cc:	8db9                	xor	a1,a1,a4
    800044ce:	feb508a3          	sb	a1,-15(a0)
    800044d2:	0002b503          	ld	a0,0(t0)
    800044d6:	0a140583          	lb	a1,161(s0)
    800044da:	9536                	add	a0,a0,a3
    800044dc:	ff250703          	lb	a4,-14(a0)
    800044e0:	8db9                	xor	a1,a1,a4
    800044e2:	feb50923          	sb	a1,-14(a0)
    800044e6:	0002b503          	ld	a0,0(t0)
    800044ea:	0a240583          	lb	a1,162(s0)
    800044ee:	9536                	add	a0,a0,a3
    800044f0:	ff350703          	lb	a4,-13(a0)
    800044f4:	8db9                	xor	a1,a1,a4
    800044f6:	feb509a3          	sb	a1,-13(a0)
    800044fa:	0002b503          	ld	a0,0(t0)
    800044fe:	0a340583          	lb	a1,163(s0)
    80004502:	9536                	add	a0,a0,a3
    80004504:	ff450703          	lb	a4,-12(a0)
    80004508:	8db9                	xor	a1,a1,a4
    8000450a:	feb50a23          	sb	a1,-12(a0)
    8000450e:	0002b503          	ld	a0,0(t0)
    80004512:	0a440583          	lb	a1,164(s0)
    80004516:	9536                	add	a0,a0,a3
    80004518:	ff550703          	lb	a4,-11(a0)
    8000451c:	8db9                	xor	a1,a1,a4
    8000451e:	feb50aa3          	sb	a1,-11(a0)
    80004522:	0002b503          	ld	a0,0(t0)
    80004526:	0a540583          	lb	a1,165(s0)
    8000452a:	9536                	add	a0,a0,a3
    8000452c:	ff650703          	lb	a4,-10(a0)
    80004530:	8db9                	xor	a1,a1,a4
    80004532:	feb50b23          	sb	a1,-10(a0)
    80004536:	0002b503          	ld	a0,0(t0)
    8000453a:	0a640583          	lb	a1,166(s0)
    8000453e:	9536                	add	a0,a0,a3
    80004540:	ff750703          	lb	a4,-9(a0)
    80004544:	8db9                	xor	a1,a1,a4
    80004546:	feb50ba3          	sb	a1,-9(a0)
    8000454a:	0002b503          	ld	a0,0(t0)
    8000454e:	0a740583          	lb	a1,167(s0)
    80004552:	9536                	add	a0,a0,a3
    80004554:	ff850703          	lb	a4,-8(a0)
    80004558:	8db9                	xor	a1,a1,a4
    8000455a:	feb50c23          	sb	a1,-8(a0)
    8000455e:	0002b503          	ld	a0,0(t0)
    80004562:	0a840583          	lb	a1,168(s0)
    80004566:	9536                	add	a0,a0,a3
    80004568:	ff950703          	lb	a4,-7(a0)
    8000456c:	8db9                	xor	a1,a1,a4
    8000456e:	feb50ca3          	sb	a1,-7(a0)
    80004572:	0002b503          	ld	a0,0(t0)
    80004576:	0a940583          	lb	a1,169(s0)
    8000457a:	9536                	add	a0,a0,a3
    8000457c:	ffa50703          	lb	a4,-6(a0)
    80004580:	8db9                	xor	a1,a1,a4
    80004582:	feb50d23          	sb	a1,-6(a0)
    80004586:	0002b503          	ld	a0,0(t0)
    8000458a:	0aa40583          	lb	a1,170(s0)
    8000458e:	9536                	add	a0,a0,a3
    80004590:	ffb50703          	lb	a4,-5(a0)
    80004594:	8db9                	xor	a1,a1,a4
    80004596:	feb50da3          	sb	a1,-5(a0)
    8000459a:	0002b503          	ld	a0,0(t0)
    8000459e:	0ab40583          	lb	a1,171(s0)
    800045a2:	9536                	add	a0,a0,a3
    800045a4:	ffc50703          	lb	a4,-4(a0)
    800045a8:	8db9                	xor	a1,a1,a4
    800045aa:	feb50e23          	sb	a1,-4(a0)
    800045ae:	0002b503          	ld	a0,0(t0)
    800045b2:	0ac40583          	lb	a1,172(s0)
    800045b6:	9536                	add	a0,a0,a3
    800045b8:	ffd50703          	lb	a4,-3(a0)
    800045bc:	8db9                	xor	a1,a1,a4
    800045be:	feb50ea3          	sb	a1,-3(a0)
    800045c2:	0002b503          	ld	a0,0(t0)
    800045c6:	0ad40583          	lb	a1,173(s0)
    800045ca:	9536                	add	a0,a0,a3
    800045cc:	ffe50703          	lb	a4,-2(a0)
    800045d0:	8db9                	xor	a1,a1,a4
    800045d2:	feb50f23          	sb	a1,-2(a0)
    800045d6:	0002b503          	ld	a0,0(t0)
    800045da:	0ae40583          	lb	a1,174(s0)
    800045de:	9536                	add	a0,a0,a3
    800045e0:	fff50703          	lb	a4,-1(a0)
    800045e4:	8db9                	xor	a1,a1,a4
    800045e6:	feb50fa3          	sb	a1,-1(a0)
    800045ea:	0002b503          	ld	a0,0(t0)
    800045ee:	0af40583          	lb	a1,175(s0)
    800045f2:	9536                	add	a0,a0,a3
    800045f4:	00050703          	lb	a4,0(a0)
    800045f8:	8db9                	xor	a1,a1,a4
    800045fa:	00b50023          	sb	a1,0(a0)
    800045fe:	167d                	addi	a2,a2,-1
    80004600:	06c1                	addi	a3,a3,16
    80004602:	ea061ee3          	bnez	a2,800044be <AES_Encrypt+0x1cfc>
    80004606:	4541                	li	a0,16
    80004608:	0ea9ca63          	blt	s3,a0,800046fc <AES_Encrypt+0x1f3a>
    8000460c:	0208d593          	srli	a1,a7,0x20
    80004610:	463d                	li	a2,15
    80004612:	0002b503          	ld	a0,0(t0)
    80004616:	9532                	add	a0,a0,a2
    80004618:	ff150503          	lb	a0,-15(a0)
    8000461c:	00c906b3          	add	a3,s2,a2
    80004620:	fea688a3          	sb	a0,-15(a3)
    80004624:	0002b503          	ld	a0,0(t0)
    80004628:	9532                	add	a0,a0,a2
    8000462a:	ff550503          	lb	a0,-11(a0)
    8000462e:	fea68923          	sb	a0,-14(a3)
    80004632:	0002b503          	ld	a0,0(t0)
    80004636:	9532                	add	a0,a0,a2
    80004638:	ff950503          	lb	a0,-7(a0)
    8000463c:	fea689a3          	sb	a0,-13(a3)
    80004640:	0002b503          	ld	a0,0(t0)
    80004644:	9532                	add	a0,a0,a2
    80004646:	ffd50503          	lb	a0,-3(a0)
    8000464a:	fea68a23          	sb	a0,-12(a3)
    8000464e:	0002b503          	ld	a0,0(t0)
    80004652:	9532                	add	a0,a0,a2
    80004654:	ff250503          	lb	a0,-14(a0)
    80004658:	fea68aa3          	sb	a0,-11(a3)
    8000465c:	0002b503          	ld	a0,0(t0)
    80004660:	9532                	add	a0,a0,a2
    80004662:	ff650503          	lb	a0,-10(a0)
    80004666:	fea68b23          	sb	a0,-10(a3)
    8000466a:	0002b503          	ld	a0,0(t0)
    8000466e:	9532                	add	a0,a0,a2
    80004670:	ffa50503          	lb	a0,-6(a0)
    80004674:	fea68ba3          	sb	a0,-9(a3)
    80004678:	0002b503          	ld	a0,0(t0)
    8000467c:	9532                	add	a0,a0,a2
    8000467e:	ffe50503          	lb	a0,-2(a0)
    80004682:	fea68c23          	sb	a0,-8(a3)
    80004686:	0002b503          	ld	a0,0(t0)
    8000468a:	9532                	add	a0,a0,a2
    8000468c:	ff350503          	lb	a0,-13(a0)
    80004690:	fea68ca3          	sb	a0,-7(a3)
    80004694:	0002b503          	ld	a0,0(t0)
    80004698:	9532                	add	a0,a0,a2
    8000469a:	ff750503          	lb	a0,-9(a0)
    8000469e:	fea68d23          	sb	a0,-6(a3)
    800046a2:	0002b503          	ld	a0,0(t0)
    800046a6:	9532                	add	a0,a0,a2
    800046a8:	ffb50503          	lb	a0,-5(a0)
    800046ac:	fea68da3          	sb	a0,-5(a3)
    800046b0:	0002b503          	ld	a0,0(t0)
    800046b4:	9532                	add	a0,a0,a2
    800046b6:	fff50503          	lb	a0,-1(a0)
    800046ba:	fea68e23          	sb	a0,-4(a3)
    800046be:	0002b503          	ld	a0,0(t0)
    800046c2:	9532                	add	a0,a0,a2
    800046c4:	ff450503          	lb	a0,-12(a0)
    800046c8:	fea68ea3          	sb	a0,-3(a3)
    800046cc:	0002b503          	ld	a0,0(t0)
    800046d0:	9532                	add	a0,a0,a2
    800046d2:	ff850503          	lb	a0,-8(a0)
    800046d6:	fea68f23          	sb	a0,-2(a3)
    800046da:	0002b503          	ld	a0,0(t0)
    800046de:	9532                	add	a0,a0,a2
    800046e0:	ffc50503          	lb	a0,-4(a0)
    800046e4:	fea68fa3          	sb	a0,-1(a3)
    800046e8:	0002b503          	ld	a0,0(t0)
    800046ec:	9532                	add	a0,a0,a2
    800046ee:	00050503          	lb	a0,0(a0)
    800046f2:	00a68023          	sb	a0,0(a3)
    800046f6:	15fd                	addi	a1,a1,-1
    800046f8:	0641                	addi	a2,a2,16
    800046fa:	fd81                	bnez	a1,80004612 <AES_Encrypt+0x1e50>
    800046fc:	70a2                	ld	ra,40(sp)
    800046fe:	7402                	ld	s0,32(sp)
    80004700:	64e2                	ld	s1,24(sp)
    80004702:	6942                	ld	s2,16(sp)
    80004704:	69a2                	ld	s3,8(sp)
    80004706:	6145                	addi	sp,sp,48
    80004708:	8082                	ret

000000008000470a <main>:
    8000470a:	1141                	addi	sp,sp,-16
    8000470c:	e406                	sd	ra,8(sp)
    8000470e:	e022                	sd	s0,0(sp)
    80004710:	00001517          	auipc	a0,0x1
    80004714:	f7850513          	addi	a0,a0,-136 # 80005688 <pstate>
    80004718:	00001597          	auipc	a1,0x1
    8000471c:	03858593          	addi	a1,a1,56 # 80005750 <pintstate>
    80004720:	e10c                	sd	a1,0(a0)
    80004722:	00001517          	auipc	a0,0x1
    80004726:	f6e50513          	addi	a0,a0,-146 # 80005690 <pullstate>
    8000472a:	e10c                	sd	a1,0(a0)
    8000472c:	b0002473          	csrr	s0,mcycle
    80004730:	00001517          	auipc	a0,0x1
    80004734:	d9c50513          	addi	a0,a0,-612 # 800054cc <plaintext>
    80004738:	00001597          	auipc	a1,0x1
    8000473c:	f1458593          	addi	a1,a1,-236 # 8000564c <key>
    80004740:	00003617          	auipc	a2,0x3
    80004744:	81060613          	addi	a2,a2,-2032 # 80006f50 <encrypted>
    80004748:	18000693          	li	a3,384
    8000474c:	ffffe097          	auipc	ra,0xffffe
    80004750:	076080e7          	jalr	118(ra) # 800027c2 <AES_Encrypt>
    80004754:	b0002573          	csrr	a0,mcycle
    80004758:	9d01                	subw	a0,a0,s0
    8000475a:	60a2                	ld	ra,8(sp)
    8000475c:	6402                	ld	s0,0(sp)
    8000475e:	0141                	addi	sp,sp,16
    80004760:	8082                	ret

0000000080004762 <vprintfmt>:
    80004762:	7149                	addi	sp,sp,-368
    80004764:	f2a2                	sd	s0,352(sp)
    80004766:	eea6                	sd	s1,344(sp)
    80004768:	eaca                	sd	s2,336(sp)
    8000476a:	e2d2                	sd	s4,320(sp)
    8000476c:	fe56                	sd	s5,312(sp)
    8000476e:	fa5a                	sd	s6,304(sp)
    80004770:	f65e                	sd	s7,296(sp)
    80004772:	f686                	sd	ra,360(sp)
    80004774:	e6ce                	sd	s3,328(sp)
    80004776:	f262                	sd	s8,288(sp)
    80004778:	ee66                	sd	s9,280(sp)
    8000477a:	e66e                	sd	s11,264(sp)
    8000477c:	892a                	mv	s2,a0
    8000477e:	84ae                	mv	s1,a1
    80004780:	8432                	mv	s0,a2
    80004782:	8bb6                	mv	s7,a3
    80004784:	02500a13          	li	s4,37
    80004788:	05500b13          	li	s6,85
    8000478c:	00001a97          	auipc	s5,0x1
    80004790:	a94a8a93          	addi	s5,s5,-1388 # 80005220 <Nr+0x4>
    80004794:	a029                	j	8000479e <vprintfmt+0x3c>
    80004796:	cd1d                	beqz	a0,800047d4 <vprintfmt+0x72>
    80004798:	85a6                	mv	a1,s1
    8000479a:	0405                	addi	s0,s0,1
    8000479c:	9902                	jalr	s2
    8000479e:	00044503          	lbu	a0,0(s0)
    800047a2:	ff451ae3          	bne	a0,s4,80004796 <vprintfmt+0x34>
    800047a6:	00144683          	lbu	a3,1(s0)
    800047aa:	00140993          	addi	s3,s0,1
    800047ae:	874e                	mv	a4,s3
    800047b0:	02000c93          	li	s9,32
    800047b4:	5c7d                	li	s8,-1
    800047b6:	5dfd                	li	s11,-1
    800047b8:	4581                	li	a1,0
    800047ba:	fdd6879b          	addiw	a5,a3,-35
    800047be:	0ff7f793          	zext.b	a5,a5
    800047c2:	00170413          	addi	s0,a4,1
    800047c6:	04fb6163          	bltu	s6,a5,80004808 <vprintfmt+0xa6>
    800047ca:	078a                	slli	a5,a5,0x2
    800047cc:	97d6                	add	a5,a5,s5
    800047ce:	439c                	lw	a5,0(a5)
    800047d0:	97d6                	add	a5,a5,s5
    800047d2:	8782                	jr	a5
    800047d4:	70b6                	ld	ra,360(sp)
    800047d6:	7416                	ld	s0,352(sp)
    800047d8:	64f6                	ld	s1,344(sp)
    800047da:	6956                	ld	s2,336(sp)
    800047dc:	69b6                	ld	s3,328(sp)
    800047de:	6a16                	ld	s4,320(sp)
    800047e0:	7af2                	ld	s5,312(sp)
    800047e2:	7b52                	ld	s6,304(sp)
    800047e4:	7bb2                	ld	s7,296(sp)
    800047e6:	7c12                	ld	s8,288(sp)
    800047e8:	6cf2                	ld	s9,280(sp)
    800047ea:	6db2                	ld	s11,264(sp)
    800047ec:	6175                	addi	sp,sp,368
    800047ee:	8082                	ret
    800047f0:	8cb6                	mv	s9,a3
    800047f2:	00174683          	lbu	a3,1(a4)
    800047f6:	8722                	mv	a4,s0
    800047f8:	00170413          	addi	s0,a4,1
    800047fc:	fdd6879b          	addiw	a5,a3,-35
    80004800:	0ff7f793          	zext.b	a5,a5
    80004804:	fcfb73e3          	bgeu	s6,a5,800047ca <vprintfmt+0x68>
    80004808:	85a6                	mv	a1,s1
    8000480a:	02500513          	li	a0,37
    8000480e:	9902                	jalr	s2
    80004810:	844e                	mv	s0,s3
    80004812:	b771                	j	8000479e <vprintfmt+0x3c>
    80004814:	fd068c1b          	addiw	s8,a3,-48
    80004818:	00174683          	lbu	a3,1(a4)
    8000481c:	47a5                	li	a5,9
    8000481e:	fd06871b          	addiw	a4,a3,-48
    80004822:	0006861b          	sext.w	a2,a3
    80004826:	20e7ef63          	bltu	a5,a4,80004a44 <vprintfmt+0x2e2>
    8000482a:	8722                	mv	a4,s0
    8000482c:	4825                	li	a6,9
    8000482e:	00174683          	lbu	a3,1(a4)
    80004832:	002c179b          	slliw	a5,s8,0x2
    80004836:	018787bb          	addw	a5,a5,s8
    8000483a:	0017979b          	slliw	a5,a5,0x1
    8000483e:	9fb1                	addw	a5,a5,a2
    80004840:	fd06851b          	addiw	a0,a3,-48
    80004844:	0705                	addi	a4,a4,1
    80004846:	fd078c1b          	addiw	s8,a5,-48
    8000484a:	0006861b          	sext.w	a2,a3
    8000484e:	fea870e3          	bgeu	a6,a0,8000482e <vprintfmt+0xcc>
    80004852:	f60dd4e3          	bgez	s11,800047ba <vprintfmt+0x58>
    80004856:	8de2                	mv	s11,s8
    80004858:	5c7d                	li	s8,-1
    8000485a:	b785                	j	800047ba <vprintfmt+0x58>
    8000485c:	00174683          	lbu	a3,1(a4)
    80004860:	8722                	mv	a4,s0
    80004862:	bfa1                	j	800047ba <vprintfmt+0x58>
    80004864:	85a6                	mv	a1,s1
    80004866:	02500513          	li	a0,37
    8000486a:	9902                	jalr	s2
    8000486c:	bf0d                	j	8000479e <vprintfmt+0x3c>
    8000486e:	000bac03          	lw	s8,0(s7)
    80004872:	00174683          	lbu	a3,1(a4)
    80004876:	0ba1                	addi	s7,s7,8
    80004878:	8722                	mv	a4,s0
    8000487a:	bfe1                	j	80004852 <vprintfmt+0xf0>
    8000487c:	85a6                	mv	a1,s1
    8000487e:	03000513          	li	a0,48
    80004882:	ea6a                	sd	s10,272(sp)
    80004884:	9902                	jalr	s2
    80004886:	85a6                	mv	a1,s1
    80004888:	07800513          	li	a0,120
    8000488c:	9902                	jalr	s2
    8000488e:	4641                	li	a2,16
    80004890:	008b8713          	addi	a4,s7,8
    80004894:	000bb783          	ld	a5,0(s7)
    80004898:	8bba                	mv	s7,a4
    8000489a:	02c7f5b3          	remu	a1,a5,a2
    8000489e:	000c899b          	sext.w	s3,s9
    800048a2:	0054                	addi	a3,sp,4
    800048a4:	4705                	li	a4,1
    800048a6:	c02e                	sw	a1,0(sp)
    800048a8:	16c7ea63          	bltu	a5,a2,80004a1c <vprintfmt+0x2ba>
    800048ac:	02c7d7b3          	divu	a5,a5,a2
    800048b0:	0691                	addi	a3,a3,4
    800048b2:	8c3a                	mv	s8,a4
    800048b4:	2705                	addiw	a4,a4,1
    800048b6:	02c7f5b3          	remu	a1,a5,a2
    800048ba:	feb6ae23          	sw	a1,-4(a3)
    800048be:	fec7f7e3          	bgeu	a5,a2,800048ac <vprintfmt+0x14a>
    800048c2:	fffd8c9b          	addiw	s9,s11,-1
    800048c6:	fff70d1b          	addiw	s10,a4,-1
    800048ca:	01b75863          	bge	a4,s11,800048da <vprintfmt+0x178>
    800048ce:	85a6                	mv	a1,s1
    800048d0:	854e                	mv	a0,s3
    800048d2:	3cfd                	addiw	s9,s9,-1
    800048d4:	9902                	jalr	s2
    800048d6:	ffac9ce3          	bne	s9,s10,800048ce <vprintfmt+0x16c>
    800048da:	0c0a                	slli	s8,s8,0x2
    800048dc:	018109b3          	add	s3,sp,s8
    800048e0:	ffc10c93          	addi	s9,sp,-4
    800048e4:	4c25                	li	s8,9
    800048e6:	0009a783          	lw	a5,0(s3)
    800048ea:	03000513          	li	a0,48
    800048ee:	00fc7463          	bgeu	s8,a5,800048f6 <vprintfmt+0x194>
    800048f2:	05700513          	li	a0,87
    800048f6:	85a6                	mv	a1,s1
    800048f8:	9d3d                	addw	a0,a0,a5
    800048fa:	19f1                	addi	s3,s3,-4
    800048fc:	9902                	jalr	s2
    800048fe:	ff9994e3          	bne	s3,s9,800048e6 <vprintfmt+0x184>
    80004902:	6d52                	ld	s10,272(sp)
    80004904:	bd69                	j	8000479e <vprintfmt+0x3c>
    80004906:	ea6a                	sd	s10,272(sp)
    80004908:	4785                	li	a5,1
    8000490a:	008b8c13          	addi	s8,s7,8
    8000490e:	00b7c463          	blt	a5,a1,80004916 <vprintfmt+0x1b4>
    80004912:	10058763          	beqz	a1,80004a20 <vprintfmt+0x2be>
    80004916:	000bb983          	ld	s3,0(s7)
    8000491a:	1009cc63          	bltz	s3,80004a32 <vprintfmt+0x2d0>
    8000491e:	87ce                	mv	a5,s3
    80004920:	8be2                	mv	s7,s8
    80004922:	4629                	li	a2,10
    80004924:	bf9d                	j	8000489a <vprintfmt+0x138>
    80004926:	00174683          	lbu	a3,1(a4)
    8000492a:	2585                	addiw	a1,a1,1
    8000492c:	8722                	mv	a4,s0
    8000492e:	b571                	j	800047ba <vprintfmt+0x58>
    80004930:	ea6a                	sd	s10,272(sp)
    80004932:	4641                	li	a2,16
    80004934:	4785                	li	a5,1
    80004936:	008b8713          	addi	a4,s7,8
    8000493a:	f4b7cde3          	blt	a5,a1,80004894 <vprintfmt+0x132>
    8000493e:	f9b9                	bnez	a1,80004894 <vprintfmt+0x132>
    80004940:	000be783          	lwu	a5,0(s7)
    80004944:	8bba                	mv	s7,a4
    80004946:	bf91                	j	8000489a <vprintfmt+0x138>
    80004948:	ea6a                	sd	s10,272(sp)
    8000494a:	000bbd03          	ld	s10,0(s7)
    8000494e:	0ba1                	addi	s7,s7,8
    80004950:	040d0363          	beqz	s10,80004996 <vprintfmt+0x234>
    80004954:	09b05e63          	blez	s11,800049f0 <vprintfmt+0x28e>
    80004958:	02d00793          	li	a5,45
    8000495c:	04fc9f63          	bne	s9,a5,800049ba <vprintfmt+0x258>
    80004960:	000d4503          	lbu	a0,0(s10)
    80004964:	c105                	beqz	a0,80004984 <vprintfmt+0x222>
    80004966:	59fd                	li	s3,-1
    80004968:	000c4563          	bltz	s8,80004972 <vprintfmt+0x210>
    8000496c:	3c7d                	addiw	s8,s8,-1
    8000496e:	013c0963          	beq	s8,s3,80004980 <vprintfmt+0x21e>
    80004972:	85a6                	mv	a1,s1
    80004974:	9902                	jalr	s2
    80004976:	001d4503          	lbu	a0,1(s10)
    8000497a:	3dfd                	addiw	s11,s11,-1
    8000497c:	0d05                	addi	s10,s10,1
    8000497e:	f56d                	bnez	a0,80004968 <vprintfmt+0x206>
    80004980:	f9b051e3          	blez	s11,80004902 <vprintfmt+0x1a0>
    80004984:	85a6                	mv	a1,s1
    80004986:	02000513          	li	a0,32
    8000498a:	3dfd                	addiw	s11,s11,-1
    8000498c:	9902                	jalr	s2
    8000498e:	fe0d9be3          	bnez	s11,80004984 <vprintfmt+0x222>
    80004992:	6d52                	ld	s10,272(sp)
    80004994:	b529                	j	8000479e <vprintfmt+0x3c>
    80004996:	00001d17          	auipc	s10,0x1
    8000499a:	9e2d0d13          	addi	s10,s10,-1566 # 80005378 <Nr+0x15c>
    8000499e:	02800513          	li	a0,40
    800049a2:	fdb052e3          	blez	s11,80004966 <vprintfmt+0x204>
    800049a6:	02d00793          	li	a5,45
    800049aa:	00001d17          	auipc	s10,0x1
    800049ae:	9ced0d13          	addi	s10,s10,-1586 # 80005378 <Nr+0x15c>
    800049b2:	02800513          	li	a0,40
    800049b6:	fafc88e3          	beq	s9,a5,80004966 <vprintfmt+0x204>
    800049ba:	000d861b          	sext.w	a2,s11
    800049be:	87ea                	mv	a5,s10
    800049c0:	018d06b3          	add	a3,s10,s8
    800049c4:	000c1663          	bnez	s8,800049d0 <vprintfmt+0x26e>
    800049c8:	a829                	j	800049e2 <vprintfmt+0x280>
    800049ca:	0785                	addi	a5,a5,1
    800049cc:	00d78563          	beq	a5,a3,800049d6 <vprintfmt+0x274>
    800049d0:	0007c703          	lbu	a4,0(a5)
    800049d4:	fb7d                	bnez	a4,800049ca <vprintfmt+0x268>
    800049d6:	41a787b3          	sub	a5,a5,s10
    800049da:	40f60dbb          	subw	s11,a2,a5
    800049de:	01b05963          	blez	s11,800049f0 <vprintfmt+0x28e>
    800049e2:	2c81                	sext.w	s9,s9
    800049e4:	85a6                	mv	a1,s1
    800049e6:	8566                	mv	a0,s9
    800049e8:	3dfd                	addiw	s11,s11,-1
    800049ea:	9902                	jalr	s2
    800049ec:	fe0d9ce3          	bnez	s11,800049e4 <vprintfmt+0x282>
    800049f0:	000d4503          	lbu	a0,0(s10)
    800049f4:	d519                	beqz	a0,80004902 <vprintfmt+0x1a0>
    800049f6:	59fd                	li	s3,-1
    800049f8:	bf85                	j	80004968 <vprintfmt+0x206>
    800049fa:	fffdc793          	not	a5,s11
    800049fe:	97fd                	srai	a5,a5,0x3f
    80004a00:	00fdf7b3          	and	a5,s11,a5
    80004a04:	00174683          	lbu	a3,1(a4)
    80004a08:	00078d9b          	sext.w	s11,a5
    80004a0c:	8722                	mv	a4,s0
    80004a0e:	b375                	j	800047ba <vprintfmt+0x58>
    80004a10:	000ba503          	lw	a0,0(s7)
    80004a14:	85a6                	mv	a1,s1
    80004a16:	0ba1                	addi	s7,s7,8
    80004a18:	9902                	jalr	s2
    80004a1a:	b351                	j	8000479e <vprintfmt+0x3c>
    80004a1c:	4c01                	li	s8,0
    80004a1e:	b555                	j	800048c2 <vprintfmt+0x160>
    80004a20:	000ba983          	lw	s3,0(s7)
    80004a24:	bddd                	j	8000491a <vprintfmt+0x1b8>
    80004a26:	ea6a                	sd	s10,272(sp)
    80004a28:	4629                	li	a2,10
    80004a2a:	b729                	j	80004934 <vprintfmt+0x1d2>
    80004a2c:	ea6a                	sd	s10,272(sp)
    80004a2e:	4621                	li	a2,8
    80004a30:	b711                	j	80004934 <vprintfmt+0x1d2>
    80004a32:	85a6                	mv	a1,s1
    80004a34:	02d00513          	li	a0,45
    80004a38:	9902                	jalr	s2
    80004a3a:	413007b3          	neg	a5,s3
    80004a3e:	8be2                	mv	s7,s8
    80004a40:	4629                	li	a2,10
    80004a42:	bda1                	j	8000489a <vprintfmt+0x138>
    80004a44:	8722                	mv	a4,s0
    80004a46:	b531                	j	80004852 <vprintfmt+0xf0>

0000000080004a48 <sprintf_putch.0>:
    80004a48:	619c                	ld	a5,0(a1)
    80004a4a:	00a78023          	sb	a0,0(a5)
    80004a4e:	619c                	ld	a5,0(a1)
    80004a50:	0785                	addi	a5,a5,1
    80004a52:	e19c                	sd	a5,0(a1)
    80004a54:	8082                	ret

0000000080004a56 <putchar>:
    80004a56:	04022803          	lw	a6,64(tp) # 40 <buflen.1>
    80004a5a:	00020793          	mv	a5,tp
    80004a5e:	97c2                	add	a5,a5,a6
    80004a60:	7159                	addi	sp,sp,-112
    80004a62:	0018069b          	addiw	a3,a6,1
    80004a66:	04d22023          	sw	a3,64(tp) # 40 <buflen.1>
    80004a6a:	00a78023          	sb	a0,0(a5)
    80004a6e:	03f10713          	addi	a4,sp,63
    80004a72:	47a9                	li	a5,10
    80004a74:	fc077713          	andi	a4,a4,-64
    80004a78:	00f50963          	beq	a0,a5,80004a8a <putchar+0x34>
    80004a7c:	04000793          	li	a5,64
    80004a80:	00f68563          	beq	a3,a5,80004a8a <putchar+0x34>
    80004a84:	4501                	li	a0,0
    80004a86:	6165                	addi	sp,sp,112
    80004a88:	8082                	ret
    80004a8a:	04000793          	li	a5,64
    80004a8e:	e31c                	sd	a5,0(a4)
    80004a90:	4785                	li	a5,1
    80004a92:	e71c                	sd	a5,8(a4)
    80004a94:	00020613          	mv	a2,tp
    80004a98:	eb10                	sd	a2,16(a4)
    80004a9a:	ef14                	sd	a3,24(a4)
    80004a9c:	0ff0000f          	fence
    80004aa0:	ffffc697          	auipc	a3,0xffffc
    80004aa4:	5a068693          	addi	a3,a3,1440 # 80001040 <fromhost>
    80004aa8:	ffffc797          	auipc	a5,0xffffc
    80004aac:	54e7bc23          	sd	a4,1368(a5) # 80001000 <tohost>
    80004ab0:	629c                	ld	a5,0(a3)
    80004ab2:	dffd                	beqz	a5,80004ab0 <putchar+0x5a>
    80004ab4:	ffffc797          	auipc	a5,0xffffc
    80004ab8:	5807b623          	sd	zero,1420(a5) # 80001040 <fromhost>
    80004abc:	0ff0000f          	fence
    80004ac0:	04022023          	sw	zero,64(tp) # 40 <buflen.1>
    80004ac4:	631c                	ld	a5,0(a4)
    80004ac6:	4501                	li	a0,0
    80004ac8:	6165                	addi	sp,sp,112
    80004aca:	8082                	ret

0000000080004acc <setStats>:
    80004acc:	b0002773          	csrr	a4,mcycle
    80004ad0:	00002797          	auipc	a5,0x2
    80004ad4:	60078793          	addi	a5,a5,1536 # 800070d0 <counters>
    80004ad8:	c511                	beqz	a0,80004ae4 <setStats+0x18>
    80004ada:	e398                	sd	a4,0(a5)
    80004adc:	b0202773          	csrr	a4,minstret
    80004ae0:	e798                	sd	a4,8(a5)
    80004ae2:	8082                	ret
    80004ae4:	6394                	ld	a3,0(a5)
    80004ae6:	00001617          	auipc	a2,0x1
    80004aea:	8a260613          	addi	a2,a2,-1886 # 80005388 <Nr+0x16c>
    80004aee:	eb90                	sd	a2,16(a5)
    80004af0:	8f15                	sub	a4,a4,a3
    80004af2:	e398                	sd	a4,0(a5)
    80004af4:	b0202773          	csrr	a4,minstret
    80004af8:	6794                	ld	a3,8(a5)
    80004afa:	00001617          	auipc	a2,0x1
    80004afe:	89660613          	addi	a2,a2,-1898 # 80005390 <Nr+0x174>
    80004b02:	ef90                	sd	a2,24(a5)
    80004b04:	8f15                	sub	a4,a4,a3
    80004b06:	e798                	sd	a4,8(a5)
    80004b08:	8082                	ret

0000000080004b0a <tohost_exit>:
    80004b0a:	00151793          	slli	a5,a0,0x1
    80004b0e:	0017e793          	ori	a5,a5,1
    80004b12:	ffffc717          	auipc	a4,0xffffc
    80004b16:	4ef73723          	sd	a5,1262(a4) # 80001000 <tohost>
    80004b1a:	a001                	j	80004b1a <tohost_exit+0x10>

0000000080004b1c <handle_trap>:
    80004b1c:	6785                	lui	a5,0x1
    80004b1e:	a7378793          	addi	a5,a5,-1421 # a73 <buflen.1+0xa33>
    80004b22:	ffffc717          	auipc	a4,0xffffc
    80004b26:	4cf73f23          	sd	a5,1246(a4) # 80001000 <tohost>
    80004b2a:	a001                	j	80004b2a <handle_trap+0xe>

0000000080004b2c <exit>:
    80004b2c:	1141                	addi	sp,sp,-16
    80004b2e:	e406                	sd	ra,8(sp)
    80004b30:	fdbff0ef          	jal	80004b0a <tohost_exit>

0000000080004b34 <abort>:
    80004b34:	10d00793          	li	a5,269
    80004b38:	ffffc717          	auipc	a4,0xffffc
    80004b3c:	4cf73423          	sd	a5,1224(a4) # 80001000 <tohost>
    80004b40:	a001                	j	80004b40 <abort+0xc>

0000000080004b42 <printstr>:
    80004b42:	00054783          	lbu	a5,0(a0)
    80004b46:	7159                	addi	sp,sp,-112
    80004b48:	03f10693          	addi	a3,sp,63
    80004b4c:	fc06f693          	andi	a3,a3,-64
    80004b50:	c3b9                	beqz	a5,80004b96 <printstr+0x54>
    80004b52:	87aa                	mv	a5,a0
    80004b54:	0017c703          	lbu	a4,1(a5)
    80004b58:	0785                	addi	a5,a5,1
    80004b5a:	ff6d                	bnez	a4,80004b54 <printstr+0x12>
    80004b5c:	8f89                	sub	a5,a5,a0
    80004b5e:	04000713          	li	a4,64
    80004b62:	e298                	sd	a4,0(a3)
    80004b64:	4705                	li	a4,1
    80004b66:	e698                	sd	a4,8(a3)
    80004b68:	ea88                	sd	a0,16(a3)
    80004b6a:	ee9c                	sd	a5,24(a3)
    80004b6c:	0ff0000f          	fence
    80004b70:	ffffc717          	auipc	a4,0xffffc
    80004b74:	4d070713          	addi	a4,a4,1232 # 80001040 <fromhost>
    80004b78:	ffffc797          	auipc	a5,0xffffc
    80004b7c:	48d7b423          	sd	a3,1160(a5) # 80001000 <tohost>
    80004b80:	631c                	ld	a5,0(a4)
    80004b82:	dffd                	beqz	a5,80004b80 <printstr+0x3e>
    80004b84:	ffffc797          	auipc	a5,0xffffc
    80004b88:	4a07be23          	sd	zero,1212(a5) # 80001040 <fromhost>
    80004b8c:	0ff0000f          	fence
    80004b90:	629c                	ld	a5,0(a3)
    80004b92:	6165                	addi	sp,sp,112
    80004b94:	8082                	ret
    80004b96:	4781                	li	a5,0
    80004b98:	b7d9                	j	80004b5e <printstr+0x1c>

0000000080004b9a <thread_entry>:
    80004b9a:	c111                	beqz	a0,80004b9e <thread_entry+0x4>
    80004b9c:	a001                	j	80004b9c <thread_entry+0x2>
    80004b9e:	8082                	ret

0000000080004ba0 <printhex>:
    80004ba0:	7179                	addi	sp,sp,-48
    80004ba2:	87aa                	mv	a5,a0
    80004ba4:	f406                	sd	ra,40(sp)
    80004ba6:	0028                	addi	a0,sp,8
    80004ba8:	01710713          	addi	a4,sp,23
    80004bac:	4825                	li	a6,9
    80004bae:	a011                	j	80004bb2 <printhex+0x12>
    80004bb0:	8736                	mv	a4,a3
    80004bb2:	00f7f613          	andi	a2,a5,15
    80004bb6:	86b2                	mv	a3,a2
    80004bb8:	03000593          	li	a1,48
    80004bbc:	00c87463          	bgeu	a6,a2,80004bc4 <printhex+0x24>
    80004bc0:	05700593          	li	a1,87
    80004bc4:	9ead                	addw	a3,a3,a1
    80004bc6:	00d70023          	sb	a3,0(a4)
    80004bca:	8391                	srli	a5,a5,0x4
    80004bcc:	fff70693          	addi	a3,a4,-1
    80004bd0:	fee510e3          	bne	a0,a4,80004bb0 <printhex+0x10>
    80004bd4:	00010c23          	sb	zero,24(sp)
    80004bd8:	f6bff0ef          	jal	80004b42 <printstr>
    80004bdc:	70a2                	ld	ra,40(sp)
    80004bde:	6145                	addi	sp,sp,48
    80004be0:	8082                	ret

0000000080004be2 <printf>:
    80004be2:	711d                	addi	sp,sp,-96
    80004be4:	02810313          	addi	t1,sp,40
    80004be8:	f42e                	sd	a1,40(sp)
    80004bea:	f832                	sd	a2,48(sp)
    80004bec:	fc36                	sd	a3,56(sp)
    80004bee:	862a                	mv	a2,a0
    80004bf0:	869a                	mv	a3,t1
    80004bf2:	00000517          	auipc	a0,0x0
    80004bf6:	e6450513          	addi	a0,a0,-412 # 80004a56 <putchar>
    80004bfa:	4581                	li	a1,0
    80004bfc:	ec06                	sd	ra,24(sp)
    80004bfe:	e0ba                	sd	a4,64(sp)
    80004c00:	e4be                	sd	a5,72(sp)
    80004c02:	e8c2                	sd	a6,80(sp)
    80004c04:	ecc6                	sd	a7,88(sp)
    80004c06:	e41a                	sd	t1,8(sp)
    80004c08:	b5bff0ef          	jal	80004762 <vprintfmt>
    80004c0c:	60e2                	ld	ra,24(sp)
    80004c0e:	4501                	li	a0,0
    80004c10:	6125                	addi	sp,sp,96
    80004c12:	8082                	ret

0000000080004c14 <sprintf>:
    80004c14:	711d                	addi	sp,sp,-96
    80004c16:	03010e13          	addi	t3,sp,48
    80004c1a:	f022                	sd	s0,32(sp)
    80004c1c:	e42a                	sd	a0,8(sp)
    80004c1e:	842a                	mv	s0,a0
    80004c20:	f832                	sd	a2,48(sp)
    80004c22:	fc36                	sd	a3,56(sp)
    80004c24:	862e                	mv	a2,a1
    80004c26:	00000517          	auipc	a0,0x0
    80004c2a:	e2250513          	addi	a0,a0,-478 # 80004a48 <sprintf_putch.0>
    80004c2e:	002c                	addi	a1,sp,8
    80004c30:	86f2                	mv	a3,t3
    80004c32:	f406                	sd	ra,40(sp)
    80004c34:	e4be                	sd	a5,72(sp)
    80004c36:	e0ba                	sd	a4,64(sp)
    80004c38:	e8c2                	sd	a6,80(sp)
    80004c3a:	ecc6                	sd	a7,88(sp)
    80004c3c:	ec72                	sd	t3,24(sp)
    80004c3e:	b25ff0ef          	jal	80004762 <vprintfmt>
    80004c42:	67a2                	ld	a5,8(sp)
    80004c44:	00078023          	sb	zero,0(a5)
    80004c48:	6522                	ld	a0,8(sp)
    80004c4a:	70a2                	ld	ra,40(sp)
    80004c4c:	9d01                	subw	a0,a0,s0
    80004c4e:	7402                	ld	s0,32(sp)
    80004c50:	6125                	addi	sp,sp,96
    80004c52:	8082                	ret

0000000080004c54 <memcpy>:
    80004c54:	00c5e7b3          	or	a5,a1,a2
    80004c58:	8fc9                	or	a5,a5,a0
    80004c5a:	8b9d                	andi	a5,a5,7
    80004c5c:	00c506b3          	add	a3,a0,a2
    80004c60:	cf91                	beqz	a5,80004c7c <memcpy+0x28>
    80004c62:	962e                	add	a2,a2,a1
    80004c64:	87aa                	mv	a5,a0
    80004c66:	02d57663          	bgeu	a0,a3,80004c92 <memcpy+0x3e>
    80004c6a:	0005c703          	lbu	a4,0(a1)
    80004c6e:	0585                	addi	a1,a1,1
    80004c70:	0785                	addi	a5,a5,1
    80004c72:	fee78fa3          	sb	a4,-1(a5)
    80004c76:	feb61ae3          	bne	a2,a1,80004c6a <memcpy+0x16>
    80004c7a:	8082                	ret
    80004c7c:	fed57fe3          	bgeu	a0,a3,80004c7a <memcpy+0x26>
    80004c80:	87aa                	mv	a5,a0
    80004c82:	6198                	ld	a4,0(a1)
    80004c84:	07a1                	addi	a5,a5,8
    80004c86:	05a1                	addi	a1,a1,8
    80004c88:	fee7bc23          	sd	a4,-8(a5)
    80004c8c:	fed7ebe3          	bltu	a5,a3,80004c82 <memcpy+0x2e>
    80004c90:	8082                	ret
    80004c92:	8082                	ret

0000000080004c94 <memset>:
    80004c94:	00c567b3          	or	a5,a0,a2
    80004c98:	8b9d                	andi	a5,a5,7
    80004c9a:	962a                	add	a2,a2,a0
    80004c9c:	cf81                	beqz	a5,80004cb4 <memset+0x20>
    80004c9e:	0ff5f713          	zext.b	a4,a1
    80004ca2:	87aa                	mv	a5,a0
    80004ca4:	02c57f63          	bgeu	a0,a2,80004ce2 <memset+0x4e>
    80004ca8:	0785                	addi	a5,a5,1
    80004caa:	fee78fa3          	sb	a4,-1(a5)
    80004cae:	fec79de3          	bne	a5,a2,80004ca8 <memset+0x14>
    80004cb2:	8082                	ret
    80004cb4:	010107b7          	lui	a5,0x1010
    80004cb8:	10178793          	addi	a5,a5,257 # 1010101 <buflen.1+0x10100c1>
    80004cbc:	07c2                	slli	a5,a5,0x10
    80004cbe:	10178793          	addi	a5,a5,257
    80004cc2:	07c2                	slli	a5,a5,0x10
    80004cc4:	0ff5f713          	zext.b	a4,a1
    80004cc8:	10178793          	addi	a5,a5,257
    80004ccc:	02f70733          	mul	a4,a4,a5
    80004cd0:	fec571e3          	bgeu	a0,a2,80004cb2 <memset+0x1e>
    80004cd4:	87aa                	mv	a5,a0
    80004cd6:	07a1                	addi	a5,a5,8
    80004cd8:	fee7bc23          	sd	a4,-8(a5)
    80004cdc:	fec7ede3          	bltu	a5,a2,80004cd6 <memset+0x42>
    80004ce0:	8082                	ret
    80004ce2:	8082                	ret

0000000080004ce4 <_init>:
    80004ce4:	7171                	addi	sp,sp,-176
    80004ce6:	00002797          	auipc	a5,0x2
    80004cea:	40a78793          	addi	a5,a5,1034 # 800070f0 <_tdata_begin>
    80004cee:	e152                	sd	s4,128(sp)
    80004cf0:	00002a17          	auipc	s4,0x2
    80004cf4:	400a0a13          	addi	s4,s4,1024 # 800070f0 <_tdata_begin>
    80004cf8:	e54e                	sd	s3,136(sp)
    80004cfa:	40fa09b3          	sub	s3,s4,a5
    80004cfe:	ed26                	sd	s1,152(sp)
    80004d00:	e94a                	sd	s2,144(sp)
    80004d02:	84aa                	mv	s1,a0
    80004d04:	892e                	mv	s2,a1
    80004d06:	8512                	mv	a0,tp
    80004d08:	85be                	mv	a1,a5
    80004d0a:	864e                	mv	a2,s3
    80004d0c:	f506                	sd	ra,168(sp)
    80004d0e:	f122                	sd	s0,160(sp)
    80004d10:	fcd6                	sd	s5,120(sp)
    80004d12:	8a92                	mv	s5,tp
    80004d14:	f41ff0ef          	jal	80004c54 <memcpy>
    80004d18:	00002617          	auipc	a2,0x2
    80004d1c:	42c60613          	addi	a2,a2,1068 # 80007144 <_tbss_end>
    80004d20:	41460633          	sub	a2,a2,s4
    80004d24:	4581                	li	a1,0
    80004d26:	013a8533          	add	a0,s5,s3
    80004d2a:	f6bff0ef          	jal	80004c94 <memset>
    80004d2e:	85ca                	mv	a1,s2
    80004d30:	8526                	mv	a0,s1
    80004d32:	e69ff0ef          	jal	80004b9a <thread_entry>
    80004d36:	4581                	li	a1,0
    80004d38:	4501                	li	a0,0
    80004d3a:	9d1ff0ef          	jal	8000470a <main>
    80004d3e:	00002917          	auipc	s2,0x2
    80004d42:	39290913          	addi	s2,s2,914 # 800070d0 <counters>
    80004d46:	00093683          	ld	a3,0(s2)
    80004d4a:	03f10413          	addi	s0,sp,63
    80004d4e:	fc047413          	andi	s0,s0,-64
    80004d52:	84aa                	mv	s1,a0
    80004d54:	ea85                	bnez	a3,80004d84 <_init+0xa0>
    80004d56:	00893683          	ld	a3,8(s2)
    80004d5a:	e681                	bnez	a3,80004d62 <_init+0x7e>
    80004d5c:	8526                	mv	a0,s1
    80004d5e:	dadff0ef          	jal	80004b0a <tohost_exit>
    80004d62:	89a2                	mv	s3,s0
    80004d64:	01893603          	ld	a2,24(s2)
    80004d68:	854e                	mv	a0,s3
    80004d6a:	00000597          	auipc	a1,0x0
    80004d6e:	64e58593          	addi	a1,a1,1614 # 800053b8 <Nr+0x19c>
    80004d72:	ea3ff0ef          	jal	80004c14 <sprintf>
    80004d76:	99aa                	add	s3,s3,a0
    80004d78:	ff3402e3          	beq	s0,s3,80004d5c <_init+0x78>
    80004d7c:	8522                	mv	a0,s0
    80004d7e:	dc5ff0ef          	jal	80004b42 <printstr>
    80004d82:	bfe9                	j	80004d5c <_init+0x78>
    80004d84:	01093603          	ld	a2,16(s2)
    80004d88:	00000597          	auipc	a1,0x0
    80004d8c:	63058593          	addi	a1,a1,1584 # 800053b8 <Nr+0x19c>
    80004d90:	8522                	mv	a0,s0
    80004d92:	e83ff0ef          	jal	80004c14 <sprintf>
    80004d96:	00893683          	ld	a3,8(s2)
    80004d9a:	00a409b3          	add	s3,s0,a0
    80004d9e:	dee9                	beqz	a3,80004d78 <_init+0x94>
    80004da0:	b7d1                	j	80004d64 <_init+0x80>

0000000080004da2 <strlen>:
    80004da2:	00054783          	lbu	a5,0(a0)
    80004da6:	cb89                	beqz	a5,80004db8 <strlen+0x16>
    80004da8:	87aa                	mv	a5,a0
    80004daa:	0017c703          	lbu	a4,1(a5)
    80004dae:	0785                	addi	a5,a5,1
    80004db0:	ff6d                	bnez	a4,80004daa <strlen+0x8>
    80004db2:	40a78533          	sub	a0,a5,a0
    80004db6:	8082                	ret
    80004db8:	4501                	li	a0,0
    80004dba:	8082                	ret

0000000080004dbc <strnlen>:
    80004dbc:	00b506b3          	add	a3,a0,a1
    80004dc0:	87aa                	mv	a5,a0
    80004dc2:	e589                	bnez	a1,80004dcc <strnlen+0x10>
    80004dc4:	a829                	j	80004dde <strnlen+0x22>
    80004dc6:	0785                	addi	a5,a5,1
    80004dc8:	00f68863          	beq	a3,a5,80004dd8 <strnlen+0x1c>
    80004dcc:	0007c703          	lbu	a4,0(a5)
    80004dd0:	fb7d                	bnez	a4,80004dc6 <strnlen+0xa>
    80004dd2:	40a78533          	sub	a0,a5,a0
    80004dd6:	8082                	ret
    80004dd8:	40a68533          	sub	a0,a3,a0
    80004ddc:	8082                	ret
    80004dde:	4501                	li	a0,0
    80004de0:	8082                	ret

0000000080004de2 <strcmp>:
    80004de2:	00054783          	lbu	a5,0(a0)
    80004de6:	0585                	addi	a1,a1,1
    80004de8:	0505                	addi	a0,a0,1
    80004dea:	fff5c703          	lbu	a4,-1(a1)
    80004dee:	c799                	beqz	a5,80004dfc <strcmp+0x1a>
    80004df0:	fee789e3          	beq	a5,a4,80004de2 <strcmp>
    80004df4:	0007851b          	sext.w	a0,a5
    80004df8:	9d19                	subw	a0,a0,a4
    80004dfa:	8082                	ret
    80004dfc:	4501                	li	a0,0
    80004dfe:	bfed                	j	80004df8 <strcmp+0x16>

0000000080004e00 <strcpy>:
    80004e00:	87aa                	mv	a5,a0
    80004e02:	0005c703          	lbu	a4,0(a1)
    80004e06:	0785                	addi	a5,a5,1
    80004e08:	0585                	addi	a1,a1,1
    80004e0a:	fee78fa3          	sb	a4,-1(a5)
    80004e0e:	fb75                	bnez	a4,80004e02 <strcpy+0x2>
    80004e10:	8082                	ret

0000000080004e12 <atol>:
    80004e12:	00054703          	lbu	a4,0(a0)
    80004e16:	02000693          	li	a3,32
    80004e1a:	87aa                	mv	a5,a0
    80004e1c:	00d71763          	bne	a4,a3,80004e2a <atol+0x18>
    80004e20:	0017c703          	lbu	a4,1(a5)
    80004e24:	0785                	addi	a5,a5,1
    80004e26:	fed70de3          	beq	a4,a3,80004e20 <atol+0xe>
    80004e2a:	02d00693          	li	a3,45
    80004e2e:	04d70163          	beq	a4,a3,80004e70 <atol+0x5e>
    80004e32:	02b00693          	li	a3,43
    80004e36:	02d70763          	beq	a4,a3,80004e64 <atol+0x52>
    80004e3a:	0007c683          	lbu	a3,0(a5)
    80004e3e:	4581                	li	a1,0
    80004e40:	ce8d                	beqz	a3,80004e7a <atol+0x68>
    80004e42:	4501                	li	a0,0
    80004e44:	0785                	addi	a5,a5,1
    80004e46:	00251713          	slli	a4,a0,0x2
    80004e4a:	fd06861b          	addiw	a2,a3,-48
    80004e4e:	0007c683          	lbu	a3,0(a5)
    80004e52:	972a                	add	a4,a4,a0
    80004e54:	0706                	slli	a4,a4,0x1
    80004e56:	00e60533          	add	a0,a2,a4
    80004e5a:	f6ed                	bnez	a3,80004e44 <atol+0x32>
    80004e5c:	c185                	beqz	a1,80004e7c <atol+0x6a>
    80004e5e:	40a00533          	neg	a0,a0
    80004e62:	8082                	ret
    80004e64:	0017c683          	lbu	a3,1(a5)
    80004e68:	0785                	addi	a5,a5,1
    80004e6a:	ca81                	beqz	a3,80004e7a <atol+0x68>
    80004e6c:	4581                	li	a1,0
    80004e6e:	bfd1                	j	80004e42 <atol+0x30>
    80004e70:	0017c683          	lbu	a3,1(a5)
    80004e74:	4585                	li	a1,1
    80004e76:	0785                	addi	a5,a5,1
    80004e78:	f6e9                	bnez	a3,80004e42 <atol+0x30>
    80004e7a:	4501                	li	a0,0
    80004e7c:	8082                	ret

0000000080004e7e <__errno>:
    80004e7e:	83818513          	addi	a0,gp,-1992 # 80005698 <__errno_location>
    80004e82:	8082                	ret

0000000080004e84 <atoi>:
    80004e84:	cd41                	beqz	a0,80004f1c <atoi+0x98>
    80004e86:	02000693          	li	a3,32
    80004e8a:	4611                	li	a2,4
    80004e8c:	00054783          	lbu	a5,0(a0)
    80004e90:	ff77871b          	addiw	a4,a5,-9
    80004e94:	0ff77713          	zext.b	a4,a4
    80004e98:	06d78863          	beq	a5,a3,80004f08 <atoi+0x84>
    80004e9c:	06e67663          	bgeu	a2,a4,80004f08 <atoi+0x84>
    80004ea0:	02b00713          	li	a4,43
    80004ea4:	06e78763          	beq	a5,a4,80004f12 <atoi+0x8e>
    80004ea8:	02d00713          	li	a4,45
    80004eac:	4305                	li	t1,1
    80004eae:	06e78963          	beq	a5,a4,80004f20 <atoi+0x9c>
    80004eb2:	fd07879b          	addiw	a5,a5,-48
    80004eb6:	0ff7f693          	zext.b	a3,a5
    80004eba:	4725                	li	a4,9
    80004ebc:	06d76063          	bltu	a4,a3,80004f1c <atoi+0x98>
    80004ec0:	800005b7          	lui	a1,0x80000
    80004ec4:	4681                	li	a3,0
    80004ec6:	35fd                	addiw	a1,a1,-1 # 7fffffff <buflen.1+0x7fffffbf>
    80004ec8:	4829                	li	a6,10
    80004eca:	48a5                	li	a7,9
    80004ecc:	a819                	j	80004ee2 <atoi+0x5e>
    80004ece:	00054783          	lbu	a5,0(a0)
    80004ed2:	0007069b          	sext.w	a3,a4
    80004ed6:	fd07879b          	addiw	a5,a5,-48
    80004eda:	0ff7f613          	zext.b	a2,a5
    80004ede:	02c8e763          	bltu	a7,a2,80004f0c <atoi+0x88>
    80004ee2:	40f5863b          	subw	a2,a1,a5
    80004ee6:	0306463b          	divw	a2,a2,a6
    80004eea:	0026971b          	slliw	a4,a3,0x2
    80004eee:	9f35                	addw	a4,a4,a3
    80004ef0:	0017171b          	slliw	a4,a4,0x1
    80004ef4:	0505                	addi	a0,a0,1
    80004ef6:	9f3d                	addw	a4,a4,a5
    80004ef8:	fcd65be3          	bge	a2,a3,80004ece <atoi+0x4a>
    80004efc:	4785                	li	a5,1
    80004efe:	80000537          	lui	a0,0x80000
    80004f02:	02f30163          	beq	t1,a5,80004f24 <atoi+0xa0>
    80004f06:	8082                	ret
    80004f08:	0505                	addi	a0,a0,1 # ffffffff80000001 <_tbss_end+0xfffffffeffff8ebd>
    80004f0a:	b749                	j	80004e8c <atoi+0x8>
    80004f0c:	0267053b          	mulw	a0,a4,t1
    80004f10:	8082                	ret
    80004f12:	4305                	li	t1,1
    80004f14:	00154783          	lbu	a5,1(a0)
    80004f18:	0505                	addi	a0,a0,1
    80004f1a:	bf61                	j	80004eb2 <atoi+0x2e>
    80004f1c:	4501                	li	a0,0
    80004f1e:	8082                	ret
    80004f20:	537d                	li	t1,-1
    80004f22:	bfcd                	j	80004f14 <atoi+0x90>
    80004f24:	fff54513          	not	a0,a0
    80004f28:	8082                	ret

0000000080004f2a <strtol>:
    80004f2a:	872a                	mv	a4,a0
    80004f2c:	4811                	li	a6,4
    80004f2e:	02000513          	li	a0,32
    80004f32:	00074683          	lbu	a3,0(a4)
    80004f36:	ff76879b          	addiw	a5,a3,-9
    80004f3a:	0ff7f793          	zext.b	a5,a5
    80004f3e:	04a68b63          	beq	a3,a0,80004f94 <strtol+0x6a>
    80004f42:	04f87963          	bgeu	a6,a5,80004f94 <strtol+0x6a>
    80004f46:	02d00793          	li	a5,45
    80004f4a:	08f68963          	beq	a3,a5,80004fdc <strtol+0xb2>
    80004f4e:	02b00793          	li	a5,43
    80004f52:	4e01                	li	t3,0
    80004f54:	08f68063          	beq	a3,a5,80004fd4 <strtol+0xaa>
    80004f58:	ee29                	bnez	a2,80004fb2 <strtol+0x88>
    80004f5a:	03000793          	li	a5,48
    80004f5e:	4629                	li	a2,10
    80004f60:	08f68363          	beq	a3,a5,80004fe6 <strtol+0xbc>
    80004f64:	4501                	li	a0,0
    80004f66:	48a5                	li	a7,9
    80004f68:	4365                	li	t1,25
    80004f6a:	00074683          	lbu	a3,0(a4)
    80004f6e:	fd06879b          	addiw	a5,a3,-48
    80004f72:	f9f6881b          	addiw	a6,a3,-97
    80004f76:	00f8f863          	bgeu	a7,a5,80004f86 <strtol+0x5c>
    80004f7a:	fbf6879b          	addiw	a5,a3,-65
    80004f7e:	01036d63          	bltu	t1,a6,80004f98 <strtol+0x6e>
    80004f82:	fa96879b          	addiw	a5,a3,-87
    80004f86:	00c7df63          	bge	a5,a2,80004fa4 <strtol+0x7a>
    80004f8a:	02a60533          	mul	a0,a2,a0
    80004f8e:	0705                	addi	a4,a4,1
    80004f90:	953e                	add	a0,a0,a5
    80004f92:	bfe1                	j	80004f6a <strtol+0x40>
    80004f94:	0705                	addi	a4,a4,1
    80004f96:	bf71                	j	80004f32 <strtol+0x8>
    80004f98:	00f36663          	bltu	t1,a5,80004fa4 <strtol+0x7a>
    80004f9c:	fc96879b          	addiw	a5,a3,-55
    80004fa0:	fec7c5e3          	blt	a5,a2,80004f8a <strtol+0x60>
    80004fa4:	c191                	beqz	a1,80004fa8 <strtol+0x7e>
    80004fa6:	e198                	sd	a4,0(a1)
    80004fa8:	000e0463          	beqz	t3,80004fb0 <strtol+0x86>
    80004fac:	40a00533          	neg	a0,a0
    80004fb0:	8082                	ret
    80004fb2:	47c1                	li	a5,16
    80004fb4:	faf618e3          	bne	a2,a5,80004f64 <strtol+0x3a>
    80004fb8:	03000793          	li	a5,48
    80004fbc:	faf694e3          	bne	a3,a5,80004f64 <strtol+0x3a>
    80004fc0:	00174783          	lbu	a5,1(a4)
    80004fc4:	05800693          	li	a3,88
    80004fc8:	0df7f793          	andi	a5,a5,223
    80004fcc:	f8d79ce3          	bne	a5,a3,80004f64 <strtol+0x3a>
    80004fd0:	0709                	addi	a4,a4,2
    80004fd2:	bf49                	j	80004f64 <strtol+0x3a>
    80004fd4:	00174683          	lbu	a3,1(a4)
    80004fd8:	0705                	addi	a4,a4,1
    80004fda:	bfbd                	j	80004f58 <strtol+0x2e>
    80004fdc:	00174683          	lbu	a3,1(a4)
    80004fe0:	4e05                	li	t3,1
    80004fe2:	0705                	addi	a4,a4,1
    80004fe4:	bf95                	j	80004f58 <strtol+0x2e>
    80004fe6:	00174783          	lbu	a5,1(a4)
    80004fea:	05800693          	li	a3,88
    80004fee:	0df7f793          	andi	a5,a5,223
    80004ff2:	00d78563          	beq	a5,a3,80004ffc <strtol+0xd2>
    80004ff6:	0705                	addi	a4,a4,1
    80004ff8:	4621                	li	a2,8
    80004ffa:	b7ad                	j	80004f64 <strtol+0x3a>
    80004ffc:	0709                	addi	a4,a4,2
    80004ffe:	4641                	li	a2,16
    80005000:	b795                	j	80004f64 <strtol+0x3a>

0000000080005002 <my_isspace>:
    80005002:	02000793          	li	a5,32
    80005006:	00f50863          	beq	a0,a5,80005016 <my_isspace+0x14>
    8000500a:	355d                	addiw	a0,a0,-9
    8000500c:	0ff57513          	zext.b	a0,a0
    80005010:	00553513          	sltiu	a0,a0,5
    80005014:	8082                	ret
    80005016:	4505                	li	a0,1
    80005018:	8082                	ret

000000008000501a <my_isdigit>:
    8000501a:	fd05051b          	addiw	a0,a0,-48
    8000501e:	0ff57513          	zext.b	a0,a0
    80005022:	00a53513          	sltiu	a0,a0,10
    80005026:	8082                	ret

0000000080005028 <strtod>:
    80005028:	02000693          	li	a3,32
    8000502c:	4611                	li	a2,4
    8000502e:	00054783          	lbu	a5,0(a0)
    80005032:	ff77871b          	addiw	a4,a5,-9
    80005036:	0ff77713          	zext.b	a4,a4
    8000503a:	08d78263          	beq	a5,a3,800050be <strtod+0x96>
    8000503e:	08e67063          	bgeu	a2,a4,800050be <strtod+0x96>
    80005042:	02d00713          	li	a4,45
    80005046:	06e78e63          	beq	a5,a4,800050c2 <strtod+0x9a>
    8000504a:	02b00713          	li	a4,43
    8000504e:	08e78663          	beq	a5,a4,800050da <strtod+0xb2>
    80005052:	00000717          	auipc	a4,0x0
    80005056:	60e73587          	fld	fa1,1550(a4) # 80005660 <key+0x14>
    8000505a:	22b58553          	fmv.d	fa0,fa1
    8000505e:	fd07871b          	addiw	a4,a5,-48
    80005062:	0ff77613          	zext.b	a2,a4
    80005066:	46a5                	li	a3,9
    80005068:	f20007d3          	fmv.d.x	fa5,zero
    8000506c:	02c6e463          	bltu	a3,a2,80005094 <strtod+0x6c>
    80005070:	00000797          	auipc	a5,0x0
    80005074:	6007b687          	fld	fa3,1536(a5) # 80005670 <key+0x24>
    80005078:	4625                	li	a2,9
    8000507a:	00154783          	lbu	a5,1(a0)
    8000507e:	d2070753          	fcvt.d.w	fa4,a4
    80005082:	0505                	addi	a0,a0,1
    80005084:	fd07871b          	addiw	a4,a5,-48
    80005088:	0ff77693          	zext.b	a3,a4
    8000508c:	72d7f7c3          	fmadd.d	fa5,fa5,fa3,fa4
    80005090:	fed675e3          	bgeu	a2,a3,8000507a <strtod+0x52>
    80005094:	02e00713          	li	a4,46
    80005098:	0ce78363          	beq	a5,a4,8000515e <strtod+0x136>
    8000509c:	00054703          	lbu	a4,0(a0)
    800050a0:	0df77713          	andi	a4,a4,223
    800050a4:	04500793          	li	a5,69
    800050a8:	22b58753          	fmv.d	fa4,fa1
    800050ac:	04f70163          	beq	a4,a5,800050ee <strtod+0xc6>
    800050b0:	12a7f553          	fmul.d	fa0,fa5,fa0
    800050b4:	12e57553          	fmul.d	fa0,fa0,fa4
    800050b8:	c191                	beqz	a1,800050bc <strtod+0x94>
    800050ba:	e188                	sd	a0,0(a1)
    800050bc:	8082                	ret
    800050be:	0505                	addi	a0,a0,1
    800050c0:	b7bd                	j	8000502e <strtod+0x6>
    800050c2:	00154783          	lbu	a5,1(a0)
    800050c6:	00000717          	auipc	a4,0x0
    800050ca:	5a273507          	fld	fa0,1442(a4) # 80005668 <key+0x1c>
    800050ce:	0505                	addi	a0,a0,1
    800050d0:	00000717          	auipc	a4,0x0
    800050d4:	59073587          	fld	fa1,1424(a4) # 80005660 <key+0x14>
    800050d8:	b759                	j	8000505e <strtod+0x36>
    800050da:	00000797          	auipc	a5,0x0
    800050de:	5867b587          	fld	fa1,1414(a5) # 80005660 <key+0x14>
    800050e2:	00154783          	lbu	a5,1(a0)
    800050e6:	22b58553          	fmv.d	fa0,fa1
    800050ea:	0505                	addi	a0,a0,1
    800050ec:	bf8d                	j	8000505e <strtod+0x36>
    800050ee:	00154803          	lbu	a6,1(a0)
    800050f2:	02d00793          	li	a5,45
    800050f6:	0cf80363          	beq	a6,a5,800051bc <strtod+0x194>
    800050fa:	02b00793          	li	a5,43
    800050fe:	0ef80563          	beq	a6,a5,800051e8 <strtod+0x1c0>
    80005102:	0505                	addi	a0,a0,1
    80005104:	4705                	li	a4,1
    80005106:	fd08069b          	addiw	a3,a6,-48
    8000510a:	0ff6f613          	zext.b	a2,a3
    8000510e:	47a5                	li	a5,9
    80005110:	0ec7e163          	bltu	a5,a2,800051f2 <strtod+0x1ca>
    80005114:	4601                	li	a2,0
    80005116:	48a5                	li	a7,9
    80005118:	00154803          	lbu	a6,1(a0)
    8000511c:	0026179b          	slliw	a5,a2,0x2
    80005120:	9fb1                	addw	a5,a5,a2
    80005122:	0017979b          	slliw	a5,a5,0x1
    80005126:	00f6863b          	addw	a2,a3,a5
    8000512a:	fd08069b          	addiw	a3,a6,-48
    8000512e:	0ff6f813          	zext.b	a6,a3
    80005132:	0505                	addi	a0,a0,1
    80005134:	ff08f2e3          	bgeu	a7,a6,80005118 <strtod+0xf0>
    80005138:	02c7073b          	mulw	a4,a4,a2
    8000513c:	08075563          	bgez	a4,800051c6 <strtod+0x19e>
    80005140:	22b58753          	fmv.d	fa4,fa1
    80005144:	0017079b          	addiw	a5,a4,1
    80005148:	00000717          	auipc	a4,0x0
    8000514c:	53073687          	fld	fa3,1328(a4) # 80005678 <key+0x2c>
    80005150:	4705                	li	a4,1
    80005152:	2785                	addiw	a5,a5,1
    80005154:	12d77753          	fmul.d	fa4,fa4,fa3
    80005158:	fee79de3          	bne	a5,a4,80005152 <strtod+0x12a>
    8000515c:	bf91                	j	800050b0 <strtod+0x88>
    8000515e:	00154703          	lbu	a4,1(a0)
    80005162:	46a5                	li	a3,9
    80005164:	0505                	addi	a0,a0,1
    80005166:	fd07079b          	addiw	a5,a4,-48
    8000516a:	0ff7f613          	zext.b	a2,a5
    8000516e:	f2c6e9e3          	bltu	a3,a2,800050a0 <strtod+0x78>
    80005172:	d2078753          	fcvt.d.w	fa4,a5
    80005176:	4325                	li	t1,9
    80005178:	4781                	li	a5,0
    8000517a:	00000717          	auipc	a4,0x0
    8000517e:	4fe73687          	fld	fa3,1278(a4) # 80005678 <key+0x2c>
    80005182:	4685                	li	a3,1
    80005184:	00154703          	lbu	a4,1(a0)
    80005188:	02e7f7d3          	fadd.d	fa5,fa5,fa4
    8000518c:	0505                	addi	a0,a0,1
    8000518e:	fd07061b          	addiw	a2,a4,-48
    80005192:	0ff67813          	zext.b	a6,a2
    80005196:	0017889b          	addiw	a7,a5,1
    8000519a:	f10363e3          	bltu	t1,a6,800050a0 <strtod+0x78>
    8000519e:	22b58753          	fmv.d	fa4,fa1
    800051a2:	40f007bb          	negw	a5,a5
    800051a6:	2785                	addiw	a5,a5,1
    800051a8:	12d77753          	fmul.d	fa4,fa4,fa3
    800051ac:	fed79de3          	bne	a5,a3,800051a6 <strtod+0x17e>
    800051b0:	d2060653          	fcvt.d.w	fa2,a2
    800051b4:	87c6                	mv	a5,a7
    800051b6:	12e67753          	fmul.d	fa4,fa2,fa4
    800051ba:	b7e9                	j	80005184 <strtod+0x15c>
    800051bc:	00254803          	lbu	a6,2(a0)
    800051c0:	577d                	li	a4,-1
    800051c2:	0509                	addi	a0,a0,2
    800051c4:	b789                	j	80005106 <strtod+0xde>
    800051c6:	22b58753          	fmv.d	fa4,fa1
    800051ca:	fff7079b          	addiw	a5,a4,-1
    800051ce:	ee0701e3          	beqz	a4,800050b0 <strtod+0x88>
    800051d2:	00000717          	auipc	a4,0x0
    800051d6:	49e73687          	fld	fa3,1182(a4) # 80005670 <key+0x24>
    800051da:	577d                	li	a4,-1
    800051dc:	37fd                	addiw	a5,a5,-1
    800051de:	12d77753          	fmul.d	fa4,fa4,fa3
    800051e2:	fee79de3          	bne	a5,a4,800051dc <strtod+0x1b4>
    800051e6:	b5e9                	j	800050b0 <strtod+0x88>
    800051e8:	00254803          	lbu	a6,2(a0)
    800051ec:	4705                	li	a4,1
    800051ee:	0509                	addi	a0,a0,2
    800051f0:	bf19                	j	80005106 <strtod+0xde>
    800051f2:	22b58753          	fmv.d	fa4,fa1
    800051f6:	bd6d                	j	800050b0 <strtod+0x88>

00000000800051f8 <atof>:
    800051f8:	4581                	li	a1,0
    800051fa:	b53d                	j	80005028 <strtod>

Disassembly of section .text.startup:

00000000800051fc <.text.startup>:
    800051fc:	1141                	addi	sp,sp,-16
    800051fe:	00000517          	auipc	a0,0x0
    80005202:	1a250513          	addi	a0,a0,418 # 800053a0 <Nr+0x184>
    80005206:	e406                	sd	ra,8(sp)
    80005208:	93bff0ef          	jal	80004b42 <printstr>
    8000520c:	60a2                	ld	ra,8(sp)
    8000520e:	557d                	li	a0,-1
    80005210:	0141                	addi	sp,sp,16
    80005212:	8082                	ret
