
mainop_BASELINE_O0.riscv:     file format elf64-littleriscv


Disassembly of section .text.init:

0000000080000000 <_start>:
    80000000:	4081                	li	ra,0
    80000002:	4101                	li	sp,0
    80000004:	4181                	li	gp,0
    80000006:	4201                	li	tp,0
    80000008:	4281                	li	t0,0
    8000000a:	4301                	li	t1,0
    8000000c:	4381                	li	t2,0
    8000000e:	4401                	li	s0,0
    80000010:	4481                	li	s1,0
    80000012:	4501                	li	a0,0
    80000014:	4581                	li	a1,0
    80000016:	4601                	li	a2,0
    80000018:	4681                	li	a3,0
    8000001a:	4701                	li	a4,0
    8000001c:	4781                	li	a5,0
    8000001e:	4801                	li	a6,0
    80000020:	4881                	li	a7,0
    80000022:	4901                	li	s2,0
    80000024:	4981                	li	s3,0
    80000026:	4a01                	li	s4,0
    80000028:	4a81                	li	s5,0
    8000002a:	4b01                	li	s6,0
    8000002c:	4b81                	li	s7,0
    8000002e:	4c01                	li	s8,0
    80000030:	4c81                	li	s9,0
    80000032:	4d01                	li	s10,0
    80000034:	4d81                	li	s11,0
    80000036:	4e01                	li	t3,0
    80000038:	4e81                	li	t4,0
    8000003a:	4f01                	li	t5,0
    8000003c:	4f81                	li	t6,0
    8000003e:	62f9                	lui	t0,0x1e
    80000040:	3002a073          	csrs	mstatus,t0
    80000044:	4285                	li	t0,1
    80000046:	02fe                	slli	t0,t0,0x1f
    80000048:	0002d863          	bgez	t0,80000058 <_start+0x58>
    8000004c:	4505                	li	a0,1
    8000004e:	00001297          	auipc	t0,0x1
    80000052:	faa2a923          	sw	a0,-78(t0) # 80001000 <tohost>
    80000056:	bfdd                	j	8000004c <_start+0x4c>
    80000058:	00000297          	auipc	t0,0x0
    8000005c:	09028293          	addi	t0,t0,144 # 800000e8 <_start+0xe8>
    80000060:	30529073          	csrw	mtvec,t0
    80000064:	00301073          	fscsr	zero
    80000068:	f0000053          	fmv.w.x	ft0,zero
    8000006c:	f00000d3          	fmv.w.x	ft1,zero
    80000070:	f0000153          	fmv.w.x	ft2,zero
    80000074:	f00001d3          	fmv.w.x	ft3,zero
    80000078:	f0000253          	fmv.w.x	ft4,zero
    8000007c:	f00002d3          	fmv.w.x	ft5,zero
    80000080:	f0000353          	fmv.w.x	ft6,zero
    80000084:	f00003d3          	fmv.w.x	ft7,zero
    80000088:	f0000453          	fmv.w.x	fs0,zero
    8000008c:	f00004d3          	fmv.w.x	fs1,zero
    80000090:	f0000553          	fmv.w.x	fa0,zero
    80000094:	f00005d3          	fmv.w.x	fa1,zero
    80000098:	f0000653          	fmv.w.x	fa2,zero
    8000009c:	f00006d3          	fmv.w.x	fa3,zero
    800000a0:	f0000753          	fmv.w.x	fa4,zero
    800000a4:	f00007d3          	fmv.w.x	fa5,zero
    800000a8:	f0000853          	fmv.w.x	fa6,zero
    800000ac:	f00008d3          	fmv.w.x	fa7,zero
    800000b0:	f0000953          	fmv.w.x	fs2,zero
    800000b4:	f00009d3          	fmv.w.x	fs3,zero
    800000b8:	f0000a53          	fmv.w.x	fs4,zero
    800000bc:	f0000ad3          	fmv.w.x	fs5,zero
    800000c0:	f0000b53          	fmv.w.x	fs6,zero
    800000c4:	f0000bd3          	fmv.w.x	fs7,zero
    800000c8:	f0000c53          	fmv.w.x	fs8,zero
    800000cc:	f0000cd3          	fmv.w.x	fs9,zero
    800000d0:	f0000d53          	fmv.w.x	fs10,zero
    800000d4:	f0000dd3          	fmv.w.x	fs11,zero
    800000d8:	f0000e53          	fmv.w.x	ft8,zero
    800000dc:	f0000ed3          	fmv.w.x	ft9,zero
    800000e0:	f0000f53          	fmv.w.x	ft10,zero
    800000e4:	f0000fd3          	fmv.w.x	ft11,zero
    800000e8:	00000297          	auipc	t0,0x0
    800000ec:	03c28293          	addi	t0,t0,60 # 80000124 <trap_entry>
    800000f0:	30529073          	csrw	mtvec,t0
    800000f4:	00005197          	auipc	gp,0x5
    800000f8:	ccc18193          	addi	gp,gp,-820 # 80004dc0 <__global_pointer$>
    800000fc:	00006217          	auipc	tp,0x6
    80000100:	fc320213          	addi	tp,tp,-61 # 800060bf <_end+0x3f>
    80000104:	fc027213          	andi	tp,tp,-64
    80000108:	f1402573          	csrr	a0,mhartid
    8000010c:	4585                	li	a1,1
    8000010e:	00b57063          	bgeu	a0,a1,8000010e <_start+0x10e>
    80000112:	00150113          	addi	sp,a0,1
    80000116:	0146                	slli	sp,sp,0x11
    80000118:	9112                	add	sp,sp,tp
    8000011a:	01151613          	slli	a2,a0,0x11
    8000011e:	9232                	add	tp,tp,a2
    80000120:	2210306f          	j	80003b40 <_init>

0000000080000124 <trap_entry>:
    80000124:	716d                	addi	sp,sp,-272
    80000126:	e406                	sd	ra,8(sp)
    80000128:	e80a                	sd	sp,16(sp)
    8000012a:	ec0e                	sd	gp,24(sp)
    8000012c:	f012                	sd	tp,32(sp)
    8000012e:	f416                	sd	t0,40(sp)
    80000130:	f81a                	sd	t1,48(sp)
    80000132:	fc1e                	sd	t2,56(sp)
    80000134:	e0a2                	sd	s0,64(sp)
    80000136:	e4a6                	sd	s1,72(sp)
    80000138:	e8aa                	sd	a0,80(sp)
    8000013a:	ecae                	sd	a1,88(sp)
    8000013c:	f0b2                	sd	a2,96(sp)
    8000013e:	f4b6                	sd	a3,104(sp)
    80000140:	f8ba                	sd	a4,112(sp)
    80000142:	fcbe                	sd	a5,120(sp)
    80000144:	e142                	sd	a6,128(sp)
    80000146:	e546                	sd	a7,136(sp)
    80000148:	e94a                	sd	s2,144(sp)
    8000014a:	ed4e                	sd	s3,152(sp)
    8000014c:	f152                	sd	s4,160(sp)
    8000014e:	f556                	sd	s5,168(sp)
    80000150:	f95a                	sd	s6,176(sp)
    80000152:	fd5e                	sd	s7,184(sp)
    80000154:	e1e2                	sd	s8,192(sp)
    80000156:	e5e6                	sd	s9,200(sp)
    80000158:	e9ea                	sd	s10,208(sp)
    8000015a:	edee                	sd	s11,216(sp)
    8000015c:	f1f2                	sd	t3,224(sp)
    8000015e:	f5f6                	sd	t4,232(sp)
    80000160:	f9fa                	sd	t5,240(sp)
    80000162:	fdfe                	sd	t6,248(sp)
    80000164:	34202573          	csrr	a0,mcause
    80000168:	341025f3          	csrr	a1,mepc
    8000016c:	860a                	mv	a2,sp
    8000016e:	00b030ef          	jal	80003978 <handle_trap>
    80000172:	34151073          	csrw	mepc,a0
    80000176:	6289                	lui	t0,0x2
    80000178:	8002829b          	addiw	t0,t0,-2048 # 1800 <buflen.1+0x17c0>
    8000017c:	3002a073          	csrs	mstatus,t0
    80000180:	60a2                	ld	ra,8(sp)
    80000182:	6142                	ld	sp,16(sp)
    80000184:	61e2                	ld	gp,24(sp)
    80000186:	7202                	ld	tp,32(sp)
    80000188:	72a2                	ld	t0,40(sp)
    8000018a:	7342                	ld	t1,48(sp)
    8000018c:	73e2                	ld	t2,56(sp)
    8000018e:	6406                	ld	s0,64(sp)
    80000190:	64a6                	ld	s1,72(sp)
    80000192:	6546                	ld	a0,80(sp)
    80000194:	65e6                	ld	a1,88(sp)
    80000196:	7606                	ld	a2,96(sp)
    80000198:	76a6                	ld	a3,104(sp)
    8000019a:	7746                	ld	a4,112(sp)
    8000019c:	77e6                	ld	a5,120(sp)
    8000019e:	680a                	ld	a6,128(sp)
    800001a0:	68aa                	ld	a7,136(sp)
    800001a2:	694a                	ld	s2,144(sp)
    800001a4:	69ea                	ld	s3,152(sp)
    800001a6:	7a0a                	ld	s4,160(sp)
    800001a8:	7aaa                	ld	s5,168(sp)
    800001aa:	7b4a                	ld	s6,176(sp)
    800001ac:	7bea                	ld	s7,184(sp)
    800001ae:	6c0e                	ld	s8,192(sp)
    800001b0:	6cae                	ld	s9,200(sp)
    800001b2:	6d4e                	ld	s10,208(sp)
    800001b4:	6dee                	ld	s11,216(sp)
    800001b6:	7e0e                	ld	t3,224(sp)
    800001b8:	7eae                	ld	t4,232(sp)
    800001ba:	7f4e                	ld	t5,240(sp)
    800001bc:	7fee                	ld	t6,248(sp)
    800001be:	6151                	addi	sp,sp,272
    800001c0:	30200073          	mret
    800001c4:	0000                	unimp

Disassembly of section .text:

0000000080002000 <d2ull>:
    80002000:	1101                	addi	sp,sp,-32
    80002002:	ec06                	sd	ra,24(sp)
    80002004:	e822                	sd	s0,16(sp)
    80002006:	1000                	addi	s0,sp,32
    80002008:	fea43427          	fsd	fa0,-24(s0)
    8000200c:	fe843007          	fld	ft0,-24(s0)
    80002010:	fe043027          	fsd	ft0,-32(s0)
    80002014:	fe043503          	ld	a0,-32(s0)
    80002018:	60e2                	ld	ra,24(sp)
    8000201a:	6442                	ld	s0,16(sp)
    8000201c:	6105                	addi	sp,sp,32
    8000201e:	8082                	ret

0000000080002020 <ull2d>:
    80002020:	1101                	addi	sp,sp,-32
    80002022:	ec06                	sd	ra,24(sp)
    80002024:	e822                	sd	s0,16(sp)
    80002026:	1000                	addi	s0,sp,32
    80002028:	fea43423          	sd	a0,-24(s0)
    8000202c:	fe843503          	ld	a0,-24(s0)
    80002030:	fea43023          	sd	a0,-32(s0)
    80002034:	fe043507          	fld	fa0,-32(s0)
    80002038:	60e2                	ld	ra,24(sp)
    8000203a:	6442                	ld	s0,16(sp)
    8000203c:	6105                	addi	sp,sp,32
    8000203e:	8082                	ret

0000000080002040 <PickResult>:
    80002040:	1101                	addi	sp,sp,-32
    80002042:	ec06                	sd	ra,24(sp)
    80002044:	e822                	sd	s0,16(sp)
    80002046:	1000                	addi	s0,sp,32
    80002048:	feb43423          	sd	a1,-24(s0)
    8000204c:	fe843583          	ld	a1,-24(s0)
    80002050:	058e                	slli	a1,a1,0x3
    80002052:	952e                	add	a0,a0,a1
    80002054:	6108                	ld	a0,0(a0)
    80002056:	60e2                	ld	ra,24(sp)
    80002058:	6442                	ld	s0,16(sp)
    8000205a:	6105                	addi	sp,sp,32
    8000205c:	8082                	ret

000000008000205e <Impl_SBOX>:
    8000205e:	715d                	addi	sp,sp,-80
    80002060:	e486                	sd	ra,72(sp)
    80002062:	e0a2                	sd	s0,64(sp)
    80002064:	0880                	addi	s0,sp,80
    80002066:	fea43423          	sd	a0,-24(s0)
    8000206a:	feb43023          	sd	a1,-32(s0)
    8000206e:	4501                	li	a0,0
    80002070:	fca42e23          	sw	a0,-36(s0)
    80002074:	0040006f          	j	80002078 <Impl_SBOX+0x1a>
    80002078:	fdc42583          	lw	a1,-36(s0)
    8000207c:	4505                	li	a0,1
    8000207e:	0eb54163          	blt	a0,a1,80002160 <Impl_SBOX+0x102>
    80002082:	0040006f          	j	80002086 <Impl_SBOX+0x28>
    80002086:	fe843503          	ld	a0,-24(s0)
    8000208a:	fdc42583          	lw	a1,-36(s0)
    8000208e:	058e                	slli	a1,a1,0x3
    80002090:	952e                	add	a0,a0,a1
    80002092:	6108                	ld	a0,0(a0)
    80002094:	fca43823          	sd	a0,-48(s0)
    80002098:	4501                	li	a0,0
    8000209a:	fca43423          	sd	a0,-56(s0)
    8000209e:	fca42223          	sw	a0,-60(s0)
    800020a2:	0040006f          	j	800020a6 <Impl_SBOX+0x48>
    800020a6:	fc442583          	lw	a1,-60(s0)
    800020aa:	450d                	li	a0,3
    800020ac:	08b54863          	blt	a0,a1,8000213c <Impl_SBOX+0xde>
    800020b0:	0040006f          	j	800020b4 <Impl_SBOX+0x56>
    800020b4:	4501                	li	a0,0
    800020b6:	fca42023          	sw	a0,-64(s0)
    800020ba:	0040006f          	j	800020be <Impl_SBOX+0x60>
    800020be:	fc042583          	lw	a1,-64(s0)
    800020c2:	450d                	li	a0,3
    800020c4:	06b54363          	blt	a0,a1,8000212a <Impl_SBOX+0xcc>
    800020c8:	0040006f          	j	800020cc <Impl_SBOX+0x6e>
    800020cc:	fd043503          	ld	a0,-48(s0)
    800020d0:	fc442583          	lw	a1,-60(s0)
    800020d4:	058e                	slli	a1,a1,0x3
    800020d6:	fc042603          	lw	a2,-64(s0)
    800020da:	95b2                	add	a1,a1,a2
    800020dc:	00b55533          	srl	a0,a0,a1
    800020e0:	faa40fa3          	sb	a0,-65(s0)
    800020e4:	fbf44583          	lbu	a1,-65(s0)
    800020e8:	00002517          	auipc	a0,0x2
    800020ec:	13950513          	addi	a0,a0,313 # 80004221 <__sbox>
    800020f0:	952e                	add	a0,a0,a1
    800020f2:	00054503          	lbu	a0,0(a0)
    800020f6:	faa42c23          	sw	a0,-72(s0)
    800020fa:	fb846503          	lwu	a0,-72(s0)
    800020fe:	fc442583          	lw	a1,-60(s0)
    80002102:	058e                	slli	a1,a1,0x3
    80002104:	fc042603          	lw	a2,-64(s0)
    80002108:	95b2                	add	a1,a1,a2
    8000210a:	00b515b3          	sll	a1,a0,a1
    8000210e:	fc843503          	ld	a0,-56(s0)
    80002112:	8d4d                	or	a0,a0,a1
    80002114:	fca43423          	sd	a0,-56(s0)
    80002118:	0040006f          	j	8000211c <Impl_SBOX+0xbe>
    8000211c:	fc042503          	lw	a0,-64(s0)
    80002120:	2505                	addiw	a0,a0,1
    80002122:	fca42023          	sw	a0,-64(s0)
    80002126:	f99ff06f          	j	800020be <Impl_SBOX+0x60>
    8000212a:	0040006f          	j	8000212e <Impl_SBOX+0xd0>
    8000212e:	fc442503          	lw	a0,-60(s0)
    80002132:	2505                	addiw	a0,a0,1
    80002134:	fca42223          	sw	a0,-60(s0)
    80002138:	f6fff06f          	j	800020a6 <Impl_SBOX+0x48>
    8000213c:	fc843503          	ld	a0,-56(s0)
    80002140:	fe043583          	ld	a1,-32(s0)
    80002144:	fdc42603          	lw	a2,-36(s0)
    80002148:	060e                	slli	a2,a2,0x3
    8000214a:	95b2                	add	a1,a1,a2
    8000214c:	e188                	sd	a0,0(a1)
    8000214e:	0040006f          	j	80002152 <Impl_SBOX+0xf4>
    80002152:	fdc42503          	lw	a0,-36(s0)
    80002156:	2505                	addiw	a0,a0,1
    80002158:	fca42e23          	sw	a0,-36(s0)
    8000215c:	f1dff06f          	j	80002078 <Impl_SBOX+0x1a>
    80002160:	60a6                	ld	ra,72(sp)
    80002162:	6406                	ld	s0,64(sp)
    80002164:	6161                	addi	sp,sp,80
    80002166:	8082                	ret

0000000080002168 <gmul_>:
    80002168:	715d                	addi	sp,sp,-80
    8000216a:	e486                	sd	ra,72(sp)
    8000216c:	e0a2                	sd	s0,64(sp)
    8000216e:	0880                	addi	s0,sp,80
    80002170:	fea42623          	sw	a0,-20(s0)
    80002174:	feb43023          	sd	a1,-32(s0)
    80002178:	4501                	li	a0,0
    8000217a:	fca42e23          	sw	a0,-36(s0)
    8000217e:	fca42c23          	sw	a0,-40(s0)
    80002182:	0040006f          	j	80002186 <gmul_+0x1e>
    80002186:	fd842583          	lw	a1,-40(s0)
    8000218a:	450d                	li	a0,3
    8000218c:	1ab54763          	blt	a0,a1,8000233a <gmul_+0x1d2>
    80002190:	0040006f          	j	80002194 <gmul_+0x2c>
    80002194:	4581                	li	a1,0
    80002196:	fcb40ba3          	sb	a1,-41(s0)
    8000219a:	fcb42823          	sw	a1,-48(s0)
    8000219e:	fd842503          	lw	a0,-40(s0)
    800021a2:	faa43c23          	sd	a0,-72(s0)
    800021a6:	02b50c63          	beq	a0,a1,800021de <gmul_+0x76>
    800021aa:	0040006f          	j	800021ae <gmul_+0x46>
    800021ae:	fb843503          	ld	a0,-72(s0)
    800021b2:	2501                	sext.w	a0,a0
    800021b4:	4585                	li	a1,1
    800021b6:	02b50c63          	beq	a0,a1,800021ee <gmul_+0x86>
    800021ba:	0040006f          	j	800021be <gmul_+0x56>
    800021be:	fb843503          	ld	a0,-72(s0)
    800021c2:	2501                	sext.w	a0,a0
    800021c4:	4589                	li	a1,2
    800021c6:	02b50c63          	beq	a0,a1,800021fe <gmul_+0x96>
    800021ca:	0040006f          	j	800021ce <gmul_+0x66>
    800021ce:	fb843503          	ld	a0,-72(s0)
    800021d2:	2501                	sext.w	a0,a0
    800021d4:	458d                	li	a1,3
    800021d6:	02b50c63          	beq	a0,a1,8000220e <gmul_+0xa6>
    800021da:	0440006f          	j	8000221e <gmul_+0xb6>
    800021de:	01010537          	lui	a0,0x1010
    800021e2:	3025051b          	addiw	a0,a0,770 # 1010302 <buflen.1+0x10102c2>
    800021e6:	fca42823          	sw	a0,-48(s0)
    800021ea:	0340006f          	j	8000221e <gmul_+0xb6>
    800021ee:	01030537          	lui	a0,0x1030
    800021f2:	2015051b          	addiw	a0,a0,513 # 1030201 <buflen.1+0x10301c1>
    800021f6:	fca42823          	sw	a0,-48(s0)
    800021fa:	0240006f          	j	8000221e <gmul_+0xb6>
    800021fe:	03020537          	lui	a0,0x3020
    80002202:	1015051b          	addiw	a0,a0,257 # 3020101 <buflen.1+0x30200c1>
    80002206:	fca42823          	sw	a0,-48(s0)
    8000220a:	0140006f          	j	8000221e <gmul_+0xb6>
    8000220e:	02010537          	lui	a0,0x2010
    80002212:	1035051b          	addiw	a0,a0,259 # 2010103 <buflen.1+0x20100c3>
    80002216:	fca42823          	sw	a0,-48(s0)
    8000221a:	0040006f          	j	8000221e <gmul_+0xb6>
    8000221e:	4501                	li	a0,0
    80002220:	fca42623          	sw	a0,-52(s0)
    80002224:	0040006f          	j	80002228 <gmul_+0xc0>
    80002228:	fcc42583          	lw	a1,-52(s0)
    8000222c:	450d                	li	a0,3
    8000222e:	0eb54063          	blt	a0,a1,8000230e <gmul_+0x1a6>
    80002232:	0040006f          	j	80002236 <gmul_+0xce>
    80002236:	fec42503          	lw	a0,-20(s0)
    8000223a:	fcc42583          	lw	a1,-52(s0)
    8000223e:	0035959b          	slliw	a1,a1,0x3
    80002242:	00b5553b          	srlw	a0,a0,a1
    80002246:	fca405a3          	sb	a0,-53(s0)
    8000224a:	fd042503          	lw	a0,-48(s0)
    8000224e:	fcc42583          	lw	a1,-52(s0)
    80002252:	0035959b          	slliw	a1,a1,0x3
    80002256:	00b5553b          	srlw	a0,a0,a1
    8000225a:	fca40523          	sb	a0,-54(s0)
    8000225e:	4501                	li	a0,0
    80002260:	fca404a3          	sb	a0,-55(s0)
    80002264:	fca42223          	sw	a0,-60(s0)
    80002268:	0040006f          	j	8000226c <gmul_+0x104>
    8000226c:	fc442583          	lw	a1,-60(s0)
    80002270:	451d                	li	a0,7
    80002272:	06b54e63          	blt	a0,a1,800022ee <gmul_+0x186>
    80002276:	0040006f          	j	8000227a <gmul_+0x112>
    8000227a:	fca44503          	lbu	a0,-54(s0)
    8000227e:	8905                	andi	a0,a0,1
    80002280:	4581                	li	a1,0
    80002282:	00b50d63          	beq	a0,a1,8000229c <gmul_+0x134>
    80002286:	0040006f          	j	8000228a <gmul_+0x122>
    8000228a:	fcb40583          	lb	a1,-53(s0)
    8000228e:	fc940503          	lb	a0,-55(s0)
    80002292:	8d2d                	xor	a0,a0,a1
    80002294:	fca404a3          	sb	a0,-55(s0)
    80002298:	0040006f          	j	8000229c <gmul_+0x134>
    8000229c:	fcb44503          	lbu	a0,-53(s0)
    800022a0:	08057513          	andi	a0,a0,128
    800022a4:	fca40423          	sb	a0,-56(s0)
    800022a8:	fcb40503          	lb	a0,-53(s0)
    800022ac:	0015151b          	slliw	a0,a0,0x1
    800022b0:	fca405a3          	sb	a0,-53(s0)
    800022b4:	fc844503          	lbu	a0,-56(s0)
    800022b8:	4581                	li	a1,0
    800022ba:	00b50c63          	beq	a0,a1,800022d2 <gmul_+0x16a>
    800022be:	0040006f          	j	800022c2 <gmul_+0x15a>
    800022c2:	fcb40503          	lb	a0,-53(s0)
    800022c6:	01b54513          	xori	a0,a0,27
    800022ca:	fca405a3          	sb	a0,-53(s0)
    800022ce:	0040006f          	j	800022d2 <gmul_+0x16a>
    800022d2:	fca44503          	lbu	a0,-54(s0)
    800022d6:	8105                	srli	a0,a0,0x1
    800022d8:	fca40523          	sb	a0,-54(s0)
    800022dc:	0040006f          	j	800022e0 <gmul_+0x178>
    800022e0:	fc442503          	lw	a0,-60(s0)
    800022e4:	2505                	addiw	a0,a0,1
    800022e6:	fca42223          	sw	a0,-60(s0)
    800022ea:	f83ff06f          	j	8000226c <gmul_+0x104>
    800022ee:	fc940583          	lb	a1,-55(s0)
    800022f2:	fd740503          	lb	a0,-41(s0)
    800022f6:	8d2d                	xor	a0,a0,a1
    800022f8:	fca40ba3          	sb	a0,-41(s0)
    800022fc:	0040006f          	j	80002300 <gmul_+0x198>
    80002300:	fcc42503          	lw	a0,-52(s0)
    80002304:	2505                	addiw	a0,a0,1
    80002306:	fca42623          	sw	a0,-52(s0)
    8000230a:	f1fff06f          	j	80002228 <gmul_+0xc0>
    8000230e:	fd744503          	lbu	a0,-41(s0)
    80002312:	fd842583          	lw	a1,-40(s0)
    80002316:	0035959b          	slliw	a1,a1,0x3
    8000231a:	00b515bb          	sllw	a1,a0,a1
    8000231e:	fdc42503          	lw	a0,-36(s0)
    80002322:	8d4d                	or	a0,a0,a1
    80002324:	fca42e23          	sw	a0,-36(s0)
    80002328:	0040006f          	j	8000232c <gmul_+0x1c4>
    8000232c:	fd842503          	lw	a0,-40(s0)
    80002330:	2505                	addiw	a0,a0,1
    80002332:	fca42c23          	sw	a0,-40(s0)
    80002336:	e51ff06f          	j	80002186 <gmul_+0x1e>
    8000233a:	fdc42503          	lw	a0,-36(s0)
    8000233e:	fe043583          	ld	a1,-32(s0)
    80002342:	c188                	sw	a0,0(a1)
    80002344:	60a6                	ld	ra,72(sp)
    80002346:	6406                	ld	s0,64(sp)
    80002348:	6161                	addi	sp,sp,80
    8000234a:	8082                	ret

000000008000234c <Impl_gmul>:
    8000234c:	711d                	addi	sp,sp,-96
    8000234e:	ec86                	sd	ra,88(sp)
    80002350:	e8a2                	sd	s0,80(sp)
    80002352:	1080                	addi	s0,sp,96
    80002354:	fea43423          	sd	a0,-24(s0)
    80002358:	feb43023          	sd	a1,-32(s0)
    8000235c:	fe843503          	ld	a0,-24(s0)
    80002360:	6108                	ld	a0,0(a0)
    80002362:	fca43c23          	sd	a0,-40(s0)
    80002366:	fe843503          	ld	a0,-24(s0)
    8000236a:	6508                	ld	a0,8(a0)
    8000236c:	fca43823          	sd	a0,-48(s0)
    80002370:	fdc46503          	lwu	a0,-36(s0)
    80002374:	fca42223          	sw	a0,-60(s0)
    80002378:	fd043503          	ld	a0,-48(s0)
    8000237c:	fca42423          	sw	a0,-56(s0)
    80002380:	fd446503          	lwu	a0,-44(s0)
    80002384:	fca42623          	sw	a0,-52(s0)
    80002388:	4501                	li	a0,0
    8000238a:	fca42023          	sw	a0,-64(s0)
    8000238e:	faa43c23          	sd	a0,-72(s0)
    80002392:	faa42a23          	sw	a0,-76(s0)
    80002396:	0040006f          	j	8000239a <Impl_gmul+0x4e>
    8000239a:	fb442583          	lw	a1,-76(s0)
    8000239e:	4509                	li	a0,2
    800023a0:	02b54a63          	blt	a0,a1,800023d4 <Impl_gmul+0x88>
    800023a4:	0040006f          	j	800023a8 <Impl_gmul+0x5c>
    800023a8:	fb442503          	lw	a0,-76(s0)
    800023ac:	00251613          	slli	a2,a0,0x2
    800023b0:	fc440513          	addi	a0,s0,-60
    800023b4:	9532                	add	a0,a0,a2
    800023b6:	4108                	lw	a0,0(a0)
    800023b8:	fb840593          	addi	a1,s0,-72
    800023bc:	95b2                	add	a1,a1,a2
    800023be:	dabff0ef          	jal	80002168 <gmul_>
    800023c2:	0040006f          	j	800023c6 <Impl_gmul+0x7a>
    800023c6:	fb442503          	lw	a0,-76(s0)
    800023ca:	2505                	addiw	a0,a0,1
    800023cc:	faa42a23          	sw	a0,-76(s0)
    800023d0:	fcbff06f          	j	8000239a <Impl_gmul+0x4e>
    800023d4:	fd846503          	lwu	a0,-40(s0)
    800023d8:	fb842583          	lw	a1,-72(s0)
    800023dc:	1582                	slli	a1,a1,0x20
    800023de:	8d4d                	or	a0,a0,a1
    800023e0:	faa43423          	sd	a0,-88(s0)
    800023e4:	fbc46503          	lwu	a0,-68(s0)
    800023e8:	fc042583          	lw	a1,-64(s0)
    800023ec:	1582                	slli	a1,a1,0x20
    800023ee:	8d4d                	or	a0,a0,a1
    800023f0:	faa43023          	sd	a0,-96(s0)
    800023f4:	fa843503          	ld	a0,-88(s0)
    800023f8:	fe043583          	ld	a1,-32(s0)
    800023fc:	e188                	sd	a0,0(a1)
    800023fe:	fa043503          	ld	a0,-96(s0)
    80002402:	fe043583          	ld	a1,-32(s0)
    80002406:	e588                	sd	a0,8(a1)
    80002408:	60e6                	ld	ra,88(sp)
    8000240a:	6446                	ld	s0,80(sp)
    8000240c:	6125                	addi	sp,sp,96
    8000240e:	8082                	ret

0000000080002410 <Impl_ShiftRows>:
    80002410:	7119                	addi	sp,sp,-128
    80002412:	fc86                	sd	ra,120(sp)
    80002414:	f8a2                	sd	s0,112(sp)
    80002416:	0100                	addi	s0,sp,128
    80002418:	fea43423          	sd	a0,-24(s0)
    8000241c:	feb43023          	sd	a1,-32(s0)
    80002420:	fe843503          	ld	a0,-24(s0)
    80002424:	6108                	ld	a0,0(a0)
    80002426:	fca42e23          	sw	a0,-36(s0)
    8000242a:	fe843503          	ld	a0,-24(s0)
    8000242e:	00456503          	lwu	a0,4(a0)
    80002432:	fca42c23          	sw	a0,-40(s0)
    80002436:	fe843503          	ld	a0,-24(s0)
    8000243a:	6508                	ld	a0,8(a0)
    8000243c:	fca42a23          	sw	a0,-44(s0)
    80002440:	fe843503          	ld	a0,-24(s0)
    80002444:	00c56503          	lwu	a0,12(a0)
    80002448:	fca42823          	sw	a0,-48(s0)
    8000244c:	4501                	li	a0,0
    8000244e:	f8a43423          	sd	a0,-120(s0)
    80002452:	fca42623          	sw	a0,-52(s0)
    80002456:	fca42423          	sw	a0,-56(s0)
    8000245a:	fca42223          	sw	a0,-60(s0)
    8000245e:	fca42023          	sw	a0,-64(s0)
    80002462:	faa42e23          	sw	a0,-68(s0)
    80002466:	faa42c23          	sw	a0,-72(s0)
    8000246a:	fdc42503          	lw	a0,-36(s0)
    8000246e:	faa42a23          	sw	a0,-76(s0)
    80002472:	fd842503          	lw	a0,-40(s0)
    80002476:	faa42823          	sw	a0,-80(s0)
    8000247a:	fd442503          	lw	a0,-44(s0)
    8000247e:	faa42623          	sw	a0,-84(s0)
    80002482:	fd042503          	lw	a0,-48(s0)
    80002486:	faa42423          	sw	a0,-88(s0)
    8000248a:	fb444583          	lbu	a1,-76(s0)
    8000248e:	fcc42503          	lw	a0,-52(s0)
    80002492:	8d4d                	or	a0,a0,a1
    80002494:	fca42623          	sw	a0,-52(s0)
    80002498:	fb044503          	lbu	a0,-80(s0)
    8000249c:	00851593          	slli	a1,a0,0x8
    800024a0:	fcc42503          	lw	a0,-52(s0)
    800024a4:	8d4d                	or	a0,a0,a1
    800024a6:	fca42623          	sw	a0,-52(s0)
    800024aa:	fac44503          	lbu	a0,-84(s0)
    800024ae:	01051593          	slli	a1,a0,0x10
    800024b2:	fcc42503          	lw	a0,-52(s0)
    800024b6:	8d4d                	or	a0,a0,a1
    800024b8:	fca42623          	sw	a0,-52(s0)
    800024bc:	fa842503          	lw	a0,-88(s0)
    800024c0:	01851593          	slli	a1,a0,0x18
    800024c4:	fcc42503          	lw	a0,-52(s0)
    800024c8:	8d4d                	or	a0,a0,a1
    800024ca:	fca42623          	sw	a0,-52(s0)
    800024ce:	fcc42503          	lw	a0,-52(s0)
    800024d2:	fc840593          	addi	a1,s0,-56
    800024d6:	f8b43823          	sd	a1,-112(s0)
    800024da:	c8fff0ef          	jal	80002168 <gmul_>
    800024de:	f8843503          	ld	a0,-120(s0)
    800024e2:	f9043583          	ld	a1,-112(s0)
    800024e6:	fc844683          	lbu	a3,-56(s0)
    800024ea:	fc442603          	lw	a2,-60(s0)
    800024ee:	8e55                	or	a2,a2,a3
    800024f0:	fcc42223          	sw	a2,-60(s0)
    800024f4:	fc944683          	lbu	a3,-55(s0)
    800024f8:	fc042603          	lw	a2,-64(s0)
    800024fc:	8e55                	or	a2,a2,a3
    800024fe:	fcc42023          	sw	a2,-64(s0)
    80002502:	fca44683          	lbu	a3,-54(s0)
    80002506:	fbc42603          	lw	a2,-68(s0)
    8000250a:	8e55                	or	a2,a2,a3
    8000250c:	fac42e23          	sw	a2,-68(s0)
    80002510:	fcb44683          	lbu	a3,-53(s0)
    80002514:	fb842603          	lw	a2,-72(s0)
    80002518:	8e55                	or	a2,a2,a3
    8000251a:	fac42c23          	sw	a2,-72(s0)
    8000251e:	fca42623          	sw	a0,-52(s0)
    80002522:	fca42423          	sw	a0,-56(s0)
    80002526:	fb544603          	lbu	a2,-75(s0)
    8000252a:	fcc42503          	lw	a0,-52(s0)
    8000252e:	8d51                	or	a0,a0,a2
    80002530:	fca42623          	sw	a0,-52(s0)
    80002534:	fb144503          	lbu	a0,-79(s0)
    80002538:	00851613          	slli	a2,a0,0x8
    8000253c:	fcc42503          	lw	a0,-52(s0)
    80002540:	8d51                	or	a0,a0,a2
    80002542:	fca42623          	sw	a0,-52(s0)
    80002546:	fac42503          	lw	a0,-84(s0)
    8000254a:	0522                	slli	a0,a0,0x8
    8000254c:	00ff0637          	lui	a2,0xff0
    80002550:	f8c43023          	sd	a2,-128(s0)
    80002554:	8e69                	and	a2,a2,a0
    80002556:	fcc42503          	lw	a0,-52(s0)
    8000255a:	8d51                	or	a0,a0,a2
    8000255c:	fca42623          	sw	a0,-52(s0)
    80002560:	fa842503          	lw	a0,-88(s0)
    80002564:	8121                	srli	a0,a0,0x8
    80002566:	01851613          	slli	a2,a0,0x18
    8000256a:	fcc42503          	lw	a0,-52(s0)
    8000256e:	8d51                	or	a0,a0,a2
    80002570:	fca42623          	sw	a0,-52(s0)
    80002574:	fcc42503          	lw	a0,-52(s0)
    80002578:	bf1ff0ef          	jal	80002168 <gmul_>
    8000257c:	f8843503          	ld	a0,-120(s0)
    80002580:	f9043583          	ld	a1,-112(s0)
    80002584:	fc844603          	lbu	a2,-56(s0)
    80002588:	00861693          	slli	a3,a2,0x8
    8000258c:	fc442603          	lw	a2,-60(s0)
    80002590:	8e55                	or	a2,a2,a3
    80002592:	fcc42223          	sw	a2,-60(s0)
    80002596:	fc944603          	lbu	a2,-55(s0)
    8000259a:	00861693          	slli	a3,a2,0x8
    8000259e:	fc042603          	lw	a2,-64(s0)
    800025a2:	8e55                	or	a2,a2,a3
    800025a4:	fcc42023          	sw	a2,-64(s0)
    800025a8:	fc842603          	lw	a2,-56(s0)
    800025ac:	00865693          	srli	a3,a2,0x8
    800025b0:	6641                	lui	a2,0x10
    800025b2:	f006061b          	addiw	a2,a2,-256 # ff00 <buflen.1+0xfec0>
    800025b6:	00c6f733          	and	a4,a3,a2
    800025ba:	fbc42683          	lw	a3,-68(s0)
    800025be:	8ed9                	or	a3,a3,a4
    800025c0:	fad42e23          	sw	a3,-68(s0)
    800025c4:	fcb44683          	lbu	a3,-53(s0)
    800025c8:	00869713          	slli	a4,a3,0x8
    800025cc:	fb842683          	lw	a3,-72(s0)
    800025d0:	8ed9                	or	a3,a3,a4
    800025d2:	fad42c23          	sw	a3,-72(s0)
    800025d6:	fca42623          	sw	a0,-52(s0)
    800025da:	fca42423          	sw	a0,-56(s0)
    800025de:	fb644683          	lbu	a3,-74(s0)
    800025e2:	fcc42503          	lw	a0,-52(s0)
    800025e6:	8d55                	or	a0,a0,a3
    800025e8:	fca42623          	sw	a0,-52(s0)
    800025ec:	fb042503          	lw	a0,-80(s0)
    800025f0:	8121                	srli	a0,a0,0x8
    800025f2:	8e69                	and	a2,a2,a0
    800025f4:	fcc42503          	lw	a0,-52(s0)
    800025f8:	8d51                	or	a0,a0,a2
    800025fa:	fca42623          	sw	a0,-52(s0)
    800025fe:	fae44503          	lbu	a0,-82(s0)
    80002602:	01051613          	slli	a2,a0,0x10
    80002606:	fcc42503          	lw	a0,-52(s0)
    8000260a:	8d51                	or	a0,a0,a2
    8000260c:	fca42623          	sw	a0,-52(s0)
    80002610:	fa842503          	lw	a0,-88(s0)
    80002614:	8141                	srli	a0,a0,0x10
    80002616:	01851613          	slli	a2,a0,0x18
    8000261a:	fcc42503          	lw	a0,-52(s0)
    8000261e:	8d51                	or	a0,a0,a2
    80002620:	fca42623          	sw	a0,-52(s0)
    80002624:	fcc42503          	lw	a0,-52(s0)
    80002628:	b41ff0ef          	jal	80002168 <gmul_>
    8000262c:	f8043683          	ld	a3,-128(s0)
    80002630:	f8843503          	ld	a0,-120(s0)
    80002634:	f9043583          	ld	a1,-112(s0)
    80002638:	fc844603          	lbu	a2,-56(s0)
    8000263c:	01061713          	slli	a4,a2,0x10
    80002640:	fc442603          	lw	a2,-60(s0)
    80002644:	8e59                	or	a2,a2,a4
    80002646:	fcc42223          	sw	a2,-60(s0)
    8000264a:	fc842603          	lw	a2,-56(s0)
    8000264e:	0622                	slli	a2,a2,0x8
    80002650:	8ef1                	and	a3,a3,a2
    80002652:	fc042603          	lw	a2,-64(s0)
    80002656:	8e55                	or	a2,a2,a3
    80002658:	fcc42023          	sw	a2,-64(s0)
    8000265c:	fca44603          	lbu	a2,-54(s0)
    80002660:	01061693          	slli	a3,a2,0x10
    80002664:	fbc42603          	lw	a2,-68(s0)
    80002668:	8e55                	or	a2,a2,a3
    8000266a:	fac42e23          	sw	a2,-68(s0)
    8000266e:	fc842603          	lw	a2,-56(s0)
    80002672:	0186561b          	srliw	a2,a2,0x18
    80002676:	01061693          	slli	a3,a2,0x10
    8000267a:	fb842603          	lw	a2,-72(s0)
    8000267e:	8e55                	or	a2,a2,a3
    80002680:	fac42c23          	sw	a2,-72(s0)
    80002684:	fca42623          	sw	a0,-52(s0)
    80002688:	fca42423          	sw	a0,-56(s0)
    8000268c:	fb744603          	lbu	a2,-73(s0)
    80002690:	fcc42503          	lw	a0,-52(s0)
    80002694:	8d51                	or	a0,a0,a2
    80002696:	fca42623          	sw	a0,-52(s0)
    8000269a:	fb344503          	lbu	a0,-77(s0)
    8000269e:	00851613          	slli	a2,a0,0x8
    800026a2:	fcc42503          	lw	a0,-52(s0)
    800026a6:	8d51                	or	a0,a0,a2
    800026a8:	fca42623          	sw	a0,-52(s0)
    800026ac:	fac42503          	lw	a0,-84(s0)
    800026b0:	0185551b          	srliw	a0,a0,0x18
    800026b4:	01051613          	slli	a2,a0,0x10
    800026b8:	fcc42503          	lw	a0,-52(s0)
    800026bc:	8d51                	or	a0,a0,a2
    800026be:	fca42623          	sw	a0,-52(s0)
    800026c2:	fab44503          	lbu	a0,-85(s0)
    800026c6:	01851613          	slli	a2,a0,0x18
    800026ca:	fcc42503          	lw	a0,-52(s0)
    800026ce:	8d51                	or	a0,a0,a2
    800026d0:	fca42623          	sw	a0,-52(s0)
    800026d4:	fcc42503          	lw	a0,-52(s0)
    800026d8:	a91ff0ef          	jal	80002168 <gmul_>
    800026dc:	fc842503          	lw	a0,-56(s0)
    800026e0:	01851593          	slli	a1,a0,0x18
    800026e4:	fc442503          	lw	a0,-60(s0)
    800026e8:	8d4d                	or	a0,a0,a1
    800026ea:	fca42223          	sw	a0,-60(s0)
    800026ee:	fc842503          	lw	a0,-56(s0)
    800026f2:	8121                	srli	a0,a0,0x8
    800026f4:	01851593          	slli	a1,a0,0x18
    800026f8:	fc042503          	lw	a0,-64(s0)
    800026fc:	8d4d                	or	a0,a0,a1
    800026fe:	fca42023          	sw	a0,-64(s0)
    80002702:	fc842503          	lw	a0,-56(s0)
    80002706:	8141                	srli	a0,a0,0x10
    80002708:	01851593          	slli	a1,a0,0x18
    8000270c:	fbc42503          	lw	a0,-68(s0)
    80002710:	8d4d                	or	a0,a0,a1
    80002712:	faa42e23          	sw	a0,-68(s0)
    80002716:	fcb44503          	lbu	a0,-53(s0)
    8000271a:	01851593          	slli	a1,a0,0x18
    8000271e:	fb842503          	lw	a0,-72(s0)
    80002722:	8d4d                	or	a0,a0,a1
    80002724:	faa42c23          	sw	a0,-72(s0)
    80002728:	fc446503          	lwu	a0,-60(s0)
    8000272c:	fc042583          	lw	a1,-64(s0)
    80002730:	1582                	slli	a1,a1,0x20
    80002732:	8d4d                	or	a0,a0,a1
    80002734:	faa43023          	sd	a0,-96(s0)
    80002738:	fbc46503          	lwu	a0,-68(s0)
    8000273c:	fb842583          	lw	a1,-72(s0)
    80002740:	1582                	slli	a1,a1,0x20
    80002742:	8d4d                	or	a0,a0,a1
    80002744:	f8a43c23          	sd	a0,-104(s0)
    80002748:	fa043503          	ld	a0,-96(s0)
    8000274c:	fe043583          	ld	a1,-32(s0)
    80002750:	e188                	sd	a0,0(a1)
    80002752:	f9843503          	ld	a0,-104(s0)
    80002756:	fe043583          	ld	a1,-32(s0)
    8000275a:	e588                	sd	a0,8(a1)
    8000275c:	70e6                	ld	ra,120(sp)
    8000275e:	7446                	ld	s0,112(sp)
    80002760:	6109                	addi	sp,sp,128
    80002762:	8082                	ret

0000000080002764 <OP_ShiftRows>:
    80002764:	715d                	addi	sp,sp,-80
    80002766:	e486                	sd	ra,72(sp)
    80002768:	e0a2                	sd	s0,64(sp)
    8000276a:	0880                	addi	s0,sp,80
    8000276c:	fab43c23          	sd	a1,-72(s0)
    80002770:	85aa                	mv	a1,a0
    80002772:	fb843503          	ld	a0,-72(s0)
    80002776:	feb43423          	sd	a1,-24(s0)
    8000277a:	fea43023          	sd	a0,-32(s0)
    8000277e:	fcc43c23          	sd	a2,-40(s0)
    80002782:	fcd43823          	sd	a3,-48(s0)
    80002786:	fe043503          	ld	a0,-32(s0)
    8000278a:	fca43023          	sd	a0,-64(s0)
    8000278e:	fd843503          	ld	a0,-40(s0)
    80002792:	fca43423          	sd	a0,-56(s0)
    80002796:	fc040513          	addi	a0,s0,-64
    8000279a:	c77ff0ef          	jal	80002410 <Impl_ShiftRows>
    8000279e:	60a6                	ld	ra,72(sp)
    800027a0:	6406                	ld	s0,64(sp)
    800027a2:	6161                	addi	sp,sp,80
    800027a4:	8082                	ret

00000000800027a6 <OP_gmul>:
    800027a6:	715d                	addi	sp,sp,-80
    800027a8:	e486                	sd	ra,72(sp)
    800027aa:	e0a2                	sd	s0,64(sp)
    800027ac:	0880                	addi	s0,sp,80
    800027ae:	fab43c23          	sd	a1,-72(s0)
    800027b2:	85aa                	mv	a1,a0
    800027b4:	fb843503          	ld	a0,-72(s0)
    800027b8:	feb43423          	sd	a1,-24(s0)
    800027bc:	fea43023          	sd	a0,-32(s0)
    800027c0:	fcc43c23          	sd	a2,-40(s0)
    800027c4:	fcd43823          	sd	a3,-48(s0)
    800027c8:	fe043503          	ld	a0,-32(s0)
    800027cc:	fca43023          	sd	a0,-64(s0)
    800027d0:	fd843503          	ld	a0,-40(s0)
    800027d4:	fca43423          	sd	a0,-56(s0)
    800027d8:	fc040513          	addi	a0,s0,-64
    800027dc:	b71ff0ef          	jal	8000234c <Impl_gmul>
    800027e0:	60a6                	ld	ra,72(sp)
    800027e2:	6406                	ld	s0,64(sp)
    800027e4:	6161                	addi	sp,sp,80
    800027e6:	8082                	ret

00000000800027e8 <OP_SBOX>:
    800027e8:	715d                	addi	sp,sp,-80
    800027ea:	e486                	sd	ra,72(sp)
    800027ec:	e0a2                	sd	s0,64(sp)
    800027ee:	0880                	addi	s0,sp,80
    800027f0:	fab43c23          	sd	a1,-72(s0)
    800027f4:	85aa                	mv	a1,a0
    800027f6:	fb843503          	ld	a0,-72(s0)
    800027fa:	feb43423          	sd	a1,-24(s0)
    800027fe:	fea43023          	sd	a0,-32(s0)
    80002802:	fcc43c23          	sd	a2,-40(s0)
    80002806:	fcd43823          	sd	a3,-48(s0)
    8000280a:	fe043503          	ld	a0,-32(s0)
    8000280e:	fca43023          	sd	a0,-64(s0)
    80002812:	fd843503          	ld	a0,-40(s0)
    80002816:	fca43423          	sd	a0,-56(s0)
    8000281a:	fc040513          	addi	a0,s0,-64
    8000281e:	841ff0ef          	jal	8000205e <Impl_SBOX>
    80002822:	60a6                	ld	ra,72(sp)
    80002824:	6406                	ld	s0,64(sp)
    80002826:	6161                	addi	sp,sp,80
    80002828:	8082                	ret

000000008000282a <KeyExpansion>:
    8000282a:	7179                	addi	sp,sp,-48
    8000282c:	f406                	sd	ra,40(sp)
    8000282e:	f022                	sd	s0,32(sp)
    80002830:	1800                	addi	s0,sp,48
    80002832:	fea43423          	sd	a0,-24(s0)
    80002836:	feb43023          	sd	a1,-32(s0)
    8000283a:	4501                	li	a0,0
    8000283c:	fca42e23          	sw	a0,-36(s0)
    80002840:	0040006f          	j	80002844 <KeyExpansion+0x1a>
    80002844:	fdc42583          	lw	a1,-36(s0)
    80002848:	453d                	li	a0,15
    8000284a:	02b54963          	blt	a0,a1,8000287c <KeyExpansion+0x52>
    8000284e:	0040006f          	j	80002852 <KeyExpansion+0x28>
    80002852:	fe843503          	ld	a0,-24(s0)
    80002856:	fdc42603          	lw	a2,-36(s0)
    8000285a:	9532                	add	a0,a0,a2
    8000285c:	00050503          	lb	a0,0(a0)
    80002860:	fe043583          	ld	a1,-32(s0)
    80002864:	95b2                	add	a1,a1,a2
    80002866:	00a58023          	sb	a0,0(a1)
    8000286a:	0040006f          	j	8000286e <KeyExpansion+0x44>
    8000286e:	fdc42503          	lw	a0,-36(s0)
    80002872:	2505                	addiw	a0,a0,1
    80002874:	fca42e23          	sw	a0,-36(s0)
    80002878:	fcdff06f          	j	80002844 <KeyExpansion+0x1a>
    8000287c:	0040006f          	j	80002880 <KeyExpansion+0x56>
    80002880:	fdc42583          	lw	a1,-36(s0)
    80002884:	0af00513          	li	a0,175
    80002888:	16b54563          	blt	a0,a1,800029f2 <KeyExpansion+0x1c8>
    8000288c:	0040006f          	j	80002890 <KeyExpansion+0x66>
    80002890:	4501                	li	a0,0
    80002892:	fca42c23          	sw	a0,-40(s0)
    80002896:	0040006f          	j	8000289a <KeyExpansion+0x70>
    8000289a:	fd842583          	lw	a1,-40(s0)
    8000289e:	450d                	li	a0,3
    800028a0:	02b54d63          	blt	a0,a1,800028da <KeyExpansion+0xb0>
    800028a4:	0040006f          	j	800028a8 <KeyExpansion+0x7e>
    800028a8:	fe043503          	ld	a0,-32(s0)
    800028ac:	fdc42583          	lw	a1,-36(s0)
    800028b0:	fd842603          	lw	a2,-40(s0)
    800028b4:	9db1                	addw	a1,a1,a2
    800028b6:	35f1                	addiw	a1,a1,-4
    800028b8:	952e                	add	a0,a0,a1
    800028ba:	00050503          	lb	a0,0(a0)
    800028be:	fd440593          	addi	a1,s0,-44
    800028c2:	95b2                	add	a1,a1,a2
    800028c4:	00a58023          	sb	a0,0(a1)
    800028c8:	0040006f          	j	800028cc <KeyExpansion+0xa2>
    800028cc:	fd842503          	lw	a0,-40(s0)
    800028d0:	2505                	addiw	a0,a0,1
    800028d2:	fca42c23          	sw	a0,-40(s0)
    800028d6:	fc5ff06f          	j	8000289a <KeyExpansion+0x70>
    800028da:	fdc42503          	lw	a0,-36(s0)
    800028de:	00151593          	slli	a1,a0,0x1
    800028e2:	91f1                	srli	a1,a1,0x3c
    800028e4:	95aa                	add	a1,a1,a0
    800028e6:	99c1                	andi	a1,a1,-16
    800028e8:	9d0d                	subw	a0,a0,a1
    800028ea:	4581                	li	a1,0
    800028ec:	0ab51363          	bne	a0,a1,80002992 <KeyExpansion+0x168>
    800028f0:	0040006f          	j	800028f4 <KeyExpansion+0xca>
    800028f4:	fd440503          	lb	a0,-44(s0)
    800028f8:	fca409a3          	sb	a0,-45(s0)
    800028fc:	fd540503          	lb	a0,-43(s0)
    80002900:	fca40a23          	sb	a0,-44(s0)
    80002904:	fd640503          	lb	a0,-42(s0)
    80002908:	fca40aa3          	sb	a0,-43(s0)
    8000290c:	fd740503          	lb	a0,-41(s0)
    80002910:	fca40b23          	sb	a0,-42(s0)
    80002914:	fd340503          	lb	a0,-45(s0)
    80002918:	fca40ba3          	sb	a0,-41(s0)
    8000291c:	4501                	li	a0,0
    8000291e:	fca42c23          	sw	a0,-40(s0)
    80002922:	0040006f          	j	80002926 <KeyExpansion+0xfc>
    80002926:	fd842583          	lw	a1,-40(s0)
    8000292a:	450d                	li	a0,3
    8000292c:	02b54d63          	blt	a0,a1,80002966 <KeyExpansion+0x13c>
    80002930:	0040006f          	j	80002934 <KeyExpansion+0x10a>
    80002934:	fd842583          	lw	a1,-40(s0)
    80002938:	fd440513          	addi	a0,s0,-44
    8000293c:	95aa                	add	a1,a1,a0
    8000293e:	0005c603          	lbu	a2,0(a1)
    80002942:	00002517          	auipc	a0,0x2
    80002946:	9df50513          	addi	a0,a0,-1569 # 80004321 <sbox>
    8000294a:	9532                	add	a0,a0,a2
    8000294c:	00050503          	lb	a0,0(a0)
    80002950:	00a58023          	sb	a0,0(a1)
    80002954:	0040006f          	j	80002958 <KeyExpansion+0x12e>
    80002958:	fd842503          	lw	a0,-40(s0)
    8000295c:	2505                	addiw	a0,a0,1
    8000295e:	fca42c23          	sw	a0,-40(s0)
    80002962:	fc5ff06f          	j	80002926 <KeyExpansion+0xfc>
    80002966:	fd440503          	lb	a0,-44(s0)
    8000296a:	fdc42583          	lw	a1,-36(s0)
    8000296e:	00159613          	slli	a2,a1,0x1
    80002972:	9271                	srli	a2,a2,0x3c
    80002974:	9db1                	addw	a1,a1,a2
    80002976:	4045d61b          	sraiw	a2,a1,0x4
    8000297a:	00002597          	auipc	a1,0x2
    8000297e:	aa758593          	addi	a1,a1,-1369 # 80004421 <Rcon>
    80002982:	95b2                	add	a1,a1,a2
    80002984:	00058583          	lb	a1,0(a1)
    80002988:	8d2d                	xor	a0,a0,a1
    8000298a:	fca40a23          	sb	a0,-44(s0)
    8000298e:	0040006f          	j	80002992 <KeyExpansion+0x168>
    80002992:	4501                	li	a0,0
    80002994:	fca42c23          	sw	a0,-40(s0)
    80002998:	0040006f          	j	8000299c <KeyExpansion+0x172>
    8000299c:	fd842583          	lw	a1,-40(s0)
    800029a0:	450d                	li	a0,3
    800029a2:	04b54663          	blt	a0,a1,800029ee <KeyExpansion+0x1c4>
    800029a6:	0040006f          	j	800029aa <KeyExpansion+0x180>
    800029aa:	fe043583          	ld	a1,-32(s0)
    800029ae:	fdc42603          	lw	a2,-36(s0)
    800029b2:	ff06051b          	addiw	a0,a2,-16
    800029b6:	952e                	add	a0,a0,a1
    800029b8:	00050503          	lb	a0,0(a0)
    800029bc:	fd842703          	lw	a4,-40(s0)
    800029c0:	fd440693          	addi	a3,s0,-44
    800029c4:	96ba                	add	a3,a3,a4
    800029c6:	00068683          	lb	a3,0(a3)
    800029ca:	8d35                	xor	a0,a0,a3
    800029cc:	95b2                	add	a1,a1,a2
    800029ce:	00a58023          	sb	a0,0(a1)
    800029d2:	fdc42503          	lw	a0,-36(s0)
    800029d6:	2505                	addiw	a0,a0,1
    800029d8:	fca42e23          	sw	a0,-36(s0)
    800029dc:	0040006f          	j	800029e0 <KeyExpansion+0x1b6>
    800029e0:	fd842503          	lw	a0,-40(s0)
    800029e4:	2505                	addiw	a0,a0,1
    800029e6:	fca42c23          	sw	a0,-40(s0)
    800029ea:	fb3ff06f          	j	8000299c <KeyExpansion+0x172>
    800029ee:	e93ff06f          	j	80002880 <KeyExpansion+0x56>
    800029f2:	70a2                	ld	ra,40(sp)
    800029f4:	7402                	ld	s0,32(sp)
    800029f6:	6145                	addi	sp,sp,48
    800029f8:	8082                	ret

00000000800029fa <AES_Encrypt>:
    800029fa:	81010113          	addi	sp,sp,-2032
    800029fe:	7e113423          	sd	ra,2024(sp)
    80002a02:	7e813023          	sd	s0,2016(sp)
    80002a06:	7f010413          	addi	s0,sp,2032
    80002a0a:	6709                	lui	a4,0x2
    80002a0c:	ec07071b          	addiw	a4,a4,-320 # 1ec0 <buflen.1+0x1e80>
    80002a10:	40e10133          	sub	sp,sp,a4
    80002a14:	fea43023          	sd	a0,-32(s0)
    80002a18:	fcb43c23          	sd	a1,-40(s0)
    80002a1c:	fcc43823          	sd	a2,-48(s0)
    80002a20:	fcd42623          	sw	a3,-52(s0)
    80002a24:	fd843503          	ld	a0,-40(s0)
    80002a28:	00002597          	auipc	a1,0x2
    80002a2c:	bd858593          	addi	a1,a1,-1064 # 80004600 <expandedKey>
    80002a30:	dfbff0ef          	jal	8000282a <KeyExpansion>
    80002a34:	4501                	li	a0,0
    80002a36:	fca42223          	sw	a0,-60(s0)
    80002a3a:	0040006f          	j	80002a3e <AES_Encrypt+0x44>
    80002a3e:	fc442503          	lw	a0,-60(s0)
    80002a42:	fcc42583          	lw	a1,-52(s0)
    80002a46:	00159613          	slli	a2,a1,0x1
    80002a4a:	9271                	srli	a2,a2,0x3c
    80002a4c:	9db1                	addw	a1,a1,a2
    80002a4e:	4045d59b          	sraiw	a1,a1,0x4
    80002a52:	0ab55b63          	bge	a0,a1,80002b08 <AES_Encrypt+0x10e>
    80002a56:	0040006f          	j	80002a5a <AES_Encrypt+0x60>
    80002a5a:	4501                	li	a0,0
    80002a5c:	fca42023          	sw	a0,-64(s0)
    80002a60:	0040006f          	j	80002a64 <AES_Encrypt+0x6a>
    80002a64:	fc042583          	lw	a1,-64(s0)
    80002a68:	450d                	li	a0,3
    80002a6a:	08b54663          	blt	a0,a1,80002af6 <AES_Encrypt+0xfc>
    80002a6e:	0040006f          	j	80002a72 <AES_Encrypt+0x78>
    80002a72:	4501                	li	a0,0
    80002a74:	faa42e23          	sw	a0,-68(s0)
    80002a78:	0040006f          	j	80002a7c <AES_Encrypt+0x82>
    80002a7c:	fbc42583          	lw	a1,-68(s0)
    80002a80:	450d                	li	a0,3
    80002a82:	06b54163          	blt	a0,a1,80002ae4 <AES_Encrypt+0xea>
    80002a86:	0040006f          	j	80002a8a <AES_Encrypt+0x90>
    80002a8a:	fe043503          	ld	a0,-32(s0)
    80002a8e:	fc042603          	lw	a2,-64(s0)
    80002a92:	0026159b          	slliw	a1,a2,0x2
    80002a96:	fbc42683          	lw	a3,-68(s0)
    80002a9a:	00d587bb          	addw	a5,a1,a3
    80002a9e:	fc442583          	lw	a1,-60(s0)
    80002aa2:	00459713          	slli	a4,a1,0x4
    80002aa6:	00e785bb          	addw	a1,a5,a4
    80002aaa:	952e                	add	a0,a0,a1
    80002aac:	00050503          	lb	a0,0(a0)
    80002ab0:	00002597          	auipc	a1,0x2
    80002ab4:	b5058593          	addi	a1,a1,-1200 # 80004600 <expandedKey>
    80002ab8:	95be                	add	a1,a1,a5
    80002aba:	00058583          	lb	a1,0(a1)
    80002abe:	8d2d                	xor	a0,a0,a1
    80002ac0:	82818593          	addi	a1,gp,-2008 # 800045e8 <pstate>
    80002ac4:	618c                	ld	a1,0(a1)
    80002ac6:	95ba                	add	a1,a1,a4
    80002ac8:	068a                	slli	a3,a3,0x2
    80002aca:	95b6                	add	a1,a1,a3
    80002acc:	95b2                	add	a1,a1,a2
    80002ace:	00a58023          	sb	a0,0(a1)
    80002ad2:	0040006f          	j	80002ad6 <AES_Encrypt+0xdc>
    80002ad6:	fbc42503          	lw	a0,-68(s0)
    80002ada:	2505                	addiw	a0,a0,1
    80002adc:	faa42e23          	sw	a0,-68(s0)
    80002ae0:	f9dff06f          	j	80002a7c <AES_Encrypt+0x82>
    80002ae4:	0040006f          	j	80002ae8 <AES_Encrypt+0xee>
    80002ae8:	fc042503          	lw	a0,-64(s0)
    80002aec:	2505                	addiw	a0,a0,1
    80002aee:	fca42023          	sw	a0,-64(s0)
    80002af2:	f73ff06f          	j	80002a64 <AES_Encrypt+0x6a>
    80002af6:	0040006f          	j	80002afa <AES_Encrypt+0x100>
    80002afa:	fc442503          	lw	a0,-60(s0)
    80002afe:	2505                	addiw	a0,a0,1
    80002b00:	fca42223          	sw	a0,-60(s0)
    80002b04:	f3bff06f          	j	80002a3e <AES_Encrypt+0x44>
    80002b08:	4505                	li	a0,1
    80002b0a:	fca42423          	sw	a0,-56(s0)
    80002b0e:	0040006f          	j	80002b12 <AES_Encrypt+0x118>
    80002b12:	fc842583          	lw	a1,-56(s0)
    80002b16:	4525                	li	a0,9
    80002b18:	4cb54363          	blt	a0,a1,80002fde <AES_Encrypt+0x5e4>
    80002b1c:	0040006f          	j	80002b20 <AES_Encrypt+0x126>
    80002b20:	4501                	li	a0,0
    80002b22:	faa42c23          	sw	a0,-72(s0)
    80002b26:	0040006f          	j	80002b2a <AES_Encrypt+0x130>
    80002b2a:	fb842503          	lw	a0,-72(s0)
    80002b2e:	fcc42583          	lw	a1,-52(s0)
    80002b32:	00159613          	slli	a2,a1,0x1
    80002b36:	9271                	srli	a2,a2,0x3c
    80002b38:	9db1                	addw	a1,a1,a2
    80002b3a:	4045d59b          	sraiw	a1,a1,0x4
    80002b3e:	0eb55663          	bge	a0,a1,80002c2a <AES_Encrypt+0x230>
    80002b42:	0040006f          	j	80002b46 <AES_Encrypt+0x14c>
    80002b46:	83018513          	addi	a0,gp,-2000 # 800045f0 <pullstate>
    80002b4a:	75f9                	lui	a1,0xffffe
    80002b4c:	9e85859b          	addiw	a1,a1,-1560 # ffffffffffffd9e8 <_tbss_end+0xffffffff7fff7924>
    80002b50:	95a2                	add	a1,a1,s0
    80002b52:	e188                	sd	a0,0(a1)
    80002b54:	6108                	ld	a0,0(a0)
    80002b56:	fb842583          	lw	a1,-72(s0)
    80002b5a:	0592                	slli	a1,a1,0x4
    80002b5c:	952e                	add	a0,a0,a1
    80002b5e:	610c                	ld	a1,0(a0)
    80002b60:	6510                	ld	a2,8(a0)
    80002b62:	c9840513          	addi	a0,s0,-872
    80002b66:	76f9                	lui	a3,0xffffe
    80002b68:	9d06869b          	addiw	a3,a3,-1584 # ffffffffffffd9d0 <_tbss_end+0xffffffff7fff790c>
    80002b6c:	96a2                	add	a3,a3,s0
    80002b6e:	e288                	sd	a0,0(a3)
    80002b70:	02400693          	li	a3,36
    80002b74:	c75ff0ef          	jal	800027e8 <OP_SBOX>
    80002b78:	7579                	lui	a0,0xffffe
    80002b7a:	9d05051b          	addiw	a0,a0,-1584 # ffffffffffffd9d0 <_tbss_end+0xffffffff7fff790c>
    80002b7e:	9522                	add	a0,a0,s0
    80002b80:	610c                	ld	a1,0(a0)
    80002b82:	97840513          	addi	a0,s0,-1672
    80002b86:	7679                	lui	a2,0xffffe
    80002b88:	9c86061b          	addiw	a2,a2,-1592 # ffffffffffffd9c8 <_tbss_end+0xffffffff7fff7904>
    80002b8c:	9622                	add	a2,a2,s0
    80002b8e:	e208                	sd	a0,0(a2)
    80002b90:	32000613          	li	a2,800
    80002b94:	76f9                	lui	a3,0xffffe
    80002b96:	9d86869b          	addiw	a3,a3,-1576 # ffffffffffffd9d8 <_tbss_end+0xffffffff7fff7914>
    80002b9a:	96a2                	add	a3,a3,s0
    80002b9c:	e290                	sd	a2,0(a3)
    80002b9e:	713000ef          	jal	80003ab0 <memcpy>
    80002ba2:	7579                	lui	a0,0xffffe
    80002ba4:	9c85051b          	addiw	a0,a0,-1592 # ffffffffffffd9c8 <_tbss_end+0xffffffff7fff7904>
    80002ba8:	9522                	add	a0,a0,s0
    80002baa:	6108                	ld	a0,0(a0)
    80002bac:	4581                	li	a1,0
    80002bae:	c92ff0ef          	jal	80002040 <PickResult>
    80002bb2:	75f9                	lui	a1,0xffffe
    80002bb4:	9d05859b          	addiw	a1,a1,-1584 # ffffffffffffd9d0 <_tbss_end+0xffffffff7fff790c>
    80002bb8:	95a2                	add	a1,a1,s0
    80002bba:	618c                	ld	a1,0(a1)
    80002bbc:	7679                	lui	a2,0xffffe
    80002bbe:	9d86061b          	addiw	a2,a2,-1576 # ffffffffffffd9d8 <_tbss_end+0xffffffff7fff7914>
    80002bc2:	9622                	add	a2,a2,s0
    80002bc4:	6210                	ld	a2,0(a2)
    80002bc6:	76f9                	lui	a3,0xffffe
    80002bc8:	9e86869b          	addiw	a3,a3,-1560 # ffffffffffffd9e8 <_tbss_end+0xffffffff7fff7924>
    80002bcc:	96a2                	add	a3,a3,s0
    80002bce:	6294                	ld	a3,0(a3)
    80002bd0:	6294                	ld	a3,0(a3)
    80002bd2:	fb842703          	lw	a4,-72(s0)
    80002bd6:	0712                	slli	a4,a4,0x4
    80002bd8:	96ba                	add	a3,a3,a4
    80002bda:	e288                	sd	a0,0(a3)
    80002bdc:	757d                	lui	a0,0xfffff
    80002bde:	6585051b          	addiw	a0,a0,1624 # fffffffffffff658 <_tbss_end+0xffffffff7fff9594>
    80002be2:	9522                	add	a0,a0,s0
    80002be4:	76f9                	lui	a3,0xffffe
    80002be6:	9e06869b          	addiw	a3,a3,-1568 # ffffffffffffd9e0 <_tbss_end+0xffffffff7fff791c>
    80002bea:	96a2                	add	a3,a3,s0
    80002bec:	e288                	sd	a0,0(a3)
    80002bee:	6c3000ef          	jal	80003ab0 <memcpy>
    80002bf2:	7579                	lui	a0,0xffffe
    80002bf4:	9e05051b          	addiw	a0,a0,-1568 # ffffffffffffd9e0 <_tbss_end+0xffffffff7fff791c>
    80002bf8:	9522                	add	a0,a0,s0
    80002bfa:	6108                	ld	a0,0(a0)
    80002bfc:	4585                	li	a1,1
    80002bfe:	c42ff0ef          	jal	80002040 <PickResult>
    80002c02:	75f9                	lui	a1,0xffffe
    80002c04:	9e85859b          	addiw	a1,a1,-1560 # ffffffffffffd9e8 <_tbss_end+0xffffffff7fff7924>
    80002c08:	95a2                	add	a1,a1,s0
    80002c0a:	618c                	ld	a1,0(a1)
    80002c0c:	618c                	ld	a1,0(a1)
    80002c0e:	fb842603          	lw	a2,-72(s0)
    80002c12:	0612                	slli	a2,a2,0x4
    80002c14:	95b2                	add	a1,a1,a2
    80002c16:	e588                	sd	a0,8(a1)
    80002c18:	0040006f          	j	80002c1c <AES_Encrypt+0x222>
    80002c1c:	fb842503          	lw	a0,-72(s0)
    80002c20:	2505                	addiw	a0,a0,1
    80002c22:	faa42c23          	sw	a0,-72(s0)
    80002c26:	f05ff06f          	j	80002b2a <AES_Encrypt+0x130>
    80002c2a:	4501                	li	a0,0
    80002c2c:	75fd                	lui	a1,0xfffff
    80002c2e:	6545859b          	addiw	a1,a1,1620 # fffffffffffff654 <_tbss_end+0xffffffff7fff9590>
    80002c32:	95a2                	add	a1,a1,s0
    80002c34:	c188                	sw	a0,0(a1)
    80002c36:	0040006f          	j	80002c3a <AES_Encrypt+0x240>
    80002c3a:	757d                	lui	a0,0xfffff
    80002c3c:	6545051b          	addiw	a0,a0,1620 # fffffffffffff654 <_tbss_end+0xffffffff7fff9590>
    80002c40:	9522                	add	a0,a0,s0
    80002c42:	4108                	lw	a0,0(a0)
    80002c44:	fcc42583          	lw	a1,-52(s0)
    80002c48:	00159613          	slli	a2,a1,0x1
    80002c4c:	9271                	srli	a2,a2,0x3c
    80002c4e:	9db1                	addw	a1,a1,a2
    80002c50:	4045d59b          	sraiw	a1,a1,0x4
    80002c54:	10b55863          	bge	a0,a1,80002d64 <AES_Encrypt+0x36a>
    80002c58:	0040006f          	j	80002c5c <AES_Encrypt+0x262>
    80002c5c:	83018513          	addi	a0,gp,-2000 # 800045f0 <pullstate>
    80002c60:	75f9                	lui	a1,0xffffe
    80002c62:	9c05859b          	addiw	a1,a1,-1600 # ffffffffffffd9c0 <_tbss_end+0xffffffff7fff78fc>
    80002c66:	95a2                	add	a1,a1,s0
    80002c68:	e188                	sd	a0,0(a1)
    80002c6a:	6108                	ld	a0,0(a0)
    80002c6c:	75fd                	lui	a1,0xfffff
    80002c6e:	6545859b          	addiw	a1,a1,1620 # fffffffffffff654 <_tbss_end+0xffffffff7fff9590>
    80002c72:	95a2                	add	a1,a1,s0
    80002c74:	418c                	lw	a1,0(a1)
    80002c76:	0592                	slli	a1,a1,0x4
    80002c78:	952e                	add	a0,a0,a1
    80002c7a:	610c                	ld	a1,0(a0)
    80002c7c:	6510                	ld	a2,8(a0)
    80002c7e:	757d                	lui	a0,0xfffff
    80002c80:	3305051b          	addiw	a0,a0,816 # fffffffffffff330 <_tbss_end+0xffffffff7fff926c>
    80002c84:	9522                	add	a0,a0,s0
    80002c86:	76f9                	lui	a3,0xffffe
    80002c88:	9a86869b          	addiw	a3,a3,-1624 # ffffffffffffd9a8 <_tbss_end+0xffffffff7fff78e4>
    80002c8c:	96a2                	add	a3,a3,s0
    80002c8e:	e288                	sd	a0,0(a3)
    80002c90:	09200693          	li	a3,146
    80002c94:	b13ff0ef          	jal	800027a6 <OP_gmul>
    80002c98:	7579                	lui	a0,0xffffe
    80002c9a:	9a85051b          	addiw	a0,a0,-1624 # ffffffffffffd9a8 <_tbss_end+0xffffffff7fff78e4>
    80002c9e:	9522                	add	a0,a0,s0
    80002ca0:	610c                	ld	a1,0(a0)
    80002ca2:	757d                	lui	a0,0xfffff
    80002ca4:	2541                	addiw	a0,a0,16 # fffffffffffff010 <_tbss_end+0xffffffff7fff8f4c>
    80002ca6:	9522                	add	a0,a0,s0
    80002ca8:	7679                	lui	a2,0xffffe
    80002caa:	9a06061b          	addiw	a2,a2,-1632 # ffffffffffffd9a0 <_tbss_end+0xffffffff7fff78dc>
    80002cae:	9622                	add	a2,a2,s0
    80002cb0:	e208                	sd	a0,0(a2)
    80002cb2:	32000613          	li	a2,800
    80002cb6:	76f9                	lui	a3,0xffffe
    80002cb8:	9b06869b          	addiw	a3,a3,-1616 # ffffffffffffd9b0 <_tbss_end+0xffffffff7fff78ec>
    80002cbc:	96a2                	add	a3,a3,s0
    80002cbe:	e290                	sd	a2,0(a3)
    80002cc0:	5f1000ef          	jal	80003ab0 <memcpy>
    80002cc4:	7579                	lui	a0,0xffffe
    80002cc6:	9a05051b          	addiw	a0,a0,-1632 # ffffffffffffd9a0 <_tbss_end+0xffffffff7fff78dc>
    80002cca:	9522                	add	a0,a0,s0
    80002ccc:	6108                	ld	a0,0(a0)
    80002cce:	4581                	li	a1,0
    80002cd0:	b70ff0ef          	jal	80002040 <PickResult>
    80002cd4:	75f9                	lui	a1,0xffffe
    80002cd6:	9a85859b          	addiw	a1,a1,-1624 # ffffffffffffd9a8 <_tbss_end+0xffffffff7fff78e4>
    80002cda:	95a2                	add	a1,a1,s0
    80002cdc:	618c                	ld	a1,0(a1)
    80002cde:	7679                	lui	a2,0xffffe
    80002ce0:	9b06061b          	addiw	a2,a2,-1616 # ffffffffffffd9b0 <_tbss_end+0xffffffff7fff78ec>
    80002ce4:	9622                	add	a2,a2,s0
    80002ce6:	6210                	ld	a2,0(a2)
    80002ce8:	76f9                	lui	a3,0xffffe
    80002cea:	9c06869b          	addiw	a3,a3,-1600 # ffffffffffffd9c0 <_tbss_end+0xffffffff7fff78fc>
    80002cee:	96a2                	add	a3,a3,s0
    80002cf0:	6294                	ld	a3,0(a3)
    80002cf2:	6294                	ld	a3,0(a3)
    80002cf4:	777d                	lui	a4,0xfffff
    80002cf6:	6547071b          	addiw	a4,a4,1620 # fffffffffffff654 <_tbss_end+0xffffffff7fff9590>
    80002cfa:	9722                	add	a4,a4,s0
    80002cfc:	4318                	lw	a4,0(a4)
    80002cfe:	0712                	slli	a4,a4,0x4
    80002d00:	96ba                	add	a3,a3,a4
    80002d02:	e288                	sd	a0,0(a3)
    80002d04:	757d                	lui	a0,0xfffff
    80002d06:	cf05051b          	addiw	a0,a0,-784 # ffffffffffffecf0 <_tbss_end+0xffffffff7fff8c2c>
    80002d0a:	9522                	add	a0,a0,s0
    80002d0c:	76f9                	lui	a3,0xffffe
    80002d0e:	9b86869b          	addiw	a3,a3,-1608 # ffffffffffffd9b8 <_tbss_end+0xffffffff7fff78f4>
    80002d12:	96a2                	add	a3,a3,s0
    80002d14:	e288                	sd	a0,0(a3)
    80002d16:	59b000ef          	jal	80003ab0 <memcpy>
    80002d1a:	7579                	lui	a0,0xffffe
    80002d1c:	9b85051b          	addiw	a0,a0,-1608 # ffffffffffffd9b8 <_tbss_end+0xffffffff7fff78f4>
    80002d20:	9522                	add	a0,a0,s0
    80002d22:	6108                	ld	a0,0(a0)
    80002d24:	4585                	li	a1,1
    80002d26:	b1aff0ef          	jal	80002040 <PickResult>
    80002d2a:	75f9                	lui	a1,0xffffe
    80002d2c:	9c05859b          	addiw	a1,a1,-1600 # ffffffffffffd9c0 <_tbss_end+0xffffffff7fff78fc>
    80002d30:	95a2                	add	a1,a1,s0
    80002d32:	618c                	ld	a1,0(a1)
    80002d34:	618c                	ld	a1,0(a1)
    80002d36:	767d                	lui	a2,0xfffff
    80002d38:	6546061b          	addiw	a2,a2,1620 # fffffffffffff654 <_tbss_end+0xffffffff7fff9590>
    80002d3c:	9622                	add	a2,a2,s0
    80002d3e:	4210                	lw	a2,0(a2)
    80002d40:	0612                	slli	a2,a2,0x4
    80002d42:	95b2                	add	a1,a1,a2
    80002d44:	e588                	sd	a0,8(a1)
    80002d46:	0040006f          	j	80002d4a <AES_Encrypt+0x350>
    80002d4a:	757d                	lui	a0,0xfffff
    80002d4c:	6545051b          	addiw	a0,a0,1620 # fffffffffffff654 <_tbss_end+0xffffffff7fff9590>
    80002d50:	9522                	add	a0,a0,s0
    80002d52:	4108                	lw	a0,0(a0)
    80002d54:	2505                	addiw	a0,a0,1
    80002d56:	75fd                	lui	a1,0xfffff
    80002d58:	6545859b          	addiw	a1,a1,1620 # fffffffffffff654 <_tbss_end+0xffffffff7fff9590>
    80002d5c:	95a2                	add	a1,a1,s0
    80002d5e:	c188                	sw	a0,0(a1)
    80002d60:	edbff06f          	j	80002c3a <AES_Encrypt+0x240>
    80002d64:	4501                	li	a0,0
    80002d66:	75fd                	lui	a1,0xfffff
    80002d68:	cec5859b          	addiw	a1,a1,-788 # ffffffffffffecec <_tbss_end+0xffffffff7fff8c28>
    80002d6c:	95a2                	add	a1,a1,s0
    80002d6e:	c188                	sw	a0,0(a1)
    80002d70:	0040006f          	j	80002d74 <AES_Encrypt+0x37a>
    80002d74:	757d                	lui	a0,0xfffff
    80002d76:	cec5051b          	addiw	a0,a0,-788 # ffffffffffffecec <_tbss_end+0xffffffff7fff8c28>
    80002d7a:	9522                	add	a0,a0,s0
    80002d7c:	4108                	lw	a0,0(a0)
    80002d7e:	fcc42583          	lw	a1,-52(s0)
    80002d82:	00159613          	slli	a2,a1,0x1
    80002d86:	9271                	srli	a2,a2,0x3c
    80002d88:	9db1                	addw	a1,a1,a2
    80002d8a:	4045d59b          	sraiw	a1,a1,0x4
    80002d8e:	10b55963          	bge	a0,a1,80002ea0 <AES_Encrypt+0x4a6>
    80002d92:	0040006f          	j	80002d96 <AES_Encrypt+0x39c>
    80002d96:	83018513          	addi	a0,gp,-2000 # 800045f0 <pullstate>
    80002d9a:	75f9                	lui	a1,0xffffe
    80002d9c:	9985859b          	addiw	a1,a1,-1640 # ffffffffffffd998 <_tbss_end+0xffffffff7fff78d4>
    80002da0:	95a2                	add	a1,a1,s0
    80002da2:	e188                	sd	a0,0(a1)
    80002da4:	6108                	ld	a0,0(a0)
    80002da6:	75fd                	lui	a1,0xfffff
    80002da8:	cec5859b          	addiw	a1,a1,-788 # ffffffffffffecec <_tbss_end+0xffffffff7fff8c28>
    80002dac:	95a2                	add	a1,a1,s0
    80002dae:	418c                	lw	a1,0(a1)
    80002db0:	0592                	slli	a1,a1,0x4
    80002db2:	952e                	add	a0,a0,a1
    80002db4:	610c                	ld	a1,0(a0)
    80002db6:	6510                	ld	a2,8(a0)
    80002db8:	757d                	lui	a0,0xfffff
    80002dba:	9c85051b          	addiw	a0,a0,-1592 # ffffffffffffe9c8 <_tbss_end+0xffffffff7fff8904>
    80002dbe:	9522                	add	a0,a0,s0
    80002dc0:	76f9                	lui	a3,0xffffe
    80002dc2:	9806869b          	addiw	a3,a3,-1664 # ffffffffffffd980 <_tbss_end+0xffffffff7fff78bc>
    80002dc6:	96a2                	add	a3,a3,s0
    80002dc8:	e288                	sd	a0,0(a3)
    80002dca:	04900693          	li	a3,73
    80002dce:	997ff0ef          	jal	80002764 <OP_ShiftRows>
    80002dd2:	7579                	lui	a0,0xffffe
    80002dd4:	9805051b          	addiw	a0,a0,-1664 # ffffffffffffd980 <_tbss_end+0xffffffff7fff78bc>
    80002dd8:	9522                	add	a0,a0,s0
    80002dda:	610c                	ld	a1,0(a0)
    80002ddc:	7579                	lui	a0,0xffffe
    80002dde:	6a85051b          	addiw	a0,a0,1704 # ffffffffffffe6a8 <_tbss_end+0xffffffff7fff85e4>
    80002de2:	9522                	add	a0,a0,s0
    80002de4:	7679                	lui	a2,0xffffe
    80002de6:	9786061b          	addiw	a2,a2,-1672 # ffffffffffffd978 <_tbss_end+0xffffffff7fff78b4>
    80002dea:	9622                	add	a2,a2,s0
    80002dec:	e208                	sd	a0,0(a2)
    80002dee:	32000613          	li	a2,800
    80002df2:	76f9                	lui	a3,0xffffe
    80002df4:	9886869b          	addiw	a3,a3,-1656 # ffffffffffffd988 <_tbss_end+0xffffffff7fff78c4>
    80002df8:	96a2                	add	a3,a3,s0
    80002dfa:	e290                	sd	a2,0(a3)
    80002dfc:	4b5000ef          	jal	80003ab0 <memcpy>
    80002e00:	7579                	lui	a0,0xffffe
    80002e02:	9785051b          	addiw	a0,a0,-1672 # ffffffffffffd978 <_tbss_end+0xffffffff7fff78b4>
    80002e06:	9522                	add	a0,a0,s0
    80002e08:	6108                	ld	a0,0(a0)
    80002e0a:	4581                	li	a1,0
    80002e0c:	a34ff0ef          	jal	80002040 <PickResult>
    80002e10:	75f9                	lui	a1,0xffffe
    80002e12:	9805859b          	addiw	a1,a1,-1664 # ffffffffffffd980 <_tbss_end+0xffffffff7fff78bc>
    80002e16:	95a2                	add	a1,a1,s0
    80002e18:	618c                	ld	a1,0(a1)
    80002e1a:	7679                	lui	a2,0xffffe
    80002e1c:	9886061b          	addiw	a2,a2,-1656 # ffffffffffffd988 <_tbss_end+0xffffffff7fff78c4>
    80002e20:	9622                	add	a2,a2,s0
    80002e22:	6210                	ld	a2,0(a2)
    80002e24:	76f9                	lui	a3,0xffffe
    80002e26:	9986869b          	addiw	a3,a3,-1640 # ffffffffffffd998 <_tbss_end+0xffffffff7fff78d4>
    80002e2a:	96a2                	add	a3,a3,s0
    80002e2c:	6294                	ld	a3,0(a3)
    80002e2e:	6294                	ld	a3,0(a3)
    80002e30:	777d                	lui	a4,0xfffff
    80002e32:	cec7071b          	addiw	a4,a4,-788 # ffffffffffffecec <_tbss_end+0xffffffff7fff8c28>
    80002e36:	9722                	add	a4,a4,s0
    80002e38:	4318                	lw	a4,0(a4)
    80002e3a:	0712                	slli	a4,a4,0x4
    80002e3c:	96ba                	add	a3,a3,a4
    80002e3e:	e288                	sd	a0,0(a3)
    80002e40:	7579                	lui	a0,0xffffe
    80002e42:	3885051b          	addiw	a0,a0,904 # ffffffffffffe388 <_tbss_end+0xffffffff7fff82c4>
    80002e46:	9522                	add	a0,a0,s0
    80002e48:	76f9                	lui	a3,0xffffe
    80002e4a:	9906869b          	addiw	a3,a3,-1648 # ffffffffffffd990 <_tbss_end+0xffffffff7fff78cc>
    80002e4e:	96a2                	add	a3,a3,s0
    80002e50:	e288                	sd	a0,0(a3)
    80002e52:	45f000ef          	jal	80003ab0 <memcpy>
    80002e56:	7579                	lui	a0,0xffffe
    80002e58:	9905051b          	addiw	a0,a0,-1648 # ffffffffffffd990 <_tbss_end+0xffffffff7fff78cc>
    80002e5c:	9522                	add	a0,a0,s0
    80002e5e:	6108                	ld	a0,0(a0)
    80002e60:	4585                	li	a1,1
    80002e62:	9deff0ef          	jal	80002040 <PickResult>
    80002e66:	75f9                	lui	a1,0xffffe
    80002e68:	9985859b          	addiw	a1,a1,-1640 # ffffffffffffd998 <_tbss_end+0xffffffff7fff78d4>
    80002e6c:	95a2                	add	a1,a1,s0
    80002e6e:	618c                	ld	a1,0(a1)
    80002e70:	618c                	ld	a1,0(a1)
    80002e72:	767d                	lui	a2,0xfffff
    80002e74:	cec6061b          	addiw	a2,a2,-788 # ffffffffffffecec <_tbss_end+0xffffffff7fff8c28>
    80002e78:	9622                	add	a2,a2,s0
    80002e7a:	4210                	lw	a2,0(a2)
    80002e7c:	0612                	slli	a2,a2,0x4
    80002e7e:	95b2                	add	a1,a1,a2
    80002e80:	e588                	sd	a0,8(a1)
    80002e82:	0040006f          	j	80002e86 <AES_Encrypt+0x48c>
    80002e86:	757d                	lui	a0,0xfffff
    80002e88:	cec5051b          	addiw	a0,a0,-788 # ffffffffffffecec <_tbss_end+0xffffffff7fff8c28>
    80002e8c:	9522                	add	a0,a0,s0
    80002e8e:	4108                	lw	a0,0(a0)
    80002e90:	2505                	addiw	a0,a0,1
    80002e92:	75fd                	lui	a1,0xfffff
    80002e94:	cec5859b          	addiw	a1,a1,-788 # ffffffffffffecec <_tbss_end+0xffffffff7fff8c28>
    80002e98:	95a2                	add	a1,a1,s0
    80002e9a:	c188                	sw	a0,0(a1)
    80002e9c:	ed9ff06f          	j	80002d74 <AES_Encrypt+0x37a>
    80002ea0:	4501                	li	a0,0
    80002ea2:	75f9                	lui	a1,0xffffe
    80002ea4:	3845859b          	addiw	a1,a1,900 # ffffffffffffe384 <_tbss_end+0xffffffff7fff82c0>
    80002ea8:	95a2                	add	a1,a1,s0
    80002eaa:	c188                	sw	a0,0(a1)
    80002eac:	0040006f          	j	80002eb0 <AES_Encrypt+0x4b6>
    80002eb0:	7579                	lui	a0,0xffffe
    80002eb2:	3845051b          	addiw	a0,a0,900 # ffffffffffffe384 <_tbss_end+0xffffffff7fff82c0>
    80002eb6:	9522                	add	a0,a0,s0
    80002eb8:	4108                	lw	a0,0(a0)
    80002eba:	fcc42583          	lw	a1,-52(s0)
    80002ebe:	00159613          	slli	a2,a1,0x1
    80002ec2:	9271                	srli	a2,a2,0x3c
    80002ec4:	9db1                	addw	a1,a1,a2
    80002ec6:	4045d59b          	sraiw	a1,a1,0x4
    80002eca:	10b55163          	bge	a0,a1,80002fcc <AES_Encrypt+0x5d2>
    80002ece:	0040006f          	j	80002ed2 <AES_Encrypt+0x4d8>
    80002ed2:	4501                	li	a0,0
    80002ed4:	75f9                	lui	a1,0xffffe
    80002ed6:	3805859b          	addiw	a1,a1,896 # ffffffffffffe380 <_tbss_end+0xffffffff7fff82bc>
    80002eda:	95a2                	add	a1,a1,s0
    80002edc:	c188                	sw	a0,0(a1)
    80002ede:	0040006f          	j	80002ee2 <AES_Encrypt+0x4e8>
    80002ee2:	7579                	lui	a0,0xffffe
    80002ee4:	3805051b          	addiw	a0,a0,896 # ffffffffffffe380 <_tbss_end+0xffffffff7fff82bc>
    80002ee8:	9522                	add	a0,a0,s0
    80002eea:	410c                	lw	a1,0(a0)
    80002eec:	450d                	li	a0,3
    80002eee:	0cb54063          	blt	a0,a1,80002fae <AES_Encrypt+0x5b4>
    80002ef2:	0040006f          	j	80002ef6 <AES_Encrypt+0x4fc>
    80002ef6:	4501                	li	a0,0
    80002ef8:	75f9                	lui	a1,0xffffe
    80002efa:	37c5859b          	addiw	a1,a1,892 # ffffffffffffe37c <_tbss_end+0xffffffff7fff82b8>
    80002efe:	95a2                	add	a1,a1,s0
    80002f00:	c188                	sw	a0,0(a1)
    80002f02:	0040006f          	j	80002f06 <AES_Encrypt+0x50c>
    80002f06:	7579                	lui	a0,0xffffe
    80002f08:	37c5051b          	addiw	a0,a0,892 # ffffffffffffe37c <_tbss_end+0xffffffff7fff82b8>
    80002f0c:	9522                	add	a0,a0,s0
    80002f0e:	410c                	lw	a1,0(a0)
    80002f10:	450d                	li	a0,3
    80002f12:	06b54f63          	blt	a0,a1,80002f90 <AES_Encrypt+0x596>
    80002f16:	0040006f          	j	80002f1a <AES_Encrypt+0x520>
    80002f1a:	fc842503          	lw	a0,-56(s0)
    80002f1e:	0025151b          	slliw	a0,a0,0x2
    80002f22:	00251593          	slli	a1,a0,0x2
    80002f26:	00001517          	auipc	a0,0x1
    80002f2a:	6da50513          	addi	a0,a0,1754 # 80004600 <expandedKey>
    80002f2e:	952e                	add	a0,a0,a1
    80002f30:	75f9                	lui	a1,0xffffe
    80002f32:	3805859b          	addiw	a1,a1,896 # ffffffffffffe380 <_tbss_end+0xffffffff7fff82bc>
    80002f36:	95a2                	add	a1,a1,s0
    80002f38:	418c                	lw	a1,0(a1)
    80002f3a:	00259693          	slli	a3,a1,0x2
    80002f3e:	9536                	add	a0,a0,a3
    80002f40:	75f9                	lui	a1,0xffffe
    80002f42:	37c5859b          	addiw	a1,a1,892 # ffffffffffffe37c <_tbss_end+0xffffffff7fff82b8>
    80002f46:	95a2                	add	a1,a1,s0
    80002f48:	418c                	lw	a1,0(a1)
    80002f4a:	952e                	add	a0,a0,a1
    80002f4c:	00050603          	lb	a2,0(a0)
    80002f50:	82818513          	addi	a0,gp,-2008 # 800045e8 <pstate>
    80002f54:	6108                	ld	a0,0(a0)
    80002f56:	7779                	lui	a4,0xffffe
    80002f58:	3847071b          	addiw	a4,a4,900 # ffffffffffffe384 <_tbss_end+0xffffffff7fff82c0>
    80002f5c:	9722                	add	a4,a4,s0
    80002f5e:	4318                	lw	a4,0(a4)
    80002f60:	0712                	slli	a4,a4,0x4
    80002f62:	953a                	add	a0,a0,a4
    80002f64:	9536                	add	a0,a0,a3
    80002f66:	95aa                	add	a1,a1,a0
    80002f68:	00058503          	lb	a0,0(a1)
    80002f6c:	8d31                	xor	a0,a0,a2
    80002f6e:	00a58023          	sb	a0,0(a1)
    80002f72:	0040006f          	j	80002f76 <AES_Encrypt+0x57c>
    80002f76:	7579                	lui	a0,0xffffe
    80002f78:	37c5051b          	addiw	a0,a0,892 # ffffffffffffe37c <_tbss_end+0xffffffff7fff82b8>
    80002f7c:	9522                	add	a0,a0,s0
    80002f7e:	4108                	lw	a0,0(a0)
    80002f80:	2505                	addiw	a0,a0,1
    80002f82:	75f9                	lui	a1,0xffffe
    80002f84:	37c5859b          	addiw	a1,a1,892 # ffffffffffffe37c <_tbss_end+0xffffffff7fff82b8>
    80002f88:	95a2                	add	a1,a1,s0
    80002f8a:	c188                	sw	a0,0(a1)
    80002f8c:	f7bff06f          	j	80002f06 <AES_Encrypt+0x50c>
    80002f90:	0040006f          	j	80002f94 <AES_Encrypt+0x59a>
    80002f94:	7579                	lui	a0,0xffffe
    80002f96:	3805051b          	addiw	a0,a0,896 # ffffffffffffe380 <_tbss_end+0xffffffff7fff82bc>
    80002f9a:	9522                	add	a0,a0,s0
    80002f9c:	4108                	lw	a0,0(a0)
    80002f9e:	2505                	addiw	a0,a0,1
    80002fa0:	75f9                	lui	a1,0xffffe
    80002fa2:	3805859b          	addiw	a1,a1,896 # ffffffffffffe380 <_tbss_end+0xffffffff7fff82bc>
    80002fa6:	95a2                	add	a1,a1,s0
    80002fa8:	c188                	sw	a0,0(a1)
    80002faa:	f39ff06f          	j	80002ee2 <AES_Encrypt+0x4e8>
    80002fae:	0040006f          	j	80002fb2 <AES_Encrypt+0x5b8>
    80002fb2:	7579                	lui	a0,0xffffe
    80002fb4:	3845051b          	addiw	a0,a0,900 # ffffffffffffe384 <_tbss_end+0xffffffff7fff82c0>
    80002fb8:	9522                	add	a0,a0,s0
    80002fba:	4108                	lw	a0,0(a0)
    80002fbc:	2505                	addiw	a0,a0,1
    80002fbe:	75f9                	lui	a1,0xffffe
    80002fc0:	3845859b          	addiw	a1,a1,900 # ffffffffffffe384 <_tbss_end+0xffffffff7fff82c0>
    80002fc4:	95a2                	add	a1,a1,s0
    80002fc6:	c188                	sw	a0,0(a1)
    80002fc8:	ee9ff06f          	j	80002eb0 <AES_Encrypt+0x4b6>
    80002fcc:	0040006f          	j	80002fd0 <AES_Encrypt+0x5d6>
    80002fd0:	fc842503          	lw	a0,-56(s0)
    80002fd4:	2505                	addiw	a0,a0,1
    80002fd6:	fca42423          	sw	a0,-56(s0)
    80002fda:	b39ff06f          	j	80002b12 <AES_Encrypt+0x118>
    80002fde:	4501                	li	a0,0
    80002fe0:	75f9                	lui	a1,0xffffe
    80002fe2:	3785859b          	addiw	a1,a1,888 # ffffffffffffe378 <_tbss_end+0xffffffff7fff82b4>
    80002fe6:	95a2                	add	a1,a1,s0
    80002fe8:	c188                	sw	a0,0(a1)
    80002fea:	0040006f          	j	80002fee <AES_Encrypt+0x5f4>
    80002fee:	7579                	lui	a0,0xffffe
    80002ff0:	3785051b          	addiw	a0,a0,888 # ffffffffffffe378 <_tbss_end+0xffffffff7fff82b4>
    80002ff4:	9522                	add	a0,a0,s0
    80002ff6:	4108                	lw	a0,0(a0)
    80002ff8:	fcc42583          	lw	a1,-52(s0)
    80002ffc:	00159613          	slli	a2,a1,0x1
    80003000:	9271                	srli	a2,a2,0x3c
    80003002:	9db1                	addw	a1,a1,a2
    80003004:	4045d59b          	sraiw	a1,a1,0x4
    80003008:	0eb55763          	bge	a0,a1,800030f6 <AES_Encrypt+0x6fc>
    8000300c:	0040006f          	j	80003010 <AES_Encrypt+0x616>
    80003010:	4501                	li	a0,0
    80003012:	75f9                	lui	a1,0xffffe
    80003014:	3745859b          	addiw	a1,a1,884 # ffffffffffffe374 <_tbss_end+0xffffffff7fff82b0>
    80003018:	95a2                	add	a1,a1,s0
    8000301a:	c188                	sw	a0,0(a1)
    8000301c:	0040006f          	j	80003020 <AES_Encrypt+0x626>
    80003020:	7579                	lui	a0,0xffffe
    80003022:	3745051b          	addiw	a0,a0,884 # ffffffffffffe374 <_tbss_end+0xffffffff7fff82b0>
    80003026:	9522                	add	a0,a0,s0
    80003028:	410c                	lw	a1,0(a0)
    8000302a:	450d                	li	a0,3
    8000302c:	0ab54663          	blt	a0,a1,800030d8 <AES_Encrypt+0x6de>
    80003030:	0040006f          	j	80003034 <AES_Encrypt+0x63a>
    80003034:	4501                	li	a0,0
    80003036:	75f9                	lui	a1,0xffffe
    80003038:	3705859b          	addiw	a1,a1,880 # ffffffffffffe370 <_tbss_end+0xffffffff7fff82ac>
    8000303c:	95a2                	add	a1,a1,s0
    8000303e:	c188                	sw	a0,0(a1)
    80003040:	0040006f          	j	80003044 <AES_Encrypt+0x64a>
    80003044:	7579                	lui	a0,0xffffe
    80003046:	3705051b          	addiw	a0,a0,880 # ffffffffffffe370 <_tbss_end+0xffffffff7fff82ac>
    8000304a:	9522                	add	a0,a0,s0
    8000304c:	410c                	lw	a1,0(a0)
    8000304e:	450d                	li	a0,3
    80003050:	06b54563          	blt	a0,a1,800030ba <AES_Encrypt+0x6c0>
    80003054:	0040006f          	j	80003058 <AES_Encrypt+0x65e>
    80003058:	82818513          	addi	a0,gp,-2008 # 800045e8 <pstate>
    8000305c:	6108                	ld	a0,0(a0)
    8000305e:	75f9                	lui	a1,0xffffe
    80003060:	3785859b          	addiw	a1,a1,888 # ffffffffffffe378 <_tbss_end+0xffffffff7fff82b4>
    80003064:	95a2                	add	a1,a1,s0
    80003066:	418c                	lw	a1,0(a1)
    80003068:	0592                	slli	a1,a1,0x4
    8000306a:	952e                	add	a0,a0,a1
    8000306c:	75f9                	lui	a1,0xffffe
    8000306e:	3745859b          	addiw	a1,a1,884 # ffffffffffffe374 <_tbss_end+0xffffffff7fff82b0>
    80003072:	95a2                	add	a1,a1,s0
    80003074:	418c                	lw	a1,0(a1)
    80003076:	058a                	slli	a1,a1,0x2
    80003078:	952e                	add	a0,a0,a1
    8000307a:	75f9                	lui	a1,0xffffe
    8000307c:	3705859b          	addiw	a1,a1,880 # ffffffffffffe370 <_tbss_end+0xffffffff7fff82ac>
    80003080:	95a2                	add	a1,a1,s0
    80003082:	418c                	lw	a1,0(a1)
    80003084:	95aa                	add	a1,a1,a0
    80003086:	0005c603          	lbu	a2,0(a1)
    8000308a:	00001517          	auipc	a0,0x1
    8000308e:	29750513          	addi	a0,a0,663 # 80004321 <sbox>
    80003092:	9532                	add	a0,a0,a2
    80003094:	00050503          	lb	a0,0(a0)
    80003098:	00a58023          	sb	a0,0(a1)
    8000309c:	0040006f          	j	800030a0 <AES_Encrypt+0x6a6>
    800030a0:	7579                	lui	a0,0xffffe
    800030a2:	3705051b          	addiw	a0,a0,880 # ffffffffffffe370 <_tbss_end+0xffffffff7fff82ac>
    800030a6:	9522                	add	a0,a0,s0
    800030a8:	4108                	lw	a0,0(a0)
    800030aa:	2505                	addiw	a0,a0,1
    800030ac:	75f9                	lui	a1,0xffffe
    800030ae:	3705859b          	addiw	a1,a1,880 # ffffffffffffe370 <_tbss_end+0xffffffff7fff82ac>
    800030b2:	95a2                	add	a1,a1,s0
    800030b4:	c188                	sw	a0,0(a1)
    800030b6:	f8fff06f          	j	80003044 <AES_Encrypt+0x64a>
    800030ba:	0040006f          	j	800030be <AES_Encrypt+0x6c4>
    800030be:	7579                	lui	a0,0xffffe
    800030c0:	3745051b          	addiw	a0,a0,884 # ffffffffffffe374 <_tbss_end+0xffffffff7fff82b0>
    800030c4:	9522                	add	a0,a0,s0
    800030c6:	4108                	lw	a0,0(a0)
    800030c8:	2505                	addiw	a0,a0,1
    800030ca:	75f9                	lui	a1,0xffffe
    800030cc:	3745859b          	addiw	a1,a1,884 # ffffffffffffe374 <_tbss_end+0xffffffff7fff82b0>
    800030d0:	95a2                	add	a1,a1,s0
    800030d2:	c188                	sw	a0,0(a1)
    800030d4:	f4dff06f          	j	80003020 <AES_Encrypt+0x626>
    800030d8:	0040006f          	j	800030dc <AES_Encrypt+0x6e2>
    800030dc:	7579                	lui	a0,0xffffe
    800030de:	3785051b          	addiw	a0,a0,888 # ffffffffffffe378 <_tbss_end+0xffffffff7fff82b4>
    800030e2:	9522                	add	a0,a0,s0
    800030e4:	4108                	lw	a0,0(a0)
    800030e6:	2505                	addiw	a0,a0,1
    800030e8:	75f9                	lui	a1,0xffffe
    800030ea:	3785859b          	addiw	a1,a1,888 # ffffffffffffe378 <_tbss_end+0xffffffff7fff82b4>
    800030ee:	95a2                	add	a1,a1,s0
    800030f0:	c188                	sw	a0,0(a1)
    800030f2:	efdff06f          	j	80002fee <AES_Encrypt+0x5f4>
    800030f6:	4501                	li	a0,0
    800030f8:	75f9                	lui	a1,0xffffe
    800030fa:	36c5859b          	addiw	a1,a1,876 # ffffffffffffe36c <_tbss_end+0xffffffff7fff82a8>
    800030fe:	95a2                	add	a1,a1,s0
    80003100:	c188                	sw	a0,0(a1)
    80003102:	0040006f          	j	80003106 <AES_Encrypt+0x70c>
    80003106:	7579                	lui	a0,0xffffe
    80003108:	36c5051b          	addiw	a0,a0,876 # ffffffffffffe36c <_tbss_end+0xffffffff7fff82a8>
    8000310c:	9522                	add	a0,a0,s0
    8000310e:	4108                	lw	a0,0(a0)
    80003110:	fcc42583          	lw	a1,-52(s0)
    80003114:	00159613          	slli	a2,a1,0x1
    80003118:	9271                	srli	a2,a2,0x3c
    8000311a:	9db1                	addw	a1,a1,a2
    8000311c:	4045d59b          	sraiw	a1,a1,0x4
    80003120:	10b55963          	bge	a0,a1,80003232 <AES_Encrypt+0x838>
    80003124:	0040006f          	j	80003128 <AES_Encrypt+0x72e>
    80003128:	83018513          	addi	a0,gp,-2000 # 800045f0 <pullstate>
    8000312c:	75f9                	lui	a1,0xffffe
    8000312e:	9705859b          	addiw	a1,a1,-1680 # ffffffffffffd970 <_tbss_end+0xffffffff7fff78ac>
    80003132:	95a2                	add	a1,a1,s0
    80003134:	e188                	sd	a0,0(a1)
    80003136:	6108                	ld	a0,0(a0)
    80003138:	75f9                	lui	a1,0xffffe
    8000313a:	36c5859b          	addiw	a1,a1,876 # ffffffffffffe36c <_tbss_end+0xffffffff7fff82a8>
    8000313e:	95a2                	add	a1,a1,s0
    80003140:	418c                	lw	a1,0(a1)
    80003142:	0592                	slli	a1,a1,0x4
    80003144:	952e                	add	a0,a0,a1
    80003146:	610c                	ld	a1,0(a0)
    80003148:	6510                	ld	a2,8(a0)
    8000314a:	7579                	lui	a0,0xffffe
    8000314c:	0485051b          	addiw	a0,a0,72 # ffffffffffffe048 <_tbss_end+0xffffffff7fff7f84>
    80003150:	9522                	add	a0,a0,s0
    80003152:	76f9                	lui	a3,0xffffe
    80003154:	9586869b          	addiw	a3,a3,-1704 # ffffffffffffd958 <_tbss_end+0xffffffff7fff7894>
    80003158:	96a2                	add	a3,a3,s0
    8000315a:	e288                	sd	a0,0(a3)
    8000315c:	09200693          	li	a3,146
    80003160:	e46ff0ef          	jal	800027a6 <OP_gmul>
    80003164:	7579                	lui	a0,0xffffe
    80003166:	9585051b          	addiw	a0,a0,-1704 # ffffffffffffd958 <_tbss_end+0xffffffff7fff7894>
    8000316a:	9522                	add	a0,a0,s0
    8000316c:	610c                	ld	a1,0(a0)
    8000316e:	7579                	lui	a0,0xffffe
    80003170:	d285051b          	addiw	a0,a0,-728 # ffffffffffffdd28 <_tbss_end+0xffffffff7fff7c64>
    80003174:	9522                	add	a0,a0,s0
    80003176:	7679                	lui	a2,0xffffe
    80003178:	9506061b          	addiw	a2,a2,-1712 # ffffffffffffd950 <_tbss_end+0xffffffff7fff788c>
    8000317c:	9622                	add	a2,a2,s0
    8000317e:	e208                	sd	a0,0(a2)
    80003180:	32000613          	li	a2,800
    80003184:	76f9                	lui	a3,0xffffe
    80003186:	9606869b          	addiw	a3,a3,-1696 # ffffffffffffd960 <_tbss_end+0xffffffff7fff789c>
    8000318a:	96a2                	add	a3,a3,s0
    8000318c:	e290                	sd	a2,0(a3)
    8000318e:	123000ef          	jal	80003ab0 <memcpy>
    80003192:	7579                	lui	a0,0xffffe
    80003194:	9505051b          	addiw	a0,a0,-1712 # ffffffffffffd950 <_tbss_end+0xffffffff7fff788c>
    80003198:	9522                	add	a0,a0,s0
    8000319a:	6108                	ld	a0,0(a0)
    8000319c:	4581                	li	a1,0
    8000319e:	ea3fe0ef          	jal	80002040 <PickResult>
    800031a2:	75f9                	lui	a1,0xffffe
    800031a4:	9585859b          	addiw	a1,a1,-1704 # ffffffffffffd958 <_tbss_end+0xffffffff7fff7894>
    800031a8:	95a2                	add	a1,a1,s0
    800031aa:	618c                	ld	a1,0(a1)
    800031ac:	7679                	lui	a2,0xffffe
    800031ae:	9606061b          	addiw	a2,a2,-1696 # ffffffffffffd960 <_tbss_end+0xffffffff7fff789c>
    800031b2:	9622                	add	a2,a2,s0
    800031b4:	6210                	ld	a2,0(a2)
    800031b6:	76f9                	lui	a3,0xffffe
    800031b8:	9706869b          	addiw	a3,a3,-1680 # ffffffffffffd970 <_tbss_end+0xffffffff7fff78ac>
    800031bc:	96a2                	add	a3,a3,s0
    800031be:	6294                	ld	a3,0(a3)
    800031c0:	6294                	ld	a3,0(a3)
    800031c2:	7779                	lui	a4,0xffffe
    800031c4:	36c7071b          	addiw	a4,a4,876 # ffffffffffffe36c <_tbss_end+0xffffffff7fff82a8>
    800031c8:	9722                	add	a4,a4,s0
    800031ca:	4318                	lw	a4,0(a4)
    800031cc:	0712                	slli	a4,a4,0x4
    800031ce:	96ba                	add	a3,a3,a4
    800031d0:	e288                	sd	a0,0(a3)
    800031d2:	7579                	lui	a0,0xffffe
    800031d4:	a085051b          	addiw	a0,a0,-1528 # ffffffffffffda08 <_tbss_end+0xffffffff7fff7944>
    800031d8:	9522                	add	a0,a0,s0
    800031da:	76f9                	lui	a3,0xffffe
    800031dc:	9686869b          	addiw	a3,a3,-1688 # ffffffffffffd968 <_tbss_end+0xffffffff7fff78a4>
    800031e0:	96a2                	add	a3,a3,s0
    800031e2:	e288                	sd	a0,0(a3)
    800031e4:	0cd000ef          	jal	80003ab0 <memcpy>
    800031e8:	7579                	lui	a0,0xffffe
    800031ea:	9685051b          	addiw	a0,a0,-1688 # ffffffffffffd968 <_tbss_end+0xffffffff7fff78a4>
    800031ee:	9522                	add	a0,a0,s0
    800031f0:	6108                	ld	a0,0(a0)
    800031f2:	4585                	li	a1,1
    800031f4:	e4dfe0ef          	jal	80002040 <PickResult>
    800031f8:	75f9                	lui	a1,0xffffe
    800031fa:	9705859b          	addiw	a1,a1,-1680 # ffffffffffffd970 <_tbss_end+0xffffffff7fff78ac>
    800031fe:	95a2                	add	a1,a1,s0
    80003200:	618c                	ld	a1,0(a1)
    80003202:	618c                	ld	a1,0(a1)
    80003204:	7679                	lui	a2,0xffffe
    80003206:	36c6061b          	addiw	a2,a2,876 # ffffffffffffe36c <_tbss_end+0xffffffff7fff82a8>
    8000320a:	9622                	add	a2,a2,s0
    8000320c:	4210                	lw	a2,0(a2)
    8000320e:	0612                	slli	a2,a2,0x4
    80003210:	95b2                	add	a1,a1,a2
    80003212:	e588                	sd	a0,8(a1)
    80003214:	0040006f          	j	80003218 <AES_Encrypt+0x81e>
    80003218:	7579                	lui	a0,0xffffe
    8000321a:	36c5051b          	addiw	a0,a0,876 # ffffffffffffe36c <_tbss_end+0xffffffff7fff82a8>
    8000321e:	9522                	add	a0,a0,s0
    80003220:	4108                	lw	a0,0(a0)
    80003222:	2505                	addiw	a0,a0,1
    80003224:	75f9                	lui	a1,0xffffe
    80003226:	36c5859b          	addiw	a1,a1,876 # ffffffffffffe36c <_tbss_end+0xffffffff7fff82a8>
    8000322a:	95a2                	add	a1,a1,s0
    8000322c:	c188                	sw	a0,0(a1)
    8000322e:	ed9ff06f          	j	80003106 <AES_Encrypt+0x70c>
    80003232:	4501                	li	a0,0
    80003234:	75f9                	lui	a1,0xffffe
    80003236:	a045859b          	addiw	a1,a1,-1532 # ffffffffffffda04 <_tbss_end+0xffffffff7fff7940>
    8000323a:	95a2                	add	a1,a1,s0
    8000323c:	c188                	sw	a0,0(a1)
    8000323e:	0040006f          	j	80003242 <AES_Encrypt+0x848>
    80003242:	7579                	lui	a0,0xffffe
    80003244:	a045051b          	addiw	a0,a0,-1532 # ffffffffffffda04 <_tbss_end+0xffffffff7fff7940>
    80003248:	9522                	add	a0,a0,s0
    8000324a:	4108                	lw	a0,0(a0)
    8000324c:	fcc42583          	lw	a1,-52(s0)
    80003250:	00159613          	slli	a2,a1,0x1
    80003254:	9271                	srli	a2,a2,0x3c
    80003256:	9db1                	addw	a1,a1,a2
    80003258:	4045d59b          	sraiw	a1,a1,0x4
    8000325c:	0eb55a63          	bge	a0,a1,80003350 <AES_Encrypt+0x956>
    80003260:	0040006f          	j	80003264 <AES_Encrypt+0x86a>
    80003264:	4501                	li	a0,0
    80003266:	75f9                	lui	a1,0xffffe
    80003268:	a005859b          	addiw	a1,a1,-1536 # ffffffffffffda00 <_tbss_end+0xffffffff7fff793c>
    8000326c:	95a2                	add	a1,a1,s0
    8000326e:	c188                	sw	a0,0(a1)
    80003270:	0040006f          	j	80003274 <AES_Encrypt+0x87a>
    80003274:	7579                	lui	a0,0xffffe
    80003276:	a005051b          	addiw	a0,a0,-1536 # ffffffffffffda00 <_tbss_end+0xffffffff7fff793c>
    8000327a:	9522                	add	a0,a0,s0
    8000327c:	410c                	lw	a1,0(a0)
    8000327e:	450d                	li	a0,3
    80003280:	0ab54963          	blt	a0,a1,80003332 <AES_Encrypt+0x938>
    80003284:	0040006f          	j	80003288 <AES_Encrypt+0x88e>
    80003288:	4501                	li	a0,0
    8000328a:	75f9                	lui	a1,0xffffe
    8000328c:	9fc5859b          	addiw	a1,a1,-1540 # ffffffffffffd9fc <_tbss_end+0xffffffff7fff7938>
    80003290:	95a2                	add	a1,a1,s0
    80003292:	c188                	sw	a0,0(a1)
    80003294:	0040006f          	j	80003298 <AES_Encrypt+0x89e>
    80003298:	7579                	lui	a0,0xffffe
    8000329a:	9fc5051b          	addiw	a0,a0,-1540 # ffffffffffffd9fc <_tbss_end+0xffffffff7fff7938>
    8000329e:	9522                	add	a0,a0,s0
    800032a0:	410c                	lw	a1,0(a0)
    800032a2:	450d                	li	a0,3
    800032a4:	06b54863          	blt	a0,a1,80003314 <AES_Encrypt+0x91a>
    800032a8:	0040006f          	j	800032ac <AES_Encrypt+0x8b2>
    800032ac:	7579                	lui	a0,0xffffe
    800032ae:	a005051b          	addiw	a0,a0,-1536 # ffffffffffffda00 <_tbss_end+0xffffffff7fff793c>
    800032b2:	9522                	add	a0,a0,s0
    800032b4:	4108                	lw	a0,0(a0)
    800032b6:	00251693          	slli	a3,a0,0x2
    800032ba:	00001517          	auipc	a0,0x1
    800032be:	34650513          	addi	a0,a0,838 # 80004600 <expandedKey>
    800032c2:	9536                	add	a0,a0,a3
    800032c4:	75f9                	lui	a1,0xffffe
    800032c6:	9fc5859b          	addiw	a1,a1,-1540 # ffffffffffffd9fc <_tbss_end+0xffffffff7fff7938>
    800032ca:	95a2                	add	a1,a1,s0
    800032cc:	418c                	lw	a1,0(a1)
    800032ce:	952e                	add	a0,a0,a1
    800032d0:	0a050603          	lb	a2,160(a0)
    800032d4:	82818513          	addi	a0,gp,-2008 # 800045e8 <pstate>
    800032d8:	6108                	ld	a0,0(a0)
    800032da:	7779                	lui	a4,0xffffe
    800032dc:	a047071b          	addiw	a4,a4,-1532 # ffffffffffffda04 <_tbss_end+0xffffffff7fff7940>
    800032e0:	9722                	add	a4,a4,s0
    800032e2:	4318                	lw	a4,0(a4)
    800032e4:	0712                	slli	a4,a4,0x4
    800032e6:	953a                	add	a0,a0,a4
    800032e8:	9536                	add	a0,a0,a3
    800032ea:	95aa                	add	a1,a1,a0
    800032ec:	00058503          	lb	a0,0(a1)
    800032f0:	8d31                	xor	a0,a0,a2
    800032f2:	00a58023          	sb	a0,0(a1)
    800032f6:	0040006f          	j	800032fa <AES_Encrypt+0x900>
    800032fa:	7579                	lui	a0,0xffffe
    800032fc:	9fc5051b          	addiw	a0,a0,-1540 # ffffffffffffd9fc <_tbss_end+0xffffffff7fff7938>
    80003300:	9522                	add	a0,a0,s0
    80003302:	4108                	lw	a0,0(a0)
    80003304:	2505                	addiw	a0,a0,1
    80003306:	75f9                	lui	a1,0xffffe
    80003308:	9fc5859b          	addiw	a1,a1,-1540 # ffffffffffffd9fc <_tbss_end+0xffffffff7fff7938>
    8000330c:	95a2                	add	a1,a1,s0
    8000330e:	c188                	sw	a0,0(a1)
    80003310:	f89ff06f          	j	80003298 <AES_Encrypt+0x89e>
    80003314:	0040006f          	j	80003318 <AES_Encrypt+0x91e>
    80003318:	7579                	lui	a0,0xffffe
    8000331a:	a005051b          	addiw	a0,a0,-1536 # ffffffffffffda00 <_tbss_end+0xffffffff7fff793c>
    8000331e:	9522                	add	a0,a0,s0
    80003320:	4108                	lw	a0,0(a0)
    80003322:	2505                	addiw	a0,a0,1
    80003324:	75f9                	lui	a1,0xffffe
    80003326:	a005859b          	addiw	a1,a1,-1536 # ffffffffffffda00 <_tbss_end+0xffffffff7fff793c>
    8000332a:	95a2                	add	a1,a1,s0
    8000332c:	c188                	sw	a0,0(a1)
    8000332e:	f47ff06f          	j	80003274 <AES_Encrypt+0x87a>
    80003332:	0040006f          	j	80003336 <AES_Encrypt+0x93c>
    80003336:	7579                	lui	a0,0xffffe
    80003338:	a045051b          	addiw	a0,a0,-1532 # ffffffffffffda04 <_tbss_end+0xffffffff7fff7940>
    8000333c:	9522                	add	a0,a0,s0
    8000333e:	4108                	lw	a0,0(a0)
    80003340:	2505                	addiw	a0,a0,1
    80003342:	75f9                	lui	a1,0xffffe
    80003344:	a045859b          	addiw	a1,a1,-1532 # ffffffffffffda04 <_tbss_end+0xffffffff7fff7940>
    80003348:	95a2                	add	a1,a1,s0
    8000334a:	c188                	sw	a0,0(a1)
    8000334c:	ef7ff06f          	j	80003242 <AES_Encrypt+0x848>
    80003350:	4501                	li	a0,0
    80003352:	75f9                	lui	a1,0xffffe
    80003354:	9f85859b          	addiw	a1,a1,-1544 # ffffffffffffd9f8 <_tbss_end+0xffffffff7fff7934>
    80003358:	95a2                	add	a1,a1,s0
    8000335a:	c188                	sw	a0,0(a1)
    8000335c:	0040006f          	j	80003360 <AES_Encrypt+0x966>
    80003360:	7579                	lui	a0,0xffffe
    80003362:	9f85051b          	addiw	a0,a0,-1544 # ffffffffffffd9f8 <_tbss_end+0xffffffff7fff7934>
    80003366:	9522                	add	a0,a0,s0
    80003368:	4108                	lw	a0,0(a0)
    8000336a:	fcc42583          	lw	a1,-52(s0)
    8000336e:	00159613          	slli	a2,a1,0x1
    80003372:	9271                	srli	a2,a2,0x3c
    80003374:	9db1                	addw	a1,a1,a2
    80003376:	4045d59b          	sraiw	a1,a1,0x4
    8000337a:	0eb55963          	bge	a0,a1,8000346c <AES_Encrypt+0xa72>
    8000337e:	0040006f          	j	80003382 <AES_Encrypt+0x988>
    80003382:	4501                	li	a0,0
    80003384:	75f9                	lui	a1,0xffffe
    80003386:	9f45859b          	addiw	a1,a1,-1548 # ffffffffffffd9f4 <_tbss_end+0xffffffff7fff7930>
    8000338a:	95a2                	add	a1,a1,s0
    8000338c:	c188                	sw	a0,0(a1)
    8000338e:	0040006f          	j	80003392 <AES_Encrypt+0x998>
    80003392:	7579                	lui	a0,0xffffe
    80003394:	9f45051b          	addiw	a0,a0,-1548 # ffffffffffffd9f4 <_tbss_end+0xffffffff7fff7930>
    80003398:	9522                	add	a0,a0,s0
    8000339a:	410c                	lw	a1,0(a0)
    8000339c:	450d                	li	a0,3
    8000339e:	0ab54863          	blt	a0,a1,8000344e <AES_Encrypt+0xa54>
    800033a2:	0040006f          	j	800033a6 <AES_Encrypt+0x9ac>
    800033a6:	4501                	li	a0,0
    800033a8:	75f9                	lui	a1,0xffffe
    800033aa:	9f05859b          	addiw	a1,a1,-1552 # ffffffffffffd9f0 <_tbss_end+0xffffffff7fff792c>
    800033ae:	95a2                	add	a1,a1,s0
    800033b0:	c188                	sw	a0,0(a1)
    800033b2:	0040006f          	j	800033b6 <AES_Encrypt+0x9bc>
    800033b6:	7579                	lui	a0,0xffffe
    800033b8:	9f05051b          	addiw	a0,a0,-1552 # ffffffffffffd9f0 <_tbss_end+0xffffffff7fff792c>
    800033bc:	9522                	add	a0,a0,s0
    800033be:	410c                	lw	a1,0(a0)
    800033c0:	450d                	li	a0,3
    800033c2:	06b54763          	blt	a0,a1,80003430 <AES_Encrypt+0xa36>
    800033c6:	0040006f          	j	800033ca <AES_Encrypt+0x9d0>
    800033ca:	82818513          	addi	a0,gp,-2008 # 800045e8 <pstate>
    800033ce:	6108                	ld	a0,0(a0)
    800033d0:	75f9                	lui	a1,0xffffe
    800033d2:	9f85859b          	addiw	a1,a1,-1544 # ffffffffffffd9f8 <_tbss_end+0xffffffff7fff7934>
    800033d6:	95a2                	add	a1,a1,s0
    800033d8:	418c                	lw	a1,0(a1)
    800033da:	00459613          	slli	a2,a1,0x4
    800033de:	9532                	add	a0,a0,a2
    800033e0:	75f9                	lui	a1,0xffffe
    800033e2:	9f05859b          	addiw	a1,a1,-1552 # ffffffffffffd9f0 <_tbss_end+0xffffffff7fff792c>
    800033e6:	95a2                	add	a1,a1,s0
    800033e8:	4194                	lw	a3,0(a1)
    800033ea:	00269593          	slli	a1,a3,0x2
    800033ee:	952e                	add	a0,a0,a1
    800033f0:	75f9                	lui	a1,0xffffe
    800033f2:	9f45859b          	addiw	a1,a1,-1548 # ffffffffffffd9f4 <_tbss_end+0xffffffff7fff7930>
    800033f6:	95a2                	add	a1,a1,s0
    800033f8:	4198                	lw	a4,0(a1)
    800033fa:	953a                	add	a0,a0,a4
    800033fc:	00050503          	lb	a0,0(a0)
    80003400:	fd043583          	ld	a1,-48(s0)
    80003404:	0027171b          	slliw	a4,a4,0x2
    80003408:	9e39                	addw	a2,a2,a4
    8000340a:	9e35                	addw	a2,a2,a3
    8000340c:	95b2                	add	a1,a1,a2
    8000340e:	00a58023          	sb	a0,0(a1)
    80003412:	0040006f          	j	80003416 <AES_Encrypt+0xa1c>
    80003416:	7579                	lui	a0,0xffffe
    80003418:	9f05051b          	addiw	a0,a0,-1552 # ffffffffffffd9f0 <_tbss_end+0xffffffff7fff792c>
    8000341c:	9522                	add	a0,a0,s0
    8000341e:	4108                	lw	a0,0(a0)
    80003420:	2505                	addiw	a0,a0,1
    80003422:	75f9                	lui	a1,0xffffe
    80003424:	9f05859b          	addiw	a1,a1,-1552 # ffffffffffffd9f0 <_tbss_end+0xffffffff7fff792c>
    80003428:	95a2                	add	a1,a1,s0
    8000342a:	c188                	sw	a0,0(a1)
    8000342c:	f8bff06f          	j	800033b6 <AES_Encrypt+0x9bc>
    80003430:	0040006f          	j	80003434 <AES_Encrypt+0xa3a>
    80003434:	7579                	lui	a0,0xffffe
    80003436:	9f45051b          	addiw	a0,a0,-1548 # ffffffffffffd9f4 <_tbss_end+0xffffffff7fff7930>
    8000343a:	9522                	add	a0,a0,s0
    8000343c:	4108                	lw	a0,0(a0)
    8000343e:	2505                	addiw	a0,a0,1
    80003440:	75f9                	lui	a1,0xffffe
    80003442:	9f45859b          	addiw	a1,a1,-1548 # ffffffffffffd9f4 <_tbss_end+0xffffffff7fff7930>
    80003446:	95a2                	add	a1,a1,s0
    80003448:	c188                	sw	a0,0(a1)
    8000344a:	f49ff06f          	j	80003392 <AES_Encrypt+0x998>
    8000344e:	0040006f          	j	80003452 <AES_Encrypt+0xa58>
    80003452:	7579                	lui	a0,0xffffe
    80003454:	9f85051b          	addiw	a0,a0,-1544 # ffffffffffffd9f8 <_tbss_end+0xffffffff7fff7934>
    80003458:	9522                	add	a0,a0,s0
    8000345a:	4108                	lw	a0,0(a0)
    8000345c:	2505                	addiw	a0,a0,1
    8000345e:	75f9                	lui	a1,0xffffe
    80003460:	9f85859b          	addiw	a1,a1,-1544 # ffffffffffffd9f8 <_tbss_end+0xffffffff7fff7934>
    80003464:	95a2                	add	a1,a1,s0
    80003466:	c188                	sw	a0,0(a1)
    80003468:	ef9ff06f          	j	80003360 <AES_Encrypt+0x966>
    8000346c:	6509                	lui	a0,0x2
    8000346e:	ec05051b          	addiw	a0,a0,-320 # 1ec0 <buflen.1+0x1e80>
    80003472:	912a                	add	sp,sp,a0
    80003474:	7e813083          	ld	ra,2024(sp)
    80003478:	7e013403          	ld	s0,2016(sp)
    8000347c:	7f010113          	addi	sp,sp,2032
    80003480:	8082                	ret

0000000080003482 <main>:
    80003482:	7159                	addi	sp,sp,-112
    80003484:	f486                	sd	ra,104(sp)
    80003486:	f0a2                	sd	s0,96(sp)
    80003488:	1880                	addi	s0,sp,112
    8000348a:	4501                	li	a0,0
    8000348c:	f8a43c23          	sd	a0,-104(s0)
    80003490:	fea42623          	sw	a0,-20(s0)
    80003494:	82818593          	addi	a1,gp,-2008 # 800045e8 <pstate>
    80003498:	00001517          	auipc	a0,0x1
    8000349c:	21850513          	addi	a0,a0,536 # 800046b0 <pintstate>
    800034a0:	e188                	sd	a0,0(a1)
    800034a2:	83018593          	addi	a1,gp,-2000 # 800045f0 <pullstate>
    800034a6:	e188                	sd	a0,0(a1)
    800034a8:	b0002573          	csrr	a0,mcycle
    800034ac:	fca43c23          	sd	a0,-40(s0)
    800034b0:	fd843503          	ld	a0,-40(s0)
    800034b4:	fca43823          	sd	a0,-48(s0)
    800034b8:	fd043503          	ld	a0,-48(s0)
    800034bc:	fea43023          	sd	a0,-32(s0)
    800034c0:	00001517          	auipc	a0,0x1
    800034c4:	f6c50513          	addi	a0,a0,-148 # 8000442c <plaintext>
    800034c8:	00001597          	auipc	a1,0x1
    800034cc:	0e458593          	addi	a1,a1,228 # 800045ac <key>
    800034d0:	00003617          	auipc	a2,0x3
    800034d4:	9e060613          	addi	a2,a2,-1568 # 80005eb0 <encrypted>
    800034d8:	18000693          	li	a3,384
    800034dc:	d1eff0ef          	jal	800029fa <AES_Encrypt>
    800034e0:	f9843503          	ld	a0,-104(s0)
    800034e4:	b00025f3          	csrr	a1,mcycle
    800034e8:	fcb43023          	sd	a1,-64(s0)
    800034ec:	fc043583          	ld	a1,-64(s0)
    800034f0:	fab43c23          	sd	a1,-72(s0)
    800034f4:	fb843583          	ld	a1,-72(s0)
    800034f8:	fe043603          	ld	a2,-32(s0)
    800034fc:	8d91                	sub	a1,a1,a2
    800034fe:	fcb43423          	sd	a1,-56(s0)
    80003502:	faa43823          	sd	a0,-80(s0)
    80003506:	faa42623          	sw	a0,-84(s0)
    8000350a:	0040006f          	j	8000350e <main+0x8c>
    8000350e:	fac42583          	lw	a1,-84(s0)
    80003512:	455d                	li	a0,23
    80003514:	08b54f63          	blt	a0,a1,800035b2 <main+0x130>
    80003518:	0040006f          	j	8000351c <main+0x9a>
    8000351c:	4501                	li	a0,0
    8000351e:	faa42423          	sw	a0,-88(s0)
    80003522:	0040006f          	j	80003526 <main+0xa4>
    80003526:	fa842583          	lw	a1,-88(s0)
    8000352a:	450d                	li	a0,3
    8000352c:	06b54a63          	blt	a0,a1,800035a0 <main+0x11e>
    80003530:	0040006f          	j	80003534 <main+0xb2>
    80003534:	4501                	li	a0,0
    80003536:	faa42223          	sw	a0,-92(s0)
    8000353a:	0040006f          	j	8000353e <main+0xbc>
    8000353e:	fa442583          	lw	a1,-92(s0)
    80003542:	450d                	li	a0,3
    80003544:	04b54563          	blt	a0,a1,8000358e <main+0x10c>
    80003548:	0040006f          	j	8000354c <main+0xca>
    8000354c:	fac42503          	lw	a0,-84(s0)
    80003550:	0045151b          	slliw	a0,a0,0x4
    80003554:	fa842583          	lw	a1,-88(s0)
    80003558:	0025959b          	slliw	a1,a1,0x2
    8000355c:	9d2d                	addw	a0,a0,a1
    8000355e:	fa442583          	lw	a1,-92(s0)
    80003562:	9da9                	addw	a1,a1,a0
    80003564:	00003517          	auipc	a0,0x3
    80003568:	94c50513          	addi	a0,a0,-1716 # 80005eb0 <encrypted>
    8000356c:	952e                	add	a0,a0,a1
    8000356e:	00054583          	lbu	a1,0(a0)
    80003572:	fb043503          	ld	a0,-80(s0)
    80003576:	8d2d                	xor	a0,a0,a1
    80003578:	faa43823          	sd	a0,-80(s0)
    8000357c:	0040006f          	j	80003580 <main+0xfe>
    80003580:	fa442503          	lw	a0,-92(s0)
    80003584:	2505                	addiw	a0,a0,1
    80003586:	faa42223          	sw	a0,-92(s0)
    8000358a:	fb5ff06f          	j	8000353e <main+0xbc>
    8000358e:	0040006f          	j	80003592 <main+0x110>
    80003592:	fa842503          	lw	a0,-88(s0)
    80003596:	2505                	addiw	a0,a0,1
    80003598:	faa42423          	sw	a0,-88(s0)
    8000359c:	f8bff06f          	j	80003526 <main+0xa4>
    800035a0:	0040006f          	j	800035a4 <main+0x122>
    800035a4:	fac42503          	lw	a0,-84(s0)
    800035a8:	2505                	addiw	a0,a0,1
    800035aa:	faa42623          	sw	a0,-84(s0)
    800035ae:	f61ff06f          	j	8000350e <main+0x8c>
    800035b2:	fc842503          	lw	a0,-56(s0)
    800035b6:	70a6                	ld	ra,104(sp)
    800035b8:	7406                	ld	s0,96(sp)
    800035ba:	6165                	addi	sp,sp,112
    800035bc:	8082                	ret

00000000800035be <vprintfmt>:
    800035be:	7149                	addi	sp,sp,-368
    800035c0:	f2a2                	sd	s0,352(sp)
    800035c2:	eea6                	sd	s1,344(sp)
    800035c4:	eaca                	sd	s2,336(sp)
    800035c6:	e2d2                	sd	s4,320(sp)
    800035c8:	fe56                	sd	s5,312(sp)
    800035ca:	fa5a                	sd	s6,304(sp)
    800035cc:	f65e                	sd	s7,296(sp)
    800035ce:	f686                	sd	ra,360(sp)
    800035d0:	e6ce                	sd	s3,328(sp)
    800035d2:	f262                	sd	s8,288(sp)
    800035d4:	ee66                	sd	s9,280(sp)
    800035d6:	e66e                	sd	s11,264(sp)
    800035d8:	892a                	mv	s2,a0
    800035da:	84ae                	mv	s1,a1
    800035dc:	8432                	mv	s0,a2
    800035de:	8bb6                	mv	s7,a3
    800035e0:	02500a13          	li	s4,37
    800035e4:	05500b13          	li	s6,85
    800035e8:	00001a97          	auipc	s5,0x1
    800035ec:	a94a8a93          	addi	s5,s5,-1388 # 8000407c <Nr+0x4>
    800035f0:	a029                	j	800035fa <vprintfmt+0x3c>
    800035f2:	cd1d                	beqz	a0,80003630 <vprintfmt+0x72>
    800035f4:	85a6                	mv	a1,s1
    800035f6:	0405                	addi	s0,s0,1
    800035f8:	9902                	jalr	s2
    800035fa:	00044503          	lbu	a0,0(s0)
    800035fe:	ff451ae3          	bne	a0,s4,800035f2 <vprintfmt+0x34>
    80003602:	00144683          	lbu	a3,1(s0)
    80003606:	00140993          	addi	s3,s0,1
    8000360a:	874e                	mv	a4,s3
    8000360c:	02000c93          	li	s9,32
    80003610:	5c7d                	li	s8,-1
    80003612:	5dfd                	li	s11,-1
    80003614:	4581                	li	a1,0
    80003616:	fdd6879b          	addiw	a5,a3,-35
    8000361a:	0ff7f793          	zext.b	a5,a5
    8000361e:	00170413          	addi	s0,a4,1
    80003622:	04fb6163          	bltu	s6,a5,80003664 <vprintfmt+0xa6>
    80003626:	078a                	slli	a5,a5,0x2
    80003628:	97d6                	add	a5,a5,s5
    8000362a:	439c                	lw	a5,0(a5)
    8000362c:	97d6                	add	a5,a5,s5
    8000362e:	8782                	jr	a5
    80003630:	70b6                	ld	ra,360(sp)
    80003632:	7416                	ld	s0,352(sp)
    80003634:	64f6                	ld	s1,344(sp)
    80003636:	6956                	ld	s2,336(sp)
    80003638:	69b6                	ld	s3,328(sp)
    8000363a:	6a16                	ld	s4,320(sp)
    8000363c:	7af2                	ld	s5,312(sp)
    8000363e:	7b52                	ld	s6,304(sp)
    80003640:	7bb2                	ld	s7,296(sp)
    80003642:	7c12                	ld	s8,288(sp)
    80003644:	6cf2                	ld	s9,280(sp)
    80003646:	6db2                	ld	s11,264(sp)
    80003648:	6175                	addi	sp,sp,368
    8000364a:	8082                	ret
    8000364c:	8cb6                	mv	s9,a3
    8000364e:	00174683          	lbu	a3,1(a4)
    80003652:	8722                	mv	a4,s0
    80003654:	00170413          	addi	s0,a4,1
    80003658:	fdd6879b          	addiw	a5,a3,-35
    8000365c:	0ff7f793          	zext.b	a5,a5
    80003660:	fcfb73e3          	bgeu	s6,a5,80003626 <vprintfmt+0x68>
    80003664:	85a6                	mv	a1,s1
    80003666:	02500513          	li	a0,37
    8000366a:	9902                	jalr	s2
    8000366c:	844e                	mv	s0,s3
    8000366e:	b771                	j	800035fa <vprintfmt+0x3c>
    80003670:	fd068c1b          	addiw	s8,a3,-48
    80003674:	00174683          	lbu	a3,1(a4)
    80003678:	47a5                	li	a5,9
    8000367a:	fd06871b          	addiw	a4,a3,-48
    8000367e:	0006861b          	sext.w	a2,a3
    80003682:	20e7ef63          	bltu	a5,a4,800038a0 <vprintfmt+0x2e2>
    80003686:	8722                	mv	a4,s0
    80003688:	4825                	li	a6,9
    8000368a:	00174683          	lbu	a3,1(a4)
    8000368e:	002c179b          	slliw	a5,s8,0x2
    80003692:	018787bb          	addw	a5,a5,s8
    80003696:	0017979b          	slliw	a5,a5,0x1
    8000369a:	9fb1                	addw	a5,a5,a2
    8000369c:	fd06851b          	addiw	a0,a3,-48
    800036a0:	0705                	addi	a4,a4,1
    800036a2:	fd078c1b          	addiw	s8,a5,-48
    800036a6:	0006861b          	sext.w	a2,a3
    800036aa:	fea870e3          	bgeu	a6,a0,8000368a <vprintfmt+0xcc>
    800036ae:	f60dd4e3          	bgez	s11,80003616 <vprintfmt+0x58>
    800036b2:	8de2                	mv	s11,s8
    800036b4:	5c7d                	li	s8,-1
    800036b6:	b785                	j	80003616 <vprintfmt+0x58>
    800036b8:	00174683          	lbu	a3,1(a4)
    800036bc:	8722                	mv	a4,s0
    800036be:	bfa1                	j	80003616 <vprintfmt+0x58>
    800036c0:	85a6                	mv	a1,s1
    800036c2:	02500513          	li	a0,37
    800036c6:	9902                	jalr	s2
    800036c8:	bf0d                	j	800035fa <vprintfmt+0x3c>
    800036ca:	000bac03          	lw	s8,0(s7)
    800036ce:	00174683          	lbu	a3,1(a4)
    800036d2:	0ba1                	addi	s7,s7,8
    800036d4:	8722                	mv	a4,s0
    800036d6:	bfe1                	j	800036ae <vprintfmt+0xf0>
    800036d8:	85a6                	mv	a1,s1
    800036da:	03000513          	li	a0,48
    800036de:	ea6a                	sd	s10,272(sp)
    800036e0:	9902                	jalr	s2
    800036e2:	85a6                	mv	a1,s1
    800036e4:	07800513          	li	a0,120
    800036e8:	9902                	jalr	s2
    800036ea:	4641                	li	a2,16
    800036ec:	008b8713          	addi	a4,s7,8
    800036f0:	000bb783          	ld	a5,0(s7)
    800036f4:	8bba                	mv	s7,a4
    800036f6:	02c7f5b3          	remu	a1,a5,a2
    800036fa:	000c899b          	sext.w	s3,s9
    800036fe:	0054                	addi	a3,sp,4
    80003700:	4705                	li	a4,1
    80003702:	c02e                	sw	a1,0(sp)
    80003704:	16c7ea63          	bltu	a5,a2,80003878 <vprintfmt+0x2ba>
    80003708:	02c7d7b3          	divu	a5,a5,a2
    8000370c:	0691                	addi	a3,a3,4
    8000370e:	8c3a                	mv	s8,a4
    80003710:	2705                	addiw	a4,a4,1
    80003712:	02c7f5b3          	remu	a1,a5,a2
    80003716:	feb6ae23          	sw	a1,-4(a3)
    8000371a:	fec7f7e3          	bgeu	a5,a2,80003708 <vprintfmt+0x14a>
    8000371e:	fffd8c9b          	addiw	s9,s11,-1
    80003722:	fff70d1b          	addiw	s10,a4,-1
    80003726:	01b75863          	bge	a4,s11,80003736 <vprintfmt+0x178>
    8000372a:	85a6                	mv	a1,s1
    8000372c:	854e                	mv	a0,s3
    8000372e:	3cfd                	addiw	s9,s9,-1
    80003730:	9902                	jalr	s2
    80003732:	ffac9ce3          	bne	s9,s10,8000372a <vprintfmt+0x16c>
    80003736:	0c0a                	slli	s8,s8,0x2
    80003738:	018109b3          	add	s3,sp,s8
    8000373c:	ffc10c93          	addi	s9,sp,-4
    80003740:	4c25                	li	s8,9
    80003742:	0009a783          	lw	a5,0(s3)
    80003746:	03000513          	li	a0,48
    8000374a:	00fc7463          	bgeu	s8,a5,80003752 <vprintfmt+0x194>
    8000374e:	05700513          	li	a0,87
    80003752:	85a6                	mv	a1,s1
    80003754:	9d3d                	addw	a0,a0,a5
    80003756:	19f1                	addi	s3,s3,-4
    80003758:	9902                	jalr	s2
    8000375a:	ff9994e3          	bne	s3,s9,80003742 <vprintfmt+0x184>
    8000375e:	6d52                	ld	s10,272(sp)
    80003760:	bd69                	j	800035fa <vprintfmt+0x3c>
    80003762:	ea6a                	sd	s10,272(sp)
    80003764:	4785                	li	a5,1
    80003766:	008b8c13          	addi	s8,s7,8
    8000376a:	00b7c463          	blt	a5,a1,80003772 <vprintfmt+0x1b4>
    8000376e:	10058763          	beqz	a1,8000387c <vprintfmt+0x2be>
    80003772:	000bb983          	ld	s3,0(s7)
    80003776:	1009cc63          	bltz	s3,8000388e <vprintfmt+0x2d0>
    8000377a:	87ce                	mv	a5,s3
    8000377c:	8be2                	mv	s7,s8
    8000377e:	4629                	li	a2,10
    80003780:	bf9d                	j	800036f6 <vprintfmt+0x138>
    80003782:	00174683          	lbu	a3,1(a4)
    80003786:	2585                	addiw	a1,a1,1
    80003788:	8722                	mv	a4,s0
    8000378a:	b571                	j	80003616 <vprintfmt+0x58>
    8000378c:	ea6a                	sd	s10,272(sp)
    8000378e:	4641                	li	a2,16
    80003790:	4785                	li	a5,1
    80003792:	008b8713          	addi	a4,s7,8
    80003796:	f4b7cde3          	blt	a5,a1,800036f0 <vprintfmt+0x132>
    8000379a:	f9b9                	bnez	a1,800036f0 <vprintfmt+0x132>
    8000379c:	000be783          	lwu	a5,0(s7)
    800037a0:	8bba                	mv	s7,a4
    800037a2:	bf91                	j	800036f6 <vprintfmt+0x138>
    800037a4:	ea6a                	sd	s10,272(sp)
    800037a6:	000bbd03          	ld	s10,0(s7)
    800037aa:	0ba1                	addi	s7,s7,8
    800037ac:	040d0363          	beqz	s10,800037f2 <vprintfmt+0x234>
    800037b0:	09b05e63          	blez	s11,8000384c <vprintfmt+0x28e>
    800037b4:	02d00793          	li	a5,45
    800037b8:	04fc9f63          	bne	s9,a5,80003816 <vprintfmt+0x258>
    800037bc:	000d4503          	lbu	a0,0(s10)
    800037c0:	c105                	beqz	a0,800037e0 <vprintfmt+0x222>
    800037c2:	59fd                	li	s3,-1
    800037c4:	000c4563          	bltz	s8,800037ce <vprintfmt+0x210>
    800037c8:	3c7d                	addiw	s8,s8,-1
    800037ca:	013c0963          	beq	s8,s3,800037dc <vprintfmt+0x21e>
    800037ce:	85a6                	mv	a1,s1
    800037d0:	9902                	jalr	s2
    800037d2:	001d4503          	lbu	a0,1(s10)
    800037d6:	3dfd                	addiw	s11,s11,-1
    800037d8:	0d05                	addi	s10,s10,1
    800037da:	f56d                	bnez	a0,800037c4 <vprintfmt+0x206>
    800037dc:	f9b051e3          	blez	s11,8000375e <vprintfmt+0x1a0>
    800037e0:	85a6                	mv	a1,s1
    800037e2:	02000513          	li	a0,32
    800037e6:	3dfd                	addiw	s11,s11,-1
    800037e8:	9902                	jalr	s2
    800037ea:	fe0d9be3          	bnez	s11,800037e0 <vprintfmt+0x222>
    800037ee:	6d52                	ld	s10,272(sp)
    800037f0:	b529                	j	800035fa <vprintfmt+0x3c>
    800037f2:	00001d17          	auipc	s10,0x1
    800037f6:	9e6d0d13          	addi	s10,s10,-1562 # 800041d8 <Nr+0x160>
    800037fa:	02800513          	li	a0,40
    800037fe:	fdb052e3          	blez	s11,800037c2 <vprintfmt+0x204>
    80003802:	02d00793          	li	a5,45
    80003806:	00001d17          	auipc	s10,0x1
    8000380a:	9d2d0d13          	addi	s10,s10,-1582 # 800041d8 <Nr+0x160>
    8000380e:	02800513          	li	a0,40
    80003812:	fafc88e3          	beq	s9,a5,800037c2 <vprintfmt+0x204>
    80003816:	000d861b          	sext.w	a2,s11
    8000381a:	87ea                	mv	a5,s10
    8000381c:	018d06b3          	add	a3,s10,s8
    80003820:	000c1663          	bnez	s8,8000382c <vprintfmt+0x26e>
    80003824:	a829                	j	8000383e <vprintfmt+0x280>
    80003826:	0785                	addi	a5,a5,1
    80003828:	00d78563          	beq	a5,a3,80003832 <vprintfmt+0x274>
    8000382c:	0007c703          	lbu	a4,0(a5)
    80003830:	fb7d                	bnez	a4,80003826 <vprintfmt+0x268>
    80003832:	41a787b3          	sub	a5,a5,s10
    80003836:	40f60dbb          	subw	s11,a2,a5
    8000383a:	01b05963          	blez	s11,8000384c <vprintfmt+0x28e>
    8000383e:	2c81                	sext.w	s9,s9
    80003840:	85a6                	mv	a1,s1
    80003842:	8566                	mv	a0,s9
    80003844:	3dfd                	addiw	s11,s11,-1
    80003846:	9902                	jalr	s2
    80003848:	fe0d9ce3          	bnez	s11,80003840 <vprintfmt+0x282>
    8000384c:	000d4503          	lbu	a0,0(s10)
    80003850:	d519                	beqz	a0,8000375e <vprintfmt+0x1a0>
    80003852:	59fd                	li	s3,-1
    80003854:	bf85                	j	800037c4 <vprintfmt+0x206>
    80003856:	fffdc793          	not	a5,s11
    8000385a:	97fd                	srai	a5,a5,0x3f
    8000385c:	00fdf7b3          	and	a5,s11,a5
    80003860:	00174683          	lbu	a3,1(a4)
    80003864:	00078d9b          	sext.w	s11,a5
    80003868:	8722                	mv	a4,s0
    8000386a:	b375                	j	80003616 <vprintfmt+0x58>
    8000386c:	000ba503          	lw	a0,0(s7)
    80003870:	85a6                	mv	a1,s1
    80003872:	0ba1                	addi	s7,s7,8
    80003874:	9902                	jalr	s2
    80003876:	b351                	j	800035fa <vprintfmt+0x3c>
    80003878:	4c01                	li	s8,0
    8000387a:	b555                	j	8000371e <vprintfmt+0x160>
    8000387c:	000ba983          	lw	s3,0(s7)
    80003880:	bddd                	j	80003776 <vprintfmt+0x1b8>
    80003882:	ea6a                	sd	s10,272(sp)
    80003884:	4629                	li	a2,10
    80003886:	b729                	j	80003790 <vprintfmt+0x1d2>
    80003888:	ea6a                	sd	s10,272(sp)
    8000388a:	4621                	li	a2,8
    8000388c:	b711                	j	80003790 <vprintfmt+0x1d2>
    8000388e:	85a6                	mv	a1,s1
    80003890:	02d00513          	li	a0,45
    80003894:	9902                	jalr	s2
    80003896:	413007b3          	neg	a5,s3
    8000389a:	8be2                	mv	s7,s8
    8000389c:	4629                	li	a2,10
    8000389e:	bda1                	j	800036f6 <vprintfmt+0x138>
    800038a0:	8722                	mv	a4,s0
    800038a2:	b531                	j	800036ae <vprintfmt+0xf0>

00000000800038a4 <sprintf_putch.0>:
    800038a4:	619c                	ld	a5,0(a1)
    800038a6:	00a78023          	sb	a0,0(a5)
    800038aa:	619c                	ld	a5,0(a1)
    800038ac:	0785                	addi	a5,a5,1
    800038ae:	e19c                	sd	a5,0(a1)
    800038b0:	8082                	ret

00000000800038b2 <putchar>:
    800038b2:	04022803          	lw	a6,64(tp) # 40 <buflen.1>
    800038b6:	00020793          	mv	a5,tp
    800038ba:	97c2                	add	a5,a5,a6
    800038bc:	7159                	addi	sp,sp,-112
    800038be:	0018069b          	addiw	a3,a6,1
    800038c2:	04d22023          	sw	a3,64(tp) # 40 <buflen.1>
    800038c6:	00a78023          	sb	a0,0(a5)
    800038ca:	03f10713          	addi	a4,sp,63
    800038ce:	47a9                	li	a5,10
    800038d0:	fc077713          	andi	a4,a4,-64
    800038d4:	00f50963          	beq	a0,a5,800038e6 <putchar+0x34>
    800038d8:	04000793          	li	a5,64
    800038dc:	00f68563          	beq	a3,a5,800038e6 <putchar+0x34>
    800038e0:	4501                	li	a0,0
    800038e2:	6165                	addi	sp,sp,112
    800038e4:	8082                	ret
    800038e6:	04000793          	li	a5,64
    800038ea:	e31c                	sd	a5,0(a4)
    800038ec:	4785                	li	a5,1
    800038ee:	e71c                	sd	a5,8(a4)
    800038f0:	00020613          	mv	a2,tp
    800038f4:	eb10                	sd	a2,16(a4)
    800038f6:	ef14                	sd	a3,24(a4)
    800038f8:	0ff0000f          	fence
    800038fc:	ffffd697          	auipc	a3,0xffffd
    80003900:	74468693          	addi	a3,a3,1860 # 80001040 <fromhost>
    80003904:	ffffd797          	auipc	a5,0xffffd
    80003908:	6ee7be23          	sd	a4,1788(a5) # 80001000 <tohost>
    8000390c:	629c                	ld	a5,0(a3)
    8000390e:	dffd                	beqz	a5,8000390c <putchar+0x5a>
    80003910:	ffffd797          	auipc	a5,0xffffd
    80003914:	7207b823          	sd	zero,1840(a5) # 80001040 <fromhost>
    80003918:	0ff0000f          	fence
    8000391c:	04022023          	sw	zero,64(tp) # 40 <buflen.1>
    80003920:	631c                	ld	a5,0(a4)
    80003922:	4501                	li	a0,0
    80003924:	6165                	addi	sp,sp,112
    80003926:	8082                	ret

0000000080003928 <setStats>:
    80003928:	b0002773          	csrr	a4,mcycle
    8000392c:	00002797          	auipc	a5,0x2
    80003930:	70478793          	addi	a5,a5,1796 # 80006030 <counters>
    80003934:	c511                	beqz	a0,80003940 <setStats+0x18>
    80003936:	e398                	sd	a4,0(a5)
    80003938:	b0202773          	csrr	a4,minstret
    8000393c:	e798                	sd	a4,8(a5)
    8000393e:	8082                	ret
    80003940:	6394                	ld	a3,0(a5)
    80003942:	00001617          	auipc	a2,0x1
    80003946:	8a660613          	addi	a2,a2,-1882 # 800041e8 <Nr+0x170>
    8000394a:	eb90                	sd	a2,16(a5)
    8000394c:	8f15                	sub	a4,a4,a3
    8000394e:	e398                	sd	a4,0(a5)
    80003950:	b0202773          	csrr	a4,minstret
    80003954:	6794                	ld	a3,8(a5)
    80003956:	00001617          	auipc	a2,0x1
    8000395a:	89a60613          	addi	a2,a2,-1894 # 800041f0 <Nr+0x178>
    8000395e:	ef90                	sd	a2,24(a5)
    80003960:	8f15                	sub	a4,a4,a3
    80003962:	e798                	sd	a4,8(a5)
    80003964:	8082                	ret

0000000080003966 <tohost_exit>:
    80003966:	00151793          	slli	a5,a0,0x1
    8000396a:	0017e793          	ori	a5,a5,1
    8000396e:	ffffd717          	auipc	a4,0xffffd
    80003972:	68f73923          	sd	a5,1682(a4) # 80001000 <tohost>
    80003976:	a001                	j	80003976 <tohost_exit+0x10>

0000000080003978 <handle_trap>:
    80003978:	6785                	lui	a5,0x1
    8000397a:	a7378793          	addi	a5,a5,-1421 # a73 <buflen.1+0xa33>
    8000397e:	ffffd717          	auipc	a4,0xffffd
    80003982:	68f73123          	sd	a5,1666(a4) # 80001000 <tohost>
    80003986:	a001                	j	80003986 <handle_trap+0xe>

0000000080003988 <exit>:
    80003988:	1141                	addi	sp,sp,-16
    8000398a:	e406                	sd	ra,8(sp)
    8000398c:	fdbff0ef          	jal	80003966 <tohost_exit>

0000000080003990 <abort>:
    80003990:	10d00793          	li	a5,269
    80003994:	ffffd717          	auipc	a4,0xffffd
    80003998:	66f73623          	sd	a5,1644(a4) # 80001000 <tohost>
    8000399c:	a001                	j	8000399c <abort+0xc>

000000008000399e <printstr>:
    8000399e:	00054783          	lbu	a5,0(a0)
    800039a2:	7159                	addi	sp,sp,-112
    800039a4:	03f10693          	addi	a3,sp,63
    800039a8:	fc06f693          	andi	a3,a3,-64
    800039ac:	c3b9                	beqz	a5,800039f2 <printstr+0x54>
    800039ae:	87aa                	mv	a5,a0
    800039b0:	0017c703          	lbu	a4,1(a5)
    800039b4:	0785                	addi	a5,a5,1
    800039b6:	ff6d                	bnez	a4,800039b0 <printstr+0x12>
    800039b8:	8f89                	sub	a5,a5,a0
    800039ba:	04000713          	li	a4,64
    800039be:	e298                	sd	a4,0(a3)
    800039c0:	4705                	li	a4,1
    800039c2:	e698                	sd	a4,8(a3)
    800039c4:	ea88                	sd	a0,16(a3)
    800039c6:	ee9c                	sd	a5,24(a3)
    800039c8:	0ff0000f          	fence
    800039cc:	ffffd717          	auipc	a4,0xffffd
    800039d0:	67470713          	addi	a4,a4,1652 # 80001040 <fromhost>
    800039d4:	ffffd797          	auipc	a5,0xffffd
    800039d8:	62d7b623          	sd	a3,1580(a5) # 80001000 <tohost>
    800039dc:	631c                	ld	a5,0(a4)
    800039de:	dffd                	beqz	a5,800039dc <printstr+0x3e>
    800039e0:	ffffd797          	auipc	a5,0xffffd
    800039e4:	6607b023          	sd	zero,1632(a5) # 80001040 <fromhost>
    800039e8:	0ff0000f          	fence
    800039ec:	629c                	ld	a5,0(a3)
    800039ee:	6165                	addi	sp,sp,112
    800039f0:	8082                	ret
    800039f2:	4781                	li	a5,0
    800039f4:	b7d9                	j	800039ba <printstr+0x1c>

00000000800039f6 <thread_entry>:
    800039f6:	c111                	beqz	a0,800039fa <thread_entry+0x4>
    800039f8:	a001                	j	800039f8 <thread_entry+0x2>
    800039fa:	8082                	ret

00000000800039fc <printhex>:
    800039fc:	7179                	addi	sp,sp,-48
    800039fe:	87aa                	mv	a5,a0
    80003a00:	f406                	sd	ra,40(sp)
    80003a02:	0028                	addi	a0,sp,8
    80003a04:	01710713          	addi	a4,sp,23
    80003a08:	4825                	li	a6,9
    80003a0a:	a011                	j	80003a0e <printhex+0x12>
    80003a0c:	8736                	mv	a4,a3
    80003a0e:	00f7f613          	andi	a2,a5,15
    80003a12:	86b2                	mv	a3,a2
    80003a14:	03000593          	li	a1,48
    80003a18:	00c87463          	bgeu	a6,a2,80003a20 <printhex+0x24>
    80003a1c:	05700593          	li	a1,87
    80003a20:	9ead                	addw	a3,a3,a1
    80003a22:	00d70023          	sb	a3,0(a4)
    80003a26:	8391                	srli	a5,a5,0x4
    80003a28:	fff70693          	addi	a3,a4,-1
    80003a2c:	fee510e3          	bne	a0,a4,80003a0c <printhex+0x10>
    80003a30:	00010c23          	sb	zero,24(sp)
    80003a34:	f6bff0ef          	jal	8000399e <printstr>
    80003a38:	70a2                	ld	ra,40(sp)
    80003a3a:	6145                	addi	sp,sp,48
    80003a3c:	8082                	ret

0000000080003a3e <printf>:
    80003a3e:	711d                	addi	sp,sp,-96
    80003a40:	02810313          	addi	t1,sp,40
    80003a44:	f42e                	sd	a1,40(sp)
    80003a46:	f832                	sd	a2,48(sp)
    80003a48:	fc36                	sd	a3,56(sp)
    80003a4a:	862a                	mv	a2,a0
    80003a4c:	869a                	mv	a3,t1
    80003a4e:	00000517          	auipc	a0,0x0
    80003a52:	e6450513          	addi	a0,a0,-412 # 800038b2 <putchar>
    80003a56:	4581                	li	a1,0
    80003a58:	ec06                	sd	ra,24(sp)
    80003a5a:	e0ba                	sd	a4,64(sp)
    80003a5c:	e4be                	sd	a5,72(sp)
    80003a5e:	e8c2                	sd	a6,80(sp)
    80003a60:	ecc6                	sd	a7,88(sp)
    80003a62:	e41a                	sd	t1,8(sp)
    80003a64:	b5bff0ef          	jal	800035be <vprintfmt>
    80003a68:	60e2                	ld	ra,24(sp)
    80003a6a:	4501                	li	a0,0
    80003a6c:	6125                	addi	sp,sp,96
    80003a6e:	8082                	ret

0000000080003a70 <sprintf>:
    80003a70:	711d                	addi	sp,sp,-96
    80003a72:	03010e13          	addi	t3,sp,48
    80003a76:	f022                	sd	s0,32(sp)
    80003a78:	e42a                	sd	a0,8(sp)
    80003a7a:	842a                	mv	s0,a0
    80003a7c:	f832                	sd	a2,48(sp)
    80003a7e:	fc36                	sd	a3,56(sp)
    80003a80:	862e                	mv	a2,a1
    80003a82:	00000517          	auipc	a0,0x0
    80003a86:	e2250513          	addi	a0,a0,-478 # 800038a4 <sprintf_putch.0>
    80003a8a:	002c                	addi	a1,sp,8
    80003a8c:	86f2                	mv	a3,t3
    80003a8e:	f406                	sd	ra,40(sp)
    80003a90:	e4be                	sd	a5,72(sp)
    80003a92:	e0ba                	sd	a4,64(sp)
    80003a94:	e8c2                	sd	a6,80(sp)
    80003a96:	ecc6                	sd	a7,88(sp)
    80003a98:	ec72                	sd	t3,24(sp)
    80003a9a:	b25ff0ef          	jal	800035be <vprintfmt>
    80003a9e:	67a2                	ld	a5,8(sp)
    80003aa0:	00078023          	sb	zero,0(a5)
    80003aa4:	6522                	ld	a0,8(sp)
    80003aa6:	70a2                	ld	ra,40(sp)
    80003aa8:	9d01                	subw	a0,a0,s0
    80003aaa:	7402                	ld	s0,32(sp)
    80003aac:	6125                	addi	sp,sp,96
    80003aae:	8082                	ret

0000000080003ab0 <memcpy>:
    80003ab0:	00c5e7b3          	or	a5,a1,a2
    80003ab4:	8fc9                	or	a5,a5,a0
    80003ab6:	8b9d                	andi	a5,a5,7
    80003ab8:	00c506b3          	add	a3,a0,a2
    80003abc:	cf91                	beqz	a5,80003ad8 <memcpy+0x28>
    80003abe:	962e                	add	a2,a2,a1
    80003ac0:	87aa                	mv	a5,a0
    80003ac2:	02d57663          	bgeu	a0,a3,80003aee <memcpy+0x3e>
    80003ac6:	0005c703          	lbu	a4,0(a1)
    80003aca:	0585                	addi	a1,a1,1
    80003acc:	0785                	addi	a5,a5,1
    80003ace:	fee78fa3          	sb	a4,-1(a5)
    80003ad2:	feb61ae3          	bne	a2,a1,80003ac6 <memcpy+0x16>
    80003ad6:	8082                	ret
    80003ad8:	fed57fe3          	bgeu	a0,a3,80003ad6 <memcpy+0x26>
    80003adc:	87aa                	mv	a5,a0
    80003ade:	6198                	ld	a4,0(a1)
    80003ae0:	07a1                	addi	a5,a5,8
    80003ae2:	05a1                	addi	a1,a1,8
    80003ae4:	fee7bc23          	sd	a4,-8(a5)
    80003ae8:	fed7ebe3          	bltu	a5,a3,80003ade <memcpy+0x2e>
    80003aec:	8082                	ret
    80003aee:	8082                	ret

0000000080003af0 <memset>:
    80003af0:	00c567b3          	or	a5,a0,a2
    80003af4:	8b9d                	andi	a5,a5,7
    80003af6:	962a                	add	a2,a2,a0
    80003af8:	cf81                	beqz	a5,80003b10 <memset+0x20>
    80003afa:	0ff5f713          	zext.b	a4,a1
    80003afe:	87aa                	mv	a5,a0
    80003b00:	02c57f63          	bgeu	a0,a2,80003b3e <memset+0x4e>
    80003b04:	0785                	addi	a5,a5,1
    80003b06:	fee78fa3          	sb	a4,-1(a5)
    80003b0a:	fec79de3          	bne	a5,a2,80003b04 <memset+0x14>
    80003b0e:	8082                	ret
    80003b10:	010107b7          	lui	a5,0x1010
    80003b14:	10178793          	addi	a5,a5,257 # 1010101 <buflen.1+0x10100c1>
    80003b18:	07c2                	slli	a5,a5,0x10
    80003b1a:	10178793          	addi	a5,a5,257
    80003b1e:	07c2                	slli	a5,a5,0x10
    80003b20:	0ff5f713          	zext.b	a4,a1
    80003b24:	10178793          	addi	a5,a5,257
    80003b28:	02f70733          	mul	a4,a4,a5
    80003b2c:	fec571e3          	bgeu	a0,a2,80003b0e <memset+0x1e>
    80003b30:	87aa                	mv	a5,a0
    80003b32:	07a1                	addi	a5,a5,8
    80003b34:	fee7bc23          	sd	a4,-8(a5)
    80003b38:	fec7ede3          	bltu	a5,a2,80003b32 <memset+0x42>
    80003b3c:	8082                	ret
    80003b3e:	8082                	ret

0000000080003b40 <_init>:
    80003b40:	7171                	addi	sp,sp,-176
    80003b42:	00002797          	auipc	a5,0x2
    80003b46:	50e78793          	addi	a5,a5,1294 # 80006050 <_tdata_begin>
    80003b4a:	e152                	sd	s4,128(sp)
    80003b4c:	00002a17          	auipc	s4,0x2
    80003b50:	504a0a13          	addi	s4,s4,1284 # 80006050 <_tdata_begin>
    80003b54:	e54e                	sd	s3,136(sp)
    80003b56:	40fa09b3          	sub	s3,s4,a5
    80003b5a:	ed26                	sd	s1,152(sp)
    80003b5c:	e94a                	sd	s2,144(sp)
    80003b5e:	84aa                	mv	s1,a0
    80003b60:	892e                	mv	s2,a1
    80003b62:	8512                	mv	a0,tp
    80003b64:	85be                	mv	a1,a5
    80003b66:	864e                	mv	a2,s3
    80003b68:	f506                	sd	ra,168(sp)
    80003b6a:	f122                	sd	s0,160(sp)
    80003b6c:	fcd6                	sd	s5,120(sp)
    80003b6e:	8a92                	mv	s5,tp
    80003b70:	f41ff0ef          	jal	80003ab0 <memcpy>
    80003b74:	00002617          	auipc	a2,0x2
    80003b78:	55060613          	addi	a2,a2,1360 # 800060c4 <_tbss_end>
    80003b7c:	41460633          	sub	a2,a2,s4
    80003b80:	4581                	li	a1,0
    80003b82:	013a8533          	add	a0,s5,s3
    80003b86:	f6bff0ef          	jal	80003af0 <memset>
    80003b8a:	85ca                	mv	a1,s2
    80003b8c:	8526                	mv	a0,s1
    80003b8e:	e69ff0ef          	jal	800039f6 <thread_entry>
    80003b92:	4581                	li	a1,0
    80003b94:	4501                	li	a0,0
    80003b96:	8edff0ef          	jal	80003482 <main>
    80003b9a:	00002917          	auipc	s2,0x2
    80003b9e:	49690913          	addi	s2,s2,1174 # 80006030 <counters>
    80003ba2:	00093683          	ld	a3,0(s2)
    80003ba6:	03f10413          	addi	s0,sp,63
    80003baa:	fc047413          	andi	s0,s0,-64
    80003bae:	84aa                	mv	s1,a0
    80003bb0:	ea85                	bnez	a3,80003be0 <_init+0xa0>
    80003bb2:	00893683          	ld	a3,8(s2)
    80003bb6:	e681                	bnez	a3,80003bbe <_init+0x7e>
    80003bb8:	8526                	mv	a0,s1
    80003bba:	dadff0ef          	jal	80003966 <tohost_exit>
    80003bbe:	89a2                	mv	s3,s0
    80003bc0:	01893603          	ld	a2,24(s2)
    80003bc4:	854e                	mv	a0,s3
    80003bc6:	00000597          	auipc	a1,0x0
    80003bca:	65258593          	addi	a1,a1,1618 # 80004218 <Nr+0x1a0>
    80003bce:	ea3ff0ef          	jal	80003a70 <sprintf>
    80003bd2:	99aa                	add	s3,s3,a0
    80003bd4:	ff3402e3          	beq	s0,s3,80003bb8 <_init+0x78>
    80003bd8:	8522                	mv	a0,s0
    80003bda:	dc5ff0ef          	jal	8000399e <printstr>
    80003bde:	bfe9                	j	80003bb8 <_init+0x78>
    80003be0:	01093603          	ld	a2,16(s2)
    80003be4:	00000597          	auipc	a1,0x0
    80003be8:	63458593          	addi	a1,a1,1588 # 80004218 <Nr+0x1a0>
    80003bec:	8522                	mv	a0,s0
    80003bee:	e83ff0ef          	jal	80003a70 <sprintf>
    80003bf2:	00893683          	ld	a3,8(s2)
    80003bf6:	00a409b3          	add	s3,s0,a0
    80003bfa:	dee9                	beqz	a3,80003bd4 <_init+0x94>
    80003bfc:	b7d1                	j	80003bc0 <_init+0x80>

0000000080003bfe <strlen>:
    80003bfe:	00054783          	lbu	a5,0(a0)
    80003c02:	cb89                	beqz	a5,80003c14 <strlen+0x16>
    80003c04:	87aa                	mv	a5,a0
    80003c06:	0017c703          	lbu	a4,1(a5)
    80003c0a:	0785                	addi	a5,a5,1
    80003c0c:	ff6d                	bnez	a4,80003c06 <strlen+0x8>
    80003c0e:	40a78533          	sub	a0,a5,a0
    80003c12:	8082                	ret
    80003c14:	4501                	li	a0,0
    80003c16:	8082                	ret

0000000080003c18 <strnlen>:
    80003c18:	00b506b3          	add	a3,a0,a1
    80003c1c:	87aa                	mv	a5,a0
    80003c1e:	e589                	bnez	a1,80003c28 <strnlen+0x10>
    80003c20:	a829                	j	80003c3a <strnlen+0x22>
    80003c22:	0785                	addi	a5,a5,1
    80003c24:	00f68863          	beq	a3,a5,80003c34 <strnlen+0x1c>
    80003c28:	0007c703          	lbu	a4,0(a5)
    80003c2c:	fb7d                	bnez	a4,80003c22 <strnlen+0xa>
    80003c2e:	40a78533          	sub	a0,a5,a0
    80003c32:	8082                	ret
    80003c34:	40a68533          	sub	a0,a3,a0
    80003c38:	8082                	ret
    80003c3a:	4501                	li	a0,0
    80003c3c:	8082                	ret

0000000080003c3e <strcmp>:
    80003c3e:	00054783          	lbu	a5,0(a0)
    80003c42:	0585                	addi	a1,a1,1
    80003c44:	0505                	addi	a0,a0,1
    80003c46:	fff5c703          	lbu	a4,-1(a1)
    80003c4a:	c799                	beqz	a5,80003c58 <strcmp+0x1a>
    80003c4c:	fee789e3          	beq	a5,a4,80003c3e <strcmp>
    80003c50:	0007851b          	sext.w	a0,a5
    80003c54:	9d19                	subw	a0,a0,a4
    80003c56:	8082                	ret
    80003c58:	4501                	li	a0,0
    80003c5a:	bfed                	j	80003c54 <strcmp+0x16>

0000000080003c5c <strcpy>:
    80003c5c:	87aa                	mv	a5,a0
    80003c5e:	0005c703          	lbu	a4,0(a1)
    80003c62:	0785                	addi	a5,a5,1
    80003c64:	0585                	addi	a1,a1,1
    80003c66:	fee78fa3          	sb	a4,-1(a5)
    80003c6a:	fb75                	bnez	a4,80003c5e <strcpy+0x2>
    80003c6c:	8082                	ret

0000000080003c6e <atol>:
    80003c6e:	00054703          	lbu	a4,0(a0)
    80003c72:	02000693          	li	a3,32
    80003c76:	87aa                	mv	a5,a0
    80003c78:	00d71763          	bne	a4,a3,80003c86 <atol+0x18>
    80003c7c:	0017c703          	lbu	a4,1(a5)
    80003c80:	0785                	addi	a5,a5,1
    80003c82:	fed70de3          	beq	a4,a3,80003c7c <atol+0xe>
    80003c86:	02d00693          	li	a3,45
    80003c8a:	04d70163          	beq	a4,a3,80003ccc <atol+0x5e>
    80003c8e:	02b00693          	li	a3,43
    80003c92:	02d70763          	beq	a4,a3,80003cc0 <atol+0x52>
    80003c96:	0007c683          	lbu	a3,0(a5)
    80003c9a:	4581                	li	a1,0
    80003c9c:	ce8d                	beqz	a3,80003cd6 <atol+0x68>
    80003c9e:	4501                	li	a0,0
    80003ca0:	0785                	addi	a5,a5,1
    80003ca2:	00251713          	slli	a4,a0,0x2
    80003ca6:	fd06861b          	addiw	a2,a3,-48
    80003caa:	0007c683          	lbu	a3,0(a5)
    80003cae:	972a                	add	a4,a4,a0
    80003cb0:	0706                	slli	a4,a4,0x1
    80003cb2:	00e60533          	add	a0,a2,a4
    80003cb6:	f6ed                	bnez	a3,80003ca0 <atol+0x32>
    80003cb8:	c185                	beqz	a1,80003cd8 <atol+0x6a>
    80003cba:	40a00533          	neg	a0,a0
    80003cbe:	8082                	ret
    80003cc0:	0017c683          	lbu	a3,1(a5)
    80003cc4:	0785                	addi	a5,a5,1
    80003cc6:	ca81                	beqz	a3,80003cd6 <atol+0x68>
    80003cc8:	4581                	li	a1,0
    80003cca:	bfd1                	j	80003c9e <atol+0x30>
    80003ccc:	0017c683          	lbu	a3,1(a5)
    80003cd0:	4585                	li	a1,1
    80003cd2:	0785                	addi	a5,a5,1
    80003cd4:	f6e9                	bnez	a3,80003c9e <atol+0x30>
    80003cd6:	4501                	li	a0,0
    80003cd8:	8082                	ret

0000000080003cda <__errno>:
    80003cda:	83818513          	addi	a0,gp,-1992 # 800045f8 <__errno_location>
    80003cde:	8082                	ret

0000000080003ce0 <atoi>:
    80003ce0:	cd41                	beqz	a0,80003d78 <atoi+0x98>
    80003ce2:	02000693          	li	a3,32
    80003ce6:	4611                	li	a2,4
    80003ce8:	00054783          	lbu	a5,0(a0)
    80003cec:	ff77871b          	addiw	a4,a5,-9
    80003cf0:	0ff77713          	zext.b	a4,a4
    80003cf4:	06d78863          	beq	a5,a3,80003d64 <atoi+0x84>
    80003cf8:	06e67663          	bgeu	a2,a4,80003d64 <atoi+0x84>
    80003cfc:	02b00713          	li	a4,43
    80003d00:	06e78763          	beq	a5,a4,80003d6e <atoi+0x8e>
    80003d04:	02d00713          	li	a4,45
    80003d08:	4305                	li	t1,1
    80003d0a:	06e78963          	beq	a5,a4,80003d7c <atoi+0x9c>
    80003d0e:	fd07879b          	addiw	a5,a5,-48
    80003d12:	0ff7f693          	zext.b	a3,a5
    80003d16:	4725                	li	a4,9
    80003d18:	06d76063          	bltu	a4,a3,80003d78 <atoi+0x98>
    80003d1c:	800005b7          	lui	a1,0x80000
    80003d20:	4681                	li	a3,0
    80003d22:	35fd                	addiw	a1,a1,-1 # 7fffffff <buflen.1+0x7fffffbf>
    80003d24:	4829                	li	a6,10
    80003d26:	48a5                	li	a7,9
    80003d28:	a819                	j	80003d3e <atoi+0x5e>
    80003d2a:	00054783          	lbu	a5,0(a0)
    80003d2e:	0007069b          	sext.w	a3,a4
    80003d32:	fd07879b          	addiw	a5,a5,-48
    80003d36:	0ff7f613          	zext.b	a2,a5
    80003d3a:	02c8e763          	bltu	a7,a2,80003d68 <atoi+0x88>
    80003d3e:	40f5863b          	subw	a2,a1,a5
    80003d42:	0306463b          	divw	a2,a2,a6
    80003d46:	0026971b          	slliw	a4,a3,0x2
    80003d4a:	9f35                	addw	a4,a4,a3
    80003d4c:	0017171b          	slliw	a4,a4,0x1
    80003d50:	0505                	addi	a0,a0,1
    80003d52:	9f3d                	addw	a4,a4,a5
    80003d54:	fcd65be3          	bge	a2,a3,80003d2a <atoi+0x4a>
    80003d58:	4785                	li	a5,1
    80003d5a:	80000537          	lui	a0,0x80000
    80003d5e:	02f30163          	beq	t1,a5,80003d80 <atoi+0xa0>
    80003d62:	8082                	ret
    80003d64:	0505                	addi	a0,a0,1 # ffffffff80000001 <_tbss_end+0xfffffffeffff9f3d>
    80003d66:	b749                	j	80003ce8 <atoi+0x8>
    80003d68:	0267053b          	mulw	a0,a4,t1
    80003d6c:	8082                	ret
    80003d6e:	4305                	li	t1,1
    80003d70:	00154783          	lbu	a5,1(a0)
    80003d74:	0505                	addi	a0,a0,1
    80003d76:	bf61                	j	80003d0e <atoi+0x2e>
    80003d78:	4501                	li	a0,0
    80003d7a:	8082                	ret
    80003d7c:	537d                	li	t1,-1
    80003d7e:	bfcd                	j	80003d70 <atoi+0x90>
    80003d80:	fff54513          	not	a0,a0
    80003d84:	8082                	ret

0000000080003d86 <strtol>:
    80003d86:	872a                	mv	a4,a0
    80003d88:	4811                	li	a6,4
    80003d8a:	02000513          	li	a0,32
    80003d8e:	00074683          	lbu	a3,0(a4)
    80003d92:	ff76879b          	addiw	a5,a3,-9
    80003d96:	0ff7f793          	zext.b	a5,a5
    80003d9a:	04a68b63          	beq	a3,a0,80003df0 <strtol+0x6a>
    80003d9e:	04f87963          	bgeu	a6,a5,80003df0 <strtol+0x6a>
    80003da2:	02d00793          	li	a5,45
    80003da6:	08f68963          	beq	a3,a5,80003e38 <strtol+0xb2>
    80003daa:	02b00793          	li	a5,43
    80003dae:	4e01                	li	t3,0
    80003db0:	08f68063          	beq	a3,a5,80003e30 <strtol+0xaa>
    80003db4:	ee29                	bnez	a2,80003e0e <strtol+0x88>
    80003db6:	03000793          	li	a5,48
    80003dba:	4629                	li	a2,10
    80003dbc:	08f68363          	beq	a3,a5,80003e42 <strtol+0xbc>
    80003dc0:	4501                	li	a0,0
    80003dc2:	48a5                	li	a7,9
    80003dc4:	4365                	li	t1,25
    80003dc6:	00074683          	lbu	a3,0(a4)
    80003dca:	fd06879b          	addiw	a5,a3,-48
    80003dce:	f9f6881b          	addiw	a6,a3,-97
    80003dd2:	00f8f863          	bgeu	a7,a5,80003de2 <strtol+0x5c>
    80003dd6:	fbf6879b          	addiw	a5,a3,-65
    80003dda:	01036d63          	bltu	t1,a6,80003df4 <strtol+0x6e>
    80003dde:	fa96879b          	addiw	a5,a3,-87
    80003de2:	00c7df63          	bge	a5,a2,80003e00 <strtol+0x7a>
    80003de6:	02a60533          	mul	a0,a2,a0
    80003dea:	0705                	addi	a4,a4,1
    80003dec:	953e                	add	a0,a0,a5
    80003dee:	bfe1                	j	80003dc6 <strtol+0x40>
    80003df0:	0705                	addi	a4,a4,1
    80003df2:	bf71                	j	80003d8e <strtol+0x8>
    80003df4:	00f36663          	bltu	t1,a5,80003e00 <strtol+0x7a>
    80003df8:	fc96879b          	addiw	a5,a3,-55
    80003dfc:	fec7c5e3          	blt	a5,a2,80003de6 <strtol+0x60>
    80003e00:	c191                	beqz	a1,80003e04 <strtol+0x7e>
    80003e02:	e198                	sd	a4,0(a1)
    80003e04:	000e0463          	beqz	t3,80003e0c <strtol+0x86>
    80003e08:	40a00533          	neg	a0,a0
    80003e0c:	8082                	ret
    80003e0e:	47c1                	li	a5,16
    80003e10:	faf618e3          	bne	a2,a5,80003dc0 <strtol+0x3a>
    80003e14:	03000793          	li	a5,48
    80003e18:	faf694e3          	bne	a3,a5,80003dc0 <strtol+0x3a>
    80003e1c:	00174783          	lbu	a5,1(a4)
    80003e20:	05800693          	li	a3,88
    80003e24:	0df7f793          	andi	a5,a5,223
    80003e28:	f8d79ce3          	bne	a5,a3,80003dc0 <strtol+0x3a>
    80003e2c:	0709                	addi	a4,a4,2
    80003e2e:	bf49                	j	80003dc0 <strtol+0x3a>
    80003e30:	00174683          	lbu	a3,1(a4)
    80003e34:	0705                	addi	a4,a4,1
    80003e36:	bfbd                	j	80003db4 <strtol+0x2e>
    80003e38:	00174683          	lbu	a3,1(a4)
    80003e3c:	4e05                	li	t3,1
    80003e3e:	0705                	addi	a4,a4,1
    80003e40:	bf95                	j	80003db4 <strtol+0x2e>
    80003e42:	00174783          	lbu	a5,1(a4)
    80003e46:	05800693          	li	a3,88
    80003e4a:	0df7f793          	andi	a5,a5,223
    80003e4e:	00d78563          	beq	a5,a3,80003e58 <strtol+0xd2>
    80003e52:	0705                	addi	a4,a4,1
    80003e54:	4621                	li	a2,8
    80003e56:	b7ad                	j	80003dc0 <strtol+0x3a>
    80003e58:	0709                	addi	a4,a4,2
    80003e5a:	4641                	li	a2,16
    80003e5c:	b795                	j	80003dc0 <strtol+0x3a>

0000000080003e5e <my_isspace>:
    80003e5e:	02000793          	li	a5,32
    80003e62:	00f50863          	beq	a0,a5,80003e72 <my_isspace+0x14>
    80003e66:	355d                	addiw	a0,a0,-9
    80003e68:	0ff57513          	zext.b	a0,a0
    80003e6c:	00553513          	sltiu	a0,a0,5
    80003e70:	8082                	ret
    80003e72:	4505                	li	a0,1
    80003e74:	8082                	ret

0000000080003e76 <my_isdigit>:
    80003e76:	fd05051b          	addiw	a0,a0,-48
    80003e7a:	0ff57513          	zext.b	a0,a0
    80003e7e:	00a53513          	sltiu	a0,a0,10
    80003e82:	8082                	ret

0000000080003e84 <strtod>:
    80003e84:	02000693          	li	a3,32
    80003e88:	4611                	li	a2,4
    80003e8a:	00054783          	lbu	a5,0(a0)
    80003e8e:	ff77871b          	addiw	a4,a5,-9
    80003e92:	0ff77713          	zext.b	a4,a4
    80003e96:	08d78263          	beq	a5,a3,80003f1a <strtod+0x96>
    80003e9a:	08e67063          	bgeu	a2,a4,80003f1a <strtod+0x96>
    80003e9e:	02d00713          	li	a4,45
    80003ea2:	06e78e63          	beq	a5,a4,80003f1e <strtod+0x9a>
    80003ea6:	02b00713          	li	a4,43
    80003eaa:	08e78663          	beq	a5,a4,80003f36 <strtod+0xb2>
    80003eae:	00000717          	auipc	a4,0x0
    80003eb2:	71273587          	fld	fa1,1810(a4) # 800045c0 <key+0x14>
    80003eb6:	22b58553          	fmv.d	fa0,fa1
    80003eba:	fd07871b          	addiw	a4,a5,-48
    80003ebe:	0ff77613          	zext.b	a2,a4
    80003ec2:	46a5                	li	a3,9
    80003ec4:	f20007d3          	fmv.d.x	fa5,zero
    80003ec8:	02c6e463          	bltu	a3,a2,80003ef0 <strtod+0x6c>
    80003ecc:	00000797          	auipc	a5,0x0
    80003ed0:	7047b687          	fld	fa3,1796(a5) # 800045d0 <key+0x24>
    80003ed4:	4625                	li	a2,9
    80003ed6:	00154783          	lbu	a5,1(a0)
    80003eda:	d2070753          	fcvt.d.w	fa4,a4
    80003ede:	0505                	addi	a0,a0,1
    80003ee0:	fd07871b          	addiw	a4,a5,-48
    80003ee4:	0ff77693          	zext.b	a3,a4
    80003ee8:	72d7f7c3          	fmadd.d	fa5,fa5,fa3,fa4
    80003eec:	fed675e3          	bgeu	a2,a3,80003ed6 <strtod+0x52>
    80003ef0:	02e00713          	li	a4,46
    80003ef4:	0ce78363          	beq	a5,a4,80003fba <strtod+0x136>
    80003ef8:	00054703          	lbu	a4,0(a0)
    80003efc:	0df77713          	andi	a4,a4,223
    80003f00:	04500793          	li	a5,69
    80003f04:	22b58753          	fmv.d	fa4,fa1
    80003f08:	04f70163          	beq	a4,a5,80003f4a <strtod+0xc6>
    80003f0c:	12a7f553          	fmul.d	fa0,fa5,fa0
    80003f10:	12e57553          	fmul.d	fa0,fa0,fa4
    80003f14:	c191                	beqz	a1,80003f18 <strtod+0x94>
    80003f16:	e188                	sd	a0,0(a1)
    80003f18:	8082                	ret
    80003f1a:	0505                	addi	a0,a0,1
    80003f1c:	b7bd                	j	80003e8a <strtod+0x6>
    80003f1e:	00154783          	lbu	a5,1(a0)
    80003f22:	00000717          	auipc	a4,0x0
    80003f26:	6a673507          	fld	fa0,1702(a4) # 800045c8 <key+0x1c>
    80003f2a:	0505                	addi	a0,a0,1
    80003f2c:	00000717          	auipc	a4,0x0
    80003f30:	69473587          	fld	fa1,1684(a4) # 800045c0 <key+0x14>
    80003f34:	b759                	j	80003eba <strtod+0x36>
    80003f36:	00000797          	auipc	a5,0x0
    80003f3a:	68a7b587          	fld	fa1,1674(a5) # 800045c0 <key+0x14>
    80003f3e:	00154783          	lbu	a5,1(a0)
    80003f42:	22b58553          	fmv.d	fa0,fa1
    80003f46:	0505                	addi	a0,a0,1
    80003f48:	bf8d                	j	80003eba <strtod+0x36>
    80003f4a:	00154803          	lbu	a6,1(a0)
    80003f4e:	02d00793          	li	a5,45
    80003f52:	0cf80363          	beq	a6,a5,80004018 <strtod+0x194>
    80003f56:	02b00793          	li	a5,43
    80003f5a:	0ef80563          	beq	a6,a5,80004044 <strtod+0x1c0>
    80003f5e:	0505                	addi	a0,a0,1
    80003f60:	4705                	li	a4,1
    80003f62:	fd08069b          	addiw	a3,a6,-48
    80003f66:	0ff6f613          	zext.b	a2,a3
    80003f6a:	47a5                	li	a5,9
    80003f6c:	0ec7e163          	bltu	a5,a2,8000404e <strtod+0x1ca>
    80003f70:	4601                	li	a2,0
    80003f72:	48a5                	li	a7,9
    80003f74:	00154803          	lbu	a6,1(a0)
    80003f78:	0026179b          	slliw	a5,a2,0x2
    80003f7c:	9fb1                	addw	a5,a5,a2
    80003f7e:	0017979b          	slliw	a5,a5,0x1
    80003f82:	00f6863b          	addw	a2,a3,a5
    80003f86:	fd08069b          	addiw	a3,a6,-48
    80003f8a:	0ff6f813          	zext.b	a6,a3
    80003f8e:	0505                	addi	a0,a0,1
    80003f90:	ff08f2e3          	bgeu	a7,a6,80003f74 <strtod+0xf0>
    80003f94:	02c7073b          	mulw	a4,a4,a2
    80003f98:	08075563          	bgez	a4,80004022 <strtod+0x19e>
    80003f9c:	22b58753          	fmv.d	fa4,fa1
    80003fa0:	0017079b          	addiw	a5,a4,1
    80003fa4:	00000717          	auipc	a4,0x0
    80003fa8:	63473687          	fld	fa3,1588(a4) # 800045d8 <key+0x2c>
    80003fac:	4705                	li	a4,1
    80003fae:	2785                	addiw	a5,a5,1
    80003fb0:	12d77753          	fmul.d	fa4,fa4,fa3
    80003fb4:	fee79de3          	bne	a5,a4,80003fae <strtod+0x12a>
    80003fb8:	bf91                	j	80003f0c <strtod+0x88>
    80003fba:	00154703          	lbu	a4,1(a0)
    80003fbe:	46a5                	li	a3,9
    80003fc0:	0505                	addi	a0,a0,1
    80003fc2:	fd07079b          	addiw	a5,a4,-48
    80003fc6:	0ff7f613          	zext.b	a2,a5
    80003fca:	f2c6e9e3          	bltu	a3,a2,80003efc <strtod+0x78>
    80003fce:	d2078753          	fcvt.d.w	fa4,a5
    80003fd2:	4325                	li	t1,9
    80003fd4:	4781                	li	a5,0
    80003fd6:	00000717          	auipc	a4,0x0
    80003fda:	60273687          	fld	fa3,1538(a4) # 800045d8 <key+0x2c>
    80003fde:	4685                	li	a3,1
    80003fe0:	00154703          	lbu	a4,1(a0)
    80003fe4:	02e7f7d3          	fadd.d	fa5,fa5,fa4
    80003fe8:	0505                	addi	a0,a0,1
    80003fea:	fd07061b          	addiw	a2,a4,-48
    80003fee:	0ff67813          	zext.b	a6,a2
    80003ff2:	0017889b          	addiw	a7,a5,1
    80003ff6:	f10363e3          	bltu	t1,a6,80003efc <strtod+0x78>
    80003ffa:	22b58753          	fmv.d	fa4,fa1
    80003ffe:	40f007bb          	negw	a5,a5
    80004002:	2785                	addiw	a5,a5,1
    80004004:	12d77753          	fmul.d	fa4,fa4,fa3
    80004008:	fed79de3          	bne	a5,a3,80004002 <strtod+0x17e>
    8000400c:	d2060653          	fcvt.d.w	fa2,a2
    80004010:	87c6                	mv	a5,a7
    80004012:	12e67753          	fmul.d	fa4,fa2,fa4
    80004016:	b7e9                	j	80003fe0 <strtod+0x15c>
    80004018:	00254803          	lbu	a6,2(a0)
    8000401c:	577d                	li	a4,-1
    8000401e:	0509                	addi	a0,a0,2
    80004020:	b789                	j	80003f62 <strtod+0xde>
    80004022:	22b58753          	fmv.d	fa4,fa1
    80004026:	fff7079b          	addiw	a5,a4,-1
    8000402a:	ee0701e3          	beqz	a4,80003f0c <strtod+0x88>
    8000402e:	00000717          	auipc	a4,0x0
    80004032:	5a273687          	fld	fa3,1442(a4) # 800045d0 <key+0x24>
    80004036:	577d                	li	a4,-1
    80004038:	37fd                	addiw	a5,a5,-1
    8000403a:	12d77753          	fmul.d	fa4,fa4,fa3
    8000403e:	fee79de3          	bne	a5,a4,80004038 <strtod+0x1b4>
    80004042:	b5e9                	j	80003f0c <strtod+0x88>
    80004044:	00254803          	lbu	a6,2(a0)
    80004048:	4705                	li	a4,1
    8000404a:	0509                	addi	a0,a0,2
    8000404c:	bf19                	j	80003f62 <strtod+0xde>
    8000404e:	22b58753          	fmv.d	fa4,fa1
    80004052:	bd6d                	j	80003f0c <strtod+0x88>

0000000080004054 <atof>:
    80004054:	4581                	li	a1,0
    80004056:	b53d                	j	80003e84 <strtod>

Disassembly of section .text.startup:

0000000080004058 <.text.startup>:
    80004058:	1141                	addi	sp,sp,-16
    8000405a:	00000517          	auipc	a0,0x0
    8000405e:	1a650513          	addi	a0,a0,422 # 80004200 <Nr+0x188>
    80004062:	e406                	sd	ra,8(sp)
    80004064:	93bff0ef          	jal	8000399e <printstr>
    80004068:	60a2                	ld	ra,8(sp)
    8000406a:	557d                	li	a0,-1
    8000406c:	0141                	addi	sp,sp,16
    8000406e:	8082                	ret
