
mainop_O2U4_NN.riscv:     file format elf64-littleriscv


Disassembly of section .text.init:

0000000080000000 <_start>:
    80000000:	4081                	li	ra,0
    80000002:	4101                	li	sp,0
    80000004:	4181                	li	gp,0
    80000006:	4201                	li	tp,0
    80000008:	4281                	li	t0,0
    8000000a:	4301                	li	t1,0
    8000000c:	4381                	li	t2,0
    8000000e:	4401                	li	s0,0
    80000010:	4481                	li	s1,0
    80000012:	4501                	li	a0,0
    80000014:	4581                	li	a1,0
    80000016:	4601                	li	a2,0
    80000018:	4681                	li	a3,0
    8000001a:	4701                	li	a4,0
    8000001c:	4781                	li	a5,0
    8000001e:	4801                	li	a6,0
    80000020:	4881                	li	a7,0
    80000022:	4901                	li	s2,0
    80000024:	4981                	li	s3,0
    80000026:	4a01                	li	s4,0
    80000028:	4a81                	li	s5,0
    8000002a:	4b01                	li	s6,0
    8000002c:	4b81                	li	s7,0
    8000002e:	4c01                	li	s8,0
    80000030:	4c81                	li	s9,0
    80000032:	4d01                	li	s10,0
    80000034:	4d81                	li	s11,0
    80000036:	4e01                	li	t3,0
    80000038:	4e81                	li	t4,0
    8000003a:	4f01                	li	t5,0
    8000003c:	4f81                	li	t6,0
    8000003e:	62f9                	lui	t0,0x1e
    80000040:	3002a073          	csrs	mstatus,t0
    80000044:	4285                	li	t0,1
    80000046:	02fe                	slli	t0,t0,0x1f
    80000048:	0002d863          	bgez	t0,80000058 <_start+0x58>
    8000004c:	4505                	li	a0,1
    8000004e:	00001297          	auipc	t0,0x1
    80000052:	faa2a923          	sw	a0,-78(t0) # 80001000 <tohost>
    80000056:	bfdd                	j	8000004c <_start+0x4c>
    80000058:	00000297          	auipc	t0,0x0
    8000005c:	09028293          	addi	t0,t0,144 # 800000e8 <_start+0xe8>
    80000060:	30529073          	csrw	mtvec,t0
    80000064:	00301073          	fscsr	zero
    80000068:	f0000053          	fmv.w.x	ft0,zero
    8000006c:	f00000d3          	fmv.w.x	ft1,zero
    80000070:	f0000153          	fmv.w.x	ft2,zero
    80000074:	f00001d3          	fmv.w.x	ft3,zero
    80000078:	f0000253          	fmv.w.x	ft4,zero
    8000007c:	f00002d3          	fmv.w.x	ft5,zero
    80000080:	f0000353          	fmv.w.x	ft6,zero
    80000084:	f00003d3          	fmv.w.x	ft7,zero
    80000088:	f0000453          	fmv.w.x	fs0,zero
    8000008c:	f00004d3          	fmv.w.x	fs1,zero
    80000090:	f0000553          	fmv.w.x	fa0,zero
    80000094:	f00005d3          	fmv.w.x	fa1,zero
    80000098:	f0000653          	fmv.w.x	fa2,zero
    8000009c:	f00006d3          	fmv.w.x	fa3,zero
    800000a0:	f0000753          	fmv.w.x	fa4,zero
    800000a4:	f00007d3          	fmv.w.x	fa5,zero
    800000a8:	f0000853          	fmv.w.x	fa6,zero
    800000ac:	f00008d3          	fmv.w.x	fa7,zero
    800000b0:	f0000953          	fmv.w.x	fs2,zero
    800000b4:	f00009d3          	fmv.w.x	fs3,zero
    800000b8:	f0000a53          	fmv.w.x	fs4,zero
    800000bc:	f0000ad3          	fmv.w.x	fs5,zero
    800000c0:	f0000b53          	fmv.w.x	fs6,zero
    800000c4:	f0000bd3          	fmv.w.x	fs7,zero
    800000c8:	f0000c53          	fmv.w.x	fs8,zero
    800000cc:	f0000cd3          	fmv.w.x	fs9,zero
    800000d0:	f0000d53          	fmv.w.x	fs10,zero
    800000d4:	f0000dd3          	fmv.w.x	fs11,zero
    800000d8:	f0000e53          	fmv.w.x	ft8,zero
    800000dc:	f0000ed3          	fmv.w.x	ft9,zero
    800000e0:	f0000f53          	fmv.w.x	ft10,zero
    800000e4:	f0000fd3          	fmv.w.x	ft11,zero
    800000e8:	00000297          	auipc	t0,0x0
    800000ec:	03c28293          	addi	t0,t0,60 # 80000124 <trap_entry>
    800000f0:	30529073          	csrw	mtvec,t0
    800000f4:	00006197          	auipc	gp,0x6
    800000f8:	ba418193          	addi	gp,gp,-1116 # 80005c98 <__global_pointer$>
    800000fc:	00007217          	auipc	tp,0x7
    80000100:	e8320213          	addi	tp,tp,-381 # 80006f7f <_end+0x3f>
    80000104:	fc027213          	andi	tp,tp,-64
    80000108:	f1402573          	csrr	a0,mhartid
    8000010c:	4585                	li	a1,1
    8000010e:	00b57063          	bgeu	a0,a1,8000010e <_start+0x10e>
    80000112:	00150113          	addi	sp,a0,1
    80000116:	0146                	slli	sp,sp,0x11
    80000118:	9112                	add	sp,sp,tp
    8000011a:	01151613          	slli	a2,a0,0x11
    8000011e:	9232                	add	tp,tp,a2
    80000120:	1f90406f          	j	80004b18 <_init>

0000000080000124 <trap_entry>:
    80000124:	716d                	addi	sp,sp,-272
    80000126:	e406                	sd	ra,8(sp)
    80000128:	e80a                	sd	sp,16(sp)
    8000012a:	ec0e                	sd	gp,24(sp)
    8000012c:	f012                	sd	tp,32(sp)
    8000012e:	f416                	sd	t0,40(sp)
    80000130:	f81a                	sd	t1,48(sp)
    80000132:	fc1e                	sd	t2,56(sp)
    80000134:	e0a2                	sd	s0,64(sp)
    80000136:	e4a6                	sd	s1,72(sp)
    80000138:	e8aa                	sd	a0,80(sp)
    8000013a:	ecae                	sd	a1,88(sp)
    8000013c:	f0b2                	sd	a2,96(sp)
    8000013e:	f4b6                	sd	a3,104(sp)
    80000140:	f8ba                	sd	a4,112(sp)
    80000142:	fcbe                	sd	a5,120(sp)
    80000144:	e142                	sd	a6,128(sp)
    80000146:	e546                	sd	a7,136(sp)
    80000148:	e94a                	sd	s2,144(sp)
    8000014a:	ed4e                	sd	s3,152(sp)
    8000014c:	f152                	sd	s4,160(sp)
    8000014e:	f556                	sd	s5,168(sp)
    80000150:	f95a                	sd	s6,176(sp)
    80000152:	fd5e                	sd	s7,184(sp)
    80000154:	e1e2                	sd	s8,192(sp)
    80000156:	e5e6                	sd	s9,200(sp)
    80000158:	e9ea                	sd	s10,208(sp)
    8000015a:	edee                	sd	s11,216(sp)
    8000015c:	f1f2                	sd	t3,224(sp)
    8000015e:	f5f6                	sd	t4,232(sp)
    80000160:	f9fa                	sd	t5,240(sp)
    80000162:	fdfe                	sd	t6,248(sp)
    80000164:	34202573          	csrr	a0,mcause
    80000168:	341025f3          	csrr	a1,mepc
    8000016c:	860a                	mv	a2,sp
    8000016e:	7e2040ef          	jal	80004950 <handle_trap>
    80000172:	34151073          	csrw	mepc,a0
    80000176:	6289                	lui	t0,0x2
    80000178:	8002829b          	addiw	t0,t0,-2048 # 1800 <buflen.1+0x17c0>
    8000017c:	3002a073          	csrs	mstatus,t0
    80000180:	60a2                	ld	ra,8(sp)
    80000182:	6142                	ld	sp,16(sp)
    80000184:	61e2                	ld	gp,24(sp)
    80000186:	7202                	ld	tp,32(sp)
    80000188:	72a2                	ld	t0,40(sp)
    8000018a:	7342                	ld	t1,48(sp)
    8000018c:	73e2                	ld	t2,56(sp)
    8000018e:	6406                	ld	s0,64(sp)
    80000190:	64a6                	ld	s1,72(sp)
    80000192:	6546                	ld	a0,80(sp)
    80000194:	65e6                	ld	a1,88(sp)
    80000196:	7606                	ld	a2,96(sp)
    80000198:	76a6                	ld	a3,104(sp)
    8000019a:	7746                	ld	a4,112(sp)
    8000019c:	77e6                	ld	a5,120(sp)
    8000019e:	680a                	ld	a6,128(sp)
    800001a0:	68aa                	ld	a7,136(sp)
    800001a2:	694a                	ld	s2,144(sp)
    800001a4:	69ea                	ld	s3,152(sp)
    800001a6:	7a0a                	ld	s4,160(sp)
    800001a8:	7aaa                	ld	s5,168(sp)
    800001aa:	7b4a                	ld	s6,176(sp)
    800001ac:	7bea                	ld	s7,184(sp)
    800001ae:	6c0e                	ld	s8,192(sp)
    800001b0:	6cae                	ld	s9,200(sp)
    800001b2:	6d4e                	ld	s10,208(sp)
    800001b4:	6dee                	ld	s11,216(sp)
    800001b6:	7e0e                	ld	t3,224(sp)
    800001b8:	7eae                	ld	t4,232(sp)
    800001ba:	7f4e                	ld	t5,240(sp)
    800001bc:	7fee                	ld	t6,248(sp)
    800001be:	6151                	addi	sp,sp,272
    800001c0:	30200073          	mret
    800001c4:	0000                	unimp

Disassembly of section .text:

0000000080002000 <d2ull>:
    80002000:	e2050553          	fmv.x.d	a0,fa0
    80002004:	8082                	ret

0000000080002006 <ull2d>:
    80002006:	f2050553          	fmv.d.x	fa0,a0
    8000200a:	8082                	ret

000000008000200c <KeyExpansion>:
    8000200c:	7119                	addi	sp,sp,-128
    8000200e:	fc86                	sd	ra,120(sp)
    80002010:	f8a2                	sd	s0,112(sp)
    80002012:	f4a6                	sd	s1,104(sp)
    80002014:	f0ca                	sd	s2,96(sp)
    80002016:	ecce                	sd	s3,88(sp)
    80002018:	e8d2                	sd	s4,80(sp)
    8000201a:	e4d6                	sd	s5,72(sp)
    8000201c:	e0da                	sd	s6,64(sp)
    8000201e:	fc5e                	sd	s7,56(sp)
    80002020:	f862                	sd	s8,48(sp)
    80002022:	f466                	sd	s9,40(sp)
    80002024:	f06a                	sd	s10,32(sp)
    80002026:	ec6e                	sd	s11,24(sp)
    80002028:	0505                	addi	a0,a0,1
    8000202a:	4641                	li	a2,16
    8000202c:	4681                	li	a3,0
    8000202e:	00d50733          	add	a4,a0,a3
    80002032:	fff70783          	lb	a5,-1(a4)
    80002036:	00d584b3          	add	s1,a1,a3
    8000203a:	00f48023          	sb	a5,0(s1)
    8000203e:	00070783          	lb	a5,0(a4)
    80002042:	00f480a3          	sb	a5,1(s1)
    80002046:	00170783          	lb	a5,1(a4)
    8000204a:	00f48123          	sb	a5,2(s1)
    8000204e:	00270703          	lb	a4,2(a4)
    80002052:	00e481a3          	sb	a4,3(s1)
    80002056:	0691                	addi	a3,a3,4
    80002058:	fcc69be3          	bne	a3,a2,8000202e <KeyExpansion+0x22>
    8000205c:	00c5c383          	lbu	t2,12(a1)
    80002060:	00d5c303          	lbu	t1,13(a1)
    80002064:	00e5c483          	lbu	s1,14(a1)
    80002068:	00f5c783          	lbu	a5,15(a1)
    8000206c:	00003297          	auipc	t0,0x3
    80002070:	28d28293          	addi	t0,t0,653 # 800052f9 <Rcon>
    80002074:	00128603          	lb	a2,1(t0)
    80002078:	00003517          	auipc	a0,0x3
    8000207c:	18150513          	addi	a0,a0,385 # 800051f9 <sbox>
    80002080:	006506b3          	add	a3,a0,t1
    80002084:	00068683          	lb	a3,0(a3)
    80002088:	8e35                	xor	a2,a2,a3
    8000208a:	007506b3          	add	a3,a0,t2
    8000208e:	00068683          	lb	a3,0(a3)
    80002092:	00f50733          	add	a4,a0,a5
    80002096:	883e                	mv	a6,a5
    80002098:	00070703          	lb	a4,0(a4)
    8000209c:	009507b3          	add	a5,a0,s1
    800020a0:	88a6                	mv	a7,s1
    800020a2:	00078783          	lb	a5,0(a5)
    800020a6:	00058483          	lb	s1,0(a1)
    800020aa:	00964ab3          	xor	s5,a2,s1
    800020ae:	01558823          	sb	s5,16(a1)
    800020b2:	00158483          	lb	s1,1(a1)
    800020b6:	0097cbb3          	xor	s7,a5,s1
    800020ba:	017588a3          	sb	s7,17(a1)
    800020be:	00258483          	lb	s1,2(a1)
    800020c2:	00974c33          	xor	s8,a4,s1
    800020c6:	01858923          	sb	s8,18(a1)
    800020ca:	00358483          	lb	s1,3(a1)
    800020ce:	8ea5                	xor	a3,a3,s1
    800020d0:	00d589a3          	sb	a3,19(a1)
    800020d4:	00458903          	lb	s2,4(a1)
    800020d8:	012ac4b3          	xor	s1,s5,s2
    800020dc:	00958a23          	sb	s1,20(a1)
    800020e0:	00558983          	lb	s3,5(a1)
    800020e4:	013bc433          	xor	s0,s7,s3
    800020e8:	00858aa3          	sb	s0,21(a1)
    800020ec:	00658a03          	lb	s4,6(a1)
    800020f0:	014c4633          	xor	a2,s8,s4
    800020f4:	00c58b23          	sb	a2,22(a1)
    800020f8:	00758b03          	lb	s6,7(a1)
    800020fc:	0166c7b3          	xor	a5,a3,s6
    80002100:	00f58ba3          	sb	a5,23(a1)
    80002104:	00858703          	lb	a4,8(a1)
    80002108:	00e4ce33          	xor	t3,s1,a4
    8000210c:	01c58c23          	sb	t3,24(a1)
    80002110:	00958703          	lb	a4,9(a1)
    80002114:	00e44eb3          	xor	t4,s0,a4
    80002118:	01d58ca3          	sb	t4,25(a1)
    8000211c:	00a58703          	lb	a4,10(a1)
    80002120:	00e64f33          	xor	t5,a2,a4
    80002124:	01e58d23          	sb	t5,26(a1)
    80002128:	00b58603          	lb	a2,11(a1)
    8000212c:	00c7cfb3          	xor	t6,a5,a2
    80002130:	01f58da3          	sb	t6,27(a1)
    80002134:	007e4633          	xor	a2,t3,t2
    80002138:	00c58e23          	sb	a2,28(a1)
    8000213c:	006ec733          	xor	a4,t4,t1
    80002140:	00e58ea3          	sb	a4,29(a1)
    80002144:	011f47b3          	xor	a5,t5,a7
    80002148:	8dc6                	mv	s11,a7
    8000214a:	e846                	sd	a7,16(sp)
    8000214c:	00f58f23          	sb	a5,30(a1)
    80002150:	010fc433          	xor	s0,t6,a6
    80002154:	88c2                	mv	a7,a6
    80002156:	00858fa3          	sb	s0,31(a1)
    8000215a:	00228483          	lb	s1,2(t0)
    8000215e:	0ff77713          	zext.b	a4,a4
    80002162:	972a                	add	a4,a4,a0
    80002164:	00070703          	lb	a4,0(a4)
    80002168:	8f25                	xor	a4,a4,s1
    8000216a:	0ff67613          	zext.b	a2,a2
    8000216e:	962a                	add	a2,a2,a0
    80002170:	00060483          	lb	s1,0(a2)
    80002174:	0ff47613          	zext.b	a2,s0
    80002178:	962a                	add	a2,a2,a0
    8000217a:	00060403          	lb	s0,0(a2)
    8000217e:	0ff7f613          	zext.b	a2,a5
    80002182:	962a                	add	a2,a2,a0
    80002184:	00060783          	lb	a5,0(a2)
    80002188:	01574ab3          	xor	s5,a4,s5
    8000218c:	03558023          	sb	s5,32(a1)
    80002190:	0177cbb3          	xor	s7,a5,s7
    80002194:	037580a3          	sb	s7,33(a1)
    80002198:	01844c33          	xor	s8,s0,s8
    8000219c:	03858123          	sb	s8,34(a1)
    800021a0:	00d4ccb3          	xor	s9,s1,a3
    800021a4:	039581a3          	sb	s9,35(a1)
    800021a8:	01274933          	xor	s2,a4,s2
    800021ac:	03258223          	sb	s2,36(a1)
    800021b0:	0137cd33          	xor	s10,a5,s3
    800021b4:	03a582a3          	sb	s10,37(a1)
    800021b8:	01444a33          	xor	s4,s0,s4
    800021bc:	03458323          	sb	s4,38(a1)
    800021c0:	0164c9b3          	xor	s3,s1,s6
    800021c4:	033583a3          	sb	s3,39(a1)
    800021c8:	01c94433          	xor	s0,s2,t3
    800021cc:	02858423          	sb	s0,40(a1)
    800021d0:	01dd4433          	xor	s0,s10,t4
    800021d4:	028584a3          	sb	s0,41(a1)
    800021d8:	01ea4433          	xor	s0,s4,t5
    800021dc:	02858523          	sb	s0,42(a1)
    800021e0:	01f9c433          	xor	s0,s3,t6
    800021e4:	028585a3          	sb	s0,43(a1)
    800021e8:	00794833          	xor	a6,s2,t2
    800021ec:	03058623          	sb	a6,44(a1)
    800021f0:	006d44b3          	xor	s1,s10,t1
    800021f4:	029586a3          	sb	s1,45(a1)
    800021f8:	01ba4db3          	xor	s11,s4,s11
    800021fc:	03b58723          	sb	s11,46(a1)
    80002200:	0119c0b3          	xor	ra,s3,a7
    80002204:	021587a3          	sb	ra,47(a1)
    80002208:	00328703          	lb	a4,3(t0)
    8000220c:	0ff4f793          	zext.b	a5,s1
    80002210:	97aa                	add	a5,a5,a0
    80002212:	00078783          	lb	a5,0(a5)
    80002216:	8f3d                	xor	a4,a4,a5
    80002218:	0ff87793          	zext.b	a5,a6
    8000221c:	97aa                	add	a5,a5,a0
    8000221e:	00078b03          	lb	s6,0(a5)
    80002222:	0ff0f793          	zext.b	a5,ra
    80002226:	97aa                	add	a5,a5,a0
    80002228:	00078783          	lb	a5,0(a5)
    8000222c:	0ffdf613          	zext.b	a2,s11
    80002230:	962a                	add	a2,a2,a0
    80002232:	00060603          	lb	a2,0(a2)
    80002236:	01574733          	xor	a4,a4,s5
    8000223a:	02e58823          	sb	a4,48(a1)
    8000223e:	01764ab3          	xor	s5,a2,s7
    80002242:	035588a3          	sb	s5,49(a1)
    80002246:	0187c7b3          	xor	a5,a5,s8
    8000224a:	02f58923          	sb	a5,50(a1)
    8000224e:	019b4b33          	xor	s6,s6,s9
    80002252:	036589a3          	sb	s6,51(a1)
    80002256:	01274433          	xor	s0,a4,s2
    8000225a:	02858a23          	sb	s0,52(a1)
    8000225e:	01aac433          	xor	s0,s5,s10
    80002262:	02858aa3          	sb	s0,53(a1)
    80002266:	0147c433          	xor	s0,a5,s4
    8000226a:	02858b23          	sb	s0,54(a1)
    8000226e:	013b4433          	xor	s0,s6,s3
    80002272:	02858ba3          	sb	s0,55(a1)
    80002276:	01c74e33          	xor	t3,a4,t3
    8000227a:	03c58c23          	sb	t3,56(a1)
    8000227e:	01daceb3          	xor	t4,s5,t4
    80002282:	03d58ca3          	sb	t4,57(a1)
    80002286:	01e7cf33          	xor	t5,a5,t5
    8000228a:	03e58d23          	sb	t5,58(a1)
    8000228e:	01fb4fb3          	xor	t6,s6,t6
    80002292:	03f58da3          	sb	t6,59(a1)
    80002296:	010e4433          	xor	s0,t3,a6
    8000229a:	02858e23          	sb	s0,60(a1)
    8000229e:	009ec4b3          	xor	s1,t4,s1
    800022a2:	02958ea3          	sb	s1,61(a1)
    800022a6:	01bf4633          	xor	a2,t5,s11
    800022aa:	02c58f23          	sb	a2,62(a1)
    800022ae:	001fc6b3          	xor	a3,t6,ra
    800022b2:	02d58fa3          	sb	a3,63(a1)
    800022b6:	8c96                	mv	s9,t0
    800022b8:	00428803          	lb	a6,4(t0)
    800022bc:	0ff4f493          	zext.b	s1,s1
    800022c0:	94aa                	add	s1,s1,a0
    800022c2:	00048483          	lb	s1,0(s1)
    800022c6:	009844b3          	xor	s1,a6,s1
    800022ca:	0ff47413          	zext.b	s0,s0
    800022ce:	942a                	add	s0,s0,a0
    800022d0:	00040403          	lb	s0,0(s0)
    800022d4:	0ff6f693          	zext.b	a3,a3
    800022d8:	96aa                	add	a3,a3,a0
    800022da:	00068683          	lb	a3,0(a3)
    800022de:	0ff67613          	zext.b	a2,a2
    800022e2:	962a                	add	a2,a2,a0
    800022e4:	00060603          	lb	a2,0(a2)
    800022e8:	00e4cc33          	xor	s8,s1,a4
    800022ec:	05858023          	sb	s8,64(a1)
    800022f0:	01564bb3          	xor	s7,a2,s5
    800022f4:	057580a3          	sb	s7,65(a1)
    800022f8:	00f6c2b3          	xor	t0,a3,a5
    800022fc:	04558123          	sb	t0,66(a1)
    80002300:	01644b33          	xor	s6,s0,s6
    80002304:	056581a3          	sb	s6,67(a1)
    80002308:	0124cab3          	xor	s5,s1,s2
    8000230c:	05558223          	sb	s5,68(a1)
    80002310:	01a64933          	xor	s2,a2,s10
    80002314:	052582a3          	sb	s2,69(a1)
    80002318:	0146ca33          	xor	s4,a3,s4
    8000231c:	05458323          	sb	s4,70(a1)
    80002320:	013449b3          	xor	s3,s0,s3
    80002324:	053583a3          	sb	s3,71(a1)
    80002328:	01cac733          	xor	a4,s5,t3
    8000232c:	04e58423          	sb	a4,72(a1)
    80002330:	01d94733          	xor	a4,s2,t4
    80002334:	04e584a3          	sb	a4,73(a1)
    80002338:	01ea4733          	xor	a4,s4,t5
    8000233c:	04e58523          	sb	a4,74(a1)
    80002340:	01f9c733          	xor	a4,s3,t6
    80002344:	04e585a3          	sb	a4,75(a1)
    80002348:	0074c3b3          	xor	t2,s1,t2
    8000234c:	04758623          	sb	t2,76(a1)
    80002350:	00664333          	xor	t1,a2,t1
    80002354:	046586a3          	sb	t1,77(a1)
    80002358:	6642                	ld	a2,16(sp)
    8000235a:	8e35                	xor	a2,a2,a3
    8000235c:	04c58723          	sb	a2,78(a1)
    80002360:	011444b3          	xor	s1,s0,a7
    80002364:	049587a3          	sb	s1,79(a1)
    80002368:	005c8703          	lb	a4,5(s9)
    8000236c:	8866                	mv	a6,s9
    8000236e:	0ff37693          	zext.b	a3,t1
    80002372:	96aa                	add	a3,a3,a0
    80002374:	00068683          	lb	a3,0(a3)
    80002378:	00d747b3          	xor	a5,a4,a3
    8000237c:	0ff3f693          	zext.b	a3,t2
    80002380:	96aa                	add	a3,a3,a0
    80002382:	00068c83          	lb	s9,0(a3)
    80002386:	0ff4f713          	zext.b	a4,s1
    8000238a:	88a6                	mv	a7,s1
    8000238c:	972a                	add	a4,a4,a0
    8000238e:	00070703          	lb	a4,0(a4)
    80002392:	0ff67413          	zext.b	s0,a2
    80002396:	86b2                	mv	a3,a2
    80002398:	942a                	add	s0,s0,a0
    8000239a:	00040403          	lb	s0,0(s0)
    8000239e:	0187cc33          	xor	s8,a5,s8
    800023a2:	05858823          	sb	s8,80(a1)
    800023a6:	01744433          	xor	s0,s0,s7
    800023aa:	048588a3          	sb	s0,81(a1)
    800023ae:	005744b3          	xor	s1,a4,t0
    800023b2:	04958923          	sb	s1,82(a1)
    800023b6:	016cccb3          	xor	s9,s9,s6
    800023ba:	059589a3          	sb	s9,83(a1)
    800023be:	015c4733          	xor	a4,s8,s5
    800023c2:	04e58a23          	sb	a4,84(a1)
    800023c6:	01244733          	xor	a4,s0,s2
    800023ca:	04e58aa3          	sb	a4,85(a1)
    800023ce:	0144c733          	xor	a4,s1,s4
    800023d2:	04e58b23          	sb	a4,86(a1)
    800023d6:	013cc733          	xor	a4,s9,s3
    800023da:	04e58ba3          	sb	a4,87(a1)
    800023de:	01cc4b33          	xor	s6,s8,t3
    800023e2:	05658c23          	sb	s6,88(a1)
    800023e6:	01d44bb3          	xor	s7,s0,t4
    800023ea:	05758ca3          	sb	s7,89(a1)
    800023ee:	01e4ce33          	xor	t3,s1,t5
    800023f2:	05c58d23          	sb	t3,90(a1)
    800023f6:	01fcceb3          	xor	t4,s9,t6
    800023fa:	05d58da3          	sb	t4,91(a1)
    800023fe:	007b4733          	xor	a4,s6,t2
    80002402:	04e58e23          	sb	a4,92(a1)
    80002406:	006bc7b3          	xor	a5,s7,t1
    8000240a:	04f58ea3          	sb	a5,93(a1)
    8000240e:	00ce4633          	xor	a2,t3,a2
    80002412:	8db6                	mv	s11,a3
    80002414:	e436                	sd	a3,8(sp)
    80002416:	04c58f23          	sb	a2,94(a1)
    8000241a:	011ec6b3          	xor	a3,t4,a7
    8000241e:	82c6                	mv	t0,a7
    80002420:	e846                	sd	a7,16(sp)
    80002422:	04d58fa3          	sb	a3,95(a1)
    80002426:	00680f03          	lb	t5,6(a6)
    8000242a:	88c2                	mv	a7,a6
    8000242c:	0ff7f793          	zext.b	a5,a5
    80002430:	97aa                	add	a5,a5,a0
    80002432:	00078783          	lb	a5,0(a5)
    80002436:	00ff47b3          	xor	a5,t5,a5
    8000243a:	0ff77713          	zext.b	a4,a4
    8000243e:	972a                	add	a4,a4,a0
    80002440:	00070703          	lb	a4,0(a4)
    80002444:	0ff6f693          	zext.b	a3,a3
    80002448:	96aa                	add	a3,a3,a0
    8000244a:	00068683          	lb	a3,0(a3)
    8000244e:	0ff67613          	zext.b	a2,a2
    80002452:	962a                	add	a2,a2,a0
    80002454:	00060603          	lb	a2,0(a2)
    80002458:	0187cf33          	xor	t5,a5,s8
    8000245c:	07e58023          	sb	t5,96(a1)
    80002460:	00864fb3          	xor	t6,a2,s0
    80002464:	07f580a3          	sb	t6,97(a1)
    80002468:	0096cc33          	xor	s8,a3,s1
    8000246c:	07858123          	sb	s8,98(a1)
    80002470:	01974cb3          	xor	s9,a4,s9
    80002474:	079581a3          	sb	s9,99(a1)
    80002478:	0157cab3          	xor	s5,a5,s5
    8000247c:	07558223          	sb	s5,100(a1)
    80002480:	01264d33          	xor	s10,a2,s2
    80002484:	07a582a3          	sb	s10,101(a1)
    80002488:	0146c933          	xor	s2,a3,s4
    8000248c:	07258323          	sb	s2,102(a1)
    80002490:	013749b3          	xor	s3,a4,s3
    80002494:	073583a3          	sb	s3,103(a1)
    80002498:	016ac733          	xor	a4,s5,s6
    8000249c:	06e58423          	sb	a4,104(a1)
    800024a0:	017d4733          	xor	a4,s10,s7
    800024a4:	06e584a3          	sb	a4,105(a1)
    800024a8:	01c94733          	xor	a4,s2,t3
    800024ac:	06e58523          	sb	a4,106(a1)
    800024b0:	01d9c733          	xor	a4,s3,t4
    800024b4:	06e585a3          	sb	a4,107(a1)
    800024b8:	007ac833          	xor	a6,s5,t2
    800024bc:	07058623          	sb	a6,108(a1)
    800024c0:	006d47b3          	xor	a5,s10,t1
    800024c4:	06f586a3          	sb	a5,109(a1)
    800024c8:	01b94db3          	xor	s11,s2,s11
    800024cc:	07b58723          	sb	s11,110(a1)
    800024d0:	0059c0b3          	xor	ra,s3,t0
    800024d4:	061587a3          	sb	ra,111(a1)
    800024d8:	00788403          	lb	s0,7(a7)
    800024dc:	0ff7f493          	zext.b	s1,a5
    800024e0:	94aa                	add	s1,s1,a0
    800024e2:	00048483          	lb	s1,0(s1)
    800024e6:	8c25                	xor	s0,s0,s1
    800024e8:	0ff87493          	zext.b	s1,a6
    800024ec:	94aa                	add	s1,s1,a0
    800024ee:	00048a03          	lb	s4,0(s1)
    800024f2:	0ff0f493          	zext.b	s1,ra
    800024f6:	94aa                	add	s1,s1,a0
    800024f8:	00048483          	lb	s1,0(s1)
    800024fc:	0ffdf613          	zext.b	a2,s11
    80002500:	962a                	add	a2,a2,a0
    80002502:	00060603          	lb	a2,0(a2)
    80002506:	01e44433          	xor	s0,s0,t5
    8000250a:	06858823          	sb	s0,112(a1)
    8000250e:	01f64633          	xor	a2,a2,t6
    80002512:	06c588a3          	sb	a2,113(a1)
    80002516:	0184cc33          	xor	s8,s1,s8
    8000251a:	07858923          	sb	s8,114(a1)
    8000251e:	019a4a33          	xor	s4,s4,s9
    80002522:	074589a3          	sb	s4,115(a1)
    80002526:	01544733          	xor	a4,s0,s5
    8000252a:	06e58a23          	sb	a4,116(a1)
    8000252e:	01a64733          	xor	a4,a2,s10
    80002532:	06e58aa3          	sb	a4,117(a1)
    80002536:	012c4733          	xor	a4,s8,s2
    8000253a:	06e58b23          	sb	a4,118(a1)
    8000253e:	013a4733          	xor	a4,s4,s3
    80002542:	06e58ba3          	sb	a4,119(a1)
    80002546:	01644f33          	xor	t5,s0,s6
    8000254a:	07e58c23          	sb	t5,120(a1)
    8000254e:	01764fb3          	xor	t6,a2,s7
    80002552:	07f58ca3          	sb	t6,121(a1)
    80002556:	01cc4e33          	xor	t3,s8,t3
    8000255a:	07c58d23          	sb	t3,122(a1)
    8000255e:	01da4eb3          	xor	t4,s4,t4
    80002562:	07d58da3          	sb	t4,123(a1)
    80002566:	010f4733          	xor	a4,t5,a6
    8000256a:	06e58e23          	sb	a4,124(a1)
    8000256e:	00ffc7b3          	xor	a5,t6,a5
    80002572:	06f58ea3          	sb	a5,125(a1)
    80002576:	01be46b3          	xor	a3,t3,s11
    8000257a:	06d58f23          	sb	a3,126(a1)
    8000257e:	001ec4b3          	xor	s1,t4,ra
    80002582:	06958fa3          	sb	s1,127(a1)
    80002586:	00888803          	lb	a6,8(a7)
    8000258a:	0ff7f793          	zext.b	a5,a5
    8000258e:	97aa                	add	a5,a5,a0
    80002590:	00078783          	lb	a5,0(a5)
    80002594:	00f847b3          	xor	a5,a6,a5
    80002598:	0ff77713          	zext.b	a4,a4
    8000259c:	972a                	add	a4,a4,a0
    8000259e:	00070703          	lb	a4,0(a4)
    800025a2:	0ff4f493          	zext.b	s1,s1
    800025a6:	94aa                	add	s1,s1,a0
    800025a8:	00048483          	lb	s1,0(s1)
    800025ac:	0ff6f693          	zext.b	a3,a3
    800025b0:	96aa                	add	a3,a3,a0
    800025b2:	00068683          	lb	a3,0(a3)
    800025b6:	0087cb33          	xor	s6,a5,s0
    800025ba:	09658023          	sb	s6,128(a1)
    800025be:	00c6cbb3          	xor	s7,a3,a2
    800025c2:	097580a3          	sb	s7,129(a1)
    800025c6:	0184cc33          	xor	s8,s1,s8
    800025ca:	09858123          	sb	s8,130(a1)
    800025ce:	01474cb3          	xor	s9,a4,s4
    800025d2:	099581a3          	sb	s9,131(a1)
    800025d6:	0157cdb3          	xor	s11,a5,s5
    800025da:	09b58223          	sb	s11,132(a1)
    800025de:	01a6ca33          	xor	s4,a3,s10
    800025e2:	094582a3          	sb	s4,133(a1)
    800025e6:	0124cab3          	xor	s5,s1,s2
    800025ea:	09558323          	sb	s5,134(a1)
    800025ee:	01374933          	xor	s2,a4,s3
    800025f2:	092583a3          	sb	s2,135(a1)
    800025f6:	01edc633          	xor	a2,s11,t5
    800025fa:	08c58423          	sb	a2,136(a1)
    800025fe:	01fa4633          	xor	a2,s4,t6
    80002602:	08c584a3          	sb	a2,137(a1)
    80002606:	01cac633          	xor	a2,s5,t3
    8000260a:	08c58523          	sb	a2,138(a1)
    8000260e:	01d94633          	xor	a2,s2,t4
    80002612:	08c585a3          	sb	a2,139(a1)
    80002616:	0077c3b3          	xor	t2,a5,t2
    8000261a:	08758623          	sb	t2,140(a1)
    8000261e:	0066c333          	xor	t1,a3,t1
    80002622:	086586a3          	sb	t1,141(a1)
    80002626:	6622                	ld	a2,8(sp)
    80002628:	00c4c2b3          	xor	t0,s1,a2
    8000262c:	08558723          	sb	t0,142(a1)
    80002630:	6642                	ld	a2,16(sp)
    80002632:	00c74833          	xor	a6,a4,a2
    80002636:	090587a3          	sb	a6,143(a1)
    8000263a:	00988603          	lb	a2,9(a7)
    8000263e:	80c6                	mv	ra,a7
    80002640:	0ff37693          	zext.b	a3,t1
    80002644:	96aa                	add	a3,a3,a0
    80002646:	00068683          	lb	a3,0(a3)
    8000264a:	8e35                	xor	a2,a2,a3
    8000264c:	0ff3f693          	zext.b	a3,t2
    80002650:	96aa                	add	a3,a3,a0
    80002652:	00068683          	lb	a3,0(a3)
    80002656:	0ff87713          	zext.b	a4,a6
    8000265a:	972a                	add	a4,a4,a0
    8000265c:	00070703          	lb	a4,0(a4)
    80002660:	0ff2f793          	zext.b	a5,t0
    80002664:	97aa                	add	a5,a5,a0
    80002666:	00078783          	lb	a5,0(a5)
    8000266a:	01664b33          	xor	s6,a2,s6
    8000266e:	09658823          	sb	s6,144(a1)
    80002672:	0177c7b3          	xor	a5,a5,s7
    80002676:	08f588a3          	sb	a5,145(a1)
    8000267a:	01874733          	xor	a4,a4,s8
    8000267e:	08e58923          	sb	a4,146(a1)
    80002682:	0196cbb3          	xor	s7,a3,s9
    80002686:	097589a3          	sb	s7,147(a1)
    8000268a:	01bb44b3          	xor	s1,s6,s11
    8000268e:	08958a23          	sb	s1,148(a1)
    80002692:	0147c4b3          	xor	s1,a5,s4
    80002696:	08958aa3          	sb	s1,149(a1)
    8000269a:	015744b3          	xor	s1,a4,s5
    8000269e:	08958b23          	sb	s1,150(a1)
    800026a2:	012bc4b3          	xor	s1,s7,s2
    800026a6:	08958ba3          	sb	s1,151(a1)
    800026aa:	01eb49b3          	xor	s3,s6,t5
    800026ae:	09358c23          	sb	s3,152(a1)
    800026b2:	01f7cf33          	xor	t5,a5,t6
    800026b6:	09e58ca3          	sb	t5,153(a1)
    800026ba:	01c748b3          	xor	a7,a4,t3
    800026be:	09158d23          	sb	a7,154(a1)
    800026c2:	01dbce33          	xor	t3,s7,t4
    800026c6:	09c58da3          	sb	t3,155(a1)
    800026ca:	0079c433          	xor	s0,s3,t2
    800026ce:	08858e23          	sb	s0,156(a1)
    800026d2:	006f44b3          	xor	s1,t5,t1
    800026d6:	08958ea3          	sb	s1,157(a1)
    800026da:	0058c633          	xor	a2,a7,t0
    800026de:	08c58f23          	sb	a2,158(a1)
    800026e2:	010e46b3          	xor	a3,t3,a6
    800026e6:	08d58fa3          	sb	a3,159(a1)
    800026ea:	00a08e83          	lb	t4,10(ra)
    800026ee:	0ff4f493          	zext.b	s1,s1
    800026f2:	94aa                	add	s1,s1,a0
    800026f4:	00048483          	lb	s1,0(s1)
    800026f8:	009ec4b3          	xor	s1,t4,s1
    800026fc:	0ff47413          	zext.b	s0,s0
    80002700:	942a                	add	s0,s0,a0
    80002702:	00040403          	lb	s0,0(s0)
    80002706:	0ff6f693          	zext.b	a3,a3
    8000270a:	96aa                	add	a3,a3,a0
    8000270c:	00068683          	lb	a3,0(a3)
    80002710:	0ff67613          	zext.b	a2,a2
    80002714:	9532                	add	a0,a0,a2
    80002716:	00050503          	lb	a0,0(a0)
    8000271a:	0164c633          	xor	a2,s1,s6
    8000271e:	0ac58023          	sb	a2,160(a1)
    80002722:	00f54633          	xor	a2,a0,a5
    80002726:	0ac580a3          	sb	a2,161(a1)
    8000272a:	00e6c633          	xor	a2,a3,a4
    8000272e:	0ac58123          	sb	a2,162(a1)
    80002732:	01744633          	xor	a2,s0,s7
    80002736:	0ac581a3          	sb	a2,163(a1)
    8000273a:	01b4c633          	xor	a2,s1,s11
    8000273e:	0ac58223          	sb	a2,164(a1)
    80002742:	01454533          	xor	a0,a0,s4
    80002746:	0aa582a3          	sb	a0,165(a1)
    8000274a:	0156c6b3          	xor	a3,a3,s5
    8000274e:	0ad58323          	sb	a3,166(a1)
    80002752:	01244733          	xor	a4,s0,s2
    80002756:	0ae583a3          	sb	a4,167(a1)
    8000275a:	013647b3          	xor	a5,a2,s3
    8000275e:	0af58423          	sb	a5,168(a1)
    80002762:	01e547b3          	xor	a5,a0,t5
    80002766:	0af584a3          	sb	a5,169(a1)
    8000276a:	0116c7b3          	xor	a5,a3,a7
    8000276e:	0af58523          	sb	a5,170(a1)
    80002772:	01c747b3          	xor	a5,a4,t3
    80002776:	0af585a3          	sb	a5,171(a1)
    8000277a:	00764633          	xor	a2,a2,t2
    8000277e:	0ac58623          	sb	a2,172(a1)
    80002782:	00654533          	xor	a0,a0,t1
    80002786:	0aa586a3          	sb	a0,173(a1)
    8000278a:	0056c533          	xor	a0,a3,t0
    8000278e:	0aa58723          	sb	a0,174(a1)
    80002792:	01074533          	xor	a0,a4,a6
    80002796:	0aa587a3          	sb	a0,175(a1)
    8000279a:	70e6                	ld	ra,120(sp)
    8000279c:	7446                	ld	s0,112(sp)
    8000279e:	74a6                	ld	s1,104(sp)
    800027a0:	7906                	ld	s2,96(sp)
    800027a2:	69e6                	ld	s3,88(sp)
    800027a4:	6a46                	ld	s4,80(sp)
    800027a6:	6aa6                	ld	s5,72(sp)
    800027a8:	6b06                	ld	s6,64(sp)
    800027aa:	7be2                	ld	s7,56(sp)
    800027ac:	7c42                	ld	s8,48(sp)
    800027ae:	7ca2                	ld	s9,40(sp)
    800027b0:	7d02                	ld	s10,32(sp)
    800027b2:	6de2                	ld	s11,24(sp)
    800027b4:	6109                	addi	sp,sp,128
    800027b6:	8082                	ret

00000000800027b8 <AES_Encrypt>:
    800027b8:	7179                	addi	sp,sp,-48
    800027ba:	f406                	sd	ra,40(sp)
    800027bc:	f022                	sd	s0,32(sp)
    800027be:	ec26                	sd	s1,24(sp)
    800027c0:	e84a                	sd	s2,16(sp)
    800027c2:	e44e                	sd	s3,8(sp)
    800027c4:	89b6                	mv	s3,a3
    800027c6:	8932                	mv	s2,a2
    800027c8:	84aa                	mv	s1,a0
    800027ca:	00003417          	auipc	s0,0x3
    800027ce:	d0e40413          	addi	s0,s0,-754 # 800054d8 <expandedKey>
    800027d2:	852e                	mv	a0,a1
    800027d4:	85a2                	mv	a1,s0
    800027d6:	00000097          	auipc	ra,0x0
    800027da:	836080e7          	jalr	-1994(ra) # 8000200c <KeyExpansion>
    800027de:	4541                	li	a0,16
    800027e0:	00a9d463          	bge	s3,a0,800027e8 <AES_Encrypt+0x30>
    800027e4:	54d0106f          	j	80004530 <AES_Encrypt+0x1d78>
    800027e8:	00199513          	slli	a0,s3,0x1
    800027ec:	9171                	srli	a0,a0,0x3c
    800027ee:	00a9853b          	addw	a0,s3,a0
    800027f2:	4045551b          	sraiw	a0,a0,0x4
    800027f6:	02051893          	slli	a7,a0,0x20
    800027fa:	0208d613          	srli	a2,a7,0x20
    800027fe:	46bd                	li	a3,15
    80002800:	00003517          	auipc	a0,0x3
    80002804:	cc050513          	addi	a0,a0,-832 # 800054c0 <pstate>
    80002808:	00d48733          	add	a4,s1,a3
    8000280c:	ff170583          	lb	a1,-15(a4)
    80002810:	00040783          	lb	a5,0(s0)
    80002814:	8dbd                	xor	a1,a1,a5
    80002816:	611c                	ld	a5,0(a0)
    80002818:	97b6                	add	a5,a5,a3
    8000281a:	feb788a3          	sb	a1,-15(a5)
    8000281e:	ff270583          	lb	a1,-14(a4)
    80002822:	00140783          	lb	a5,1(s0)
    80002826:	8dbd                	xor	a1,a1,a5
    80002828:	611c                	ld	a5,0(a0)
    8000282a:	97b6                	add	a5,a5,a3
    8000282c:	feb78aa3          	sb	a1,-11(a5)
    80002830:	ff370583          	lb	a1,-13(a4)
    80002834:	00240783          	lb	a5,2(s0)
    80002838:	8dbd                	xor	a1,a1,a5
    8000283a:	611c                	ld	a5,0(a0)
    8000283c:	97b6                	add	a5,a5,a3
    8000283e:	feb78ca3          	sb	a1,-7(a5)
    80002842:	ff470583          	lb	a1,-12(a4)
    80002846:	00340783          	lb	a5,3(s0)
    8000284a:	8dbd                	xor	a1,a1,a5
    8000284c:	611c                	ld	a5,0(a0)
    8000284e:	97b6                	add	a5,a5,a3
    80002850:	feb78ea3          	sb	a1,-3(a5)
    80002854:	ff570583          	lb	a1,-11(a4)
    80002858:	00440783          	lb	a5,4(s0)
    8000285c:	8dbd                	xor	a1,a1,a5
    8000285e:	611c                	ld	a5,0(a0)
    80002860:	97b6                	add	a5,a5,a3
    80002862:	feb78923          	sb	a1,-14(a5)
    80002866:	ff670583          	lb	a1,-10(a4)
    8000286a:	00540783          	lb	a5,5(s0)
    8000286e:	8dbd                	xor	a1,a1,a5
    80002870:	611c                	ld	a5,0(a0)
    80002872:	97b6                	add	a5,a5,a3
    80002874:	feb78b23          	sb	a1,-10(a5)
    80002878:	ff770583          	lb	a1,-9(a4)
    8000287c:	00640783          	lb	a5,6(s0)
    80002880:	8dbd                	xor	a1,a1,a5
    80002882:	611c                	ld	a5,0(a0)
    80002884:	97b6                	add	a5,a5,a3
    80002886:	feb78d23          	sb	a1,-6(a5)
    8000288a:	ff870583          	lb	a1,-8(a4)
    8000288e:	00740783          	lb	a5,7(s0)
    80002892:	8dbd                	xor	a1,a1,a5
    80002894:	611c                	ld	a5,0(a0)
    80002896:	97b6                	add	a5,a5,a3
    80002898:	feb78f23          	sb	a1,-2(a5)
    8000289c:	ff970583          	lb	a1,-7(a4)
    800028a0:	00840783          	lb	a5,8(s0)
    800028a4:	8dbd                	xor	a1,a1,a5
    800028a6:	611c                	ld	a5,0(a0)
    800028a8:	97b6                	add	a5,a5,a3
    800028aa:	feb789a3          	sb	a1,-13(a5)
    800028ae:	ffa70583          	lb	a1,-6(a4)
    800028b2:	00940783          	lb	a5,9(s0)
    800028b6:	8dbd                	xor	a1,a1,a5
    800028b8:	611c                	ld	a5,0(a0)
    800028ba:	97b6                	add	a5,a5,a3
    800028bc:	feb78ba3          	sb	a1,-9(a5)
    800028c0:	ffb70583          	lb	a1,-5(a4)
    800028c4:	00a40783          	lb	a5,10(s0)
    800028c8:	8dbd                	xor	a1,a1,a5
    800028ca:	611c                	ld	a5,0(a0)
    800028cc:	97b6                	add	a5,a5,a3
    800028ce:	feb78da3          	sb	a1,-5(a5)
    800028d2:	ffc70583          	lb	a1,-4(a4)
    800028d6:	00b40783          	lb	a5,11(s0)
    800028da:	8dbd                	xor	a1,a1,a5
    800028dc:	611c                	ld	a5,0(a0)
    800028de:	97b6                	add	a5,a5,a3
    800028e0:	feb78fa3          	sb	a1,-1(a5)
    800028e4:	ffd70583          	lb	a1,-3(a4)
    800028e8:	00c40783          	lb	a5,12(s0)
    800028ec:	8dbd                	xor	a1,a1,a5
    800028ee:	611c                	ld	a5,0(a0)
    800028f0:	97b6                	add	a5,a5,a3
    800028f2:	feb78a23          	sb	a1,-12(a5)
    800028f6:	ffe70583          	lb	a1,-2(a4)
    800028fa:	00d40783          	lb	a5,13(s0)
    800028fe:	8dbd                	xor	a1,a1,a5
    80002900:	611c                	ld	a5,0(a0)
    80002902:	97b6                	add	a5,a5,a3
    80002904:	feb78c23          	sb	a1,-8(a5)
    80002908:	fff70583          	lb	a1,-1(a4)
    8000290c:	00e40783          	lb	a5,14(s0)
    80002910:	8dbd                	xor	a1,a1,a5
    80002912:	611c                	ld	a5,0(a0)
    80002914:	97b6                	add	a5,a5,a3
    80002916:	feb78e23          	sb	a1,-4(a5)
    8000291a:	00070583          	lb	a1,0(a4)
    8000291e:	00f40703          	lb	a4,15(s0)
    80002922:	8db9                	xor	a1,a1,a4
    80002924:	6118                	ld	a4,0(a0)
    80002926:	9736                	add	a4,a4,a3
    80002928:	00b70023          	sb	a1,0(a4)
    8000292c:	167d                	addi	a2,a2,-1
    8000292e:	06c1                	addi	a3,a3,16
    80002930:	ec061ce3          	bnez	a2,80002808 <AES_Encrypt+0x50>
    80002934:	45c1                	li	a1,16
    80002936:	00b9d463          	bge	s3,a1,8000293e <AES_Encrypt+0x186>
    8000293a:	3f70106f          	j	80004530 <AES_Encrypt+0x1d78>
    8000293e:	00003817          	auipc	a6,0x3
    80002942:	b8a80813          	addi	a6,a6,-1142 # 800054c8 <pullstate>
    80002946:	00083583          	ld	a1,0(a6)
    8000294a:	0208d693          	srli	a3,a7,0x20
    8000294e:	fff68713          	addi	a4,a3,-1
    80002952:	02058793          	addi	a5,a1,32
    80002956:	4485                	li	s1,1
    80002958:	4309                	li	t1,2
    8000295a:	52fd                	li	t0,-1
    8000295c:	fe07b583          	ld	a1,-32(a5)
    80002960:	fe87b603          	ld	a2,-24(a5)
    80002964:	40c585fb          	.insn	4, 0x40c585fb
    80002968:	08b5962b          	.insn	4, 0x08b5962b
    8000296c:	feb7b023          	sd	a1,-32(a5)
    80002970:	fec7b423          	sd	a2,-24(a5)
    80002974:	c731                	beqz	a4,800029c0 <AES_Encrypt+0x208>
    80002976:	ff07b583          	ld	a1,-16(a5)
    8000297a:	ff87b603          	ld	a2,-8(a5)
    8000297e:	40c585fb          	.insn	4, 0x40c585fb
    80002982:	08b5962b          	.insn	4, 0x08b5962b
    80002986:	feb7b823          	sd	a1,-16(a5)
    8000298a:	fec7bc23          	sd	a2,-8(a5)
    8000298e:	02970963          	beq	a4,s1,800029c0 <AES_Encrypt+0x208>
    80002992:	638c                	ld	a1,0(a5)
    80002994:	6790                	ld	a2,8(a5)
    80002996:	40c585fb          	.insn	4, 0x40c585fb
    8000299a:	08b5962b          	.insn	4, 0x08b5962b
    8000299e:	e38c                	sd	a1,0(a5)
    800029a0:	e790                	sd	a2,8(a5)
    800029a2:	00670f63          	beq	a4,t1,800029c0 <AES_Encrypt+0x208>
    800029a6:	6b8c                	ld	a1,16(a5)
    800029a8:	6f90                	ld	a2,24(a5)
    800029aa:	40c585fb          	.insn	4, 0x40c585fb
    800029ae:	08b5962b          	.insn	4, 0x08b5962b
    800029b2:	eb8c                	sd	a1,16(a5)
    800029b4:	ef90                	sd	a2,24(a5)
    800029b6:	1771                	addi	a4,a4,-4
    800029b8:	04078793          	addi	a5,a5,64
    800029bc:	fa5710e3          	bne	a4,t0,8000295c <AES_Encrypt+0x1a4>
    800029c0:	45c1                	li	a1,16
    800029c2:	00b9d463          	bge	s3,a1,800029ca <AES_Encrypt+0x212>
    800029c6:	36b0106f          	j	80004530 <AES_Encrypt+0x1d78>
    800029ca:	00083583          	ld	a1,0(a6)
    800029ce:	fff68713          	addi	a4,a3,-1
    800029d2:	02058793          	addi	a5,a1,32
    800029d6:	4485                	li	s1,1
    800029d8:	4309                	li	t1,2
    800029da:	52fd                	li	t0,-1
    800029dc:	fe07b583          	ld	a1,-32(a5)
    800029e0:	fe87b603          	ld	a2,-24(a5)
    800029e4:	20c585fb          	.insn	4, 0x20c585fb
    800029e8:	04b5962b          	.insn	4, 0x04b5962b
    800029ec:	feb7b023          	sd	a1,-32(a5)
    800029f0:	fec7b423          	sd	a2,-24(a5)
    800029f4:	c731                	beqz	a4,80002a40 <AES_Encrypt+0x288>
    800029f6:	ff07b583          	ld	a1,-16(a5)
    800029fa:	ff87b603          	ld	a2,-8(a5)
    800029fe:	20c585fb          	.insn	4, 0x20c585fb
    80002a02:	04b5962b          	.insn	4, 0x04b5962b
    80002a06:	feb7b823          	sd	a1,-16(a5)
    80002a0a:	fec7bc23          	sd	a2,-8(a5)
    80002a0e:	02970963          	beq	a4,s1,80002a40 <AES_Encrypt+0x288>
    80002a12:	638c                	ld	a1,0(a5)
    80002a14:	6790                	ld	a2,8(a5)
    80002a16:	20c585fb          	.insn	4, 0x20c585fb
    80002a1a:	04b5962b          	.insn	4, 0x04b5962b
    80002a1e:	e38c                	sd	a1,0(a5)
    80002a20:	e790                	sd	a2,8(a5)
    80002a22:	00670f63          	beq	a4,t1,80002a40 <AES_Encrypt+0x288>
    80002a26:	6b8c                	ld	a1,16(a5)
    80002a28:	6f90                	ld	a2,24(a5)
    80002a2a:	20c585fb          	.insn	4, 0x20c585fb
    80002a2e:	04b5962b          	.insn	4, 0x04b5962b
    80002a32:	eb8c                	sd	a1,16(a5)
    80002a34:	ef90                	sd	a2,24(a5)
    80002a36:	1771                	addi	a4,a4,-4
    80002a38:	04078793          	addi	a5,a5,64
    80002a3c:	fa5710e3          	bne	a4,t0,800029dc <AES_Encrypt+0x224>
    80002a40:	45c1                	li	a1,16
    80002a42:	00b9d463          	bge	s3,a1,80002a4a <AES_Encrypt+0x292>
    80002a46:	2eb0106f          	j	80004530 <AES_Encrypt+0x1d78>
    80002a4a:	00083583          	ld	a1,0(a6)
    80002a4e:	fff68713          	addi	a4,a3,-1
    80002a52:	02058793          	addi	a5,a1,32
    80002a56:	4485                	li	s1,1
    80002a58:	4309                	li	t1,2
    80002a5a:	52fd                	li	t0,-1
    80002a5c:	fe07b583          	ld	a1,-32(a5)
    80002a60:	fe87b603          	ld	a2,-24(a5)
    80002a64:	00c585fb          	.insn	4, 0x00c585fb
    80002a68:	00b5962b          	.insn	4, 0x00b5962b
    80002a6c:	feb7b023          	sd	a1,-32(a5)
    80002a70:	fec7b423          	sd	a2,-24(a5)
    80002a74:	c731                	beqz	a4,80002ac0 <AES_Encrypt+0x308>
    80002a76:	ff07b583          	ld	a1,-16(a5)
    80002a7a:	ff87b603          	ld	a2,-8(a5)
    80002a7e:	00c585fb          	.insn	4, 0x00c585fb
    80002a82:	00b5962b          	.insn	4, 0x00b5962b
    80002a86:	feb7b823          	sd	a1,-16(a5)
    80002a8a:	fec7bc23          	sd	a2,-8(a5)
    80002a8e:	02970963          	beq	a4,s1,80002ac0 <AES_Encrypt+0x308>
    80002a92:	638c                	ld	a1,0(a5)
    80002a94:	6790                	ld	a2,8(a5)
    80002a96:	00c585fb          	.insn	4, 0x00c585fb
    80002a9a:	00b5962b          	.insn	4, 0x00b5962b
    80002a9e:	e38c                	sd	a1,0(a5)
    80002aa0:	e790                	sd	a2,8(a5)
    80002aa2:	00670f63          	beq	a4,t1,80002ac0 <AES_Encrypt+0x308>
    80002aa6:	6b8c                	ld	a1,16(a5)
    80002aa8:	6f90                	ld	a2,24(a5)
    80002aaa:	00c585fb          	.insn	4, 0x00c585fb
    80002aae:	00b5962b          	.insn	4, 0x00b5962b
    80002ab2:	eb8c                	sd	a1,16(a5)
    80002ab4:	ef90                	sd	a2,24(a5)
    80002ab6:	1771                	addi	a4,a4,-4
    80002ab8:	04078793          	addi	a5,a5,64
    80002abc:	fa5710e3          	bne	a4,t0,80002a5c <AES_Encrypt+0x2a4>
    80002ac0:	45c1                	li	a1,16
    80002ac2:	00b9d463          	bge	s3,a1,80002aca <AES_Encrypt+0x312>
    80002ac6:	26b0106f          	j	80004530 <AES_Encrypt+0x1d78>
    80002aca:	473d                	li	a4,15
    80002acc:	01040583          	lb	a1,16(s0)
    80002ad0:	6110                	ld	a2,0(a0)
    80002ad2:	963a                	add	a2,a2,a4
    80002ad4:	ff160783          	lb	a5,-15(a2)
    80002ad8:	8dbd                	xor	a1,a1,a5
    80002ada:	feb608a3          	sb	a1,-15(a2)
    80002ade:	01140583          	lb	a1,17(s0)
    80002ae2:	6110                	ld	a2,0(a0)
    80002ae4:	963a                	add	a2,a2,a4
    80002ae6:	ff260783          	lb	a5,-14(a2)
    80002aea:	8dbd                	xor	a1,a1,a5
    80002aec:	feb60923          	sb	a1,-14(a2)
    80002af0:	01240583          	lb	a1,18(s0)
    80002af4:	6110                	ld	a2,0(a0)
    80002af6:	963a                	add	a2,a2,a4
    80002af8:	ff360783          	lb	a5,-13(a2)
    80002afc:	8dbd                	xor	a1,a1,a5
    80002afe:	feb609a3          	sb	a1,-13(a2)
    80002b02:	01340583          	lb	a1,19(s0)
    80002b06:	6110                	ld	a2,0(a0)
    80002b08:	963a                	add	a2,a2,a4
    80002b0a:	ff460783          	lb	a5,-12(a2)
    80002b0e:	8dbd                	xor	a1,a1,a5
    80002b10:	feb60a23          	sb	a1,-12(a2)
    80002b14:	01440583          	lb	a1,20(s0)
    80002b18:	6110                	ld	a2,0(a0)
    80002b1a:	963a                	add	a2,a2,a4
    80002b1c:	ff560783          	lb	a5,-11(a2)
    80002b20:	8dbd                	xor	a1,a1,a5
    80002b22:	feb60aa3          	sb	a1,-11(a2)
    80002b26:	01540583          	lb	a1,21(s0)
    80002b2a:	6110                	ld	a2,0(a0)
    80002b2c:	963a                	add	a2,a2,a4
    80002b2e:	ff660783          	lb	a5,-10(a2)
    80002b32:	8dbd                	xor	a1,a1,a5
    80002b34:	feb60b23          	sb	a1,-10(a2)
    80002b38:	01640583          	lb	a1,22(s0)
    80002b3c:	6110                	ld	a2,0(a0)
    80002b3e:	963a                	add	a2,a2,a4
    80002b40:	ff760783          	lb	a5,-9(a2)
    80002b44:	8dbd                	xor	a1,a1,a5
    80002b46:	feb60ba3          	sb	a1,-9(a2)
    80002b4a:	01740583          	lb	a1,23(s0)
    80002b4e:	6110                	ld	a2,0(a0)
    80002b50:	963a                	add	a2,a2,a4
    80002b52:	ff860783          	lb	a5,-8(a2)
    80002b56:	8dbd                	xor	a1,a1,a5
    80002b58:	feb60c23          	sb	a1,-8(a2)
    80002b5c:	01840583          	lb	a1,24(s0)
    80002b60:	6110                	ld	a2,0(a0)
    80002b62:	963a                	add	a2,a2,a4
    80002b64:	ff960783          	lb	a5,-7(a2)
    80002b68:	8dbd                	xor	a1,a1,a5
    80002b6a:	feb60ca3          	sb	a1,-7(a2)
    80002b6e:	01940583          	lb	a1,25(s0)
    80002b72:	6110                	ld	a2,0(a0)
    80002b74:	963a                	add	a2,a2,a4
    80002b76:	ffa60783          	lb	a5,-6(a2)
    80002b7a:	8dbd                	xor	a1,a1,a5
    80002b7c:	feb60d23          	sb	a1,-6(a2)
    80002b80:	01a40583          	lb	a1,26(s0)
    80002b84:	6110                	ld	a2,0(a0)
    80002b86:	963a                	add	a2,a2,a4
    80002b88:	ffb60783          	lb	a5,-5(a2)
    80002b8c:	8dbd                	xor	a1,a1,a5
    80002b8e:	feb60da3          	sb	a1,-5(a2)
    80002b92:	01b40583          	lb	a1,27(s0)
    80002b96:	6110                	ld	a2,0(a0)
    80002b98:	963a                	add	a2,a2,a4
    80002b9a:	ffc60783          	lb	a5,-4(a2)
    80002b9e:	8dbd                	xor	a1,a1,a5
    80002ba0:	feb60e23          	sb	a1,-4(a2)
    80002ba4:	01c40583          	lb	a1,28(s0)
    80002ba8:	6110                	ld	a2,0(a0)
    80002baa:	963a                	add	a2,a2,a4
    80002bac:	ffd60783          	lb	a5,-3(a2)
    80002bb0:	8dbd                	xor	a1,a1,a5
    80002bb2:	feb60ea3          	sb	a1,-3(a2)
    80002bb6:	01d40583          	lb	a1,29(s0)
    80002bba:	6110                	ld	a2,0(a0)
    80002bbc:	963a                	add	a2,a2,a4
    80002bbe:	ffe60783          	lb	a5,-2(a2)
    80002bc2:	8dbd                	xor	a1,a1,a5
    80002bc4:	feb60f23          	sb	a1,-2(a2)
    80002bc8:	01e40583          	lb	a1,30(s0)
    80002bcc:	6110                	ld	a2,0(a0)
    80002bce:	963a                	add	a2,a2,a4
    80002bd0:	fff60783          	lb	a5,-1(a2)
    80002bd4:	8dbd                	xor	a1,a1,a5
    80002bd6:	feb60fa3          	sb	a1,-1(a2)
    80002bda:	01f40583          	lb	a1,31(s0)
    80002bde:	6110                	ld	a2,0(a0)
    80002be0:	963a                	add	a2,a2,a4
    80002be2:	00060783          	lb	a5,0(a2)
    80002be6:	8dbd                	xor	a1,a1,a5
    80002be8:	00b60023          	sb	a1,0(a2)
    80002bec:	16fd                	addi	a3,a3,-1
    80002bee:	0741                	addi	a4,a4,16
    80002bf0:	ec069ee3          	bnez	a3,80002acc <AES_Encrypt+0x314>
    80002bf4:	45c1                	li	a1,16
    80002bf6:	00b9d463          	bge	s3,a1,80002bfe <AES_Encrypt+0x446>
    80002bfa:	1370106f          	j	80004530 <AES_Encrypt+0x1d78>
    80002bfe:	00083583          	ld	a1,0(a6)
    80002c02:	0208d693          	srli	a3,a7,0x20
    80002c06:	fff68713          	addi	a4,a3,-1
    80002c0a:	02058793          	addi	a5,a1,32
    80002c0e:	4605                	li	a2,1
    80002c10:	4309                	li	t1,2
    80002c12:	52fd                	li	t0,-1
    80002c14:	fe07b483          	ld	s1,-32(a5)
    80002c18:	fe87b583          	ld	a1,-24(a5)
    80002c1c:	40b485fb          	.insn	4, 0x40b485fb
    80002c20:	08b594ab          	.insn	4, 0x08b594ab
    80002c24:	feb7b023          	sd	a1,-32(a5)
    80002c28:	fe97b423          	sd	s1,-24(a5)
    80002c2c:	c731                	beqz	a4,80002c78 <AES_Encrypt+0x4c0>
    80002c2e:	ff07b583          	ld	a1,-16(a5)
    80002c32:	ff87b483          	ld	s1,-8(a5)
    80002c36:	409585fb          	.insn	4, 0x409585fb
    80002c3a:	08b594ab          	.insn	4, 0x08b594ab
    80002c3e:	feb7b823          	sd	a1,-16(a5)
    80002c42:	fe97bc23          	sd	s1,-8(a5)
    80002c46:	02c70963          	beq	a4,a2,80002c78 <AES_Encrypt+0x4c0>
    80002c4a:	638c                	ld	a1,0(a5)
    80002c4c:	6784                	ld	s1,8(a5)
    80002c4e:	409585fb          	.insn	4, 0x409585fb
    80002c52:	08b594ab          	.insn	4, 0x08b594ab
    80002c56:	e38c                	sd	a1,0(a5)
    80002c58:	e784                	sd	s1,8(a5)
    80002c5a:	00670f63          	beq	a4,t1,80002c78 <AES_Encrypt+0x4c0>
    80002c5e:	6b8c                	ld	a1,16(a5)
    80002c60:	6f84                	ld	s1,24(a5)
    80002c62:	409585fb          	.insn	4, 0x409585fb
    80002c66:	08b594ab          	.insn	4, 0x08b594ab
    80002c6a:	eb8c                	sd	a1,16(a5)
    80002c6c:	ef84                	sd	s1,24(a5)
    80002c6e:	1771                	addi	a4,a4,-4
    80002c70:	04078793          	addi	a5,a5,64
    80002c74:	fa5710e3          	bne	a4,t0,80002c14 <AES_Encrypt+0x45c>
    80002c78:	45c1                	li	a1,16
    80002c7a:	00b9d463          	bge	s3,a1,80002c82 <AES_Encrypt+0x4ca>
    80002c7e:	0b30106f          	j	80004530 <AES_Encrypt+0x1d78>
    80002c82:	00083583          	ld	a1,0(a6)
    80002c86:	fff68713          	addi	a4,a3,-1
    80002c8a:	02058793          	addi	a5,a1,32
    80002c8e:	4605                	li	a2,1
    80002c90:	4309                	li	t1,2
    80002c92:	52fd                	li	t0,-1
    80002c94:	fe07b483          	ld	s1,-32(a5)
    80002c98:	fe87b583          	ld	a1,-24(a5)
    80002c9c:	20b485fb          	.insn	4, 0x20b485fb
    80002ca0:	04b594ab          	.insn	4, 0x04b594ab
    80002ca4:	feb7b023          	sd	a1,-32(a5)
    80002ca8:	fe97b423          	sd	s1,-24(a5)
    80002cac:	c731                	beqz	a4,80002cf8 <AES_Encrypt+0x540>
    80002cae:	ff07b583          	ld	a1,-16(a5)
    80002cb2:	ff87b483          	ld	s1,-8(a5)
    80002cb6:	209585fb          	.insn	4, 0x209585fb
    80002cba:	04b594ab          	.insn	4, 0x04b594ab
    80002cbe:	feb7b823          	sd	a1,-16(a5)
    80002cc2:	fe97bc23          	sd	s1,-8(a5)
    80002cc6:	02c70963          	beq	a4,a2,80002cf8 <AES_Encrypt+0x540>
    80002cca:	638c                	ld	a1,0(a5)
    80002ccc:	6784                	ld	s1,8(a5)
    80002cce:	209585fb          	.insn	4, 0x209585fb
    80002cd2:	04b594ab          	.insn	4, 0x04b594ab
    80002cd6:	e38c                	sd	a1,0(a5)
    80002cd8:	e784                	sd	s1,8(a5)
    80002cda:	00670f63          	beq	a4,t1,80002cf8 <AES_Encrypt+0x540>
    80002cde:	6b8c                	ld	a1,16(a5)
    80002ce0:	6f84                	ld	s1,24(a5)
    80002ce2:	209585fb          	.insn	4, 0x209585fb
    80002ce6:	04b594ab          	.insn	4, 0x04b594ab
    80002cea:	eb8c                	sd	a1,16(a5)
    80002cec:	ef84                	sd	s1,24(a5)
    80002cee:	1771                	addi	a4,a4,-4
    80002cf0:	04078793          	addi	a5,a5,64
    80002cf4:	fa5710e3          	bne	a4,t0,80002c94 <AES_Encrypt+0x4dc>
    80002cf8:	45c1                	li	a1,16
    80002cfa:	00b9d463          	bge	s3,a1,80002d02 <AES_Encrypt+0x54a>
    80002cfe:	0330106f          	j	80004530 <AES_Encrypt+0x1d78>
    80002d02:	00083583          	ld	a1,0(a6)
    80002d06:	fff68713          	addi	a4,a3,-1
    80002d0a:	02058793          	addi	a5,a1,32
    80002d0e:	4605                	li	a2,1
    80002d10:	4309                	li	t1,2
    80002d12:	52fd                	li	t0,-1
    80002d14:	fe07b483          	ld	s1,-32(a5)
    80002d18:	fe87b583          	ld	a1,-24(a5)
    80002d1c:	00b485fb          	.insn	4, 0x00b485fb
    80002d20:	00b594ab          	.insn	4, 0x00b594ab
    80002d24:	feb7b023          	sd	a1,-32(a5)
    80002d28:	fe97b423          	sd	s1,-24(a5)
    80002d2c:	c731                	beqz	a4,80002d78 <AES_Encrypt+0x5c0>
    80002d2e:	ff07b583          	ld	a1,-16(a5)
    80002d32:	ff87b483          	ld	s1,-8(a5)
    80002d36:	009585fb          	.insn	4, 0x009585fb
    80002d3a:	00b594ab          	.insn	4, 0x00b594ab
    80002d3e:	feb7b823          	sd	a1,-16(a5)
    80002d42:	fe97bc23          	sd	s1,-8(a5)
    80002d46:	02c70963          	beq	a4,a2,80002d78 <AES_Encrypt+0x5c0>
    80002d4a:	638c                	ld	a1,0(a5)
    80002d4c:	6784                	ld	s1,8(a5)
    80002d4e:	009585fb          	.insn	4, 0x009585fb
    80002d52:	00b594ab          	.insn	4, 0x00b594ab
    80002d56:	e38c                	sd	a1,0(a5)
    80002d58:	e784                	sd	s1,8(a5)
    80002d5a:	00670f63          	beq	a4,t1,80002d78 <AES_Encrypt+0x5c0>
    80002d5e:	6b8c                	ld	a1,16(a5)
    80002d60:	6f84                	ld	s1,24(a5)
    80002d62:	009585fb          	.insn	4, 0x009585fb
    80002d66:	00b594ab          	.insn	4, 0x00b594ab
    80002d6a:	eb8c                	sd	a1,16(a5)
    80002d6c:	ef84                	sd	s1,24(a5)
    80002d6e:	1771                	addi	a4,a4,-4
    80002d70:	04078793          	addi	a5,a5,64
    80002d74:	fa5710e3          	bne	a4,t0,80002d14 <AES_Encrypt+0x55c>
    80002d78:	45c1                	li	a1,16
    80002d7a:	00b9d463          	bge	s3,a1,80002d82 <AES_Encrypt+0x5ca>
    80002d7e:	7b20106f          	j	80004530 <AES_Encrypt+0x1d78>
    80002d82:	473d                	li	a4,15
    80002d84:	02040583          	lb	a1,32(s0)
    80002d88:	6110                	ld	a2,0(a0)
    80002d8a:	963a                	add	a2,a2,a4
    80002d8c:	ff160783          	lb	a5,-15(a2)
    80002d90:	8dbd                	xor	a1,a1,a5
    80002d92:	feb608a3          	sb	a1,-15(a2)
    80002d96:	02140583          	lb	a1,33(s0)
    80002d9a:	6110                	ld	a2,0(a0)
    80002d9c:	963a                	add	a2,a2,a4
    80002d9e:	ff260783          	lb	a5,-14(a2)
    80002da2:	8dbd                	xor	a1,a1,a5
    80002da4:	feb60923          	sb	a1,-14(a2)
    80002da8:	02240583          	lb	a1,34(s0)
    80002dac:	6110                	ld	a2,0(a0)
    80002dae:	963a                	add	a2,a2,a4
    80002db0:	ff360783          	lb	a5,-13(a2)
    80002db4:	8dbd                	xor	a1,a1,a5
    80002db6:	feb609a3          	sb	a1,-13(a2)
    80002dba:	02340583          	lb	a1,35(s0)
    80002dbe:	6110                	ld	a2,0(a0)
    80002dc0:	963a                	add	a2,a2,a4
    80002dc2:	ff460783          	lb	a5,-12(a2)
    80002dc6:	8dbd                	xor	a1,a1,a5
    80002dc8:	feb60a23          	sb	a1,-12(a2)
    80002dcc:	02440583          	lb	a1,36(s0)
    80002dd0:	6110                	ld	a2,0(a0)
    80002dd2:	963a                	add	a2,a2,a4
    80002dd4:	ff560783          	lb	a5,-11(a2)
    80002dd8:	8dbd                	xor	a1,a1,a5
    80002dda:	feb60aa3          	sb	a1,-11(a2)
    80002dde:	02540583          	lb	a1,37(s0)
    80002de2:	6110                	ld	a2,0(a0)
    80002de4:	963a                	add	a2,a2,a4
    80002de6:	ff660783          	lb	a5,-10(a2)
    80002dea:	8dbd                	xor	a1,a1,a5
    80002dec:	feb60b23          	sb	a1,-10(a2)
    80002df0:	02640583          	lb	a1,38(s0)
    80002df4:	6110                	ld	a2,0(a0)
    80002df6:	963a                	add	a2,a2,a4
    80002df8:	ff760783          	lb	a5,-9(a2)
    80002dfc:	8dbd                	xor	a1,a1,a5
    80002dfe:	feb60ba3          	sb	a1,-9(a2)
    80002e02:	02740583          	lb	a1,39(s0)
    80002e06:	6110                	ld	a2,0(a0)
    80002e08:	963a                	add	a2,a2,a4
    80002e0a:	ff860783          	lb	a5,-8(a2)
    80002e0e:	8dbd                	xor	a1,a1,a5
    80002e10:	feb60c23          	sb	a1,-8(a2)
    80002e14:	02840583          	lb	a1,40(s0)
    80002e18:	6110                	ld	a2,0(a0)
    80002e1a:	963a                	add	a2,a2,a4
    80002e1c:	ff960783          	lb	a5,-7(a2)
    80002e20:	8dbd                	xor	a1,a1,a5
    80002e22:	feb60ca3          	sb	a1,-7(a2)
    80002e26:	02940583          	lb	a1,41(s0)
    80002e2a:	6110                	ld	a2,0(a0)
    80002e2c:	963a                	add	a2,a2,a4
    80002e2e:	ffa60783          	lb	a5,-6(a2)
    80002e32:	8dbd                	xor	a1,a1,a5
    80002e34:	feb60d23          	sb	a1,-6(a2)
    80002e38:	02a40583          	lb	a1,42(s0)
    80002e3c:	6110                	ld	a2,0(a0)
    80002e3e:	963a                	add	a2,a2,a4
    80002e40:	ffb60783          	lb	a5,-5(a2)
    80002e44:	8dbd                	xor	a1,a1,a5
    80002e46:	feb60da3          	sb	a1,-5(a2)
    80002e4a:	02b40583          	lb	a1,43(s0)
    80002e4e:	6110                	ld	a2,0(a0)
    80002e50:	963a                	add	a2,a2,a4
    80002e52:	ffc60783          	lb	a5,-4(a2)
    80002e56:	8dbd                	xor	a1,a1,a5
    80002e58:	feb60e23          	sb	a1,-4(a2)
    80002e5c:	02c40583          	lb	a1,44(s0)
    80002e60:	6110                	ld	a2,0(a0)
    80002e62:	963a                	add	a2,a2,a4
    80002e64:	ffd60783          	lb	a5,-3(a2)
    80002e68:	8dbd                	xor	a1,a1,a5
    80002e6a:	feb60ea3          	sb	a1,-3(a2)
    80002e6e:	02d40583          	lb	a1,45(s0)
    80002e72:	6110                	ld	a2,0(a0)
    80002e74:	963a                	add	a2,a2,a4
    80002e76:	ffe60783          	lb	a5,-2(a2)
    80002e7a:	8dbd                	xor	a1,a1,a5
    80002e7c:	feb60f23          	sb	a1,-2(a2)
    80002e80:	02e40583          	lb	a1,46(s0)
    80002e84:	6110                	ld	a2,0(a0)
    80002e86:	963a                	add	a2,a2,a4
    80002e88:	fff60783          	lb	a5,-1(a2)
    80002e8c:	8dbd                	xor	a1,a1,a5
    80002e8e:	feb60fa3          	sb	a1,-1(a2)
    80002e92:	02f40583          	lb	a1,47(s0)
    80002e96:	6110                	ld	a2,0(a0)
    80002e98:	963a                	add	a2,a2,a4
    80002e9a:	00060783          	lb	a5,0(a2)
    80002e9e:	8dbd                	xor	a1,a1,a5
    80002ea0:	00b60023          	sb	a1,0(a2)
    80002ea4:	16fd                	addi	a3,a3,-1
    80002ea6:	0741                	addi	a4,a4,16
    80002ea8:	ec069ee3          	bnez	a3,80002d84 <AES_Encrypt+0x5cc>
    80002eac:	45c1                	li	a1,16
    80002eae:	00b9d463          	bge	s3,a1,80002eb6 <AES_Encrypt+0x6fe>
    80002eb2:	67e0106f          	j	80004530 <AES_Encrypt+0x1d78>
    80002eb6:	00083583          	ld	a1,0(a6)
    80002eba:	0208d693          	srli	a3,a7,0x20
    80002ebe:	fff68713          	addi	a4,a3,-1
    80002ec2:	02058793          	addi	a5,a1,32
    80002ec6:	4605                	li	a2,1
    80002ec8:	4309                	li	t1,2
    80002eca:	52fd                	li	t0,-1
    80002ecc:	fe07b483          	ld	s1,-32(a5)
    80002ed0:	fe87b583          	ld	a1,-24(a5)
    80002ed4:	40b485fb          	.insn	4, 0x40b485fb
    80002ed8:	08b594ab          	.insn	4, 0x08b594ab
    80002edc:	feb7b023          	sd	a1,-32(a5)
    80002ee0:	fe97b423          	sd	s1,-24(a5)
    80002ee4:	c731                	beqz	a4,80002f30 <AES_Encrypt+0x778>
    80002ee6:	ff07b583          	ld	a1,-16(a5)
    80002eea:	ff87b483          	ld	s1,-8(a5)
    80002eee:	409585fb          	.insn	4, 0x409585fb
    80002ef2:	08b594ab          	.insn	4, 0x08b594ab
    80002ef6:	feb7b823          	sd	a1,-16(a5)
    80002efa:	fe97bc23          	sd	s1,-8(a5)
    80002efe:	02c70963          	beq	a4,a2,80002f30 <AES_Encrypt+0x778>
    80002f02:	638c                	ld	a1,0(a5)
    80002f04:	6784                	ld	s1,8(a5)
    80002f06:	409585fb          	.insn	4, 0x409585fb
    80002f0a:	08b594ab          	.insn	4, 0x08b594ab
    80002f0e:	e38c                	sd	a1,0(a5)
    80002f10:	e784                	sd	s1,8(a5)
    80002f12:	00670f63          	beq	a4,t1,80002f30 <AES_Encrypt+0x778>
    80002f16:	6b8c                	ld	a1,16(a5)
    80002f18:	6f84                	ld	s1,24(a5)
    80002f1a:	409585fb          	.insn	4, 0x409585fb
    80002f1e:	08b594ab          	.insn	4, 0x08b594ab
    80002f22:	eb8c                	sd	a1,16(a5)
    80002f24:	ef84                	sd	s1,24(a5)
    80002f26:	1771                	addi	a4,a4,-4
    80002f28:	04078793          	addi	a5,a5,64
    80002f2c:	fa5710e3          	bne	a4,t0,80002ecc <AES_Encrypt+0x714>
    80002f30:	45c1                	li	a1,16
    80002f32:	00b9d463          	bge	s3,a1,80002f3a <AES_Encrypt+0x782>
    80002f36:	5fa0106f          	j	80004530 <AES_Encrypt+0x1d78>
    80002f3a:	00083583          	ld	a1,0(a6)
    80002f3e:	fff68713          	addi	a4,a3,-1
    80002f42:	02058793          	addi	a5,a1,32
    80002f46:	4605                	li	a2,1
    80002f48:	4309                	li	t1,2
    80002f4a:	52fd                	li	t0,-1
    80002f4c:	fe07b483          	ld	s1,-32(a5)
    80002f50:	fe87b583          	ld	a1,-24(a5)
    80002f54:	20b485fb          	.insn	4, 0x20b485fb
    80002f58:	04b594ab          	.insn	4, 0x04b594ab
    80002f5c:	feb7b023          	sd	a1,-32(a5)
    80002f60:	fe97b423          	sd	s1,-24(a5)
    80002f64:	c731                	beqz	a4,80002fb0 <AES_Encrypt+0x7f8>
    80002f66:	ff07b583          	ld	a1,-16(a5)
    80002f6a:	ff87b483          	ld	s1,-8(a5)
    80002f6e:	209585fb          	.insn	4, 0x209585fb
    80002f72:	04b594ab          	.insn	4, 0x04b594ab
    80002f76:	feb7b823          	sd	a1,-16(a5)
    80002f7a:	fe97bc23          	sd	s1,-8(a5)
    80002f7e:	02c70963          	beq	a4,a2,80002fb0 <AES_Encrypt+0x7f8>
    80002f82:	638c                	ld	a1,0(a5)
    80002f84:	6784                	ld	s1,8(a5)
    80002f86:	209585fb          	.insn	4, 0x209585fb
    80002f8a:	04b594ab          	.insn	4, 0x04b594ab
    80002f8e:	e38c                	sd	a1,0(a5)
    80002f90:	e784                	sd	s1,8(a5)
    80002f92:	00670f63          	beq	a4,t1,80002fb0 <AES_Encrypt+0x7f8>
    80002f96:	6b8c                	ld	a1,16(a5)
    80002f98:	6f84                	ld	s1,24(a5)
    80002f9a:	209585fb          	.insn	4, 0x209585fb
    80002f9e:	04b594ab          	.insn	4, 0x04b594ab
    80002fa2:	eb8c                	sd	a1,16(a5)
    80002fa4:	ef84                	sd	s1,24(a5)
    80002fa6:	1771                	addi	a4,a4,-4
    80002fa8:	04078793          	addi	a5,a5,64
    80002fac:	fa5710e3          	bne	a4,t0,80002f4c <AES_Encrypt+0x794>
    80002fb0:	45c1                	li	a1,16
    80002fb2:	00b9d463          	bge	s3,a1,80002fba <AES_Encrypt+0x802>
    80002fb6:	57a0106f          	j	80004530 <AES_Encrypt+0x1d78>
    80002fba:	00083583          	ld	a1,0(a6)
    80002fbe:	fff68713          	addi	a4,a3,-1
    80002fc2:	02058793          	addi	a5,a1,32
    80002fc6:	4605                	li	a2,1
    80002fc8:	4309                	li	t1,2
    80002fca:	52fd                	li	t0,-1
    80002fcc:	fe07b483          	ld	s1,-32(a5)
    80002fd0:	fe87b583          	ld	a1,-24(a5)
    80002fd4:	00b485fb          	.insn	4, 0x00b485fb
    80002fd8:	00b594ab          	.insn	4, 0x00b594ab
    80002fdc:	feb7b023          	sd	a1,-32(a5)
    80002fe0:	fe97b423          	sd	s1,-24(a5)
    80002fe4:	c731                	beqz	a4,80003030 <AES_Encrypt+0x878>
    80002fe6:	ff07b583          	ld	a1,-16(a5)
    80002fea:	ff87b483          	ld	s1,-8(a5)
    80002fee:	009585fb          	.insn	4, 0x009585fb
    80002ff2:	00b594ab          	.insn	4, 0x00b594ab
    80002ff6:	feb7b823          	sd	a1,-16(a5)
    80002ffa:	fe97bc23          	sd	s1,-8(a5)
    80002ffe:	02c70963          	beq	a4,a2,80003030 <AES_Encrypt+0x878>
    80003002:	638c                	ld	a1,0(a5)
    80003004:	6784                	ld	s1,8(a5)
    80003006:	009585fb          	.insn	4, 0x009585fb
    8000300a:	00b594ab          	.insn	4, 0x00b594ab
    8000300e:	e38c                	sd	a1,0(a5)
    80003010:	e784                	sd	s1,8(a5)
    80003012:	00670f63          	beq	a4,t1,80003030 <AES_Encrypt+0x878>
    80003016:	6b8c                	ld	a1,16(a5)
    80003018:	6f84                	ld	s1,24(a5)
    8000301a:	009585fb          	.insn	4, 0x009585fb
    8000301e:	00b594ab          	.insn	4, 0x00b594ab
    80003022:	eb8c                	sd	a1,16(a5)
    80003024:	ef84                	sd	s1,24(a5)
    80003026:	1771                	addi	a4,a4,-4
    80003028:	04078793          	addi	a5,a5,64
    8000302c:	fa5710e3          	bne	a4,t0,80002fcc <AES_Encrypt+0x814>
    80003030:	45c1                	li	a1,16
    80003032:	00b9d463          	bge	s3,a1,8000303a <AES_Encrypt+0x882>
    80003036:	4fa0106f          	j	80004530 <AES_Encrypt+0x1d78>
    8000303a:	473d                	li	a4,15
    8000303c:	03040583          	lb	a1,48(s0)
    80003040:	6110                	ld	a2,0(a0)
    80003042:	963a                	add	a2,a2,a4
    80003044:	ff160783          	lb	a5,-15(a2)
    80003048:	8dbd                	xor	a1,a1,a5
    8000304a:	feb608a3          	sb	a1,-15(a2)
    8000304e:	03140583          	lb	a1,49(s0)
    80003052:	6110                	ld	a2,0(a0)
    80003054:	963a                	add	a2,a2,a4
    80003056:	ff260783          	lb	a5,-14(a2)
    8000305a:	8dbd                	xor	a1,a1,a5
    8000305c:	feb60923          	sb	a1,-14(a2)
    80003060:	03240583          	lb	a1,50(s0)
    80003064:	6110                	ld	a2,0(a0)
    80003066:	963a                	add	a2,a2,a4
    80003068:	ff360783          	lb	a5,-13(a2)
    8000306c:	8dbd                	xor	a1,a1,a5
    8000306e:	feb609a3          	sb	a1,-13(a2)
    80003072:	03340583          	lb	a1,51(s0)
    80003076:	6110                	ld	a2,0(a0)
    80003078:	963a                	add	a2,a2,a4
    8000307a:	ff460783          	lb	a5,-12(a2)
    8000307e:	8dbd                	xor	a1,a1,a5
    80003080:	feb60a23          	sb	a1,-12(a2)
    80003084:	03440583          	lb	a1,52(s0)
    80003088:	6110                	ld	a2,0(a0)
    8000308a:	963a                	add	a2,a2,a4
    8000308c:	ff560783          	lb	a5,-11(a2)
    80003090:	8dbd                	xor	a1,a1,a5
    80003092:	feb60aa3          	sb	a1,-11(a2)
    80003096:	03540583          	lb	a1,53(s0)
    8000309a:	6110                	ld	a2,0(a0)
    8000309c:	963a                	add	a2,a2,a4
    8000309e:	ff660783          	lb	a5,-10(a2)
    800030a2:	8dbd                	xor	a1,a1,a5
    800030a4:	feb60b23          	sb	a1,-10(a2)
    800030a8:	03640583          	lb	a1,54(s0)
    800030ac:	6110                	ld	a2,0(a0)
    800030ae:	963a                	add	a2,a2,a4
    800030b0:	ff760783          	lb	a5,-9(a2)
    800030b4:	8dbd                	xor	a1,a1,a5
    800030b6:	feb60ba3          	sb	a1,-9(a2)
    800030ba:	03740583          	lb	a1,55(s0)
    800030be:	6110                	ld	a2,0(a0)
    800030c0:	963a                	add	a2,a2,a4
    800030c2:	ff860783          	lb	a5,-8(a2)
    800030c6:	8dbd                	xor	a1,a1,a5
    800030c8:	feb60c23          	sb	a1,-8(a2)
    800030cc:	03840583          	lb	a1,56(s0)
    800030d0:	6110                	ld	a2,0(a0)
    800030d2:	963a                	add	a2,a2,a4
    800030d4:	ff960783          	lb	a5,-7(a2)
    800030d8:	8dbd                	xor	a1,a1,a5
    800030da:	feb60ca3          	sb	a1,-7(a2)
    800030de:	03940583          	lb	a1,57(s0)
    800030e2:	6110                	ld	a2,0(a0)
    800030e4:	963a                	add	a2,a2,a4
    800030e6:	ffa60783          	lb	a5,-6(a2)
    800030ea:	8dbd                	xor	a1,a1,a5
    800030ec:	feb60d23          	sb	a1,-6(a2)
    800030f0:	03a40583          	lb	a1,58(s0)
    800030f4:	6110                	ld	a2,0(a0)
    800030f6:	963a                	add	a2,a2,a4
    800030f8:	ffb60783          	lb	a5,-5(a2)
    800030fc:	8dbd                	xor	a1,a1,a5
    800030fe:	feb60da3          	sb	a1,-5(a2)
    80003102:	03b40583          	lb	a1,59(s0)
    80003106:	6110                	ld	a2,0(a0)
    80003108:	963a                	add	a2,a2,a4
    8000310a:	ffc60783          	lb	a5,-4(a2)
    8000310e:	8dbd                	xor	a1,a1,a5
    80003110:	feb60e23          	sb	a1,-4(a2)
    80003114:	03c40583          	lb	a1,60(s0)
    80003118:	6110                	ld	a2,0(a0)
    8000311a:	963a                	add	a2,a2,a4
    8000311c:	ffd60783          	lb	a5,-3(a2)
    80003120:	8dbd                	xor	a1,a1,a5
    80003122:	feb60ea3          	sb	a1,-3(a2)
    80003126:	03d40583          	lb	a1,61(s0)
    8000312a:	6110                	ld	a2,0(a0)
    8000312c:	963a                	add	a2,a2,a4
    8000312e:	ffe60783          	lb	a5,-2(a2)
    80003132:	8dbd                	xor	a1,a1,a5
    80003134:	feb60f23          	sb	a1,-2(a2)
    80003138:	03e40583          	lb	a1,62(s0)
    8000313c:	6110                	ld	a2,0(a0)
    8000313e:	963a                	add	a2,a2,a4
    80003140:	fff60783          	lb	a5,-1(a2)
    80003144:	8dbd                	xor	a1,a1,a5
    80003146:	feb60fa3          	sb	a1,-1(a2)
    8000314a:	03f40583          	lb	a1,63(s0)
    8000314e:	6110                	ld	a2,0(a0)
    80003150:	963a                	add	a2,a2,a4
    80003152:	00060783          	lb	a5,0(a2)
    80003156:	8dbd                	xor	a1,a1,a5
    80003158:	00b60023          	sb	a1,0(a2)
    8000315c:	16fd                	addi	a3,a3,-1
    8000315e:	0741                	addi	a4,a4,16
    80003160:	ec069ee3          	bnez	a3,8000303c <AES_Encrypt+0x884>
    80003164:	45c1                	li	a1,16
    80003166:	00b9d463          	bge	s3,a1,8000316e <AES_Encrypt+0x9b6>
    8000316a:	3c60106f          	j	80004530 <AES_Encrypt+0x1d78>
    8000316e:	00083583          	ld	a1,0(a6)
    80003172:	0208d693          	srli	a3,a7,0x20
    80003176:	fff68713          	addi	a4,a3,-1
    8000317a:	02058793          	addi	a5,a1,32
    8000317e:	4605                	li	a2,1
    80003180:	4309                	li	t1,2
    80003182:	52fd                	li	t0,-1
    80003184:	fe07b483          	ld	s1,-32(a5)
    80003188:	fe87b583          	ld	a1,-24(a5)
    8000318c:	40b485fb          	.insn	4, 0x40b485fb
    80003190:	08b594ab          	.insn	4, 0x08b594ab
    80003194:	feb7b023          	sd	a1,-32(a5)
    80003198:	fe97b423          	sd	s1,-24(a5)
    8000319c:	c731                	beqz	a4,800031e8 <AES_Encrypt+0xa30>
    8000319e:	ff07b583          	ld	a1,-16(a5)
    800031a2:	ff87b483          	ld	s1,-8(a5)
    800031a6:	409585fb          	.insn	4, 0x409585fb
    800031aa:	08b594ab          	.insn	4, 0x08b594ab
    800031ae:	feb7b823          	sd	a1,-16(a5)
    800031b2:	fe97bc23          	sd	s1,-8(a5)
    800031b6:	02c70963          	beq	a4,a2,800031e8 <AES_Encrypt+0xa30>
    800031ba:	638c                	ld	a1,0(a5)
    800031bc:	6784                	ld	s1,8(a5)
    800031be:	409585fb          	.insn	4, 0x409585fb
    800031c2:	08b594ab          	.insn	4, 0x08b594ab
    800031c6:	e38c                	sd	a1,0(a5)
    800031c8:	e784                	sd	s1,8(a5)
    800031ca:	00670f63          	beq	a4,t1,800031e8 <AES_Encrypt+0xa30>
    800031ce:	6b8c                	ld	a1,16(a5)
    800031d0:	6f84                	ld	s1,24(a5)
    800031d2:	409585fb          	.insn	4, 0x409585fb
    800031d6:	08b594ab          	.insn	4, 0x08b594ab
    800031da:	eb8c                	sd	a1,16(a5)
    800031dc:	ef84                	sd	s1,24(a5)
    800031de:	1771                	addi	a4,a4,-4
    800031e0:	04078793          	addi	a5,a5,64
    800031e4:	fa5710e3          	bne	a4,t0,80003184 <AES_Encrypt+0x9cc>
    800031e8:	45c1                	li	a1,16
    800031ea:	00b9d463          	bge	s3,a1,800031f2 <AES_Encrypt+0xa3a>
    800031ee:	3420106f          	j	80004530 <AES_Encrypt+0x1d78>
    800031f2:	00083583          	ld	a1,0(a6)
    800031f6:	fff68713          	addi	a4,a3,-1
    800031fa:	02058793          	addi	a5,a1,32
    800031fe:	4605                	li	a2,1
    80003200:	4309                	li	t1,2
    80003202:	52fd                	li	t0,-1
    80003204:	fe07b483          	ld	s1,-32(a5)
    80003208:	fe87b583          	ld	a1,-24(a5)
    8000320c:	20b485fb          	.insn	4, 0x20b485fb
    80003210:	04b594ab          	.insn	4, 0x04b594ab
    80003214:	feb7b023          	sd	a1,-32(a5)
    80003218:	fe97b423          	sd	s1,-24(a5)
    8000321c:	c731                	beqz	a4,80003268 <AES_Encrypt+0xab0>
    8000321e:	ff07b583          	ld	a1,-16(a5)
    80003222:	ff87b483          	ld	s1,-8(a5)
    80003226:	209585fb          	.insn	4, 0x209585fb
    8000322a:	04b594ab          	.insn	4, 0x04b594ab
    8000322e:	feb7b823          	sd	a1,-16(a5)
    80003232:	fe97bc23          	sd	s1,-8(a5)
    80003236:	02c70963          	beq	a4,a2,80003268 <AES_Encrypt+0xab0>
    8000323a:	638c                	ld	a1,0(a5)
    8000323c:	6784                	ld	s1,8(a5)
    8000323e:	209585fb          	.insn	4, 0x209585fb
    80003242:	04b594ab          	.insn	4, 0x04b594ab
    80003246:	e38c                	sd	a1,0(a5)
    80003248:	e784                	sd	s1,8(a5)
    8000324a:	00670f63          	beq	a4,t1,80003268 <AES_Encrypt+0xab0>
    8000324e:	6b8c                	ld	a1,16(a5)
    80003250:	6f84                	ld	s1,24(a5)
    80003252:	209585fb          	.insn	4, 0x209585fb
    80003256:	04b594ab          	.insn	4, 0x04b594ab
    8000325a:	eb8c                	sd	a1,16(a5)
    8000325c:	ef84                	sd	s1,24(a5)
    8000325e:	1771                	addi	a4,a4,-4
    80003260:	04078793          	addi	a5,a5,64
    80003264:	fa5710e3          	bne	a4,t0,80003204 <AES_Encrypt+0xa4c>
    80003268:	45c1                	li	a1,16
    8000326a:	00b9d463          	bge	s3,a1,80003272 <AES_Encrypt+0xaba>
    8000326e:	2c20106f          	j	80004530 <AES_Encrypt+0x1d78>
    80003272:	00083583          	ld	a1,0(a6)
    80003276:	fff68713          	addi	a4,a3,-1
    8000327a:	02058793          	addi	a5,a1,32
    8000327e:	4605                	li	a2,1
    80003280:	4309                	li	t1,2
    80003282:	52fd                	li	t0,-1
    80003284:	fe07b483          	ld	s1,-32(a5)
    80003288:	fe87b583          	ld	a1,-24(a5)
    8000328c:	00b485fb          	.insn	4, 0x00b485fb
    80003290:	00b594ab          	.insn	4, 0x00b594ab
    80003294:	feb7b023          	sd	a1,-32(a5)
    80003298:	fe97b423          	sd	s1,-24(a5)
    8000329c:	c731                	beqz	a4,800032e8 <AES_Encrypt+0xb30>
    8000329e:	ff07b583          	ld	a1,-16(a5)
    800032a2:	ff87b483          	ld	s1,-8(a5)
    800032a6:	009585fb          	.insn	4, 0x009585fb
    800032aa:	00b594ab          	.insn	4, 0x00b594ab
    800032ae:	feb7b823          	sd	a1,-16(a5)
    800032b2:	fe97bc23          	sd	s1,-8(a5)
    800032b6:	02c70963          	beq	a4,a2,800032e8 <AES_Encrypt+0xb30>
    800032ba:	638c                	ld	a1,0(a5)
    800032bc:	6784                	ld	s1,8(a5)
    800032be:	009585fb          	.insn	4, 0x009585fb
    800032c2:	00b594ab          	.insn	4, 0x00b594ab
    800032c6:	e38c                	sd	a1,0(a5)
    800032c8:	e784                	sd	s1,8(a5)
    800032ca:	00670f63          	beq	a4,t1,800032e8 <AES_Encrypt+0xb30>
    800032ce:	6b8c                	ld	a1,16(a5)
    800032d0:	6f84                	ld	s1,24(a5)
    800032d2:	009585fb          	.insn	4, 0x009585fb
    800032d6:	00b594ab          	.insn	4, 0x00b594ab
    800032da:	eb8c                	sd	a1,16(a5)
    800032dc:	ef84                	sd	s1,24(a5)
    800032de:	1771                	addi	a4,a4,-4
    800032e0:	04078793          	addi	a5,a5,64
    800032e4:	fa5710e3          	bne	a4,t0,80003284 <AES_Encrypt+0xacc>
    800032e8:	45c1                	li	a1,16
    800032ea:	00b9d463          	bge	s3,a1,800032f2 <AES_Encrypt+0xb3a>
    800032ee:	2420106f          	j	80004530 <AES_Encrypt+0x1d78>
    800032f2:	473d                	li	a4,15
    800032f4:	04040583          	lb	a1,64(s0)
    800032f8:	6110                	ld	a2,0(a0)
    800032fa:	963a                	add	a2,a2,a4
    800032fc:	ff160783          	lb	a5,-15(a2)
    80003300:	8dbd                	xor	a1,a1,a5
    80003302:	feb608a3          	sb	a1,-15(a2)
    80003306:	04140583          	lb	a1,65(s0)
    8000330a:	6110                	ld	a2,0(a0)
    8000330c:	963a                	add	a2,a2,a4
    8000330e:	ff260783          	lb	a5,-14(a2)
    80003312:	8dbd                	xor	a1,a1,a5
    80003314:	feb60923          	sb	a1,-14(a2)
    80003318:	04240583          	lb	a1,66(s0)
    8000331c:	6110                	ld	a2,0(a0)
    8000331e:	963a                	add	a2,a2,a4
    80003320:	ff360783          	lb	a5,-13(a2)
    80003324:	8dbd                	xor	a1,a1,a5
    80003326:	feb609a3          	sb	a1,-13(a2)
    8000332a:	04340583          	lb	a1,67(s0)
    8000332e:	6110                	ld	a2,0(a0)
    80003330:	963a                	add	a2,a2,a4
    80003332:	ff460783          	lb	a5,-12(a2)
    80003336:	8dbd                	xor	a1,a1,a5
    80003338:	feb60a23          	sb	a1,-12(a2)
    8000333c:	04440583          	lb	a1,68(s0)
    80003340:	6110                	ld	a2,0(a0)
    80003342:	963a                	add	a2,a2,a4
    80003344:	ff560783          	lb	a5,-11(a2)
    80003348:	8dbd                	xor	a1,a1,a5
    8000334a:	feb60aa3          	sb	a1,-11(a2)
    8000334e:	04540583          	lb	a1,69(s0)
    80003352:	6110                	ld	a2,0(a0)
    80003354:	963a                	add	a2,a2,a4
    80003356:	ff660783          	lb	a5,-10(a2)
    8000335a:	8dbd                	xor	a1,a1,a5
    8000335c:	feb60b23          	sb	a1,-10(a2)
    80003360:	04640583          	lb	a1,70(s0)
    80003364:	6110                	ld	a2,0(a0)
    80003366:	963a                	add	a2,a2,a4
    80003368:	ff760783          	lb	a5,-9(a2)
    8000336c:	8dbd                	xor	a1,a1,a5
    8000336e:	feb60ba3          	sb	a1,-9(a2)
    80003372:	04740583          	lb	a1,71(s0)
    80003376:	6110                	ld	a2,0(a0)
    80003378:	963a                	add	a2,a2,a4
    8000337a:	ff860783          	lb	a5,-8(a2)
    8000337e:	8dbd                	xor	a1,a1,a5
    80003380:	feb60c23          	sb	a1,-8(a2)
    80003384:	04840583          	lb	a1,72(s0)
    80003388:	6110                	ld	a2,0(a0)
    8000338a:	963a                	add	a2,a2,a4
    8000338c:	ff960783          	lb	a5,-7(a2)
    80003390:	8dbd                	xor	a1,a1,a5
    80003392:	feb60ca3          	sb	a1,-7(a2)
    80003396:	04940583          	lb	a1,73(s0)
    8000339a:	6110                	ld	a2,0(a0)
    8000339c:	963a                	add	a2,a2,a4
    8000339e:	ffa60783          	lb	a5,-6(a2)
    800033a2:	8dbd                	xor	a1,a1,a5
    800033a4:	feb60d23          	sb	a1,-6(a2)
    800033a8:	04a40583          	lb	a1,74(s0)
    800033ac:	6110                	ld	a2,0(a0)
    800033ae:	963a                	add	a2,a2,a4
    800033b0:	ffb60783          	lb	a5,-5(a2)
    800033b4:	8dbd                	xor	a1,a1,a5
    800033b6:	feb60da3          	sb	a1,-5(a2)
    800033ba:	04b40583          	lb	a1,75(s0)
    800033be:	6110                	ld	a2,0(a0)
    800033c0:	963a                	add	a2,a2,a4
    800033c2:	ffc60783          	lb	a5,-4(a2)
    800033c6:	8dbd                	xor	a1,a1,a5
    800033c8:	feb60e23          	sb	a1,-4(a2)
    800033cc:	04c40583          	lb	a1,76(s0)
    800033d0:	6110                	ld	a2,0(a0)
    800033d2:	963a                	add	a2,a2,a4
    800033d4:	ffd60783          	lb	a5,-3(a2)
    800033d8:	8dbd                	xor	a1,a1,a5
    800033da:	feb60ea3          	sb	a1,-3(a2)
    800033de:	04d40583          	lb	a1,77(s0)
    800033e2:	6110                	ld	a2,0(a0)
    800033e4:	963a                	add	a2,a2,a4
    800033e6:	ffe60783          	lb	a5,-2(a2)
    800033ea:	8dbd                	xor	a1,a1,a5
    800033ec:	feb60f23          	sb	a1,-2(a2)
    800033f0:	04e40583          	lb	a1,78(s0)
    800033f4:	6110                	ld	a2,0(a0)
    800033f6:	963a                	add	a2,a2,a4
    800033f8:	fff60783          	lb	a5,-1(a2)
    800033fc:	8dbd                	xor	a1,a1,a5
    800033fe:	feb60fa3          	sb	a1,-1(a2)
    80003402:	04f40583          	lb	a1,79(s0)
    80003406:	6110                	ld	a2,0(a0)
    80003408:	963a                	add	a2,a2,a4
    8000340a:	00060783          	lb	a5,0(a2)
    8000340e:	8dbd                	xor	a1,a1,a5
    80003410:	00b60023          	sb	a1,0(a2)
    80003414:	16fd                	addi	a3,a3,-1
    80003416:	0741                	addi	a4,a4,16
    80003418:	ec069ee3          	bnez	a3,800032f4 <AES_Encrypt+0xb3c>
    8000341c:	45c1                	li	a1,16
    8000341e:	00b9d463          	bge	s3,a1,80003426 <AES_Encrypt+0xc6e>
    80003422:	10e0106f          	j	80004530 <AES_Encrypt+0x1d78>
    80003426:	00083583          	ld	a1,0(a6)
    8000342a:	0208d693          	srli	a3,a7,0x20
    8000342e:	fff68713          	addi	a4,a3,-1
    80003432:	02058793          	addi	a5,a1,32
    80003436:	4605                	li	a2,1
    80003438:	4309                	li	t1,2
    8000343a:	52fd                	li	t0,-1
    8000343c:	fe07b483          	ld	s1,-32(a5)
    80003440:	fe87b583          	ld	a1,-24(a5)
    80003444:	40b485fb          	.insn	4, 0x40b485fb
    80003448:	08b594ab          	.insn	4, 0x08b594ab
    8000344c:	feb7b023          	sd	a1,-32(a5)
    80003450:	fe97b423          	sd	s1,-24(a5)
    80003454:	c731                	beqz	a4,800034a0 <AES_Encrypt+0xce8>
    80003456:	ff07b583          	ld	a1,-16(a5)
    8000345a:	ff87b483          	ld	s1,-8(a5)
    8000345e:	409585fb          	.insn	4, 0x409585fb
    80003462:	08b594ab          	.insn	4, 0x08b594ab
    80003466:	feb7b823          	sd	a1,-16(a5)
    8000346a:	fe97bc23          	sd	s1,-8(a5)
    8000346e:	02c70963          	beq	a4,a2,800034a0 <AES_Encrypt+0xce8>
    80003472:	638c                	ld	a1,0(a5)
    80003474:	6784                	ld	s1,8(a5)
    80003476:	409585fb          	.insn	4, 0x409585fb
    8000347a:	08b594ab          	.insn	4, 0x08b594ab
    8000347e:	e38c                	sd	a1,0(a5)
    80003480:	e784                	sd	s1,8(a5)
    80003482:	00670f63          	beq	a4,t1,800034a0 <AES_Encrypt+0xce8>
    80003486:	6b8c                	ld	a1,16(a5)
    80003488:	6f84                	ld	s1,24(a5)
    8000348a:	409585fb          	.insn	4, 0x409585fb
    8000348e:	08b594ab          	.insn	4, 0x08b594ab
    80003492:	eb8c                	sd	a1,16(a5)
    80003494:	ef84                	sd	s1,24(a5)
    80003496:	1771                	addi	a4,a4,-4
    80003498:	04078793          	addi	a5,a5,64
    8000349c:	fa5710e3          	bne	a4,t0,8000343c <AES_Encrypt+0xc84>
    800034a0:	45c1                	li	a1,16
    800034a2:	00b9d463          	bge	s3,a1,800034aa <AES_Encrypt+0xcf2>
    800034a6:	08a0106f          	j	80004530 <AES_Encrypt+0x1d78>
    800034aa:	00083583          	ld	a1,0(a6)
    800034ae:	fff68713          	addi	a4,a3,-1
    800034b2:	02058793          	addi	a5,a1,32
    800034b6:	4605                	li	a2,1
    800034b8:	4309                	li	t1,2
    800034ba:	52fd                	li	t0,-1
    800034bc:	fe07b483          	ld	s1,-32(a5)
    800034c0:	fe87b583          	ld	a1,-24(a5)
    800034c4:	20b485fb          	.insn	4, 0x20b485fb
    800034c8:	04b594ab          	.insn	4, 0x04b594ab
    800034cc:	feb7b023          	sd	a1,-32(a5)
    800034d0:	fe97b423          	sd	s1,-24(a5)
    800034d4:	c731                	beqz	a4,80003520 <AES_Encrypt+0xd68>
    800034d6:	ff07b583          	ld	a1,-16(a5)
    800034da:	ff87b483          	ld	s1,-8(a5)
    800034de:	209585fb          	.insn	4, 0x209585fb
    800034e2:	04b594ab          	.insn	4, 0x04b594ab
    800034e6:	feb7b823          	sd	a1,-16(a5)
    800034ea:	fe97bc23          	sd	s1,-8(a5)
    800034ee:	02c70963          	beq	a4,a2,80003520 <AES_Encrypt+0xd68>
    800034f2:	638c                	ld	a1,0(a5)
    800034f4:	6784                	ld	s1,8(a5)
    800034f6:	209585fb          	.insn	4, 0x209585fb
    800034fa:	04b594ab          	.insn	4, 0x04b594ab
    800034fe:	e38c                	sd	a1,0(a5)
    80003500:	e784                	sd	s1,8(a5)
    80003502:	00670f63          	beq	a4,t1,80003520 <AES_Encrypt+0xd68>
    80003506:	6b8c                	ld	a1,16(a5)
    80003508:	6f84                	ld	s1,24(a5)
    8000350a:	209585fb          	.insn	4, 0x209585fb
    8000350e:	04b594ab          	.insn	4, 0x04b594ab
    80003512:	eb8c                	sd	a1,16(a5)
    80003514:	ef84                	sd	s1,24(a5)
    80003516:	1771                	addi	a4,a4,-4
    80003518:	04078793          	addi	a5,a5,64
    8000351c:	fa5710e3          	bne	a4,t0,800034bc <AES_Encrypt+0xd04>
    80003520:	45c1                	li	a1,16
    80003522:	00b9d463          	bge	s3,a1,8000352a <AES_Encrypt+0xd72>
    80003526:	00a0106f          	j	80004530 <AES_Encrypt+0x1d78>
    8000352a:	00083583          	ld	a1,0(a6)
    8000352e:	fff68713          	addi	a4,a3,-1
    80003532:	02058793          	addi	a5,a1,32
    80003536:	4605                	li	a2,1
    80003538:	4309                	li	t1,2
    8000353a:	52fd                	li	t0,-1
    8000353c:	fe07b483          	ld	s1,-32(a5)
    80003540:	fe87b583          	ld	a1,-24(a5)
    80003544:	00b485fb          	.insn	4, 0x00b485fb
    80003548:	00b594ab          	.insn	4, 0x00b594ab
    8000354c:	feb7b023          	sd	a1,-32(a5)
    80003550:	fe97b423          	sd	s1,-24(a5)
    80003554:	c731                	beqz	a4,800035a0 <AES_Encrypt+0xde8>
    80003556:	ff07b583          	ld	a1,-16(a5)
    8000355a:	ff87b483          	ld	s1,-8(a5)
    8000355e:	009585fb          	.insn	4, 0x009585fb
    80003562:	00b594ab          	.insn	4, 0x00b594ab
    80003566:	feb7b823          	sd	a1,-16(a5)
    8000356a:	fe97bc23          	sd	s1,-8(a5)
    8000356e:	02c70963          	beq	a4,a2,800035a0 <AES_Encrypt+0xde8>
    80003572:	638c                	ld	a1,0(a5)
    80003574:	6784                	ld	s1,8(a5)
    80003576:	009585fb          	.insn	4, 0x009585fb
    8000357a:	00b594ab          	.insn	4, 0x00b594ab
    8000357e:	e38c                	sd	a1,0(a5)
    80003580:	e784                	sd	s1,8(a5)
    80003582:	00670f63          	beq	a4,t1,800035a0 <AES_Encrypt+0xde8>
    80003586:	6b8c                	ld	a1,16(a5)
    80003588:	6f84                	ld	s1,24(a5)
    8000358a:	009585fb          	.insn	4, 0x009585fb
    8000358e:	00b594ab          	.insn	4, 0x00b594ab
    80003592:	eb8c                	sd	a1,16(a5)
    80003594:	ef84                	sd	s1,24(a5)
    80003596:	1771                	addi	a4,a4,-4
    80003598:	04078793          	addi	a5,a5,64
    8000359c:	fa5710e3          	bne	a4,t0,8000353c <AES_Encrypt+0xd84>
    800035a0:	45c1                	li	a1,16
    800035a2:	78b9c7e3          	blt	s3,a1,80004530 <AES_Encrypt+0x1d78>
    800035a6:	473d                	li	a4,15
    800035a8:	05040583          	lb	a1,80(s0)
    800035ac:	6110                	ld	a2,0(a0)
    800035ae:	963a                	add	a2,a2,a4
    800035b0:	ff160783          	lb	a5,-15(a2)
    800035b4:	8dbd                	xor	a1,a1,a5
    800035b6:	feb608a3          	sb	a1,-15(a2)
    800035ba:	05140583          	lb	a1,81(s0)
    800035be:	6110                	ld	a2,0(a0)
    800035c0:	963a                	add	a2,a2,a4
    800035c2:	ff260783          	lb	a5,-14(a2)
    800035c6:	8dbd                	xor	a1,a1,a5
    800035c8:	feb60923          	sb	a1,-14(a2)
    800035cc:	05240583          	lb	a1,82(s0)
    800035d0:	6110                	ld	a2,0(a0)
    800035d2:	963a                	add	a2,a2,a4
    800035d4:	ff360783          	lb	a5,-13(a2)
    800035d8:	8dbd                	xor	a1,a1,a5
    800035da:	feb609a3          	sb	a1,-13(a2)
    800035de:	05340583          	lb	a1,83(s0)
    800035e2:	6110                	ld	a2,0(a0)
    800035e4:	963a                	add	a2,a2,a4
    800035e6:	ff460783          	lb	a5,-12(a2)
    800035ea:	8dbd                	xor	a1,a1,a5
    800035ec:	feb60a23          	sb	a1,-12(a2)
    800035f0:	05440583          	lb	a1,84(s0)
    800035f4:	6110                	ld	a2,0(a0)
    800035f6:	963a                	add	a2,a2,a4
    800035f8:	ff560783          	lb	a5,-11(a2)
    800035fc:	8dbd                	xor	a1,a1,a5
    800035fe:	feb60aa3          	sb	a1,-11(a2)
    80003602:	05540583          	lb	a1,85(s0)
    80003606:	6110                	ld	a2,0(a0)
    80003608:	963a                	add	a2,a2,a4
    8000360a:	ff660783          	lb	a5,-10(a2)
    8000360e:	8dbd                	xor	a1,a1,a5
    80003610:	feb60b23          	sb	a1,-10(a2)
    80003614:	05640583          	lb	a1,86(s0)
    80003618:	6110                	ld	a2,0(a0)
    8000361a:	963a                	add	a2,a2,a4
    8000361c:	ff760783          	lb	a5,-9(a2)
    80003620:	8dbd                	xor	a1,a1,a5
    80003622:	feb60ba3          	sb	a1,-9(a2)
    80003626:	05740583          	lb	a1,87(s0)
    8000362a:	6110                	ld	a2,0(a0)
    8000362c:	963a                	add	a2,a2,a4
    8000362e:	ff860783          	lb	a5,-8(a2)
    80003632:	8dbd                	xor	a1,a1,a5
    80003634:	feb60c23          	sb	a1,-8(a2)
    80003638:	05840583          	lb	a1,88(s0)
    8000363c:	6110                	ld	a2,0(a0)
    8000363e:	963a                	add	a2,a2,a4
    80003640:	ff960783          	lb	a5,-7(a2)
    80003644:	8dbd                	xor	a1,a1,a5
    80003646:	feb60ca3          	sb	a1,-7(a2)
    8000364a:	05940583          	lb	a1,89(s0)
    8000364e:	6110                	ld	a2,0(a0)
    80003650:	963a                	add	a2,a2,a4
    80003652:	ffa60783          	lb	a5,-6(a2)
    80003656:	8dbd                	xor	a1,a1,a5
    80003658:	feb60d23          	sb	a1,-6(a2)
    8000365c:	05a40583          	lb	a1,90(s0)
    80003660:	6110                	ld	a2,0(a0)
    80003662:	963a                	add	a2,a2,a4
    80003664:	ffb60783          	lb	a5,-5(a2)
    80003668:	8dbd                	xor	a1,a1,a5
    8000366a:	feb60da3          	sb	a1,-5(a2)
    8000366e:	05b40583          	lb	a1,91(s0)
    80003672:	6110                	ld	a2,0(a0)
    80003674:	963a                	add	a2,a2,a4
    80003676:	ffc60783          	lb	a5,-4(a2)
    8000367a:	8dbd                	xor	a1,a1,a5
    8000367c:	feb60e23          	sb	a1,-4(a2)
    80003680:	05c40583          	lb	a1,92(s0)
    80003684:	6110                	ld	a2,0(a0)
    80003686:	963a                	add	a2,a2,a4
    80003688:	ffd60783          	lb	a5,-3(a2)
    8000368c:	8dbd                	xor	a1,a1,a5
    8000368e:	feb60ea3          	sb	a1,-3(a2)
    80003692:	05d40583          	lb	a1,93(s0)
    80003696:	6110                	ld	a2,0(a0)
    80003698:	963a                	add	a2,a2,a4
    8000369a:	ffe60783          	lb	a5,-2(a2)
    8000369e:	8dbd                	xor	a1,a1,a5
    800036a0:	feb60f23          	sb	a1,-2(a2)
    800036a4:	05e40583          	lb	a1,94(s0)
    800036a8:	6110                	ld	a2,0(a0)
    800036aa:	963a                	add	a2,a2,a4
    800036ac:	fff60783          	lb	a5,-1(a2)
    800036b0:	8dbd                	xor	a1,a1,a5
    800036b2:	feb60fa3          	sb	a1,-1(a2)
    800036b6:	05f40583          	lb	a1,95(s0)
    800036ba:	6110                	ld	a2,0(a0)
    800036bc:	963a                	add	a2,a2,a4
    800036be:	00060783          	lb	a5,0(a2)
    800036c2:	8dbd                	xor	a1,a1,a5
    800036c4:	00b60023          	sb	a1,0(a2)
    800036c8:	16fd                	addi	a3,a3,-1
    800036ca:	0741                	addi	a4,a4,16
    800036cc:	ec069ee3          	bnez	a3,800035a8 <AES_Encrypt+0xdf0>
    800036d0:	45c1                	li	a1,16
    800036d2:	64b9cfe3          	blt	s3,a1,80004530 <AES_Encrypt+0x1d78>
    800036d6:	00083583          	ld	a1,0(a6)
    800036da:	0208d693          	srli	a3,a7,0x20
    800036de:	fff68713          	addi	a4,a3,-1
    800036e2:	02058793          	addi	a5,a1,32
    800036e6:	4605                	li	a2,1
    800036e8:	4309                	li	t1,2
    800036ea:	52fd                	li	t0,-1
    800036ec:	fe07b483          	ld	s1,-32(a5)
    800036f0:	fe87b583          	ld	a1,-24(a5)
    800036f4:	40b485fb          	.insn	4, 0x40b485fb
    800036f8:	08b594ab          	.insn	4, 0x08b594ab
    800036fc:	feb7b023          	sd	a1,-32(a5)
    80003700:	fe97b423          	sd	s1,-24(a5)
    80003704:	c731                	beqz	a4,80003750 <AES_Encrypt+0xf98>
    80003706:	ff07b583          	ld	a1,-16(a5)
    8000370a:	ff87b483          	ld	s1,-8(a5)
    8000370e:	409585fb          	.insn	4, 0x409585fb
    80003712:	08b594ab          	.insn	4, 0x08b594ab
    80003716:	feb7b823          	sd	a1,-16(a5)
    8000371a:	fe97bc23          	sd	s1,-8(a5)
    8000371e:	02c70963          	beq	a4,a2,80003750 <AES_Encrypt+0xf98>
    80003722:	638c                	ld	a1,0(a5)
    80003724:	6784                	ld	s1,8(a5)
    80003726:	409585fb          	.insn	4, 0x409585fb
    8000372a:	08b594ab          	.insn	4, 0x08b594ab
    8000372e:	e38c                	sd	a1,0(a5)
    80003730:	e784                	sd	s1,8(a5)
    80003732:	00670f63          	beq	a4,t1,80003750 <AES_Encrypt+0xf98>
    80003736:	6b8c                	ld	a1,16(a5)
    80003738:	6f84                	ld	s1,24(a5)
    8000373a:	409585fb          	.insn	4, 0x409585fb
    8000373e:	08b594ab          	.insn	4, 0x08b594ab
    80003742:	eb8c                	sd	a1,16(a5)
    80003744:	ef84                	sd	s1,24(a5)
    80003746:	1771                	addi	a4,a4,-4
    80003748:	04078793          	addi	a5,a5,64
    8000374c:	fa5710e3          	bne	a4,t0,800036ec <AES_Encrypt+0xf34>
    80003750:	45c1                	li	a1,16
    80003752:	5cb9cfe3          	blt	s3,a1,80004530 <AES_Encrypt+0x1d78>
    80003756:	00083583          	ld	a1,0(a6)
    8000375a:	fff68713          	addi	a4,a3,-1
    8000375e:	02058793          	addi	a5,a1,32
    80003762:	4605                	li	a2,1
    80003764:	4309                	li	t1,2
    80003766:	52fd                	li	t0,-1
    80003768:	fe07b483          	ld	s1,-32(a5)
    8000376c:	fe87b583          	ld	a1,-24(a5)
    80003770:	20b485fb          	.insn	4, 0x20b485fb
    80003774:	04b594ab          	.insn	4, 0x04b594ab
    80003778:	feb7b023          	sd	a1,-32(a5)
    8000377c:	fe97b423          	sd	s1,-24(a5)
    80003780:	c731                	beqz	a4,800037cc <AES_Encrypt+0x1014>
    80003782:	ff07b583          	ld	a1,-16(a5)
    80003786:	ff87b483          	ld	s1,-8(a5)
    8000378a:	209585fb          	.insn	4, 0x209585fb
    8000378e:	04b594ab          	.insn	4, 0x04b594ab
    80003792:	feb7b823          	sd	a1,-16(a5)
    80003796:	fe97bc23          	sd	s1,-8(a5)
    8000379a:	02c70963          	beq	a4,a2,800037cc <AES_Encrypt+0x1014>
    8000379e:	638c                	ld	a1,0(a5)
    800037a0:	6784                	ld	s1,8(a5)
    800037a2:	209585fb          	.insn	4, 0x209585fb
    800037a6:	04b594ab          	.insn	4, 0x04b594ab
    800037aa:	e38c                	sd	a1,0(a5)
    800037ac:	e784                	sd	s1,8(a5)
    800037ae:	00670f63          	beq	a4,t1,800037cc <AES_Encrypt+0x1014>
    800037b2:	6b8c                	ld	a1,16(a5)
    800037b4:	6f84                	ld	s1,24(a5)
    800037b6:	209585fb          	.insn	4, 0x209585fb
    800037ba:	04b594ab          	.insn	4, 0x04b594ab
    800037be:	eb8c                	sd	a1,16(a5)
    800037c0:	ef84                	sd	s1,24(a5)
    800037c2:	1771                	addi	a4,a4,-4
    800037c4:	04078793          	addi	a5,a5,64
    800037c8:	fa5710e3          	bne	a4,t0,80003768 <AES_Encrypt+0xfb0>
    800037cc:	45c1                	li	a1,16
    800037ce:	56b9c1e3          	blt	s3,a1,80004530 <AES_Encrypt+0x1d78>
    800037d2:	00083583          	ld	a1,0(a6)
    800037d6:	fff68713          	addi	a4,a3,-1
    800037da:	02058793          	addi	a5,a1,32
    800037de:	4605                	li	a2,1
    800037e0:	4309                	li	t1,2
    800037e2:	52fd                	li	t0,-1
    800037e4:	fe07b483          	ld	s1,-32(a5)
    800037e8:	fe87b583          	ld	a1,-24(a5)
    800037ec:	00b485fb          	.insn	4, 0x00b485fb
    800037f0:	00b594ab          	.insn	4, 0x00b594ab
    800037f4:	feb7b023          	sd	a1,-32(a5)
    800037f8:	fe97b423          	sd	s1,-24(a5)
    800037fc:	c731                	beqz	a4,80003848 <AES_Encrypt+0x1090>
    800037fe:	ff07b583          	ld	a1,-16(a5)
    80003802:	ff87b483          	ld	s1,-8(a5)
    80003806:	009585fb          	.insn	4, 0x009585fb
    8000380a:	00b594ab          	.insn	4, 0x00b594ab
    8000380e:	feb7b823          	sd	a1,-16(a5)
    80003812:	fe97bc23          	sd	s1,-8(a5)
    80003816:	02c70963          	beq	a4,a2,80003848 <AES_Encrypt+0x1090>
    8000381a:	638c                	ld	a1,0(a5)
    8000381c:	6784                	ld	s1,8(a5)
    8000381e:	009585fb          	.insn	4, 0x009585fb
    80003822:	00b594ab          	.insn	4, 0x00b594ab
    80003826:	e38c                	sd	a1,0(a5)
    80003828:	e784                	sd	s1,8(a5)
    8000382a:	00670f63          	beq	a4,t1,80003848 <AES_Encrypt+0x1090>
    8000382e:	6b8c                	ld	a1,16(a5)
    80003830:	6f84                	ld	s1,24(a5)
    80003832:	009585fb          	.insn	4, 0x009585fb
    80003836:	00b594ab          	.insn	4, 0x00b594ab
    8000383a:	eb8c                	sd	a1,16(a5)
    8000383c:	ef84                	sd	s1,24(a5)
    8000383e:	1771                	addi	a4,a4,-4
    80003840:	04078793          	addi	a5,a5,64
    80003844:	fa5710e3          	bne	a4,t0,800037e4 <AES_Encrypt+0x102c>
    80003848:	45c1                	li	a1,16
    8000384a:	4eb9c3e3          	blt	s3,a1,80004530 <AES_Encrypt+0x1d78>
    8000384e:	473d                	li	a4,15
    80003850:	06040583          	lb	a1,96(s0)
    80003854:	6110                	ld	a2,0(a0)
    80003856:	963a                	add	a2,a2,a4
    80003858:	ff160783          	lb	a5,-15(a2)
    8000385c:	8dbd                	xor	a1,a1,a5
    8000385e:	feb608a3          	sb	a1,-15(a2)
    80003862:	06140583          	lb	a1,97(s0)
    80003866:	6110                	ld	a2,0(a0)
    80003868:	963a                	add	a2,a2,a4
    8000386a:	ff260783          	lb	a5,-14(a2)
    8000386e:	8dbd                	xor	a1,a1,a5
    80003870:	feb60923          	sb	a1,-14(a2)
    80003874:	06240583          	lb	a1,98(s0)
    80003878:	6110                	ld	a2,0(a0)
    8000387a:	963a                	add	a2,a2,a4
    8000387c:	ff360783          	lb	a5,-13(a2)
    80003880:	8dbd                	xor	a1,a1,a5
    80003882:	feb609a3          	sb	a1,-13(a2)
    80003886:	06340583          	lb	a1,99(s0)
    8000388a:	6110                	ld	a2,0(a0)
    8000388c:	963a                	add	a2,a2,a4
    8000388e:	ff460783          	lb	a5,-12(a2)
    80003892:	8dbd                	xor	a1,a1,a5
    80003894:	feb60a23          	sb	a1,-12(a2)
    80003898:	06440583          	lb	a1,100(s0)
    8000389c:	6110                	ld	a2,0(a0)
    8000389e:	963a                	add	a2,a2,a4
    800038a0:	ff560783          	lb	a5,-11(a2)
    800038a4:	8dbd                	xor	a1,a1,a5
    800038a6:	feb60aa3          	sb	a1,-11(a2)
    800038aa:	06540583          	lb	a1,101(s0)
    800038ae:	6110                	ld	a2,0(a0)
    800038b0:	963a                	add	a2,a2,a4
    800038b2:	ff660783          	lb	a5,-10(a2)
    800038b6:	8dbd                	xor	a1,a1,a5
    800038b8:	feb60b23          	sb	a1,-10(a2)
    800038bc:	06640583          	lb	a1,102(s0)
    800038c0:	6110                	ld	a2,0(a0)
    800038c2:	963a                	add	a2,a2,a4
    800038c4:	ff760783          	lb	a5,-9(a2)
    800038c8:	8dbd                	xor	a1,a1,a5
    800038ca:	feb60ba3          	sb	a1,-9(a2)
    800038ce:	06740583          	lb	a1,103(s0)
    800038d2:	6110                	ld	a2,0(a0)
    800038d4:	963a                	add	a2,a2,a4
    800038d6:	ff860783          	lb	a5,-8(a2)
    800038da:	8dbd                	xor	a1,a1,a5
    800038dc:	feb60c23          	sb	a1,-8(a2)
    800038e0:	06840583          	lb	a1,104(s0)
    800038e4:	6110                	ld	a2,0(a0)
    800038e6:	963a                	add	a2,a2,a4
    800038e8:	ff960783          	lb	a5,-7(a2)
    800038ec:	8dbd                	xor	a1,a1,a5
    800038ee:	feb60ca3          	sb	a1,-7(a2)
    800038f2:	06940583          	lb	a1,105(s0)
    800038f6:	6110                	ld	a2,0(a0)
    800038f8:	963a                	add	a2,a2,a4
    800038fa:	ffa60783          	lb	a5,-6(a2)
    800038fe:	8dbd                	xor	a1,a1,a5
    80003900:	feb60d23          	sb	a1,-6(a2)
    80003904:	06a40583          	lb	a1,106(s0)
    80003908:	6110                	ld	a2,0(a0)
    8000390a:	963a                	add	a2,a2,a4
    8000390c:	ffb60783          	lb	a5,-5(a2)
    80003910:	8dbd                	xor	a1,a1,a5
    80003912:	feb60da3          	sb	a1,-5(a2)
    80003916:	06b40583          	lb	a1,107(s0)
    8000391a:	6110                	ld	a2,0(a0)
    8000391c:	963a                	add	a2,a2,a4
    8000391e:	ffc60783          	lb	a5,-4(a2)
    80003922:	8dbd                	xor	a1,a1,a5
    80003924:	feb60e23          	sb	a1,-4(a2)
    80003928:	06c40583          	lb	a1,108(s0)
    8000392c:	6110                	ld	a2,0(a0)
    8000392e:	963a                	add	a2,a2,a4
    80003930:	ffd60783          	lb	a5,-3(a2)
    80003934:	8dbd                	xor	a1,a1,a5
    80003936:	feb60ea3          	sb	a1,-3(a2)
    8000393a:	06d40583          	lb	a1,109(s0)
    8000393e:	6110                	ld	a2,0(a0)
    80003940:	963a                	add	a2,a2,a4
    80003942:	ffe60783          	lb	a5,-2(a2)
    80003946:	8dbd                	xor	a1,a1,a5
    80003948:	feb60f23          	sb	a1,-2(a2)
    8000394c:	06e40583          	lb	a1,110(s0)
    80003950:	6110                	ld	a2,0(a0)
    80003952:	963a                	add	a2,a2,a4
    80003954:	fff60783          	lb	a5,-1(a2)
    80003958:	8dbd                	xor	a1,a1,a5
    8000395a:	feb60fa3          	sb	a1,-1(a2)
    8000395e:	06f40583          	lb	a1,111(s0)
    80003962:	6110                	ld	a2,0(a0)
    80003964:	963a                	add	a2,a2,a4
    80003966:	00060783          	lb	a5,0(a2)
    8000396a:	8dbd                	xor	a1,a1,a5
    8000396c:	00b60023          	sb	a1,0(a2)
    80003970:	16fd                	addi	a3,a3,-1
    80003972:	0741                	addi	a4,a4,16
    80003974:	ec069ee3          	bnez	a3,80003850 <AES_Encrypt+0x1098>
    80003978:	45c1                	li	a1,16
    8000397a:	3ab9cbe3          	blt	s3,a1,80004530 <AES_Encrypt+0x1d78>
    8000397e:	00083583          	ld	a1,0(a6)
    80003982:	0208d693          	srli	a3,a7,0x20
    80003986:	fff68713          	addi	a4,a3,-1
    8000398a:	02058793          	addi	a5,a1,32
    8000398e:	4605                	li	a2,1
    80003990:	4309                	li	t1,2
    80003992:	52fd                	li	t0,-1
    80003994:	fe07b483          	ld	s1,-32(a5)
    80003998:	fe87b583          	ld	a1,-24(a5)
    8000399c:	40b485fb          	.insn	4, 0x40b485fb
    800039a0:	08b594ab          	.insn	4, 0x08b594ab
    800039a4:	feb7b023          	sd	a1,-32(a5)
    800039a8:	fe97b423          	sd	s1,-24(a5)
    800039ac:	c731                	beqz	a4,800039f8 <AES_Encrypt+0x1240>
    800039ae:	ff07b583          	ld	a1,-16(a5)
    800039b2:	ff87b483          	ld	s1,-8(a5)
    800039b6:	409585fb          	.insn	4, 0x409585fb
    800039ba:	08b594ab          	.insn	4, 0x08b594ab
    800039be:	feb7b823          	sd	a1,-16(a5)
    800039c2:	fe97bc23          	sd	s1,-8(a5)
    800039c6:	02c70963          	beq	a4,a2,800039f8 <AES_Encrypt+0x1240>
    800039ca:	638c                	ld	a1,0(a5)
    800039cc:	6784                	ld	s1,8(a5)
    800039ce:	409585fb          	.insn	4, 0x409585fb
    800039d2:	08b594ab          	.insn	4, 0x08b594ab
    800039d6:	e38c                	sd	a1,0(a5)
    800039d8:	e784                	sd	s1,8(a5)
    800039da:	00670f63          	beq	a4,t1,800039f8 <AES_Encrypt+0x1240>
    800039de:	6b8c                	ld	a1,16(a5)
    800039e0:	6f84                	ld	s1,24(a5)
    800039e2:	409585fb          	.insn	4, 0x409585fb
    800039e6:	08b594ab          	.insn	4, 0x08b594ab
    800039ea:	eb8c                	sd	a1,16(a5)
    800039ec:	ef84                	sd	s1,24(a5)
    800039ee:	1771                	addi	a4,a4,-4
    800039f0:	04078793          	addi	a5,a5,64
    800039f4:	fa5710e3          	bne	a4,t0,80003994 <AES_Encrypt+0x11dc>
    800039f8:	45c1                	li	a1,16
    800039fa:	32b9cbe3          	blt	s3,a1,80004530 <AES_Encrypt+0x1d78>
    800039fe:	00083583          	ld	a1,0(a6)
    80003a02:	fff68713          	addi	a4,a3,-1
    80003a06:	02058793          	addi	a5,a1,32
    80003a0a:	4605                	li	a2,1
    80003a0c:	4309                	li	t1,2
    80003a0e:	52fd                	li	t0,-1
    80003a10:	fe07b483          	ld	s1,-32(a5)
    80003a14:	fe87b583          	ld	a1,-24(a5)
    80003a18:	20b485fb          	.insn	4, 0x20b485fb
    80003a1c:	04b594ab          	.insn	4, 0x04b594ab
    80003a20:	feb7b023          	sd	a1,-32(a5)
    80003a24:	fe97b423          	sd	s1,-24(a5)
    80003a28:	c731                	beqz	a4,80003a74 <AES_Encrypt+0x12bc>
    80003a2a:	ff07b583          	ld	a1,-16(a5)
    80003a2e:	ff87b483          	ld	s1,-8(a5)
    80003a32:	209585fb          	.insn	4, 0x209585fb
    80003a36:	04b594ab          	.insn	4, 0x04b594ab
    80003a3a:	feb7b823          	sd	a1,-16(a5)
    80003a3e:	fe97bc23          	sd	s1,-8(a5)
    80003a42:	02c70963          	beq	a4,a2,80003a74 <AES_Encrypt+0x12bc>
    80003a46:	638c                	ld	a1,0(a5)
    80003a48:	6784                	ld	s1,8(a5)
    80003a4a:	209585fb          	.insn	4, 0x209585fb
    80003a4e:	04b594ab          	.insn	4, 0x04b594ab
    80003a52:	e38c                	sd	a1,0(a5)
    80003a54:	e784                	sd	s1,8(a5)
    80003a56:	00670f63          	beq	a4,t1,80003a74 <AES_Encrypt+0x12bc>
    80003a5a:	6b8c                	ld	a1,16(a5)
    80003a5c:	6f84                	ld	s1,24(a5)
    80003a5e:	209585fb          	.insn	4, 0x209585fb
    80003a62:	04b594ab          	.insn	4, 0x04b594ab
    80003a66:	eb8c                	sd	a1,16(a5)
    80003a68:	ef84                	sd	s1,24(a5)
    80003a6a:	1771                	addi	a4,a4,-4
    80003a6c:	04078793          	addi	a5,a5,64
    80003a70:	fa5710e3          	bne	a4,t0,80003a10 <AES_Encrypt+0x1258>
    80003a74:	45c1                	li	a1,16
    80003a76:	2ab9cde3          	blt	s3,a1,80004530 <AES_Encrypt+0x1d78>
    80003a7a:	00083583          	ld	a1,0(a6)
    80003a7e:	fff68713          	addi	a4,a3,-1
    80003a82:	02058793          	addi	a5,a1,32
    80003a86:	4605                	li	a2,1
    80003a88:	4309                	li	t1,2
    80003a8a:	52fd                	li	t0,-1
    80003a8c:	fe07b483          	ld	s1,-32(a5)
    80003a90:	fe87b583          	ld	a1,-24(a5)
    80003a94:	00b485fb          	.insn	4, 0x00b485fb
    80003a98:	00b594ab          	.insn	4, 0x00b594ab
    80003a9c:	feb7b023          	sd	a1,-32(a5)
    80003aa0:	fe97b423          	sd	s1,-24(a5)
    80003aa4:	c731                	beqz	a4,80003af0 <AES_Encrypt+0x1338>
    80003aa6:	ff07b583          	ld	a1,-16(a5)
    80003aaa:	ff87b483          	ld	s1,-8(a5)
    80003aae:	009585fb          	.insn	4, 0x009585fb
    80003ab2:	00b594ab          	.insn	4, 0x00b594ab
    80003ab6:	feb7b823          	sd	a1,-16(a5)
    80003aba:	fe97bc23          	sd	s1,-8(a5)
    80003abe:	02c70963          	beq	a4,a2,80003af0 <AES_Encrypt+0x1338>
    80003ac2:	638c                	ld	a1,0(a5)
    80003ac4:	6784                	ld	s1,8(a5)
    80003ac6:	009585fb          	.insn	4, 0x009585fb
    80003aca:	00b594ab          	.insn	4, 0x00b594ab
    80003ace:	e38c                	sd	a1,0(a5)
    80003ad0:	e784                	sd	s1,8(a5)
    80003ad2:	00670f63          	beq	a4,t1,80003af0 <AES_Encrypt+0x1338>
    80003ad6:	6b8c                	ld	a1,16(a5)
    80003ad8:	6f84                	ld	s1,24(a5)
    80003ada:	009585fb          	.insn	4, 0x009585fb
    80003ade:	00b594ab          	.insn	4, 0x00b594ab
    80003ae2:	eb8c                	sd	a1,16(a5)
    80003ae4:	ef84                	sd	s1,24(a5)
    80003ae6:	1771                	addi	a4,a4,-4
    80003ae8:	04078793          	addi	a5,a5,64
    80003aec:	fa5710e3          	bne	a4,t0,80003a8c <AES_Encrypt+0x12d4>
    80003af0:	45c1                	li	a1,16
    80003af2:	22b9cfe3          	blt	s3,a1,80004530 <AES_Encrypt+0x1d78>
    80003af6:	473d                	li	a4,15
    80003af8:	07040583          	lb	a1,112(s0)
    80003afc:	6110                	ld	a2,0(a0)
    80003afe:	963a                	add	a2,a2,a4
    80003b00:	ff160783          	lb	a5,-15(a2)
    80003b04:	8dbd                	xor	a1,a1,a5
    80003b06:	feb608a3          	sb	a1,-15(a2)
    80003b0a:	07140583          	lb	a1,113(s0)
    80003b0e:	6110                	ld	a2,0(a0)
    80003b10:	963a                	add	a2,a2,a4
    80003b12:	ff260783          	lb	a5,-14(a2)
    80003b16:	8dbd                	xor	a1,a1,a5
    80003b18:	feb60923          	sb	a1,-14(a2)
    80003b1c:	07240583          	lb	a1,114(s0)
    80003b20:	6110                	ld	a2,0(a0)
    80003b22:	963a                	add	a2,a2,a4
    80003b24:	ff360783          	lb	a5,-13(a2)
    80003b28:	8dbd                	xor	a1,a1,a5
    80003b2a:	feb609a3          	sb	a1,-13(a2)
    80003b2e:	07340583          	lb	a1,115(s0)
    80003b32:	6110                	ld	a2,0(a0)
    80003b34:	963a                	add	a2,a2,a4
    80003b36:	ff460783          	lb	a5,-12(a2)
    80003b3a:	8dbd                	xor	a1,a1,a5
    80003b3c:	feb60a23          	sb	a1,-12(a2)
    80003b40:	07440583          	lb	a1,116(s0)
    80003b44:	6110                	ld	a2,0(a0)
    80003b46:	963a                	add	a2,a2,a4
    80003b48:	ff560783          	lb	a5,-11(a2)
    80003b4c:	8dbd                	xor	a1,a1,a5
    80003b4e:	feb60aa3          	sb	a1,-11(a2)
    80003b52:	07540583          	lb	a1,117(s0)
    80003b56:	6110                	ld	a2,0(a0)
    80003b58:	963a                	add	a2,a2,a4
    80003b5a:	ff660783          	lb	a5,-10(a2)
    80003b5e:	8dbd                	xor	a1,a1,a5
    80003b60:	feb60b23          	sb	a1,-10(a2)
    80003b64:	07640583          	lb	a1,118(s0)
    80003b68:	6110                	ld	a2,0(a0)
    80003b6a:	963a                	add	a2,a2,a4
    80003b6c:	ff760783          	lb	a5,-9(a2)
    80003b70:	8dbd                	xor	a1,a1,a5
    80003b72:	feb60ba3          	sb	a1,-9(a2)
    80003b76:	07740583          	lb	a1,119(s0)
    80003b7a:	6110                	ld	a2,0(a0)
    80003b7c:	963a                	add	a2,a2,a4
    80003b7e:	ff860783          	lb	a5,-8(a2)
    80003b82:	8dbd                	xor	a1,a1,a5
    80003b84:	feb60c23          	sb	a1,-8(a2)
    80003b88:	07840583          	lb	a1,120(s0)
    80003b8c:	6110                	ld	a2,0(a0)
    80003b8e:	963a                	add	a2,a2,a4
    80003b90:	ff960783          	lb	a5,-7(a2)
    80003b94:	8dbd                	xor	a1,a1,a5
    80003b96:	feb60ca3          	sb	a1,-7(a2)
    80003b9a:	07940583          	lb	a1,121(s0)
    80003b9e:	6110                	ld	a2,0(a0)
    80003ba0:	963a                	add	a2,a2,a4
    80003ba2:	ffa60783          	lb	a5,-6(a2)
    80003ba6:	8dbd                	xor	a1,a1,a5
    80003ba8:	feb60d23          	sb	a1,-6(a2)
    80003bac:	07a40583          	lb	a1,122(s0)
    80003bb0:	6110                	ld	a2,0(a0)
    80003bb2:	963a                	add	a2,a2,a4
    80003bb4:	ffb60783          	lb	a5,-5(a2)
    80003bb8:	8dbd                	xor	a1,a1,a5
    80003bba:	feb60da3          	sb	a1,-5(a2)
    80003bbe:	07b40583          	lb	a1,123(s0)
    80003bc2:	6110                	ld	a2,0(a0)
    80003bc4:	963a                	add	a2,a2,a4
    80003bc6:	ffc60783          	lb	a5,-4(a2)
    80003bca:	8dbd                	xor	a1,a1,a5
    80003bcc:	feb60e23          	sb	a1,-4(a2)
    80003bd0:	07c40583          	lb	a1,124(s0)
    80003bd4:	6110                	ld	a2,0(a0)
    80003bd6:	963a                	add	a2,a2,a4
    80003bd8:	ffd60783          	lb	a5,-3(a2)
    80003bdc:	8dbd                	xor	a1,a1,a5
    80003bde:	feb60ea3          	sb	a1,-3(a2)
    80003be2:	07d40583          	lb	a1,125(s0)
    80003be6:	6110                	ld	a2,0(a0)
    80003be8:	963a                	add	a2,a2,a4
    80003bea:	ffe60783          	lb	a5,-2(a2)
    80003bee:	8dbd                	xor	a1,a1,a5
    80003bf0:	feb60f23          	sb	a1,-2(a2)
    80003bf4:	07e40583          	lb	a1,126(s0)
    80003bf8:	6110                	ld	a2,0(a0)
    80003bfa:	963a                	add	a2,a2,a4
    80003bfc:	fff60783          	lb	a5,-1(a2)
    80003c00:	8dbd                	xor	a1,a1,a5
    80003c02:	feb60fa3          	sb	a1,-1(a2)
    80003c06:	07f40583          	lb	a1,127(s0)
    80003c0a:	6110                	ld	a2,0(a0)
    80003c0c:	963a                	add	a2,a2,a4
    80003c0e:	00060783          	lb	a5,0(a2)
    80003c12:	8dbd                	xor	a1,a1,a5
    80003c14:	00b60023          	sb	a1,0(a2)
    80003c18:	16fd                	addi	a3,a3,-1
    80003c1a:	0741                	addi	a4,a4,16
    80003c1c:	ec069ee3          	bnez	a3,80003af8 <AES_Encrypt+0x1340>
    80003c20:	45c1                	li	a1,16
    80003c22:	10b9c7e3          	blt	s3,a1,80004530 <AES_Encrypt+0x1d78>
    80003c26:	00083583          	ld	a1,0(a6)
    80003c2a:	0208d693          	srli	a3,a7,0x20
    80003c2e:	fff68713          	addi	a4,a3,-1
    80003c32:	02058793          	addi	a5,a1,32
    80003c36:	4605                	li	a2,1
    80003c38:	4309                	li	t1,2
    80003c3a:	52fd                	li	t0,-1
    80003c3c:	fe07b483          	ld	s1,-32(a5)
    80003c40:	fe87b583          	ld	a1,-24(a5)
    80003c44:	40b485fb          	.insn	4, 0x40b485fb
    80003c48:	08b594ab          	.insn	4, 0x08b594ab
    80003c4c:	feb7b023          	sd	a1,-32(a5)
    80003c50:	fe97b423          	sd	s1,-24(a5)
    80003c54:	c731                	beqz	a4,80003ca0 <AES_Encrypt+0x14e8>
    80003c56:	ff07b583          	ld	a1,-16(a5)
    80003c5a:	ff87b483          	ld	s1,-8(a5)
    80003c5e:	409585fb          	.insn	4, 0x409585fb
    80003c62:	08b594ab          	.insn	4, 0x08b594ab
    80003c66:	feb7b823          	sd	a1,-16(a5)
    80003c6a:	fe97bc23          	sd	s1,-8(a5)
    80003c6e:	02c70963          	beq	a4,a2,80003ca0 <AES_Encrypt+0x14e8>
    80003c72:	638c                	ld	a1,0(a5)
    80003c74:	6784                	ld	s1,8(a5)
    80003c76:	409585fb          	.insn	4, 0x409585fb
    80003c7a:	08b594ab          	.insn	4, 0x08b594ab
    80003c7e:	e38c                	sd	a1,0(a5)
    80003c80:	e784                	sd	s1,8(a5)
    80003c82:	00670f63          	beq	a4,t1,80003ca0 <AES_Encrypt+0x14e8>
    80003c86:	6b8c                	ld	a1,16(a5)
    80003c88:	6f84                	ld	s1,24(a5)
    80003c8a:	409585fb          	.insn	4, 0x409585fb
    80003c8e:	08b594ab          	.insn	4, 0x08b594ab
    80003c92:	eb8c                	sd	a1,16(a5)
    80003c94:	ef84                	sd	s1,24(a5)
    80003c96:	1771                	addi	a4,a4,-4
    80003c98:	04078793          	addi	a5,a5,64
    80003c9c:	fa5710e3          	bne	a4,t0,80003c3c <AES_Encrypt+0x1484>
    80003ca0:	45c1                	li	a1,16
    80003ca2:	08b9c7e3          	blt	s3,a1,80004530 <AES_Encrypt+0x1d78>
    80003ca6:	00083583          	ld	a1,0(a6)
    80003caa:	fff68713          	addi	a4,a3,-1
    80003cae:	02058793          	addi	a5,a1,32
    80003cb2:	4605                	li	a2,1
    80003cb4:	4309                	li	t1,2
    80003cb6:	52fd                	li	t0,-1
    80003cb8:	fe07b483          	ld	s1,-32(a5)
    80003cbc:	fe87b583          	ld	a1,-24(a5)
    80003cc0:	20b485fb          	.insn	4, 0x20b485fb
    80003cc4:	04b594ab          	.insn	4, 0x04b594ab
    80003cc8:	feb7b023          	sd	a1,-32(a5)
    80003ccc:	fe97b423          	sd	s1,-24(a5)
    80003cd0:	c731                	beqz	a4,80003d1c <AES_Encrypt+0x1564>
    80003cd2:	ff07b583          	ld	a1,-16(a5)
    80003cd6:	ff87b483          	ld	s1,-8(a5)
    80003cda:	209585fb          	.insn	4, 0x209585fb
    80003cde:	04b594ab          	.insn	4, 0x04b594ab
    80003ce2:	feb7b823          	sd	a1,-16(a5)
    80003ce6:	fe97bc23          	sd	s1,-8(a5)
    80003cea:	02c70963          	beq	a4,a2,80003d1c <AES_Encrypt+0x1564>
    80003cee:	638c                	ld	a1,0(a5)
    80003cf0:	6784                	ld	s1,8(a5)
    80003cf2:	209585fb          	.insn	4, 0x209585fb
    80003cf6:	04b594ab          	.insn	4, 0x04b594ab
    80003cfa:	e38c                	sd	a1,0(a5)
    80003cfc:	e784                	sd	s1,8(a5)
    80003cfe:	00670f63          	beq	a4,t1,80003d1c <AES_Encrypt+0x1564>
    80003d02:	6b8c                	ld	a1,16(a5)
    80003d04:	6f84                	ld	s1,24(a5)
    80003d06:	209585fb          	.insn	4, 0x209585fb
    80003d0a:	04b594ab          	.insn	4, 0x04b594ab
    80003d0e:	eb8c                	sd	a1,16(a5)
    80003d10:	ef84                	sd	s1,24(a5)
    80003d12:	1771                	addi	a4,a4,-4
    80003d14:	04078793          	addi	a5,a5,64
    80003d18:	fa5710e3          	bne	a4,t0,80003cb8 <AES_Encrypt+0x1500>
    80003d1c:	45c1                	li	a1,16
    80003d1e:	00b9c9e3          	blt	s3,a1,80004530 <AES_Encrypt+0x1d78>
    80003d22:	00083583          	ld	a1,0(a6)
    80003d26:	fff68713          	addi	a4,a3,-1
    80003d2a:	02058793          	addi	a5,a1,32
    80003d2e:	4605                	li	a2,1
    80003d30:	4309                	li	t1,2
    80003d32:	52fd                	li	t0,-1
    80003d34:	fe07b483          	ld	s1,-32(a5)
    80003d38:	fe87b583          	ld	a1,-24(a5)
    80003d3c:	00b485fb          	.insn	4, 0x00b485fb
    80003d40:	00b594ab          	.insn	4, 0x00b594ab
    80003d44:	feb7b023          	sd	a1,-32(a5)
    80003d48:	fe97b423          	sd	s1,-24(a5)
    80003d4c:	c731                	beqz	a4,80003d98 <AES_Encrypt+0x15e0>
    80003d4e:	ff07b583          	ld	a1,-16(a5)
    80003d52:	ff87b483          	ld	s1,-8(a5)
    80003d56:	009585fb          	.insn	4, 0x009585fb
    80003d5a:	00b594ab          	.insn	4, 0x00b594ab
    80003d5e:	feb7b823          	sd	a1,-16(a5)
    80003d62:	fe97bc23          	sd	s1,-8(a5)
    80003d66:	02c70963          	beq	a4,a2,80003d98 <AES_Encrypt+0x15e0>
    80003d6a:	638c                	ld	a1,0(a5)
    80003d6c:	6784                	ld	s1,8(a5)
    80003d6e:	009585fb          	.insn	4, 0x009585fb
    80003d72:	00b594ab          	.insn	4, 0x00b594ab
    80003d76:	e38c                	sd	a1,0(a5)
    80003d78:	e784                	sd	s1,8(a5)
    80003d7a:	00670f63          	beq	a4,t1,80003d98 <AES_Encrypt+0x15e0>
    80003d7e:	6b8c                	ld	a1,16(a5)
    80003d80:	6f84                	ld	s1,24(a5)
    80003d82:	009585fb          	.insn	4, 0x009585fb
    80003d86:	00b594ab          	.insn	4, 0x00b594ab
    80003d8a:	eb8c                	sd	a1,16(a5)
    80003d8c:	ef84                	sd	s1,24(a5)
    80003d8e:	1771                	addi	a4,a4,-4
    80003d90:	04078793          	addi	a5,a5,64
    80003d94:	fa5710e3          	bne	a4,t0,80003d34 <AES_Encrypt+0x157c>
    80003d98:	45c1                	li	a1,16
    80003d9a:	78b9cb63          	blt	s3,a1,80004530 <AES_Encrypt+0x1d78>
    80003d9e:	473d                	li	a4,15
    80003da0:	08040583          	lb	a1,128(s0)
    80003da4:	6110                	ld	a2,0(a0)
    80003da6:	963a                	add	a2,a2,a4
    80003da8:	ff160783          	lb	a5,-15(a2)
    80003dac:	8dbd                	xor	a1,a1,a5
    80003dae:	feb608a3          	sb	a1,-15(a2)
    80003db2:	08140583          	lb	a1,129(s0)
    80003db6:	6110                	ld	a2,0(a0)
    80003db8:	963a                	add	a2,a2,a4
    80003dba:	ff260783          	lb	a5,-14(a2)
    80003dbe:	8dbd                	xor	a1,a1,a5
    80003dc0:	feb60923          	sb	a1,-14(a2)
    80003dc4:	08240583          	lb	a1,130(s0)
    80003dc8:	6110                	ld	a2,0(a0)
    80003dca:	963a                	add	a2,a2,a4
    80003dcc:	ff360783          	lb	a5,-13(a2)
    80003dd0:	8dbd                	xor	a1,a1,a5
    80003dd2:	feb609a3          	sb	a1,-13(a2)
    80003dd6:	08340583          	lb	a1,131(s0)
    80003dda:	6110                	ld	a2,0(a0)
    80003ddc:	963a                	add	a2,a2,a4
    80003dde:	ff460783          	lb	a5,-12(a2)
    80003de2:	8dbd                	xor	a1,a1,a5
    80003de4:	feb60a23          	sb	a1,-12(a2)
    80003de8:	08440583          	lb	a1,132(s0)
    80003dec:	6110                	ld	a2,0(a0)
    80003dee:	963a                	add	a2,a2,a4
    80003df0:	ff560783          	lb	a5,-11(a2)
    80003df4:	8dbd                	xor	a1,a1,a5
    80003df6:	feb60aa3          	sb	a1,-11(a2)
    80003dfa:	08540583          	lb	a1,133(s0)
    80003dfe:	6110                	ld	a2,0(a0)
    80003e00:	963a                	add	a2,a2,a4
    80003e02:	ff660783          	lb	a5,-10(a2)
    80003e06:	8dbd                	xor	a1,a1,a5
    80003e08:	feb60b23          	sb	a1,-10(a2)
    80003e0c:	08640583          	lb	a1,134(s0)
    80003e10:	6110                	ld	a2,0(a0)
    80003e12:	963a                	add	a2,a2,a4
    80003e14:	ff760783          	lb	a5,-9(a2)
    80003e18:	8dbd                	xor	a1,a1,a5
    80003e1a:	feb60ba3          	sb	a1,-9(a2)
    80003e1e:	08740583          	lb	a1,135(s0)
    80003e22:	6110                	ld	a2,0(a0)
    80003e24:	963a                	add	a2,a2,a4
    80003e26:	ff860783          	lb	a5,-8(a2)
    80003e2a:	8dbd                	xor	a1,a1,a5
    80003e2c:	feb60c23          	sb	a1,-8(a2)
    80003e30:	08840583          	lb	a1,136(s0)
    80003e34:	6110                	ld	a2,0(a0)
    80003e36:	963a                	add	a2,a2,a4
    80003e38:	ff960783          	lb	a5,-7(a2)
    80003e3c:	8dbd                	xor	a1,a1,a5
    80003e3e:	feb60ca3          	sb	a1,-7(a2)
    80003e42:	08940583          	lb	a1,137(s0)
    80003e46:	6110                	ld	a2,0(a0)
    80003e48:	963a                	add	a2,a2,a4
    80003e4a:	ffa60783          	lb	a5,-6(a2)
    80003e4e:	8dbd                	xor	a1,a1,a5
    80003e50:	feb60d23          	sb	a1,-6(a2)
    80003e54:	08a40583          	lb	a1,138(s0)
    80003e58:	6110                	ld	a2,0(a0)
    80003e5a:	963a                	add	a2,a2,a4
    80003e5c:	ffb60783          	lb	a5,-5(a2)
    80003e60:	8dbd                	xor	a1,a1,a5
    80003e62:	feb60da3          	sb	a1,-5(a2)
    80003e66:	08b40583          	lb	a1,139(s0)
    80003e6a:	6110                	ld	a2,0(a0)
    80003e6c:	963a                	add	a2,a2,a4
    80003e6e:	ffc60783          	lb	a5,-4(a2)
    80003e72:	8dbd                	xor	a1,a1,a5
    80003e74:	feb60e23          	sb	a1,-4(a2)
    80003e78:	08c40583          	lb	a1,140(s0)
    80003e7c:	6110                	ld	a2,0(a0)
    80003e7e:	963a                	add	a2,a2,a4
    80003e80:	ffd60783          	lb	a5,-3(a2)
    80003e84:	8dbd                	xor	a1,a1,a5
    80003e86:	feb60ea3          	sb	a1,-3(a2)
    80003e8a:	08d40583          	lb	a1,141(s0)
    80003e8e:	6110                	ld	a2,0(a0)
    80003e90:	963a                	add	a2,a2,a4
    80003e92:	ffe60783          	lb	a5,-2(a2)
    80003e96:	8dbd                	xor	a1,a1,a5
    80003e98:	feb60f23          	sb	a1,-2(a2)
    80003e9c:	08e40583          	lb	a1,142(s0)
    80003ea0:	6110                	ld	a2,0(a0)
    80003ea2:	963a                	add	a2,a2,a4
    80003ea4:	fff60783          	lb	a5,-1(a2)
    80003ea8:	8dbd                	xor	a1,a1,a5
    80003eaa:	feb60fa3          	sb	a1,-1(a2)
    80003eae:	08f40583          	lb	a1,143(s0)
    80003eb2:	6110                	ld	a2,0(a0)
    80003eb4:	963a                	add	a2,a2,a4
    80003eb6:	00060783          	lb	a5,0(a2)
    80003eba:	8dbd                	xor	a1,a1,a5
    80003ebc:	00b60023          	sb	a1,0(a2)
    80003ec0:	16fd                	addi	a3,a3,-1
    80003ec2:	0741                	addi	a4,a4,16
    80003ec4:	ec069ee3          	bnez	a3,80003da0 <AES_Encrypt+0x15e8>
    80003ec8:	45c1                	li	a1,16
    80003eca:	66b9c363          	blt	s3,a1,80004530 <AES_Encrypt+0x1d78>
    80003ece:	00083583          	ld	a1,0(a6)
    80003ed2:	0208d693          	srli	a3,a7,0x20
    80003ed6:	fff68713          	addi	a4,a3,-1
    80003eda:	02058793          	addi	a5,a1,32
    80003ede:	4605                	li	a2,1
    80003ee0:	4309                	li	t1,2
    80003ee2:	52fd                	li	t0,-1
    80003ee4:	fe07b483          	ld	s1,-32(a5)
    80003ee8:	fe87b583          	ld	a1,-24(a5)
    80003eec:	40b485fb          	.insn	4, 0x40b485fb
    80003ef0:	08b594ab          	.insn	4, 0x08b594ab
    80003ef4:	feb7b023          	sd	a1,-32(a5)
    80003ef8:	fe97b423          	sd	s1,-24(a5)
    80003efc:	c731                	beqz	a4,80003f48 <AES_Encrypt+0x1790>
    80003efe:	ff07b583          	ld	a1,-16(a5)
    80003f02:	ff87b483          	ld	s1,-8(a5)
    80003f06:	409585fb          	.insn	4, 0x409585fb
    80003f0a:	08b594ab          	.insn	4, 0x08b594ab
    80003f0e:	feb7b823          	sd	a1,-16(a5)
    80003f12:	fe97bc23          	sd	s1,-8(a5)
    80003f16:	02c70963          	beq	a4,a2,80003f48 <AES_Encrypt+0x1790>
    80003f1a:	638c                	ld	a1,0(a5)
    80003f1c:	6784                	ld	s1,8(a5)
    80003f1e:	409585fb          	.insn	4, 0x409585fb
    80003f22:	08b594ab          	.insn	4, 0x08b594ab
    80003f26:	e38c                	sd	a1,0(a5)
    80003f28:	e784                	sd	s1,8(a5)
    80003f2a:	00670f63          	beq	a4,t1,80003f48 <AES_Encrypt+0x1790>
    80003f2e:	6b8c                	ld	a1,16(a5)
    80003f30:	6f84                	ld	s1,24(a5)
    80003f32:	409585fb          	.insn	4, 0x409585fb
    80003f36:	08b594ab          	.insn	4, 0x08b594ab
    80003f3a:	eb8c                	sd	a1,16(a5)
    80003f3c:	ef84                	sd	s1,24(a5)
    80003f3e:	1771                	addi	a4,a4,-4
    80003f40:	04078793          	addi	a5,a5,64
    80003f44:	fa5710e3          	bne	a4,t0,80003ee4 <AES_Encrypt+0x172c>
    80003f48:	45c1                	li	a1,16
    80003f4a:	5eb9c363          	blt	s3,a1,80004530 <AES_Encrypt+0x1d78>
    80003f4e:	00083583          	ld	a1,0(a6)
    80003f52:	fff68713          	addi	a4,a3,-1
    80003f56:	02058793          	addi	a5,a1,32
    80003f5a:	4605                	li	a2,1
    80003f5c:	4309                	li	t1,2
    80003f5e:	52fd                	li	t0,-1
    80003f60:	fe07b483          	ld	s1,-32(a5)
    80003f64:	fe87b583          	ld	a1,-24(a5)
    80003f68:	20b485fb          	.insn	4, 0x20b485fb
    80003f6c:	04b594ab          	.insn	4, 0x04b594ab
    80003f70:	feb7b023          	sd	a1,-32(a5)
    80003f74:	fe97b423          	sd	s1,-24(a5)
    80003f78:	c731                	beqz	a4,80003fc4 <AES_Encrypt+0x180c>
    80003f7a:	ff07b583          	ld	a1,-16(a5)
    80003f7e:	ff87b483          	ld	s1,-8(a5)
    80003f82:	209585fb          	.insn	4, 0x209585fb
    80003f86:	04b594ab          	.insn	4, 0x04b594ab
    80003f8a:	feb7b823          	sd	a1,-16(a5)
    80003f8e:	fe97bc23          	sd	s1,-8(a5)
    80003f92:	02c70963          	beq	a4,a2,80003fc4 <AES_Encrypt+0x180c>
    80003f96:	638c                	ld	a1,0(a5)
    80003f98:	6784                	ld	s1,8(a5)
    80003f9a:	209585fb          	.insn	4, 0x209585fb
    80003f9e:	04b594ab          	.insn	4, 0x04b594ab
    80003fa2:	e38c                	sd	a1,0(a5)
    80003fa4:	e784                	sd	s1,8(a5)
    80003fa6:	00670f63          	beq	a4,t1,80003fc4 <AES_Encrypt+0x180c>
    80003faa:	6b8c                	ld	a1,16(a5)
    80003fac:	6f84                	ld	s1,24(a5)
    80003fae:	209585fb          	.insn	4, 0x209585fb
    80003fb2:	04b594ab          	.insn	4, 0x04b594ab
    80003fb6:	eb8c                	sd	a1,16(a5)
    80003fb8:	ef84                	sd	s1,24(a5)
    80003fba:	1771                	addi	a4,a4,-4
    80003fbc:	04078793          	addi	a5,a5,64
    80003fc0:	fa5710e3          	bne	a4,t0,80003f60 <AES_Encrypt+0x17a8>
    80003fc4:	45c1                	li	a1,16
    80003fc6:	56b9c563          	blt	s3,a1,80004530 <AES_Encrypt+0x1d78>
    80003fca:	00083583          	ld	a1,0(a6)
    80003fce:	fff68713          	addi	a4,a3,-1
    80003fd2:	02058793          	addi	a5,a1,32
    80003fd6:	4605                	li	a2,1
    80003fd8:	4309                	li	t1,2
    80003fda:	52fd                	li	t0,-1
    80003fdc:	fe07b483          	ld	s1,-32(a5)
    80003fe0:	fe87b583          	ld	a1,-24(a5)
    80003fe4:	00b485fb          	.insn	4, 0x00b485fb
    80003fe8:	00b594ab          	.insn	4, 0x00b594ab
    80003fec:	feb7b023          	sd	a1,-32(a5)
    80003ff0:	fe97b423          	sd	s1,-24(a5)
    80003ff4:	c731                	beqz	a4,80004040 <AES_Encrypt+0x1888>
    80003ff6:	ff07b583          	ld	a1,-16(a5)
    80003ffa:	ff87b483          	ld	s1,-8(a5)
    80003ffe:	009585fb          	.insn	4, 0x009585fb
    80004002:	00b594ab          	.insn	4, 0x00b594ab
    80004006:	feb7b823          	sd	a1,-16(a5)
    8000400a:	fe97bc23          	sd	s1,-8(a5)
    8000400e:	02c70963          	beq	a4,a2,80004040 <AES_Encrypt+0x1888>
    80004012:	638c                	ld	a1,0(a5)
    80004014:	6784                	ld	s1,8(a5)
    80004016:	009585fb          	.insn	4, 0x009585fb
    8000401a:	00b594ab          	.insn	4, 0x00b594ab
    8000401e:	e38c                	sd	a1,0(a5)
    80004020:	e784                	sd	s1,8(a5)
    80004022:	00670f63          	beq	a4,t1,80004040 <AES_Encrypt+0x1888>
    80004026:	6b8c                	ld	a1,16(a5)
    80004028:	6f84                	ld	s1,24(a5)
    8000402a:	009585fb          	.insn	4, 0x009585fb
    8000402e:	00b594ab          	.insn	4, 0x00b594ab
    80004032:	eb8c                	sd	a1,16(a5)
    80004034:	ef84                	sd	s1,24(a5)
    80004036:	1771                	addi	a4,a4,-4
    80004038:	04078793          	addi	a5,a5,64
    8000403c:	fa5710e3          	bne	a4,t0,80003fdc <AES_Encrypt+0x1824>
    80004040:	45c1                	li	a1,16
    80004042:	4eb9c763          	blt	s3,a1,80004530 <AES_Encrypt+0x1d78>
    80004046:	473d                	li	a4,15
    80004048:	09040583          	lb	a1,144(s0)
    8000404c:	6110                	ld	a2,0(a0)
    8000404e:	963a                	add	a2,a2,a4
    80004050:	ff160783          	lb	a5,-15(a2)
    80004054:	8dbd                	xor	a1,a1,a5
    80004056:	feb608a3          	sb	a1,-15(a2)
    8000405a:	09140583          	lb	a1,145(s0)
    8000405e:	6110                	ld	a2,0(a0)
    80004060:	963a                	add	a2,a2,a4
    80004062:	ff260783          	lb	a5,-14(a2)
    80004066:	8dbd                	xor	a1,a1,a5
    80004068:	feb60923          	sb	a1,-14(a2)
    8000406c:	09240583          	lb	a1,146(s0)
    80004070:	6110                	ld	a2,0(a0)
    80004072:	963a                	add	a2,a2,a4
    80004074:	ff360783          	lb	a5,-13(a2)
    80004078:	8dbd                	xor	a1,a1,a5
    8000407a:	feb609a3          	sb	a1,-13(a2)
    8000407e:	09340583          	lb	a1,147(s0)
    80004082:	6110                	ld	a2,0(a0)
    80004084:	963a                	add	a2,a2,a4
    80004086:	ff460783          	lb	a5,-12(a2)
    8000408a:	8dbd                	xor	a1,a1,a5
    8000408c:	feb60a23          	sb	a1,-12(a2)
    80004090:	09440583          	lb	a1,148(s0)
    80004094:	6110                	ld	a2,0(a0)
    80004096:	963a                	add	a2,a2,a4
    80004098:	ff560783          	lb	a5,-11(a2)
    8000409c:	8dbd                	xor	a1,a1,a5
    8000409e:	feb60aa3          	sb	a1,-11(a2)
    800040a2:	09540583          	lb	a1,149(s0)
    800040a6:	6110                	ld	a2,0(a0)
    800040a8:	963a                	add	a2,a2,a4
    800040aa:	ff660783          	lb	a5,-10(a2)
    800040ae:	8dbd                	xor	a1,a1,a5
    800040b0:	feb60b23          	sb	a1,-10(a2)
    800040b4:	09640583          	lb	a1,150(s0)
    800040b8:	6110                	ld	a2,0(a0)
    800040ba:	963a                	add	a2,a2,a4
    800040bc:	ff760783          	lb	a5,-9(a2)
    800040c0:	8dbd                	xor	a1,a1,a5
    800040c2:	feb60ba3          	sb	a1,-9(a2)
    800040c6:	09740583          	lb	a1,151(s0)
    800040ca:	6110                	ld	a2,0(a0)
    800040cc:	963a                	add	a2,a2,a4
    800040ce:	ff860783          	lb	a5,-8(a2)
    800040d2:	8dbd                	xor	a1,a1,a5
    800040d4:	feb60c23          	sb	a1,-8(a2)
    800040d8:	09840583          	lb	a1,152(s0)
    800040dc:	6110                	ld	a2,0(a0)
    800040de:	963a                	add	a2,a2,a4
    800040e0:	ff960783          	lb	a5,-7(a2)
    800040e4:	8dbd                	xor	a1,a1,a5
    800040e6:	feb60ca3          	sb	a1,-7(a2)
    800040ea:	09940583          	lb	a1,153(s0)
    800040ee:	6110                	ld	a2,0(a0)
    800040f0:	963a                	add	a2,a2,a4
    800040f2:	ffa60783          	lb	a5,-6(a2)
    800040f6:	8dbd                	xor	a1,a1,a5
    800040f8:	feb60d23          	sb	a1,-6(a2)
    800040fc:	09a40583          	lb	a1,154(s0)
    80004100:	6110                	ld	a2,0(a0)
    80004102:	963a                	add	a2,a2,a4
    80004104:	ffb60783          	lb	a5,-5(a2)
    80004108:	8dbd                	xor	a1,a1,a5
    8000410a:	feb60da3          	sb	a1,-5(a2)
    8000410e:	09b40583          	lb	a1,155(s0)
    80004112:	6110                	ld	a2,0(a0)
    80004114:	963a                	add	a2,a2,a4
    80004116:	ffc60783          	lb	a5,-4(a2)
    8000411a:	8dbd                	xor	a1,a1,a5
    8000411c:	feb60e23          	sb	a1,-4(a2)
    80004120:	09c40583          	lb	a1,156(s0)
    80004124:	6110                	ld	a2,0(a0)
    80004126:	963a                	add	a2,a2,a4
    80004128:	ffd60783          	lb	a5,-3(a2)
    8000412c:	8dbd                	xor	a1,a1,a5
    8000412e:	feb60ea3          	sb	a1,-3(a2)
    80004132:	09d40583          	lb	a1,157(s0)
    80004136:	6110                	ld	a2,0(a0)
    80004138:	963a                	add	a2,a2,a4
    8000413a:	ffe60783          	lb	a5,-2(a2)
    8000413e:	8dbd                	xor	a1,a1,a5
    80004140:	feb60f23          	sb	a1,-2(a2)
    80004144:	09e40583          	lb	a1,158(s0)
    80004148:	6110                	ld	a2,0(a0)
    8000414a:	963a                	add	a2,a2,a4
    8000414c:	fff60783          	lb	a5,-1(a2)
    80004150:	8dbd                	xor	a1,a1,a5
    80004152:	feb60fa3          	sb	a1,-1(a2)
    80004156:	09f40583          	lb	a1,159(s0)
    8000415a:	6110                	ld	a2,0(a0)
    8000415c:	963a                	add	a2,a2,a4
    8000415e:	00060783          	lb	a5,0(a2)
    80004162:	8dbd                	xor	a1,a1,a5
    80004164:	00b60023          	sb	a1,0(a2)
    80004168:	16fd                	addi	a3,a3,-1
    8000416a:	0741                	addi	a4,a4,16
    8000416c:	ec069ee3          	bnez	a3,80004048 <AES_Encrypt+0x1890>
    80004170:	46bd                	li	a3,15
    80004172:	3b36df63          	bge	a3,s3,80004530 <AES_Encrypt+0x1d78>
    80004176:	0208d713          	srli	a4,a7,0x20
    8000417a:	00001797          	auipc	a5,0x1
    8000417e:	07f78793          	addi	a5,a5,127 # 800051f9 <sbox>
    80004182:	610c                	ld	a1,0(a0)
    80004184:	95b6                	add	a1,a1,a3
    80004186:	ff15c603          	lbu	a2,-15(a1)
    8000418a:	963e                	add	a2,a2,a5
    8000418c:	00060603          	lb	a2,0(a2)
    80004190:	fec588a3          	sb	a2,-15(a1)
    80004194:	610c                	ld	a1,0(a0)
    80004196:	95b6                	add	a1,a1,a3
    80004198:	ff25c603          	lbu	a2,-14(a1)
    8000419c:	963e                	add	a2,a2,a5
    8000419e:	00060603          	lb	a2,0(a2)
    800041a2:	fec58923          	sb	a2,-14(a1)
    800041a6:	610c                	ld	a1,0(a0)
    800041a8:	95b6                	add	a1,a1,a3
    800041aa:	ff35c603          	lbu	a2,-13(a1)
    800041ae:	963e                	add	a2,a2,a5
    800041b0:	00060603          	lb	a2,0(a2)
    800041b4:	fec589a3          	sb	a2,-13(a1)
    800041b8:	610c                	ld	a1,0(a0)
    800041ba:	95b6                	add	a1,a1,a3
    800041bc:	ff45c603          	lbu	a2,-12(a1)
    800041c0:	963e                	add	a2,a2,a5
    800041c2:	00060603          	lb	a2,0(a2)
    800041c6:	fec58a23          	sb	a2,-12(a1)
    800041ca:	610c                	ld	a1,0(a0)
    800041cc:	95b6                	add	a1,a1,a3
    800041ce:	ff55c603          	lbu	a2,-11(a1)
    800041d2:	963e                	add	a2,a2,a5
    800041d4:	00060603          	lb	a2,0(a2)
    800041d8:	fec58aa3          	sb	a2,-11(a1)
    800041dc:	610c                	ld	a1,0(a0)
    800041de:	95b6                	add	a1,a1,a3
    800041e0:	ff65c603          	lbu	a2,-10(a1)
    800041e4:	963e                	add	a2,a2,a5
    800041e6:	00060603          	lb	a2,0(a2)
    800041ea:	fec58b23          	sb	a2,-10(a1)
    800041ee:	610c                	ld	a1,0(a0)
    800041f0:	95b6                	add	a1,a1,a3
    800041f2:	ff75c603          	lbu	a2,-9(a1)
    800041f6:	963e                	add	a2,a2,a5
    800041f8:	00060603          	lb	a2,0(a2)
    800041fc:	fec58ba3          	sb	a2,-9(a1)
    80004200:	610c                	ld	a1,0(a0)
    80004202:	95b6                	add	a1,a1,a3
    80004204:	ff85c603          	lbu	a2,-8(a1)
    80004208:	963e                	add	a2,a2,a5
    8000420a:	00060603          	lb	a2,0(a2)
    8000420e:	fec58c23          	sb	a2,-8(a1)
    80004212:	610c                	ld	a1,0(a0)
    80004214:	95b6                	add	a1,a1,a3
    80004216:	ff95c603          	lbu	a2,-7(a1)
    8000421a:	963e                	add	a2,a2,a5
    8000421c:	00060603          	lb	a2,0(a2)
    80004220:	fec58ca3          	sb	a2,-7(a1)
    80004224:	610c                	ld	a1,0(a0)
    80004226:	95b6                	add	a1,a1,a3
    80004228:	ffa5c603          	lbu	a2,-6(a1)
    8000422c:	963e                	add	a2,a2,a5
    8000422e:	00060603          	lb	a2,0(a2)
    80004232:	fec58d23          	sb	a2,-6(a1)
    80004236:	610c                	ld	a1,0(a0)
    80004238:	95b6                	add	a1,a1,a3
    8000423a:	ffb5c603          	lbu	a2,-5(a1)
    8000423e:	963e                	add	a2,a2,a5
    80004240:	00060603          	lb	a2,0(a2)
    80004244:	fec58da3          	sb	a2,-5(a1)
    80004248:	610c                	ld	a1,0(a0)
    8000424a:	95b6                	add	a1,a1,a3
    8000424c:	ffc5c603          	lbu	a2,-4(a1)
    80004250:	963e                	add	a2,a2,a5
    80004252:	00060603          	lb	a2,0(a2)
    80004256:	fec58e23          	sb	a2,-4(a1)
    8000425a:	610c                	ld	a1,0(a0)
    8000425c:	95b6                	add	a1,a1,a3
    8000425e:	ffd5c603          	lbu	a2,-3(a1)
    80004262:	963e                	add	a2,a2,a5
    80004264:	00060603          	lb	a2,0(a2)
    80004268:	fec58ea3          	sb	a2,-3(a1)
    8000426c:	610c                	ld	a1,0(a0)
    8000426e:	95b6                	add	a1,a1,a3
    80004270:	ffe5c603          	lbu	a2,-2(a1)
    80004274:	963e                	add	a2,a2,a5
    80004276:	00060603          	lb	a2,0(a2)
    8000427a:	fec58f23          	sb	a2,-2(a1)
    8000427e:	610c                	ld	a1,0(a0)
    80004280:	95b6                	add	a1,a1,a3
    80004282:	fff5c603          	lbu	a2,-1(a1)
    80004286:	963e                	add	a2,a2,a5
    80004288:	00060603          	lb	a2,0(a2)
    8000428c:	fec58fa3          	sb	a2,-1(a1)
    80004290:	610c                	ld	a1,0(a0)
    80004292:	95b6                	add	a1,a1,a3
    80004294:	0005c603          	lbu	a2,0(a1)
    80004298:	963e                	add	a2,a2,a5
    8000429a:	00060603          	lb	a2,0(a2)
    8000429e:	00c58023          	sb	a2,0(a1)
    800042a2:	177d                	addi	a4,a4,-1
    800042a4:	06c1                	addi	a3,a3,16
    800042a6:	ec071ee3          	bnez	a4,80004182 <AES_Encrypt+0x19ca>
    800042aa:	45c1                	li	a1,16
    800042ac:	28b9c263          	blt	s3,a1,80004530 <AES_Encrypt+0x1d78>
    800042b0:	00083583          	ld	a1,0(a6)
    800042b4:	0208d613          	srli	a2,a7,0x20
    800042b8:	fff60693          	addi	a3,a2,-1
    800042bc:	02058713          	addi	a4,a1,32
    800042c0:	4785                	li	a5,1
    800042c2:	4289                	li	t0,2
    800042c4:	587d                	li	a6,-1
    800042c6:	fe073583          	ld	a1,-32(a4)
    800042ca:	fe873483          	ld	s1,-24(a4)
    800042ce:	209585fb          	.insn	4, 0x209585fb
    800042d2:	04b594ab          	.insn	4, 0x04b594ab
    800042d6:	feb73023          	sd	a1,-32(a4)
    800042da:	fe973423          	sd	s1,-24(a4)
    800042de:	c6b1                	beqz	a3,8000432a <AES_Encrypt+0x1b72>
    800042e0:	ff073583          	ld	a1,-16(a4)
    800042e4:	ff873483          	ld	s1,-8(a4)
    800042e8:	209585fb          	.insn	4, 0x209585fb
    800042ec:	04b594ab          	.insn	4, 0x04b594ab
    800042f0:	feb73823          	sd	a1,-16(a4)
    800042f4:	fe973c23          	sd	s1,-8(a4)
    800042f8:	02f68963          	beq	a3,a5,8000432a <AES_Encrypt+0x1b72>
    800042fc:	630c                	ld	a1,0(a4)
    800042fe:	6704                	ld	s1,8(a4)
    80004300:	209585fb          	.insn	4, 0x209585fb
    80004304:	04b594ab          	.insn	4, 0x04b594ab
    80004308:	e30c                	sd	a1,0(a4)
    8000430a:	e704                	sd	s1,8(a4)
    8000430c:	00568f63          	beq	a3,t0,8000432a <AES_Encrypt+0x1b72>
    80004310:	6b0c                	ld	a1,16(a4)
    80004312:	6f04                	ld	s1,24(a4)
    80004314:	209585fb          	.insn	4, 0x209585fb
    80004318:	04b594ab          	.insn	4, 0x04b594ab
    8000431c:	eb0c                	sd	a1,16(a4)
    8000431e:	ef04                	sd	s1,24(a4)
    80004320:	16f1                	addi	a3,a3,-4
    80004322:	04070713          	addi	a4,a4,64
    80004326:	fb0690e3          	bne	a3,a6,800042c6 <AES_Encrypt+0x1b0e>
    8000432a:	45c1                	li	a1,16
    8000432c:	20b9c263          	blt	s3,a1,80004530 <AES_Encrypt+0x1d78>
    80004330:	46bd                	li	a3,15
    80004332:	0a040583          	lb	a1,160(s0)
    80004336:	6118                	ld	a4,0(a0)
    80004338:	9736                	add	a4,a4,a3
    8000433a:	ff170783          	lb	a5,-15(a4)
    8000433e:	8dbd                	xor	a1,a1,a5
    80004340:	feb708a3          	sb	a1,-15(a4)
    80004344:	0a140583          	lb	a1,161(s0)
    80004348:	6118                	ld	a4,0(a0)
    8000434a:	9736                	add	a4,a4,a3
    8000434c:	ff270783          	lb	a5,-14(a4)
    80004350:	8dbd                	xor	a1,a1,a5
    80004352:	feb70923          	sb	a1,-14(a4)
    80004356:	0a240583          	lb	a1,162(s0)
    8000435a:	6118                	ld	a4,0(a0)
    8000435c:	9736                	add	a4,a4,a3
    8000435e:	ff370783          	lb	a5,-13(a4)
    80004362:	8dbd                	xor	a1,a1,a5
    80004364:	feb709a3          	sb	a1,-13(a4)
    80004368:	0a340583          	lb	a1,163(s0)
    8000436c:	6118                	ld	a4,0(a0)
    8000436e:	9736                	add	a4,a4,a3
    80004370:	ff470783          	lb	a5,-12(a4)
    80004374:	8dbd                	xor	a1,a1,a5
    80004376:	feb70a23          	sb	a1,-12(a4)
    8000437a:	0a440583          	lb	a1,164(s0)
    8000437e:	6118                	ld	a4,0(a0)
    80004380:	9736                	add	a4,a4,a3
    80004382:	ff570783          	lb	a5,-11(a4)
    80004386:	8dbd                	xor	a1,a1,a5
    80004388:	feb70aa3          	sb	a1,-11(a4)
    8000438c:	0a540583          	lb	a1,165(s0)
    80004390:	6118                	ld	a4,0(a0)
    80004392:	9736                	add	a4,a4,a3
    80004394:	ff670783          	lb	a5,-10(a4)
    80004398:	8dbd                	xor	a1,a1,a5
    8000439a:	feb70b23          	sb	a1,-10(a4)
    8000439e:	0a640583          	lb	a1,166(s0)
    800043a2:	6118                	ld	a4,0(a0)
    800043a4:	9736                	add	a4,a4,a3
    800043a6:	ff770783          	lb	a5,-9(a4)
    800043aa:	8dbd                	xor	a1,a1,a5
    800043ac:	feb70ba3          	sb	a1,-9(a4)
    800043b0:	0a740583          	lb	a1,167(s0)
    800043b4:	6118                	ld	a4,0(a0)
    800043b6:	9736                	add	a4,a4,a3
    800043b8:	ff870783          	lb	a5,-8(a4)
    800043bc:	8dbd                	xor	a1,a1,a5
    800043be:	feb70c23          	sb	a1,-8(a4)
    800043c2:	0a840583          	lb	a1,168(s0)
    800043c6:	6118                	ld	a4,0(a0)
    800043c8:	9736                	add	a4,a4,a3
    800043ca:	ff970783          	lb	a5,-7(a4)
    800043ce:	8dbd                	xor	a1,a1,a5
    800043d0:	feb70ca3          	sb	a1,-7(a4)
    800043d4:	0a940583          	lb	a1,169(s0)
    800043d8:	6118                	ld	a4,0(a0)
    800043da:	9736                	add	a4,a4,a3
    800043dc:	ffa70783          	lb	a5,-6(a4)
    800043e0:	8dbd                	xor	a1,a1,a5
    800043e2:	feb70d23          	sb	a1,-6(a4)
    800043e6:	0aa40583          	lb	a1,170(s0)
    800043ea:	6118                	ld	a4,0(a0)
    800043ec:	9736                	add	a4,a4,a3
    800043ee:	ffb70783          	lb	a5,-5(a4)
    800043f2:	8dbd                	xor	a1,a1,a5
    800043f4:	feb70da3          	sb	a1,-5(a4)
    800043f8:	0ab40583          	lb	a1,171(s0)
    800043fc:	6118                	ld	a4,0(a0)
    800043fe:	9736                	add	a4,a4,a3
    80004400:	ffc70783          	lb	a5,-4(a4)
    80004404:	8dbd                	xor	a1,a1,a5
    80004406:	feb70e23          	sb	a1,-4(a4)
    8000440a:	0ac40583          	lb	a1,172(s0)
    8000440e:	6118                	ld	a4,0(a0)
    80004410:	9736                	add	a4,a4,a3
    80004412:	ffd70783          	lb	a5,-3(a4)
    80004416:	8dbd                	xor	a1,a1,a5
    80004418:	feb70ea3          	sb	a1,-3(a4)
    8000441c:	0ad40583          	lb	a1,173(s0)
    80004420:	6118                	ld	a4,0(a0)
    80004422:	9736                	add	a4,a4,a3
    80004424:	ffe70783          	lb	a5,-2(a4)
    80004428:	8dbd                	xor	a1,a1,a5
    8000442a:	feb70f23          	sb	a1,-2(a4)
    8000442e:	0ae40583          	lb	a1,174(s0)
    80004432:	6118                	ld	a4,0(a0)
    80004434:	9736                	add	a4,a4,a3
    80004436:	fff70783          	lb	a5,-1(a4)
    8000443a:	8dbd                	xor	a1,a1,a5
    8000443c:	feb70fa3          	sb	a1,-1(a4)
    80004440:	0af40583          	lb	a1,175(s0)
    80004444:	6118                	ld	a4,0(a0)
    80004446:	9736                	add	a4,a4,a3
    80004448:	00070783          	lb	a5,0(a4)
    8000444c:	8dbd                	xor	a1,a1,a5
    8000444e:	00b70023          	sb	a1,0(a4)
    80004452:	167d                	addi	a2,a2,-1
    80004454:	06c1                	addi	a3,a3,16
    80004456:	ec061ee3          	bnez	a2,80004332 <AES_Encrypt+0x1b7a>
    8000445a:	45c1                	li	a1,16
    8000445c:	0cb9ca63          	blt	s3,a1,80004530 <AES_Encrypt+0x1d78>
    80004460:	0208d593          	srli	a1,a7,0x20
    80004464:	463d                	li	a2,15
    80004466:	6114                	ld	a3,0(a0)
    80004468:	96b2                	add	a3,a3,a2
    8000446a:	ff168703          	lb	a4,-15(a3)
    8000446e:	00c906b3          	add	a3,s2,a2
    80004472:	fee688a3          	sb	a4,-15(a3)
    80004476:	6118                	ld	a4,0(a0)
    80004478:	9732                	add	a4,a4,a2
    8000447a:	ff570703          	lb	a4,-11(a4)
    8000447e:	fee68923          	sb	a4,-14(a3)
    80004482:	6118                	ld	a4,0(a0)
    80004484:	9732                	add	a4,a4,a2
    80004486:	ff970703          	lb	a4,-7(a4)
    8000448a:	fee689a3          	sb	a4,-13(a3)
    8000448e:	6118                	ld	a4,0(a0)
    80004490:	9732                	add	a4,a4,a2
    80004492:	ffd70703          	lb	a4,-3(a4)
    80004496:	fee68a23          	sb	a4,-12(a3)
    8000449a:	6118                	ld	a4,0(a0)
    8000449c:	9732                	add	a4,a4,a2
    8000449e:	ff270703          	lb	a4,-14(a4)
    800044a2:	fee68aa3          	sb	a4,-11(a3)
    800044a6:	6118                	ld	a4,0(a0)
    800044a8:	9732                	add	a4,a4,a2
    800044aa:	ff670703          	lb	a4,-10(a4)
    800044ae:	fee68b23          	sb	a4,-10(a3)
    800044b2:	6118                	ld	a4,0(a0)
    800044b4:	9732                	add	a4,a4,a2
    800044b6:	ffa70703          	lb	a4,-6(a4)
    800044ba:	fee68ba3          	sb	a4,-9(a3)
    800044be:	6118                	ld	a4,0(a0)
    800044c0:	9732                	add	a4,a4,a2
    800044c2:	ffe70703          	lb	a4,-2(a4)
    800044c6:	fee68c23          	sb	a4,-8(a3)
    800044ca:	6118                	ld	a4,0(a0)
    800044cc:	9732                	add	a4,a4,a2
    800044ce:	ff370703          	lb	a4,-13(a4)
    800044d2:	fee68ca3          	sb	a4,-7(a3)
    800044d6:	6118                	ld	a4,0(a0)
    800044d8:	9732                	add	a4,a4,a2
    800044da:	ff770703          	lb	a4,-9(a4)
    800044de:	fee68d23          	sb	a4,-6(a3)
    800044e2:	6118                	ld	a4,0(a0)
    800044e4:	9732                	add	a4,a4,a2
    800044e6:	ffb70703          	lb	a4,-5(a4)
    800044ea:	fee68da3          	sb	a4,-5(a3)
    800044ee:	6118                	ld	a4,0(a0)
    800044f0:	9732                	add	a4,a4,a2
    800044f2:	fff70703          	lb	a4,-1(a4)
    800044f6:	fee68e23          	sb	a4,-4(a3)
    800044fa:	6118                	ld	a4,0(a0)
    800044fc:	9732                	add	a4,a4,a2
    800044fe:	ff470703          	lb	a4,-12(a4)
    80004502:	fee68ea3          	sb	a4,-3(a3)
    80004506:	6118                	ld	a4,0(a0)
    80004508:	9732                	add	a4,a4,a2
    8000450a:	ff870703          	lb	a4,-8(a4)
    8000450e:	fee68f23          	sb	a4,-2(a3)
    80004512:	6118                	ld	a4,0(a0)
    80004514:	9732                	add	a4,a4,a2
    80004516:	ffc70703          	lb	a4,-4(a4)
    8000451a:	fee68fa3          	sb	a4,-1(a3)
    8000451e:	6118                	ld	a4,0(a0)
    80004520:	9732                	add	a4,a4,a2
    80004522:	00070703          	lb	a4,0(a4)
    80004526:	00e68023          	sb	a4,0(a3)
    8000452a:	15fd                	addi	a1,a1,-1
    8000452c:	0641                	addi	a2,a2,16
    8000452e:	fd85                	bnez	a1,80004466 <AES_Encrypt+0x1cae>
    80004530:	70a2                	ld	ra,40(sp)
    80004532:	7402                	ld	s0,32(sp)
    80004534:	64e2                	ld	s1,24(sp)
    80004536:	6942                	ld	s2,16(sp)
    80004538:	69a2                	ld	s3,8(sp)
    8000453a:	6145                	addi	sp,sp,48
    8000453c:	8082                	ret

000000008000453e <main>:
    8000453e:	1141                	addi	sp,sp,-16
    80004540:	e406                	sd	ra,8(sp)
    80004542:	e022                	sd	s0,0(sp)
    80004544:	00001517          	auipc	a0,0x1
    80004548:	f7c50513          	addi	a0,a0,-132 # 800054c0 <pstate>
    8000454c:	00001597          	auipc	a1,0x1
    80004550:	03c58593          	addi	a1,a1,60 # 80005588 <pintstate>
    80004554:	e10c                	sd	a1,0(a0)
    80004556:	00001517          	auipc	a0,0x1
    8000455a:	f7250513          	addi	a0,a0,-142 # 800054c8 <pullstate>
    8000455e:	e10c                	sd	a1,0(a0)
    80004560:	b0002473          	csrr	s0,mcycle
    80004564:	00001517          	auipc	a0,0x1
    80004568:	da050513          	addi	a0,a0,-608 # 80005304 <plaintext>
    8000456c:	00001597          	auipc	a1,0x1
    80004570:	f1858593          	addi	a1,a1,-232 # 80005484 <key>
    80004574:	00003617          	auipc	a2,0x3
    80004578:	81460613          	addi	a2,a2,-2028 # 80006d88 <encrypted>
    8000457c:	18000693          	li	a3,384
    80004580:	ffffe097          	auipc	ra,0xffffe
    80004584:	238080e7          	jalr	568(ra) # 800027b8 <AES_Encrypt>
    80004588:	b0002573          	csrr	a0,mcycle
    8000458c:	9d01                	subw	a0,a0,s0
    8000458e:	60a2                	ld	ra,8(sp)
    80004590:	6402                	ld	s0,0(sp)
    80004592:	0141                	addi	sp,sp,16
    80004594:	8082                	ret

0000000080004596 <vprintfmt>:
    80004596:	7149                	addi	sp,sp,-368
    80004598:	f2a2                	sd	s0,352(sp)
    8000459a:	eea6                	sd	s1,344(sp)
    8000459c:	eaca                	sd	s2,336(sp)
    8000459e:	e2d2                	sd	s4,320(sp)
    800045a0:	fe56                	sd	s5,312(sp)
    800045a2:	fa5a                	sd	s6,304(sp)
    800045a4:	f65e                	sd	s7,296(sp)
    800045a6:	f686                	sd	ra,360(sp)
    800045a8:	e6ce                	sd	s3,328(sp)
    800045aa:	f262                	sd	s8,288(sp)
    800045ac:	ee66                	sd	s9,280(sp)
    800045ae:	e66e                	sd	s11,264(sp)
    800045b0:	892a                	mv	s2,a0
    800045b2:	84ae                	mv	s1,a1
    800045b4:	8432                	mv	s0,a2
    800045b6:	8bb6                	mv	s7,a3
    800045b8:	02500a13          	li	s4,37
    800045bc:	05500b13          	li	s6,85
    800045c0:	00001a97          	auipc	s5,0x1
    800045c4:	a94a8a93          	addi	s5,s5,-1388 # 80005054 <Nr+0x4>
    800045c8:	a029                	j	800045d2 <vprintfmt+0x3c>
    800045ca:	cd1d                	beqz	a0,80004608 <vprintfmt+0x72>
    800045cc:	85a6                	mv	a1,s1
    800045ce:	0405                	addi	s0,s0,1
    800045d0:	9902                	jalr	s2
    800045d2:	00044503          	lbu	a0,0(s0)
    800045d6:	ff451ae3          	bne	a0,s4,800045ca <vprintfmt+0x34>
    800045da:	00144683          	lbu	a3,1(s0)
    800045de:	00140993          	addi	s3,s0,1
    800045e2:	874e                	mv	a4,s3
    800045e4:	02000c93          	li	s9,32
    800045e8:	5c7d                	li	s8,-1
    800045ea:	5dfd                	li	s11,-1
    800045ec:	4581                	li	a1,0
    800045ee:	fdd6879b          	addiw	a5,a3,-35
    800045f2:	0ff7f793          	zext.b	a5,a5
    800045f6:	00170413          	addi	s0,a4,1
    800045fa:	04fb6163          	bltu	s6,a5,8000463c <vprintfmt+0xa6>
    800045fe:	078a                	slli	a5,a5,0x2
    80004600:	97d6                	add	a5,a5,s5
    80004602:	439c                	lw	a5,0(a5)
    80004604:	97d6                	add	a5,a5,s5
    80004606:	8782                	jr	a5
    80004608:	70b6                	ld	ra,360(sp)
    8000460a:	7416                	ld	s0,352(sp)
    8000460c:	64f6                	ld	s1,344(sp)
    8000460e:	6956                	ld	s2,336(sp)
    80004610:	69b6                	ld	s3,328(sp)
    80004612:	6a16                	ld	s4,320(sp)
    80004614:	7af2                	ld	s5,312(sp)
    80004616:	7b52                	ld	s6,304(sp)
    80004618:	7bb2                	ld	s7,296(sp)
    8000461a:	7c12                	ld	s8,288(sp)
    8000461c:	6cf2                	ld	s9,280(sp)
    8000461e:	6db2                	ld	s11,264(sp)
    80004620:	6175                	addi	sp,sp,368
    80004622:	8082                	ret
    80004624:	8cb6                	mv	s9,a3
    80004626:	00174683          	lbu	a3,1(a4)
    8000462a:	8722                	mv	a4,s0
    8000462c:	00170413          	addi	s0,a4,1
    80004630:	fdd6879b          	addiw	a5,a3,-35
    80004634:	0ff7f793          	zext.b	a5,a5
    80004638:	fcfb73e3          	bgeu	s6,a5,800045fe <vprintfmt+0x68>
    8000463c:	85a6                	mv	a1,s1
    8000463e:	02500513          	li	a0,37
    80004642:	9902                	jalr	s2
    80004644:	844e                	mv	s0,s3
    80004646:	b771                	j	800045d2 <vprintfmt+0x3c>
    80004648:	fd068c1b          	addiw	s8,a3,-48
    8000464c:	00174683          	lbu	a3,1(a4)
    80004650:	47a5                	li	a5,9
    80004652:	fd06871b          	addiw	a4,a3,-48
    80004656:	0006861b          	sext.w	a2,a3
    8000465a:	20e7ef63          	bltu	a5,a4,80004878 <vprintfmt+0x2e2>
    8000465e:	8722                	mv	a4,s0
    80004660:	4825                	li	a6,9
    80004662:	00174683          	lbu	a3,1(a4)
    80004666:	002c179b          	slliw	a5,s8,0x2
    8000466a:	018787bb          	addw	a5,a5,s8
    8000466e:	0017979b          	slliw	a5,a5,0x1
    80004672:	9fb1                	addw	a5,a5,a2
    80004674:	fd06851b          	addiw	a0,a3,-48
    80004678:	0705                	addi	a4,a4,1
    8000467a:	fd078c1b          	addiw	s8,a5,-48
    8000467e:	0006861b          	sext.w	a2,a3
    80004682:	fea870e3          	bgeu	a6,a0,80004662 <vprintfmt+0xcc>
    80004686:	f60dd4e3          	bgez	s11,800045ee <vprintfmt+0x58>
    8000468a:	8de2                	mv	s11,s8
    8000468c:	5c7d                	li	s8,-1
    8000468e:	b785                	j	800045ee <vprintfmt+0x58>
    80004690:	00174683          	lbu	a3,1(a4)
    80004694:	8722                	mv	a4,s0
    80004696:	bfa1                	j	800045ee <vprintfmt+0x58>
    80004698:	85a6                	mv	a1,s1
    8000469a:	02500513          	li	a0,37
    8000469e:	9902                	jalr	s2
    800046a0:	bf0d                	j	800045d2 <vprintfmt+0x3c>
    800046a2:	000bac03          	lw	s8,0(s7)
    800046a6:	00174683          	lbu	a3,1(a4)
    800046aa:	0ba1                	addi	s7,s7,8
    800046ac:	8722                	mv	a4,s0
    800046ae:	bfe1                	j	80004686 <vprintfmt+0xf0>
    800046b0:	85a6                	mv	a1,s1
    800046b2:	03000513          	li	a0,48
    800046b6:	ea6a                	sd	s10,272(sp)
    800046b8:	9902                	jalr	s2
    800046ba:	85a6                	mv	a1,s1
    800046bc:	07800513          	li	a0,120
    800046c0:	9902                	jalr	s2
    800046c2:	4641                	li	a2,16
    800046c4:	008b8713          	addi	a4,s7,8
    800046c8:	000bb783          	ld	a5,0(s7)
    800046cc:	8bba                	mv	s7,a4
    800046ce:	02c7f5b3          	remu	a1,a5,a2
    800046d2:	000c899b          	sext.w	s3,s9
    800046d6:	0054                	addi	a3,sp,4
    800046d8:	4705                	li	a4,1
    800046da:	c02e                	sw	a1,0(sp)
    800046dc:	16c7ea63          	bltu	a5,a2,80004850 <vprintfmt+0x2ba>
    800046e0:	02c7d7b3          	divu	a5,a5,a2
    800046e4:	0691                	addi	a3,a3,4
    800046e6:	8c3a                	mv	s8,a4
    800046e8:	2705                	addiw	a4,a4,1
    800046ea:	02c7f5b3          	remu	a1,a5,a2
    800046ee:	feb6ae23          	sw	a1,-4(a3)
    800046f2:	fec7f7e3          	bgeu	a5,a2,800046e0 <vprintfmt+0x14a>
    800046f6:	fffd8c9b          	addiw	s9,s11,-1
    800046fa:	fff70d1b          	addiw	s10,a4,-1
    800046fe:	01b75863          	bge	a4,s11,8000470e <vprintfmt+0x178>
    80004702:	85a6                	mv	a1,s1
    80004704:	854e                	mv	a0,s3
    80004706:	3cfd                	addiw	s9,s9,-1
    80004708:	9902                	jalr	s2
    8000470a:	ffac9ce3          	bne	s9,s10,80004702 <vprintfmt+0x16c>
    8000470e:	0c0a                	slli	s8,s8,0x2
    80004710:	018109b3          	add	s3,sp,s8
    80004714:	ffc10c93          	addi	s9,sp,-4
    80004718:	4c25                	li	s8,9
    8000471a:	0009a783          	lw	a5,0(s3)
    8000471e:	03000513          	li	a0,48
    80004722:	00fc7463          	bgeu	s8,a5,8000472a <vprintfmt+0x194>
    80004726:	05700513          	li	a0,87
    8000472a:	85a6                	mv	a1,s1
    8000472c:	9d3d                	addw	a0,a0,a5
    8000472e:	19f1                	addi	s3,s3,-4
    80004730:	9902                	jalr	s2
    80004732:	ff9994e3          	bne	s3,s9,8000471a <vprintfmt+0x184>
    80004736:	6d52                	ld	s10,272(sp)
    80004738:	bd69                	j	800045d2 <vprintfmt+0x3c>
    8000473a:	ea6a                	sd	s10,272(sp)
    8000473c:	4785                	li	a5,1
    8000473e:	008b8c13          	addi	s8,s7,8
    80004742:	00b7c463          	blt	a5,a1,8000474a <vprintfmt+0x1b4>
    80004746:	10058763          	beqz	a1,80004854 <vprintfmt+0x2be>
    8000474a:	000bb983          	ld	s3,0(s7)
    8000474e:	1009cc63          	bltz	s3,80004866 <vprintfmt+0x2d0>
    80004752:	87ce                	mv	a5,s3
    80004754:	8be2                	mv	s7,s8
    80004756:	4629                	li	a2,10
    80004758:	bf9d                	j	800046ce <vprintfmt+0x138>
    8000475a:	00174683          	lbu	a3,1(a4)
    8000475e:	2585                	addiw	a1,a1,1
    80004760:	8722                	mv	a4,s0
    80004762:	b571                	j	800045ee <vprintfmt+0x58>
    80004764:	ea6a                	sd	s10,272(sp)
    80004766:	4641                	li	a2,16
    80004768:	4785                	li	a5,1
    8000476a:	008b8713          	addi	a4,s7,8
    8000476e:	f4b7cde3          	blt	a5,a1,800046c8 <vprintfmt+0x132>
    80004772:	f9b9                	bnez	a1,800046c8 <vprintfmt+0x132>
    80004774:	000be783          	lwu	a5,0(s7)
    80004778:	8bba                	mv	s7,a4
    8000477a:	bf91                	j	800046ce <vprintfmt+0x138>
    8000477c:	ea6a                	sd	s10,272(sp)
    8000477e:	000bbd03          	ld	s10,0(s7)
    80004782:	0ba1                	addi	s7,s7,8
    80004784:	040d0363          	beqz	s10,800047ca <vprintfmt+0x234>
    80004788:	09b05e63          	blez	s11,80004824 <vprintfmt+0x28e>
    8000478c:	02d00793          	li	a5,45
    80004790:	04fc9f63          	bne	s9,a5,800047ee <vprintfmt+0x258>
    80004794:	000d4503          	lbu	a0,0(s10)
    80004798:	c105                	beqz	a0,800047b8 <vprintfmt+0x222>
    8000479a:	59fd                	li	s3,-1
    8000479c:	000c4563          	bltz	s8,800047a6 <vprintfmt+0x210>
    800047a0:	3c7d                	addiw	s8,s8,-1
    800047a2:	013c0963          	beq	s8,s3,800047b4 <vprintfmt+0x21e>
    800047a6:	85a6                	mv	a1,s1
    800047a8:	9902                	jalr	s2
    800047aa:	001d4503          	lbu	a0,1(s10)
    800047ae:	3dfd                	addiw	s11,s11,-1
    800047b0:	0d05                	addi	s10,s10,1
    800047b2:	f56d                	bnez	a0,8000479c <vprintfmt+0x206>
    800047b4:	f9b051e3          	blez	s11,80004736 <vprintfmt+0x1a0>
    800047b8:	85a6                	mv	a1,s1
    800047ba:	02000513          	li	a0,32
    800047be:	3dfd                	addiw	s11,s11,-1
    800047c0:	9902                	jalr	s2
    800047c2:	fe0d9be3          	bnez	s11,800047b8 <vprintfmt+0x222>
    800047c6:	6d52                	ld	s10,272(sp)
    800047c8:	b529                	j	800045d2 <vprintfmt+0x3c>
    800047ca:	00001d17          	auipc	s10,0x1
    800047ce:	9e6d0d13          	addi	s10,s10,-1562 # 800051b0 <Nr+0x160>
    800047d2:	02800513          	li	a0,40
    800047d6:	fdb052e3          	blez	s11,8000479a <vprintfmt+0x204>
    800047da:	02d00793          	li	a5,45
    800047de:	00001d17          	auipc	s10,0x1
    800047e2:	9d2d0d13          	addi	s10,s10,-1582 # 800051b0 <Nr+0x160>
    800047e6:	02800513          	li	a0,40
    800047ea:	fafc88e3          	beq	s9,a5,8000479a <vprintfmt+0x204>
    800047ee:	000d861b          	sext.w	a2,s11
    800047f2:	87ea                	mv	a5,s10
    800047f4:	018d06b3          	add	a3,s10,s8
    800047f8:	000c1663          	bnez	s8,80004804 <vprintfmt+0x26e>
    800047fc:	a829                	j	80004816 <vprintfmt+0x280>
    800047fe:	0785                	addi	a5,a5,1
    80004800:	00d78563          	beq	a5,a3,8000480a <vprintfmt+0x274>
    80004804:	0007c703          	lbu	a4,0(a5)
    80004808:	fb7d                	bnez	a4,800047fe <vprintfmt+0x268>
    8000480a:	41a787b3          	sub	a5,a5,s10
    8000480e:	40f60dbb          	subw	s11,a2,a5
    80004812:	01b05963          	blez	s11,80004824 <vprintfmt+0x28e>
    80004816:	2c81                	sext.w	s9,s9
    80004818:	85a6                	mv	a1,s1
    8000481a:	8566                	mv	a0,s9
    8000481c:	3dfd                	addiw	s11,s11,-1
    8000481e:	9902                	jalr	s2
    80004820:	fe0d9ce3          	bnez	s11,80004818 <vprintfmt+0x282>
    80004824:	000d4503          	lbu	a0,0(s10)
    80004828:	d519                	beqz	a0,80004736 <vprintfmt+0x1a0>
    8000482a:	59fd                	li	s3,-1
    8000482c:	bf85                	j	8000479c <vprintfmt+0x206>
    8000482e:	fffdc793          	not	a5,s11
    80004832:	97fd                	srai	a5,a5,0x3f
    80004834:	00fdf7b3          	and	a5,s11,a5
    80004838:	00174683          	lbu	a3,1(a4)
    8000483c:	00078d9b          	sext.w	s11,a5
    80004840:	8722                	mv	a4,s0
    80004842:	b375                	j	800045ee <vprintfmt+0x58>
    80004844:	000ba503          	lw	a0,0(s7)
    80004848:	85a6                	mv	a1,s1
    8000484a:	0ba1                	addi	s7,s7,8
    8000484c:	9902                	jalr	s2
    8000484e:	b351                	j	800045d2 <vprintfmt+0x3c>
    80004850:	4c01                	li	s8,0
    80004852:	b555                	j	800046f6 <vprintfmt+0x160>
    80004854:	000ba983          	lw	s3,0(s7)
    80004858:	bddd                	j	8000474e <vprintfmt+0x1b8>
    8000485a:	ea6a                	sd	s10,272(sp)
    8000485c:	4629                	li	a2,10
    8000485e:	b729                	j	80004768 <vprintfmt+0x1d2>
    80004860:	ea6a                	sd	s10,272(sp)
    80004862:	4621                	li	a2,8
    80004864:	b711                	j	80004768 <vprintfmt+0x1d2>
    80004866:	85a6                	mv	a1,s1
    80004868:	02d00513          	li	a0,45
    8000486c:	9902                	jalr	s2
    8000486e:	413007b3          	neg	a5,s3
    80004872:	8be2                	mv	s7,s8
    80004874:	4629                	li	a2,10
    80004876:	bda1                	j	800046ce <vprintfmt+0x138>
    80004878:	8722                	mv	a4,s0
    8000487a:	b531                	j	80004686 <vprintfmt+0xf0>

000000008000487c <sprintf_putch.0>:
    8000487c:	619c                	ld	a5,0(a1)
    8000487e:	00a78023          	sb	a0,0(a5)
    80004882:	619c                	ld	a5,0(a1)
    80004884:	0785                	addi	a5,a5,1
    80004886:	e19c                	sd	a5,0(a1)
    80004888:	8082                	ret

000000008000488a <putchar>:
    8000488a:	04022803          	lw	a6,64(tp) # 40 <buflen.1>
    8000488e:	00020793          	mv	a5,tp
    80004892:	97c2                	add	a5,a5,a6
    80004894:	7159                	addi	sp,sp,-112
    80004896:	0018069b          	addiw	a3,a6,1
    8000489a:	04d22023          	sw	a3,64(tp) # 40 <buflen.1>
    8000489e:	00a78023          	sb	a0,0(a5)
    800048a2:	03f10713          	addi	a4,sp,63
    800048a6:	47a9                	li	a5,10
    800048a8:	fc077713          	andi	a4,a4,-64
    800048ac:	00f50963          	beq	a0,a5,800048be <putchar+0x34>
    800048b0:	04000793          	li	a5,64
    800048b4:	00f68563          	beq	a3,a5,800048be <putchar+0x34>
    800048b8:	4501                	li	a0,0
    800048ba:	6165                	addi	sp,sp,112
    800048bc:	8082                	ret
    800048be:	04000793          	li	a5,64
    800048c2:	e31c                	sd	a5,0(a4)
    800048c4:	4785                	li	a5,1
    800048c6:	e71c                	sd	a5,8(a4)
    800048c8:	00020613          	mv	a2,tp
    800048cc:	eb10                	sd	a2,16(a4)
    800048ce:	ef14                	sd	a3,24(a4)
    800048d0:	0ff0000f          	fence
    800048d4:	ffffc697          	auipc	a3,0xffffc
    800048d8:	76c68693          	addi	a3,a3,1900 # 80001040 <fromhost>
    800048dc:	ffffc797          	auipc	a5,0xffffc
    800048e0:	72e7b223          	sd	a4,1828(a5) # 80001000 <tohost>
    800048e4:	629c                	ld	a5,0(a3)
    800048e6:	dffd                	beqz	a5,800048e4 <putchar+0x5a>
    800048e8:	ffffc797          	auipc	a5,0xffffc
    800048ec:	7407bc23          	sd	zero,1880(a5) # 80001040 <fromhost>
    800048f0:	0ff0000f          	fence
    800048f4:	04022023          	sw	zero,64(tp) # 40 <buflen.1>
    800048f8:	631c                	ld	a5,0(a4)
    800048fa:	4501                	li	a0,0
    800048fc:	6165                	addi	sp,sp,112
    800048fe:	8082                	ret

0000000080004900 <setStats>:
    80004900:	b0002773          	csrr	a4,mcycle
    80004904:	00002797          	auipc	a5,0x2
    80004908:	60478793          	addi	a5,a5,1540 # 80006f08 <counters>
    8000490c:	c511                	beqz	a0,80004918 <setStats+0x18>
    8000490e:	e398                	sd	a4,0(a5)
    80004910:	b0202773          	csrr	a4,minstret
    80004914:	e798                	sd	a4,8(a5)
    80004916:	8082                	ret
    80004918:	6394                	ld	a3,0(a5)
    8000491a:	00001617          	auipc	a2,0x1
    8000491e:	8a660613          	addi	a2,a2,-1882 # 800051c0 <Nr+0x170>
    80004922:	eb90                	sd	a2,16(a5)
    80004924:	8f15                	sub	a4,a4,a3
    80004926:	e398                	sd	a4,0(a5)
    80004928:	b0202773          	csrr	a4,minstret
    8000492c:	6794                	ld	a3,8(a5)
    8000492e:	00001617          	auipc	a2,0x1
    80004932:	89a60613          	addi	a2,a2,-1894 # 800051c8 <Nr+0x178>
    80004936:	ef90                	sd	a2,24(a5)
    80004938:	8f15                	sub	a4,a4,a3
    8000493a:	e798                	sd	a4,8(a5)
    8000493c:	8082                	ret

000000008000493e <tohost_exit>:
    8000493e:	00151793          	slli	a5,a0,0x1
    80004942:	0017e793          	ori	a5,a5,1
    80004946:	ffffc717          	auipc	a4,0xffffc
    8000494a:	6af73d23          	sd	a5,1722(a4) # 80001000 <tohost>
    8000494e:	a001                	j	8000494e <tohost_exit+0x10>

0000000080004950 <handle_trap>:
    80004950:	6785                	lui	a5,0x1
    80004952:	a7378793          	addi	a5,a5,-1421 # a73 <buflen.1+0xa33>
    80004956:	ffffc717          	auipc	a4,0xffffc
    8000495a:	6af73523          	sd	a5,1706(a4) # 80001000 <tohost>
    8000495e:	a001                	j	8000495e <handle_trap+0xe>

0000000080004960 <exit>:
    80004960:	1141                	addi	sp,sp,-16
    80004962:	e406                	sd	ra,8(sp)
    80004964:	fdbff0ef          	jal	8000493e <tohost_exit>

0000000080004968 <abort>:
    80004968:	10d00793          	li	a5,269
    8000496c:	ffffc717          	auipc	a4,0xffffc
    80004970:	68f73a23          	sd	a5,1684(a4) # 80001000 <tohost>
    80004974:	a001                	j	80004974 <abort+0xc>

0000000080004976 <printstr>:
    80004976:	00054783          	lbu	a5,0(a0)
    8000497a:	7159                	addi	sp,sp,-112
    8000497c:	03f10693          	addi	a3,sp,63
    80004980:	fc06f693          	andi	a3,a3,-64
    80004984:	c3b9                	beqz	a5,800049ca <printstr+0x54>
    80004986:	87aa                	mv	a5,a0
    80004988:	0017c703          	lbu	a4,1(a5)
    8000498c:	0785                	addi	a5,a5,1
    8000498e:	ff6d                	bnez	a4,80004988 <printstr+0x12>
    80004990:	8f89                	sub	a5,a5,a0
    80004992:	04000713          	li	a4,64
    80004996:	e298                	sd	a4,0(a3)
    80004998:	4705                	li	a4,1
    8000499a:	e698                	sd	a4,8(a3)
    8000499c:	ea88                	sd	a0,16(a3)
    8000499e:	ee9c                	sd	a5,24(a3)
    800049a0:	0ff0000f          	fence
    800049a4:	ffffc717          	auipc	a4,0xffffc
    800049a8:	69c70713          	addi	a4,a4,1692 # 80001040 <fromhost>
    800049ac:	ffffc797          	auipc	a5,0xffffc
    800049b0:	64d7ba23          	sd	a3,1620(a5) # 80001000 <tohost>
    800049b4:	631c                	ld	a5,0(a4)
    800049b6:	dffd                	beqz	a5,800049b4 <printstr+0x3e>
    800049b8:	ffffc797          	auipc	a5,0xffffc
    800049bc:	6807b423          	sd	zero,1672(a5) # 80001040 <fromhost>
    800049c0:	0ff0000f          	fence
    800049c4:	629c                	ld	a5,0(a3)
    800049c6:	6165                	addi	sp,sp,112
    800049c8:	8082                	ret
    800049ca:	4781                	li	a5,0
    800049cc:	b7d9                	j	80004992 <printstr+0x1c>

00000000800049ce <thread_entry>:
    800049ce:	c111                	beqz	a0,800049d2 <thread_entry+0x4>
    800049d0:	a001                	j	800049d0 <thread_entry+0x2>
    800049d2:	8082                	ret

00000000800049d4 <printhex>:
    800049d4:	7179                	addi	sp,sp,-48
    800049d6:	87aa                	mv	a5,a0
    800049d8:	f406                	sd	ra,40(sp)
    800049da:	0028                	addi	a0,sp,8
    800049dc:	01710713          	addi	a4,sp,23
    800049e0:	4825                	li	a6,9
    800049e2:	a011                	j	800049e6 <printhex+0x12>
    800049e4:	8736                	mv	a4,a3
    800049e6:	00f7f613          	andi	a2,a5,15
    800049ea:	86b2                	mv	a3,a2
    800049ec:	03000593          	li	a1,48
    800049f0:	00c87463          	bgeu	a6,a2,800049f8 <printhex+0x24>
    800049f4:	05700593          	li	a1,87
    800049f8:	9ead                	addw	a3,a3,a1
    800049fa:	00d70023          	sb	a3,0(a4)
    800049fe:	8391                	srli	a5,a5,0x4
    80004a00:	fff70693          	addi	a3,a4,-1
    80004a04:	fee510e3          	bne	a0,a4,800049e4 <printhex+0x10>
    80004a08:	00010c23          	sb	zero,24(sp)
    80004a0c:	f6bff0ef          	jal	80004976 <printstr>
    80004a10:	70a2                	ld	ra,40(sp)
    80004a12:	6145                	addi	sp,sp,48
    80004a14:	8082                	ret

0000000080004a16 <printf>:
    80004a16:	711d                	addi	sp,sp,-96
    80004a18:	02810313          	addi	t1,sp,40
    80004a1c:	f42e                	sd	a1,40(sp)
    80004a1e:	f832                	sd	a2,48(sp)
    80004a20:	fc36                	sd	a3,56(sp)
    80004a22:	862a                	mv	a2,a0
    80004a24:	869a                	mv	a3,t1
    80004a26:	00000517          	auipc	a0,0x0
    80004a2a:	e6450513          	addi	a0,a0,-412 # 8000488a <putchar>
    80004a2e:	4581                	li	a1,0
    80004a30:	ec06                	sd	ra,24(sp)
    80004a32:	e0ba                	sd	a4,64(sp)
    80004a34:	e4be                	sd	a5,72(sp)
    80004a36:	e8c2                	sd	a6,80(sp)
    80004a38:	ecc6                	sd	a7,88(sp)
    80004a3a:	e41a                	sd	t1,8(sp)
    80004a3c:	b5bff0ef          	jal	80004596 <vprintfmt>
    80004a40:	60e2                	ld	ra,24(sp)
    80004a42:	4501                	li	a0,0
    80004a44:	6125                	addi	sp,sp,96
    80004a46:	8082                	ret

0000000080004a48 <sprintf>:
    80004a48:	711d                	addi	sp,sp,-96
    80004a4a:	03010e13          	addi	t3,sp,48
    80004a4e:	f022                	sd	s0,32(sp)
    80004a50:	e42a                	sd	a0,8(sp)
    80004a52:	842a                	mv	s0,a0
    80004a54:	f832                	sd	a2,48(sp)
    80004a56:	fc36                	sd	a3,56(sp)
    80004a58:	862e                	mv	a2,a1
    80004a5a:	00000517          	auipc	a0,0x0
    80004a5e:	e2250513          	addi	a0,a0,-478 # 8000487c <sprintf_putch.0>
    80004a62:	002c                	addi	a1,sp,8
    80004a64:	86f2                	mv	a3,t3
    80004a66:	f406                	sd	ra,40(sp)
    80004a68:	e4be                	sd	a5,72(sp)
    80004a6a:	e0ba                	sd	a4,64(sp)
    80004a6c:	e8c2                	sd	a6,80(sp)
    80004a6e:	ecc6                	sd	a7,88(sp)
    80004a70:	ec72                	sd	t3,24(sp)
    80004a72:	b25ff0ef          	jal	80004596 <vprintfmt>
    80004a76:	67a2                	ld	a5,8(sp)
    80004a78:	00078023          	sb	zero,0(a5)
    80004a7c:	6522                	ld	a0,8(sp)
    80004a7e:	70a2                	ld	ra,40(sp)
    80004a80:	9d01                	subw	a0,a0,s0
    80004a82:	7402                	ld	s0,32(sp)
    80004a84:	6125                	addi	sp,sp,96
    80004a86:	8082                	ret

0000000080004a88 <memcpy>:
    80004a88:	00c5e7b3          	or	a5,a1,a2
    80004a8c:	8fc9                	or	a5,a5,a0
    80004a8e:	8b9d                	andi	a5,a5,7
    80004a90:	00c506b3          	add	a3,a0,a2
    80004a94:	cf91                	beqz	a5,80004ab0 <memcpy+0x28>
    80004a96:	962e                	add	a2,a2,a1
    80004a98:	87aa                	mv	a5,a0
    80004a9a:	02d57663          	bgeu	a0,a3,80004ac6 <memcpy+0x3e>
    80004a9e:	0005c703          	lbu	a4,0(a1)
    80004aa2:	0585                	addi	a1,a1,1
    80004aa4:	0785                	addi	a5,a5,1
    80004aa6:	fee78fa3          	sb	a4,-1(a5)
    80004aaa:	feb61ae3          	bne	a2,a1,80004a9e <memcpy+0x16>
    80004aae:	8082                	ret
    80004ab0:	fed57fe3          	bgeu	a0,a3,80004aae <memcpy+0x26>
    80004ab4:	87aa                	mv	a5,a0
    80004ab6:	6198                	ld	a4,0(a1)
    80004ab8:	07a1                	addi	a5,a5,8
    80004aba:	05a1                	addi	a1,a1,8
    80004abc:	fee7bc23          	sd	a4,-8(a5)
    80004ac0:	fed7ebe3          	bltu	a5,a3,80004ab6 <memcpy+0x2e>
    80004ac4:	8082                	ret
    80004ac6:	8082                	ret

0000000080004ac8 <memset>:
    80004ac8:	00c567b3          	or	a5,a0,a2
    80004acc:	8b9d                	andi	a5,a5,7
    80004ace:	962a                	add	a2,a2,a0
    80004ad0:	cf81                	beqz	a5,80004ae8 <memset+0x20>
    80004ad2:	0ff5f713          	zext.b	a4,a1
    80004ad6:	87aa                	mv	a5,a0
    80004ad8:	02c57f63          	bgeu	a0,a2,80004b16 <memset+0x4e>
    80004adc:	0785                	addi	a5,a5,1
    80004ade:	fee78fa3          	sb	a4,-1(a5)
    80004ae2:	fec79de3          	bne	a5,a2,80004adc <memset+0x14>
    80004ae6:	8082                	ret
    80004ae8:	010107b7          	lui	a5,0x1010
    80004aec:	10178793          	addi	a5,a5,257 # 1010101 <buflen.1+0x10100c1>
    80004af0:	07c2                	slli	a5,a5,0x10
    80004af2:	10178793          	addi	a5,a5,257
    80004af6:	07c2                	slli	a5,a5,0x10
    80004af8:	0ff5f713          	zext.b	a4,a1
    80004afc:	10178793          	addi	a5,a5,257
    80004b00:	02f70733          	mul	a4,a4,a5
    80004b04:	fec571e3          	bgeu	a0,a2,80004ae6 <memset+0x1e>
    80004b08:	87aa                	mv	a5,a0
    80004b0a:	07a1                	addi	a5,a5,8
    80004b0c:	fee7bc23          	sd	a4,-8(a5)
    80004b10:	fec7ede3          	bltu	a5,a2,80004b0a <memset+0x42>
    80004b14:	8082                	ret
    80004b16:	8082                	ret

0000000080004b18 <_init>:
    80004b18:	7171                	addi	sp,sp,-176
    80004b1a:	00002797          	auipc	a5,0x2
    80004b1e:	40e78793          	addi	a5,a5,1038 # 80006f28 <_tdata_begin>
    80004b22:	e152                	sd	s4,128(sp)
    80004b24:	00002a17          	auipc	s4,0x2
    80004b28:	404a0a13          	addi	s4,s4,1028 # 80006f28 <_tdata_begin>
    80004b2c:	e54e                	sd	s3,136(sp)
    80004b2e:	40fa09b3          	sub	s3,s4,a5
    80004b32:	ed26                	sd	s1,152(sp)
    80004b34:	e94a                	sd	s2,144(sp)
    80004b36:	84aa                	mv	s1,a0
    80004b38:	892e                	mv	s2,a1
    80004b3a:	8512                	mv	a0,tp
    80004b3c:	85be                	mv	a1,a5
    80004b3e:	864e                	mv	a2,s3
    80004b40:	f506                	sd	ra,168(sp)
    80004b42:	f122                	sd	s0,160(sp)
    80004b44:	fcd6                	sd	s5,120(sp)
    80004b46:	8a92                	mv	s5,tp
    80004b48:	f41ff0ef          	jal	80004a88 <memcpy>
    80004b4c:	00002617          	auipc	a2,0x2
    80004b50:	43860613          	addi	a2,a2,1080 # 80006f84 <_tbss_end>
    80004b54:	41460633          	sub	a2,a2,s4
    80004b58:	4581                	li	a1,0
    80004b5a:	013a8533          	add	a0,s5,s3
    80004b5e:	f6bff0ef          	jal	80004ac8 <memset>
    80004b62:	85ca                	mv	a1,s2
    80004b64:	8526                	mv	a0,s1
    80004b66:	e69ff0ef          	jal	800049ce <thread_entry>
    80004b6a:	4581                	li	a1,0
    80004b6c:	4501                	li	a0,0
    80004b6e:	9d1ff0ef          	jal	8000453e <main>
    80004b72:	00002917          	auipc	s2,0x2
    80004b76:	39690913          	addi	s2,s2,918 # 80006f08 <counters>
    80004b7a:	00093683          	ld	a3,0(s2)
    80004b7e:	03f10413          	addi	s0,sp,63
    80004b82:	fc047413          	andi	s0,s0,-64
    80004b86:	84aa                	mv	s1,a0
    80004b88:	ea85                	bnez	a3,80004bb8 <_init+0xa0>
    80004b8a:	00893683          	ld	a3,8(s2)
    80004b8e:	e681                	bnez	a3,80004b96 <_init+0x7e>
    80004b90:	8526                	mv	a0,s1
    80004b92:	dadff0ef          	jal	8000493e <tohost_exit>
    80004b96:	89a2                	mv	s3,s0
    80004b98:	01893603          	ld	a2,24(s2)
    80004b9c:	854e                	mv	a0,s3
    80004b9e:	00000597          	auipc	a1,0x0
    80004ba2:	65258593          	addi	a1,a1,1618 # 800051f0 <Nr+0x1a0>
    80004ba6:	ea3ff0ef          	jal	80004a48 <sprintf>
    80004baa:	99aa                	add	s3,s3,a0
    80004bac:	ff3402e3          	beq	s0,s3,80004b90 <_init+0x78>
    80004bb0:	8522                	mv	a0,s0
    80004bb2:	dc5ff0ef          	jal	80004976 <printstr>
    80004bb6:	bfe9                	j	80004b90 <_init+0x78>
    80004bb8:	01093603          	ld	a2,16(s2)
    80004bbc:	00000597          	auipc	a1,0x0
    80004bc0:	63458593          	addi	a1,a1,1588 # 800051f0 <Nr+0x1a0>
    80004bc4:	8522                	mv	a0,s0
    80004bc6:	e83ff0ef          	jal	80004a48 <sprintf>
    80004bca:	00893683          	ld	a3,8(s2)
    80004bce:	00a409b3          	add	s3,s0,a0
    80004bd2:	dee9                	beqz	a3,80004bac <_init+0x94>
    80004bd4:	b7d1                	j	80004b98 <_init+0x80>

0000000080004bd6 <strlen>:
    80004bd6:	00054783          	lbu	a5,0(a0)
    80004bda:	cb89                	beqz	a5,80004bec <strlen+0x16>
    80004bdc:	87aa                	mv	a5,a0
    80004bde:	0017c703          	lbu	a4,1(a5)
    80004be2:	0785                	addi	a5,a5,1
    80004be4:	ff6d                	bnez	a4,80004bde <strlen+0x8>
    80004be6:	40a78533          	sub	a0,a5,a0
    80004bea:	8082                	ret
    80004bec:	4501                	li	a0,0
    80004bee:	8082                	ret

0000000080004bf0 <strnlen>:
    80004bf0:	00b506b3          	add	a3,a0,a1
    80004bf4:	87aa                	mv	a5,a0
    80004bf6:	e589                	bnez	a1,80004c00 <strnlen+0x10>
    80004bf8:	a829                	j	80004c12 <strnlen+0x22>
    80004bfa:	0785                	addi	a5,a5,1
    80004bfc:	00f68863          	beq	a3,a5,80004c0c <strnlen+0x1c>
    80004c00:	0007c703          	lbu	a4,0(a5)
    80004c04:	fb7d                	bnez	a4,80004bfa <strnlen+0xa>
    80004c06:	40a78533          	sub	a0,a5,a0
    80004c0a:	8082                	ret
    80004c0c:	40a68533          	sub	a0,a3,a0
    80004c10:	8082                	ret
    80004c12:	4501                	li	a0,0
    80004c14:	8082                	ret

0000000080004c16 <strcmp>:
    80004c16:	00054783          	lbu	a5,0(a0)
    80004c1a:	0585                	addi	a1,a1,1
    80004c1c:	0505                	addi	a0,a0,1
    80004c1e:	fff5c703          	lbu	a4,-1(a1)
    80004c22:	c799                	beqz	a5,80004c30 <strcmp+0x1a>
    80004c24:	fee789e3          	beq	a5,a4,80004c16 <strcmp>
    80004c28:	0007851b          	sext.w	a0,a5
    80004c2c:	9d19                	subw	a0,a0,a4
    80004c2e:	8082                	ret
    80004c30:	4501                	li	a0,0
    80004c32:	bfed                	j	80004c2c <strcmp+0x16>

0000000080004c34 <strcpy>:
    80004c34:	87aa                	mv	a5,a0
    80004c36:	0005c703          	lbu	a4,0(a1)
    80004c3a:	0785                	addi	a5,a5,1
    80004c3c:	0585                	addi	a1,a1,1
    80004c3e:	fee78fa3          	sb	a4,-1(a5)
    80004c42:	fb75                	bnez	a4,80004c36 <strcpy+0x2>
    80004c44:	8082                	ret

0000000080004c46 <atol>:
    80004c46:	00054703          	lbu	a4,0(a0)
    80004c4a:	02000693          	li	a3,32
    80004c4e:	87aa                	mv	a5,a0
    80004c50:	00d71763          	bne	a4,a3,80004c5e <atol+0x18>
    80004c54:	0017c703          	lbu	a4,1(a5)
    80004c58:	0785                	addi	a5,a5,1
    80004c5a:	fed70de3          	beq	a4,a3,80004c54 <atol+0xe>
    80004c5e:	02d00693          	li	a3,45
    80004c62:	04d70163          	beq	a4,a3,80004ca4 <atol+0x5e>
    80004c66:	02b00693          	li	a3,43
    80004c6a:	02d70763          	beq	a4,a3,80004c98 <atol+0x52>
    80004c6e:	0007c683          	lbu	a3,0(a5)
    80004c72:	4581                	li	a1,0
    80004c74:	ce8d                	beqz	a3,80004cae <atol+0x68>
    80004c76:	4501                	li	a0,0
    80004c78:	0785                	addi	a5,a5,1
    80004c7a:	00251713          	slli	a4,a0,0x2
    80004c7e:	fd06861b          	addiw	a2,a3,-48
    80004c82:	0007c683          	lbu	a3,0(a5)
    80004c86:	972a                	add	a4,a4,a0
    80004c88:	0706                	slli	a4,a4,0x1
    80004c8a:	00e60533          	add	a0,a2,a4
    80004c8e:	f6ed                	bnez	a3,80004c78 <atol+0x32>
    80004c90:	c185                	beqz	a1,80004cb0 <atol+0x6a>
    80004c92:	40a00533          	neg	a0,a0
    80004c96:	8082                	ret
    80004c98:	0017c683          	lbu	a3,1(a5)
    80004c9c:	0785                	addi	a5,a5,1
    80004c9e:	ca81                	beqz	a3,80004cae <atol+0x68>
    80004ca0:	4581                	li	a1,0
    80004ca2:	bfd1                	j	80004c76 <atol+0x30>
    80004ca4:	0017c683          	lbu	a3,1(a5)
    80004ca8:	4585                	li	a1,1
    80004caa:	0785                	addi	a5,a5,1
    80004cac:	f6e9                	bnez	a3,80004c76 <atol+0x30>
    80004cae:	4501                	li	a0,0
    80004cb0:	8082                	ret

0000000080004cb2 <__errno>:
    80004cb2:	83818513          	addi	a0,gp,-1992 # 800054d0 <__errno_location>
    80004cb6:	8082                	ret

0000000080004cb8 <atoi>:
    80004cb8:	cd41                	beqz	a0,80004d50 <atoi+0x98>
    80004cba:	02000693          	li	a3,32
    80004cbe:	4611                	li	a2,4
    80004cc0:	00054783          	lbu	a5,0(a0)
    80004cc4:	ff77871b          	addiw	a4,a5,-9
    80004cc8:	0ff77713          	zext.b	a4,a4
    80004ccc:	06d78863          	beq	a5,a3,80004d3c <atoi+0x84>
    80004cd0:	06e67663          	bgeu	a2,a4,80004d3c <atoi+0x84>
    80004cd4:	02b00713          	li	a4,43
    80004cd8:	06e78763          	beq	a5,a4,80004d46 <atoi+0x8e>
    80004cdc:	02d00713          	li	a4,45
    80004ce0:	4305                	li	t1,1
    80004ce2:	06e78963          	beq	a5,a4,80004d54 <atoi+0x9c>
    80004ce6:	fd07879b          	addiw	a5,a5,-48
    80004cea:	0ff7f693          	zext.b	a3,a5
    80004cee:	4725                	li	a4,9
    80004cf0:	06d76063          	bltu	a4,a3,80004d50 <atoi+0x98>
    80004cf4:	800005b7          	lui	a1,0x80000
    80004cf8:	4681                	li	a3,0
    80004cfa:	35fd                	addiw	a1,a1,-1 # 7fffffff <buflen.1+0x7fffffbf>
    80004cfc:	4829                	li	a6,10
    80004cfe:	48a5                	li	a7,9
    80004d00:	a819                	j	80004d16 <atoi+0x5e>
    80004d02:	00054783          	lbu	a5,0(a0)
    80004d06:	0007069b          	sext.w	a3,a4
    80004d0a:	fd07879b          	addiw	a5,a5,-48
    80004d0e:	0ff7f613          	zext.b	a2,a5
    80004d12:	02c8e763          	bltu	a7,a2,80004d40 <atoi+0x88>
    80004d16:	40f5863b          	subw	a2,a1,a5
    80004d1a:	0306463b          	divw	a2,a2,a6
    80004d1e:	0026971b          	slliw	a4,a3,0x2
    80004d22:	9f35                	addw	a4,a4,a3
    80004d24:	0017171b          	slliw	a4,a4,0x1
    80004d28:	0505                	addi	a0,a0,1
    80004d2a:	9f3d                	addw	a4,a4,a5
    80004d2c:	fcd65be3          	bge	a2,a3,80004d02 <atoi+0x4a>
    80004d30:	4785                	li	a5,1
    80004d32:	80000537          	lui	a0,0x80000
    80004d36:	02f30163          	beq	t1,a5,80004d58 <atoi+0xa0>
    80004d3a:	8082                	ret
    80004d3c:	0505                	addi	a0,a0,1 # ffffffff80000001 <_tbss_end+0xfffffffeffff907d>
    80004d3e:	b749                	j	80004cc0 <atoi+0x8>
    80004d40:	0267053b          	mulw	a0,a4,t1
    80004d44:	8082                	ret
    80004d46:	4305                	li	t1,1
    80004d48:	00154783          	lbu	a5,1(a0)
    80004d4c:	0505                	addi	a0,a0,1
    80004d4e:	bf61                	j	80004ce6 <atoi+0x2e>
    80004d50:	4501                	li	a0,0
    80004d52:	8082                	ret
    80004d54:	537d                	li	t1,-1
    80004d56:	bfcd                	j	80004d48 <atoi+0x90>
    80004d58:	fff54513          	not	a0,a0
    80004d5c:	8082                	ret

0000000080004d5e <strtol>:
    80004d5e:	872a                	mv	a4,a0
    80004d60:	4811                	li	a6,4
    80004d62:	02000513          	li	a0,32
    80004d66:	00074683          	lbu	a3,0(a4)
    80004d6a:	ff76879b          	addiw	a5,a3,-9
    80004d6e:	0ff7f793          	zext.b	a5,a5
    80004d72:	04a68b63          	beq	a3,a0,80004dc8 <strtol+0x6a>
    80004d76:	04f87963          	bgeu	a6,a5,80004dc8 <strtol+0x6a>
    80004d7a:	02d00793          	li	a5,45
    80004d7e:	08f68963          	beq	a3,a5,80004e10 <strtol+0xb2>
    80004d82:	02b00793          	li	a5,43
    80004d86:	4e01                	li	t3,0
    80004d88:	08f68063          	beq	a3,a5,80004e08 <strtol+0xaa>
    80004d8c:	ee29                	bnez	a2,80004de6 <strtol+0x88>
    80004d8e:	03000793          	li	a5,48
    80004d92:	4629                	li	a2,10
    80004d94:	08f68363          	beq	a3,a5,80004e1a <strtol+0xbc>
    80004d98:	4501                	li	a0,0
    80004d9a:	48a5                	li	a7,9
    80004d9c:	4365                	li	t1,25
    80004d9e:	00074683          	lbu	a3,0(a4)
    80004da2:	fd06879b          	addiw	a5,a3,-48
    80004da6:	f9f6881b          	addiw	a6,a3,-97
    80004daa:	00f8f863          	bgeu	a7,a5,80004dba <strtol+0x5c>
    80004dae:	fbf6879b          	addiw	a5,a3,-65
    80004db2:	01036d63          	bltu	t1,a6,80004dcc <strtol+0x6e>
    80004db6:	fa96879b          	addiw	a5,a3,-87
    80004dba:	00c7df63          	bge	a5,a2,80004dd8 <strtol+0x7a>
    80004dbe:	02a60533          	mul	a0,a2,a0
    80004dc2:	0705                	addi	a4,a4,1
    80004dc4:	953e                	add	a0,a0,a5
    80004dc6:	bfe1                	j	80004d9e <strtol+0x40>
    80004dc8:	0705                	addi	a4,a4,1
    80004dca:	bf71                	j	80004d66 <strtol+0x8>
    80004dcc:	00f36663          	bltu	t1,a5,80004dd8 <strtol+0x7a>
    80004dd0:	fc96879b          	addiw	a5,a3,-55
    80004dd4:	fec7c5e3          	blt	a5,a2,80004dbe <strtol+0x60>
    80004dd8:	c191                	beqz	a1,80004ddc <strtol+0x7e>
    80004dda:	e198                	sd	a4,0(a1)
    80004ddc:	000e0463          	beqz	t3,80004de4 <strtol+0x86>
    80004de0:	40a00533          	neg	a0,a0
    80004de4:	8082                	ret
    80004de6:	47c1                	li	a5,16
    80004de8:	faf618e3          	bne	a2,a5,80004d98 <strtol+0x3a>
    80004dec:	03000793          	li	a5,48
    80004df0:	faf694e3          	bne	a3,a5,80004d98 <strtol+0x3a>
    80004df4:	00174783          	lbu	a5,1(a4)
    80004df8:	05800693          	li	a3,88
    80004dfc:	0df7f793          	andi	a5,a5,223
    80004e00:	f8d79ce3          	bne	a5,a3,80004d98 <strtol+0x3a>
    80004e04:	0709                	addi	a4,a4,2
    80004e06:	bf49                	j	80004d98 <strtol+0x3a>
    80004e08:	00174683          	lbu	a3,1(a4)
    80004e0c:	0705                	addi	a4,a4,1
    80004e0e:	bfbd                	j	80004d8c <strtol+0x2e>
    80004e10:	00174683          	lbu	a3,1(a4)
    80004e14:	4e05                	li	t3,1
    80004e16:	0705                	addi	a4,a4,1
    80004e18:	bf95                	j	80004d8c <strtol+0x2e>
    80004e1a:	00174783          	lbu	a5,1(a4)
    80004e1e:	05800693          	li	a3,88
    80004e22:	0df7f793          	andi	a5,a5,223
    80004e26:	00d78563          	beq	a5,a3,80004e30 <strtol+0xd2>
    80004e2a:	0705                	addi	a4,a4,1
    80004e2c:	4621                	li	a2,8
    80004e2e:	b7ad                	j	80004d98 <strtol+0x3a>
    80004e30:	0709                	addi	a4,a4,2
    80004e32:	4641                	li	a2,16
    80004e34:	b795                	j	80004d98 <strtol+0x3a>

0000000080004e36 <my_isspace>:
    80004e36:	02000793          	li	a5,32
    80004e3a:	00f50863          	beq	a0,a5,80004e4a <my_isspace+0x14>
    80004e3e:	355d                	addiw	a0,a0,-9
    80004e40:	0ff57513          	zext.b	a0,a0
    80004e44:	00553513          	sltiu	a0,a0,5
    80004e48:	8082                	ret
    80004e4a:	4505                	li	a0,1
    80004e4c:	8082                	ret

0000000080004e4e <my_isdigit>:
    80004e4e:	fd05051b          	addiw	a0,a0,-48
    80004e52:	0ff57513          	zext.b	a0,a0
    80004e56:	00a53513          	sltiu	a0,a0,10
    80004e5a:	8082                	ret

0000000080004e5c <strtod>:
    80004e5c:	02000693          	li	a3,32
    80004e60:	4611                	li	a2,4
    80004e62:	00054783          	lbu	a5,0(a0)
    80004e66:	ff77871b          	addiw	a4,a5,-9
    80004e6a:	0ff77713          	zext.b	a4,a4
    80004e6e:	08d78263          	beq	a5,a3,80004ef2 <strtod+0x96>
    80004e72:	08e67063          	bgeu	a2,a4,80004ef2 <strtod+0x96>
    80004e76:	02d00713          	li	a4,45
    80004e7a:	06e78e63          	beq	a5,a4,80004ef6 <strtod+0x9a>
    80004e7e:	02b00713          	li	a4,43
    80004e82:	08e78663          	beq	a5,a4,80004f0e <strtod+0xb2>
    80004e86:	00000717          	auipc	a4,0x0
    80004e8a:	61273587          	fld	fa1,1554(a4) # 80005498 <key+0x14>
    80004e8e:	22b58553          	fmv.d	fa0,fa1
    80004e92:	fd07871b          	addiw	a4,a5,-48
    80004e96:	0ff77613          	zext.b	a2,a4
    80004e9a:	46a5                	li	a3,9
    80004e9c:	f20007d3          	fmv.d.x	fa5,zero
    80004ea0:	02c6e463          	bltu	a3,a2,80004ec8 <strtod+0x6c>
    80004ea4:	00000797          	auipc	a5,0x0
    80004ea8:	6047b687          	fld	fa3,1540(a5) # 800054a8 <key+0x24>
    80004eac:	4625                	li	a2,9
    80004eae:	00154783          	lbu	a5,1(a0)
    80004eb2:	d2070753          	fcvt.d.w	fa4,a4
    80004eb6:	0505                	addi	a0,a0,1
    80004eb8:	fd07871b          	addiw	a4,a5,-48
    80004ebc:	0ff77693          	zext.b	a3,a4
    80004ec0:	72d7f7c3          	fmadd.d	fa5,fa5,fa3,fa4
    80004ec4:	fed675e3          	bgeu	a2,a3,80004eae <strtod+0x52>
    80004ec8:	02e00713          	li	a4,46
    80004ecc:	0ce78363          	beq	a5,a4,80004f92 <strtod+0x136>
    80004ed0:	00054703          	lbu	a4,0(a0)
    80004ed4:	0df77713          	andi	a4,a4,223
    80004ed8:	04500793          	li	a5,69
    80004edc:	22b58753          	fmv.d	fa4,fa1
    80004ee0:	04f70163          	beq	a4,a5,80004f22 <strtod+0xc6>
    80004ee4:	12a7f553          	fmul.d	fa0,fa5,fa0
    80004ee8:	12e57553          	fmul.d	fa0,fa0,fa4
    80004eec:	c191                	beqz	a1,80004ef0 <strtod+0x94>
    80004eee:	e188                	sd	a0,0(a1)
    80004ef0:	8082                	ret
    80004ef2:	0505                	addi	a0,a0,1
    80004ef4:	b7bd                	j	80004e62 <strtod+0x6>
    80004ef6:	00154783          	lbu	a5,1(a0)
    80004efa:	00000717          	auipc	a4,0x0
    80004efe:	5a673507          	fld	fa0,1446(a4) # 800054a0 <key+0x1c>
    80004f02:	0505                	addi	a0,a0,1
    80004f04:	00000717          	auipc	a4,0x0
    80004f08:	59473587          	fld	fa1,1428(a4) # 80005498 <key+0x14>
    80004f0c:	b759                	j	80004e92 <strtod+0x36>
    80004f0e:	00000797          	auipc	a5,0x0
    80004f12:	58a7b587          	fld	fa1,1418(a5) # 80005498 <key+0x14>
    80004f16:	00154783          	lbu	a5,1(a0)
    80004f1a:	22b58553          	fmv.d	fa0,fa1
    80004f1e:	0505                	addi	a0,a0,1
    80004f20:	bf8d                	j	80004e92 <strtod+0x36>
    80004f22:	00154803          	lbu	a6,1(a0)
    80004f26:	02d00793          	li	a5,45
    80004f2a:	0cf80363          	beq	a6,a5,80004ff0 <strtod+0x194>
    80004f2e:	02b00793          	li	a5,43
    80004f32:	0ef80563          	beq	a6,a5,8000501c <strtod+0x1c0>
    80004f36:	0505                	addi	a0,a0,1
    80004f38:	4705                	li	a4,1
    80004f3a:	fd08069b          	addiw	a3,a6,-48
    80004f3e:	0ff6f613          	zext.b	a2,a3
    80004f42:	47a5                	li	a5,9
    80004f44:	0ec7e163          	bltu	a5,a2,80005026 <strtod+0x1ca>
    80004f48:	4601                	li	a2,0
    80004f4a:	48a5                	li	a7,9
    80004f4c:	00154803          	lbu	a6,1(a0)
    80004f50:	0026179b          	slliw	a5,a2,0x2
    80004f54:	9fb1                	addw	a5,a5,a2
    80004f56:	0017979b          	slliw	a5,a5,0x1
    80004f5a:	00f6863b          	addw	a2,a3,a5
    80004f5e:	fd08069b          	addiw	a3,a6,-48
    80004f62:	0ff6f813          	zext.b	a6,a3
    80004f66:	0505                	addi	a0,a0,1
    80004f68:	ff08f2e3          	bgeu	a7,a6,80004f4c <strtod+0xf0>
    80004f6c:	02c7073b          	mulw	a4,a4,a2
    80004f70:	08075563          	bgez	a4,80004ffa <strtod+0x19e>
    80004f74:	22b58753          	fmv.d	fa4,fa1
    80004f78:	0017079b          	addiw	a5,a4,1
    80004f7c:	00000717          	auipc	a4,0x0
    80004f80:	53473687          	fld	fa3,1332(a4) # 800054b0 <key+0x2c>
    80004f84:	4705                	li	a4,1
    80004f86:	2785                	addiw	a5,a5,1
    80004f88:	12d77753          	fmul.d	fa4,fa4,fa3
    80004f8c:	fee79de3          	bne	a5,a4,80004f86 <strtod+0x12a>
    80004f90:	bf91                	j	80004ee4 <strtod+0x88>
    80004f92:	00154703          	lbu	a4,1(a0)
    80004f96:	46a5                	li	a3,9
    80004f98:	0505                	addi	a0,a0,1
    80004f9a:	fd07079b          	addiw	a5,a4,-48
    80004f9e:	0ff7f613          	zext.b	a2,a5
    80004fa2:	f2c6e9e3          	bltu	a3,a2,80004ed4 <strtod+0x78>
    80004fa6:	d2078753          	fcvt.d.w	fa4,a5
    80004faa:	4325                	li	t1,9
    80004fac:	4781                	li	a5,0
    80004fae:	00000717          	auipc	a4,0x0
    80004fb2:	50273687          	fld	fa3,1282(a4) # 800054b0 <key+0x2c>
    80004fb6:	4685                	li	a3,1
    80004fb8:	00154703          	lbu	a4,1(a0)
    80004fbc:	02e7f7d3          	fadd.d	fa5,fa5,fa4
    80004fc0:	0505                	addi	a0,a0,1
    80004fc2:	fd07061b          	addiw	a2,a4,-48
    80004fc6:	0ff67813          	zext.b	a6,a2
    80004fca:	0017889b          	addiw	a7,a5,1
    80004fce:	f10363e3          	bltu	t1,a6,80004ed4 <strtod+0x78>
    80004fd2:	22b58753          	fmv.d	fa4,fa1
    80004fd6:	40f007bb          	negw	a5,a5
    80004fda:	2785                	addiw	a5,a5,1
    80004fdc:	12d77753          	fmul.d	fa4,fa4,fa3
    80004fe0:	fed79de3          	bne	a5,a3,80004fda <strtod+0x17e>
    80004fe4:	d2060653          	fcvt.d.w	fa2,a2
    80004fe8:	87c6                	mv	a5,a7
    80004fea:	12e67753          	fmul.d	fa4,fa2,fa4
    80004fee:	b7e9                	j	80004fb8 <strtod+0x15c>
    80004ff0:	00254803          	lbu	a6,2(a0)
    80004ff4:	577d                	li	a4,-1
    80004ff6:	0509                	addi	a0,a0,2
    80004ff8:	b789                	j	80004f3a <strtod+0xde>
    80004ffa:	22b58753          	fmv.d	fa4,fa1
    80004ffe:	fff7079b          	addiw	a5,a4,-1
    80005002:	ee0701e3          	beqz	a4,80004ee4 <strtod+0x88>
    80005006:	00000717          	auipc	a4,0x0
    8000500a:	4a273687          	fld	fa3,1186(a4) # 800054a8 <key+0x24>
    8000500e:	577d                	li	a4,-1
    80005010:	37fd                	addiw	a5,a5,-1
    80005012:	12d77753          	fmul.d	fa4,fa4,fa3
    80005016:	fee79de3          	bne	a5,a4,80005010 <strtod+0x1b4>
    8000501a:	b5e9                	j	80004ee4 <strtod+0x88>
    8000501c:	00254803          	lbu	a6,2(a0)
    80005020:	4705                	li	a4,1
    80005022:	0509                	addi	a0,a0,2
    80005024:	bf19                	j	80004f3a <strtod+0xde>
    80005026:	22b58753          	fmv.d	fa4,fa1
    8000502a:	bd6d                	j	80004ee4 <strtod+0x88>

000000008000502c <atof>:
    8000502c:	4581                	li	a1,0
    8000502e:	b53d                	j	80004e5c <strtod>

Disassembly of section .text.startup:

0000000080005030 <.text.startup>:
    80005030:	1141                	addi	sp,sp,-16
    80005032:	00000517          	auipc	a0,0x0
    80005036:	1a650513          	addi	a0,a0,422 # 800051d8 <Nr+0x188>
    8000503a:	e406                	sd	ra,8(sp)
    8000503c:	93bff0ef          	jal	80004976 <printstr>
    80005040:	60a2                	ld	ra,8(sp)
    80005042:	557d                	li	a0,-1
    80005044:	0141                	addi	sp,sp,16
    80005046:	8082                	ret
