
dhrystone.riscv:     file format elf64-littleriscv


Disassembly of section .text.init:

0000000080000000 <_start>:
    80000000:	00000093          	li	ra,0
    80000004:	00000113          	li	sp,0
    80000008:	00000193          	li	gp,0
    8000000c:	00000213          	li	tp,0
    80000010:	00000293          	li	t0,0
    80000014:	00000313          	li	t1,0
    80000018:	00000393          	li	t2,0
    8000001c:	00000413          	li	s0,0
    80000020:	00000493          	li	s1,0
    80000024:	00000513          	li	a0,0
    80000028:	00000593          	li	a1,0
    8000002c:	00000613          	li	a2,0
    80000030:	00000693          	li	a3,0
    80000034:	00000713          	li	a4,0
    80000038:	00000793          	li	a5,0
    8000003c:	00000813          	li	a6,0
    80000040:	00000893          	li	a7,0
    80000044:	00000913          	li	s2,0
    80000048:	00000993          	li	s3,0
    8000004c:	00000a13          	li	s4,0
    80000050:	00000a93          	li	s5,0
    80000054:	00000b13          	li	s6,0
    80000058:	00000b93          	li	s7,0
    8000005c:	00000c13          	li	s8,0
    80000060:	00000c93          	li	s9,0
    80000064:	00000d13          	li	s10,0
    80000068:	00000d93          	li	s11,0
    8000006c:	00000e13          	li	t3,0
    80000070:	00000e93          	li	t4,0
    80000074:	00000f13          	li	t5,0
    80000078:	00000f93          	li	t6,0
    8000007c:	0001e2b7          	lui	t0,0x1e
    80000080:	6002829b          	addiw	t0,t0,1536 # 1e600 <buflen.1+0x1e5c0>
    80000084:	3002a073          	csrs	mstatus,t0
    80000088:	00100293          	li	t0,1
    8000008c:	01f29293          	slli	t0,t0,0x1f
    80000090:	0002da63          	bgez	t0,800000a4 <_start+0xa4>
    80000094:	00100513          	li	a0,1
    80000098:	00001297          	auipc	t0,0x1
    8000009c:	f6a2a423          	sw	a0,-152(t0) # 80001000 <tohost>
    800000a0:	ff5ff06f          	j	80000094 <_start+0x94>
    800000a4:	00000297          	auipc	t0,0x0
    800000a8:	04428293          	addi	t0,t0,68 # 800000e8 <trap_entry>
    800000ac:	30529073          	csrw	mtvec,t0
    800000b0:	00004197          	auipc	gp,0x4
    800000b4:	4b418193          	addi	gp,gp,1204 # 80004564 <__global_pointer$>
    800000b8:	00006217          	auipc	tp,0x6
    800000bc:	54720213          	addi	tp,tp,1351 # 800065ff <_end+0x3f>
    800000c0:	fc027213          	andi	tp,tp,-64
    800000c4:	f1402573          	csrr	a0,mhartid
    800000c8:	00100593          	li	a1,1
    800000cc:	00b57063          	bgeu	a0,a1,800000cc <_start+0xcc>
    800000d0:	00150113          	addi	sp,a0,1
    800000d4:	01111113          	slli	sp,sp,0x11
    800000d8:	00410133          	add	sp,sp,tp
    800000dc:	01151613          	slli	a2,a0,0x11
    800000e0:	00c20233          	add	tp,tp,a2
    800000e4:	2ed0206f          	j	80002bd0 <_init>

00000000800000e8 <trap_entry>:
    800000e8:	ef010113          	addi	sp,sp,-272
    800000ec:	00113423          	sd	ra,8(sp)
    800000f0:	00213823          	sd	sp,16(sp)
    800000f4:	00313c23          	sd	gp,24(sp)
    800000f8:	02413023          	sd	tp,32(sp)
    800000fc:	02513423          	sd	t0,40(sp)
    80000100:	02613823          	sd	t1,48(sp)
    80000104:	02713c23          	sd	t2,56(sp)
    80000108:	04813023          	sd	s0,64(sp)
    8000010c:	04913423          	sd	s1,72(sp)
    80000110:	04a13823          	sd	a0,80(sp)
    80000114:	04b13c23          	sd	a1,88(sp)
    80000118:	06c13023          	sd	a2,96(sp)
    8000011c:	06d13423          	sd	a3,104(sp)
    80000120:	06e13823          	sd	a4,112(sp)
    80000124:	06f13c23          	sd	a5,120(sp)
    80000128:	09013023          	sd	a6,128(sp)
    8000012c:	09113423          	sd	a7,136(sp)
    80000130:	09213823          	sd	s2,144(sp)
    80000134:	09313c23          	sd	s3,152(sp)
    80000138:	0b413023          	sd	s4,160(sp)
    8000013c:	0b513423          	sd	s5,168(sp)
    80000140:	0b613823          	sd	s6,176(sp)
    80000144:	0b713c23          	sd	s7,184(sp)
    80000148:	0d813023          	sd	s8,192(sp)
    8000014c:	0d913423          	sd	s9,200(sp)
    80000150:	0da13823          	sd	s10,208(sp)
    80000154:	0db13c23          	sd	s11,216(sp)
    80000158:	0fc13023          	sd	t3,224(sp)
    8000015c:	0fd13423          	sd	t4,232(sp)
    80000160:	0fe13823          	sd	t5,240(sp)
    80000164:	0ff13c23          	sd	t6,248(sp)
    80000168:	34202573          	csrr	a0,mcause
    8000016c:	341025f3          	csrr	a1,mepc
    80000170:	00010613          	mv	a2,sp
    80000174:	74c020ef          	jal	800028c0 <handle_trap>
    80000178:	34151073          	csrw	mepc,a0
    8000017c:	000022b7          	lui	t0,0x2
    80000180:	8002829b          	addiw	t0,t0,-2048 # 1800 <buflen.1+0x17c0>
    80000184:	3002a073          	csrs	mstatus,t0
    80000188:	00813083          	ld	ra,8(sp)
    8000018c:	01013103          	ld	sp,16(sp)
    80000190:	01813183          	ld	gp,24(sp)
    80000194:	02013203          	ld	tp,32(sp)
    80000198:	02813283          	ld	t0,40(sp)
    8000019c:	03013303          	ld	t1,48(sp)
    800001a0:	03813383          	ld	t2,56(sp)
    800001a4:	04013403          	ld	s0,64(sp)
    800001a8:	04813483          	ld	s1,72(sp)
    800001ac:	05013503          	ld	a0,80(sp)
    800001b0:	05813583          	ld	a1,88(sp)
    800001b4:	06013603          	ld	a2,96(sp)
    800001b8:	06813683          	ld	a3,104(sp)
    800001bc:	07013703          	ld	a4,112(sp)
    800001c0:	07813783          	ld	a5,120(sp)
    800001c4:	08013803          	ld	a6,128(sp)
    800001c8:	08813883          	ld	a7,136(sp)
    800001cc:	09013903          	ld	s2,144(sp)
    800001d0:	09813983          	ld	s3,152(sp)
    800001d4:	0a013a03          	ld	s4,160(sp)
    800001d8:	0a813a83          	ld	s5,168(sp)
    800001dc:	0b013b03          	ld	s6,176(sp)
    800001e0:	0b813b83          	ld	s7,184(sp)
    800001e4:	0c013c03          	ld	s8,192(sp)
    800001e8:	0c813c83          	ld	s9,200(sp)
    800001ec:	0d013d03          	ld	s10,208(sp)
    800001f0:	0d813d83          	ld	s11,216(sp)
    800001f4:	0e013e03          	ld	t3,224(sp)
    800001f8:	0e813e83          	ld	t4,232(sp)
    800001fc:	0f013f03          	ld	t5,240(sp)
    80000200:	0f813f83          	ld	t6,248(sp)
    80000204:	11010113          	addi	sp,sp,272
    80000208:	30200073          	mret

Disassembly of section .tohost:

0000000080001000 <tohost>:
	...

0000000080001040 <fromhost>:
	...

Disassembly of section .text:

0000000080002000 <Proc_7>:
    80002000:	0025051b          	addiw	a0,a0,2
    80002004:	00b505bb          	addw	a1,a0,a1
    80002008:	00b62023          	sw	a1,0(a2)
    8000200c:	00008067          	ret

0000000080002010 <Proc_8>:
    80002010:	0056079b          	addiw	a5,a2,5
    80002014:	0c800713          	li	a4,200
    80002018:	02e78733          	mul	a4,a5,a4
    8000201c:	00078813          	mv	a6,a5
    80002020:	00261613          	slli	a2,a2,0x2
    80002024:	00279793          	slli	a5,a5,0x2
    80002028:	00f50533          	add	a0,a0,a5
    8000202c:	00d52023          	sw	a3,0(a0)
    80002030:	00d52223          	sw	a3,4(a0)
    80002034:	07052c23          	sw	a6,120(a0)
    80002038:	00c707b3          	add	a5,a4,a2
    8000203c:	00f587b3          	add	a5,a1,a5
    80002040:	0107a683          	lw	a3,16(a5)
    80002044:	0107aa23          	sw	a6,20(a5)
    80002048:	0107ac23          	sw	a6,24(a5)
    8000204c:	0016869b          	addiw	a3,a3,1
    80002050:	00d7a823          	sw	a3,16(a5)
    80002054:	00052683          	lw	a3,0(a0)
    80002058:	00e585b3          	add	a1,a1,a4
    8000205c:	00c585b3          	add	a1,a1,a2
    80002060:	000017b7          	lui	a5,0x1
    80002064:	00b787b3          	add	a5,a5,a1
    80002068:	fad7aa23          	sw	a3,-76(a5) # fb4 <buflen.1+0xf74>
    8000206c:	00500793          	li	a5,5
    80002070:	82f1ae23          	sw	a5,-1988(gp) # 80003da0 <Int_Glob>
    80002074:	00008067          	ret

0000000080002078 <Func_1>:
    80002078:	0ff57513          	zext.b	a0,a0
    8000207c:	0ff5f593          	zext.b	a1,a1
    80002080:	00b50663          	beq	a0,a1,8000208c <Func_1+0x14>
    80002084:	00000513          	li	a0,0
    80002088:	00008067          	ret
    8000208c:	82a18aa3          	sb	a0,-1995(gp) # 80003d99 <Ch_1_Glob>
    80002090:	00100513          	li	a0,1
    80002094:	00008067          	ret

0000000080002098 <Func_2>:
    80002098:	fe010113          	addi	sp,sp,-32
    8000209c:	00813823          	sd	s0,16(sp)
    800020a0:	00913423          	sd	s1,8(sp)
    800020a4:	00113c23          	sd	ra,24(sp)
    800020a8:	00050413          	mv	s0,a0
    800020ac:	00058493          	mv	s1,a1
    800020b0:	0034c583          	lbu	a1,3(s1)
    800020b4:	00244503          	lbu	a0,2(s0)
    800020b8:	fc1ff0ef          	jal	80002078 <Func_1>
    800020bc:	fe051ae3          	bnez	a0,800020b0 <Func_2+0x18>
    800020c0:	00048593          	mv	a1,s1
    800020c4:	00040513          	mv	a0,s0
    800020c8:	465000ef          	jal	80002d2c <strcmp>
    800020cc:	00000793          	li	a5,0
    800020d0:	00a05863          	blez	a0,800020e0 <Func_2+0x48>
    800020d4:	00a00793          	li	a5,10
    800020d8:	82f1ae23          	sw	a5,-1988(gp) # 80003da0 <Int_Glob>
    800020dc:	00100793          	li	a5,1
    800020e0:	01813083          	ld	ra,24(sp)
    800020e4:	01013403          	ld	s0,16(sp)
    800020e8:	00813483          	ld	s1,8(sp)
    800020ec:	00078513          	mv	a0,a5
    800020f0:	02010113          	addi	sp,sp,32
    800020f4:	00008067          	ret

00000000800020f8 <Func_3>:
    800020f8:	ffe50513          	addi	a0,a0,-2
    800020fc:	00153513          	seqz	a0,a0
    80002100:	00008067          	ret

0000000080002104 <Proc_6>:
    80002104:	fe010113          	addi	sp,sp,-32
    80002108:	00813823          	sd	s0,16(sp)
    8000210c:	00913423          	sd	s1,8(sp)
    80002110:	00113c23          	sd	ra,24(sp)
    80002114:	00050413          	mv	s0,a0
    80002118:	00058493          	mv	s1,a1
    8000211c:	fddff0ef          	jal	800020f8 <Func_3>
    80002120:	00300793          	li	a5,3
    80002124:	00050463          	beqz	a0,8000212c <Proc_6+0x28>
    80002128:	00040793          	mv	a5,s0
    8000212c:	00f4a023          	sw	a5,0(s1)
    80002130:	00200793          	li	a5,2
    80002134:	04f40863          	beq	s0,a5,80002184 <Proc_6+0x80>
    80002138:	0287e663          	bltu	a5,s0,80002164 <Proc_6+0x60>
    8000213c:	00040863          	beqz	s0,8000214c <Proc_6+0x48>
    80002140:	83c1a703          	lw	a4,-1988(gp) # 80003da0 <Int_Glob>
    80002144:	06400793          	li	a5,100
    80002148:	04e7dc63          	bge	a5,a4,800021a0 <Proc_6+0x9c>
    8000214c:	01813083          	ld	ra,24(sp)
    80002150:	01013403          	ld	s0,16(sp)
    80002154:	0004a023          	sw	zero,0(s1)
    80002158:	00813483          	ld	s1,8(sp)
    8000215c:	02010113          	addi	sp,sp,32
    80002160:	00008067          	ret
    80002164:	00400713          	li	a4,4
    80002168:	00e41463          	bne	s0,a4,80002170 <Proc_6+0x6c>
    8000216c:	00f4a023          	sw	a5,0(s1)
    80002170:	01813083          	ld	ra,24(sp)
    80002174:	01013403          	ld	s0,16(sp)
    80002178:	00813483          	ld	s1,8(sp)
    8000217c:	02010113          	addi	sp,sp,32
    80002180:	00008067          	ret
    80002184:	01813083          	ld	ra,24(sp)
    80002188:	01013403          	ld	s0,16(sp)
    8000218c:	00100793          	li	a5,1
    80002190:	00f4a023          	sw	a5,0(s1)
    80002194:	00813483          	ld	s1,8(sp)
    80002198:	02010113          	addi	sp,sp,32
    8000219c:	00008067          	ret
    800021a0:	01813083          	ld	ra,24(sp)
    800021a4:	01013403          	ld	s0,16(sp)
    800021a8:	00300793          	li	a5,3
    800021ac:	00f4a023          	sw	a5,0(s1)
    800021b0:	00813483          	ld	s1,8(sp)
    800021b4:	02010113          	addi	sp,sp,32
    800021b8:	00008067          	ret

00000000800021bc <debug_printf>:
    800021bc:	fc010113          	addi	sp,sp,-64
    800021c0:	00b13423          	sd	a1,8(sp)
    800021c4:	00c13823          	sd	a2,16(sp)
    800021c8:	00d13c23          	sd	a3,24(sp)
    800021cc:	02e13023          	sd	a4,32(sp)
    800021d0:	02f13423          	sd	a5,40(sp)
    800021d4:	03013823          	sd	a6,48(sp)
    800021d8:	03113c23          	sd	a7,56(sp)
    800021dc:	04010113          	addi	sp,sp,64
    800021e0:	00008067          	ret

00000000800021e4 <Proc_2>:
    800021e4:	8351c703          	lbu	a4,-1995(gp) # 80003d99 <Ch_1_Glob>
    800021e8:	04100793          	li	a5,65
    800021ec:	00f70463          	beq	a4,a5,800021f4 <Proc_2+0x10>
    800021f0:	00008067          	ret
    800021f4:	00052783          	lw	a5,0(a0)
    800021f8:	83c1a703          	lw	a4,-1988(gp) # 80003da0 <Int_Glob>
    800021fc:	0097879b          	addiw	a5,a5,9
    80002200:	40e787bb          	subw	a5,a5,a4
    80002204:	00f52023          	sw	a5,0(a0)
    80002208:	00008067          	ret

000000008000220c <Proc_3>:
    8000220c:	84c18793          	addi	a5,gp,-1972 # 80003db0 <Ptr_Glob>
    80002210:	0007b603          	ld	a2,0(a5)
    80002214:	00060863          	beqz	a2,80002224 <Proc_3+0x18>
    80002218:	00063703          	ld	a4,0(a2)
    8000221c:	00e53023          	sd	a4,0(a0)
    80002220:	0007b603          	ld	a2,0(a5)
    80002224:	01060613          	addi	a2,a2,16
    80002228:	83c1a583          	lw	a1,-1988(gp) # 80003da0 <Int_Glob>
    8000222c:	00a00513          	li	a0,10
    80002230:	dd1ff06f          	j	80002000 <Proc_7>

0000000080002234 <Proc_1>:
    80002234:	fe010113          	addi	sp,sp,-32
    80002238:	01213023          	sd	s2,0(sp)
    8000223c:	84c18913          	addi	s2,gp,-1972 # 80003db0 <Ptr_Glob>
    80002240:	00093783          	ld	a5,0(s2)
    80002244:	00813823          	sd	s0,16(sp)
    80002248:	00053403          	ld	s0,0(a0)
    8000224c:	0007b703          	ld	a4,0(a5)
    80002250:	0087b803          	ld	a6,8(a5)
    80002254:	0107b883          	ld	a7,16(a5)
    80002258:	0207b583          	ld	a1,32(a5)
    8000225c:	0287b603          	ld	a2,40(a5)
    80002260:	0307b683          	ld	a3,48(a5)
    80002264:	00913423          	sd	s1,8(sp)
    80002268:	00113c23          	sd	ra,24(sp)
    8000226c:	00050493          	mv	s1,a0
    80002270:	0187b503          	ld	a0,24(a5)
    80002274:	00e43023          	sd	a4,0(s0)
    80002278:	0004b703          	ld	a4,0(s1)
    8000227c:	00500793          	li	a5,5
    80002280:	01143823          	sd	a7,16(s0)
    80002284:	00a43c23          	sd	a0,24(s0)
    80002288:	01043423          	sd	a6,8(s0)
    8000228c:	02b43023          	sd	a1,32(s0)
    80002290:	02c43423          	sd	a2,40(s0)
    80002294:	02d43823          	sd	a3,48(s0)
    80002298:	00f4a823          	sw	a5,16(s1)
    8000229c:	00f42823          	sw	a5,16(s0)
    800022a0:	00e43023          	sd	a4,0(s0)
    800022a4:	00040513          	mv	a0,s0
    800022a8:	f65ff0ef          	jal	8000220c <Proc_3>
    800022ac:	00842783          	lw	a5,8(s0)
    800022b0:	04078c63          	beqz	a5,80002308 <Proc_1+0xd4>
    800022b4:	0004b783          	ld	a5,0(s1)
    800022b8:	01813083          	ld	ra,24(sp)
    800022bc:	01013403          	ld	s0,16(sp)
    800022c0:	0007b883          	ld	a7,0(a5)
    800022c4:	0087b803          	ld	a6,8(a5)
    800022c8:	0107b583          	ld	a1,16(a5)
    800022cc:	0187b603          	ld	a2,24(a5)
    800022d0:	0207b683          	ld	a3,32(a5)
    800022d4:	0287b703          	ld	a4,40(a5)
    800022d8:	0307b783          	ld	a5,48(a5)
    800022dc:	0114b023          	sd	a7,0(s1)
    800022e0:	0104b423          	sd	a6,8(s1)
    800022e4:	00b4b823          	sd	a1,16(s1)
    800022e8:	00c4bc23          	sd	a2,24(s1)
    800022ec:	02d4b023          	sd	a3,32(s1)
    800022f0:	02e4b423          	sd	a4,40(s1)
    800022f4:	02f4b823          	sd	a5,48(s1)
    800022f8:	00013903          	ld	s2,0(sp)
    800022fc:	00813483          	ld	s1,8(sp)
    80002300:	02010113          	addi	sp,sp,32
    80002304:	00008067          	ret
    80002308:	00c4a503          	lw	a0,12(s1)
    8000230c:	00600793          	li	a5,6
    80002310:	00f42823          	sw	a5,16(s0)
    80002314:	00c40593          	addi	a1,s0,12
    80002318:	dedff0ef          	jal	80002104 <Proc_6>
    8000231c:	00093783          	ld	a5,0(s2)
    80002320:	01042503          	lw	a0,16(s0)
    80002324:	01040613          	addi	a2,s0,16
    80002328:	0007b783          	ld	a5,0(a5)
    8000232c:	01813083          	ld	ra,24(sp)
    80002330:	00813483          	ld	s1,8(sp)
    80002334:	00f43023          	sd	a5,0(s0)
    80002338:	01013403          	ld	s0,16(sp)
    8000233c:	00013903          	ld	s2,0(sp)
    80002340:	00a00593          	li	a1,10
    80002344:	02010113          	addi	sp,sp,32
    80002348:	cb9ff06f          	j	80002000 <Proc_7>

000000008000234c <Proc_4>:
    8000234c:	83818693          	addi	a3,gp,-1992 # 80003d9c <Bool_Glob>
    80002350:	0006a703          	lw	a4,0(a3)
    80002354:	8351c783          	lbu	a5,-1995(gp) # 80003d99 <Ch_1_Glob>
    80002358:	fbf78793          	addi	a5,a5,-65
    8000235c:	0017b793          	seqz	a5,a5
    80002360:	00f767b3          	or	a5,a4,a5
    80002364:	00f6a023          	sw	a5,0(a3)
    80002368:	04200793          	li	a5,66
    8000236c:	82f18a23          	sb	a5,-1996(gp) # 80003d98 <Ch_2_Glob>
    80002370:	00008067          	ret

0000000080002374 <Proc_5>:
    80002374:	04100793          	li	a5,65
    80002378:	82f18aa3          	sb	a5,-1995(gp) # 80003d99 <Ch_1_Glob>
    8000237c:	8201ac23          	sw	zero,-1992(gp) # 80003d9c <Bool_Glob>
    80002380:	00008067          	ret

0000000080002384 <vprintfmt>:
    80002384:	e9010113          	addi	sp,sp,-368
    80002388:	16813023          	sd	s0,352(sp)
    8000238c:	14913c23          	sd	s1,344(sp)
    80002390:	15213823          	sd	s2,336(sp)
    80002394:	15413023          	sd	s4,320(sp)
    80002398:	13513c23          	sd	s5,312(sp)
    8000239c:	13613823          	sd	s6,304(sp)
    800023a0:	13713423          	sd	s7,296(sp)
    800023a4:	16113423          	sd	ra,360(sp)
    800023a8:	15313423          	sd	s3,328(sp)
    800023ac:	13813023          	sd	s8,288(sp)
    800023b0:	11913c23          	sd	s9,280(sp)
    800023b4:	11b13423          	sd	s11,264(sp)
    800023b8:	00050913          	mv	s2,a0
    800023bc:	00058493          	mv	s1,a1
    800023c0:	00060413          	mv	s0,a2
    800023c4:	00068b93          	mv	s7,a3
    800023c8:	02500a13          	li	s4,37
    800023cc:	05500b13          	li	s6,85
    800023d0:	00002a97          	auipc	s5,0x2
    800023d4:	83ca8a93          	addi	s5,s5,-1988 # 80003c0c <main+0xe04>
    800023d8:	0140006f          	j	800023ec <vprintfmt+0x68>
    800023dc:	04050c63          	beqz	a0,80002434 <vprintfmt+0xb0>
    800023e0:	00048593          	mv	a1,s1
    800023e4:	00140413          	addi	s0,s0,1
    800023e8:	000900e7          	jalr	s2
    800023ec:	00044503          	lbu	a0,0(s0)
    800023f0:	ff4516e3          	bne	a0,s4,800023dc <vprintfmt+0x58>
    800023f4:	00144683          	lbu	a3,1(s0)
    800023f8:	00140993          	addi	s3,s0,1
    800023fc:	00098713          	mv	a4,s3
    80002400:	02000c93          	li	s9,32
    80002404:	fff00c13          	li	s8,-1
    80002408:	fff00d93          	li	s11,-1
    8000240c:	00000593          	li	a1,0
    80002410:	fdd6879b          	addiw	a5,a3,-35
    80002414:	0ff7f793          	zext.b	a5,a5
    80002418:	00170413          	addi	s0,a4,1
    8000241c:	06fb6663          	bltu	s6,a5,80002488 <vprintfmt+0x104>
    80002420:	00279793          	slli	a5,a5,0x2
    80002424:	015787b3          	add	a5,a5,s5
    80002428:	0007a783          	lw	a5,0(a5)
    8000242c:	015787b3          	add	a5,a5,s5
    80002430:	00078067          	jr	a5
    80002434:	16813083          	ld	ra,360(sp)
    80002438:	16013403          	ld	s0,352(sp)
    8000243c:	15813483          	ld	s1,344(sp)
    80002440:	15013903          	ld	s2,336(sp)
    80002444:	14813983          	ld	s3,328(sp)
    80002448:	14013a03          	ld	s4,320(sp)
    8000244c:	13813a83          	ld	s5,312(sp)
    80002450:	13013b03          	ld	s6,304(sp)
    80002454:	12813b83          	ld	s7,296(sp)
    80002458:	12013c03          	ld	s8,288(sp)
    8000245c:	11813c83          	ld	s9,280(sp)
    80002460:	10813d83          	ld	s11,264(sp)
    80002464:	17010113          	addi	sp,sp,368
    80002468:	00008067          	ret
    8000246c:	00068c93          	mv	s9,a3
    80002470:	00174683          	lbu	a3,1(a4)
    80002474:	00040713          	mv	a4,s0
    80002478:	00170413          	addi	s0,a4,1
    8000247c:	fdd6879b          	addiw	a5,a3,-35
    80002480:	0ff7f793          	zext.b	a5,a5
    80002484:	f8fb7ee3          	bgeu	s6,a5,80002420 <vprintfmt+0x9c>
    80002488:	00048593          	mv	a1,s1
    8000248c:	02500513          	li	a0,37
    80002490:	000900e7          	jalr	s2
    80002494:	00098413          	mv	s0,s3
    80002498:	f55ff06f          	j	800023ec <vprintfmt+0x68>
    8000249c:	fd068c1b          	addiw	s8,a3,-48
    800024a0:	00174683          	lbu	a3,1(a4)
    800024a4:	00900793          	li	a5,9
    800024a8:	fd06871b          	addiw	a4,a3,-48
    800024ac:	0006861b          	sext.w	a2,a3
    800024b0:	2ee7e663          	bltu	a5,a4,8000279c <vprintfmt+0x418>
    800024b4:	00040713          	mv	a4,s0
    800024b8:	00900813          	li	a6,9
    800024bc:	00174683          	lbu	a3,1(a4)
    800024c0:	002c179b          	slliw	a5,s8,0x2
    800024c4:	018787bb          	addw	a5,a5,s8
    800024c8:	0017979b          	slliw	a5,a5,0x1
    800024cc:	00c787bb          	addw	a5,a5,a2
    800024d0:	fd06851b          	addiw	a0,a3,-48
    800024d4:	00170713          	addi	a4,a4,1
    800024d8:	fd078c1b          	addiw	s8,a5,-48
    800024dc:	0006861b          	sext.w	a2,a3
    800024e0:	fca87ee3          	bgeu	a6,a0,800024bc <vprintfmt+0x138>
    800024e4:	f20dd6e3          	bgez	s11,80002410 <vprintfmt+0x8c>
    800024e8:	000c0d93          	mv	s11,s8
    800024ec:	fff00c13          	li	s8,-1
    800024f0:	f21ff06f          	j	80002410 <vprintfmt+0x8c>
    800024f4:	00174683          	lbu	a3,1(a4)
    800024f8:	00040713          	mv	a4,s0
    800024fc:	f15ff06f          	j	80002410 <vprintfmt+0x8c>
    80002500:	00048593          	mv	a1,s1
    80002504:	02500513          	li	a0,37
    80002508:	000900e7          	jalr	s2
    8000250c:	ee1ff06f          	j	800023ec <vprintfmt+0x68>
    80002510:	000bac03          	lw	s8,0(s7)
    80002514:	00174683          	lbu	a3,1(a4)
    80002518:	008b8b93          	addi	s7,s7,8
    8000251c:	00040713          	mv	a4,s0
    80002520:	fc5ff06f          	j	800024e4 <vprintfmt+0x160>
    80002524:	00048593          	mv	a1,s1
    80002528:	03000513          	li	a0,48
    8000252c:	11a13823          	sd	s10,272(sp)
    80002530:	000900e7          	jalr	s2
    80002534:	00048593          	mv	a1,s1
    80002538:	07800513          	li	a0,120
    8000253c:	000900e7          	jalr	s2
    80002540:	01000613          	li	a2,16
    80002544:	008b8713          	addi	a4,s7,8
    80002548:	000bb783          	ld	a5,0(s7)
    8000254c:	00070b93          	mv	s7,a4
    80002550:	02c7f5b3          	remu	a1,a5,a2
    80002554:	000c899b          	sext.w	s3,s9
    80002558:	00410693          	addi	a3,sp,4
    8000255c:	00100713          	li	a4,1
    80002560:	00b12023          	sw	a1,0(sp)
    80002564:	1ec7ea63          	bltu	a5,a2,80002758 <vprintfmt+0x3d4>
    80002568:	02c7d7b3          	divu	a5,a5,a2
    8000256c:	00468693          	addi	a3,a3,4
    80002570:	00070c13          	mv	s8,a4
    80002574:	0017071b          	addiw	a4,a4,1
    80002578:	02c7f5b3          	remu	a1,a5,a2
    8000257c:	feb6ae23          	sw	a1,-4(a3)
    80002580:	fec7f4e3          	bgeu	a5,a2,80002568 <vprintfmt+0x1e4>
    80002584:	fffd8c9b          	addiw	s9,s11,-1
    80002588:	fff70d1b          	addiw	s10,a4,-1
    8000258c:	01b75c63          	bge	a4,s11,800025a4 <vprintfmt+0x220>
    80002590:	00048593          	mv	a1,s1
    80002594:	00098513          	mv	a0,s3
    80002598:	fffc8c9b          	addiw	s9,s9,-1
    8000259c:	000900e7          	jalr	s2
    800025a0:	ffac98e3          	bne	s9,s10,80002590 <vprintfmt+0x20c>
    800025a4:	002c1c13          	slli	s8,s8,0x2
    800025a8:	018109b3          	add	s3,sp,s8
    800025ac:	ffc10c93          	addi	s9,sp,-4
    800025b0:	00900c13          	li	s8,9
    800025b4:	0009a783          	lw	a5,0(s3)
    800025b8:	03000513          	li	a0,48
    800025bc:	00fc7463          	bgeu	s8,a5,800025c4 <vprintfmt+0x240>
    800025c0:	05700513          	li	a0,87
    800025c4:	00048593          	mv	a1,s1
    800025c8:	00a7853b          	addw	a0,a5,a0
    800025cc:	ffc98993          	addi	s3,s3,-4
    800025d0:	000900e7          	jalr	s2
    800025d4:	ff9990e3          	bne	s3,s9,800025b4 <vprintfmt+0x230>
    800025d8:	11013d03          	ld	s10,272(sp)
    800025dc:	e11ff06f          	j	800023ec <vprintfmt+0x68>
    800025e0:	11a13823          	sd	s10,272(sp)
    800025e4:	00100793          	li	a5,1
    800025e8:	008b8c13          	addi	s8,s7,8
    800025ec:	00b7c463          	blt	a5,a1,800025f4 <vprintfmt+0x270>
    800025f0:	16058863          	beqz	a1,80002760 <vprintfmt+0x3dc>
    800025f4:	000bb983          	ld	s3,0(s7)
    800025f8:	1809c463          	bltz	s3,80002780 <vprintfmt+0x3fc>
    800025fc:	00098793          	mv	a5,s3
    80002600:	000c0b93          	mv	s7,s8
    80002604:	00a00613          	li	a2,10
    80002608:	f49ff06f          	j	80002550 <vprintfmt+0x1cc>
    8000260c:	00174683          	lbu	a3,1(a4)
    80002610:	0015859b          	addiw	a1,a1,1
    80002614:	00040713          	mv	a4,s0
    80002618:	df9ff06f          	j	80002410 <vprintfmt+0x8c>
    8000261c:	11a13823          	sd	s10,272(sp)
    80002620:	01000613          	li	a2,16
    80002624:	00100793          	li	a5,1
    80002628:	008b8713          	addi	a4,s7,8
    8000262c:	f0b7cee3          	blt	a5,a1,80002548 <vprintfmt+0x1c4>
    80002630:	f0059ce3          	bnez	a1,80002548 <vprintfmt+0x1c4>
    80002634:	000be783          	lwu	a5,0(s7)
    80002638:	00070b93          	mv	s7,a4
    8000263c:	f15ff06f          	j	80002550 <vprintfmt+0x1cc>
    80002640:	11a13823          	sd	s10,272(sp)
    80002644:	000bbd03          	ld	s10,0(s7)
    80002648:	008b8b93          	addi	s7,s7,8
    8000264c:	060d0063          	beqz	s10,800026ac <vprintfmt+0x328>
    80002650:	0db05463          	blez	s11,80002718 <vprintfmt+0x394>
    80002654:	02d00793          	li	a5,45
    80002658:	06fc9c63          	bne	s9,a5,800026d0 <vprintfmt+0x34c>
    8000265c:	000d4503          	lbu	a0,0(s10)
    80002660:	02050863          	beqz	a0,80002690 <vprintfmt+0x30c>
    80002664:	fff00993          	li	s3,-1
    80002668:	000c4663          	bltz	s8,80002674 <vprintfmt+0x2f0>
    8000266c:	fffc0c1b          	addiw	s8,s8,-1
    80002670:	013c0e63          	beq	s8,s3,8000268c <vprintfmt+0x308>
    80002674:	00048593          	mv	a1,s1
    80002678:	000900e7          	jalr	s2
    8000267c:	001d4503          	lbu	a0,1(s10)
    80002680:	fffd8d9b          	addiw	s11,s11,-1
    80002684:	001d0d13          	addi	s10,s10,1
    80002688:	fe0510e3          	bnez	a0,80002668 <vprintfmt+0x2e4>
    8000268c:	f5b056e3          	blez	s11,800025d8 <vprintfmt+0x254>
    80002690:	00048593          	mv	a1,s1
    80002694:	02000513          	li	a0,32
    80002698:	fffd8d9b          	addiw	s11,s11,-1
    8000269c:	000900e7          	jalr	s2
    800026a0:	fe0d98e3          	bnez	s11,80002690 <vprintfmt+0x30c>
    800026a4:	11013d03          	ld	s10,272(sp)
    800026a8:	d45ff06f          	j	800023ec <vprintfmt+0x68>
    800026ac:	00001d17          	auipc	s10,0x1
    800026b0:	51cd0d13          	addi	s10,s10,1308 # 80003bc8 <main+0xdc0>
    800026b4:	02800513          	li	a0,40
    800026b8:	fbb056e3          	blez	s11,80002664 <vprintfmt+0x2e0>
    800026bc:	02d00793          	li	a5,45
    800026c0:	00001d17          	auipc	s10,0x1
    800026c4:	508d0d13          	addi	s10,s10,1288 # 80003bc8 <main+0xdc0>
    800026c8:	02800513          	li	a0,40
    800026cc:	f8fc8ce3          	beq	s9,a5,80002664 <vprintfmt+0x2e0>
    800026d0:	000d861b          	sext.w	a2,s11
    800026d4:	000d0793          	mv	a5,s10
    800026d8:	018d06b3          	add	a3,s10,s8
    800026dc:	000c1863          	bnez	s8,800026ec <vprintfmt+0x368>
    800026e0:	0200006f          	j	80002700 <vprintfmt+0x37c>
    800026e4:	00178793          	addi	a5,a5,1
    800026e8:	00d78663          	beq	a5,a3,800026f4 <vprintfmt+0x370>
    800026ec:	0007c703          	lbu	a4,0(a5)
    800026f0:	fe071ae3          	bnez	a4,800026e4 <vprintfmt+0x360>
    800026f4:	41a787b3          	sub	a5,a5,s10
    800026f8:	40f60dbb          	subw	s11,a2,a5
    800026fc:	01b05e63          	blez	s11,80002718 <vprintfmt+0x394>
    80002700:	000c8c9b          	sext.w	s9,s9
    80002704:	00048593          	mv	a1,s1
    80002708:	000c8513          	mv	a0,s9
    8000270c:	fffd8d9b          	addiw	s11,s11,-1
    80002710:	000900e7          	jalr	s2
    80002714:	fe0d98e3          	bnez	s11,80002704 <vprintfmt+0x380>
    80002718:	000d4503          	lbu	a0,0(s10)
    8000271c:	ea050ee3          	beqz	a0,800025d8 <vprintfmt+0x254>
    80002720:	fff00993          	li	s3,-1
    80002724:	f45ff06f          	j	80002668 <vprintfmt+0x2e4>
    80002728:	fffdc793          	not	a5,s11
    8000272c:	43f7d793          	srai	a5,a5,0x3f
    80002730:	00fdf7b3          	and	a5,s11,a5
    80002734:	00174683          	lbu	a3,1(a4)
    80002738:	00078d9b          	sext.w	s11,a5
    8000273c:	00040713          	mv	a4,s0
    80002740:	cd1ff06f          	j	80002410 <vprintfmt+0x8c>
    80002744:	000ba503          	lw	a0,0(s7)
    80002748:	00048593          	mv	a1,s1
    8000274c:	008b8b93          	addi	s7,s7,8
    80002750:	000900e7          	jalr	s2
    80002754:	c99ff06f          	j	800023ec <vprintfmt+0x68>
    80002758:	00000c13          	li	s8,0
    8000275c:	e29ff06f          	j	80002584 <vprintfmt+0x200>
    80002760:	000ba983          	lw	s3,0(s7)
    80002764:	e95ff06f          	j	800025f8 <vprintfmt+0x274>
    80002768:	11a13823          	sd	s10,272(sp)
    8000276c:	00a00613          	li	a2,10
    80002770:	eb5ff06f          	j	80002624 <vprintfmt+0x2a0>
    80002774:	11a13823          	sd	s10,272(sp)
    80002778:	00800613          	li	a2,8
    8000277c:	ea9ff06f          	j	80002624 <vprintfmt+0x2a0>
    80002780:	00048593          	mv	a1,s1
    80002784:	02d00513          	li	a0,45
    80002788:	000900e7          	jalr	s2
    8000278c:	413007b3          	neg	a5,s3
    80002790:	000c0b93          	mv	s7,s8
    80002794:	00a00613          	li	a2,10
    80002798:	db9ff06f          	j	80002550 <vprintfmt+0x1cc>
    8000279c:	00040713          	mv	a4,s0
    800027a0:	d45ff06f          	j	800024e4 <vprintfmt+0x160>

00000000800027a4 <sprintf_putch.0>:
    800027a4:	0005b783          	ld	a5,0(a1)
    800027a8:	00a78023          	sb	a0,0(a5)
    800027ac:	0005b783          	ld	a5,0(a1)
    800027b0:	00178793          	addi	a5,a5,1
    800027b4:	00f5b023          	sd	a5,0(a1)
    800027b8:	00008067          	ret

00000000800027bc <putchar>:
    800027bc:	04022803          	lw	a6,64(tp) # 40 <buflen.1>
    800027c0:	00020793          	mv	a5,tp
    800027c4:	010787b3          	add	a5,a5,a6
    800027c8:	f9010113          	addi	sp,sp,-112
    800027cc:	0018069b          	addiw	a3,a6,1
    800027d0:	04d22023          	sw	a3,64(tp) # 40 <buflen.1>
    800027d4:	00a78023          	sb	a0,0(a5)
    800027d8:	03f10713          	addi	a4,sp,63
    800027dc:	00a00793          	li	a5,10
    800027e0:	fc077713          	andi	a4,a4,-64
    800027e4:	00f50c63          	beq	a0,a5,800027fc <putchar+0x40>
    800027e8:	04000793          	li	a5,64
    800027ec:	00f68863          	beq	a3,a5,800027fc <putchar+0x40>
    800027f0:	00000513          	li	a0,0
    800027f4:	07010113          	addi	sp,sp,112
    800027f8:	00008067          	ret
    800027fc:	04000793          	li	a5,64
    80002800:	00f73023          	sd	a5,0(a4)
    80002804:	00100793          	li	a5,1
    80002808:	00f73423          	sd	a5,8(a4)
    8000280c:	00020613          	mv	a2,tp
    80002810:	00c73823          	sd	a2,16(a4)
    80002814:	00d73c23          	sd	a3,24(a4)
    80002818:	0ff0000f          	fence
    8000281c:	fffff697          	auipc	a3,0xfffff
    80002820:	82468693          	addi	a3,a3,-2012 # 80001040 <fromhost>
    80002824:	ffffe797          	auipc	a5,0xffffe
    80002828:	7ce7be23          	sd	a4,2012(a5) # 80001000 <tohost>
    8000282c:	0006b783          	ld	a5,0(a3)
    80002830:	fe078ee3          	beqz	a5,8000282c <putchar+0x70>
    80002834:	fffff797          	auipc	a5,0xfffff
    80002838:	8007b623          	sd	zero,-2036(a5) # 80001040 <fromhost>
    8000283c:	0ff0000f          	fence
    80002840:	04022023          	sw	zero,64(tp) # 40 <buflen.1>
    80002844:	00073783          	ld	a5,0(a4)
    80002848:	00000513          	li	a0,0
    8000284c:	07010113          	addi	sp,sp,112
    80002850:	00008067          	ret

0000000080002854 <setStats>:
    80002854:	b0002773          	csrr	a4,mcycle
    80002858:	00004797          	auipc	a5,0x4
    8000285c:	d3878793          	addi	a5,a5,-712 # 80006590 <counters>
    80002860:	00050a63          	beqz	a0,80002874 <setStats+0x20>
    80002864:	00e7b023          	sd	a4,0(a5)
    80002868:	b0202773          	csrr	a4,minstret
    8000286c:	00e7b423          	sd	a4,8(a5)
    80002870:	00008067          	ret
    80002874:	0007b683          	ld	a3,0(a5)
    80002878:	00001617          	auipc	a2,0x1
    8000287c:	35860613          	addi	a2,a2,856 # 80003bd0 <main+0xdc8>
    80002880:	00c7b823          	sd	a2,16(a5)
    80002884:	40d70733          	sub	a4,a4,a3
    80002888:	00e7b023          	sd	a4,0(a5)
    8000288c:	b0202773          	csrr	a4,minstret
    80002890:	0087b683          	ld	a3,8(a5)
    80002894:	00001617          	auipc	a2,0x1
    80002898:	34460613          	addi	a2,a2,836 # 80003bd8 <main+0xdd0>
    8000289c:	00c7bc23          	sd	a2,24(a5)
    800028a0:	40d70733          	sub	a4,a4,a3
    800028a4:	00e7b423          	sd	a4,8(a5)
    800028a8:	00008067          	ret

00000000800028ac <tohost_exit>:
    800028ac:	00151793          	slli	a5,a0,0x1
    800028b0:	0017e793          	ori	a5,a5,1
    800028b4:	ffffe717          	auipc	a4,0xffffe
    800028b8:	74f73623          	sd	a5,1868(a4) # 80001000 <tohost>
    800028bc:	0000006f          	j	800028bc <tohost_exit+0x10>

00000000800028c0 <handle_trap>:
    800028c0:	000017b7          	lui	a5,0x1
    800028c4:	a7378793          	addi	a5,a5,-1421 # a73 <buflen.1+0xa33>
    800028c8:	ffffe717          	auipc	a4,0xffffe
    800028cc:	72f73c23          	sd	a5,1848(a4) # 80001000 <tohost>
    800028d0:	0000006f          	j	800028d0 <handle_trap+0x10>

00000000800028d4 <exit>:
    800028d4:	ff010113          	addi	sp,sp,-16
    800028d8:	00113423          	sd	ra,8(sp)
    800028dc:	fd1ff0ef          	jal	800028ac <tohost_exit>

00000000800028e0 <abort>:
    800028e0:	10d00793          	li	a5,269
    800028e4:	ffffe717          	auipc	a4,0xffffe
    800028e8:	70f73e23          	sd	a5,1820(a4) # 80001000 <tohost>
    800028ec:	0000006f          	j	800028ec <abort+0xc>

00000000800028f0 <printstr>:
    800028f0:	00054783          	lbu	a5,0(a0)
    800028f4:	f9010113          	addi	sp,sp,-112
    800028f8:	03f10693          	addi	a3,sp,63
    800028fc:	fc06f693          	andi	a3,a3,-64
    80002900:	06078263          	beqz	a5,80002964 <printstr+0x74>
    80002904:	00050793          	mv	a5,a0
    80002908:	0017c703          	lbu	a4,1(a5)
    8000290c:	00178793          	addi	a5,a5,1
    80002910:	fe071ce3          	bnez	a4,80002908 <printstr+0x18>
    80002914:	40a787b3          	sub	a5,a5,a0
    80002918:	04000713          	li	a4,64
    8000291c:	00e6b023          	sd	a4,0(a3)
    80002920:	00100713          	li	a4,1
    80002924:	00e6b423          	sd	a4,8(a3)
    80002928:	00a6b823          	sd	a0,16(a3)
    8000292c:	00f6bc23          	sd	a5,24(a3)
    80002930:	0ff0000f          	fence
    80002934:	ffffe717          	auipc	a4,0xffffe
    80002938:	70c70713          	addi	a4,a4,1804 # 80001040 <fromhost>
    8000293c:	ffffe797          	auipc	a5,0xffffe
    80002940:	6cd7b223          	sd	a3,1732(a5) # 80001000 <tohost>
    80002944:	00073783          	ld	a5,0(a4)
    80002948:	fe078ee3          	beqz	a5,80002944 <printstr+0x54>
    8000294c:	ffffe797          	auipc	a5,0xffffe
    80002950:	6e07ba23          	sd	zero,1780(a5) # 80001040 <fromhost>
    80002954:	0ff0000f          	fence
    80002958:	0006b783          	ld	a5,0(a3)
    8000295c:	07010113          	addi	sp,sp,112
    80002960:	00008067          	ret
    80002964:	00000793          	li	a5,0
    80002968:	fb1ff06f          	j	80002918 <printstr+0x28>

000000008000296c <thread_entry>:
    8000296c:	00050463          	beqz	a0,80002974 <thread_entry+0x8>
    80002970:	0000006f          	j	80002970 <thread_entry+0x4>
    80002974:	00008067          	ret

0000000080002978 <printhex>:
    80002978:	fd010113          	addi	sp,sp,-48
    8000297c:	00050793          	mv	a5,a0
    80002980:	02113423          	sd	ra,40(sp)
    80002984:	00810513          	addi	a0,sp,8
    80002988:	01710713          	addi	a4,sp,23
    8000298c:	00900813          	li	a6,9
    80002990:	0080006f          	j	80002998 <printhex+0x20>
    80002994:	00068713          	mv	a4,a3
    80002998:	00f7f613          	andi	a2,a5,15
    8000299c:	00060693          	mv	a3,a2
    800029a0:	03000593          	li	a1,48
    800029a4:	00c87463          	bgeu	a6,a2,800029ac <printhex+0x34>
    800029a8:	05700593          	li	a1,87
    800029ac:	00b686bb          	addw	a3,a3,a1
    800029b0:	00d70023          	sb	a3,0(a4)
    800029b4:	0047d793          	srli	a5,a5,0x4
    800029b8:	fff70693          	addi	a3,a4,-1
    800029bc:	fce51ce3          	bne	a0,a4,80002994 <printhex+0x1c>
    800029c0:	00010c23          	sb	zero,24(sp)
    800029c4:	f2dff0ef          	jal	800028f0 <printstr>
    800029c8:	02813083          	ld	ra,40(sp)
    800029cc:	03010113          	addi	sp,sp,48
    800029d0:	00008067          	ret

00000000800029d4 <printf>:
    800029d4:	fa010113          	addi	sp,sp,-96
    800029d8:	02810313          	addi	t1,sp,40
    800029dc:	02b13423          	sd	a1,40(sp)
    800029e0:	02c13823          	sd	a2,48(sp)
    800029e4:	02d13c23          	sd	a3,56(sp)
    800029e8:	00050613          	mv	a2,a0
    800029ec:	00030693          	mv	a3,t1
    800029f0:	00000517          	auipc	a0,0x0
    800029f4:	dcc50513          	addi	a0,a0,-564 # 800027bc <putchar>
    800029f8:	00000593          	li	a1,0
    800029fc:	00113c23          	sd	ra,24(sp)
    80002a00:	04e13023          	sd	a4,64(sp)
    80002a04:	04f13423          	sd	a5,72(sp)
    80002a08:	05013823          	sd	a6,80(sp)
    80002a0c:	05113c23          	sd	a7,88(sp)
    80002a10:	00613423          	sd	t1,8(sp)
    80002a14:	971ff0ef          	jal	80002384 <vprintfmt>
    80002a18:	01813083          	ld	ra,24(sp)
    80002a1c:	00000513          	li	a0,0
    80002a20:	06010113          	addi	sp,sp,96
    80002a24:	00008067          	ret

0000000080002a28 <sprintf>:
    80002a28:	fa010113          	addi	sp,sp,-96
    80002a2c:	03010e13          	addi	t3,sp,48
    80002a30:	02813023          	sd	s0,32(sp)
    80002a34:	00a13423          	sd	a0,8(sp)
    80002a38:	00050413          	mv	s0,a0
    80002a3c:	02c13823          	sd	a2,48(sp)
    80002a40:	02d13c23          	sd	a3,56(sp)
    80002a44:	00058613          	mv	a2,a1
    80002a48:	00000517          	auipc	a0,0x0
    80002a4c:	d5c50513          	addi	a0,a0,-676 # 800027a4 <sprintf_putch.0>
    80002a50:	00810593          	addi	a1,sp,8
    80002a54:	000e0693          	mv	a3,t3
    80002a58:	02113423          	sd	ra,40(sp)
    80002a5c:	04f13423          	sd	a5,72(sp)
    80002a60:	04e13023          	sd	a4,64(sp)
    80002a64:	05013823          	sd	a6,80(sp)
    80002a68:	05113c23          	sd	a7,88(sp)
    80002a6c:	01c13c23          	sd	t3,24(sp)
    80002a70:	915ff0ef          	jal	80002384 <vprintfmt>
    80002a74:	00813783          	ld	a5,8(sp)
    80002a78:	00078023          	sb	zero,0(a5)
    80002a7c:	00813503          	ld	a0,8(sp)
    80002a80:	02813083          	ld	ra,40(sp)
    80002a84:	4085053b          	subw	a0,a0,s0
    80002a88:	02013403          	ld	s0,32(sp)
    80002a8c:	06010113          	addi	sp,sp,96
    80002a90:	00008067          	ret

0000000080002a94 <memcpy>:
    80002a94:	00c5e7b3          	or	a5,a1,a2
    80002a98:	00f567b3          	or	a5,a0,a5
    80002a9c:	0077f793          	andi	a5,a5,7
    80002aa0:	00c50833          	add	a6,a0,a2
    80002aa4:	02078463          	beqz	a5,80002acc <memcpy+0x38>
    80002aa8:	00c58633          	add	a2,a1,a2
    80002aac:	00050793          	mv	a5,a0
    80002ab0:	0b057663          	bgeu	a0,a6,80002b5c <memcpy+0xc8>
    80002ab4:	0005c703          	lbu	a4,0(a1)
    80002ab8:	00158593          	addi	a1,a1,1
    80002abc:	00178793          	addi	a5,a5,1
    80002ac0:	fee78fa3          	sb	a4,-1(a5)
    80002ac4:	fec598e3          	bne	a1,a2,80002ab4 <memcpy+0x20>
    80002ac8:	00008067          	ret
    80002acc:	04050693          	addi	a3,a0,64
    80002ad0:	0906f863          	bgeu	a3,a6,80002b60 <memcpy+0xcc>
    80002ad4:	00068793          	mv	a5,a3
    80002ad8:	00058713          	mv	a4,a1
    80002adc:	00073383          	ld	t2,0(a4)
    80002ae0:	00873283          	ld	t0,8(a4)
    80002ae4:	01073f83          	ld	t6,16(a4)
    80002ae8:	01873f03          	ld	t5,24(a4)
    80002aec:	02073e83          	ld	t4,32(a4)
    80002af0:	02873e03          	ld	t3,40(a4)
    80002af4:	03073303          	ld	t1,48(a4)
    80002af8:	03873883          	ld	a7,56(a4)
    80002afc:	04078793          	addi	a5,a5,64
    80002b00:	f877b023          	sd	t2,-128(a5)
    80002b04:	f857b423          	sd	t0,-120(a5)
    80002b08:	f9f7b823          	sd	t6,-112(a5)
    80002b0c:	f9e7bc23          	sd	t5,-104(a5)
    80002b10:	fbd7b023          	sd	t4,-96(a5)
    80002b14:	fbc7b423          	sd	t3,-88(a5)
    80002b18:	fa67b823          	sd	t1,-80(a5)
    80002b1c:	fb17bc23          	sd	a7,-72(a5)
    80002b20:	04070713          	addi	a4,a4,64
    80002b24:	fb07ece3          	bltu	a5,a6,80002adc <memcpy+0x48>
    80002b28:	fbf60613          	addi	a2,a2,-65
    80002b2c:	fc067793          	andi	a5,a2,-64
    80002b30:	04078793          	addi	a5,a5,64
    80002b34:	fc067613          	andi	a2,a2,-64
    80002b38:	00f585b3          	add	a1,a1,a5
    80002b3c:	00c687b3          	add	a5,a3,a2
    80002b40:	f907f4e3          	bgeu	a5,a6,80002ac8 <memcpy+0x34>
    80002b44:	0005b703          	ld	a4,0(a1)
    80002b48:	00878793          	addi	a5,a5,8
    80002b4c:	00858593          	addi	a1,a1,8
    80002b50:	fee7bc23          	sd	a4,-8(a5)
    80002b54:	ff07e8e3          	bltu	a5,a6,80002b44 <memcpy+0xb0>
    80002b58:	00008067          	ret
    80002b5c:	00008067          	ret
    80002b60:	00050793          	mv	a5,a0
    80002b64:	fddff06f          	j	80002b40 <memcpy+0xac>

0000000080002b68 <memset>:
    80002b68:	00c567b3          	or	a5,a0,a2
    80002b6c:	0077f793          	andi	a5,a5,7
    80002b70:	00c50633          	add	a2,a0,a2
    80002b74:	02078063          	beqz	a5,80002b94 <memset+0x2c>
    80002b78:	0ff5f713          	zext.b	a4,a1
    80002b7c:	00050793          	mv	a5,a0
    80002b80:	04c57663          	bgeu	a0,a2,80002bcc <memset+0x64>
    80002b84:	00178793          	addi	a5,a5,1
    80002b88:	fee78fa3          	sb	a4,-1(a5)
    80002b8c:	fec79ce3          	bne	a5,a2,80002b84 <memset+0x1c>
    80002b90:	00008067          	ret
    80002b94:	010107b7          	lui	a5,0x1010
    80002b98:	10178793          	addi	a5,a5,257 # 1010101 <buflen.1+0x10100c1>
    80002b9c:	01079793          	slli	a5,a5,0x10
    80002ba0:	10178793          	addi	a5,a5,257
    80002ba4:	01079793          	slli	a5,a5,0x10
    80002ba8:	0ff5f713          	zext.b	a4,a1
    80002bac:	10178793          	addi	a5,a5,257
    80002bb0:	02f70733          	mul	a4,a4,a5
    80002bb4:	fcc57ee3          	bgeu	a0,a2,80002b90 <memset+0x28>
    80002bb8:	00050793          	mv	a5,a0
    80002bbc:	00878793          	addi	a5,a5,8
    80002bc0:	fee7bc23          	sd	a4,-8(a5)
    80002bc4:	fec7ece3          	bltu	a5,a2,80002bbc <memset+0x54>
    80002bc8:	00008067          	ret
    80002bcc:	00008067          	ret

0000000080002bd0 <_init>:
    80002bd0:	f5010113          	addi	sp,sp,-176
    80002bd4:	00004797          	auipc	a5,0x4
    80002bd8:	9dc78793          	addi	a5,a5,-1572 # 800065b0 <_tdata_begin>
    80002bdc:	09413023          	sd	s4,128(sp)
    80002be0:	00004a17          	auipc	s4,0x4
    80002be4:	9d0a0a13          	addi	s4,s4,-1584 # 800065b0 <_tdata_begin>
    80002be8:	09313423          	sd	s3,136(sp)
    80002bec:	40fa09b3          	sub	s3,s4,a5
    80002bf0:	08913c23          	sd	s1,152(sp)
    80002bf4:	09213823          	sd	s2,144(sp)
    80002bf8:	00050493          	mv	s1,a0
    80002bfc:	00058913          	mv	s2,a1
    80002c00:	00020513          	mv	a0,tp
    80002c04:	00078593          	mv	a1,a5
    80002c08:	00098613          	mv	a2,s3
    80002c0c:	0a113423          	sd	ra,168(sp)
    80002c10:	0a813023          	sd	s0,160(sp)
    80002c14:	07513c23          	sd	s5,120(sp)
    80002c18:	00020a93          	mv	s5,tp
    80002c1c:	e79ff0ef          	jal	80002a94 <memcpy>
    80002c20:	00004617          	auipc	a2,0x4
    80002c24:	9e460613          	addi	a2,a2,-1564 # 80006604 <_tbss_end>
    80002c28:	41460633          	sub	a2,a2,s4
    80002c2c:	00000593          	li	a1,0
    80002c30:	013a8533          	add	a0,s5,s3
    80002c34:	f35ff0ef          	jal	80002b68 <memset>
    80002c38:	00090593          	mv	a1,s2
    80002c3c:	00048513          	mv	a0,s1
    80002c40:	d2dff0ef          	jal	8000296c <thread_entry>
    80002c44:	00000593          	li	a1,0
    80002c48:	00000513          	li	a0,0
    80002c4c:	1bc000ef          	jal	80002e08 <main>
    80002c50:	00004917          	auipc	s2,0x4
    80002c54:	94090913          	addi	s2,s2,-1728 # 80006590 <counters>
    80002c58:	00093683          	ld	a3,0(s2)
    80002c5c:	03f10413          	addi	s0,sp,63
    80002c60:	fc047413          	andi	s0,s0,-64
    80002c64:	00050493          	mv	s1,a0
    80002c68:	04069063          	bnez	a3,80002ca8 <_init+0xd8>
    80002c6c:	00893683          	ld	a3,8(s2)
    80002c70:	00069663          	bnez	a3,80002c7c <_init+0xac>
    80002c74:	00048513          	mv	a0,s1
    80002c78:	c35ff0ef          	jal	800028ac <tohost_exit>
    80002c7c:	00040993          	mv	s3,s0
    80002c80:	01893603          	ld	a2,24(s2)
    80002c84:	00098513          	mv	a0,s3
    80002c88:	00001597          	auipc	a1,0x1
    80002c8c:	f7858593          	addi	a1,a1,-136 # 80003c00 <main+0xdf8>
    80002c90:	d99ff0ef          	jal	80002a28 <sprintf>
    80002c94:	00a989b3          	add	s3,s3,a0
    80002c98:	fd340ee3          	beq	s0,s3,80002c74 <_init+0xa4>
    80002c9c:	00040513          	mv	a0,s0
    80002ca0:	c51ff0ef          	jal	800028f0 <printstr>
    80002ca4:	fd1ff06f          	j	80002c74 <_init+0xa4>
    80002ca8:	01093603          	ld	a2,16(s2)
    80002cac:	00001597          	auipc	a1,0x1
    80002cb0:	f5458593          	addi	a1,a1,-172 # 80003c00 <main+0xdf8>
    80002cb4:	00040513          	mv	a0,s0
    80002cb8:	d71ff0ef          	jal	80002a28 <sprintf>
    80002cbc:	00893683          	ld	a3,8(s2)
    80002cc0:	00a409b3          	add	s3,s0,a0
    80002cc4:	fc068ae3          	beqz	a3,80002c98 <_init+0xc8>
    80002cc8:	fb9ff06f          	j	80002c80 <_init+0xb0>

0000000080002ccc <strlen>:
    80002ccc:	00054783          	lbu	a5,0(a0)
    80002cd0:	00078e63          	beqz	a5,80002cec <strlen+0x20>
    80002cd4:	00050793          	mv	a5,a0
    80002cd8:	0017c703          	lbu	a4,1(a5)
    80002cdc:	00178793          	addi	a5,a5,1
    80002ce0:	fe071ce3          	bnez	a4,80002cd8 <strlen+0xc>
    80002ce4:	40a78533          	sub	a0,a5,a0
    80002ce8:	00008067          	ret
    80002cec:	00000513          	li	a0,0
    80002cf0:	00008067          	ret

0000000080002cf4 <strnlen>:
    80002cf4:	00b506b3          	add	a3,a0,a1
    80002cf8:	00050793          	mv	a5,a0
    80002cfc:	00059863          	bnez	a1,80002d0c <strnlen+0x18>
    80002d00:	0240006f          	j	80002d24 <strnlen+0x30>
    80002d04:	00178793          	addi	a5,a5,1
    80002d08:	00f68a63          	beq	a3,a5,80002d1c <strnlen+0x28>
    80002d0c:	0007c703          	lbu	a4,0(a5)
    80002d10:	fe071ae3          	bnez	a4,80002d04 <strnlen+0x10>
    80002d14:	40a78533          	sub	a0,a5,a0
    80002d18:	00008067          	ret
    80002d1c:	40a68533          	sub	a0,a3,a0
    80002d20:	00008067          	ret
    80002d24:	00000513          	li	a0,0
    80002d28:	00008067          	ret

0000000080002d2c <strcmp>:
    80002d2c:	00054783          	lbu	a5,0(a0)
    80002d30:	00158593          	addi	a1,a1,1
    80002d34:	00150513          	addi	a0,a0,1
    80002d38:	fff5c703          	lbu	a4,-1(a1)
    80002d3c:	00078a63          	beqz	a5,80002d50 <strcmp+0x24>
    80002d40:	fee786e3          	beq	a5,a4,80002d2c <strcmp>
    80002d44:	0007851b          	sext.w	a0,a5
    80002d48:	40e5053b          	subw	a0,a0,a4
    80002d4c:	00008067          	ret
    80002d50:	00000513          	li	a0,0
    80002d54:	ff5ff06f          	j	80002d48 <strcmp+0x1c>

0000000080002d58 <strcpy>:
    80002d58:	00050793          	mv	a5,a0
    80002d5c:	0005c703          	lbu	a4,0(a1)
    80002d60:	00178793          	addi	a5,a5,1
    80002d64:	00158593          	addi	a1,a1,1
    80002d68:	fee78fa3          	sb	a4,-1(a5)
    80002d6c:	fe0718e3          	bnez	a4,80002d5c <strcpy+0x4>
    80002d70:	00008067          	ret

0000000080002d74 <atol>:
    80002d74:	00054703          	lbu	a4,0(a0)
    80002d78:	02000693          	li	a3,32
    80002d7c:	00050793          	mv	a5,a0
    80002d80:	00d71863          	bne	a4,a3,80002d90 <atol+0x1c>
    80002d84:	0017c703          	lbu	a4,1(a5)
    80002d88:	00178793          	addi	a5,a5,1
    80002d8c:	fed70ce3          	beq	a4,a3,80002d84 <atol+0x10>
    80002d90:	02d00693          	li	a3,45
    80002d94:	04d70e63          	beq	a4,a3,80002df0 <atol+0x7c>
    80002d98:	02b00693          	li	a3,43
    80002d9c:	04d70063          	beq	a4,a3,80002ddc <atol+0x68>
    80002da0:	0007c683          	lbu	a3,0(a5)
    80002da4:	00000593          	li	a1,0
    80002da8:	04068c63          	beqz	a3,80002e00 <atol+0x8c>
    80002dac:	00000513          	li	a0,0
    80002db0:	00178793          	addi	a5,a5,1
    80002db4:	00251713          	slli	a4,a0,0x2
    80002db8:	fd06861b          	addiw	a2,a3,-48
    80002dbc:	0007c683          	lbu	a3,0(a5)
    80002dc0:	00a70733          	add	a4,a4,a0
    80002dc4:	00171713          	slli	a4,a4,0x1
    80002dc8:	00e60533          	add	a0,a2,a4
    80002dcc:	fe0692e3          	bnez	a3,80002db0 <atol+0x3c>
    80002dd0:	02058a63          	beqz	a1,80002e04 <atol+0x90>
    80002dd4:	40a00533          	neg	a0,a0
    80002dd8:	00008067          	ret
    80002ddc:	0017c683          	lbu	a3,1(a5)
    80002de0:	00178793          	addi	a5,a5,1
    80002de4:	00068e63          	beqz	a3,80002e00 <atol+0x8c>
    80002de8:	00000593          	li	a1,0
    80002dec:	fc1ff06f          	j	80002dac <atol+0x38>
    80002df0:	0017c683          	lbu	a3,1(a5)
    80002df4:	00100593          	li	a1,1
    80002df8:	00178793          	addi	a5,a5,1
    80002dfc:	fa0698e3          	bnez	a3,80002dac <atol+0x38>
    80002e00:	00000513          	li	a0,0
    80002e04:	00008067          	ret

Disassembly of section .text.startup:

0000000080002e08 <main>:
    80002e08:	f3010113          	addi	sp,sp,-208
    80002e0c:	0c113423          	sd	ra,200(sp)
    80002e10:	0c813023          	sd	s0,192(sp)
    80002e14:	0a913c23          	sd	s1,184(sp)
    80002e18:	0d010413          	addi	s0,sp,208
    80002e1c:	0b213823          	sd	s2,176(sp)
    80002e20:	0b313423          	sd	s3,168(sp)
    80002e24:	0b413023          	sd	s4,160(sp)
    80002e28:	09513c23          	sd	s5,152(sp)
    80002e2c:	09613823          	sd	s6,144(sp)
    80002e30:	09713423          	sd	s7,136(sp)
    80002e34:	09813023          	sd	s8,128(sp)
    80002e38:	07913c23          	sd	s9,120(sp)
    80002e3c:	07a13823          	sd	s10,112(sp)
    80002e40:	07b13423          	sd	s11,104(sp)
    80002e44:	00000797          	auipc	a5,0x0
    80002e48:	75478793          	addi	a5,a5,1876 # 80003598 <main+0x790>
    80002e4c:	fc010113          	addi	sp,sp,-64
    80002e50:	00010613          	mv	a2,sp
    80002e54:	0007a983          	lw	s3,0(a5)
    80002e58:	fc010113          	addi	sp,sp,-64
    80002e5c:	00100693          	li	a3,1
    80002e60:	0047af83          	lw	t6,4(a5)
    80002e64:	0087af03          	lw	t5,8(a5)
    80002e68:	00c7ae83          	lw	t4,12(a5)
    80002e6c:	0107ae03          	lw	t3,16(a5)
    80002e70:	0147a303          	lw	t1,20(a5)
    80002e74:	0187a883          	lw	a7,24(a5)
    80002e78:	01c7d803          	lhu	a6,28(a5)
    80002e7c:	01e7c503          	lbu	a0,30(a5)
    80002e80:	02169693          	slli	a3,a3,0x21
    80002e84:	00010793          	mv	a5,sp
    80002e88:	00d7b423          	sd	a3,8(a5)
    80002e8c:	02800693          	li	a3,40
    80002e90:	00001717          	auipc	a4,0x1
    80002e94:	cd870713          	addi	a4,a4,-808 # 80003b68 <main+0xd60>
    80002e98:	00c7b023          	sd	a2,0(a5)
    80002e9c:	00d7a823          	sw	a3,16(a5)
    80002ea0:	0137aa23          	sw	s3,20(a5)
    80002ea4:	84418693          	addi	a3,gp,-1980 # 80003da8 <Next_Ptr_Glob>
    80002ea8:	01073383          	ld	t2,16(a4)
    80002eac:	01872283          	lw	t0,24(a4)
    80002eb0:	01c75583          	lhu	a1,28(a4)
    80002eb4:	00073903          	ld	s2,0(a4)
    80002eb8:	00873483          	ld	s1,8(a4)
    80002ebc:	00c6b023          	sd	a2,0(a3)
    80002ec0:	84c18693          	addi	a3,gp,-1972 # 80003db0 <Ptr_Glob>
    80002ec4:	00f6b023          	sd	a5,0(a3)
    80002ec8:	01f7ac23          	sw	t6,24(a5)
    80002ecc:	01e7ae23          	sw	t5,28(a5)
    80002ed0:	03d7a023          	sw	t4,32(a5)
    80002ed4:	03c7a223          	sw	t3,36(a5)
    80002ed8:	0267a423          	sw	t1,40(a5)
    80002edc:	0317a623          	sw	a7,44(a5)
    80002ee0:	03079823          	sh	a6,48(a5)
    80002ee4:	02a78923          	sb	a0,50(a5)
    80002ee8:	01e74783          	lbu	a5,30(a4)
    80002eec:	00000517          	auipc	a0,0x0
    80002ef0:	6d450513          	addi	a0,a0,1748 # 800035c0 <main+0x7b8>
    80002ef4:	00001717          	auipc	a4,0x1
    80002ef8:	f8c70713          	addi	a4,a4,-116 # 80003e80 <Arr_2_Glob>
    80002efc:	f6f40723          	sb	a5,-146(s0)
    80002f00:	00a00793          	li	a5,10
    80002f04:	64f72e23          	sw	a5,1628(a4)
    80002f08:	f6743023          	sd	t2,-160(s0)
    80002f0c:	f6542423          	sw	t0,-152(s0)
    80002f10:	f6b41623          	sh	a1,-148(s0)
    80002f14:	f5243823          	sd	s2,-176(s0)
    80002f18:	f4943c23          	sd	s1,-168(s0)
    80002f1c:	aa0ff0ef          	jal	800021bc <debug_printf>
    80002f20:	00000597          	auipc	a1,0x0
    80002f24:	6a858593          	addi	a1,a1,1704 # 800035c8 <main+0x7c0>
    80002f28:	00000517          	auipc	a0,0x0
    80002f2c:	6b050513          	addi	a0,a0,1712 # 800035d8 <main+0x7d0>
    80002f30:	a8cff0ef          	jal	800021bc <debug_printf>
    80002f34:	8301a783          	lw	a5,-2000(gp) # 80003d94 <Reg>
    80002f38:	00000993          	li	s3,0
    80002f3c:	62078463          	beqz	a5,80003564 <main+0x75c>
    80002f40:	00000517          	auipc	a0,0x0
    80002f44:	6c050513          	addi	a0,a0,1728 # 80003600 <main+0x7f8>
    80002f48:	a74ff0ef          	jal	800021bc <debug_printf>
    80002f4c:	000f4637          	lui	a2,0xf4
    80002f50:	24060613          	addi	a2,a2,576 # f4240 <buflen.1+0xf4200>
    80002f54:	00000597          	auipc	a1,0x0
    80002f58:	70c58593          	addi	a1,a1,1804 # 80003660 <main+0x858>
    80002f5c:	00000517          	auipc	a0,0x0
    80002f60:	71450513          	addi	a0,a0,1812 # 80003670 <main+0x868>
    80002f64:	a58ff0ef          	jal	800021bc <debug_printf>
    80002f68:	00000517          	auipc	a0,0x0
    80002f6c:	65850513          	addi	a0,a0,1624 # 800035c0 <main+0x7b8>
    80002f70:	a4cff0ef          	jal	800021bc <debug_printf>
    80002f74:	1f400793          	li	a5,500
    80002f78:	f2f43c23          	sd	a5,-200(s0)
    80002f7c:	83418913          	addi	s2,gp,-1996 # 80003d98 <Ch_2_Glob>
    80002f80:	8201a623          	sw	zero,-2004(gp) # 80003d90 <Done>
    80002f84:	83c18b13          	addi	s6,gp,-1988 # 80003da0 <Int_Glob>
    80002f88:	00001a17          	auipc	s4,0x1
    80002f8c:	c00a0a13          	addi	s4,s4,-1024 # 80003b88 <main+0xd80>
    80002f90:	00001497          	auipc	s1,0x1
    80002f94:	c1848493          	addi	s1,s1,-1000 # 80003ba8 <main+0xda0>
    80002f98:	f3843a83          	ld	s5,-200(s0)
    80002f9c:	00000517          	auipc	a0,0x0
    80002fa0:	6ec50513          	addi	a0,a0,1772 # 80003688 <main+0x880>
    80002fa4:	000a8593          	mv	a1,s5
    80002fa8:	a14ff0ef          	jal	800021bc <debug_printf>
    80002fac:	00100513          	li	a0,1
    80002fb0:	8a5ff0ef          	jal	80002854 <setStats>
    80002fb4:	b00027f3          	csrr	a5,mcycle
    80002fb8:	82418713          	addi	a4,gp,-2012 # 80003d88 <Begin_Time>
    80002fbc:	00f73023          	sd	a5,0(a4)
    80002fc0:	17505663          	blez	s5,8000312c <main+0x324>
    80002fc4:	001a8c9b          	addiw	s9,s5,1
    80002fc8:	00100993          	li	s3,1
    80002fcc:	00100c13          	li	s8,1
    80002fd0:	00700b93          	li	s7,7
    80002fd4:	ba0ff0ef          	jal	80002374 <Proc_5>
    80002fd8:	b74ff0ef          	jal	8000234c <Proc_4>
    80002fdc:	000a3883          	ld	a7,0(s4)
    80002fe0:	008a3803          	ld	a6,8(s4)
    80002fe4:	018a2683          	lw	a3,24(s4)
    80002fe8:	010a3603          	ld	a2,16(s4)
    80002fec:	01ca5703          	lhu	a4,28(s4)
    80002ff0:	01ea4783          	lbu	a5,30(s4)
    80002ff4:	f7040593          	addi	a1,s0,-144
    80002ff8:	f5040513          	addi	a0,s0,-176
    80002ffc:	f7143823          	sd	a7,-144(s0)
    80003000:	f7043c23          	sd	a6,-136(s0)
    80003004:	f8d42423          	sw	a3,-120(s0)
    80003008:	f8c43023          	sd	a2,-128(s0)
    8000300c:	f8e41623          	sh	a4,-116(s0)
    80003010:	f8f40723          	sb	a5,-114(s0)
    80003014:	f5842623          	sw	s8,-180(s0)
    80003018:	880ff0ef          	jal	80002098 <Func_2>
    8000301c:	83818713          	addi	a4,gp,-1992 # 80003d9c <Bool_Glob>
    80003020:	00153793          	seqz	a5,a0
    80003024:	f4840613          	addi	a2,s0,-184
    80003028:	00300593          	li	a1,3
    8000302c:	00200513          	li	a0,2
    80003030:	00f72023          	sw	a5,0(a4)
    80003034:	f5742423          	sw	s7,-184(s0)
    80003038:	fc9fe0ef          	jal	80002000 <Proc_7>
    8000303c:	f4842683          	lw	a3,-184(s0)
    80003040:	00300793          	li	a5,3
    80003044:	00300613          	li	a2,3
    80003048:	00001597          	auipc	a1,0x1
    8000304c:	e3858593          	addi	a1,a1,-456 # 80003e80 <Arr_2_Glob>
    80003050:	85418513          	addi	a0,gp,-1964 # 80003db8 <Arr_1_Glob>
    80003054:	f4f42223          	sw	a5,-188(s0)
    80003058:	fb9fe0ef          	jal	80002010 <Proc_8>
    8000305c:	84c18793          	addi	a5,gp,-1972 # 80003db0 <Ptr_Glob>
    80003060:	0007b503          	ld	a0,0(a5)
    80003064:	9d0ff0ef          	jal	80002234 <Proc_1>
    80003068:	00094703          	lbu	a4,0(s2)
    8000306c:	04000793          	li	a5,64
    80003070:	4ae7f863          	bgeu	a5,a4,80003520 <main+0x718>
    80003074:	04100d13          	li	s10,65
    80003078:	00300a93          	li	s5,3
    8000307c:	0140006f          	j	80003090 <main+0x288>
    80003080:	00094703          	lbu	a4,0(s2)
    80003084:	001d079b          	addiw	a5,s10,1
    80003088:	0ff7fd13          	zext.b	s10,a5
    8000308c:	07a76663          	bltu	a4,s10,800030f8 <main+0x2f0>
    80003090:	04300593          	li	a1,67
    80003094:	000d0513          	mv	a0,s10
    80003098:	fe1fe0ef          	jal	80002078 <Func_1>
    8000309c:	f4c42703          	lw	a4,-180(s0)
    800030a0:	fea710e3          	bne	a4,a0,80003080 <main+0x278>
    800030a4:	f4c40593          	addi	a1,s0,-180
    800030a8:	00000513          	li	a0,0
    800030ac:	858ff0ef          	jal	80002104 <Proc_6>
    800030b0:	01e4c703          	lbu	a4,30(s1)
    800030b4:	0004b803          	ld	a6,0(s1)
    800030b8:	0084b503          	ld	a0,8(s1)
    800030bc:	0104b583          	ld	a1,16(s1)
    800030c0:	0184a603          	lw	a2,24(s1)
    800030c4:	01c4d683          	lhu	a3,28(s1)
    800030c8:	f8e40723          	sb	a4,-114(s0)
    800030cc:	00094703          	lbu	a4,0(s2)
    800030d0:	001d079b          	addiw	a5,s10,1
    800030d4:	f7043823          	sd	a6,-144(s0)
    800030d8:	f6a43c23          	sd	a0,-136(s0)
    800030dc:	f8b43023          	sd	a1,-128(s0)
    800030e0:	f8c42423          	sw	a2,-120(s0)
    800030e4:	f8d41623          	sh	a3,-116(s0)
    800030e8:	013b2023          	sw	s3,0(s6)
    800030ec:	0ff7fd13          	zext.b	s10,a5
    800030f0:	00098a93          	mv	s5,s3
    800030f4:	f9a77ee3          	bgeu	a4,s10,80003090 <main+0x288>
    800030f8:	001a979b          	slliw	a5,s5,0x1
    800030fc:	01578abb          	addw	s5,a5,s5
    80003100:	f4842d03          	lw	s10,-184(s0)
    80003104:	f4440513          	addi	a0,s0,-188
    80003108:	0019899b          	addiw	s3,s3,1
    8000310c:	03aacdbb          	divw	s11,s5,s10
    80003110:	f5b42223          	sw	s11,-188(s0)
    80003114:	8d0ff0ef          	jal	800021e4 <Proc_2>
    80003118:	eb3c9ee3          	bne	s9,s3,80002fd4 <main+0x1cc>
    8000311c:	41aa8abb          	subw	s5,s5,s10
    80003120:	003a971b          	slliw	a4,s5,0x3
    80003124:	4157073b          	subw	a4,a4,s5
    80003128:	41b709bb          	subw	s3,a4,s11
    8000312c:	b00027f3          	csrr	a5,mcycle
    80003130:	81c18713          	addi	a4,gp,-2020 # 80003d80 <End_Time>
    80003134:	00000513          	li	a0,0
    80003138:	00070a93          	mv	s5,a4
    8000313c:	00f73023          	sd	a5,0(a4)
    80003140:	f14ff0ef          	jal	80002854 <setStats>
    80003144:	82418713          	addi	a4,gp,-2012 # 80003d88 <Begin_Time>
    80003148:	00073703          	ld	a4,0(a4)
    8000314c:	000ab783          	ld	a5,0(s5)
    80003150:	40e787b3          	sub	a5,a5,a4
    80003154:	81418713          	addi	a4,gp,-2028 # 80003d78 <User_Time>
    80003158:	00f73023          	sd	a5,0(a4)
    8000315c:	3cf05663          	blez	a5,80003528 <main+0x720>
    80003160:	00100793          	li	a5,1
    80003164:	82c18713          	addi	a4,gp,-2004 # 80003d90 <Done>
    80003168:	00f72023          	sw	a5,0(a4)
    8000316c:	00000517          	auipc	a0,0x0
    80003170:	57c50513          	addi	a0,a0,1404 # 800036e8 <main+0x8e0>
    80003174:	848ff0ef          	jal	800021bc <debug_printf>
    80003178:	00000517          	auipc	a0,0x0
    8000317c:	44850513          	addi	a0,a0,1096 # 800035c0 <main+0x7b8>
    80003180:	83cff0ef          	jal	800021bc <debug_printf>
    80003184:	000b2583          	lw	a1,0(s6)
    80003188:	00000517          	auipc	a0,0x0
    8000318c:	59850513          	addi	a0,a0,1432 # 80003720 <main+0x918>
    80003190:	84c18493          	addi	s1,gp,-1972 # 80003db0 <Ptr_Glob>
    80003194:	828ff0ef          	jal	800021bc <debug_printf>
    80003198:	00500593          	li	a1,5
    8000319c:	00000517          	auipc	a0,0x0
    800031a0:	5a450513          	addi	a0,a0,1444 # 80003740 <main+0x938>
    800031a4:	818ff0ef          	jal	800021bc <debug_printf>
    800031a8:	83818793          	addi	a5,gp,-1992 # 80003d9c <Bool_Glob>
    800031ac:	0007a583          	lw	a1,0(a5)
    800031b0:	00000517          	auipc	a0,0x0
    800031b4:	5b050513          	addi	a0,a0,1456 # 80003760 <main+0x958>
    800031b8:	804ff0ef          	jal	800021bc <debug_printf>
    800031bc:	00100593          	li	a1,1
    800031c0:	00000517          	auipc	a0,0x0
    800031c4:	58050513          	addi	a0,a0,1408 # 80003740 <main+0x938>
    800031c8:	ff5fe0ef          	jal	800021bc <debug_printf>
    800031cc:	8351c583          	lbu	a1,-1995(gp) # 80003d99 <Ch_1_Glob>
    800031d0:	00000517          	auipc	a0,0x0
    800031d4:	5b050513          	addi	a0,a0,1456 # 80003780 <main+0x978>
    800031d8:	fe5fe0ef          	jal	800021bc <debug_printf>
    800031dc:	04100593          	li	a1,65
    800031e0:	00000517          	auipc	a0,0x0
    800031e4:	5c050513          	addi	a0,a0,1472 # 800037a0 <main+0x998>
    800031e8:	fd5fe0ef          	jal	800021bc <debug_printf>
    800031ec:	00094583          	lbu	a1,0(s2)
    800031f0:	00000517          	auipc	a0,0x0
    800031f4:	5d050513          	addi	a0,a0,1488 # 800037c0 <main+0x9b8>
    800031f8:	fc5fe0ef          	jal	800021bc <debug_printf>
    800031fc:	04200593          	li	a1,66
    80003200:	00000517          	auipc	a0,0x0
    80003204:	5a050513          	addi	a0,a0,1440 # 800037a0 <main+0x998>
    80003208:	fb5fe0ef          	jal	800021bc <debug_printf>
    8000320c:	8741a583          	lw	a1,-1932(gp) # 80003dd8 <Arr_1_Glob+0x20>
    80003210:	00000517          	auipc	a0,0x0
    80003214:	5d050513          	addi	a0,a0,1488 # 800037e0 <main+0x9d8>
    80003218:	fa5fe0ef          	jal	800021bc <debug_printf>
    8000321c:	00700593          	li	a1,7
    80003220:	00000517          	auipc	a0,0x0
    80003224:	52050513          	addi	a0,a0,1312 # 80003740 <main+0x938>
    80003228:	f95fe0ef          	jal	800021bc <debug_printf>
    8000322c:	00001797          	auipc	a5,0x1
    80003230:	c5478793          	addi	a5,a5,-940 # 80003e80 <Arr_2_Glob>
    80003234:	65c7a583          	lw	a1,1628(a5)
    80003238:	00000517          	auipc	a0,0x0
    8000323c:	5c850513          	addi	a0,a0,1480 # 80003800 <main+0x9f8>
    80003240:	f7dfe0ef          	jal	800021bc <debug_printf>
    80003244:	00000517          	auipc	a0,0x0
    80003248:	5dc50513          	addi	a0,a0,1500 # 80003820 <main+0xa18>
    8000324c:	f71fe0ef          	jal	800021bc <debug_printf>
    80003250:	00000517          	auipc	a0,0x0
    80003254:	60050513          	addi	a0,a0,1536 # 80003850 <main+0xa48>
    80003258:	f65fe0ef          	jal	800021bc <debug_printf>
    8000325c:	0004b783          	ld	a5,0(s1)
    80003260:	00000517          	auipc	a0,0x0
    80003264:	60050513          	addi	a0,a0,1536 # 80003860 <main+0xa58>
    80003268:	0007b583          	ld	a1,0(a5)
    8000326c:	f51fe0ef          	jal	800021bc <debug_printf>
    80003270:	00000517          	auipc	a0,0x0
    80003274:	61050513          	addi	a0,a0,1552 # 80003880 <main+0xa78>
    80003278:	f45fe0ef          	jal	800021bc <debug_printf>
    8000327c:	0004b783          	ld	a5,0(s1)
    80003280:	00000517          	auipc	a0,0x0
    80003284:	63850513          	addi	a0,a0,1592 # 800038b8 <main+0xab0>
    80003288:	0087a583          	lw	a1,8(a5)
    8000328c:	f31fe0ef          	jal	800021bc <debug_printf>
    80003290:	00000593          	li	a1,0
    80003294:	00000517          	auipc	a0,0x0
    80003298:	4ac50513          	addi	a0,a0,1196 # 80003740 <main+0x938>
    8000329c:	f21fe0ef          	jal	800021bc <debug_printf>
    800032a0:	0004b783          	ld	a5,0(s1)
    800032a4:	00000517          	auipc	a0,0x0
    800032a8:	63450513          	addi	a0,a0,1588 # 800038d8 <main+0xad0>
    800032ac:	00c7a583          	lw	a1,12(a5)
    800032b0:	f0dfe0ef          	jal	800021bc <debug_printf>
    800032b4:	00200593          	li	a1,2
    800032b8:	00000517          	auipc	a0,0x0
    800032bc:	48850513          	addi	a0,a0,1160 # 80003740 <main+0x938>
    800032c0:	efdfe0ef          	jal	800021bc <debug_printf>
    800032c4:	0004b783          	ld	a5,0(s1)
    800032c8:	00000517          	auipc	a0,0x0
    800032cc:	63050513          	addi	a0,a0,1584 # 800038f8 <main+0xaf0>
    800032d0:	0107a583          	lw	a1,16(a5)
    800032d4:	ee9fe0ef          	jal	800021bc <debug_printf>
    800032d8:	01100593          	li	a1,17
    800032dc:	00000517          	auipc	a0,0x0
    800032e0:	46450513          	addi	a0,a0,1124 # 80003740 <main+0x938>
    800032e4:	ed9fe0ef          	jal	800021bc <debug_printf>
    800032e8:	0004b583          	ld	a1,0(s1)
    800032ec:	00000517          	auipc	a0,0x0
    800032f0:	62c50513          	addi	a0,a0,1580 # 80003918 <main+0xb10>
    800032f4:	84418493          	addi	s1,gp,-1980 # 80003da8 <Next_Ptr_Glob>
    800032f8:	01458593          	addi	a1,a1,20
    800032fc:	ec1fe0ef          	jal	800021bc <debug_printf>
    80003300:	00000517          	auipc	a0,0x0
    80003304:	63850513          	addi	a0,a0,1592 # 80003938 <main+0xb30>
    80003308:	eb5fe0ef          	jal	800021bc <debug_printf>
    8000330c:	00000517          	auipc	a0,0x0
    80003310:	66450513          	addi	a0,a0,1636 # 80003970 <main+0xb68>
    80003314:	ea9fe0ef          	jal	800021bc <debug_printf>
    80003318:	0004b783          	ld	a5,0(s1)
    8000331c:	00000517          	auipc	a0,0x0
    80003320:	54450513          	addi	a0,a0,1348 # 80003860 <main+0xa58>
    80003324:	0007b583          	ld	a1,0(a5)
    80003328:	e95fe0ef          	jal	800021bc <debug_printf>
    8000332c:	00000517          	auipc	a0,0x0
    80003330:	65c50513          	addi	a0,a0,1628 # 80003988 <main+0xb80>
    80003334:	e89fe0ef          	jal	800021bc <debug_printf>
    80003338:	0004b783          	ld	a5,0(s1)
    8000333c:	00000517          	auipc	a0,0x0
    80003340:	57c50513          	addi	a0,a0,1404 # 800038b8 <main+0xab0>
    80003344:	0087a583          	lw	a1,8(a5)
    80003348:	e75fe0ef          	jal	800021bc <debug_printf>
    8000334c:	00000593          	li	a1,0
    80003350:	00000517          	auipc	a0,0x0
    80003354:	3f050513          	addi	a0,a0,1008 # 80003740 <main+0x938>
    80003358:	e65fe0ef          	jal	800021bc <debug_printf>
    8000335c:	0004b783          	ld	a5,0(s1)
    80003360:	00000517          	auipc	a0,0x0
    80003364:	57850513          	addi	a0,a0,1400 # 800038d8 <main+0xad0>
    80003368:	00c7a583          	lw	a1,12(a5)
    8000336c:	e51fe0ef          	jal	800021bc <debug_printf>
    80003370:	00100593          	li	a1,1
    80003374:	00000517          	auipc	a0,0x0
    80003378:	3cc50513          	addi	a0,a0,972 # 80003740 <main+0x938>
    8000337c:	e41fe0ef          	jal	800021bc <debug_printf>
    80003380:	0004b783          	ld	a5,0(s1)
    80003384:	00000517          	auipc	a0,0x0
    80003388:	57450513          	addi	a0,a0,1396 # 800038f8 <main+0xaf0>
    8000338c:	0107a583          	lw	a1,16(a5)
    80003390:	e2dfe0ef          	jal	800021bc <debug_printf>
    80003394:	01200593          	li	a1,18
    80003398:	00000517          	auipc	a0,0x0
    8000339c:	3a850513          	addi	a0,a0,936 # 80003740 <main+0x938>
    800033a0:	e1dfe0ef          	jal	800021bc <debug_printf>
    800033a4:	0004b583          	ld	a1,0(s1)
    800033a8:	00000517          	auipc	a0,0x0
    800033ac:	57050513          	addi	a0,a0,1392 # 80003918 <main+0xb10>
    800033b0:	00001497          	auipc	s1,0x1
    800033b4:	9b848493          	addi	s1,s1,-1608 # 80003d68 <Dhrystones_Per_Second>
    800033b8:	01458593          	addi	a1,a1,20
    800033bc:	e01fe0ef          	jal	800021bc <debug_printf>
    800033c0:	00000517          	auipc	a0,0x0
    800033c4:	57850513          	addi	a0,a0,1400 # 80003938 <main+0xb30>
    800033c8:	df5fe0ef          	jal	800021bc <debug_printf>
    800033cc:	f4442583          	lw	a1,-188(s0)
    800033d0:	00000517          	auipc	a0,0x0
    800033d4:	5f850513          	addi	a0,a0,1528 # 800039c8 <main+0xbc0>
    800033d8:	de5fe0ef          	jal	800021bc <debug_printf>
    800033dc:	00500593          	li	a1,5
    800033e0:	00000517          	auipc	a0,0x0
    800033e4:	36050513          	addi	a0,a0,864 # 80003740 <main+0x938>
    800033e8:	dd5fe0ef          	jal	800021bc <debug_printf>
    800033ec:	00098593          	mv	a1,s3
    800033f0:	00000517          	auipc	a0,0x0
    800033f4:	5f850513          	addi	a0,a0,1528 # 800039e8 <main+0xbe0>
    800033f8:	dc5fe0ef          	jal	800021bc <debug_printf>
    800033fc:	00d00593          	li	a1,13
    80003400:	00000517          	auipc	a0,0x0
    80003404:	34050513          	addi	a0,a0,832 # 80003740 <main+0x938>
    80003408:	db5fe0ef          	jal	800021bc <debug_printf>
    8000340c:	f4842583          	lw	a1,-184(s0)
    80003410:	00000517          	auipc	a0,0x0
    80003414:	5f850513          	addi	a0,a0,1528 # 80003a08 <main+0xc00>
    80003418:	da5fe0ef          	jal	800021bc <debug_printf>
    8000341c:	00700593          	li	a1,7
    80003420:	00000517          	auipc	a0,0x0
    80003424:	32050513          	addi	a0,a0,800 # 80003740 <main+0x938>
    80003428:	d95fe0ef          	jal	800021bc <debug_printf>
    8000342c:	f4c42583          	lw	a1,-180(s0)
    80003430:	00000517          	auipc	a0,0x0
    80003434:	5f850513          	addi	a0,a0,1528 # 80003a28 <main+0xc20>
    80003438:	d85fe0ef          	jal	800021bc <debug_printf>
    8000343c:	00100593          	li	a1,1
    80003440:	00000517          	auipc	a0,0x0
    80003444:	30050513          	addi	a0,a0,768 # 80003740 <main+0x938>
    80003448:	d75fe0ef          	jal	800021bc <debug_printf>
    8000344c:	f5040593          	addi	a1,s0,-176
    80003450:	00000517          	auipc	a0,0x0
    80003454:	5f850513          	addi	a0,a0,1528 # 80003a48 <main+0xc40>
    80003458:	d65fe0ef          	jal	800021bc <debug_printf>
    8000345c:	00000517          	auipc	a0,0x0
    80003460:	60c50513          	addi	a0,a0,1548 # 80003a68 <main+0xc60>
    80003464:	d59fe0ef          	jal	800021bc <debug_printf>
    80003468:	f7040593          	addi	a1,s0,-144
    8000346c:	00000517          	auipc	a0,0x0
    80003470:	63450513          	addi	a0,a0,1588 # 80003aa0 <main+0xc98>
    80003474:	d49fe0ef          	jal	800021bc <debug_printf>
    80003478:	00000517          	auipc	a0,0x0
    8000347c:	64850513          	addi	a0,a0,1608 # 80003ac0 <main+0xcb8>
    80003480:	d3dfe0ef          	jal	800021bc <debug_printf>
    80003484:	00000517          	auipc	a0,0x0
    80003488:	13c50513          	addi	a0,a0,316 # 800035c0 <main+0x7b8>
    8000348c:	d31fe0ef          	jal	800021bc <debug_printf>
    80003490:	f3843603          	ld	a2,-200(s0)
    80003494:	000f47b7          	lui	a5,0xf4
    80003498:	2407879b          	addiw	a5,a5,576 # f4240 <buflen.1+0xf4200>
    8000349c:	02c7873b          	mulw	a4,a5,a2
    800034a0:	81418793          	addi	a5,gp,-2028 # 80003d78 <User_Time>
    800034a4:	0007b683          	ld	a3,0(a5)
    800034a8:	00000517          	auipc	a0,0x0
    800034ac:	65050513          	addi	a0,a0,1616 # 80003af8 <main+0xcf0>
    800034b0:	02c6c7b3          	div	a5,a3,a2
    800034b4:	02d74733          	div	a4,a4,a3
    800034b8:	00078593          	mv	a1,a5
    800034bc:	00001697          	auipc	a3,0x1
    800034c0:	8af6ba23          	sd	a5,-1868(a3) # 80003d70 <Microseconds>
    800034c4:	00e4b023          	sd	a4,0(s1)
    800034c8:	d0cff0ef          	jal	800029d4 <printf>
    800034cc:	0004b583          	ld	a1,0(s1)
    800034d0:	00000517          	auipc	a0,0x0
    800034d4:	66050513          	addi	a0,a0,1632 # 80003b30 <main+0xd28>
    800034d8:	cfcff0ef          	jal	800029d4 <printf>
    800034dc:	f3040113          	addi	sp,s0,-208
    800034e0:	0c813083          	ld	ra,200(sp)
    800034e4:	0c013403          	ld	s0,192(sp)
    800034e8:	0b813483          	ld	s1,184(sp)
    800034ec:	0b013903          	ld	s2,176(sp)
    800034f0:	0a813983          	ld	s3,168(sp)
    800034f4:	0a013a03          	ld	s4,160(sp)
    800034f8:	09813a83          	ld	s5,152(sp)
    800034fc:	09013b03          	ld	s6,144(sp)
    80003500:	08813b83          	ld	s7,136(sp)
    80003504:	08013c03          	ld	s8,128(sp)
    80003508:	07813c83          	ld	s9,120(sp)
    8000350c:	07013d03          	ld	s10,112(sp)
    80003510:	06813d83          	ld	s11,104(sp)
    80003514:	00000513          	li	a0,0
    80003518:	0d010113          	addi	sp,sp,208
    8000351c:	00008067          	ret
    80003520:	00900a93          	li	s5,9
    80003524:	bddff06f          	j	80003100 <main+0x2f8>
    80003528:	00000517          	auipc	a0,0x0
    8000352c:	18850513          	addi	a0,a0,392 # 800036b0 <main+0x8a8>
    80003530:	ca4ff0ef          	jal	800029d4 <printf>
    80003534:	f3843703          	ld	a4,-200(s0)
    80003538:	00000517          	auipc	a0,0x0
    8000353c:	08850513          	addi	a0,a0,136 # 800035c0 <main+0x7b8>
    80003540:	0027179b          	slliw	a5,a4,0x2
    80003544:	00e787bb          	addw	a5,a5,a4
    80003548:	0017979b          	slliw	a5,a5,0x1
    8000354c:	f2f43c23          	sd	a5,-200(s0)
    80003550:	c84ff0ef          	jal	800029d4 <printf>
    80003554:	82c18793          	addi	a5,gp,-2004 # 80003d90 <Done>
    80003558:	0007a783          	lw	a5,0(a5)
    8000355c:	a2078ee3          	beqz	a5,80002f98 <main+0x190>
    80003560:	c0dff06f          	j	8000316c <main+0x364>
    80003564:	00000517          	auipc	a0,0x0
    80003568:	0cc50513          	addi	a0,a0,204 # 80003630 <main+0x828>
    8000356c:	c51fe0ef          	jal	800021bc <debug_printf>
    80003570:	9ddff06f          	j	80002f4c <main+0x144>
    80003574:	ff010113          	addi	sp,sp,-16
    80003578:	00000517          	auipc	a0,0x0
    8000357c:	67050513          	addi	a0,a0,1648 # 80003be8 <main+0xde0>
    80003580:	00113423          	sd	ra,8(sp)
    80003584:	b6cff0ef          	jal	800028f0 <printstr>
    80003588:	00813083          	ld	ra,8(sp)
    8000358c:	fff00513          	li	a0,-1
    80003590:	01010113          	addi	sp,sp,16
    80003594:	00008067          	ret
