
mainop_O2U4_YN.riscv:     file format elf64-littleriscv


Disassembly of section .text.init:

0000000080000000 <_start>:
    80000000:	4081                	li	ra,0
    80000002:	4101                	li	sp,0
    80000004:	4181                	li	gp,0
    80000006:	4201                	li	tp,0
    80000008:	4281                	li	t0,0
    8000000a:	4301                	li	t1,0
    8000000c:	4381                	li	t2,0
    8000000e:	4401                	li	s0,0
    80000010:	4481                	li	s1,0
    80000012:	4501                	li	a0,0
    80000014:	4581                	li	a1,0
    80000016:	4601                	li	a2,0
    80000018:	4681                	li	a3,0
    8000001a:	4701                	li	a4,0
    8000001c:	4781                	li	a5,0
    8000001e:	4801                	li	a6,0
    80000020:	4881                	li	a7,0
    80000022:	4901                	li	s2,0
    80000024:	4981                	li	s3,0
    80000026:	4a01                	li	s4,0
    80000028:	4a81                	li	s5,0
    8000002a:	4b01                	li	s6,0
    8000002c:	4b81                	li	s7,0
    8000002e:	4c01                	li	s8,0
    80000030:	4c81                	li	s9,0
    80000032:	4d01                	li	s10,0
    80000034:	4d81                	li	s11,0
    80000036:	4e01                	li	t3,0
    80000038:	4e81                	li	t4,0
    8000003a:	4f01                	li	t5,0
    8000003c:	4f81                	li	t6,0
    8000003e:	62f9                	lui	t0,0x1e
    80000040:	3002a073          	csrs	mstatus,t0
    80000044:	4285                	li	t0,1
    80000046:	02fe                	slli	t0,t0,0x1f
    80000048:	0002d863          	bgez	t0,80000058 <_start+0x58>
    8000004c:	4505                	li	a0,1
    8000004e:	00001297          	auipc	t0,0x1
    80000052:	faa2a923          	sw	a0,-78(t0) # 80001000 <tohost>
    80000056:	bfdd                	j	8000004c <_start+0x4c>
    80000058:	00000297          	auipc	t0,0x0
    8000005c:	09028293          	addi	t0,t0,144 # 800000e8 <_start+0xe8>
    80000060:	30529073          	csrw	mtvec,t0
    80000064:	00301073          	fscsr	zero
    80000068:	f0000053          	fmv.w.x	ft0,zero
    8000006c:	f00000d3          	fmv.w.x	ft1,zero
    80000070:	f0000153          	fmv.w.x	ft2,zero
    80000074:	f00001d3          	fmv.w.x	ft3,zero
    80000078:	f0000253          	fmv.w.x	ft4,zero
    8000007c:	f00002d3          	fmv.w.x	ft5,zero
    80000080:	f0000353          	fmv.w.x	ft6,zero
    80000084:	f00003d3          	fmv.w.x	ft7,zero
    80000088:	f0000453          	fmv.w.x	fs0,zero
    8000008c:	f00004d3          	fmv.w.x	fs1,zero
    80000090:	f0000553          	fmv.w.x	fa0,zero
    80000094:	f00005d3          	fmv.w.x	fa1,zero
    80000098:	f0000653          	fmv.w.x	fa2,zero
    8000009c:	f00006d3          	fmv.w.x	fa3,zero
    800000a0:	f0000753          	fmv.w.x	fa4,zero
    800000a4:	f00007d3          	fmv.w.x	fa5,zero
    800000a8:	f0000853          	fmv.w.x	fa6,zero
    800000ac:	f00008d3          	fmv.w.x	fa7,zero
    800000b0:	f0000953          	fmv.w.x	fs2,zero
    800000b4:	f00009d3          	fmv.w.x	fs3,zero
    800000b8:	f0000a53          	fmv.w.x	fs4,zero
    800000bc:	f0000ad3          	fmv.w.x	fs5,zero
    800000c0:	f0000b53          	fmv.w.x	fs6,zero
    800000c4:	f0000bd3          	fmv.w.x	fs7,zero
    800000c8:	f0000c53          	fmv.w.x	fs8,zero
    800000cc:	f0000cd3          	fmv.w.x	fs9,zero
    800000d0:	f0000d53          	fmv.w.x	fs10,zero
    800000d4:	f0000dd3          	fmv.w.x	fs11,zero
    800000d8:	f0000e53          	fmv.w.x	ft8,zero
    800000dc:	f0000ed3          	fmv.w.x	ft9,zero
    800000e0:	f0000f53          	fmv.w.x	ft10,zero
    800000e4:	f0000fd3          	fmv.w.x	ft11,zero
    800000e8:	00000297          	auipc	t0,0x0
    800000ec:	03828293          	addi	t0,t0,56 # 80000120 <trap_entry>
    800000f0:	30529073          	csrw	mtvec,t0
    800000f4:	0000f197          	auipc	gp,0xf
    800000f8:	c8418193          	addi	gp,gp,-892 # 8000ed78 <__global_pointer$>
    800000fc:	88718213          	addi	tp,gp,-1913 # 8000e5ff <_end+0x3f>
    80000100:	fc027213          	andi	tp,tp,-64
    80000104:	f1402573          	csrr	a0,mhartid
    80000108:	4585                	li	a1,1
    8000010a:	00b57063          	bgeu	a0,a1,8000010a <_start+0x10a>
    8000010e:	00150113          	addi	sp,a0,1
    80000112:	0146                	slli	sp,sp,0x11
    80000114:	9112                	add	sp,sp,tp
    80000116:	01151613          	slli	a2,a0,0x11
    8000011a:	9232                	add	tp,tp,a2
    8000011c:	77f0d06f          	j	8000e09a <_init>

0000000080000120 <trap_entry>:
    80000120:	716d                	addi	sp,sp,-272
    80000122:	e406                	sd	ra,8(sp)
    80000124:	e80a                	sd	sp,16(sp)
    80000126:	ec0e                	sd	gp,24(sp)
    80000128:	f012                	sd	tp,32(sp)
    8000012a:	f416                	sd	t0,40(sp)
    8000012c:	f81a                	sd	t1,48(sp)
    8000012e:	fc1e                	sd	t2,56(sp)
    80000130:	e0a2                	sd	s0,64(sp)
    80000132:	e4a6                	sd	s1,72(sp)
    80000134:	e8aa                	sd	a0,80(sp)
    80000136:	ecae                	sd	a1,88(sp)
    80000138:	f0b2                	sd	a2,96(sp)
    8000013a:	f4b6                	sd	a3,104(sp)
    8000013c:	f8ba                	sd	a4,112(sp)
    8000013e:	fcbe                	sd	a5,120(sp)
    80000140:	e142                	sd	a6,128(sp)
    80000142:	e546                	sd	a7,136(sp)
    80000144:	e94a                	sd	s2,144(sp)
    80000146:	ed4e                	sd	s3,152(sp)
    80000148:	f152                	sd	s4,160(sp)
    8000014a:	f556                	sd	s5,168(sp)
    8000014c:	f95a                	sd	s6,176(sp)
    8000014e:	fd5e                	sd	s7,184(sp)
    80000150:	e1e2                	sd	s8,192(sp)
    80000152:	e5e6                	sd	s9,200(sp)
    80000154:	e9ea                	sd	s10,208(sp)
    80000156:	edee                	sd	s11,216(sp)
    80000158:	f1f2                	sd	t3,224(sp)
    8000015a:	f5f6                	sd	t4,232(sp)
    8000015c:	f9fa                	sd	t5,240(sp)
    8000015e:	fdfe                	sd	t6,248(sp)
    80000160:	34202573          	csrr	a0,mcause
    80000164:	341025f3          	csrr	a1,mepc
    80000168:	860a                	mv	a2,sp
    8000016a:	5690d0ef          	jal	8000ded2 <handle_trap>
    8000016e:	34151073          	csrw	mepc,a0
    80000172:	6289                	lui	t0,0x2
    80000174:	8002829b          	addiw	t0,t0,-2048 # 1800 <buflen.1+0x17c0>
    80000178:	3002a073          	csrs	mstatus,t0
    8000017c:	60a2                	ld	ra,8(sp)
    8000017e:	6142                	ld	sp,16(sp)
    80000180:	61e2                	ld	gp,24(sp)
    80000182:	7202                	ld	tp,32(sp)
    80000184:	72a2                	ld	t0,40(sp)
    80000186:	7342                	ld	t1,48(sp)
    80000188:	73e2                	ld	t2,56(sp)
    8000018a:	6406                	ld	s0,64(sp)
    8000018c:	64a6                	ld	s1,72(sp)
    8000018e:	6546                	ld	a0,80(sp)
    80000190:	65e6                	ld	a1,88(sp)
    80000192:	7606                	ld	a2,96(sp)
    80000194:	76a6                	ld	a3,104(sp)
    80000196:	7746                	ld	a4,112(sp)
    80000198:	77e6                	ld	a5,120(sp)
    8000019a:	680a                	ld	a6,128(sp)
    8000019c:	68aa                	ld	a7,136(sp)
    8000019e:	694a                	ld	s2,144(sp)
    800001a0:	69ea                	ld	s3,152(sp)
    800001a2:	7a0a                	ld	s4,160(sp)
    800001a4:	7aaa                	ld	s5,168(sp)
    800001a6:	7b4a                	ld	s6,176(sp)
    800001a8:	7bea                	ld	s7,184(sp)
    800001aa:	6c0e                	ld	s8,192(sp)
    800001ac:	6cae                	ld	s9,200(sp)
    800001ae:	6d4e                	ld	s10,208(sp)
    800001b0:	6dee                	ld	s11,216(sp)
    800001b2:	7e0e                	ld	t3,224(sp)
    800001b4:	7eae                	ld	t4,232(sp)
    800001b6:	7f4e                	ld	t5,240(sp)
    800001b8:	7fee                	ld	t6,248(sp)
    800001ba:	6151                	addi	sp,sp,272
    800001bc:	30200073          	mret
    800001c0:	0000                	unimp

Disassembly of section .text:

0000000080002000 <d2ull>:
    80002000:	e2050553          	fmv.x.d	a0,fa0
    80002004:	8082                	ret

0000000080002006 <ull2d>:
    80002006:	f2050553          	fmv.d.x	fa0,a0
    8000200a:	8082                	ret

000000008000200c <svd_core>:
    8000200c:	81010113          	addi	sp,sp,-2032
    80002010:	7e113423          	sd	ra,2024(sp)
    80002014:	7e813023          	sd	s0,2016(sp)
    80002018:	7c913c23          	sd	s1,2008(sp)
    8000201c:	7d213823          	sd	s2,2000(sp)
    80002020:	7d313423          	sd	s3,1992(sp)
    80002024:	7d413023          	sd	s4,1984(sp)
    80002028:	7b513c23          	sd	s5,1976(sp)
    8000202c:	7b613823          	sd	s6,1968(sp)
    80002030:	7b713423          	sd	s7,1960(sp)
    80002034:	7b813023          	sd	s8,1952(sp)
    80002038:	79913c23          	sd	s9,1944(sp)
    8000203c:	79a13823          	sd	s10,1936(sp)
    80002040:	79b13423          	sd	s11,1928(sp)
    80002044:	78813027          	fsd	fs0,1920(sp)
    80002048:	76913c27          	fsd	fs1,1912(sp)
    8000204c:	77213827          	fsd	fs2,1904(sp)
    80002050:	77313427          	fsd	fs3,1896(sp)
    80002054:	77413027          	fsd	fs4,1888(sp)
    80002058:	6721                	lui	a4,0x8
    8000205a:	d607071b          	addiw	a4,a4,-672 # 7d60 <buflen.1+0x7d20>
    8000205e:	40e10133          	sub	sp,sp,a4
    80002062:	e82e                	sd	a1,16(sp)
    80002064:	fcaa                	sd	a0,120(sp)
    80002066:	00d04463          	bgtz	a3,8000206e <svd_core+0x62>
    8000206a:	0e70b06f          	j	8000d950 <svd_core+0xb944>
    8000206e:	4b81                	li	s7,0
    80002070:	4281                	li	t0,0
    80002072:	4561                	li	a0,24
    80002074:	02a60533          	mul	a0,a2,a0
    80002078:	00167593          	andi	a1,a2,1
    8000207c:	f0ae                	sd	a1,96(sp)
    8000207e:	ffe67e13          	andi	t3,a2,-2
    80002082:	4c010913          	addi	s2,sp,1216
    80002086:	00a90cb3          	add	s9,s2,a0
    8000208a:	00661313          	slli	t1,a2,0x6
    8000208e:	00561813          	slli	a6,a2,0x5
    80002092:	00461593          	slli	a1,a2,0x4
    80002096:	00b90b33          	add	s6,s2,a1
    8000209a:	7766                	ld	a4,120(sp)
    8000209c:	0741                	addi	a4,a4,16
    8000209e:	00469f13          	slli	t5,a3,0x4
    800020a2:	f8b2                	sd	a2,112(sp)
    800020a4:	060e                	slli	a2,a2,0x3
    800020a6:	00c90ab3          	add	s5,s2,a2
    800020aa:	4c810e93          	addi	t4,sp,1224
    800020ae:	00ae8d33          	add	s10,t4,a0
    800020b2:	00be80b3          	add	ra,t4,a1
    800020b6:	f936                	sd	a3,176(sp)
    800020b8:	00369513          	slli	a0,a3,0x3
    800020bc:	f12a                	sd	a0,160(sp)
    800020be:	00a70fb3          	add	t6,a4,a0
    800020c2:	fd32                	sd	a2,184(sp)
    800020c4:	00ce8a33          	add	s4,t4,a2
    800020c8:	863a                	mv	a2,a4
    800020ca:	4589                	li	a1,2
    800020cc:	83d6                	mv	t2,s5
    800020ce:	f55a                	sd	s6,168(sp)
    800020d0:	4c010c13          	addi	s8,sp,1216
    800020d4:	ed66                	sd	s9,152(sp)
    800020d6:	ec9a                	sd	t1,88(sp)
    800020d8:	a01d                	j	800020fe <svd_core+0xf2>
    800020da:	02a1                	addi	t0,t0,8
    800020dc:	9b9a                	add	s7,s7,t1
    800020de:	04060613          	addi	a2,a2,64
    800020e2:	040f8f93          	addi	t6,t6,64
    800020e6:	656a                	ld	a0,152(sp)
    800020e8:	951a                	add	a0,a0,t1
    800020ea:	ed2a                	sd	a0,152(sp)
    800020ec:	9c1a                	add	s8,s8,t1
    800020ee:	752a                	ld	a0,168(sp)
    800020f0:	951a                	add	a0,a0,t1
    800020f2:	f52a                	sd	a0,168(sp)
    800020f4:	05a1                	addi	a1,a1,8
    800020f6:	939a                	add	t2,t2,t1
    800020f8:	754a                	ld	a0,176(sp)
    800020fa:	16a2f863          	bgeu	t0,a0,8000226a <svd_core+0x25e>
    800020fe:	7546                	ld	a0,112(sp)
    80002100:	fca05de3          	blez	a0,800020da <svd_core+0xce>
    80002104:	754a                	ld	a0,176(sp)
    80002106:	405504bb          	subw	s1,a0,t0
    8000210a:	4521                	li	a0,8
    8000210c:	00a4c363          	blt	s1,a0,80002112 <svd_core+0x106>
    80002110:	44a1                	li	s1,8
    80002112:	754a                	ld	a0,176(sp)
    80002114:	40550db3          	sub	s11,a0,t0
    80002118:	7546                	ld	a0,112(sp)
    8000211a:	4685                	li	a3,1
    8000211c:	00d51463          	bne	a0,a3,80002124 <svd_core+0x118>
    80002120:	4981                	li	s3,0
    80002122:	a8e1                	j	800021fa <svd_core+0x1ee>
    80002124:	f4ae                	sd	a1,104(sp)
    80002126:	e916                	sd	t0,144(sp)
    80002128:	4981                	li	s3,0
    8000212a:	4501                	li	a0,0
    8000212c:	e17e                	sd	t6,128(sp)
    8000212e:	e532                	sd	a2,136(sp)
    80002130:	8332                	mv	t1,a2
    80002132:	82de                	mv	t0,s7
    80002134:	a801                	j	80002144 <svd_core+0x138>
    80002136:	0989                	addi	s3,s3,2
    80002138:	2509                	addiw	a0,a0,2
    8000213a:	02c1                	addi	t0,t0,16
    8000213c:	937a                	add	t1,t1,t5
    8000213e:	9ffa                	add	t6,t6,t5
    80002140:	0bc50563          	beq	a0,t3,800021ea <svd_core+0x1de>
    80002144:	ffb059e3          	blez	s11,80002136 <svd_core+0x12a>
    80002148:	4881                	li	a7,0
    8000214a:	871a                	mv	a4,t1
    8000214c:	8796                	mv	a5,t0
    8000214e:	ff073583          	ld	a1,-16(a4)
    80002152:	00f90633          	add	a2,s2,a5
    80002156:	00188693          	addi	a3,a7,1
    8000215a:	e20c                	sd	a1,0(a2)
    8000215c:	0296dd63          	bge	a3,s1,80002196 <svd_core+0x18a>
    80002160:	ff873583          	ld	a1,-8(a4)
    80002164:	00fa8633          	add	a2,s5,a5
    80002168:	00288693          	addi	a3,a7,2
    8000216c:	e20c                	sd	a1,0(a2)
    8000216e:	0296d463          	bge	a3,s1,80002196 <svd_core+0x18a>
    80002172:	630c                	ld	a1,0(a4)
    80002174:	00fb0633          	add	a2,s6,a5
    80002178:	00388693          	addi	a3,a7,3
    8000217c:	e20c                	sd	a1,0(a2)
    8000217e:	0096dc63          	bge	a3,s1,80002196 <svd_core+0x18a>
    80002182:	670c                	ld	a1,8(a4)
    80002184:	00fc8633          	add	a2,s9,a5
    80002188:	e20c                	sd	a1,0(a2)
    8000218a:	0891                	addi	a7,a7,4
    8000218c:	97c2                	add	a5,a5,a6
    8000218e:	02070713          	addi	a4,a4,32
    80002192:	fa98cee3          	blt	a7,s1,8000214e <svd_core+0x142>
    80002196:	fbb050e3          	blez	s11,80002136 <svd_core+0x12a>
    8000219a:	4701                	li	a4,0
    8000219c:	87fe                	mv	a5,t6
    8000219e:	8416                	mv	s0,t0
    800021a0:	ff07b583          	ld	a1,-16(a5)
    800021a4:	008e8633          	add	a2,t4,s0
    800021a8:	00170693          	addi	a3,a4,1
    800021ac:	e20c                	sd	a1,0(a2)
    800021ae:	f896d4e3          	bge	a3,s1,80002136 <svd_core+0x12a>
    800021b2:	ff87b583          	ld	a1,-8(a5)
    800021b6:	008a0633          	add	a2,s4,s0
    800021ba:	00270693          	addi	a3,a4,2
    800021be:	e20c                	sd	a1,0(a2)
    800021c0:	f696dbe3          	bge	a3,s1,80002136 <svd_core+0x12a>
    800021c4:	638c                	ld	a1,0(a5)
    800021c6:	00808633          	add	a2,ra,s0
    800021ca:	00370693          	addi	a3,a4,3
    800021ce:	e20c                	sd	a1,0(a2)
    800021d0:	f696d3e3          	bge	a3,s1,80002136 <svd_core+0x12a>
    800021d4:	678c                	ld	a1,8(a5)
    800021d6:	008d0633          	add	a2,s10,s0
    800021da:	e20c                	sd	a1,0(a2)
    800021dc:	0711                	addi	a4,a4,4
    800021de:	9442                	add	s0,s0,a6
    800021e0:	02078793          	addi	a5,a5,32
    800021e4:	fa974ee3          	blt	a4,s1,800021a0 <svd_core+0x194>
    800021e8:	b7b9                	j	80002136 <svd_core+0x12a>
    800021ea:	62ca                	ld	t0,144(sp)
    800021ec:	7506                	ld	a0,96(sp)
    800021ee:	6366                	ld	t1,88(sp)
    800021f0:	662a                	ld	a2,136(sp)
    800021f2:	6f8a                	ld	t6,128(sp)
    800021f4:	75a6                	ld	a1,104(sp)
    800021f6:	ee0502e3          	beqz	a0,800020da <svd_core+0xce>
    800021fa:	efb050e3          	blez	s11,800020da <svd_core+0xce>
    800021fe:	754a                	ld	a0,176(sp)
    80002200:	02a98733          	mul	a4,s3,a0
    80002204:	4501                	li	a0,0
    80002206:	00399693          	slli	a3,s3,0x3
    8000220a:	972e                	add	a4,a4,a1
    8000220c:	070e                	slli	a4,a4,0x3
    8000220e:	87ae                	mv	a5,a1
    80002210:	75e6                	ld	a1,120(sp)
    80002212:	972e                	add	a4,a4,a1
    80002214:	85be                	mv	a1,a5
    80002216:	ff073883          	ld	a7,-16(a4)
    8000221a:	00dc0433          	add	s0,s8,a3
    8000221e:	00150793          	addi	a5,a0,1
    80002222:	01143023          	sd	a7,0(s0)
    80002226:	ea97dae3          	bge	a5,s1,800020da <svd_core+0xce>
    8000222a:	ff873883          	ld	a7,-8(a4)
    8000222e:	00d38433          	add	s0,t2,a3
    80002232:	00250793          	addi	a5,a0,2
    80002236:	01143023          	sd	a7,0(s0)
    8000223a:	ea97d0e3          	bge	a5,s1,800020da <svd_core+0xce>
    8000223e:	00073883          	ld	a7,0(a4)
    80002242:	77aa                	ld	a5,168(sp)
    80002244:	00d78433          	add	s0,a5,a3
    80002248:	00350793          	addi	a5,a0,3
    8000224c:	01143023          	sd	a7,0(s0)
    80002250:	e897d5e3          	bge	a5,s1,800020da <svd_core+0xce>
    80002254:	671c                	ld	a5,8(a4)
    80002256:	646a                	ld	s0,152(sp)
    80002258:	9436                	add	s0,s0,a3
    8000225a:	e01c                	sd	a5,0(s0)
    8000225c:	0511                	addi	a0,a0,4
    8000225e:	96c2                	add	a3,a3,a6
    80002260:	02070713          	addi	a4,a4,32
    80002264:	fa9549e3          	blt	a0,s1,80002216 <svd_core+0x20a>
    80002268:	bd8d                	j	800020da <svd_core+0xce>
    8000226a:	774a                	ld	a4,176(sp)
    8000226c:	7c46                	ld	s8,112(sp)
    8000226e:	00e04463          	bgtz	a4,80002276 <svd_core+0x26a>
    80002272:	6de0b06f          	j	8000d950 <svd_core+0xb944>
    80002276:	ec02                	sd	zero,24(sp)
    80002278:	557d                	li	a0,-1
    8000227a:	02055d13          	srli	s10,a0,0x20
    8000227e:	ff87051b          	addiw	a0,a4,-8
    80002282:	f0aa                	sd	a0,96(sp)
    80002284:	0035551b          	srliw	a0,a0,0x3
    80002288:	0505                	addi	a0,a0,1
    8000228a:	fffc059b          	addiw	a1,s8,-1
    8000228e:	f82e                	sd	a1,48(sp)
    80002290:	0035d59b          	srliw	a1,a1,0x3
    80002294:	0585                	addi	a1,a1,1
    80002296:	ff8c061b          	addiw	a2,s8,-8
    8000229a:	e132                	sd	a2,128(sp)
    8000229c:	0036561b          	srliw	a2,a2,0x3
    800022a0:	0605                	addi	a2,a2,1
    800022a2:	020c1693          	slli	a3,s8,0x20
    800022a6:	9281                	srli	a3,a3,0x20
    800022a8:	ed36                	sd	a3,152(sp)
    800022aa:	00157693          	andi	a3,a0,1
    800022ae:	ecb6                	sd	a3,88(sp)
    800022b0:	9979                	andi	a0,a0,-2
    800022b2:	e4aa                	sd	a0,72(sp)
    800022b4:	0015f513          	andi	a0,a1,1
    800022b8:	f42a                	sd	a0,40(sp)
    800022ba:	ffe5f513          	andi	a0,a1,-2
    800022be:	e8aa                	sd	a0,80(sp)
    800022c0:	00167b93          	andi	s7,a2,1
    800022c4:	ffe67513          	andi	a0,a2,-2
    800022c8:	f52a                	sd	a0,168(sp)
    800022ca:	7566                	ld	a0,120(sp)
    800022cc:	04050513          	addi	a0,a0,64
    800022d0:	e0aa                	sd	a0,64(sp)
    800022d2:	40e007b3          	neg	a5,a4
    800022d6:	41800533          	neg	a0,s8
    800022da:	e52a                	sd	a0,136(sp)
    800022dc:	2c010c93          	addi	s9,sp,704
    800022e0:	3ff00513          	li	a0,1023
    800022e4:	1552                	slli	a0,a0,0x34
    800022e6:	e42a                	sd	a0,8(sp)
    800022e8:	4d85                	li	s11,1
    800022ea:	f2000453          	fmv.d.x	fs0,zero
    800022ee:	0c010a93          	addi	s5,sp,192
    800022f2:	4a09                	li	s4,2
    800022f4:	4b0d                	li	s6,3
    800022f6:	e95e                	sd	s7,144(sp)
    800022f8:	f4be                	sd	a5,104(sp)
    800022fa:	0588                	addi	a0,sp,704
    800022fc:	20000613          	li	a2,512
    80002300:	4581                	li	a1,0
    80002302:	0000c097          	auipc	ra,0xc
    80002306:	d48080e7          	jalr	-696(ra) # 8000e04a <memset>
    8000230a:	0d88                	addi	a0,sp,720
    8000230c:	75ca                	ld	a1,176(sp)
    8000230e:	6622                	ld	a2,8(sp)
    80002310:	fec53823          	sd	a2,-16(a0)
    80002314:	01b58e63          	beq	a1,s11,80002330 <svd_core+0x324>
    80002318:	fec53c23          	sd	a2,-8(a0)
    8000231c:	01458a63          	beq	a1,s4,80002330 <svd_core+0x324>
    80002320:	e110                	sd	a2,0(a0)
    80002322:	01658763          	beq	a1,s6,80002330 <svd_core+0x324>
    80002326:	e510                	sd	a2,8(a0)
    80002328:	15f1                	addi	a1,a1,-4
    8000232a:	02050513          	addi	a0,a0,32
    8000232e:	f1ed                	bnez	a1,80002310 <svd_core+0x304>
    80002330:	4501                	li	a0,0
    80002332:	22840a53          	fmv.d	fs4,fs0
    80002336:	f02a                	sd	a0,32(sp)
    80002338:	0188                	addi	a0,sp,192
    8000233a:	20000613          	li	a2,512
    8000233e:	4581                	li	a1,0
    80002340:	0000c097          	auipc	ra,0xc
    80002344:	d0a080e7          	jalr	-758(ra) # 8000e04a <memset>
    80002348:	45a1                	li	a1,8
    8000234a:	77a6                	ld	a5,104(sp)
    8000234c:	73ca                	ld	t2,176(sp)
    8000234e:	22840953          	fmv.d	fs2,fs0
    80002352:	43805c63          	blez	s8,8000278a <svd_core+0x77e>
    80002356:	4881                	li	a7,0
    80002358:	4809                	li	a6,2
    8000235a:	6906                	ld	s2,64(sp)
    8000235c:	a829                	j	80002376 <svd_core+0x36a>
    8000235e:	00389513          	slli	a0,a7,0x3
    80002362:	9556                	add	a0,a0,s5
    80002364:	00053027          	fsd	ft0,0(a0)
    80002368:	0885                	addi	a7,a7,1
    8000236a:	750a                	ld	a0,160(sp)
    8000236c:	992a                	add	s2,s2,a0
    8000236e:	981e                	add	a6,a6,t2
    80002370:	656a                	ld	a0,152(sp)
    80002372:	26a88463          	beq	a7,a0,800025da <svd_core+0x5ce>
    80002376:	00b3ed63          	bltu	t2,a1,80002390 <svd_core+0x384>
    8000237a:	7506                	ld	a0,96(sp)
    8000237c:	00b57e63          	bgeu	a0,a1,80002398 <svd_core+0x38c>
    80002380:	4281                	li	t0,0
    80002382:	4b9d                	li	s7,7
    80002384:	22840053          	fmv.d	ft0,fs0
    80002388:	6566                	ld	a0,88(sp)
    8000238a:	10051763          	bnez	a0,80002498 <svd_core+0x48c>
    8000238e:	aa75                	j	8000254a <svd_core+0x53e>
    80002390:	4281                	li	t0,0
    80002392:	22840053          	fmv.d	ft0,fs0
    80002396:	aa55                	j	8000254a <svd_core+0x53e>
    80002398:	4281                	li	t0,0
    8000239a:	4701                	li	a4,0
    8000239c:	061c                	addi	a5,sp,768
    8000239e:	864a                	mv	a2,s2
    800023a0:	22840053          	fmv.d	ft0,fs0
    800023a4:	69a6                	ld	s3,72(sp)
    800023a6:	fc063303          	ld	t1,-64(a2)
    800023aa:	fc863e03          	ld	t3,-56(a2)
    800023ae:	fd063383          	ld	t2,-48(a2)
    800023b2:	fd863f03          	ld	t5,-40(a2)
    800023b6:	fe063e83          	ld	t4,-32(a2)
    800023ba:	fe863a03          	ld	s4,-24(a2)
    800023be:	ff063f83          	ld	t6,-16(a2)
    800023c2:	ff863b03          	ld	s6,-8(a2)
    800023c6:	fc07bb83          	ld	s7,-64(a5)
    800023ca:	fc87bd83          	ld	s11,-56(a5)
    800023ce:	fd07bc83          	ld	s9,-48(a5)
    800023d2:	fd87b483          	ld	s1,-40(a5)
    800023d6:	fe07b083          	ld	ra,-32(a5)
    800023da:	fe87b683          	ld	a3,-24(a5)
    800023de:	ff07b503          	ld	a0,-16(a5)
    800023e2:	ff87b403          	ld	s0,-8(a5)
    800023e6:	01c3058b          	.insn	4, 0x01c3058b
    800023ea:	21e3858b          	.insn	4, 0x21e3858b
    800023ee:	414e858b          	.insn	4, 0x414e858b
    800023f2:	616f858b          	.insn	4, 0x616f858b
    800023f6:	81bb858b          	.insn	4, 0x81bb858b
    800023fa:	a09c858b          	.insn	4, 0xa09c858b
    800023fe:	c0d0858b          	.insn	4, 0xc0d0858b
    80002402:	1c85037b          	.insn	4, 0x1c85037b
    80002406:	00063383          	ld	t2,0(a2)
    8000240a:	00863e03          	ld	t3,8(a2)
    8000240e:	01063e83          	ld	t4,16(a2)
    80002412:	01863f83          	ld	t6,24(a2)
    80002416:	02063f03          	ld	t5,32(a2)
    8000241a:	02863a03          	ld	s4,40(a2)
    8000241e:	03063b03          	ld	s6,48(a2)
    80002422:	03863c83          	ld	s9,56(a2)
    80002426:	0007bb83          	ld	s7,0(a5)
    8000242a:	0087b083          	ld	ra,8(a5)
    8000242e:	0107bd83          	ld	s11,16(a5)
    80002432:	6f94                	ld	a3,24(a5)
    80002434:	0207bc03          	ld	s8,32(a5)
    80002438:	7784                	ld	s1,40(a5)
    8000243a:	7b8c                	ld	a1,48(a5)
    8000243c:	7f80                	ld	s0,56(a5)
    8000243e:	f20300d3          	fmv.d.x	ft1,t1
    80002442:	09c3850b          	.insn	4, 0x09c3850b
    80002446:	29fe850b          	.insn	4, 0x29fe850b
    8000244a:	494f050b          	.insn	4, 0x494f050b
    8000244e:	699b050b          	.insn	4, 0x699b050b
    80002452:	881b850b          	.insn	4, 0x881b850b
    80002456:	a8dd850b          	.insn	4, 0xa8dd850b
    8000245a:	c89c050b          	.insn	4, 0xc89c050b
    8000245e:	9c85857b          	.insn	4, 0x9c85857b
    80002462:	02107053          	fadd.d	ft0,ft0,ft1
    80002466:	f20500d3          	fmv.d.x	ft1,a0
    8000246a:	02107053          	fadd.d	ft0,ft0,ft1
    8000246e:	02c1                	addi	t0,t0,16
    80002470:	2709                	addiw	a4,a4,2
    80002472:	08060613          	addi	a2,a2,128
    80002476:	08078793          	addi	a5,a5,128
    8000247a:	f33716e3          	bne	a4,s3,800023a6 <svd_core+0x39a>
    8000247e:	00728b93          	addi	s7,t0,7
    80002482:	73ca                	ld	t2,176(sp)
    80002484:	7c46                	ld	s8,112(sp)
    80002486:	77a6                	ld	a5,104(sp)
    80002488:	2c010c93          	addi	s9,sp,704
    8000248c:	4d85                	li	s11,1
    8000248e:	45a1                	li	a1,8
    80002490:	4a09                	li	s4,2
    80002492:	4b0d                	li	s6,3
    80002494:	6566                	ld	a0,88(sp)
    80002496:	c955                	beqz	a0,8000254a <svd_core+0x53e>
    80002498:	02788733          	mul	a4,a7,t2
    8000249c:	9716                	add	a4,a4,t0
    8000249e:	070e                	slli	a4,a4,0x3
    800024a0:	7566                	ld	a0,120(sp)
    800024a2:	972a                	add	a4,a4,a0
    800024a4:	630c                	ld	a1,0(a4)
    800024a6:	6714                	ld	a3,8(a4)
    800024a8:	6b08                	ld	a0,16(a4)
    800024aa:	01873383          	ld	t2,24(a4)
    800024ae:	02073303          	ld	t1,32(a4)
    800024b2:	02873e83          	ld	t4,40(a4)
    800024b6:	03073e03          	ld	t3,48(a4)
    800024ba:	03873f03          	ld	t5,56(a4)
    800024be:	00329793          	slli	a5,t0,0x3
    800024c2:	00fc8733          	add	a4,s9,a5
    800024c6:	00073f83          	ld	t6,0(a4)
    800024ca:	0087e713          	ori	a4,a5,8
    800024ce:	9766                	add	a4,a4,s9
    800024d0:	00073083          	ld	ra,0(a4)
    800024d4:	0107e713          	ori	a4,a5,16
    800024d8:	9766                	add	a4,a4,s9
    800024da:	0580                	addi	s0,sp,704
    800024dc:	00073c83          	ld	s9,0(a4)
    800024e0:	0187ed93          	ori	s11,a5,24
    800024e4:	01b40733          	add	a4,s0,s11
    800024e8:	00073d83          	ld	s11,0(a4)
    800024ec:	0207e613          	ori	a2,a5,32
    800024f0:	9622                	add	a2,a2,s0
    800024f2:	00063a03          	ld	s4,0(a2)
    800024f6:	0287e713          	ori	a4,a5,40
    800024fa:	9722                	add	a4,a4,s0
    800024fc:	00073b03          	ld	s6,0(a4)
    80002500:	0307e793          	ori	a5,a5,48
    80002504:	97a2                	add	a5,a5,s0
    80002506:	639c                	ld	a5,0(a5)
    80002508:	003b9613          	slli	a2,s7,0x3
    8000250c:	9622                	add	a2,a2,s0
    8000250e:	6210                	ld	a2,0(a2)
    80002510:	00d5870b          	.insn	4, 0x00d5870b
    80002514:	2075070b          	.insn	4, 0x2075070b
    80002518:	41d3070b          	.insn	4, 0x41d3070b
    8000251c:	61ee070b          	.insn	4, 0x61ee070b
    80002520:	801f870b          	.insn	4, 0x801f870b
    80002524:	45a1                	li	a1,8
    80002526:	73ca                	ld	t2,176(sp)
    80002528:	a1bc870b          	.insn	4, 0xa1bc870b
    8000252c:	4d85                	li	s11,1
    8000252e:	2c010c93          	addi	s9,sp,704
    80002532:	c16a070b          	.insn	4, 0xc16a070b
    80002536:	4b0d                	li	s6,3
    80002538:	4a09                	li	s4,2
    8000253a:	1cc7867b          	.insn	4, 0x1cc7867b
    8000253e:	77a6                	ld	a5,104(sp)
    80002540:	f20600d3          	fmv.d.x	ft1,a2
    80002544:	02107053          	fadd.d	ft0,ft0,ft1
    80002548:	02a1                	addi	t0,t0,8
    8000254a:	0002869b          	sext.w	a3,t0
    8000254e:	e076d8e3          	bge	a3,t2,8000235e <svd_core+0x352>
    80002552:	00368613          	addi	a2,a3,3
    80002556:	96c2                	add	a3,a3,a6
    80002558:	068e                	slli	a3,a3,0x3
    8000255a:	7566                	ld	a0,120(sp)
    8000255c:	96aa                	add	a3,a3,a0
    8000255e:	ffd60513          	addi	a0,a2,-3
    80002562:	ff06b087          	fld	ft1,-16(a3)
    80002566:	01a57533          	and	a0,a0,s10
    8000256a:	050e                	slli	a0,a0,0x3
    8000256c:	9566                	add	a0,a0,s9
    8000256e:	00053107          	fld	ft2,0(a0)
    80002572:	0220f043          	fmadd.d	ft0,ft1,ft2,ft0
    80002576:	00c78733          	add	a4,a5,a2
    8000257a:	df4702e3          	beq	a4,s4,8000235e <svd_core+0x352>
    8000257e:	ffe60513          	addi	a0,a2,-2
    80002582:	ff86b087          	fld	ft1,-8(a3)
    80002586:	01a57533          	and	a0,a0,s10
    8000258a:	050e                	slli	a0,a0,0x3
    8000258c:	9566                	add	a0,a0,s9
    8000258e:	00053107          	fld	ft2,0(a0)
    80002592:	0220f043          	fmadd.d	ft0,ft1,ft2,ft0
    80002596:	ddb704e3          	beq	a4,s11,8000235e <svd_core+0x352>
    8000259a:	fff60513          	addi	a0,a2,-1
    8000259e:	0006b087          	fld	ft1,0(a3)
    800025a2:	01a57533          	and	a0,a0,s10
    800025a6:	050e                	slli	a0,a0,0x3
    800025a8:	9566                	add	a0,a0,s9
    800025aa:	00053107          	fld	ft2,0(a0)
    800025ae:	0220f043          	fmadd.d	ft0,ft1,ft2,ft0
    800025b2:	da0706e3          	beqz	a4,8000235e <svd_core+0x352>
    800025b6:	0086b087          	fld	ft1,8(a3)
    800025ba:	01a67533          	and	a0,a2,s10
    800025be:	050e                	slli	a0,a0,0x3
    800025c0:	9566                	add	a0,a0,s9
    800025c2:	00053107          	fld	ft2,0(a0)
    800025c6:	0220f043          	fmadd.d	ft0,ft1,ft2,ft0
    800025ca:	0611                	addi	a2,a2,4
    800025cc:	00c78533          	add	a0,a5,a2
    800025d0:	02068693          	addi	a3,a3,32
    800025d4:	f96515e3          	bne	a0,s6,8000255e <svd_core+0x552>
    800025d8:	b359                	j	8000235e <svd_core+0x352>
    800025da:	22840953          	fmv.d	fs2,fs0
    800025de:	1b805663          	blez	s8,8000278a <svd_core+0x77e>
    800025e2:	7542                	ld	a0,48(sp)
    800025e4:	04b57463          	bgeu	a0,a1,8000262c <svd_core+0x620>
    800025e8:	4501                	li	a0,0
    800025ea:	22840953          	fmv.d	fs2,fs0
    800025ee:	75a2                	ld	a1,40(sp)
    800025f0:	18058d63          	beqz	a1,8000278a <svd_core+0x77e>
    800025f4:	40ac05bb          	subw	a1,s8,a0
    800025f8:	4621                	li	a2,8
    800025fa:	87ae                	mv	a5,a1
    800025fc:	00c5c363          	blt	a1,a2,80002602 <svd_core+0x5f6>
    80002600:	47a1                	li	a5,8
    80002602:	050e                	slli	a0,a0,0x3
    80002604:	14b05c63          	blez	a1,8000275c <svd_core+0x750>
    80002608:	00856593          	ori	a1,a0,8
    8000260c:	95d6                	add	a1,a1,s5
    8000260e:	0005b803          	ld	a6,0(a1)
    80002612:	1547c863          	blt	a5,s4,80002762 <svd_core+0x756>
    80002616:	01056593          	ori	a1,a0,16
    8000261a:	95d6                	add	a1,a1,s5
    8000261c:	6190                	ld	a2,0(a1)
    8000261e:	01478463          	beq	a5,s4,80002626 <svd_core+0x61a>
    80002622:	32b0506f          	j	8000814c <svd_core+0x6140>
    80002626:	4481                	li	s1,0
    80002628:	4701                	li	a4,0
    8000262a:	aa3d                	j	80002768 <svd_core+0x75c>
    8000262c:	4501                	li	a0,0
    8000262e:	4581                	li	a1,0
    80002630:	0210                	addi	a2,sp,256
    80002632:	22840953          	fmv.d	fs2,fs0
    80002636:	40ac073b          	subw	a4,s8,a0
    8000263a:	47a1                	li	a5,8
    8000263c:	86ba                	mv	a3,a4
    8000263e:	00f74363          	blt	a4,a5,80002644 <svd_core+0x638>
    80002642:	46a1                	li	a3,8
    80002644:	00e05e63          	blez	a4,80002660 <svd_core+0x654>
    80002648:	fc863903          	ld	s2,-56(a2)
    8000264c:	479d                	li	a5,7
    8000264e:	0146cd63          	blt	a3,s4,80002668 <svd_core+0x65c>
    80002652:	fd063983          	ld	s3,-48(a2)
    80002656:	0b469163          	bne	a3,s4,800026f8 <svd_core+0x6ec>
    8000265a:	4381                	li	t2,0
    8000265c:	4301                	li	t1,0
    8000265e:	a801                	j	8000266e <svd_core+0x662>
    80002660:	4901                	li	s2,0
    80002662:	479d                	li	a5,7
    80002664:	ff46d7e3          	bge	a3,s4,80002652 <svd_core+0x646>
    80002668:	4381                	li	t2,0
    8000266a:	4301                	li	t1,0
    8000266c:	4981                	li	s3,0
    8000266e:	4b81                	li	s7,0
    80002670:	4e01                	li	t3,0
    80002672:	4e81                	li	t4,0
    80002674:	40ac06bb          	subw	a3,s8,a0
    80002678:	36e1                	addiw	a3,a3,-8
    8000267a:	4721                	li	a4,8
    8000267c:	88b6                	mv	a7,a3
    8000267e:	00e6c363          	blt	a3,a4,80002684 <svd_core+0x678>
    80002682:	48a1                	li	a7,8
    80002684:	00d05563          	blez	a3,8000268e <svd_core+0x682>
    80002688:	00863f03          	ld	t5,8(a2)
    8000268c:	a011                	j	80002690 <svd_core+0x684>
    8000268e:	4f01                	li	t5,0
    80002690:	fc063083          	ld	ra,-64(a2)
    80002694:	00063f83          	ld	t6,0(a2)
    80002698:	0148c963          	blt	a7,s4,800026aa <svd_core+0x69e>
    8000269c:	01063283          	ld	t0,16(a2)
    800026a0:	07489763          	bne	a7,s4,8000270e <svd_core+0x702>
    800026a4:	4701                	li	a4,0
    800026a6:	4681                	li	a3,0
    800026a8:	a021                	j	800026b0 <svd_core+0x6a4>
    800026aa:	4701                	li	a4,0
    800026ac:	4681                	li	a3,0
    800026ae:	4281                	li	t0,0
    800026b0:	4481                	li	s1,0
    800026b2:	4801                	li	a6,0
    800026b4:	4781                	li	a5,0
    800026b6:	65d3840b          	.insn	4, 0x65d3840b
    800026ba:	45c3040b          	.insn	4, 0x45c3040b
    800026be:	2579840b          	.insn	4, 0x2579840b
    800026c2:	4120847b          	.insn	4, 0x4120847b
    800026c6:	f2040053          	fmv.d.x	ft0,s0
    800026ca:	6cf7070b          	.insn	4, 0x6cf7070b
    800026ce:	4d06868b          	.insn	4, 0x4d06868b
    800026d2:	2c92868b          	.insn	4, 0x2c92868b
    800026d6:	c1ef86fb          	.insn	4, 0xc1ef86fb
    800026da:	02097053          	fadd.d	ft0,fs2,ft0
    800026de:	f20680d3          	fmv.d.x	ft1,a3
    800026e2:	02107953          	fadd.d	fs2,ft0,ft1
    800026e6:	0541                	addi	a0,a0,16
    800026e8:	2589                	addiw	a1,a1,2
    800026ea:	08060613          	addi	a2,a2,128
    800026ee:	73ca                	ld	t2,176(sp)
    800026f0:	66c6                	ld	a3,80(sp)
    800026f2:	f4d592e3          	bne	a1,a3,80002636 <svd_core+0x62a>
    800026f6:	bde5                	j	800025ee <svd_core+0x5e2>
    800026f8:	fd863b83          	ld	s7,-40(a2)
    800026fc:	4715                	li	a4,5
    800026fe:	02e6e163          	bltu	a3,a4,80002720 <svd_core+0x714>
    80002702:	fe063303          	ld	t1,-32(a2)
    80002706:	02e69363          	bne	a3,a4,8000272c <svd_core+0x720>
    8000270a:	4381                	li	t2,0
    8000270c:	b795                	j	80002670 <svd_core+0x664>
    8000270e:	6e04                	ld	s1,24(a2)
    80002710:	4715                	li	a4,5
    80002712:	00e8ea63          	bltu	a7,a4,80002726 <svd_core+0x71a>
    80002716:	7214                	ld	a3,32(a2)
    80002718:	02e89563          	bne	a7,a4,80002742 <svd_core+0x736>
    8000271c:	4701                	li	a4,0
    8000271e:	bf51                	j	800026b2 <svd_core+0x6a6>
    80002720:	4381                	li	t2,0
    80002722:	4301                	li	t1,0
    80002724:	b7b1                	j	80002670 <svd_core+0x664>
    80002726:	4701                	li	a4,0
    80002728:	4681                	li	a3,0
    8000272a:	b761                	j	800026b2 <svd_core+0x6a6>
    8000272c:	fe863e03          	ld	t3,-24(a2)
    80002730:	02f6e263          	bltu	a3,a5,80002754 <svd_core+0x748>
    80002734:	ff063383          	ld	t2,-16(a2)
    80002738:	f2f68de3          	beq	a3,a5,80002672 <svd_core+0x666>
    8000273c:	ff863e83          	ld	t4,-8(a2)
    80002740:	bf15                	j	80002674 <svd_core+0x668>
    80002742:	02863803          	ld	a6,40(a2)
    80002746:	00f8e963          	bltu	a7,a5,80002758 <svd_core+0x74c>
    8000274a:	7a18                	ld	a4,48(a2)
    8000274c:	f6f884e3          	beq	a7,a5,800026b4 <svd_core+0x6a8>
    80002750:	7e1c                	ld	a5,56(a2)
    80002752:	b795                	j	800026b6 <svd_core+0x6aa>
    80002754:	4381                	li	t2,0
    80002756:	bf31                	j	80002672 <svd_core+0x666>
    80002758:	4701                	li	a4,0
    8000275a:	bfa9                	j	800026b4 <svd_core+0x6a8>
    8000275c:	4801                	li	a6,0
    8000275e:	eb47dce3          	bge	a5,s4,80002616 <svd_core+0x60a>
    80002762:	4481                	li	s1,0
    80002764:	4701                	li	a4,0
    80002766:	4601                	li	a2,0
    80002768:	4681                	li	a3,0
    8000276a:	4581                	li	a1,0
    8000276c:	4781                	li	a5,0
    8000276e:	9556                	add	a0,a0,s5
    80002770:	6108                	ld	a0,0(a0)
    80002772:	64f4878b          	.insn	4, 0x64f4878b
    80002776:	44b7058b          	.insn	4, 0x44b7058b
    8000277a:	24d6058b          	.insn	4, 0x24d6058b
    8000277e:	4105057b          	.insn	4, 0x4105057b
    80002782:	f2050053          	fmv.d.x	ft0,a0
    80002786:	02097953          	fadd.d	fs2,fs2,ft0
    8000278a:	0b497053          	fsub.d	ft0,fs2,fs4
    8000278e:	a2801553          	flt.d	a0,ft0,fs0
    80002792:	c119                	beqz	a0,80002798 <svd_core+0x78c>
    80002794:	22001053          	fneg.d	ft0,ft0
    80002798:	65aa                	ld	a1,136(sp)
    8000279a:	0000c517          	auipc	a0,0xc
    8000279e:	dde50513          	addi	a0,a0,-546 # 8000e578 <strtol+0x298>
    800027a2:	2104                	fld	fs1,0(a0)
    800027a4:	a2901553          	flt.d	a0,ft0,fs1
    800027a8:	c119                	beqz	a0,800027ae <svd_core+0x7a2>
    800027aa:	1880b06f          	j	8000d932 <svd_core+0xb926>
    800027ae:	4081                	li	ra,0
    800027b0:	4d89                	li	s11,2
    800027b2:	50010c93          	addi	s9,sp,1280
    800027b6:	a005                	j	800027d6 <svd_core+0x7ca>
    800027b8:	1b207053          	fdiv.d	ft0,ft0,fs2
    800027bc:	00309513          	slli	a0,ra,0x3
    800027c0:	0590                	addi	a2,sp,704
    800027c2:	9532                	add	a0,a0,a2
    800027c4:	00053027          	fsd	ft0,0(a0)
    800027c8:	0085                	addi	ra,ra,1
    800027ca:	756a                	ld	a0,184(sp)
    800027cc:	9caa                	add	s9,s9,a0
    800027ce:	9de2                	add	s11,s11,s8
    800027d0:	754a                	ld	a0,176(sp)
    800027d2:	26a08063          	beq	ra,a0,80002a32 <svd_core+0xa26>
    800027d6:	4621                	li	a2,8
    800027d8:	00cc4d63          	blt	s8,a2,800027f2 <svd_core+0x7e6>
    800027dc:	650a                	ld	a0,128(sp)
    800027de:	02c57263          	bgeu	a0,a2,80002802 <svd_core+0x7f6>
    800027e2:	4981                	li	s3,0
    800027e4:	4b1d                	li	s6,7
    800027e6:	22840053          	fmv.d	ft0,fs0
    800027ea:	654a                	ld	a0,144(sp)
    800027ec:	10051463          	bnez	a0,800028f4 <svd_core+0x8e8>
    800027f0:	a275                	j	8000299c <svd_core+0x990>
    800027f2:	4981                	li	s3,0
    800027f4:	22840053          	fmv.d	ft0,fs0
    800027f8:	0009869b          	sext.w	a3,s3
    800027fc:	1b86c563          	blt	a3,s8,800029a6 <svd_core+0x99a>
    80002800:	bf65                	j	800027b8 <svd_core+0x7ac>
    80002802:	4981                	li	s3,0
    80002804:	4701                	li	a4,0
    80002806:	021c                	addi	a5,sp,256
    80002808:	8666                	mv	a2,s9
    8000280a:	22840053          	fmv.d	ft0,fs0
    8000280e:	fc063803          	ld	a6,-64(a2)
    80002812:	fc863283          	ld	t0,-56(a2)
    80002816:	fd063883          	ld	a7,-48(a2)
    8000281a:	fd863303          	ld	t1,-40(a2)
    8000281e:	fe063383          	ld	t2,-32(a2)
    80002822:	fe863e83          	ld	t4,-24(a2)
    80002826:	ff063e03          	ld	t3,-16(a2)
    8000282a:	ff863f83          	ld	t6,-8(a2)
    8000282e:	fc07bf03          	ld	t5,-64(a5)
    80002832:	fc87ba03          	ld	s4,-56(a5)
    80002836:	fd07b903          	ld	s2,-48(a5)
    8000283a:	fd87b403          	ld	s0,-40(a5)
    8000283e:	fe07bb03          	ld	s6,-32(a5)
    80002842:	fe87b483          	ld	s1,-24(a5)
    80002846:	ff07b583          	ld	a1,-16(a5)
    8000284a:	ff87b683          	ld	a3,-8(a5)
    8000284e:	0058050b          	.insn	4, 0x0058050b
    80002852:	2068850b          	.insn	4, 0x2068850b
    80002856:	41d3850b          	.insn	4, 0x41d3850b
    8000285a:	61fe050b          	.insn	4, 0x61fe050b
    8000285e:	814f050b          	.insn	4, 0x814f050b
    80002862:	a089050b          	.insn	4, 0xa089050b
    80002866:	c09b050b          	.insn	4, 0xc09b050b
    8000286a:	1cd5887b          	.insn	4, 0x1cd5887b
    8000286e:	00063883          	ld	a7,0(a2)
    80002872:	00863283          	ld	t0,8(a2)
    80002876:	01063303          	ld	t1,16(a2)
    8000287a:	01863e03          	ld	t3,24(a2)
    8000287e:	02063383          	ld	t2,32(a2)
    80002882:	02863e83          	ld	t4,40(a2)
    80002886:	03063f03          	ld	t5,48(a2)
    8000288a:	03863903          	ld	s2,56(a2)
    8000288e:	0007bf83          	ld	t6,0(a5)
    80002892:	0087bb03          	ld	s6,8(a5)
    80002896:	0107ba03          	ld	s4,16(a5)
    8000289a:	6f94                	ld	a3,24(a5)
    8000289c:	0207bb83          	ld	s7,32(a5)
    800028a0:	7784                	ld	s1,40(a5)
    800028a2:	7b8c                	ld	a1,48(a5)
    800028a4:	7f80                	ld	s0,56(a5)
    800028a6:	f20800d3          	fmv.d.x	ft1,a6
    800028aa:	0858850b          	.insn	4, 0x0858850b
    800028ae:	29c3050b          	.insn	4, 0x29c3050b
    800028b2:	49d3850b          	.insn	4, 0x49d3850b
    800028b6:	692f050b          	.insn	4, 0x692f050b
    800028ba:	896f850b          	.insn	4, 0x896f850b
    800028be:	a8da050b          	.insn	4, 0xa8da050b
    800028c2:	c89b850b          	.insn	4, 0xc89b850b
    800028c6:	9c85857b          	.insn	4, 0x9c85857b
    800028ca:	02107053          	fadd.d	ft0,ft0,ft1
    800028ce:	f20500d3          	fmv.d.x	ft1,a0
    800028d2:	02107053          	fadd.d	ft0,ft0,ft1
    800028d6:	09c1                	addi	s3,s3,16
    800028d8:	2709                	addiw	a4,a4,2
    800028da:	08060613          	addi	a2,a2,128
    800028de:	08078793          	addi	a5,a5,128
    800028e2:	752a                	ld	a0,168(sp)
    800028e4:	f2a715e3          	bne	a4,a0,8000280e <svd_core+0x802>
    800028e8:	00798b13          	addi	s6,s3,7
    800028ec:	65aa                	ld	a1,136(sp)
    800028ee:	4a09                	li	s4,2
    800028f0:	654a                	ld	a0,144(sp)
    800028f2:	c54d                	beqz	a0,8000299c <svd_core+0x990>
    800028f4:	03808733          	mul	a4,ra,s8
    800028f8:	974e                	add	a4,a4,s3
    800028fa:	070e                	slli	a4,a4,0x3
    800028fc:	4c010513          	addi	a0,sp,1216
    80002900:	972a                	add	a4,a4,a0
    80002902:	00073803          	ld	a6,0(a4)
    80002906:	00873283          	ld	t0,8(a4)
    8000290a:	01073883          	ld	a7,16(a4)
    8000290e:	01873303          	ld	t1,24(a4)
    80002912:	02073383          	ld	t2,32(a4)
    80002916:	02873e03          	ld	t3,40(a4)
    8000291a:	03073e83          	ld	t4,48(a4)
    8000291e:	03873f03          	ld	t5,56(a4)
    80002922:	00399793          	slli	a5,s3,0x3
    80002926:	00fa8433          	add	s0,s5,a5
    8000292a:	00043f83          	ld	t6,0(s0)
    8000292e:	0087e713          	ori	a4,a5,8
    80002932:	9756                	add	a4,a4,s5
    80002934:	00073903          	ld	s2,0(a4)
    80002938:	0107e413          	ori	s0,a5,16
    8000293c:	9456                	add	s0,s0,s5
    8000293e:	00043a03          	ld	s4,0(s0)
    80002942:	0187e713          	ori	a4,a5,24
    80002946:	9756                	add	a4,a4,s5
    80002948:	00073b83          	ld	s7,0(a4)
    8000294c:	0207e413          	ori	s0,a5,32
    80002950:	9456                	add	s0,s0,s5
    80002952:	00043c03          	ld	s8,0(s0)
    80002956:	0287e613          	ori	a2,a5,40
    8000295a:	9656                	add	a2,a2,s5
    8000295c:	6210                	ld	a2,0(a2)
    8000295e:	0307e793          	ori	a5,a5,48
    80002962:	97d6                	add	a5,a5,s5
    80002964:	639c                	ld	a5,0(a5)
    80002966:	003b1713          	slli	a4,s6,0x3
    8000296a:	9756                	add	a4,a4,s5
    8000296c:	6318                	ld	a4,0(a4)
    8000296e:	0058040b          	.insn	4, 0x0058040b
    80002972:	2068840b          	.insn	4, 0x2068840b
    80002976:	41c3840b          	.insn	4, 0x41c3840b
    8000297a:	61ee840b          	.insn	4, 0x61ee840b
    8000297e:	812f840b          	.insn	4, 0x812f840b
    80002982:	a17a040b          	.insn	4, 0xa17a040b
    80002986:	4a09                	li	s4,2
    80002988:	c0cc060b          	.insn	4, 0xc0cc060b
    8000298c:	7c46                	ld	s8,112(sp)
    8000298e:	1ce7867b          	.insn	4, 0x1ce7867b
    80002992:	f20600d3          	fmv.d.x	ft1,a2
    80002996:	02107053          	fadd.d	ft0,ft0,ft1
    8000299a:	09a1                	addi	s3,s3,8
    8000299c:	4b0d                	li	s6,3
    8000299e:	0009869b          	sext.w	a3,s3
    800029a2:	e186dbe3          	bge	a3,s8,800027b8 <svd_core+0x7ac>
    800029a6:	00368613          	addi	a2,a3,3
    800029aa:	96ee                	add	a3,a3,s11
    800029ac:	068e                	slli	a3,a3,0x3
    800029ae:	4c010513          	addi	a0,sp,1216
    800029b2:	96aa                	add	a3,a3,a0
    800029b4:	ffd60513          	addi	a0,a2,-3
    800029b8:	ff06b087          	fld	ft1,-16(a3)
    800029bc:	01a57533          	and	a0,a0,s10
    800029c0:	050e                	slli	a0,a0,0x3
    800029c2:	9556                	add	a0,a0,s5
    800029c4:	00053107          	fld	ft2,0(a0)
    800029c8:	0220f043          	fmadd.d	ft0,ft1,ft2,ft0
    800029cc:	00c58733          	add	a4,a1,a2
    800029d0:	df4704e3          	beq	a4,s4,800027b8 <svd_core+0x7ac>
    800029d4:	ffe60513          	addi	a0,a2,-2
    800029d8:	ff86b087          	fld	ft1,-8(a3)
    800029dc:	01a57533          	and	a0,a0,s10
    800029e0:	050e                	slli	a0,a0,0x3
    800029e2:	9556                	add	a0,a0,s5
    800029e4:	00053107          	fld	ft2,0(a0)
    800029e8:	0220f043          	fmadd.d	ft0,ft1,ft2,ft0
    800029ec:	4505                	li	a0,1
    800029ee:	dca705e3          	beq	a4,a0,800027b8 <svd_core+0x7ac>
    800029f2:	fff60513          	addi	a0,a2,-1
    800029f6:	0006b087          	fld	ft1,0(a3)
    800029fa:	01a57533          	and	a0,a0,s10
    800029fe:	050e                	slli	a0,a0,0x3
    80002a00:	9556                	add	a0,a0,s5
    80002a02:	00053107          	fld	ft2,0(a0)
    80002a06:	0220f043          	fmadd.d	ft0,ft1,ft2,ft0
    80002a0a:	da0707e3          	beqz	a4,800027b8 <svd_core+0x7ac>
    80002a0e:	0086b087          	fld	ft1,8(a3)
    80002a12:	01a67533          	and	a0,a2,s10
    80002a16:	050e                	slli	a0,a0,0x3
    80002a18:	9556                	add	a0,a0,s5
    80002a1a:	00053107          	fld	ft2,0(a0)
    80002a1e:	0220f043          	fmadd.d	ft0,ft1,ft2,ft0
    80002a22:	0611                	addi	a2,a2,4
    80002a24:	00c58533          	add	a0,a1,a2
    80002a28:	02068693          	addi	a3,a3,32
    80002a2c:	f96514e3          	bne	a0,s6,800029b4 <svd_core+0x9a8>
    80002a30:	b361                	j	800027b8 <svd_core+0x7ac>
    80002a32:	0188                	addi	a0,sp,192
    80002a34:	20000613          	li	a2,512
    80002a38:	4581                	li	a1,0
    80002a3a:	0000b097          	auipc	ra,0xb
    80002a3e:	610080e7          	jalr	1552(ra) # 8000e04a <memset>
    80002a42:	228409d3          	fmv.d	fs3,fs0
    80002a46:	73ca                	ld	t2,176(sp)
    80002a48:	6bca                	ld	s7,144(sp)
    80002a4a:	77a6                	ld	a5,104(sp)
    80002a4c:	2c010c93          	addi	s9,sp,704
    80002a50:	4d85                	li	s11,1
    80002a52:	40a1                	li	ra,8
    80002a54:	43805a63          	blez	s8,80002e88 <svd_core+0xe7c>
    80002a58:	4281                	li	t0,0
    80002a5a:	4889                	li	a7,2
    80002a5c:	6806                	ld	a6,64(sp)
    80002a5e:	a829                	j	80002a78 <svd_core+0xa6c>
    80002a60:	00329513          	slli	a0,t0,0x3
    80002a64:	9556                	add	a0,a0,s5
    80002a66:	00053027          	fsd	ft0,0(a0)
    80002a6a:	0285                	addi	t0,t0,1
    80002a6c:	750a                	ld	a0,160(sp)
    80002a6e:	982a                	add	a6,a6,a0
    80002a70:	989e                	add	a7,a7,t2
    80002a72:	656a                	ld	a0,152(sp)
    80002a74:	26a28063          	beq	t0,a0,80002cd4 <svd_core+0xcc8>
    80002a78:	0013ed63          	bltu	t2,ra,80002a92 <svd_core+0xa86>
    80002a7c:	7506                	ld	a0,96(sp)
    80002a7e:	00157e63          	bgeu	a0,ra,80002a9a <svd_core+0xa8e>
    80002a82:	4301                	li	t1,0
    80002a84:	461d                	li	a2,7
    80002a86:	22840053          	fmv.d	ft0,fs0
    80002a8a:	6566                	ld	a0,88(sp)
    80002a8c:	10051863          	bnez	a0,80002b9c <svd_core+0xb90>
    80002a90:	aa45                	j	80002c40 <svd_core+0xc34>
    80002a92:	4301                	li	t1,0
    80002a94:	22840053          	fmv.d	ft0,fs0
    80002a98:	a265                	j	80002c40 <svd_core+0xc34>
    80002a9a:	4301                	li	t1,0
    80002a9c:	4701                	li	a4,0
    80002a9e:	061c                	addi	a5,sp,768
    80002aa0:	8642                	mv	a2,a6
    80002aa2:	22840053          	fmv.d	ft0,fs0
    80002aa6:	60a6                	ld	ra,72(sp)
    80002aa8:	fc063383          	ld	t2,-64(a2)
    80002aac:	fc863e83          	ld	t4,-56(a2)
    80002ab0:	fd063e03          	ld	t3,-48(a2)
    80002ab4:	fd863f03          	ld	t5,-40(a2)
    80002ab8:	fe063f83          	ld	t6,-32(a2)
    80002abc:	fe863983          	ld	s3,-24(a2)
    80002ac0:	ff063903          	ld	s2,-16(a2)
    80002ac4:	ff863b03          	ld	s6,-8(a2)
    80002ac8:	fc07ba03          	ld	s4,-64(a5)
    80002acc:	fc87bc03          	ld	s8,-56(a5)
    80002ad0:	fd07bb83          	ld	s7,-48(a5)
    80002ad4:	fd87b403          	ld	s0,-40(a5)
    80002ad8:	fe07bc83          	ld	s9,-32(a5)
    80002adc:	fe87b483          	ld	s1,-24(a5)
    80002ae0:	ff07b583          	ld	a1,-16(a5)
    80002ae4:	ff87b683          	ld	a3,-8(a5)
    80002ae8:	01d3850b          	.insn	4, 0x01d3850b
    80002aec:	21ee050b          	.insn	4, 0x21ee050b
    80002af0:	413f850b          	.insn	4, 0x413f850b
    80002af4:	6169050b          	.insn	4, 0x6169050b
    80002af8:	818a050b          	.insn	4, 0x818a050b
    80002afc:	a08b850b          	.insn	4, 0xa08b850b
    80002b00:	c09c850b          	.insn	4, 0xc09c850b
    80002b04:	1cd583fb          	.insn	4, 0x1cd583fb
    80002b08:	00063e03          	ld	t3,0(a2)
    80002b0c:	00863e83          	ld	t4,8(a2)
    80002b10:	01063f03          	ld	t5,16(a2)
    80002b14:	01863903          	ld	s2,24(a2)
    80002b18:	02063f83          	ld	t6,32(a2)
    80002b1c:	02863983          	ld	s3,40(a2)
    80002b20:	03063a03          	ld	s4,48(a2)
    80002b24:	03863b83          	ld	s7,56(a2)
    80002b28:	0007bb03          	ld	s6,0(a5)
    80002b2c:	0087bc83          	ld	s9,8(a5)
    80002b30:	0107bc03          	ld	s8,16(a5)
    80002b34:	6f94                	ld	a3,24(a5)
    80002b36:	0207bd83          	ld	s11,32(a5)
    80002b3a:	7784                	ld	s1,40(a5)
    80002b3c:	7b8c                	ld	a1,48(a5)
    80002b3e:	7f80                	ld	s0,56(a5)
    80002b40:	f20380d3          	fmv.d.x	ft1,t2
    80002b44:	09de050b          	.insn	4, 0x09de050b
    80002b48:	292f050b          	.insn	4, 0x292f050b
    80002b4c:	493f850b          	.insn	4, 0x493f850b
    80002b50:	697a050b          	.insn	4, 0x697a050b
    80002b54:	899b050b          	.insn	4, 0x899b050b
    80002b58:	a8dc050b          	.insn	4, 0xa8dc050b
    80002b5c:	c89d850b          	.insn	4, 0xc89d850b
    80002b60:	9c85857b          	.insn	4, 0x9c85857b
    80002b64:	02107053          	fadd.d	ft0,ft0,ft1
    80002b68:	f20500d3          	fmv.d.x	ft1,a0
    80002b6c:	02107053          	fadd.d	ft0,ft0,ft1
    80002b70:	0341                	addi	t1,t1,16
    80002b72:	2709                	addiw	a4,a4,2
    80002b74:	08060613          	addi	a2,a2,128
    80002b78:	08078793          	addi	a5,a5,128
    80002b7c:	f21716e3          	bne	a4,ra,80002aa8 <svd_core+0xa9c>
    80002b80:	00730613          	addi	a2,t1,7
    80002b84:	7c46                	ld	s8,112(sp)
    80002b86:	6bca                	ld	s7,144(sp)
    80002b88:	77a6                	ld	a5,104(sp)
    80002b8a:	2c010c93          	addi	s9,sp,704
    80002b8e:	4d85                	li	s11,1
    80002b90:	40a1                	li	ra,8
    80002b92:	4a09                	li	s4,2
    80002b94:	4b0d                	li	s6,3
    80002b96:	73ca                	ld	t2,176(sp)
    80002b98:	6566                	ld	a0,88(sp)
    80002b9a:	c15d                	beqz	a0,80002c40 <svd_core+0xc34>
    80002b9c:	02728533          	mul	a0,t0,t2
    80002ba0:	951a                	add	a0,a0,t1
    80002ba2:	050e                	slli	a0,a0,0x3
    80002ba4:	75e6                	ld	a1,120(sp)
    80002ba6:	952e                	add	a0,a0,a1
    80002ba8:	610c                	ld	a1,0(a0)
    80002baa:	fc2e                	sd	a1,56(sp)
    80002bac:	83e2                	mv	t2,s8
    80002bae:	00853e03          	ld	t3,8(a0)
    80002bb2:	01053e83          	ld	t4,16(a0)
    80002bb6:	01853f03          	ld	t5,24(a0)
    80002bba:	02053f83          	ld	t6,32(a0)
    80002bbe:	02853983          	ld	s3,40(a0)
    80002bc2:	03053903          	ld	s2,48(a0)
    80002bc6:	03853a03          	ld	s4,56(a0)
    80002bca:	00331693          	slli	a3,t1,0x3
    80002bce:	00dc8733          	add	a4,s9,a3
    80002bd2:	00073b03          	ld	s6,0(a4)
    80002bd6:	0086e793          	ori	a5,a3,8
    80002bda:	97e6                	add	a5,a5,s9
    80002bdc:	639c                	ld	a5,0(a5)
    80002bde:	0106e493          	ori	s1,a3,16
    80002be2:	94e6                	add	s1,s1,s9
    80002be4:	6084                	ld	s1,0(s1)
    80002be6:	0186e593          	ori	a1,a3,24
    80002bea:	95e6                	add	a1,a1,s9
    80002bec:	618c                	ld	a1,0(a1)
    80002bee:	0206e413          	ori	s0,a3,32
    80002bf2:	9466                	add	s0,s0,s9
    80002bf4:	6000                	ld	s0,0(s0)
    80002bf6:	0286e513          	ori	a0,a3,40
    80002bfa:	9566                	add	a0,a0,s9
    80002bfc:	6108                	ld	a0,0(a0)
    80002bfe:	0306e693          	ori	a3,a3,48
    80002c02:	96e6                	add	a3,a3,s9
    80002c04:	6294                	ld	a3,0(a3)
    80002c06:	060e                	slli	a2,a2,0x3
    80002c08:	9666                	add	a2,a2,s9
    80002c0a:	6210                	ld	a2,0(a2)
    80002c0c:	7762                	ld	a4,56(sp)
    80002c0e:	01c7070b          	.insn	4, 0x01c7070b
    80002c12:	73ca                	ld	t2,176(sp)
    80002c14:	21ee870b          	.insn	4, 0x21ee870b
    80002c18:	413f870b          	.insn	4, 0x413f870b
    80002c1c:	6149070b          	.insn	4, 0x6149070b
    80002c20:	4a09                	li	s4,2
    80002c22:	80fb070b          	.insn	4, 0x80fb070b
    80002c26:	4b0d                	li	s6,3
    80002c28:	77a6                	ld	a5,104(sp)
    80002c2a:	a0b4858b          	.insn	4, 0xa0b4858b
    80002c2e:	c0a4050b          	.insn	4, 0xc0a4050b
    80002c32:	1cc6857b          	.insn	4, 0x1cc6857b
    80002c36:	f20500d3          	fmv.d.x	ft1,a0
    80002c3a:	02107053          	fadd.d	ft0,ft0,ft1
    80002c3e:	0321                	addi	t1,t1,8
    80002c40:	0003069b          	sext.w	a3,t1
    80002c44:	e076dee3          	bge	a3,t2,80002a60 <svd_core+0xa54>
    80002c48:	00368613          	addi	a2,a3,3
    80002c4c:	00d88533          	add	a0,a7,a3
    80002c50:	050e                	slli	a0,a0,0x3
    80002c52:	75e6                	ld	a1,120(sp)
    80002c54:	00a586b3          	add	a3,a1,a0
    80002c58:	ffd60513          	addi	a0,a2,-3
    80002c5c:	ff06b087          	fld	ft1,-16(a3)
    80002c60:	01a57533          	and	a0,a0,s10
    80002c64:	050e                	slli	a0,a0,0x3
    80002c66:	9566                	add	a0,a0,s9
    80002c68:	00053107          	fld	ft2,0(a0)
    80002c6c:	0220f043          	fmadd.d	ft0,ft1,ft2,ft0
    80002c70:	00c78733          	add	a4,a5,a2
    80002c74:	df4706e3          	beq	a4,s4,80002a60 <svd_core+0xa54>
    80002c78:	ffe60513          	addi	a0,a2,-2
    80002c7c:	ff86b087          	fld	ft1,-8(a3)
    80002c80:	01a57533          	and	a0,a0,s10
    80002c84:	050e                	slli	a0,a0,0x3
    80002c86:	9566                	add	a0,a0,s9
    80002c88:	00053107          	fld	ft2,0(a0)
    80002c8c:	0220f043          	fmadd.d	ft0,ft1,ft2,ft0
    80002c90:	ddb708e3          	beq	a4,s11,80002a60 <svd_core+0xa54>
    80002c94:	fff60513          	addi	a0,a2,-1
    80002c98:	0006b087          	fld	ft1,0(a3)
    80002c9c:	01a57533          	and	a0,a0,s10
    80002ca0:	050e                	slli	a0,a0,0x3
    80002ca2:	9566                	add	a0,a0,s9
    80002ca4:	00053107          	fld	ft2,0(a0)
    80002ca8:	0220f043          	fmadd.d	ft0,ft1,ft2,ft0
    80002cac:	da070ae3          	beqz	a4,80002a60 <svd_core+0xa54>
    80002cb0:	0086b087          	fld	ft1,8(a3)
    80002cb4:	01a67533          	and	a0,a2,s10
    80002cb8:	050e                	slli	a0,a0,0x3
    80002cba:	9566                	add	a0,a0,s9
    80002cbc:	00053107          	fld	ft2,0(a0)
    80002cc0:	0220f043          	fmadd.d	ft0,ft1,ft2,ft0
    80002cc4:	0611                	addi	a2,a2,4
    80002cc6:	00c78533          	add	a0,a5,a2
    80002cca:	02068693          	addi	a3,a3,32
    80002cce:	f96515e3          	bne	a0,s6,80002c58 <svd_core+0xc4c>
    80002cd2:	b379                	j	80002a60 <svd_core+0xa54>
    80002cd4:	228409d3          	fmv.d	fs3,fs0
    80002cd8:	1b805863          	blez	s8,80002e88 <svd_core+0xe7c>
    80002cdc:	7542                	ld	a0,48(sp)
    80002cde:	04157463          	bgeu	a0,ra,80002d26 <svd_core+0xd1a>
    80002ce2:	f20009d3          	fmv.d.x	fs3,zero
    80002ce6:	4501                	li	a0,0
    80002ce8:	75a2                	ld	a1,40(sp)
    80002cea:	18058f63          	beqz	a1,80002e88 <svd_core+0xe7c>
    80002cee:	40ac05bb          	subw	a1,s8,a0
    80002cf2:	4621                	li	a2,8
    80002cf4:	87ae                	mv	a5,a1
    80002cf6:	00c5c363          	blt	a1,a2,80002cfc <svd_core+0xcf0>
    80002cfa:	47a1                	li	a5,8
    80002cfc:	050e                	slli	a0,a0,0x3
    80002cfe:	14b05e63          	blez	a1,80002e5a <svd_core+0xe4e>
    80002d02:	00856593          	ori	a1,a0,8
    80002d06:	95d6                	add	a1,a1,s5
    80002d08:	0005b803          	ld	a6,0(a1)
    80002d0c:	1547ca63          	blt	a5,s4,80002e60 <svd_core+0xe54>
    80002d10:	01056593          	ori	a1,a0,16
    80002d14:	95d6                	add	a1,a1,s5
    80002d16:	6190                	ld	a2,0(a1)
    80002d18:	01478463          	beq	a5,s4,80002d20 <svd_core+0xd14>
    80002d1c:	3470506f          	j	80008862 <svd_core+0x6856>
    80002d20:	4481                	li	s1,0
    80002d22:	4701                	li	a4,0
    80002d24:	a289                	j	80002e66 <svd_core+0xe5a>
    80002d26:	4501                	li	a0,0
    80002d28:	4581                	li	a1,0
    80002d2a:	f20009d3          	fmv.d.x	fs3,zero
    80002d2e:	0210                	addi	a2,sp,256
    80002d30:	40ac073b          	subw	a4,s8,a0
    80002d34:	47a1                	li	a5,8
    80002d36:	86ba                	mv	a3,a4
    80002d38:	00f74363          	blt	a4,a5,80002d3e <svd_core+0xd32>
    80002d3c:	46a1                	li	a3,8
    80002d3e:	00e05e63          	blez	a4,80002d5a <svd_core+0xd4e>
    80002d42:	fc863903          	ld	s2,-56(a2)
    80002d46:	479d                	li	a5,7
    80002d48:	0146cd63          	blt	a3,s4,80002d62 <svd_core+0xd56>
    80002d4c:	fd063983          	ld	s3,-48(a2)
    80002d50:	0b469363          	bne	a3,s4,80002df6 <svd_core+0xdea>
    80002d54:	4381                	li	t2,0
    80002d56:	4301                	li	t1,0
    80002d58:	a801                	j	80002d68 <svd_core+0xd5c>
    80002d5a:	4901                	li	s2,0
    80002d5c:	479d                	li	a5,7
    80002d5e:	ff46d7e3          	bge	a3,s4,80002d4c <svd_core+0xd40>
    80002d62:	4381                	li	t2,0
    80002d64:	4301                	li	t1,0
    80002d66:	4981                	li	s3,0
    80002d68:	4b81                	li	s7,0
    80002d6a:	4e01                	li	t3,0
    80002d6c:	4e81                	li	t4,0
    80002d6e:	40ac06bb          	subw	a3,s8,a0
    80002d72:	36e1                	addiw	a3,a3,-8
    80002d74:	4721                	li	a4,8
    80002d76:	88b6                	mv	a7,a3
    80002d78:	00e6c363          	blt	a3,a4,80002d7e <svd_core+0xd72>
    80002d7c:	48a1                	li	a7,8
    80002d7e:	00d05563          	blez	a3,80002d88 <svd_core+0xd7c>
    80002d82:	00863f03          	ld	t5,8(a2)
    80002d86:	a011                	j	80002d8a <svd_core+0xd7e>
    80002d88:	4f01                	li	t5,0
    80002d8a:	fc063083          	ld	ra,-64(a2)
    80002d8e:	00063f83          	ld	t6,0(a2)
    80002d92:	0148c963          	blt	a7,s4,80002da4 <svd_core+0xd98>
    80002d96:	01063283          	ld	t0,16(a2)
    80002d9a:	07489963          	bne	a7,s4,80002e0c <svd_core+0xe00>
    80002d9e:	4701                	li	a4,0
    80002da0:	4681                	li	a3,0
    80002da2:	a021                	j	80002daa <svd_core+0xd9e>
    80002da4:	4701                	li	a4,0
    80002da6:	4681                	li	a3,0
    80002da8:	4281                	li	t0,0
    80002daa:	4481                	li	s1,0
    80002dac:	4801                	li	a6,0
    80002dae:	4781                	li	a5,0
    80002db0:	65d3840b          	.insn	4, 0x65d3840b
    80002db4:	45c3040b          	.insn	4, 0x45c3040b
    80002db8:	2579840b          	.insn	4, 0x2579840b
    80002dbc:	4120847b          	.insn	4, 0x4120847b
    80002dc0:	f2040053          	fmv.d.x	ft0,s0
    80002dc4:	6cf7070b          	.insn	4, 0x6cf7070b
    80002dc8:	4d06868b          	.insn	4, 0x4d06868b
    80002dcc:	2c92868b          	.insn	4, 0x2c92868b
    80002dd0:	c1ef86fb          	.insn	4, 0xc1ef86fb
    80002dd4:	0209f053          	fadd.d	ft0,fs3,ft0
    80002dd8:	f20680d3          	fmv.d.x	ft1,a3
    80002ddc:	021079d3          	fadd.d	fs3,ft0,ft1
    80002de0:	0541                	addi	a0,a0,16
    80002de2:	2589                	addiw	a1,a1,2
    80002de4:	08060613          	addi	a2,a2,128
    80002de8:	73ca                	ld	t2,176(sp)
    80002dea:	66c6                	ld	a3,80(sp)
    80002dec:	6bca                	ld	s7,144(sp)
    80002dee:	40a1                	li	ra,8
    80002df0:	f4d590e3          	bne	a1,a3,80002d30 <svd_core+0xd24>
    80002df4:	bdd5                	j	80002ce8 <svd_core+0xcdc>
    80002df6:	fd863b83          	ld	s7,-40(a2)
    80002dfa:	4715                	li	a4,5
    80002dfc:	02e6e163          	bltu	a3,a4,80002e1e <svd_core+0xe12>
    80002e00:	fe063303          	ld	t1,-32(a2)
    80002e04:	02e69363          	bne	a3,a4,80002e2a <svd_core+0xe1e>
    80002e08:	4381                	li	t2,0
    80002e0a:	b785                	j	80002d6a <svd_core+0xd5e>
    80002e0c:	6e04                	ld	s1,24(a2)
    80002e0e:	4715                	li	a4,5
    80002e10:	00e8ea63          	bltu	a7,a4,80002e24 <svd_core+0xe18>
    80002e14:	7214                	ld	a3,32(a2)
    80002e16:	02e89563          	bne	a7,a4,80002e40 <svd_core+0xe34>
    80002e1a:	4701                	li	a4,0
    80002e1c:	bf41                	j	80002dac <svd_core+0xda0>
    80002e1e:	4381                	li	t2,0
    80002e20:	4301                	li	t1,0
    80002e22:	b7a1                	j	80002d6a <svd_core+0xd5e>
    80002e24:	4701                	li	a4,0
    80002e26:	4681                	li	a3,0
    80002e28:	b751                	j	80002dac <svd_core+0xda0>
    80002e2a:	fe863e03          	ld	t3,-24(a2)
    80002e2e:	02f6e263          	bltu	a3,a5,80002e52 <svd_core+0xe46>
    80002e32:	ff063383          	ld	t2,-16(a2)
    80002e36:	f2f68be3          	beq	a3,a5,80002d6c <svd_core+0xd60>
    80002e3a:	ff863e83          	ld	t4,-8(a2)
    80002e3e:	bf05                	j	80002d6e <svd_core+0xd62>
    80002e40:	02863803          	ld	a6,40(a2)
    80002e44:	00f8e963          	bltu	a7,a5,80002e56 <svd_core+0xe4a>
    80002e48:	7a18                	ld	a4,48(a2)
    80002e4a:	f6f882e3          	beq	a7,a5,80002dae <svd_core+0xda2>
    80002e4e:	7e1c                	ld	a5,56(a2)
    80002e50:	b785                	j	80002db0 <svd_core+0xda4>
    80002e52:	4381                	li	t2,0
    80002e54:	bf21                	j	80002d6c <svd_core+0xd60>
    80002e56:	4701                	li	a4,0
    80002e58:	bf99                	j	80002dae <svd_core+0xda2>
    80002e5a:	4801                	li	a6,0
    80002e5c:	eb47dae3          	bge	a5,s4,80002d10 <svd_core+0xd04>
    80002e60:	4481                	li	s1,0
    80002e62:	4701                	li	a4,0
    80002e64:	4601                	li	a2,0
    80002e66:	4681                	li	a3,0
    80002e68:	4581                	li	a1,0
    80002e6a:	4781                	li	a5,0
    80002e6c:	9556                	add	a0,a0,s5
    80002e6e:	6108                	ld	a0,0(a0)
    80002e70:	64f4878b          	.insn	4, 0x64f4878b
    80002e74:	44b7058b          	.insn	4, 0x44b7058b
    80002e78:	24d6058b          	.insn	4, 0x24d6058b
    80002e7c:	4105057b          	.insn	4, 0x4105057b
    80002e80:	f2050053          	fmv.d.x	ft0,a0
    80002e84:	0209f9d3          	fadd.d	fs3,fs3,ft0
    80002e88:	0b29f053          	fsub.d	ft0,fs3,fs2
    80002e8c:	a2801553          	flt.d	a0,ft0,fs0
    80002e90:	c119                	beqz	a0,80002e96 <svd_core+0xe8a>
    80002e92:	22001053          	fneg.d	ft0,ft0
    80002e96:	65aa                	ld	a1,136(sp)
    80002e98:	a2901553          	flt.d	a0,ft0,fs1
    80002e9c:	23290a53          	fmv.d	fs4,fs2
    80002ea0:	c119                	beqz	a0,80002ea6 <svd_core+0xe9a>
    80002ea2:	2910a06f          	j	8000d932 <svd_core+0xb926>
    80002ea6:	4281                	li	t0,0
    80002ea8:	4889                	li	a7,2
    80002eaa:	50010813          	addi	a6,sp,1280
    80002eae:	a831                	j	80002eca <svd_core+0xebe>
    80002eb0:	1b307053          	fdiv.d	ft0,ft0,fs3
    80002eb4:	00329513          	slli	a0,t0,0x3
    80002eb8:	9566                	add	a0,a0,s9
    80002eba:	00053027          	fsd	ft0,0(a0)
    80002ebe:	0285                	addi	t0,t0,1
    80002ec0:	756a                	ld	a0,184(sp)
    80002ec2:	982a                	add	a6,a6,a0
    80002ec4:	98e2                	add	a7,a7,s8
    80002ec6:	24728f63          	beq	t0,t2,80003124 <svd_core+0x1118>
    80002eca:	001c4c63          	blt	s8,ra,80002ee2 <svd_core+0xed6>
    80002ece:	650a                	ld	a0,128(sp)
    80002ed0:	00157d63          	bgeu	a0,ra,80002eea <svd_core+0xede>
    80002ed4:	4301                	li	t1,0
    80002ed6:	f2000053          	fmv.d.x	ft0,zero
    80002eda:	461d                	li	a2,7
    80002edc:	100b9863          	bnez	s7,80002fec <svd_core+0xfe0>
    80002ee0:	aa45                	j	80003090 <svd_core+0x1084>
    80002ee2:	f2000053          	fmv.d.x	ft0,zero
    80002ee6:	4301                	li	t1,0
    80002ee8:	a265                	j	80003090 <svd_core+0x1084>
    80002eea:	4301                	li	t1,0
    80002eec:	4701                	li	a4,0
    80002eee:	f2000053          	fmv.d.x	ft0,zero
    80002ef2:	021c                	addi	a5,sp,256
    80002ef4:	8642                	mv	a2,a6
    80002ef6:	70aa                	ld	ra,168(sp)
    80002ef8:	fc063383          	ld	t2,-64(a2)
    80002efc:	fc863e83          	ld	t4,-56(a2)
    80002f00:	fd063e03          	ld	t3,-48(a2)
    80002f04:	fd863f03          	ld	t5,-40(a2)
    80002f08:	fe063f83          	ld	t6,-32(a2)
    80002f0c:	fe863983          	ld	s3,-24(a2)
    80002f10:	ff063903          	ld	s2,-16(a2)
    80002f14:	ff863b03          	ld	s6,-8(a2)
    80002f18:	fc07ba03          	ld	s4,-64(a5)
    80002f1c:	fc87bc03          	ld	s8,-56(a5)
    80002f20:	fd07bb83          	ld	s7,-48(a5)
    80002f24:	fd87b403          	ld	s0,-40(a5)
    80002f28:	fe07bc83          	ld	s9,-32(a5)
    80002f2c:	fe87b483          	ld	s1,-24(a5)
    80002f30:	ff07b583          	ld	a1,-16(a5)
    80002f34:	ff87b683          	ld	a3,-8(a5)
    80002f38:	01d3850b          	.insn	4, 0x01d3850b
    80002f3c:	21ee050b          	.insn	4, 0x21ee050b
    80002f40:	413f850b          	.insn	4, 0x413f850b
    80002f44:	6169050b          	.insn	4, 0x6169050b
    80002f48:	818a050b          	.insn	4, 0x818a050b
    80002f4c:	a08b850b          	.insn	4, 0xa08b850b
    80002f50:	c09c850b          	.insn	4, 0xc09c850b
    80002f54:	1cd583fb          	.insn	4, 0x1cd583fb
    80002f58:	00063e03          	ld	t3,0(a2)
    80002f5c:	00863e83          	ld	t4,8(a2)
    80002f60:	01063f03          	ld	t5,16(a2)
    80002f64:	01863903          	ld	s2,24(a2)
    80002f68:	02063f83          	ld	t6,32(a2)
    80002f6c:	02863983          	ld	s3,40(a2)
    80002f70:	03063a03          	ld	s4,48(a2)
    80002f74:	03863b83          	ld	s7,56(a2)
    80002f78:	0007bb03          	ld	s6,0(a5)
    80002f7c:	0087bc83          	ld	s9,8(a5)
    80002f80:	0107bc03          	ld	s8,16(a5)
    80002f84:	6f94                	ld	a3,24(a5)
    80002f86:	0207bd83          	ld	s11,32(a5)
    80002f8a:	7784                	ld	s1,40(a5)
    80002f8c:	7b8c                	ld	a1,48(a5)
    80002f8e:	7f80                	ld	s0,56(a5)
    80002f90:	f20380d3          	fmv.d.x	ft1,t2
    80002f94:	09de050b          	.insn	4, 0x09de050b
    80002f98:	292f050b          	.insn	4, 0x292f050b
    80002f9c:	493f850b          	.insn	4, 0x493f850b
    80002fa0:	697a050b          	.insn	4, 0x697a050b
    80002fa4:	899b050b          	.insn	4, 0x899b050b
    80002fa8:	a8dc050b          	.insn	4, 0xa8dc050b
    80002fac:	c89d850b          	.insn	4, 0xc89d850b
    80002fb0:	9c85857b          	.insn	4, 0x9c85857b
    80002fb4:	02107053          	fadd.d	ft0,ft0,ft1
    80002fb8:	f20500d3          	fmv.d.x	ft1,a0
    80002fbc:	02107053          	fadd.d	ft0,ft0,ft1
    80002fc0:	0341                	addi	t1,t1,16
    80002fc2:	2709                	addiw	a4,a4,2
    80002fc4:	08060613          	addi	a2,a2,128
    80002fc8:	08078793          	addi	a5,a5,128
    80002fcc:	f21716e3          	bne	a4,ra,80002ef8 <svd_core+0xeec>
    80002fd0:	00730613          	addi	a2,t1,7
    80002fd4:	7c46                	ld	s8,112(sp)
    80002fd6:	65aa                	ld	a1,136(sp)
    80002fd8:	2c010c93          	addi	s9,sp,704
    80002fdc:	4d85                	li	s11,1
    80002fde:	40a1                	li	ra,8
    80002fe0:	4a09                	li	s4,2
    80002fe2:	4b0d                	li	s6,3
    80002fe4:	73ca                	ld	t2,176(sp)
    80002fe6:	6bca                	ld	s7,144(sp)
    80002fe8:	0a0b8463          	beqz	s7,80003090 <svd_core+0x1084>
    80002fec:	03828533          	mul	a0,t0,s8
    80002ff0:	951a                	add	a0,a0,t1
    80002ff2:	050e                	slli	a0,a0,0x3
    80002ff4:	4c010593          	addi	a1,sp,1216
    80002ff8:	952e                	add	a0,a0,a1
    80002ffa:	00053383          	ld	t2,0(a0)
    80002ffe:	00853e03          	ld	t3,8(a0)
    80003002:	01053e83          	ld	t4,16(a0)
    80003006:	01853f03          	ld	t5,24(a0)
    8000300a:	02053f83          	ld	t6,32(a0)
    8000300e:	02853983          	ld	s3,40(a0)
    80003012:	03053903          	ld	s2,48(a0)
    80003016:	03853a03          	ld	s4,56(a0)
    8000301a:	00331693          	slli	a3,t1,0x3
    8000301e:	00da8733          	add	a4,s5,a3
    80003022:	00073b03          	ld	s6,0(a4)
    80003026:	0086e793          	ori	a5,a3,8
    8000302a:	97d6                	add	a5,a5,s5
    8000302c:	639c                	ld	a5,0(a5)
    8000302e:	0106e493          	ori	s1,a3,16
    80003032:	94d6                	add	s1,s1,s5
    80003034:	6084                	ld	s1,0(s1)
    80003036:	0186e593          	ori	a1,a3,24
    8000303a:	95d6                	add	a1,a1,s5
    8000303c:	618c                	ld	a1,0(a1)
    8000303e:	0206e413          	ori	s0,a3,32
    80003042:	9456                	add	s0,s0,s5
    80003044:	6000                	ld	s0,0(s0)
    80003046:	0286e513          	ori	a0,a3,40
    8000304a:	9556                	add	a0,a0,s5
    8000304c:	6108                	ld	a0,0(a0)
    8000304e:	0306e693          	ori	a3,a3,48
    80003052:	96d6                	add	a3,a3,s5
    80003054:	6294                	ld	a3,0(a3)
    80003056:	060e                	slli	a2,a2,0x3
    80003058:	9656                	add	a2,a2,s5
    8000305a:	6210                	ld	a2,0(a2)
    8000305c:	01c3870b          	.insn	4, 0x01c3870b
    80003060:	6bca                	ld	s7,144(sp)
    80003062:	73ca                	ld	t2,176(sp)
    80003064:	21ee870b          	.insn	4, 0x21ee870b
    80003068:	413f870b          	.insn	4, 0x413f870b
    8000306c:	6149070b          	.insn	4, 0x6149070b
    80003070:	4a09                	li	s4,2
    80003072:	80fb070b          	.insn	4, 0x80fb070b
    80003076:	4b0d                	li	s6,3
    80003078:	a0b4858b          	.insn	4, 0xa0b4858b
    8000307c:	65aa                	ld	a1,136(sp)
    8000307e:	c0a4050b          	.insn	4, 0xc0a4050b
    80003082:	1cc6857b          	.insn	4, 0x1cc6857b
    80003086:	f20500d3          	fmv.d.x	ft1,a0
    8000308a:	02107053          	fadd.d	ft0,ft0,ft1
    8000308e:	0321                	addi	t1,t1,8
    80003090:	0003069b          	sext.w	a3,t1
    80003094:	e186dee3          	bge	a3,s8,80002eb0 <svd_core+0xea4>
    80003098:	00368613          	addi	a2,a3,3
    8000309c:	00d88533          	add	a0,a7,a3
    800030a0:	050e                	slli	a0,a0,0x3
    800030a2:	4c010693          	addi	a3,sp,1216
    800030a6:	96aa                	add	a3,a3,a0
    800030a8:	ffd60513          	addi	a0,a2,-3
    800030ac:	ff06b087          	fld	ft1,-16(a3)
    800030b0:	01a57533          	and	a0,a0,s10
    800030b4:	050e                	slli	a0,a0,0x3
    800030b6:	9556                	add	a0,a0,s5
    800030b8:	00053107          	fld	ft2,0(a0)
    800030bc:	0220f043          	fmadd.d	ft0,ft1,ft2,ft0
    800030c0:	00c58733          	add	a4,a1,a2
    800030c4:	df4706e3          	beq	a4,s4,80002eb0 <svd_core+0xea4>
    800030c8:	ffe60513          	addi	a0,a2,-2
    800030cc:	ff86b087          	fld	ft1,-8(a3)
    800030d0:	01a57533          	and	a0,a0,s10
    800030d4:	050e                	slli	a0,a0,0x3
    800030d6:	9556                	add	a0,a0,s5
    800030d8:	00053107          	fld	ft2,0(a0)
    800030dc:	0220f043          	fmadd.d	ft0,ft1,ft2,ft0
    800030e0:	ddb708e3          	beq	a4,s11,80002eb0 <svd_core+0xea4>
    800030e4:	fff60513          	addi	a0,a2,-1
    800030e8:	0006b087          	fld	ft1,0(a3)
    800030ec:	01a57533          	and	a0,a0,s10
    800030f0:	050e                	slli	a0,a0,0x3
    800030f2:	9556                	add	a0,a0,s5
    800030f4:	00053107          	fld	ft2,0(a0)
    800030f8:	0220f043          	fmadd.d	ft0,ft1,ft2,ft0
    800030fc:	da070ae3          	beqz	a4,80002eb0 <svd_core+0xea4>
    80003100:	0086b087          	fld	ft1,8(a3)
    80003104:	01a67533          	and	a0,a2,s10
    80003108:	050e                	slli	a0,a0,0x3
    8000310a:	9556                	add	a0,a0,s5
    8000310c:	00053107          	fld	ft2,0(a0)
    80003110:	0220f043          	fmadd.d	ft0,ft1,ft2,ft0
    80003114:	0611                	addi	a2,a2,4
    80003116:	00c58533          	add	a0,a1,a2
    8000311a:	02068693          	addi	a3,a3,32
    8000311e:	f96515e3          	bne	a0,s6,800030a8 <svd_core+0x109c>
    80003122:	b379                	j	80002eb0 <svd_core+0xea4>
    80003124:	0188                	addi	a0,sp,192
    80003126:	20000613          	li	a2,512
    8000312a:	4581                	li	a1,0
    8000312c:	0000b097          	auipc	ra,0xb
    80003130:	f1e080e7          	jalr	-226(ra) # 8000e04a <memset>
    80003134:	40a1                	li	ra,8
    80003136:	73ca                	ld	t2,176(sp)
    80003138:	f2000053          	fmv.d.x	ft0,zero
    8000313c:	22000953          	fmv.d	fs2,ft0
    80003140:	77a6                	ld	a5,104(sp)
    80003142:	43805763          	blez	s8,80003570 <svd_core+0x1564>
    80003146:	4281                	li	t0,0
    80003148:	4889                	li	a7,2
    8000314a:	6806                	ld	a6,64(sp)
    8000314c:	a829                	j	80003166 <svd_core+0x115a>
    8000314e:	00329513          	slli	a0,t0,0x3
    80003152:	9556                	add	a0,a0,s5
    80003154:	00153027          	fsd	ft1,0(a0)
    80003158:	0285                	addi	t0,t0,1
    8000315a:	750a                	ld	a0,160(sp)
    8000315c:	982a                	add	a6,a6,a0
    8000315e:	989e                	add	a7,a7,t2
    80003160:	656a                	ld	a0,152(sp)
    80003162:	24a28d63          	beq	t0,a0,800033bc <svd_core+0x13b0>
    80003166:	0013ed63          	bltu	t2,ra,80003180 <svd_core+0x1174>
    8000316a:	7506                	ld	a0,96(sp)
    8000316c:	00157e63          	bgeu	a0,ra,80003188 <svd_core+0x117c>
    80003170:	4301                	li	t1,0
    80003172:	f20000d3          	fmv.d.x	ft1,zero
    80003176:	461d                	li	a2,7
    80003178:	6566                	ld	a0,88(sp)
    8000317a:	10051763          	bnez	a0,80003288 <svd_core+0x127c>
    8000317e:	a26d                	j	80003328 <svd_core+0x131c>
    80003180:	f20000d3          	fmv.d.x	ft1,zero
    80003184:	4301                	li	t1,0
    80003186:	a24d                	j	80003328 <svd_core+0x131c>
    80003188:	4301                	li	t1,0
    8000318a:	4701                	li	a4,0
    8000318c:	f20000d3          	fmv.d.x	ft1,zero
    80003190:	061c                	addi	a5,sp,768
    80003192:	8642                	mv	a2,a6
    80003194:	60a6                	ld	ra,72(sp)
    80003196:	fc063383          	ld	t2,-64(a2)
    8000319a:	fc863e83          	ld	t4,-56(a2)
    8000319e:	fd063e03          	ld	t3,-48(a2)
    800031a2:	fd863f03          	ld	t5,-40(a2)
    800031a6:	fe063f83          	ld	t6,-32(a2)
    800031aa:	fe863983          	ld	s3,-24(a2)
    800031ae:	ff063903          	ld	s2,-16(a2)
    800031b2:	ff863b03          	ld	s6,-8(a2)
    800031b6:	fc07ba03          	ld	s4,-64(a5)
    800031ba:	fc87bc03          	ld	s8,-56(a5)
    800031be:	fd07bb83          	ld	s7,-48(a5)
    800031c2:	fd87b403          	ld	s0,-40(a5)
    800031c6:	fe07bc83          	ld	s9,-32(a5)
    800031ca:	fe87b483          	ld	s1,-24(a5)
    800031ce:	ff07b583          	ld	a1,-16(a5)
    800031d2:	ff87b683          	ld	a3,-8(a5)
    800031d6:	01d3850b          	.insn	4, 0x01d3850b
    800031da:	21ee050b          	.insn	4, 0x21ee050b
    800031de:	413f850b          	.insn	4, 0x413f850b
    800031e2:	6169050b          	.insn	4, 0x6169050b
    800031e6:	818a050b          	.insn	4, 0x818a050b
    800031ea:	a08b850b          	.insn	4, 0xa08b850b
    800031ee:	c09c850b          	.insn	4, 0xc09c850b
    800031f2:	1cd583fb          	.insn	4, 0x1cd583fb
    800031f6:	00063e03          	ld	t3,0(a2)
    800031fa:	00863e83          	ld	t4,8(a2)
    800031fe:	01063f03          	ld	t5,16(a2)
    80003202:	01863903          	ld	s2,24(a2)
    80003206:	02063f83          	ld	t6,32(a2)
    8000320a:	02863983          	ld	s3,40(a2)
    8000320e:	03063a03          	ld	s4,48(a2)
    80003212:	03863b83          	ld	s7,56(a2)
    80003216:	0007bb03          	ld	s6,0(a5)
    8000321a:	0087bc83          	ld	s9,8(a5)
    8000321e:	0107bc03          	ld	s8,16(a5)
    80003222:	6f94                	ld	a3,24(a5)
    80003224:	0207bd83          	ld	s11,32(a5)
    80003228:	7784                	ld	s1,40(a5)
    8000322a:	7b8c                	ld	a1,48(a5)
    8000322c:	7f80                	ld	s0,56(a5)
    8000322e:	f2038153          	fmv.d.x	ft2,t2
    80003232:	09de050b          	.insn	4, 0x09de050b
    80003236:	292f050b          	.insn	4, 0x292f050b
    8000323a:	493f850b          	.insn	4, 0x493f850b
    8000323e:	697a050b          	.insn	4, 0x697a050b
    80003242:	899b050b          	.insn	4, 0x899b050b
    80003246:	a8dc050b          	.insn	4, 0xa8dc050b
    8000324a:	c89d850b          	.insn	4, 0xc89d850b
    8000324e:	9c85857b          	.insn	4, 0x9c85857b
    80003252:	0220f0d3          	fadd.d	ft1,ft1,ft2
    80003256:	f2050153          	fmv.d.x	ft2,a0
    8000325a:	0220f0d3          	fadd.d	ft1,ft1,ft2
    8000325e:	0341                	addi	t1,t1,16
    80003260:	2709                	addiw	a4,a4,2
    80003262:	08060613          	addi	a2,a2,128
    80003266:	08078793          	addi	a5,a5,128
    8000326a:	f21716e3          	bne	a4,ra,80003196 <svd_core+0x118a>
    8000326e:	00730613          	addi	a2,t1,7
    80003272:	7c46                	ld	s8,112(sp)
    80003274:	77a6                	ld	a5,104(sp)
    80003276:	2c010c93          	addi	s9,sp,704
    8000327a:	4d85                	li	s11,1
    8000327c:	40a1                	li	ra,8
    8000327e:	4a09                	li	s4,2
    80003280:	4b0d                	li	s6,3
    80003282:	73ca                	ld	t2,176(sp)
    80003284:	6566                	ld	a0,88(sp)
    80003286:	c14d                	beqz	a0,80003328 <svd_core+0x131c>
    80003288:	02728533          	mul	a0,t0,t2
    8000328c:	951a                	add	a0,a0,t1
    8000328e:	050e                	slli	a0,a0,0x3
    80003290:	75e6                	ld	a1,120(sp)
    80003292:	952e                	add	a0,a0,a1
    80003294:	00053383          	ld	t2,0(a0)
    80003298:	00853e03          	ld	t3,8(a0)
    8000329c:	01053e83          	ld	t4,16(a0)
    800032a0:	01853f03          	ld	t5,24(a0)
    800032a4:	02053f83          	ld	t6,32(a0)
    800032a8:	02853983          	ld	s3,40(a0)
    800032ac:	03053903          	ld	s2,48(a0)
    800032b0:	03853a03          	ld	s4,56(a0)
    800032b4:	00331693          	slli	a3,t1,0x3
    800032b8:	00dc8733          	add	a4,s9,a3
    800032bc:	00073b03          	ld	s6,0(a4)
    800032c0:	0086e793          	ori	a5,a3,8
    800032c4:	97e6                	add	a5,a5,s9
    800032c6:	639c                	ld	a5,0(a5)
    800032c8:	0106e493          	ori	s1,a3,16
    800032cc:	94e6                	add	s1,s1,s9
    800032ce:	6084                	ld	s1,0(s1)
    800032d0:	0186e593          	ori	a1,a3,24
    800032d4:	95e6                	add	a1,a1,s9
    800032d6:	618c                	ld	a1,0(a1)
    800032d8:	0206e413          	ori	s0,a3,32
    800032dc:	9466                	add	s0,s0,s9
    800032de:	6000                	ld	s0,0(s0)
    800032e0:	0286e513          	ori	a0,a3,40
    800032e4:	9566                	add	a0,a0,s9
    800032e6:	6108                	ld	a0,0(a0)
    800032e8:	0306e693          	ori	a3,a3,48
    800032ec:	96e6                	add	a3,a3,s9
    800032ee:	6294                	ld	a3,0(a3)
    800032f0:	060e                	slli	a2,a2,0x3
    800032f2:	9666                	add	a2,a2,s9
    800032f4:	6210                	ld	a2,0(a2)
    800032f6:	01c3870b          	.insn	4, 0x01c3870b
    800032fa:	73ca                	ld	t2,176(sp)
    800032fc:	21ee870b          	.insn	4, 0x21ee870b
    80003300:	413f870b          	.insn	4, 0x413f870b
    80003304:	6149070b          	.insn	4, 0x6149070b
    80003308:	4a09                	li	s4,2
    8000330a:	80fb070b          	.insn	4, 0x80fb070b
    8000330e:	4b0d                	li	s6,3
    80003310:	77a6                	ld	a5,104(sp)
    80003312:	a0b4858b          	.insn	4, 0xa0b4858b
    80003316:	c0a4050b          	.insn	4, 0xc0a4050b
    8000331a:	1cc6857b          	.insn	4, 0x1cc6857b
    8000331e:	f2050153          	fmv.d.x	ft2,a0
    80003322:	0220f0d3          	fadd.d	ft1,ft1,ft2
    80003326:	0321                	addi	t1,t1,8
    80003328:	0003069b          	sext.w	a3,t1
    8000332c:	e276d1e3          	bge	a3,t2,8000314e <svd_core+0x1142>
    80003330:	00368613          	addi	a2,a3,3
    80003334:	00d88533          	add	a0,a7,a3
    80003338:	050e                	slli	a0,a0,0x3
    8000333a:	75e6                	ld	a1,120(sp)
    8000333c:	00a586b3          	add	a3,a1,a0
    80003340:	ffd60513          	addi	a0,a2,-3
    80003344:	ff06b107          	fld	ft2,-16(a3)
    80003348:	01a57533          	and	a0,a0,s10
    8000334c:	050e                	slli	a0,a0,0x3
    8000334e:	9566                	add	a0,a0,s9
    80003350:	00053187          	fld	ft3,0(a0)
    80003354:	0a3170c3          	fmadd.d	ft1,ft2,ft3,ft1
    80003358:	00c78733          	add	a4,a5,a2
    8000335c:	df4709e3          	beq	a4,s4,8000314e <svd_core+0x1142>
    80003360:	ffe60513          	addi	a0,a2,-2
    80003364:	ff86b107          	fld	ft2,-8(a3)
    80003368:	01a57533          	and	a0,a0,s10
    8000336c:	050e                	slli	a0,a0,0x3
    8000336e:	9566                	add	a0,a0,s9
    80003370:	00053187          	fld	ft3,0(a0)
    80003374:	0a3170c3          	fmadd.d	ft1,ft2,ft3,ft1
    80003378:	ddb70be3          	beq	a4,s11,8000314e <svd_core+0x1142>
    8000337c:	fff60513          	addi	a0,a2,-1
    80003380:	0006b107          	fld	ft2,0(a3)
    80003384:	01a57533          	and	a0,a0,s10
    80003388:	050e                	slli	a0,a0,0x3
    8000338a:	9566                	add	a0,a0,s9
    8000338c:	00053187          	fld	ft3,0(a0)
    80003390:	0a3170c3          	fmadd.d	ft1,ft2,ft3,ft1
    80003394:	da070de3          	beqz	a4,8000314e <svd_core+0x1142>
    80003398:	0086b107          	fld	ft2,8(a3)
    8000339c:	01a67533          	and	a0,a2,s10
    800033a0:	050e                	slli	a0,a0,0x3
    800033a2:	9566                	add	a0,a0,s9
    800033a4:	00053187          	fld	ft3,0(a0)
    800033a8:	0a3170c3          	fmadd.d	ft1,ft2,ft3,ft1
    800033ac:	0611                	addi	a2,a2,4
    800033ae:	00c78533          	add	a0,a5,a2
    800033b2:	02068693          	addi	a3,a3,32
    800033b6:	f96515e3          	bne	a0,s6,80003340 <svd_core+0x1334>
    800033ba:	bb51                	j	8000314e <svd_core+0x1142>
    800033bc:	05805763          	blez	s8,8000340a <svd_core+0x13fe>
    800033c0:	7542                	ld	a0,48(sp)
    800033c2:	04157763          	bgeu	a0,ra,80003410 <svd_core+0x1404>
    800033c6:	f2000953          	fmv.d.x	fs2,zero
    800033ca:	4501                	li	a0,0
    800033cc:	75a2                	ld	a1,40(sp)
    800033ce:	1a058163          	beqz	a1,80003570 <svd_core+0x1564>
    800033d2:	40ac05bb          	subw	a1,s8,a0
    800033d6:	4621                	li	a2,8
    800033d8:	87ae                	mv	a5,a1
    800033da:	00c5c363          	blt	a1,a2,800033e0 <svd_core+0x13d4>
    800033de:	47a1                	li	a5,8
    800033e0:	050e                	slli	a0,a0,0x3
    800033e2:	16b05063          	blez	a1,80003542 <svd_core+0x1536>
    800033e6:	00856593          	ori	a1,a0,8
    800033ea:	95d6                	add	a1,a1,s5
    800033ec:	0005b803          	ld	a6,0(a1)
    800033f0:	1547cc63          	blt	a5,s4,80003548 <svd_core+0x153c>
    800033f4:	01056593          	ori	a1,a0,16
    800033f8:	95d6                	add	a1,a1,s5
    800033fa:	6190                	ld	a2,0(a1)
    800033fc:	01478463          	beq	a5,s4,80003404 <svd_core+0x13f8>
    80003400:	3770506f          	j	80008f76 <svd_core+0x6f6a>
    80003404:	4481                	li	s1,0
    80003406:	4701                	li	a4,0
    80003408:	a299                	j	8000354e <svd_core+0x1542>
    8000340a:	f2000953          	fmv.d.x	fs2,zero
    8000340e:	a28d                	j	80003570 <svd_core+0x1564>
    80003410:	4501                	li	a0,0
    80003412:	4581                	li	a1,0
    80003414:	f2000953          	fmv.d.x	fs2,zero
    80003418:	0210                	addi	a2,sp,256
    8000341a:	40ac073b          	subw	a4,s8,a0
    8000341e:	47a1                	li	a5,8
    80003420:	86ba                	mv	a3,a4
    80003422:	00f74363          	blt	a4,a5,80003428 <svd_core+0x141c>
    80003426:	46a1                	li	a3,8
    80003428:	00e05e63          	blez	a4,80003444 <svd_core+0x1438>
    8000342c:	fc863903          	ld	s2,-56(a2)
    80003430:	479d                	li	a5,7
    80003432:	0146cd63          	blt	a3,s4,8000344c <svd_core+0x1440>
    80003436:	fd063983          	ld	s3,-48(a2)
    8000343a:	0b469263          	bne	a3,s4,800034de <svd_core+0x14d2>
    8000343e:	4381                	li	t2,0
    80003440:	4301                	li	t1,0
    80003442:	a801                	j	80003452 <svd_core+0x1446>
    80003444:	4901                	li	s2,0
    80003446:	479d                	li	a5,7
    80003448:	ff46d7e3          	bge	a3,s4,80003436 <svd_core+0x142a>
    8000344c:	4381                	li	t2,0
    8000344e:	4301                	li	t1,0
    80003450:	4981                	li	s3,0
    80003452:	4b81                	li	s7,0
    80003454:	4e01                	li	t3,0
    80003456:	4e81                	li	t4,0
    80003458:	40ac06bb          	subw	a3,s8,a0
    8000345c:	36e1                	addiw	a3,a3,-8
    8000345e:	4721                	li	a4,8
    80003460:	88b6                	mv	a7,a3
    80003462:	00e6c363          	blt	a3,a4,80003468 <svd_core+0x145c>
    80003466:	48a1                	li	a7,8
    80003468:	00d05563          	blez	a3,80003472 <svd_core+0x1466>
    8000346c:	00863f03          	ld	t5,8(a2)
    80003470:	a011                	j	80003474 <svd_core+0x1468>
    80003472:	4f01                	li	t5,0
    80003474:	fc063083          	ld	ra,-64(a2)
    80003478:	00063f83          	ld	t6,0(a2)
    8000347c:	0148c963          	blt	a7,s4,8000348e <svd_core+0x1482>
    80003480:	01063283          	ld	t0,16(a2)
    80003484:	07489863          	bne	a7,s4,800034f4 <svd_core+0x14e8>
    80003488:	4701                	li	a4,0
    8000348a:	4681                	li	a3,0
    8000348c:	a021                	j	80003494 <svd_core+0x1488>
    8000348e:	4701                	li	a4,0
    80003490:	4681                	li	a3,0
    80003492:	4281                	li	t0,0
    80003494:	4481                	li	s1,0
    80003496:	4801                	li	a6,0
    80003498:	4781                	li	a5,0
    8000349a:	65d3840b          	.insn	4, 0x65d3840b
    8000349e:	45c3040b          	.insn	4, 0x45c3040b
    800034a2:	2579840b          	.insn	4, 0x2579840b
    800034a6:	4120847b          	.insn	4, 0x4120847b
    800034aa:	f20400d3          	fmv.d.x	ft1,s0
    800034ae:	6cf7070b          	.insn	4, 0x6cf7070b
    800034b2:	4d06868b          	.insn	4, 0x4d06868b
    800034b6:	2c92868b          	.insn	4, 0x2c92868b
    800034ba:	c1ef86fb          	.insn	4, 0xc1ef86fb
    800034be:	021970d3          	fadd.d	ft1,fs2,ft1
    800034c2:	f2068153          	fmv.d.x	ft2,a3
    800034c6:	0220f953          	fadd.d	fs2,ft1,ft2
    800034ca:	0541                	addi	a0,a0,16
    800034cc:	2589                	addiw	a1,a1,2
    800034ce:	08060613          	addi	a2,a2,128
    800034d2:	73ca                	ld	t2,176(sp)
    800034d4:	66c6                	ld	a3,80(sp)
    800034d6:	40a1                	li	ra,8
    800034d8:	f4d591e3          	bne	a1,a3,8000341a <svd_core+0x140e>
    800034dc:	bdc5                	j	800033cc <svd_core+0x13c0>
    800034de:	fd863b83          	ld	s7,-40(a2)
    800034e2:	4715                	li	a4,5
    800034e4:	02e6e163          	bltu	a3,a4,80003506 <svd_core+0x14fa>
    800034e8:	fe063303          	ld	t1,-32(a2)
    800034ec:	02e69363          	bne	a3,a4,80003512 <svd_core+0x1506>
    800034f0:	4381                	li	t2,0
    800034f2:	b78d                	j	80003454 <svd_core+0x1448>
    800034f4:	6e04                	ld	s1,24(a2)
    800034f6:	4715                	li	a4,5
    800034f8:	00e8ea63          	bltu	a7,a4,8000350c <svd_core+0x1500>
    800034fc:	7214                	ld	a3,32(a2)
    800034fe:	02e89563          	bne	a7,a4,80003528 <svd_core+0x151c>
    80003502:	4701                	li	a4,0
    80003504:	bf49                	j	80003496 <svd_core+0x148a>
    80003506:	4381                	li	t2,0
    80003508:	4301                	li	t1,0
    8000350a:	b7a9                	j	80003454 <svd_core+0x1448>
    8000350c:	4701                	li	a4,0
    8000350e:	4681                	li	a3,0
    80003510:	b759                	j	80003496 <svd_core+0x148a>
    80003512:	fe863e03          	ld	t3,-24(a2)
    80003516:	02f6e263          	bltu	a3,a5,8000353a <svd_core+0x152e>
    8000351a:	ff063383          	ld	t2,-16(a2)
    8000351e:	f2f68ce3          	beq	a3,a5,80003456 <svd_core+0x144a>
    80003522:	ff863e83          	ld	t4,-8(a2)
    80003526:	bf0d                	j	80003458 <svd_core+0x144c>
    80003528:	02863803          	ld	a6,40(a2)
    8000352c:	00f8e963          	bltu	a7,a5,8000353e <svd_core+0x1532>
    80003530:	7a18                	ld	a4,48(a2)
    80003532:	f6f883e3          	beq	a7,a5,80003498 <svd_core+0x148c>
    80003536:	7e1c                	ld	a5,56(a2)
    80003538:	b78d                	j	8000349a <svd_core+0x148e>
    8000353a:	4381                	li	t2,0
    8000353c:	bf29                	j	80003456 <svd_core+0x144a>
    8000353e:	4701                	li	a4,0
    80003540:	bfa1                	j	80003498 <svd_core+0x148c>
    80003542:	4801                	li	a6,0
    80003544:	eb47d8e3          	bge	a5,s4,800033f4 <svd_core+0x13e8>
    80003548:	4481                	li	s1,0
    8000354a:	4701                	li	a4,0
    8000354c:	4601                	li	a2,0
    8000354e:	4681                	li	a3,0
    80003550:	4581                	li	a1,0
    80003552:	4781                	li	a5,0
    80003554:	9556                	add	a0,a0,s5
    80003556:	6108                	ld	a0,0(a0)
    80003558:	64f4878b          	.insn	4, 0x64f4878b
    8000355c:	44b7058b          	.insn	4, 0x44b7058b
    80003560:	24d6058b          	.insn	4, 0x24d6058b
    80003564:	4105057b          	.insn	4, 0x4105057b
    80003568:	f20500d3          	fmv.d.x	ft1,a0
    8000356c:	02197953          	fadd.d	fs2,fs2,ft1
    80003570:	0b3970d3          	fsub.d	ft1,fs2,fs3
    80003574:	a2009553          	flt.d	a0,ft1,ft0
    80003578:	c119                	beqz	a0,8000357e <svd_core+0x1572>
    8000357a:	221090d3          	fneg.d	ft1,ft1
    8000357e:	6bca                	ld	s7,144(sp)
    80003580:	65aa                	ld	a1,136(sp)
    80003582:	a2909553          	flt.d	a0,ft1,fs1
    80003586:	23398a53          	fmv.d	fs4,fs3
    8000358a:	c119                	beqz	a0,80003590 <svd_core+0x1584>
    8000358c:	3a60a06f          	j	8000d932 <svd_core+0xb926>
    80003590:	4281                	li	t0,0
    80003592:	4889                	li	a7,2
    80003594:	50010813          	addi	a6,sp,1280
    80003598:	a831                	j	800035b4 <svd_core+0x15a8>
    8000359a:	1b207053          	fdiv.d	ft0,ft0,fs2
    8000359e:	00329513          	slli	a0,t0,0x3
    800035a2:	9566                	add	a0,a0,s9
    800035a4:	00053027          	fsd	ft0,0(a0)
    800035a8:	0285                	addi	t0,t0,1
    800035aa:	756a                	ld	a0,184(sp)
    800035ac:	982a                	add	a6,a6,a0
    800035ae:	98e2                	add	a7,a7,s8
    800035b0:	24728f63          	beq	t0,t2,8000380e <svd_core+0x1802>
    800035b4:	001c4c63          	blt	s8,ra,800035cc <svd_core+0x15c0>
    800035b8:	650a                	ld	a0,128(sp)
    800035ba:	00157d63          	bgeu	a0,ra,800035d4 <svd_core+0x15c8>
    800035be:	4301                	li	t1,0
    800035c0:	f2000053          	fmv.d.x	ft0,zero
    800035c4:	461d                	li	a2,7
    800035c6:	100b9863          	bnez	s7,800036d6 <svd_core+0x16ca>
    800035ca:	aa45                	j	8000377a <svd_core+0x176e>
    800035cc:	f2000053          	fmv.d.x	ft0,zero
    800035d0:	4301                	li	t1,0
    800035d2:	a265                	j	8000377a <svd_core+0x176e>
    800035d4:	4301                	li	t1,0
    800035d6:	4701                	li	a4,0
    800035d8:	f2000053          	fmv.d.x	ft0,zero
    800035dc:	021c                	addi	a5,sp,256
    800035de:	8642                	mv	a2,a6
    800035e0:	70aa                	ld	ra,168(sp)
    800035e2:	fc063383          	ld	t2,-64(a2)
    800035e6:	fc863e83          	ld	t4,-56(a2)
    800035ea:	fd063e03          	ld	t3,-48(a2)
    800035ee:	fd863f03          	ld	t5,-40(a2)
    800035f2:	fe063f83          	ld	t6,-32(a2)
    800035f6:	fe863983          	ld	s3,-24(a2)
    800035fa:	ff063903          	ld	s2,-16(a2)
    800035fe:	ff863b03          	ld	s6,-8(a2)
    80003602:	fc07ba03          	ld	s4,-64(a5)
    80003606:	fc87bc03          	ld	s8,-56(a5)
    8000360a:	fd07bb83          	ld	s7,-48(a5)
    8000360e:	fd87b403          	ld	s0,-40(a5)
    80003612:	fe07bc83          	ld	s9,-32(a5)
    80003616:	fe87b483          	ld	s1,-24(a5)
    8000361a:	ff07b583          	ld	a1,-16(a5)
    8000361e:	ff87b683          	ld	a3,-8(a5)
    80003622:	01d3850b          	.insn	4, 0x01d3850b
    80003626:	21ee050b          	.insn	4, 0x21ee050b
    8000362a:	413f850b          	.insn	4, 0x413f850b
    8000362e:	6169050b          	.insn	4, 0x6169050b
    80003632:	818a050b          	.insn	4, 0x818a050b
    80003636:	a08b850b          	.insn	4, 0xa08b850b
    8000363a:	c09c850b          	.insn	4, 0xc09c850b
    8000363e:	1cd583fb          	.insn	4, 0x1cd583fb
    80003642:	00063e03          	ld	t3,0(a2)
    80003646:	00863e83          	ld	t4,8(a2)
    8000364a:	01063f03          	ld	t5,16(a2)
    8000364e:	01863903          	ld	s2,24(a2)
    80003652:	02063f83          	ld	t6,32(a2)
    80003656:	02863983          	ld	s3,40(a2)
    8000365a:	03063a03          	ld	s4,48(a2)
    8000365e:	03863b83          	ld	s7,56(a2)
    80003662:	0007bb03          	ld	s6,0(a5)
    80003666:	0087bc83          	ld	s9,8(a5)
    8000366a:	0107bc03          	ld	s8,16(a5)
    8000366e:	6f94                	ld	a3,24(a5)
    80003670:	0207bd83          	ld	s11,32(a5)
    80003674:	7784                	ld	s1,40(a5)
    80003676:	7b8c                	ld	a1,48(a5)
    80003678:	7f80                	ld	s0,56(a5)
    8000367a:	f20380d3          	fmv.d.x	ft1,t2
    8000367e:	09de050b          	.insn	4, 0x09de050b
    80003682:	292f050b          	.insn	4, 0x292f050b
    80003686:	493f850b          	.insn	4, 0x493f850b
    8000368a:	697a050b          	.insn	4, 0x697a050b
    8000368e:	899b050b          	.insn	4, 0x899b050b
    80003692:	a8dc050b          	.insn	4, 0xa8dc050b
    80003696:	c89d850b          	.insn	4, 0xc89d850b
    8000369a:	9c85857b          	.insn	4, 0x9c85857b
    8000369e:	02107053          	fadd.d	ft0,ft0,ft1
    800036a2:	f20500d3          	fmv.d.x	ft1,a0
    800036a6:	02107053          	fadd.d	ft0,ft0,ft1
    800036aa:	0341                	addi	t1,t1,16
    800036ac:	2709                	addiw	a4,a4,2
    800036ae:	08060613          	addi	a2,a2,128
    800036b2:	08078793          	addi	a5,a5,128
    800036b6:	f21716e3          	bne	a4,ra,800035e2 <svd_core+0x15d6>
    800036ba:	00730613          	addi	a2,t1,7
    800036be:	7c46                	ld	s8,112(sp)
    800036c0:	65aa                	ld	a1,136(sp)
    800036c2:	2c010c93          	addi	s9,sp,704
    800036c6:	4d85                	li	s11,1
    800036c8:	40a1                	li	ra,8
    800036ca:	4a09                	li	s4,2
    800036cc:	4b0d                	li	s6,3
    800036ce:	73ca                	ld	t2,176(sp)
    800036d0:	6bca                	ld	s7,144(sp)
    800036d2:	0a0b8463          	beqz	s7,8000377a <svd_core+0x176e>
    800036d6:	03828533          	mul	a0,t0,s8
    800036da:	951a                	add	a0,a0,t1
    800036dc:	050e                	slli	a0,a0,0x3
    800036de:	4c010593          	addi	a1,sp,1216
    800036e2:	952e                	add	a0,a0,a1
    800036e4:	00053383          	ld	t2,0(a0)
    800036e8:	00853e03          	ld	t3,8(a0)
    800036ec:	01053e83          	ld	t4,16(a0)
    800036f0:	01853f03          	ld	t5,24(a0)
    800036f4:	02053f83          	ld	t6,32(a0)
    800036f8:	02853983          	ld	s3,40(a0)
    800036fc:	03053903          	ld	s2,48(a0)
    80003700:	03853a03          	ld	s4,56(a0)
    80003704:	00331693          	slli	a3,t1,0x3
    80003708:	00da8733          	add	a4,s5,a3
    8000370c:	00073b03          	ld	s6,0(a4)
    80003710:	0086e793          	ori	a5,a3,8
    80003714:	97d6                	add	a5,a5,s5
    80003716:	639c                	ld	a5,0(a5)
    80003718:	0106e493          	ori	s1,a3,16
    8000371c:	94d6                	add	s1,s1,s5
    8000371e:	6084                	ld	s1,0(s1)
    80003720:	0186e593          	ori	a1,a3,24
    80003724:	95d6                	add	a1,a1,s5
    80003726:	618c                	ld	a1,0(a1)
    80003728:	0206e413          	ori	s0,a3,32
    8000372c:	9456                	add	s0,s0,s5
    8000372e:	6000                	ld	s0,0(s0)
    80003730:	0286e513          	ori	a0,a3,40
    80003734:	9556                	add	a0,a0,s5
    80003736:	6108                	ld	a0,0(a0)
    80003738:	0306e693          	ori	a3,a3,48
    8000373c:	96d6                	add	a3,a3,s5
    8000373e:	6294                	ld	a3,0(a3)
    80003740:	060e                	slli	a2,a2,0x3
    80003742:	9656                	add	a2,a2,s5
    80003744:	6210                	ld	a2,0(a2)
    80003746:	01c3870b          	.insn	4, 0x01c3870b
    8000374a:	6bca                	ld	s7,144(sp)
    8000374c:	73ca                	ld	t2,176(sp)
    8000374e:	21ee870b          	.insn	4, 0x21ee870b
    80003752:	413f870b          	.insn	4, 0x413f870b
    80003756:	6149070b          	.insn	4, 0x6149070b
    8000375a:	4a09                	li	s4,2
    8000375c:	80fb070b          	.insn	4, 0x80fb070b
    80003760:	4b0d                	li	s6,3
    80003762:	a0b4858b          	.insn	4, 0xa0b4858b
    80003766:	65aa                	ld	a1,136(sp)
    80003768:	c0a4050b          	.insn	4, 0xc0a4050b
    8000376c:	1cc6857b          	.insn	4, 0x1cc6857b
    80003770:	f20500d3          	fmv.d.x	ft1,a0
    80003774:	02107053          	fadd.d	ft0,ft0,ft1
    80003778:	0321                	addi	t1,t1,8
    8000377a:	0003069b          	sext.w	a3,t1
    8000377e:	e186dee3          	bge	a3,s8,8000359a <svd_core+0x158e>
    80003782:	00368613          	addi	a2,a3,3
    80003786:	00d88533          	add	a0,a7,a3
    8000378a:	050e                	slli	a0,a0,0x3
    8000378c:	4c010693          	addi	a3,sp,1216
    80003790:	96aa                	add	a3,a3,a0
    80003792:	ffd60513          	addi	a0,a2,-3
    80003796:	ff06b087          	fld	ft1,-16(a3)
    8000379a:	01a57533          	and	a0,a0,s10
    8000379e:	050e                	slli	a0,a0,0x3
    800037a0:	9556                	add	a0,a0,s5
    800037a2:	00053107          	fld	ft2,0(a0)
    800037a6:	0220f043          	fmadd.d	ft0,ft1,ft2,ft0
    800037aa:	00c58733          	add	a4,a1,a2
    800037ae:	df4706e3          	beq	a4,s4,8000359a <svd_core+0x158e>
    800037b2:	ffe60513          	addi	a0,a2,-2
    800037b6:	ff86b087          	fld	ft1,-8(a3)
    800037ba:	01a57533          	and	a0,a0,s10
    800037be:	050e                	slli	a0,a0,0x3
    800037c0:	9556                	add	a0,a0,s5
    800037c2:	00053107          	fld	ft2,0(a0)
    800037c6:	0220f043          	fmadd.d	ft0,ft1,ft2,ft0
    800037ca:	ddb708e3          	beq	a4,s11,8000359a <svd_core+0x158e>
    800037ce:	fff60513          	addi	a0,a2,-1
    800037d2:	0006b087          	fld	ft1,0(a3)
    800037d6:	01a57533          	and	a0,a0,s10
    800037da:	050e                	slli	a0,a0,0x3
    800037dc:	9556                	add	a0,a0,s5
    800037de:	00053107          	fld	ft2,0(a0)
    800037e2:	0220f043          	fmadd.d	ft0,ft1,ft2,ft0
    800037e6:	da070ae3          	beqz	a4,8000359a <svd_core+0x158e>
    800037ea:	0086b087          	fld	ft1,8(a3)
    800037ee:	01a67533          	and	a0,a2,s10
    800037f2:	050e                	slli	a0,a0,0x3
    800037f4:	9556                	add	a0,a0,s5
    800037f6:	00053107          	fld	ft2,0(a0)
    800037fa:	0220f043          	fmadd.d	ft0,ft1,ft2,ft0
    800037fe:	0611                	addi	a2,a2,4
    80003800:	00c58533          	add	a0,a1,a2
    80003804:	02068693          	addi	a3,a3,32
    80003808:	f96515e3          	bne	a0,s6,80003792 <svd_core+0x1786>
    8000380c:	b379                	j	8000359a <svd_core+0x158e>
    8000380e:	0188                	addi	a0,sp,192
    80003810:	20000613          	li	a2,512
    80003814:	4581                	li	a1,0
    80003816:	0000b097          	auipc	ra,0xb
    8000381a:	834080e7          	jalr	-1996(ra) # 8000e04a <memset>
    8000381e:	40a1                	li	ra,8
    80003820:	73ca                	ld	t2,176(sp)
    80003822:	f2000053          	fmv.d.x	ft0,zero
    80003826:	220009d3          	fmv.d	fs3,ft0
    8000382a:	77a6                	ld	a5,104(sp)
    8000382c:	43805763          	blez	s8,80003c5a <svd_core+0x1c4e>
    80003830:	4281                	li	t0,0
    80003832:	4889                	li	a7,2
    80003834:	6806                	ld	a6,64(sp)
    80003836:	a829                	j	80003850 <svd_core+0x1844>
    80003838:	00329513          	slli	a0,t0,0x3
    8000383c:	9556                	add	a0,a0,s5
    8000383e:	00153027          	fsd	ft1,0(a0)
    80003842:	0285                	addi	t0,t0,1
    80003844:	750a                	ld	a0,160(sp)
    80003846:	982a                	add	a6,a6,a0
    80003848:	989e                	add	a7,a7,t2
    8000384a:	656a                	ld	a0,152(sp)
    8000384c:	24a28d63          	beq	t0,a0,80003aa6 <svd_core+0x1a9a>
    80003850:	0013ed63          	bltu	t2,ra,8000386a <svd_core+0x185e>
    80003854:	7506                	ld	a0,96(sp)
    80003856:	00157e63          	bgeu	a0,ra,80003872 <svd_core+0x1866>
    8000385a:	4301                	li	t1,0
    8000385c:	f20000d3          	fmv.d.x	ft1,zero
    80003860:	461d                	li	a2,7
    80003862:	6566                	ld	a0,88(sp)
    80003864:	10051763          	bnez	a0,80003972 <svd_core+0x1966>
    80003868:	a26d                	j	80003a12 <svd_core+0x1a06>
    8000386a:	f20000d3          	fmv.d.x	ft1,zero
    8000386e:	4301                	li	t1,0
    80003870:	a24d                	j	80003a12 <svd_core+0x1a06>
    80003872:	4301                	li	t1,0
    80003874:	4701                	li	a4,0
    80003876:	f20000d3          	fmv.d.x	ft1,zero
    8000387a:	061c                	addi	a5,sp,768
    8000387c:	8642                	mv	a2,a6
    8000387e:	60a6                	ld	ra,72(sp)
    80003880:	fc063383          	ld	t2,-64(a2)
    80003884:	fc863e83          	ld	t4,-56(a2)
    80003888:	fd063e03          	ld	t3,-48(a2)
    8000388c:	fd863f03          	ld	t5,-40(a2)
    80003890:	fe063f83          	ld	t6,-32(a2)
    80003894:	fe863983          	ld	s3,-24(a2)
    80003898:	ff063903          	ld	s2,-16(a2)
    8000389c:	ff863b03          	ld	s6,-8(a2)
    800038a0:	fc07ba03          	ld	s4,-64(a5)
    800038a4:	fc87bc03          	ld	s8,-56(a5)
    800038a8:	fd07bb83          	ld	s7,-48(a5)
    800038ac:	fd87b403          	ld	s0,-40(a5)
    800038b0:	fe07bc83          	ld	s9,-32(a5)
    800038b4:	fe87b483          	ld	s1,-24(a5)
    800038b8:	ff07b583          	ld	a1,-16(a5)
    800038bc:	ff87b683          	ld	a3,-8(a5)
    800038c0:	01d3850b          	.insn	4, 0x01d3850b
    800038c4:	21ee050b          	.insn	4, 0x21ee050b
    800038c8:	413f850b          	.insn	4, 0x413f850b
    800038cc:	6169050b          	.insn	4, 0x6169050b
    800038d0:	818a050b          	.insn	4, 0x818a050b
    800038d4:	a08b850b          	.insn	4, 0xa08b850b
    800038d8:	c09c850b          	.insn	4, 0xc09c850b
    800038dc:	1cd583fb          	.insn	4, 0x1cd583fb
    800038e0:	00063e03          	ld	t3,0(a2)
    800038e4:	00863e83          	ld	t4,8(a2)
    800038e8:	01063f03          	ld	t5,16(a2)
    800038ec:	01863903          	ld	s2,24(a2)
    800038f0:	02063f83          	ld	t6,32(a2)
    800038f4:	02863983          	ld	s3,40(a2)
    800038f8:	03063a03          	ld	s4,48(a2)
    800038fc:	03863b83          	ld	s7,56(a2)
    80003900:	0007bb03          	ld	s6,0(a5)
    80003904:	0087bc83          	ld	s9,8(a5)
    80003908:	0107bc03          	ld	s8,16(a5)
    8000390c:	6f94                	ld	a3,24(a5)
    8000390e:	0207bd83          	ld	s11,32(a5)
    80003912:	7784                	ld	s1,40(a5)
    80003914:	7b8c                	ld	a1,48(a5)
    80003916:	7f80                	ld	s0,56(a5)
    80003918:	f2038153          	fmv.d.x	ft2,t2
    8000391c:	09de050b          	.insn	4, 0x09de050b
    80003920:	292f050b          	.insn	4, 0x292f050b
    80003924:	493f850b          	.insn	4, 0x493f850b
    80003928:	697a050b          	.insn	4, 0x697a050b
    8000392c:	899b050b          	.insn	4, 0x899b050b
    80003930:	a8dc050b          	.insn	4, 0xa8dc050b
    80003934:	c89d850b          	.insn	4, 0xc89d850b
    80003938:	9c85857b          	.insn	4, 0x9c85857b
    8000393c:	0220f0d3          	fadd.d	ft1,ft1,ft2
    80003940:	f2050153          	fmv.d.x	ft2,a0
    80003944:	0220f0d3          	fadd.d	ft1,ft1,ft2
    80003948:	0341                	addi	t1,t1,16
    8000394a:	2709                	addiw	a4,a4,2
    8000394c:	08060613          	addi	a2,a2,128
    80003950:	08078793          	addi	a5,a5,128
    80003954:	f21716e3          	bne	a4,ra,80003880 <svd_core+0x1874>
    80003958:	00730613          	addi	a2,t1,7
    8000395c:	7c46                	ld	s8,112(sp)
    8000395e:	77a6                	ld	a5,104(sp)
    80003960:	2c010c93          	addi	s9,sp,704
    80003964:	4d85                	li	s11,1
    80003966:	40a1                	li	ra,8
    80003968:	4a09                	li	s4,2
    8000396a:	4b0d                	li	s6,3
    8000396c:	73ca                	ld	t2,176(sp)
    8000396e:	6566                	ld	a0,88(sp)
    80003970:	c14d                	beqz	a0,80003a12 <svd_core+0x1a06>
    80003972:	02728533          	mul	a0,t0,t2
    80003976:	951a                	add	a0,a0,t1
    80003978:	050e                	slli	a0,a0,0x3
    8000397a:	75e6                	ld	a1,120(sp)
    8000397c:	952e                	add	a0,a0,a1
    8000397e:	00053383          	ld	t2,0(a0)
    80003982:	00853e03          	ld	t3,8(a0)
    80003986:	01053e83          	ld	t4,16(a0)
    8000398a:	01853f03          	ld	t5,24(a0)
    8000398e:	02053f83          	ld	t6,32(a0)
    80003992:	02853983          	ld	s3,40(a0)
    80003996:	03053903          	ld	s2,48(a0)
    8000399a:	03853a03          	ld	s4,56(a0)
    8000399e:	00331693          	slli	a3,t1,0x3
    800039a2:	00dc8733          	add	a4,s9,a3
    800039a6:	00073b03          	ld	s6,0(a4)
    800039aa:	0086e793          	ori	a5,a3,8
    800039ae:	97e6                	add	a5,a5,s9
    800039b0:	639c                	ld	a5,0(a5)
    800039b2:	0106e493          	ori	s1,a3,16
    800039b6:	94e6                	add	s1,s1,s9
    800039b8:	6084                	ld	s1,0(s1)
    800039ba:	0186e593          	ori	a1,a3,24
    800039be:	95e6                	add	a1,a1,s9
    800039c0:	618c                	ld	a1,0(a1)
    800039c2:	0206e413          	ori	s0,a3,32
    800039c6:	9466                	add	s0,s0,s9
    800039c8:	6000                	ld	s0,0(s0)
    800039ca:	0286e513          	ori	a0,a3,40
    800039ce:	9566                	add	a0,a0,s9
    800039d0:	6108                	ld	a0,0(a0)
    800039d2:	0306e693          	ori	a3,a3,48
    800039d6:	96e6                	add	a3,a3,s9
    800039d8:	6294                	ld	a3,0(a3)
    800039da:	060e                	slli	a2,a2,0x3
    800039dc:	9666                	add	a2,a2,s9
    800039de:	6210                	ld	a2,0(a2)
    800039e0:	01c3870b          	.insn	4, 0x01c3870b
    800039e4:	73ca                	ld	t2,176(sp)
    800039e6:	21ee870b          	.insn	4, 0x21ee870b
    800039ea:	413f870b          	.insn	4, 0x413f870b
    800039ee:	6149070b          	.insn	4, 0x6149070b
    800039f2:	4a09                	li	s4,2
    800039f4:	80fb070b          	.insn	4, 0x80fb070b
    800039f8:	4b0d                	li	s6,3
    800039fa:	77a6                	ld	a5,104(sp)
    800039fc:	a0b4858b          	.insn	4, 0xa0b4858b
    80003a00:	c0a4050b          	.insn	4, 0xc0a4050b
    80003a04:	1cc6857b          	.insn	4, 0x1cc6857b
    80003a08:	f2050153          	fmv.d.x	ft2,a0
    80003a0c:	0220f0d3          	fadd.d	ft1,ft1,ft2
    80003a10:	0321                	addi	t1,t1,8
    80003a12:	0003069b          	sext.w	a3,t1
    80003a16:	e276d1e3          	bge	a3,t2,80003838 <svd_core+0x182c>
    80003a1a:	00368613          	addi	a2,a3,3
    80003a1e:	00d88533          	add	a0,a7,a3
    80003a22:	050e                	slli	a0,a0,0x3
    80003a24:	75e6                	ld	a1,120(sp)
    80003a26:	00a586b3          	add	a3,a1,a0
    80003a2a:	ffd60513          	addi	a0,a2,-3
    80003a2e:	ff06b107          	fld	ft2,-16(a3)
    80003a32:	01a57533          	and	a0,a0,s10
    80003a36:	050e                	slli	a0,a0,0x3
    80003a38:	9566                	add	a0,a0,s9
    80003a3a:	00053187          	fld	ft3,0(a0)
    80003a3e:	0a3170c3          	fmadd.d	ft1,ft2,ft3,ft1
    80003a42:	00c78733          	add	a4,a5,a2
    80003a46:	df4709e3          	beq	a4,s4,80003838 <svd_core+0x182c>
    80003a4a:	ffe60513          	addi	a0,a2,-2
    80003a4e:	ff86b107          	fld	ft2,-8(a3)
    80003a52:	01a57533          	and	a0,a0,s10
    80003a56:	050e                	slli	a0,a0,0x3
    80003a58:	9566                	add	a0,a0,s9
    80003a5a:	00053187          	fld	ft3,0(a0)
    80003a5e:	0a3170c3          	fmadd.d	ft1,ft2,ft3,ft1
    80003a62:	ddb70be3          	beq	a4,s11,80003838 <svd_core+0x182c>
    80003a66:	fff60513          	addi	a0,a2,-1
    80003a6a:	0006b107          	fld	ft2,0(a3)
    80003a6e:	01a57533          	and	a0,a0,s10
    80003a72:	050e                	slli	a0,a0,0x3
    80003a74:	9566                	add	a0,a0,s9
    80003a76:	00053187          	fld	ft3,0(a0)
    80003a7a:	0a3170c3          	fmadd.d	ft1,ft2,ft3,ft1
    80003a7e:	da070de3          	beqz	a4,80003838 <svd_core+0x182c>
    80003a82:	0086b107          	fld	ft2,8(a3)
    80003a86:	01a67533          	and	a0,a2,s10
    80003a8a:	050e                	slli	a0,a0,0x3
    80003a8c:	9566                	add	a0,a0,s9
    80003a8e:	00053187          	fld	ft3,0(a0)
    80003a92:	0a3170c3          	fmadd.d	ft1,ft2,ft3,ft1
    80003a96:	0611                	addi	a2,a2,4
    80003a98:	00c78533          	add	a0,a5,a2
    80003a9c:	02068693          	addi	a3,a3,32
    80003aa0:	f96515e3          	bne	a0,s6,80003a2a <svd_core+0x1a1e>
    80003aa4:	bb51                	j	80003838 <svd_core+0x182c>
    80003aa6:	05805763          	blez	s8,80003af4 <svd_core+0x1ae8>
    80003aaa:	7542                	ld	a0,48(sp)
    80003aac:	04157763          	bgeu	a0,ra,80003afa <svd_core+0x1aee>
    80003ab0:	f20009d3          	fmv.d.x	fs3,zero
    80003ab4:	4501                	li	a0,0
    80003ab6:	75a2                	ld	a1,40(sp)
    80003ab8:	1a058163          	beqz	a1,80003c5a <svd_core+0x1c4e>
    80003abc:	40ac05bb          	subw	a1,s8,a0
    80003ac0:	4621                	li	a2,8
    80003ac2:	87ae                	mv	a5,a1
    80003ac4:	00c5c363          	blt	a1,a2,80003aca <svd_core+0x1abe>
    80003ac8:	47a1                	li	a5,8
    80003aca:	050e                	slli	a0,a0,0x3
    80003acc:	16b05063          	blez	a1,80003c2c <svd_core+0x1c20>
    80003ad0:	00856593          	ori	a1,a0,8
    80003ad4:	95d6                	add	a1,a1,s5
    80003ad6:	0005b803          	ld	a6,0(a1)
    80003ada:	1547cc63          	blt	a5,s4,80003c32 <svd_core+0x1c26>
    80003ade:	01056593          	ori	a1,a0,16
    80003ae2:	95d6                	add	a1,a1,s5
    80003ae4:	6190                	ld	a2,0(a1)
    80003ae6:	01478463          	beq	a5,s4,80003aee <svd_core+0x1ae2>
    80003aea:	39d0506f          	j	80009686 <svd_core+0x767a>
    80003aee:	4481                	li	s1,0
    80003af0:	4701                	li	a4,0
    80003af2:	a299                	j	80003c38 <svd_core+0x1c2c>
    80003af4:	f20009d3          	fmv.d.x	fs3,zero
    80003af8:	a28d                	j	80003c5a <svd_core+0x1c4e>
    80003afa:	4501                	li	a0,0
    80003afc:	4581                	li	a1,0
    80003afe:	f20009d3          	fmv.d.x	fs3,zero
    80003b02:	0210                	addi	a2,sp,256
    80003b04:	40ac073b          	subw	a4,s8,a0
    80003b08:	47a1                	li	a5,8
    80003b0a:	86ba                	mv	a3,a4
    80003b0c:	00f74363          	blt	a4,a5,80003b12 <svd_core+0x1b06>
    80003b10:	46a1                	li	a3,8
    80003b12:	00e05e63          	blez	a4,80003b2e <svd_core+0x1b22>
    80003b16:	fc863903          	ld	s2,-56(a2)
    80003b1a:	479d                	li	a5,7
    80003b1c:	0146cd63          	blt	a3,s4,80003b36 <svd_core+0x1b2a>
    80003b20:	fd063983          	ld	s3,-48(a2)
    80003b24:	0b469263          	bne	a3,s4,80003bc8 <svd_core+0x1bbc>
    80003b28:	4381                	li	t2,0
    80003b2a:	4301                	li	t1,0
    80003b2c:	a801                	j	80003b3c <svd_core+0x1b30>
    80003b2e:	4901                	li	s2,0
    80003b30:	479d                	li	a5,7
    80003b32:	ff46d7e3          	bge	a3,s4,80003b20 <svd_core+0x1b14>
    80003b36:	4381                	li	t2,0
    80003b38:	4301                	li	t1,0
    80003b3a:	4981                	li	s3,0
    80003b3c:	4b81                	li	s7,0
    80003b3e:	4e01                	li	t3,0
    80003b40:	4e81                	li	t4,0
    80003b42:	40ac06bb          	subw	a3,s8,a0
    80003b46:	36e1                	addiw	a3,a3,-8
    80003b48:	4721                	li	a4,8
    80003b4a:	88b6                	mv	a7,a3
    80003b4c:	00e6c363          	blt	a3,a4,80003b52 <svd_core+0x1b46>
    80003b50:	48a1                	li	a7,8
    80003b52:	00d05563          	blez	a3,80003b5c <svd_core+0x1b50>
    80003b56:	00863f03          	ld	t5,8(a2)
    80003b5a:	a011                	j	80003b5e <svd_core+0x1b52>
    80003b5c:	4f01                	li	t5,0
    80003b5e:	fc063083          	ld	ra,-64(a2)
    80003b62:	00063f83          	ld	t6,0(a2)
    80003b66:	0148c963          	blt	a7,s4,80003b78 <svd_core+0x1b6c>
    80003b6a:	01063283          	ld	t0,16(a2)
    80003b6e:	07489863          	bne	a7,s4,80003bde <svd_core+0x1bd2>
    80003b72:	4701                	li	a4,0
    80003b74:	4681                	li	a3,0
    80003b76:	a021                	j	80003b7e <svd_core+0x1b72>
    80003b78:	4701                	li	a4,0
    80003b7a:	4681                	li	a3,0
    80003b7c:	4281                	li	t0,0
    80003b7e:	4481                	li	s1,0
    80003b80:	4801                	li	a6,0
    80003b82:	4781                	li	a5,0
    80003b84:	65d3840b          	.insn	4, 0x65d3840b
    80003b88:	45c3040b          	.insn	4, 0x45c3040b
    80003b8c:	2579840b          	.insn	4, 0x2579840b
    80003b90:	4120847b          	.insn	4, 0x4120847b
    80003b94:	f20400d3          	fmv.d.x	ft1,s0
    80003b98:	6cf7070b          	.insn	4, 0x6cf7070b
    80003b9c:	4d06868b          	.insn	4, 0x4d06868b
    80003ba0:	2c92868b          	.insn	4, 0x2c92868b
    80003ba4:	c1ef86fb          	.insn	4, 0xc1ef86fb
    80003ba8:	0219f0d3          	fadd.d	ft1,fs3,ft1
    80003bac:	f2068153          	fmv.d.x	ft2,a3
    80003bb0:	0220f9d3          	fadd.d	fs3,ft1,ft2
    80003bb4:	0541                	addi	a0,a0,16
    80003bb6:	2589                	addiw	a1,a1,2
    80003bb8:	08060613          	addi	a2,a2,128
    80003bbc:	73ca                	ld	t2,176(sp)
    80003bbe:	66c6                	ld	a3,80(sp)
    80003bc0:	40a1                	li	ra,8
    80003bc2:	f4d591e3          	bne	a1,a3,80003b04 <svd_core+0x1af8>
    80003bc6:	bdc5                	j	80003ab6 <svd_core+0x1aaa>
    80003bc8:	fd863b83          	ld	s7,-40(a2)
    80003bcc:	4715                	li	a4,5
    80003bce:	02e6e163          	bltu	a3,a4,80003bf0 <svd_core+0x1be4>
    80003bd2:	fe063303          	ld	t1,-32(a2)
    80003bd6:	02e69363          	bne	a3,a4,80003bfc <svd_core+0x1bf0>
    80003bda:	4381                	li	t2,0
    80003bdc:	b78d                	j	80003b3e <svd_core+0x1b32>
    80003bde:	6e04                	ld	s1,24(a2)
    80003be0:	4715                	li	a4,5
    80003be2:	00e8ea63          	bltu	a7,a4,80003bf6 <svd_core+0x1bea>
    80003be6:	7214                	ld	a3,32(a2)
    80003be8:	02e89563          	bne	a7,a4,80003c12 <svd_core+0x1c06>
    80003bec:	4701                	li	a4,0
    80003bee:	bf49                	j	80003b80 <svd_core+0x1b74>
    80003bf0:	4381                	li	t2,0
    80003bf2:	4301                	li	t1,0
    80003bf4:	b7a9                	j	80003b3e <svd_core+0x1b32>
    80003bf6:	4701                	li	a4,0
    80003bf8:	4681                	li	a3,0
    80003bfa:	b759                	j	80003b80 <svd_core+0x1b74>
    80003bfc:	fe863e03          	ld	t3,-24(a2)
    80003c00:	02f6e263          	bltu	a3,a5,80003c24 <svd_core+0x1c18>
    80003c04:	ff063383          	ld	t2,-16(a2)
    80003c08:	f2f68ce3          	beq	a3,a5,80003b40 <svd_core+0x1b34>
    80003c0c:	ff863e83          	ld	t4,-8(a2)
    80003c10:	bf0d                	j	80003b42 <svd_core+0x1b36>
    80003c12:	02863803          	ld	a6,40(a2)
    80003c16:	00f8e963          	bltu	a7,a5,80003c28 <svd_core+0x1c1c>
    80003c1a:	7a18                	ld	a4,48(a2)
    80003c1c:	f6f883e3          	beq	a7,a5,80003b82 <svd_core+0x1b76>
    80003c20:	7e1c                	ld	a5,56(a2)
    80003c22:	b78d                	j	80003b84 <svd_core+0x1b78>
    80003c24:	4381                	li	t2,0
    80003c26:	bf29                	j	80003b40 <svd_core+0x1b34>
    80003c28:	4701                	li	a4,0
    80003c2a:	bfa1                	j	80003b82 <svd_core+0x1b76>
    80003c2c:	4801                	li	a6,0
    80003c2e:	eb47d8e3          	bge	a5,s4,80003ade <svd_core+0x1ad2>
    80003c32:	4481                	li	s1,0
    80003c34:	4701                	li	a4,0
    80003c36:	4601                	li	a2,0
    80003c38:	4681                	li	a3,0
    80003c3a:	4581                	li	a1,0
    80003c3c:	4781                	li	a5,0
    80003c3e:	9556                	add	a0,a0,s5
    80003c40:	6108                	ld	a0,0(a0)
    80003c42:	64f4878b          	.insn	4, 0x64f4878b
    80003c46:	44b7058b          	.insn	4, 0x44b7058b
    80003c4a:	24d6058b          	.insn	4, 0x24d6058b
    80003c4e:	4105057b          	.insn	4, 0x4105057b
    80003c52:	f20500d3          	fmv.d.x	ft1,a0
    80003c56:	0219f9d3          	fadd.d	fs3,fs3,ft1
    80003c5a:	0b29f0d3          	fsub.d	ft1,fs3,fs2
    80003c5e:	a2009553          	flt.d	a0,ft1,ft0
    80003c62:	c119                	beqz	a0,80003c68 <svd_core+0x1c5c>
    80003c64:	221090d3          	fneg.d	ft1,ft1
    80003c68:	6bca                	ld	s7,144(sp)
    80003c6a:	65aa                	ld	a1,136(sp)
    80003c6c:	a2909553          	flt.d	a0,ft1,fs1
    80003c70:	23290a53          	fmv.d	fs4,fs2
    80003c74:	c119                	beqz	a0,80003c7a <svd_core+0x1c6e>
    80003c76:	4bd0906f          	j	8000d932 <svd_core+0xb926>
    80003c7a:	4281                	li	t0,0
    80003c7c:	4889                	li	a7,2
    80003c7e:	50010813          	addi	a6,sp,1280
    80003c82:	a831                	j	80003c9e <svd_core+0x1c92>
    80003c84:	1b307053          	fdiv.d	ft0,ft0,fs3
    80003c88:	00329513          	slli	a0,t0,0x3
    80003c8c:	9566                	add	a0,a0,s9
    80003c8e:	00053027          	fsd	ft0,0(a0)
    80003c92:	0285                	addi	t0,t0,1
    80003c94:	756a                	ld	a0,184(sp)
    80003c96:	982a                	add	a6,a6,a0
    80003c98:	98e2                	add	a7,a7,s8
    80003c9a:	24728f63          	beq	t0,t2,80003ef8 <svd_core+0x1eec>
    80003c9e:	001c4c63          	blt	s8,ra,80003cb6 <svd_core+0x1caa>
    80003ca2:	650a                	ld	a0,128(sp)
    80003ca4:	00157d63          	bgeu	a0,ra,80003cbe <svd_core+0x1cb2>
    80003ca8:	4301                	li	t1,0
    80003caa:	f2000053          	fmv.d.x	ft0,zero
    80003cae:	461d                	li	a2,7
    80003cb0:	100b9863          	bnez	s7,80003dc0 <svd_core+0x1db4>
    80003cb4:	aa45                	j	80003e64 <svd_core+0x1e58>
    80003cb6:	f2000053          	fmv.d.x	ft0,zero
    80003cba:	4301                	li	t1,0
    80003cbc:	a265                	j	80003e64 <svd_core+0x1e58>
    80003cbe:	4301                	li	t1,0
    80003cc0:	4701                	li	a4,0
    80003cc2:	f2000053          	fmv.d.x	ft0,zero
    80003cc6:	021c                	addi	a5,sp,256
    80003cc8:	8642                	mv	a2,a6
    80003cca:	70aa                	ld	ra,168(sp)
    80003ccc:	fc063383          	ld	t2,-64(a2)
    80003cd0:	fc863e83          	ld	t4,-56(a2)
    80003cd4:	fd063e03          	ld	t3,-48(a2)
    80003cd8:	fd863f03          	ld	t5,-40(a2)
    80003cdc:	fe063f83          	ld	t6,-32(a2)
    80003ce0:	fe863983          	ld	s3,-24(a2)
    80003ce4:	ff063903          	ld	s2,-16(a2)
    80003ce8:	ff863b03          	ld	s6,-8(a2)
    80003cec:	fc07ba03          	ld	s4,-64(a5)
    80003cf0:	fc87bc03          	ld	s8,-56(a5)
    80003cf4:	fd07bb83          	ld	s7,-48(a5)
    80003cf8:	fd87b403          	ld	s0,-40(a5)
    80003cfc:	fe07bc83          	ld	s9,-32(a5)
    80003d00:	fe87b483          	ld	s1,-24(a5)
    80003d04:	ff07b583          	ld	a1,-16(a5)
    80003d08:	ff87b683          	ld	a3,-8(a5)
    80003d0c:	01d3850b          	.insn	4, 0x01d3850b
    80003d10:	21ee050b          	.insn	4, 0x21ee050b
    80003d14:	413f850b          	.insn	4, 0x413f850b
    80003d18:	6169050b          	.insn	4, 0x6169050b
    80003d1c:	818a050b          	.insn	4, 0x818a050b
    80003d20:	a08b850b          	.insn	4, 0xa08b850b
    80003d24:	c09c850b          	.insn	4, 0xc09c850b
    80003d28:	1cd583fb          	.insn	4, 0x1cd583fb
    80003d2c:	00063e03          	ld	t3,0(a2)
    80003d30:	00863e83          	ld	t4,8(a2)
    80003d34:	01063f03          	ld	t5,16(a2)
    80003d38:	01863903          	ld	s2,24(a2)
    80003d3c:	02063f83          	ld	t6,32(a2)
    80003d40:	02863983          	ld	s3,40(a2)
    80003d44:	03063a03          	ld	s4,48(a2)
    80003d48:	03863b83          	ld	s7,56(a2)
    80003d4c:	0007bb03          	ld	s6,0(a5)
    80003d50:	0087bc83          	ld	s9,8(a5)
    80003d54:	0107bc03          	ld	s8,16(a5)
    80003d58:	6f94                	ld	a3,24(a5)
    80003d5a:	0207bd83          	ld	s11,32(a5)
    80003d5e:	7784                	ld	s1,40(a5)
    80003d60:	7b8c                	ld	a1,48(a5)
    80003d62:	7f80                	ld	s0,56(a5)
    80003d64:	f20380d3          	fmv.d.x	ft1,t2
    80003d68:	09de050b          	.insn	4, 0x09de050b
    80003d6c:	292f050b          	.insn	4, 0x292f050b
    80003d70:	493f850b          	.insn	4, 0x493f850b
    80003d74:	697a050b          	.insn	4, 0x697a050b
    80003d78:	899b050b          	.insn	4, 0x899b050b
    80003d7c:	a8dc050b          	.insn	4, 0xa8dc050b
    80003d80:	c89d850b          	.insn	4, 0xc89d850b
    80003d84:	9c85857b          	.insn	4, 0x9c85857b
    80003d88:	02107053          	fadd.d	ft0,ft0,ft1
    80003d8c:	f20500d3          	fmv.d.x	ft1,a0
    80003d90:	02107053          	fadd.d	ft0,ft0,ft1
    80003d94:	0341                	addi	t1,t1,16
    80003d96:	2709                	addiw	a4,a4,2
    80003d98:	08060613          	addi	a2,a2,128
    80003d9c:	08078793          	addi	a5,a5,128
    80003da0:	f21716e3          	bne	a4,ra,80003ccc <svd_core+0x1cc0>
    80003da4:	00730613          	addi	a2,t1,7
    80003da8:	7c46                	ld	s8,112(sp)
    80003daa:	65aa                	ld	a1,136(sp)
    80003dac:	2c010c93          	addi	s9,sp,704
    80003db0:	4d85                	li	s11,1
    80003db2:	40a1                	li	ra,8
    80003db4:	4a09                	li	s4,2
    80003db6:	4b0d                	li	s6,3
    80003db8:	73ca                	ld	t2,176(sp)
    80003dba:	6bca                	ld	s7,144(sp)
    80003dbc:	0a0b8463          	beqz	s7,80003e64 <svd_core+0x1e58>
    80003dc0:	03828533          	mul	a0,t0,s8
    80003dc4:	951a                	add	a0,a0,t1
    80003dc6:	050e                	slli	a0,a0,0x3
    80003dc8:	4c010593          	addi	a1,sp,1216
    80003dcc:	952e                	add	a0,a0,a1
    80003dce:	00053383          	ld	t2,0(a0)
    80003dd2:	00853e03          	ld	t3,8(a0)
    80003dd6:	01053e83          	ld	t4,16(a0)
    80003dda:	01853f03          	ld	t5,24(a0)
    80003dde:	02053f83          	ld	t6,32(a0)
    80003de2:	02853983          	ld	s3,40(a0)
    80003de6:	03053903          	ld	s2,48(a0)
    80003dea:	03853a03          	ld	s4,56(a0)
    80003dee:	00331693          	slli	a3,t1,0x3
    80003df2:	00da8733          	add	a4,s5,a3
    80003df6:	00073b03          	ld	s6,0(a4)
    80003dfa:	0086e793          	ori	a5,a3,8
    80003dfe:	97d6                	add	a5,a5,s5
    80003e00:	639c                	ld	a5,0(a5)
    80003e02:	0106e493          	ori	s1,a3,16
    80003e06:	94d6                	add	s1,s1,s5
    80003e08:	6084                	ld	s1,0(s1)
    80003e0a:	0186e593          	ori	a1,a3,24
    80003e0e:	95d6                	add	a1,a1,s5
    80003e10:	618c                	ld	a1,0(a1)
    80003e12:	0206e413          	ori	s0,a3,32
    80003e16:	9456                	add	s0,s0,s5
    80003e18:	6000                	ld	s0,0(s0)
    80003e1a:	0286e513          	ori	a0,a3,40
    80003e1e:	9556                	add	a0,a0,s5
    80003e20:	6108                	ld	a0,0(a0)
    80003e22:	0306e693          	ori	a3,a3,48
    80003e26:	96d6                	add	a3,a3,s5
    80003e28:	6294                	ld	a3,0(a3)
    80003e2a:	060e                	slli	a2,a2,0x3
    80003e2c:	9656                	add	a2,a2,s5
    80003e2e:	6210                	ld	a2,0(a2)
    80003e30:	01c3870b          	.insn	4, 0x01c3870b
    80003e34:	6bca                	ld	s7,144(sp)
    80003e36:	73ca                	ld	t2,176(sp)
    80003e38:	21ee870b          	.insn	4, 0x21ee870b
    80003e3c:	413f870b          	.insn	4, 0x413f870b
    80003e40:	6149070b          	.insn	4, 0x6149070b
    80003e44:	4a09                	li	s4,2
    80003e46:	80fb070b          	.insn	4, 0x80fb070b
    80003e4a:	4b0d                	li	s6,3
    80003e4c:	a0b4858b          	.insn	4, 0xa0b4858b
    80003e50:	65aa                	ld	a1,136(sp)
    80003e52:	c0a4050b          	.insn	4, 0xc0a4050b
    80003e56:	1cc6857b          	.insn	4, 0x1cc6857b
    80003e5a:	f20500d3          	fmv.d.x	ft1,a0
    80003e5e:	02107053          	fadd.d	ft0,ft0,ft1
    80003e62:	0321                	addi	t1,t1,8
    80003e64:	0003069b          	sext.w	a3,t1
    80003e68:	e186dee3          	bge	a3,s8,80003c84 <svd_core+0x1c78>
    80003e6c:	00368613          	addi	a2,a3,3
    80003e70:	00d88533          	add	a0,a7,a3
    80003e74:	050e                	slli	a0,a0,0x3
    80003e76:	4c010693          	addi	a3,sp,1216
    80003e7a:	96aa                	add	a3,a3,a0
    80003e7c:	ffd60513          	addi	a0,a2,-3
    80003e80:	ff06b087          	fld	ft1,-16(a3)
    80003e84:	01a57533          	and	a0,a0,s10
    80003e88:	050e                	slli	a0,a0,0x3
    80003e8a:	9556                	add	a0,a0,s5
    80003e8c:	00053107          	fld	ft2,0(a0)
    80003e90:	0220f043          	fmadd.d	ft0,ft1,ft2,ft0
    80003e94:	00c58733          	add	a4,a1,a2
    80003e98:	df4706e3          	beq	a4,s4,80003c84 <svd_core+0x1c78>
    80003e9c:	ffe60513          	addi	a0,a2,-2
    80003ea0:	ff86b087          	fld	ft1,-8(a3)
    80003ea4:	01a57533          	and	a0,a0,s10
    80003ea8:	050e                	slli	a0,a0,0x3
    80003eaa:	9556                	add	a0,a0,s5
    80003eac:	00053107          	fld	ft2,0(a0)
    80003eb0:	0220f043          	fmadd.d	ft0,ft1,ft2,ft0
    80003eb4:	ddb708e3          	beq	a4,s11,80003c84 <svd_core+0x1c78>
    80003eb8:	fff60513          	addi	a0,a2,-1
    80003ebc:	0006b087          	fld	ft1,0(a3)
    80003ec0:	01a57533          	and	a0,a0,s10
    80003ec4:	050e                	slli	a0,a0,0x3
    80003ec6:	9556                	add	a0,a0,s5
    80003ec8:	00053107          	fld	ft2,0(a0)
    80003ecc:	0220f043          	fmadd.d	ft0,ft1,ft2,ft0
    80003ed0:	da070ae3          	beqz	a4,80003c84 <svd_core+0x1c78>
    80003ed4:	0086b087          	fld	ft1,8(a3)
    80003ed8:	01a67533          	and	a0,a2,s10
    80003edc:	050e                	slli	a0,a0,0x3
    80003ede:	9556                	add	a0,a0,s5
    80003ee0:	00053107          	fld	ft2,0(a0)
    80003ee4:	0220f043          	fmadd.d	ft0,ft1,ft2,ft0
    80003ee8:	0611                	addi	a2,a2,4
    80003eea:	00c58533          	add	a0,a1,a2
    80003eee:	02068693          	addi	a3,a3,32
    80003ef2:	f96515e3          	bne	a0,s6,80003e7c <svd_core+0x1e70>
    80003ef6:	b379                	j	80003c84 <svd_core+0x1c78>
    80003ef8:	0188                	addi	a0,sp,192
    80003efa:	20000613          	li	a2,512
    80003efe:	4581                	li	a1,0
    80003f00:	0000a097          	auipc	ra,0xa
    80003f04:	14a080e7          	jalr	330(ra) # 8000e04a <memset>
    80003f08:	40a1                	li	ra,8
    80003f0a:	73ca                	ld	t2,176(sp)
    80003f0c:	f2000053          	fmv.d.x	ft0,zero
    80003f10:	22000953          	fmv.d	fs2,ft0
    80003f14:	77a6                	ld	a5,104(sp)
    80003f16:	43805763          	blez	s8,80004344 <svd_core+0x2338>
    80003f1a:	4281                	li	t0,0
    80003f1c:	4889                	li	a7,2
    80003f1e:	6806                	ld	a6,64(sp)
    80003f20:	a829                	j	80003f3a <svd_core+0x1f2e>
    80003f22:	00329513          	slli	a0,t0,0x3
    80003f26:	9556                	add	a0,a0,s5
    80003f28:	00153027          	fsd	ft1,0(a0)
    80003f2c:	0285                	addi	t0,t0,1
    80003f2e:	750a                	ld	a0,160(sp)
    80003f30:	982a                	add	a6,a6,a0
    80003f32:	989e                	add	a7,a7,t2
    80003f34:	656a                	ld	a0,152(sp)
    80003f36:	24a28d63          	beq	t0,a0,80004190 <svd_core+0x2184>
    80003f3a:	0013ed63          	bltu	t2,ra,80003f54 <svd_core+0x1f48>
    80003f3e:	7506                	ld	a0,96(sp)
    80003f40:	00157e63          	bgeu	a0,ra,80003f5c <svd_core+0x1f50>
    80003f44:	4301                	li	t1,0
    80003f46:	f20000d3          	fmv.d.x	ft1,zero
    80003f4a:	461d                	li	a2,7
    80003f4c:	6566                	ld	a0,88(sp)
    80003f4e:	10051763          	bnez	a0,8000405c <svd_core+0x2050>
    80003f52:	a26d                	j	800040fc <svd_core+0x20f0>
    80003f54:	f20000d3          	fmv.d.x	ft1,zero
    80003f58:	4301                	li	t1,0
    80003f5a:	a24d                	j	800040fc <svd_core+0x20f0>
    80003f5c:	4301                	li	t1,0
    80003f5e:	4701                	li	a4,0
    80003f60:	f20000d3          	fmv.d.x	ft1,zero
    80003f64:	061c                	addi	a5,sp,768
    80003f66:	8642                	mv	a2,a6
    80003f68:	60a6                	ld	ra,72(sp)
    80003f6a:	fc063383          	ld	t2,-64(a2)
    80003f6e:	fc863e83          	ld	t4,-56(a2)
    80003f72:	fd063e03          	ld	t3,-48(a2)
    80003f76:	fd863f03          	ld	t5,-40(a2)
    80003f7a:	fe063f83          	ld	t6,-32(a2)
    80003f7e:	fe863983          	ld	s3,-24(a2)
    80003f82:	ff063903          	ld	s2,-16(a2)
    80003f86:	ff863b03          	ld	s6,-8(a2)
    80003f8a:	fc07ba03          	ld	s4,-64(a5)
    80003f8e:	fc87bc03          	ld	s8,-56(a5)
    80003f92:	fd07bb83          	ld	s7,-48(a5)
    80003f96:	fd87b403          	ld	s0,-40(a5)
    80003f9a:	fe07bc83          	ld	s9,-32(a5)
    80003f9e:	fe87b483          	ld	s1,-24(a5)
    80003fa2:	ff07b583          	ld	a1,-16(a5)
    80003fa6:	ff87b683          	ld	a3,-8(a5)
    80003faa:	01d3850b          	.insn	4, 0x01d3850b
    80003fae:	21ee050b          	.insn	4, 0x21ee050b
    80003fb2:	413f850b          	.insn	4, 0x413f850b
    80003fb6:	6169050b          	.insn	4, 0x6169050b
    80003fba:	818a050b          	.insn	4, 0x818a050b
    80003fbe:	a08b850b          	.insn	4, 0xa08b850b
    80003fc2:	c09c850b          	.insn	4, 0xc09c850b
    80003fc6:	1cd583fb          	.insn	4, 0x1cd583fb
    80003fca:	00063e03          	ld	t3,0(a2)
    80003fce:	00863e83          	ld	t4,8(a2)
    80003fd2:	01063f03          	ld	t5,16(a2)
    80003fd6:	01863903          	ld	s2,24(a2)
    80003fda:	02063f83          	ld	t6,32(a2)
    80003fde:	02863983          	ld	s3,40(a2)
    80003fe2:	03063a03          	ld	s4,48(a2)
    80003fe6:	03863b83          	ld	s7,56(a2)
    80003fea:	0007bb03          	ld	s6,0(a5)
    80003fee:	0087bc83          	ld	s9,8(a5)
    80003ff2:	0107bc03          	ld	s8,16(a5)
    80003ff6:	6f94                	ld	a3,24(a5)
    80003ff8:	0207bd83          	ld	s11,32(a5)
    80003ffc:	7784                	ld	s1,40(a5)
    80003ffe:	7b8c                	ld	a1,48(a5)
    80004000:	7f80                	ld	s0,56(a5)
    80004002:	f2038153          	fmv.d.x	ft2,t2
    80004006:	09de050b          	.insn	4, 0x09de050b
    8000400a:	292f050b          	.insn	4, 0x292f050b
    8000400e:	493f850b          	.insn	4, 0x493f850b
    80004012:	697a050b          	.insn	4, 0x697a050b
    80004016:	899b050b          	.insn	4, 0x899b050b
    8000401a:	a8dc050b          	.insn	4, 0xa8dc050b
    8000401e:	c89d850b          	.insn	4, 0xc89d850b
    80004022:	9c85857b          	.insn	4, 0x9c85857b
    80004026:	0220f0d3          	fadd.d	ft1,ft1,ft2
    8000402a:	f2050153          	fmv.d.x	ft2,a0
    8000402e:	0220f0d3          	fadd.d	ft1,ft1,ft2
    80004032:	0341                	addi	t1,t1,16
    80004034:	2709                	addiw	a4,a4,2
    80004036:	08060613          	addi	a2,a2,128
    8000403a:	08078793          	addi	a5,a5,128
    8000403e:	f21716e3          	bne	a4,ra,80003f6a <svd_core+0x1f5e>
    80004042:	00730613          	addi	a2,t1,7
    80004046:	7c46                	ld	s8,112(sp)
    80004048:	77a6                	ld	a5,104(sp)
    8000404a:	2c010c93          	addi	s9,sp,704
    8000404e:	4d85                	li	s11,1
    80004050:	40a1                	li	ra,8
    80004052:	4a09                	li	s4,2
    80004054:	4b0d                	li	s6,3
    80004056:	73ca                	ld	t2,176(sp)
    80004058:	6566                	ld	a0,88(sp)
    8000405a:	c14d                	beqz	a0,800040fc <svd_core+0x20f0>
    8000405c:	02728533          	mul	a0,t0,t2
    80004060:	951a                	add	a0,a0,t1
    80004062:	050e                	slli	a0,a0,0x3
    80004064:	75e6                	ld	a1,120(sp)
    80004066:	952e                	add	a0,a0,a1
    80004068:	00053383          	ld	t2,0(a0)
    8000406c:	00853e03          	ld	t3,8(a0)
    80004070:	01053e83          	ld	t4,16(a0)
    80004074:	01853f03          	ld	t5,24(a0)
    80004078:	02053f83          	ld	t6,32(a0)
    8000407c:	02853983          	ld	s3,40(a0)
    80004080:	03053903          	ld	s2,48(a0)
    80004084:	03853a03          	ld	s4,56(a0)
    80004088:	00331693          	slli	a3,t1,0x3
    8000408c:	00dc8733          	add	a4,s9,a3
    80004090:	00073b03          	ld	s6,0(a4)
    80004094:	0086e793          	ori	a5,a3,8
    80004098:	97e6                	add	a5,a5,s9
    8000409a:	639c                	ld	a5,0(a5)
    8000409c:	0106e493          	ori	s1,a3,16
    800040a0:	94e6                	add	s1,s1,s9
    800040a2:	6084                	ld	s1,0(s1)
    800040a4:	0186e593          	ori	a1,a3,24
    800040a8:	95e6                	add	a1,a1,s9
    800040aa:	618c                	ld	a1,0(a1)
    800040ac:	0206e413          	ori	s0,a3,32
    800040b0:	9466                	add	s0,s0,s9
    800040b2:	6000                	ld	s0,0(s0)
    800040b4:	0286e513          	ori	a0,a3,40
    800040b8:	9566                	add	a0,a0,s9
    800040ba:	6108                	ld	a0,0(a0)
    800040bc:	0306e693          	ori	a3,a3,48
    800040c0:	96e6                	add	a3,a3,s9
    800040c2:	6294                	ld	a3,0(a3)
    800040c4:	060e                	slli	a2,a2,0x3
    800040c6:	9666                	add	a2,a2,s9
    800040c8:	6210                	ld	a2,0(a2)
    800040ca:	01c3870b          	.insn	4, 0x01c3870b
    800040ce:	73ca                	ld	t2,176(sp)
    800040d0:	21ee870b          	.insn	4, 0x21ee870b
    800040d4:	413f870b          	.insn	4, 0x413f870b
    800040d8:	6149070b          	.insn	4, 0x6149070b
    800040dc:	4a09                	li	s4,2
    800040de:	80fb070b          	.insn	4, 0x80fb070b
    800040e2:	4b0d                	li	s6,3
    800040e4:	77a6                	ld	a5,104(sp)
    800040e6:	a0b4858b          	.insn	4, 0xa0b4858b
    800040ea:	c0a4050b          	.insn	4, 0xc0a4050b
    800040ee:	1cc6857b          	.insn	4, 0x1cc6857b
    800040f2:	f2050153          	fmv.d.x	ft2,a0
    800040f6:	0220f0d3          	fadd.d	ft1,ft1,ft2
    800040fa:	0321                	addi	t1,t1,8
    800040fc:	0003069b          	sext.w	a3,t1
    80004100:	e276d1e3          	bge	a3,t2,80003f22 <svd_core+0x1f16>
    80004104:	00368613          	addi	a2,a3,3
    80004108:	00d88533          	add	a0,a7,a3
    8000410c:	050e                	slli	a0,a0,0x3
    8000410e:	75e6                	ld	a1,120(sp)
    80004110:	00a586b3          	add	a3,a1,a0
    80004114:	ffd60513          	addi	a0,a2,-3
    80004118:	ff06b107          	fld	ft2,-16(a3)
    8000411c:	01a57533          	and	a0,a0,s10
    80004120:	050e                	slli	a0,a0,0x3
    80004122:	9566                	add	a0,a0,s9
    80004124:	00053187          	fld	ft3,0(a0)
    80004128:	0a3170c3          	fmadd.d	ft1,ft2,ft3,ft1
    8000412c:	00c78733          	add	a4,a5,a2
    80004130:	df4709e3          	beq	a4,s4,80003f22 <svd_core+0x1f16>
    80004134:	ffe60513          	addi	a0,a2,-2
    80004138:	ff86b107          	fld	ft2,-8(a3)
    8000413c:	01a57533          	and	a0,a0,s10
    80004140:	050e                	slli	a0,a0,0x3
    80004142:	9566                	add	a0,a0,s9
    80004144:	00053187          	fld	ft3,0(a0)
    80004148:	0a3170c3          	fmadd.d	ft1,ft2,ft3,ft1
    8000414c:	ddb70be3          	beq	a4,s11,80003f22 <svd_core+0x1f16>
    80004150:	fff60513          	addi	a0,a2,-1
    80004154:	0006b107          	fld	ft2,0(a3)
    80004158:	01a57533          	and	a0,a0,s10
    8000415c:	050e                	slli	a0,a0,0x3
    8000415e:	9566                	add	a0,a0,s9
    80004160:	00053187          	fld	ft3,0(a0)
    80004164:	0a3170c3          	fmadd.d	ft1,ft2,ft3,ft1
    80004168:	da070de3          	beqz	a4,80003f22 <svd_core+0x1f16>
    8000416c:	0086b107          	fld	ft2,8(a3)
    80004170:	01a67533          	and	a0,a2,s10
    80004174:	050e                	slli	a0,a0,0x3
    80004176:	9566                	add	a0,a0,s9
    80004178:	00053187          	fld	ft3,0(a0)
    8000417c:	0a3170c3          	fmadd.d	ft1,ft2,ft3,ft1
    80004180:	0611                	addi	a2,a2,4
    80004182:	00c78533          	add	a0,a5,a2
    80004186:	02068693          	addi	a3,a3,32
    8000418a:	f96515e3          	bne	a0,s6,80004114 <svd_core+0x2108>
    8000418e:	bb51                	j	80003f22 <svd_core+0x1f16>
    80004190:	05805763          	blez	s8,800041de <svd_core+0x21d2>
    80004194:	7542                	ld	a0,48(sp)
    80004196:	04157763          	bgeu	a0,ra,800041e4 <svd_core+0x21d8>
    8000419a:	f2000953          	fmv.d.x	fs2,zero
    8000419e:	4501                	li	a0,0
    800041a0:	75a2                	ld	a1,40(sp)
    800041a2:	1a058163          	beqz	a1,80004344 <svd_core+0x2338>
    800041a6:	40ac05bb          	subw	a1,s8,a0
    800041aa:	4621                	li	a2,8
    800041ac:	87ae                	mv	a5,a1
    800041ae:	00c5c363          	blt	a1,a2,800041b4 <svd_core+0x21a8>
    800041b2:	47a1                	li	a5,8
    800041b4:	050e                	slli	a0,a0,0x3
    800041b6:	16b05063          	blez	a1,80004316 <svd_core+0x230a>
    800041ba:	00856593          	ori	a1,a0,8
    800041be:	95d6                	add	a1,a1,s5
    800041c0:	0005b803          	ld	a6,0(a1)
    800041c4:	1547cc63          	blt	a5,s4,8000431c <svd_core+0x2310>
    800041c8:	01056593          	ori	a1,a0,16
    800041cc:	95d6                	add	a1,a1,s5
    800041ce:	6190                	ld	a2,0(a1)
    800041d0:	01478463          	beq	a5,s4,800041d8 <svd_core+0x21cc>
    800041d4:	3c50506f          	j	80009d98 <svd_core+0x7d8c>
    800041d8:	4481                	li	s1,0
    800041da:	4701                	li	a4,0
    800041dc:	a299                	j	80004322 <svd_core+0x2316>
    800041de:	f2000953          	fmv.d.x	fs2,zero
    800041e2:	a28d                	j	80004344 <svd_core+0x2338>
    800041e4:	4501                	li	a0,0
    800041e6:	4581                	li	a1,0
    800041e8:	f2000953          	fmv.d.x	fs2,zero
    800041ec:	0210                	addi	a2,sp,256
    800041ee:	40ac073b          	subw	a4,s8,a0
    800041f2:	47a1                	li	a5,8
    800041f4:	86ba                	mv	a3,a4
    800041f6:	00f74363          	blt	a4,a5,800041fc <svd_core+0x21f0>
    800041fa:	46a1                	li	a3,8
    800041fc:	00e05e63          	blez	a4,80004218 <svd_core+0x220c>
    80004200:	fc863903          	ld	s2,-56(a2)
    80004204:	479d                	li	a5,7
    80004206:	0146cd63          	blt	a3,s4,80004220 <svd_core+0x2214>
    8000420a:	fd063983          	ld	s3,-48(a2)
    8000420e:	0b469263          	bne	a3,s4,800042b2 <svd_core+0x22a6>
    80004212:	4381                	li	t2,0
    80004214:	4301                	li	t1,0
    80004216:	a801                	j	80004226 <svd_core+0x221a>
    80004218:	4901                	li	s2,0
    8000421a:	479d                	li	a5,7
    8000421c:	ff46d7e3          	bge	a3,s4,8000420a <svd_core+0x21fe>
    80004220:	4381                	li	t2,0
    80004222:	4301                	li	t1,0
    80004224:	4981                	li	s3,0
    80004226:	4b81                	li	s7,0
    80004228:	4e01                	li	t3,0
    8000422a:	4e81                	li	t4,0
    8000422c:	40ac06bb          	subw	a3,s8,a0
    80004230:	36e1                	addiw	a3,a3,-8
    80004232:	4721                	li	a4,8
    80004234:	88b6                	mv	a7,a3
    80004236:	00e6c363          	blt	a3,a4,8000423c <svd_core+0x2230>
    8000423a:	48a1                	li	a7,8
    8000423c:	00d05563          	blez	a3,80004246 <svd_core+0x223a>
    80004240:	00863f03          	ld	t5,8(a2)
    80004244:	a011                	j	80004248 <svd_core+0x223c>
    80004246:	4f01                	li	t5,0
    80004248:	fc063083          	ld	ra,-64(a2)
    8000424c:	00063f83          	ld	t6,0(a2)
    80004250:	0148c963          	blt	a7,s4,80004262 <svd_core+0x2256>
    80004254:	01063283          	ld	t0,16(a2)
    80004258:	07489863          	bne	a7,s4,800042c8 <svd_core+0x22bc>
    8000425c:	4701                	li	a4,0
    8000425e:	4681                	li	a3,0
    80004260:	a021                	j	80004268 <svd_core+0x225c>
    80004262:	4701                	li	a4,0
    80004264:	4681                	li	a3,0
    80004266:	4281                	li	t0,0
    80004268:	4481                	li	s1,0
    8000426a:	4801                	li	a6,0
    8000426c:	4781                	li	a5,0
    8000426e:	65d3840b          	.insn	4, 0x65d3840b
    80004272:	45c3040b          	.insn	4, 0x45c3040b
    80004276:	2579840b          	.insn	4, 0x2579840b
    8000427a:	4120847b          	.insn	4, 0x4120847b
    8000427e:	f20400d3          	fmv.d.x	ft1,s0
    80004282:	6cf7070b          	.insn	4, 0x6cf7070b
    80004286:	4d06868b          	.insn	4, 0x4d06868b
    8000428a:	2c92868b          	.insn	4, 0x2c92868b
    8000428e:	c1ef86fb          	.insn	4, 0xc1ef86fb
    80004292:	021970d3          	fadd.d	ft1,fs2,ft1
    80004296:	f2068153          	fmv.d.x	ft2,a3
    8000429a:	0220f953          	fadd.d	fs2,ft1,ft2
    8000429e:	0541                	addi	a0,a0,16
    800042a0:	2589                	addiw	a1,a1,2
    800042a2:	08060613          	addi	a2,a2,128
    800042a6:	73ca                	ld	t2,176(sp)
    800042a8:	66c6                	ld	a3,80(sp)
    800042aa:	40a1                	li	ra,8
    800042ac:	f4d591e3          	bne	a1,a3,800041ee <svd_core+0x21e2>
    800042b0:	bdc5                	j	800041a0 <svd_core+0x2194>
    800042b2:	fd863b83          	ld	s7,-40(a2)
    800042b6:	4715                	li	a4,5
    800042b8:	02e6e163          	bltu	a3,a4,800042da <svd_core+0x22ce>
    800042bc:	fe063303          	ld	t1,-32(a2)
    800042c0:	02e69363          	bne	a3,a4,800042e6 <svd_core+0x22da>
    800042c4:	4381                	li	t2,0
    800042c6:	b78d                	j	80004228 <svd_core+0x221c>
    800042c8:	6e04                	ld	s1,24(a2)
    800042ca:	4715                	li	a4,5
    800042cc:	00e8ea63          	bltu	a7,a4,800042e0 <svd_core+0x22d4>
    800042d0:	7214                	ld	a3,32(a2)
    800042d2:	02e89563          	bne	a7,a4,800042fc <svd_core+0x22f0>
    800042d6:	4701                	li	a4,0
    800042d8:	bf49                	j	8000426a <svd_core+0x225e>
    800042da:	4381                	li	t2,0
    800042dc:	4301                	li	t1,0
    800042de:	b7a9                	j	80004228 <svd_core+0x221c>
    800042e0:	4701                	li	a4,0
    800042e2:	4681                	li	a3,0
    800042e4:	b759                	j	8000426a <svd_core+0x225e>
    800042e6:	fe863e03          	ld	t3,-24(a2)
    800042ea:	02f6e263          	bltu	a3,a5,8000430e <svd_core+0x2302>
    800042ee:	ff063383          	ld	t2,-16(a2)
    800042f2:	f2f68ce3          	beq	a3,a5,8000422a <svd_core+0x221e>
    800042f6:	ff863e83          	ld	t4,-8(a2)
    800042fa:	bf0d                	j	8000422c <svd_core+0x2220>
    800042fc:	02863803          	ld	a6,40(a2)
    80004300:	00f8e963          	bltu	a7,a5,80004312 <svd_core+0x2306>
    80004304:	7a18                	ld	a4,48(a2)
    80004306:	f6f883e3          	beq	a7,a5,8000426c <svd_core+0x2260>
    8000430a:	7e1c                	ld	a5,56(a2)
    8000430c:	b78d                	j	8000426e <svd_core+0x2262>
    8000430e:	4381                	li	t2,0
    80004310:	bf29                	j	8000422a <svd_core+0x221e>
    80004312:	4701                	li	a4,0
    80004314:	bfa1                	j	8000426c <svd_core+0x2260>
    80004316:	4801                	li	a6,0
    80004318:	eb47d8e3          	bge	a5,s4,800041c8 <svd_core+0x21bc>
    8000431c:	4481                	li	s1,0
    8000431e:	4701                	li	a4,0
    80004320:	4601                	li	a2,0
    80004322:	4681                	li	a3,0
    80004324:	4581                	li	a1,0
    80004326:	4781                	li	a5,0
    80004328:	9556                	add	a0,a0,s5
    8000432a:	6108                	ld	a0,0(a0)
    8000432c:	64f4878b          	.insn	4, 0x64f4878b
    80004330:	44b7058b          	.insn	4, 0x44b7058b
    80004334:	24d6058b          	.insn	4, 0x24d6058b
    80004338:	4105057b          	.insn	4, 0x4105057b
    8000433c:	f20500d3          	fmv.d.x	ft1,a0
    80004340:	02197953          	fadd.d	fs2,fs2,ft1
    80004344:	0b3970d3          	fsub.d	ft1,fs2,fs3
    80004348:	a2009553          	flt.d	a0,ft1,ft0
    8000434c:	c119                	beqz	a0,80004352 <svd_core+0x2346>
    8000434e:	221090d3          	fneg.d	ft1,ft1
    80004352:	6bca                	ld	s7,144(sp)
    80004354:	65aa                	ld	a1,136(sp)
    80004356:	a2909553          	flt.d	a0,ft1,fs1
    8000435a:	23398a53          	fmv.d	fs4,fs3
    8000435e:	c119                	beqz	a0,80004364 <svd_core+0x2358>
    80004360:	5d20906f          	j	8000d932 <svd_core+0xb926>
    80004364:	4281                	li	t0,0
    80004366:	4889                	li	a7,2
    80004368:	50010813          	addi	a6,sp,1280
    8000436c:	a831                	j	80004388 <svd_core+0x237c>
    8000436e:	1b207053          	fdiv.d	ft0,ft0,fs2
    80004372:	00329513          	slli	a0,t0,0x3
    80004376:	9566                	add	a0,a0,s9
    80004378:	00053027          	fsd	ft0,0(a0)
    8000437c:	0285                	addi	t0,t0,1
    8000437e:	756a                	ld	a0,184(sp)
    80004380:	982a                	add	a6,a6,a0
    80004382:	98e2                	add	a7,a7,s8
    80004384:	24728f63          	beq	t0,t2,800045e2 <svd_core+0x25d6>
    80004388:	001c4c63          	blt	s8,ra,800043a0 <svd_core+0x2394>
    8000438c:	650a                	ld	a0,128(sp)
    8000438e:	00157d63          	bgeu	a0,ra,800043a8 <svd_core+0x239c>
    80004392:	4301                	li	t1,0
    80004394:	f2000053          	fmv.d.x	ft0,zero
    80004398:	461d                	li	a2,7
    8000439a:	100b9863          	bnez	s7,800044aa <svd_core+0x249e>
    8000439e:	aa45                	j	8000454e <svd_core+0x2542>
    800043a0:	f2000053          	fmv.d.x	ft0,zero
    800043a4:	4301                	li	t1,0
    800043a6:	a265                	j	8000454e <svd_core+0x2542>
    800043a8:	4301                	li	t1,0
    800043aa:	4701                	li	a4,0
    800043ac:	f2000053          	fmv.d.x	ft0,zero
    800043b0:	021c                	addi	a5,sp,256
    800043b2:	8642                	mv	a2,a6
    800043b4:	70aa                	ld	ra,168(sp)
    800043b6:	fc063383          	ld	t2,-64(a2)
    800043ba:	fc863e83          	ld	t4,-56(a2)
    800043be:	fd063e03          	ld	t3,-48(a2)
    800043c2:	fd863f03          	ld	t5,-40(a2)
    800043c6:	fe063f83          	ld	t6,-32(a2)
    800043ca:	fe863983          	ld	s3,-24(a2)
    800043ce:	ff063903          	ld	s2,-16(a2)
    800043d2:	ff863b03          	ld	s6,-8(a2)
    800043d6:	fc07ba03          	ld	s4,-64(a5)
    800043da:	fc87bc03          	ld	s8,-56(a5)
    800043de:	fd07bb83          	ld	s7,-48(a5)
    800043e2:	fd87b403          	ld	s0,-40(a5)
    800043e6:	fe07bc83          	ld	s9,-32(a5)
    800043ea:	fe87b483          	ld	s1,-24(a5)
    800043ee:	ff07b583          	ld	a1,-16(a5)
    800043f2:	ff87b683          	ld	a3,-8(a5)
    800043f6:	01d3850b          	.insn	4, 0x01d3850b
    800043fa:	21ee050b          	.insn	4, 0x21ee050b
    800043fe:	413f850b          	.insn	4, 0x413f850b
    80004402:	6169050b          	.insn	4, 0x6169050b
    80004406:	818a050b          	.insn	4, 0x818a050b
    8000440a:	a08b850b          	.insn	4, 0xa08b850b
    8000440e:	c09c850b          	.insn	4, 0xc09c850b
    80004412:	1cd583fb          	.insn	4, 0x1cd583fb
    80004416:	00063e03          	ld	t3,0(a2)
    8000441a:	00863e83          	ld	t4,8(a2)
    8000441e:	01063f03          	ld	t5,16(a2)
    80004422:	01863903          	ld	s2,24(a2)
    80004426:	02063f83          	ld	t6,32(a2)
    8000442a:	02863983          	ld	s3,40(a2)
    8000442e:	03063a03          	ld	s4,48(a2)
    80004432:	03863b83          	ld	s7,56(a2)
    80004436:	0007bb03          	ld	s6,0(a5)
    8000443a:	0087bc83          	ld	s9,8(a5)
    8000443e:	0107bc03          	ld	s8,16(a5)
    80004442:	6f94                	ld	a3,24(a5)
    80004444:	0207bd83          	ld	s11,32(a5)
    80004448:	7784                	ld	s1,40(a5)
    8000444a:	7b8c                	ld	a1,48(a5)
    8000444c:	7f80                	ld	s0,56(a5)
    8000444e:	f20380d3          	fmv.d.x	ft1,t2
    80004452:	09de050b          	.insn	4, 0x09de050b
    80004456:	292f050b          	.insn	4, 0x292f050b
    8000445a:	493f850b          	.insn	4, 0x493f850b
    8000445e:	697a050b          	.insn	4, 0x697a050b
    80004462:	899b050b          	.insn	4, 0x899b050b
    80004466:	a8dc050b          	.insn	4, 0xa8dc050b
    8000446a:	c89d850b          	.insn	4, 0xc89d850b
    8000446e:	9c85857b          	.insn	4, 0x9c85857b
    80004472:	02107053          	fadd.d	ft0,ft0,ft1
    80004476:	f20500d3          	fmv.d.x	ft1,a0
    8000447a:	02107053          	fadd.d	ft0,ft0,ft1
    8000447e:	0341                	addi	t1,t1,16
    80004480:	2709                	addiw	a4,a4,2
    80004482:	08060613          	addi	a2,a2,128
    80004486:	08078793          	addi	a5,a5,128
    8000448a:	f21716e3          	bne	a4,ra,800043b6 <svd_core+0x23aa>
    8000448e:	00730613          	addi	a2,t1,7
    80004492:	7c46                	ld	s8,112(sp)
    80004494:	65aa                	ld	a1,136(sp)
    80004496:	2c010c93          	addi	s9,sp,704
    8000449a:	4d85                	li	s11,1
    8000449c:	40a1                	li	ra,8
    8000449e:	4a09                	li	s4,2
    800044a0:	4b0d                	li	s6,3
    800044a2:	73ca                	ld	t2,176(sp)
    800044a4:	6bca                	ld	s7,144(sp)
    800044a6:	0a0b8463          	beqz	s7,8000454e <svd_core+0x2542>
    800044aa:	03828533          	mul	a0,t0,s8
    800044ae:	951a                	add	a0,a0,t1
    800044b0:	050e                	slli	a0,a0,0x3
    800044b2:	4c010593          	addi	a1,sp,1216
    800044b6:	952e                	add	a0,a0,a1
    800044b8:	00053383          	ld	t2,0(a0)
    800044bc:	00853e03          	ld	t3,8(a0)
    800044c0:	01053e83          	ld	t4,16(a0)
    800044c4:	01853f03          	ld	t5,24(a0)
    800044c8:	02053f83          	ld	t6,32(a0)
    800044cc:	02853983          	ld	s3,40(a0)
    800044d0:	03053903          	ld	s2,48(a0)
    800044d4:	03853a03          	ld	s4,56(a0)
    800044d8:	00331693          	slli	a3,t1,0x3
    800044dc:	00da8733          	add	a4,s5,a3
    800044e0:	00073b03          	ld	s6,0(a4)
    800044e4:	0086e793          	ori	a5,a3,8
    800044e8:	97d6                	add	a5,a5,s5
    800044ea:	639c                	ld	a5,0(a5)
    800044ec:	0106e493          	ori	s1,a3,16
    800044f0:	94d6                	add	s1,s1,s5
    800044f2:	6084                	ld	s1,0(s1)
    800044f4:	0186e593          	ori	a1,a3,24
    800044f8:	95d6                	add	a1,a1,s5
    800044fa:	618c                	ld	a1,0(a1)
    800044fc:	0206e413          	ori	s0,a3,32
    80004500:	9456                	add	s0,s0,s5
    80004502:	6000                	ld	s0,0(s0)
    80004504:	0286e513          	ori	a0,a3,40
    80004508:	9556                	add	a0,a0,s5
    8000450a:	6108                	ld	a0,0(a0)
    8000450c:	0306e693          	ori	a3,a3,48
    80004510:	96d6                	add	a3,a3,s5
    80004512:	6294                	ld	a3,0(a3)
    80004514:	060e                	slli	a2,a2,0x3
    80004516:	9656                	add	a2,a2,s5
    80004518:	6210                	ld	a2,0(a2)
    8000451a:	01c3870b          	.insn	4, 0x01c3870b
    8000451e:	6bca                	ld	s7,144(sp)
    80004520:	73ca                	ld	t2,176(sp)
    80004522:	21ee870b          	.insn	4, 0x21ee870b
    80004526:	413f870b          	.insn	4, 0x413f870b
    8000452a:	6149070b          	.insn	4, 0x6149070b
    8000452e:	4a09                	li	s4,2
    80004530:	80fb070b          	.insn	4, 0x80fb070b
    80004534:	4b0d                	li	s6,3
    80004536:	a0b4858b          	.insn	4, 0xa0b4858b
    8000453a:	65aa                	ld	a1,136(sp)
    8000453c:	c0a4050b          	.insn	4, 0xc0a4050b
    80004540:	1cc6857b          	.insn	4, 0x1cc6857b
    80004544:	f20500d3          	fmv.d.x	ft1,a0
    80004548:	02107053          	fadd.d	ft0,ft0,ft1
    8000454c:	0321                	addi	t1,t1,8
    8000454e:	0003069b          	sext.w	a3,t1
    80004552:	e186dee3          	bge	a3,s8,8000436e <svd_core+0x2362>
    80004556:	00368613          	addi	a2,a3,3
    8000455a:	00d88533          	add	a0,a7,a3
    8000455e:	050e                	slli	a0,a0,0x3
    80004560:	4c010693          	addi	a3,sp,1216
    80004564:	96aa                	add	a3,a3,a0
    80004566:	ffd60513          	addi	a0,a2,-3
    8000456a:	ff06b087          	fld	ft1,-16(a3)
    8000456e:	01a57533          	and	a0,a0,s10
    80004572:	050e                	slli	a0,a0,0x3
    80004574:	9556                	add	a0,a0,s5
    80004576:	00053107          	fld	ft2,0(a0)
    8000457a:	0220f043          	fmadd.d	ft0,ft1,ft2,ft0
    8000457e:	00c58733          	add	a4,a1,a2
    80004582:	df4706e3          	beq	a4,s4,8000436e <svd_core+0x2362>
    80004586:	ffe60513          	addi	a0,a2,-2
    8000458a:	ff86b087          	fld	ft1,-8(a3)
    8000458e:	01a57533          	and	a0,a0,s10
    80004592:	050e                	slli	a0,a0,0x3
    80004594:	9556                	add	a0,a0,s5
    80004596:	00053107          	fld	ft2,0(a0)
    8000459a:	0220f043          	fmadd.d	ft0,ft1,ft2,ft0
    8000459e:	ddb708e3          	beq	a4,s11,8000436e <svd_core+0x2362>
    800045a2:	fff60513          	addi	a0,a2,-1
    800045a6:	0006b087          	fld	ft1,0(a3)
    800045aa:	01a57533          	and	a0,a0,s10
    800045ae:	050e                	slli	a0,a0,0x3
    800045b0:	9556                	add	a0,a0,s5
    800045b2:	00053107          	fld	ft2,0(a0)
    800045b6:	0220f043          	fmadd.d	ft0,ft1,ft2,ft0
    800045ba:	da070ae3          	beqz	a4,8000436e <svd_core+0x2362>
    800045be:	0086b087          	fld	ft1,8(a3)
    800045c2:	01a67533          	and	a0,a2,s10
    800045c6:	050e                	slli	a0,a0,0x3
    800045c8:	9556                	add	a0,a0,s5
    800045ca:	00053107          	fld	ft2,0(a0)
    800045ce:	0220f043          	fmadd.d	ft0,ft1,ft2,ft0
    800045d2:	0611                	addi	a2,a2,4
    800045d4:	00c58533          	add	a0,a1,a2
    800045d8:	02068693          	addi	a3,a3,32
    800045dc:	f96515e3          	bne	a0,s6,80004566 <svd_core+0x255a>
    800045e0:	b379                	j	8000436e <svd_core+0x2362>
    800045e2:	0188                	addi	a0,sp,192
    800045e4:	20000613          	li	a2,512
    800045e8:	4581                	li	a1,0
    800045ea:	0000a097          	auipc	ra,0xa
    800045ee:	a60080e7          	jalr	-1440(ra) # 8000e04a <memset>
    800045f2:	40a1                	li	ra,8
    800045f4:	73ca                	ld	t2,176(sp)
    800045f6:	f2000053          	fmv.d.x	ft0,zero
    800045fa:	220009d3          	fmv.d	fs3,ft0
    800045fe:	77a6                	ld	a5,104(sp)
    80004600:	43805763          	blez	s8,80004a2e <svd_core+0x2a22>
    80004604:	4281                	li	t0,0
    80004606:	4889                	li	a7,2
    80004608:	6806                	ld	a6,64(sp)
    8000460a:	a829                	j	80004624 <svd_core+0x2618>
    8000460c:	00329513          	slli	a0,t0,0x3
    80004610:	9556                	add	a0,a0,s5
    80004612:	00153027          	fsd	ft1,0(a0)
    80004616:	0285                	addi	t0,t0,1
    80004618:	750a                	ld	a0,160(sp)
    8000461a:	982a                	add	a6,a6,a0
    8000461c:	989e                	add	a7,a7,t2
    8000461e:	656a                	ld	a0,152(sp)
    80004620:	24a28d63          	beq	t0,a0,8000487a <svd_core+0x286e>
    80004624:	0013ed63          	bltu	t2,ra,8000463e <svd_core+0x2632>
    80004628:	7506                	ld	a0,96(sp)
    8000462a:	00157e63          	bgeu	a0,ra,80004646 <svd_core+0x263a>
    8000462e:	4301                	li	t1,0
    80004630:	f20000d3          	fmv.d.x	ft1,zero
    80004634:	461d                	li	a2,7
    80004636:	6566                	ld	a0,88(sp)
    80004638:	10051763          	bnez	a0,80004746 <svd_core+0x273a>
    8000463c:	a26d                	j	800047e6 <svd_core+0x27da>
    8000463e:	f20000d3          	fmv.d.x	ft1,zero
    80004642:	4301                	li	t1,0
    80004644:	a24d                	j	800047e6 <svd_core+0x27da>
    80004646:	4301                	li	t1,0
    80004648:	4701                	li	a4,0
    8000464a:	f20000d3          	fmv.d.x	ft1,zero
    8000464e:	061c                	addi	a5,sp,768
    80004650:	8642                	mv	a2,a6
    80004652:	60a6                	ld	ra,72(sp)
    80004654:	fc063383          	ld	t2,-64(a2)
    80004658:	fc863e83          	ld	t4,-56(a2)
    8000465c:	fd063e03          	ld	t3,-48(a2)
    80004660:	fd863f03          	ld	t5,-40(a2)
    80004664:	fe063f83          	ld	t6,-32(a2)
    80004668:	fe863983          	ld	s3,-24(a2)
    8000466c:	ff063903          	ld	s2,-16(a2)
    80004670:	ff863b03          	ld	s6,-8(a2)
    80004674:	fc07ba03          	ld	s4,-64(a5)
    80004678:	fc87bc03          	ld	s8,-56(a5)
    8000467c:	fd07bb83          	ld	s7,-48(a5)
    80004680:	fd87b403          	ld	s0,-40(a5)
    80004684:	fe07bc83          	ld	s9,-32(a5)
    80004688:	fe87b483          	ld	s1,-24(a5)
    8000468c:	ff07b583          	ld	a1,-16(a5)
    80004690:	ff87b683          	ld	a3,-8(a5)
    80004694:	01d3850b          	.insn	4, 0x01d3850b
    80004698:	21ee050b          	.insn	4, 0x21ee050b
    8000469c:	413f850b          	.insn	4, 0x413f850b
    800046a0:	6169050b          	.insn	4, 0x6169050b
    800046a4:	818a050b          	.insn	4, 0x818a050b
    800046a8:	a08b850b          	.insn	4, 0xa08b850b
    800046ac:	c09c850b          	.insn	4, 0xc09c850b
    800046b0:	1cd583fb          	.insn	4, 0x1cd583fb
    800046b4:	00063e03          	ld	t3,0(a2)
    800046b8:	00863e83          	ld	t4,8(a2)
    800046bc:	01063f03          	ld	t5,16(a2)
    800046c0:	01863903          	ld	s2,24(a2)
    800046c4:	02063f83          	ld	t6,32(a2)
    800046c8:	02863983          	ld	s3,40(a2)
    800046cc:	03063a03          	ld	s4,48(a2)
    800046d0:	03863b83          	ld	s7,56(a2)
    800046d4:	0007bb03          	ld	s6,0(a5)
    800046d8:	0087bc83          	ld	s9,8(a5)
    800046dc:	0107bc03          	ld	s8,16(a5)
    800046e0:	6f94                	ld	a3,24(a5)
    800046e2:	0207bd83          	ld	s11,32(a5)
    800046e6:	7784                	ld	s1,40(a5)
    800046e8:	7b8c                	ld	a1,48(a5)
    800046ea:	7f80                	ld	s0,56(a5)
    800046ec:	f2038153          	fmv.d.x	ft2,t2
    800046f0:	09de050b          	.insn	4, 0x09de050b
    800046f4:	292f050b          	.insn	4, 0x292f050b
    800046f8:	493f850b          	.insn	4, 0x493f850b
    800046fc:	697a050b          	.insn	4, 0x697a050b
    80004700:	899b050b          	.insn	4, 0x899b050b
    80004704:	a8dc050b          	.insn	4, 0xa8dc050b
    80004708:	c89d850b          	.insn	4, 0xc89d850b
    8000470c:	9c85857b          	.insn	4, 0x9c85857b
    80004710:	0220f0d3          	fadd.d	ft1,ft1,ft2
    80004714:	f2050153          	fmv.d.x	ft2,a0
    80004718:	0220f0d3          	fadd.d	ft1,ft1,ft2
    8000471c:	0341                	addi	t1,t1,16
    8000471e:	2709                	addiw	a4,a4,2
    80004720:	08060613          	addi	a2,a2,128
    80004724:	08078793          	addi	a5,a5,128
    80004728:	f21716e3          	bne	a4,ra,80004654 <svd_core+0x2648>
    8000472c:	00730613          	addi	a2,t1,7
    80004730:	7c46                	ld	s8,112(sp)
    80004732:	77a6                	ld	a5,104(sp)
    80004734:	2c010c93          	addi	s9,sp,704
    80004738:	4d85                	li	s11,1
    8000473a:	40a1                	li	ra,8
    8000473c:	4a09                	li	s4,2
    8000473e:	4b0d                	li	s6,3
    80004740:	73ca                	ld	t2,176(sp)
    80004742:	6566                	ld	a0,88(sp)
    80004744:	c14d                	beqz	a0,800047e6 <svd_core+0x27da>
    80004746:	02728533          	mul	a0,t0,t2
    8000474a:	951a                	add	a0,a0,t1
    8000474c:	050e                	slli	a0,a0,0x3
    8000474e:	75e6                	ld	a1,120(sp)
    80004750:	952e                	add	a0,a0,a1
    80004752:	00053383          	ld	t2,0(a0)
    80004756:	00853e03          	ld	t3,8(a0)
    8000475a:	01053e83          	ld	t4,16(a0)
    8000475e:	01853f03          	ld	t5,24(a0)
    80004762:	02053f83          	ld	t6,32(a0)
    80004766:	02853983          	ld	s3,40(a0)
    8000476a:	03053903          	ld	s2,48(a0)
    8000476e:	03853a03          	ld	s4,56(a0)
    80004772:	00331693          	slli	a3,t1,0x3
    80004776:	00dc8733          	add	a4,s9,a3
    8000477a:	00073b03          	ld	s6,0(a4)
    8000477e:	0086e793          	ori	a5,a3,8
    80004782:	97e6                	add	a5,a5,s9
    80004784:	639c                	ld	a5,0(a5)
    80004786:	0106e493          	ori	s1,a3,16
    8000478a:	94e6                	add	s1,s1,s9
    8000478c:	6084                	ld	s1,0(s1)
    8000478e:	0186e593          	ori	a1,a3,24
    80004792:	95e6                	add	a1,a1,s9
    80004794:	618c                	ld	a1,0(a1)
    80004796:	0206e413          	ori	s0,a3,32
    8000479a:	9466                	add	s0,s0,s9
    8000479c:	6000                	ld	s0,0(s0)
    8000479e:	0286e513          	ori	a0,a3,40
    800047a2:	9566                	add	a0,a0,s9
    800047a4:	6108                	ld	a0,0(a0)
    800047a6:	0306e693          	ori	a3,a3,48
    800047aa:	96e6                	add	a3,a3,s9
    800047ac:	6294                	ld	a3,0(a3)
    800047ae:	060e                	slli	a2,a2,0x3
    800047b0:	9666                	add	a2,a2,s9
    800047b2:	6210                	ld	a2,0(a2)
    800047b4:	01c3870b          	.insn	4, 0x01c3870b
    800047b8:	73ca                	ld	t2,176(sp)
    800047ba:	21ee870b          	.insn	4, 0x21ee870b
    800047be:	413f870b          	.insn	4, 0x413f870b
    800047c2:	6149070b          	.insn	4, 0x6149070b
    800047c6:	4a09                	li	s4,2
    800047c8:	80fb070b          	.insn	4, 0x80fb070b
    800047cc:	4b0d                	li	s6,3
    800047ce:	77a6                	ld	a5,104(sp)
    800047d0:	a0b4858b          	.insn	4, 0xa0b4858b
    800047d4:	c0a4050b          	.insn	4, 0xc0a4050b
    800047d8:	1cc6857b          	.insn	4, 0x1cc6857b
    800047dc:	f2050153          	fmv.d.x	ft2,a0
    800047e0:	0220f0d3          	fadd.d	ft1,ft1,ft2
    800047e4:	0321                	addi	t1,t1,8
    800047e6:	0003069b          	sext.w	a3,t1
    800047ea:	e276d1e3          	bge	a3,t2,8000460c <svd_core+0x2600>
    800047ee:	00368613          	addi	a2,a3,3
    800047f2:	00d88533          	add	a0,a7,a3
    800047f6:	050e                	slli	a0,a0,0x3
    800047f8:	75e6                	ld	a1,120(sp)
    800047fa:	00a586b3          	add	a3,a1,a0
    800047fe:	ffd60513          	addi	a0,a2,-3
    80004802:	ff06b107          	fld	ft2,-16(a3)
    80004806:	01a57533          	and	a0,a0,s10
    8000480a:	050e                	slli	a0,a0,0x3
    8000480c:	9566                	add	a0,a0,s9
    8000480e:	00053187          	fld	ft3,0(a0)
    80004812:	0a3170c3          	fmadd.d	ft1,ft2,ft3,ft1
    80004816:	00c78733          	add	a4,a5,a2
    8000481a:	df4709e3          	beq	a4,s4,8000460c <svd_core+0x2600>
    8000481e:	ffe60513          	addi	a0,a2,-2
    80004822:	ff86b107          	fld	ft2,-8(a3)
    80004826:	01a57533          	and	a0,a0,s10
    8000482a:	050e                	slli	a0,a0,0x3
    8000482c:	9566                	add	a0,a0,s9
    8000482e:	00053187          	fld	ft3,0(a0)
    80004832:	0a3170c3          	fmadd.d	ft1,ft2,ft3,ft1
    80004836:	ddb70be3          	beq	a4,s11,8000460c <svd_core+0x2600>
    8000483a:	fff60513          	addi	a0,a2,-1
    8000483e:	0006b107          	fld	ft2,0(a3)
    80004842:	01a57533          	and	a0,a0,s10
    80004846:	050e                	slli	a0,a0,0x3
    80004848:	9566                	add	a0,a0,s9
    8000484a:	00053187          	fld	ft3,0(a0)
    8000484e:	0a3170c3          	fmadd.d	ft1,ft2,ft3,ft1
    80004852:	da070de3          	beqz	a4,8000460c <svd_core+0x2600>
    80004856:	0086b107          	fld	ft2,8(a3)
    8000485a:	01a67533          	and	a0,a2,s10
    8000485e:	050e                	slli	a0,a0,0x3
    80004860:	9566                	add	a0,a0,s9
    80004862:	00053187          	fld	ft3,0(a0)
    80004866:	0a3170c3          	fmadd.d	ft1,ft2,ft3,ft1
    8000486a:	0611                	addi	a2,a2,4
    8000486c:	00c78533          	add	a0,a5,a2
    80004870:	02068693          	addi	a3,a3,32
    80004874:	f96515e3          	bne	a0,s6,800047fe <svd_core+0x27f2>
    80004878:	bb51                	j	8000460c <svd_core+0x2600>
    8000487a:	05805763          	blez	s8,800048c8 <svd_core+0x28bc>
    8000487e:	7542                	ld	a0,48(sp)
    80004880:	04157763          	bgeu	a0,ra,800048ce <svd_core+0x28c2>
    80004884:	f20009d3          	fmv.d.x	fs3,zero
    80004888:	4501                	li	a0,0
    8000488a:	75a2                	ld	a1,40(sp)
    8000488c:	1a058163          	beqz	a1,80004a2e <svd_core+0x2a22>
    80004890:	40ac05bb          	subw	a1,s8,a0
    80004894:	4621                	li	a2,8
    80004896:	87ae                	mv	a5,a1
    80004898:	00c5c363          	blt	a1,a2,8000489e <svd_core+0x2892>
    8000489c:	47a1                	li	a5,8
    8000489e:	050e                	slli	a0,a0,0x3
    800048a0:	16b05063          	blez	a1,80004a00 <svd_core+0x29f4>
    800048a4:	00856593          	ori	a1,a0,8
    800048a8:	95d6                	add	a1,a1,s5
    800048aa:	0005b803          	ld	a6,0(a1)
    800048ae:	1547cc63          	blt	a5,s4,80004a06 <svd_core+0x29fa>
    800048b2:	01056593          	ori	a1,a0,16
    800048b6:	95d6                	add	a1,a1,s5
    800048b8:	6190                	ld	a2,0(a1)
    800048ba:	01478463          	beq	a5,s4,800048c2 <svd_core+0x28b6>
    800048be:	3ed0506f          	j	8000a4aa <svd_core+0x849e>
    800048c2:	4481                	li	s1,0
    800048c4:	4701                	li	a4,0
    800048c6:	a299                	j	80004a0c <svd_core+0x2a00>
    800048c8:	f20009d3          	fmv.d.x	fs3,zero
    800048cc:	a28d                	j	80004a2e <svd_core+0x2a22>
    800048ce:	4501                	li	a0,0
    800048d0:	4581                	li	a1,0
    800048d2:	f20009d3          	fmv.d.x	fs3,zero
    800048d6:	0210                	addi	a2,sp,256
    800048d8:	40ac073b          	subw	a4,s8,a0
    800048dc:	47a1                	li	a5,8
    800048de:	86ba                	mv	a3,a4
    800048e0:	00f74363          	blt	a4,a5,800048e6 <svd_core+0x28da>
    800048e4:	46a1                	li	a3,8
    800048e6:	00e05e63          	blez	a4,80004902 <svd_core+0x28f6>
    800048ea:	fc863903          	ld	s2,-56(a2)
    800048ee:	479d                	li	a5,7
    800048f0:	0146cd63          	blt	a3,s4,8000490a <svd_core+0x28fe>
    800048f4:	fd063983          	ld	s3,-48(a2)
    800048f8:	0b469263          	bne	a3,s4,8000499c <svd_core+0x2990>
    800048fc:	4381                	li	t2,0
    800048fe:	4301                	li	t1,0
    80004900:	a801                	j	80004910 <svd_core+0x2904>
    80004902:	4901                	li	s2,0
    80004904:	479d                	li	a5,7
    80004906:	ff46d7e3          	bge	a3,s4,800048f4 <svd_core+0x28e8>
    8000490a:	4381                	li	t2,0
    8000490c:	4301                	li	t1,0
    8000490e:	4981                	li	s3,0
    80004910:	4b81                	li	s7,0
    80004912:	4e01                	li	t3,0
    80004914:	4e81                	li	t4,0
    80004916:	40ac06bb          	subw	a3,s8,a0
    8000491a:	36e1                	addiw	a3,a3,-8
    8000491c:	4721                	li	a4,8
    8000491e:	88b6                	mv	a7,a3
    80004920:	00e6c363          	blt	a3,a4,80004926 <svd_core+0x291a>
    80004924:	48a1                	li	a7,8
    80004926:	00d05563          	blez	a3,80004930 <svd_core+0x2924>
    8000492a:	00863f03          	ld	t5,8(a2)
    8000492e:	a011                	j	80004932 <svd_core+0x2926>
    80004930:	4f01                	li	t5,0
    80004932:	fc063083          	ld	ra,-64(a2)
    80004936:	00063f83          	ld	t6,0(a2)
    8000493a:	0148c963          	blt	a7,s4,8000494c <svd_core+0x2940>
    8000493e:	01063283          	ld	t0,16(a2)
    80004942:	07489863          	bne	a7,s4,800049b2 <svd_core+0x29a6>
    80004946:	4701                	li	a4,0
    80004948:	4681                	li	a3,0
    8000494a:	a021                	j	80004952 <svd_core+0x2946>
    8000494c:	4701                	li	a4,0
    8000494e:	4681                	li	a3,0
    80004950:	4281                	li	t0,0
    80004952:	4481                	li	s1,0
    80004954:	4801                	li	a6,0
    80004956:	4781                	li	a5,0
    80004958:	65d3840b          	.insn	4, 0x65d3840b
    8000495c:	45c3040b          	.insn	4, 0x45c3040b
    80004960:	2579840b          	.insn	4, 0x2579840b
    80004964:	4120847b          	.insn	4, 0x4120847b
    80004968:	f20400d3          	fmv.d.x	ft1,s0
    8000496c:	6cf7070b          	.insn	4, 0x6cf7070b
    80004970:	4d06868b          	.insn	4, 0x4d06868b
    80004974:	2c92868b          	.insn	4, 0x2c92868b
    80004978:	c1ef86fb          	.insn	4, 0xc1ef86fb
    8000497c:	0219f0d3          	fadd.d	ft1,fs3,ft1
    80004980:	f2068153          	fmv.d.x	ft2,a3
    80004984:	0220f9d3          	fadd.d	fs3,ft1,ft2
    80004988:	0541                	addi	a0,a0,16
    8000498a:	2589                	addiw	a1,a1,2
    8000498c:	08060613          	addi	a2,a2,128
    80004990:	73ca                	ld	t2,176(sp)
    80004992:	66c6                	ld	a3,80(sp)
    80004994:	40a1                	li	ra,8
    80004996:	f4d591e3          	bne	a1,a3,800048d8 <svd_core+0x28cc>
    8000499a:	bdc5                	j	8000488a <svd_core+0x287e>
    8000499c:	fd863b83          	ld	s7,-40(a2)
    800049a0:	4715                	li	a4,5
    800049a2:	02e6e163          	bltu	a3,a4,800049c4 <svd_core+0x29b8>
    800049a6:	fe063303          	ld	t1,-32(a2)
    800049aa:	02e69363          	bne	a3,a4,800049d0 <svd_core+0x29c4>
    800049ae:	4381                	li	t2,0
    800049b0:	b78d                	j	80004912 <svd_core+0x2906>
    800049b2:	6e04                	ld	s1,24(a2)
    800049b4:	4715                	li	a4,5
    800049b6:	00e8ea63          	bltu	a7,a4,800049ca <svd_core+0x29be>
    800049ba:	7214                	ld	a3,32(a2)
    800049bc:	02e89563          	bne	a7,a4,800049e6 <svd_core+0x29da>
    800049c0:	4701                	li	a4,0
    800049c2:	bf49                	j	80004954 <svd_core+0x2948>
    800049c4:	4381                	li	t2,0
    800049c6:	4301                	li	t1,0
    800049c8:	b7a9                	j	80004912 <svd_core+0x2906>
    800049ca:	4701                	li	a4,0
    800049cc:	4681                	li	a3,0
    800049ce:	b759                	j	80004954 <svd_core+0x2948>
    800049d0:	fe863e03          	ld	t3,-24(a2)
    800049d4:	02f6e263          	bltu	a3,a5,800049f8 <svd_core+0x29ec>
    800049d8:	ff063383          	ld	t2,-16(a2)
    800049dc:	f2f68ce3          	beq	a3,a5,80004914 <svd_core+0x2908>
    800049e0:	ff863e83          	ld	t4,-8(a2)
    800049e4:	bf0d                	j	80004916 <svd_core+0x290a>
    800049e6:	02863803          	ld	a6,40(a2)
    800049ea:	00f8e963          	bltu	a7,a5,800049fc <svd_core+0x29f0>
    800049ee:	7a18                	ld	a4,48(a2)
    800049f0:	f6f883e3          	beq	a7,a5,80004956 <svd_core+0x294a>
    800049f4:	7e1c                	ld	a5,56(a2)
    800049f6:	b78d                	j	80004958 <svd_core+0x294c>
    800049f8:	4381                	li	t2,0
    800049fa:	bf29                	j	80004914 <svd_core+0x2908>
    800049fc:	4701                	li	a4,0
    800049fe:	bfa1                	j	80004956 <svd_core+0x294a>
    80004a00:	4801                	li	a6,0
    80004a02:	eb47d8e3          	bge	a5,s4,800048b2 <svd_core+0x28a6>
    80004a06:	4481                	li	s1,0
    80004a08:	4701                	li	a4,0
    80004a0a:	4601                	li	a2,0
    80004a0c:	4681                	li	a3,0
    80004a0e:	4581                	li	a1,0
    80004a10:	4781                	li	a5,0
    80004a12:	9556                	add	a0,a0,s5
    80004a14:	6108                	ld	a0,0(a0)
    80004a16:	64f4878b          	.insn	4, 0x64f4878b
    80004a1a:	44b7058b          	.insn	4, 0x44b7058b
    80004a1e:	24d6058b          	.insn	4, 0x24d6058b
    80004a22:	4105057b          	.insn	4, 0x4105057b
    80004a26:	f20500d3          	fmv.d.x	ft1,a0
    80004a2a:	0219f9d3          	fadd.d	fs3,fs3,ft1
    80004a2e:	0b29f0d3          	fsub.d	ft1,fs3,fs2
    80004a32:	a2009553          	flt.d	a0,ft1,ft0
    80004a36:	c119                	beqz	a0,80004a3c <svd_core+0x2a30>
    80004a38:	221090d3          	fneg.d	ft1,ft1
    80004a3c:	6bca                	ld	s7,144(sp)
    80004a3e:	65aa                	ld	a1,136(sp)
    80004a40:	a2909553          	flt.d	a0,ft1,fs1
    80004a44:	23290a53          	fmv.d	fs4,fs2
    80004a48:	c119                	beqz	a0,80004a4e <svd_core+0x2a42>
    80004a4a:	6e90806f          	j	8000d932 <svd_core+0xb926>
    80004a4e:	4281                	li	t0,0
    80004a50:	4889                	li	a7,2
    80004a52:	50010813          	addi	a6,sp,1280
    80004a56:	a831                	j	80004a72 <svd_core+0x2a66>
    80004a58:	1b307053          	fdiv.d	ft0,ft0,fs3
    80004a5c:	00329513          	slli	a0,t0,0x3
    80004a60:	9566                	add	a0,a0,s9
    80004a62:	00053027          	fsd	ft0,0(a0)
    80004a66:	0285                	addi	t0,t0,1
    80004a68:	756a                	ld	a0,184(sp)
    80004a6a:	982a                	add	a6,a6,a0
    80004a6c:	98e2                	add	a7,a7,s8
    80004a6e:	24728f63          	beq	t0,t2,80004ccc <svd_core+0x2cc0>
    80004a72:	001c4c63          	blt	s8,ra,80004a8a <svd_core+0x2a7e>
    80004a76:	650a                	ld	a0,128(sp)
    80004a78:	00157d63          	bgeu	a0,ra,80004a92 <svd_core+0x2a86>
    80004a7c:	4301                	li	t1,0
    80004a7e:	f2000053          	fmv.d.x	ft0,zero
    80004a82:	461d                	li	a2,7
    80004a84:	100b9863          	bnez	s7,80004b94 <svd_core+0x2b88>
    80004a88:	aa45                	j	80004c38 <svd_core+0x2c2c>
    80004a8a:	f2000053          	fmv.d.x	ft0,zero
    80004a8e:	4301                	li	t1,0
    80004a90:	a265                	j	80004c38 <svd_core+0x2c2c>
    80004a92:	4301                	li	t1,0
    80004a94:	4701                	li	a4,0
    80004a96:	f2000053          	fmv.d.x	ft0,zero
    80004a9a:	021c                	addi	a5,sp,256
    80004a9c:	8642                	mv	a2,a6
    80004a9e:	70aa                	ld	ra,168(sp)
    80004aa0:	fc063383          	ld	t2,-64(a2)
    80004aa4:	fc863e83          	ld	t4,-56(a2)
    80004aa8:	fd063e03          	ld	t3,-48(a2)
    80004aac:	fd863f03          	ld	t5,-40(a2)
    80004ab0:	fe063f83          	ld	t6,-32(a2)
    80004ab4:	fe863983          	ld	s3,-24(a2)
    80004ab8:	ff063903          	ld	s2,-16(a2)
    80004abc:	ff863b03          	ld	s6,-8(a2)
    80004ac0:	fc07ba03          	ld	s4,-64(a5)
    80004ac4:	fc87bc03          	ld	s8,-56(a5)
    80004ac8:	fd07bb83          	ld	s7,-48(a5)
    80004acc:	fd87b403          	ld	s0,-40(a5)
    80004ad0:	fe07bc83          	ld	s9,-32(a5)
    80004ad4:	fe87b483          	ld	s1,-24(a5)
    80004ad8:	ff07b583          	ld	a1,-16(a5)
    80004adc:	ff87b683          	ld	a3,-8(a5)
    80004ae0:	01d3850b          	.insn	4, 0x01d3850b
    80004ae4:	21ee050b          	.insn	4, 0x21ee050b
    80004ae8:	413f850b          	.insn	4, 0x413f850b
    80004aec:	6169050b          	.insn	4, 0x6169050b
    80004af0:	818a050b          	.insn	4, 0x818a050b
    80004af4:	a08b850b          	.insn	4, 0xa08b850b
    80004af8:	c09c850b          	.insn	4, 0xc09c850b
    80004afc:	1cd583fb          	.insn	4, 0x1cd583fb
    80004b00:	00063e03          	ld	t3,0(a2)
    80004b04:	00863e83          	ld	t4,8(a2)
    80004b08:	01063f03          	ld	t5,16(a2)
    80004b0c:	01863903          	ld	s2,24(a2)
    80004b10:	02063f83          	ld	t6,32(a2)
    80004b14:	02863983          	ld	s3,40(a2)
    80004b18:	03063a03          	ld	s4,48(a2)
    80004b1c:	03863b83          	ld	s7,56(a2)
    80004b20:	0007bb03          	ld	s6,0(a5)
    80004b24:	0087bc83          	ld	s9,8(a5)
    80004b28:	0107bc03          	ld	s8,16(a5)
    80004b2c:	6f94                	ld	a3,24(a5)
    80004b2e:	0207bd83          	ld	s11,32(a5)
    80004b32:	7784                	ld	s1,40(a5)
    80004b34:	7b8c                	ld	a1,48(a5)
    80004b36:	7f80                	ld	s0,56(a5)
    80004b38:	f20380d3          	fmv.d.x	ft1,t2
    80004b3c:	09de050b          	.insn	4, 0x09de050b
    80004b40:	292f050b          	.insn	4, 0x292f050b
    80004b44:	493f850b          	.insn	4, 0x493f850b
    80004b48:	697a050b          	.insn	4, 0x697a050b
    80004b4c:	899b050b          	.insn	4, 0x899b050b
    80004b50:	a8dc050b          	.insn	4, 0xa8dc050b
    80004b54:	c89d850b          	.insn	4, 0xc89d850b
    80004b58:	9c85857b          	.insn	4, 0x9c85857b
    80004b5c:	02107053          	fadd.d	ft0,ft0,ft1
    80004b60:	f20500d3          	fmv.d.x	ft1,a0
    80004b64:	02107053          	fadd.d	ft0,ft0,ft1
    80004b68:	0341                	addi	t1,t1,16
    80004b6a:	2709                	addiw	a4,a4,2
    80004b6c:	08060613          	addi	a2,a2,128
    80004b70:	08078793          	addi	a5,a5,128
    80004b74:	f21716e3          	bne	a4,ra,80004aa0 <svd_core+0x2a94>
    80004b78:	00730613          	addi	a2,t1,7
    80004b7c:	7c46                	ld	s8,112(sp)
    80004b7e:	65aa                	ld	a1,136(sp)
    80004b80:	2c010c93          	addi	s9,sp,704
    80004b84:	4d85                	li	s11,1
    80004b86:	40a1                	li	ra,8
    80004b88:	4a09                	li	s4,2
    80004b8a:	4b0d                	li	s6,3
    80004b8c:	73ca                	ld	t2,176(sp)
    80004b8e:	6bca                	ld	s7,144(sp)
    80004b90:	0a0b8463          	beqz	s7,80004c38 <svd_core+0x2c2c>
    80004b94:	03828533          	mul	a0,t0,s8
    80004b98:	951a                	add	a0,a0,t1
    80004b9a:	050e                	slli	a0,a0,0x3
    80004b9c:	4c010593          	addi	a1,sp,1216
    80004ba0:	952e                	add	a0,a0,a1
    80004ba2:	00053383          	ld	t2,0(a0)
    80004ba6:	00853e03          	ld	t3,8(a0)
    80004baa:	01053e83          	ld	t4,16(a0)
    80004bae:	01853f03          	ld	t5,24(a0)
    80004bb2:	02053f83          	ld	t6,32(a0)
    80004bb6:	02853983          	ld	s3,40(a0)
    80004bba:	03053903          	ld	s2,48(a0)
    80004bbe:	03853a03          	ld	s4,56(a0)
    80004bc2:	00331693          	slli	a3,t1,0x3
    80004bc6:	00da8733          	add	a4,s5,a3
    80004bca:	00073b03          	ld	s6,0(a4)
    80004bce:	0086e793          	ori	a5,a3,8
    80004bd2:	97d6                	add	a5,a5,s5
    80004bd4:	639c                	ld	a5,0(a5)
    80004bd6:	0106e493          	ori	s1,a3,16
    80004bda:	94d6                	add	s1,s1,s5
    80004bdc:	6084                	ld	s1,0(s1)
    80004bde:	0186e593          	ori	a1,a3,24
    80004be2:	95d6                	add	a1,a1,s5
    80004be4:	618c                	ld	a1,0(a1)
    80004be6:	0206e413          	ori	s0,a3,32
    80004bea:	9456                	add	s0,s0,s5
    80004bec:	6000                	ld	s0,0(s0)
    80004bee:	0286e513          	ori	a0,a3,40
    80004bf2:	9556                	add	a0,a0,s5
    80004bf4:	6108                	ld	a0,0(a0)
    80004bf6:	0306e693          	ori	a3,a3,48
    80004bfa:	96d6                	add	a3,a3,s5
    80004bfc:	6294                	ld	a3,0(a3)
    80004bfe:	060e                	slli	a2,a2,0x3
    80004c00:	9656                	add	a2,a2,s5
    80004c02:	6210                	ld	a2,0(a2)
    80004c04:	01c3870b          	.insn	4, 0x01c3870b
    80004c08:	6bca                	ld	s7,144(sp)
    80004c0a:	73ca                	ld	t2,176(sp)
    80004c0c:	21ee870b          	.insn	4, 0x21ee870b
    80004c10:	413f870b          	.insn	4, 0x413f870b
    80004c14:	6149070b          	.insn	4, 0x6149070b
    80004c18:	4a09                	li	s4,2
    80004c1a:	80fb070b          	.insn	4, 0x80fb070b
    80004c1e:	4b0d                	li	s6,3
    80004c20:	a0b4858b          	.insn	4, 0xa0b4858b
    80004c24:	65aa                	ld	a1,136(sp)
    80004c26:	c0a4050b          	.insn	4, 0xc0a4050b
    80004c2a:	1cc6857b          	.insn	4, 0x1cc6857b
    80004c2e:	f20500d3          	fmv.d.x	ft1,a0
    80004c32:	02107053          	fadd.d	ft0,ft0,ft1
    80004c36:	0321                	addi	t1,t1,8
    80004c38:	0003069b          	sext.w	a3,t1
    80004c3c:	e186dee3          	bge	a3,s8,80004a58 <svd_core+0x2a4c>
    80004c40:	00368613          	addi	a2,a3,3
    80004c44:	00d88533          	add	a0,a7,a3
    80004c48:	050e                	slli	a0,a0,0x3
    80004c4a:	4c010693          	addi	a3,sp,1216
    80004c4e:	96aa                	add	a3,a3,a0
    80004c50:	ffd60513          	addi	a0,a2,-3
    80004c54:	ff06b087          	fld	ft1,-16(a3)
    80004c58:	01a57533          	and	a0,a0,s10
    80004c5c:	050e                	slli	a0,a0,0x3
    80004c5e:	9556                	add	a0,a0,s5
    80004c60:	00053107          	fld	ft2,0(a0)
    80004c64:	0220f043          	fmadd.d	ft0,ft1,ft2,ft0
    80004c68:	00c58733          	add	a4,a1,a2
    80004c6c:	df4706e3          	beq	a4,s4,80004a58 <svd_core+0x2a4c>
    80004c70:	ffe60513          	addi	a0,a2,-2
    80004c74:	ff86b087          	fld	ft1,-8(a3)
    80004c78:	01a57533          	and	a0,a0,s10
    80004c7c:	050e                	slli	a0,a0,0x3
    80004c7e:	9556                	add	a0,a0,s5
    80004c80:	00053107          	fld	ft2,0(a0)
    80004c84:	0220f043          	fmadd.d	ft0,ft1,ft2,ft0
    80004c88:	ddb708e3          	beq	a4,s11,80004a58 <svd_core+0x2a4c>
    80004c8c:	fff60513          	addi	a0,a2,-1
    80004c90:	0006b087          	fld	ft1,0(a3)
    80004c94:	01a57533          	and	a0,a0,s10
    80004c98:	050e                	slli	a0,a0,0x3
    80004c9a:	9556                	add	a0,a0,s5
    80004c9c:	00053107          	fld	ft2,0(a0)
    80004ca0:	0220f043          	fmadd.d	ft0,ft1,ft2,ft0
    80004ca4:	da070ae3          	beqz	a4,80004a58 <svd_core+0x2a4c>
    80004ca8:	0086b087          	fld	ft1,8(a3)
    80004cac:	01a67533          	and	a0,a2,s10
    80004cb0:	050e                	slli	a0,a0,0x3
    80004cb2:	9556                	add	a0,a0,s5
    80004cb4:	00053107          	fld	ft2,0(a0)
    80004cb8:	0220f043          	fmadd.d	ft0,ft1,ft2,ft0
    80004cbc:	0611                	addi	a2,a2,4
    80004cbe:	00c58533          	add	a0,a1,a2
    80004cc2:	02068693          	addi	a3,a3,32
    80004cc6:	f96515e3          	bne	a0,s6,80004c50 <svd_core+0x2c44>
    80004cca:	b379                	j	80004a58 <svd_core+0x2a4c>
    80004ccc:	0188                	addi	a0,sp,192
    80004cce:	20000613          	li	a2,512
    80004cd2:	4581                	li	a1,0
    80004cd4:	00009097          	auipc	ra,0x9
    80004cd8:	376080e7          	jalr	886(ra) # 8000e04a <memset>
    80004cdc:	40a1                	li	ra,8
    80004cde:	73ca                	ld	t2,176(sp)
    80004ce0:	f2000053          	fmv.d.x	ft0,zero
    80004ce4:	22000953          	fmv.d	fs2,ft0
    80004ce8:	77a6                	ld	a5,104(sp)
    80004cea:	43805763          	blez	s8,80005118 <svd_core+0x310c>
    80004cee:	4281                	li	t0,0
    80004cf0:	4889                	li	a7,2
    80004cf2:	6806                	ld	a6,64(sp)
    80004cf4:	a829                	j	80004d0e <svd_core+0x2d02>
    80004cf6:	00329513          	slli	a0,t0,0x3
    80004cfa:	9556                	add	a0,a0,s5
    80004cfc:	00153027          	fsd	ft1,0(a0)
    80004d00:	0285                	addi	t0,t0,1
    80004d02:	750a                	ld	a0,160(sp)
    80004d04:	982a                	add	a6,a6,a0
    80004d06:	989e                	add	a7,a7,t2
    80004d08:	656a                	ld	a0,152(sp)
    80004d0a:	24a28d63          	beq	t0,a0,80004f64 <svd_core+0x2f58>
    80004d0e:	0013ed63          	bltu	t2,ra,80004d28 <svd_core+0x2d1c>
    80004d12:	7506                	ld	a0,96(sp)
    80004d14:	00157e63          	bgeu	a0,ra,80004d30 <svd_core+0x2d24>
    80004d18:	4301                	li	t1,0
    80004d1a:	f20000d3          	fmv.d.x	ft1,zero
    80004d1e:	461d                	li	a2,7
    80004d20:	6566                	ld	a0,88(sp)
    80004d22:	10051763          	bnez	a0,80004e30 <svd_core+0x2e24>
    80004d26:	a26d                	j	80004ed0 <svd_core+0x2ec4>
    80004d28:	f20000d3          	fmv.d.x	ft1,zero
    80004d2c:	4301                	li	t1,0
    80004d2e:	a24d                	j	80004ed0 <svd_core+0x2ec4>
    80004d30:	4301                	li	t1,0
    80004d32:	4701                	li	a4,0
    80004d34:	f20000d3          	fmv.d.x	ft1,zero
    80004d38:	061c                	addi	a5,sp,768
    80004d3a:	8642                	mv	a2,a6
    80004d3c:	60a6                	ld	ra,72(sp)
    80004d3e:	fc063383          	ld	t2,-64(a2)
    80004d42:	fc863e83          	ld	t4,-56(a2)
    80004d46:	fd063e03          	ld	t3,-48(a2)
    80004d4a:	fd863f03          	ld	t5,-40(a2)
    80004d4e:	fe063f83          	ld	t6,-32(a2)
    80004d52:	fe863983          	ld	s3,-24(a2)
    80004d56:	ff063903          	ld	s2,-16(a2)
    80004d5a:	ff863b03          	ld	s6,-8(a2)
    80004d5e:	fc07ba03          	ld	s4,-64(a5)
    80004d62:	fc87bc03          	ld	s8,-56(a5)
    80004d66:	fd07bb83          	ld	s7,-48(a5)
    80004d6a:	fd87b403          	ld	s0,-40(a5)
    80004d6e:	fe07bc83          	ld	s9,-32(a5)
    80004d72:	fe87b483          	ld	s1,-24(a5)
    80004d76:	ff07b583          	ld	a1,-16(a5)
    80004d7a:	ff87b683          	ld	a3,-8(a5)
    80004d7e:	01d3850b          	.insn	4, 0x01d3850b
    80004d82:	21ee050b          	.insn	4, 0x21ee050b
    80004d86:	413f850b          	.insn	4, 0x413f850b
    80004d8a:	6169050b          	.insn	4, 0x6169050b
    80004d8e:	818a050b          	.insn	4, 0x818a050b
    80004d92:	a08b850b          	.insn	4, 0xa08b850b
    80004d96:	c09c850b          	.insn	4, 0xc09c850b
    80004d9a:	1cd583fb          	.insn	4, 0x1cd583fb
    80004d9e:	00063e03          	ld	t3,0(a2)
    80004da2:	00863e83          	ld	t4,8(a2)
    80004da6:	01063f03          	ld	t5,16(a2)
    80004daa:	01863903          	ld	s2,24(a2)
    80004dae:	02063f83          	ld	t6,32(a2)
    80004db2:	02863983          	ld	s3,40(a2)
    80004db6:	03063a03          	ld	s4,48(a2)
    80004dba:	03863b83          	ld	s7,56(a2)
    80004dbe:	0007bb03          	ld	s6,0(a5)
    80004dc2:	0087bc83          	ld	s9,8(a5)
    80004dc6:	0107bc03          	ld	s8,16(a5)
    80004dca:	6f94                	ld	a3,24(a5)
    80004dcc:	0207bd83          	ld	s11,32(a5)
    80004dd0:	7784                	ld	s1,40(a5)
    80004dd2:	7b8c                	ld	a1,48(a5)
    80004dd4:	7f80                	ld	s0,56(a5)
    80004dd6:	f2038153          	fmv.d.x	ft2,t2
    80004dda:	09de050b          	.insn	4, 0x09de050b
    80004dde:	292f050b          	.insn	4, 0x292f050b
    80004de2:	493f850b          	.insn	4, 0x493f850b
    80004de6:	697a050b          	.insn	4, 0x697a050b
    80004dea:	899b050b          	.insn	4, 0x899b050b
    80004dee:	a8dc050b          	.insn	4, 0xa8dc050b
    80004df2:	c89d850b          	.insn	4, 0xc89d850b
    80004df6:	9c85857b          	.insn	4, 0x9c85857b
    80004dfa:	0220f0d3          	fadd.d	ft1,ft1,ft2
    80004dfe:	f2050153          	fmv.d.x	ft2,a0
    80004e02:	0220f0d3          	fadd.d	ft1,ft1,ft2
    80004e06:	0341                	addi	t1,t1,16
    80004e08:	2709                	addiw	a4,a4,2
    80004e0a:	08060613          	addi	a2,a2,128
    80004e0e:	08078793          	addi	a5,a5,128
    80004e12:	f21716e3          	bne	a4,ra,80004d3e <svd_core+0x2d32>
    80004e16:	00730613          	addi	a2,t1,7
    80004e1a:	7c46                	ld	s8,112(sp)
    80004e1c:	77a6                	ld	a5,104(sp)
    80004e1e:	2c010c93          	addi	s9,sp,704
    80004e22:	4d85                	li	s11,1
    80004e24:	40a1                	li	ra,8
    80004e26:	4a09                	li	s4,2
    80004e28:	4b0d                	li	s6,3
    80004e2a:	73ca                	ld	t2,176(sp)
    80004e2c:	6566                	ld	a0,88(sp)
    80004e2e:	c14d                	beqz	a0,80004ed0 <svd_core+0x2ec4>
    80004e30:	02728533          	mul	a0,t0,t2
    80004e34:	951a                	add	a0,a0,t1
    80004e36:	050e                	slli	a0,a0,0x3
    80004e38:	75e6                	ld	a1,120(sp)
    80004e3a:	952e                	add	a0,a0,a1
    80004e3c:	00053383          	ld	t2,0(a0)
    80004e40:	00853e03          	ld	t3,8(a0)
    80004e44:	01053e83          	ld	t4,16(a0)
    80004e48:	01853f03          	ld	t5,24(a0)
    80004e4c:	02053f83          	ld	t6,32(a0)
    80004e50:	02853983          	ld	s3,40(a0)
    80004e54:	03053903          	ld	s2,48(a0)
    80004e58:	03853a03          	ld	s4,56(a0)
    80004e5c:	00331693          	slli	a3,t1,0x3
    80004e60:	00dc8733          	add	a4,s9,a3
    80004e64:	00073b03          	ld	s6,0(a4)
    80004e68:	0086e793          	ori	a5,a3,8
    80004e6c:	97e6                	add	a5,a5,s9
    80004e6e:	639c                	ld	a5,0(a5)
    80004e70:	0106e493          	ori	s1,a3,16
    80004e74:	94e6                	add	s1,s1,s9
    80004e76:	6084                	ld	s1,0(s1)
    80004e78:	0186e593          	ori	a1,a3,24
    80004e7c:	95e6                	add	a1,a1,s9
    80004e7e:	618c                	ld	a1,0(a1)
    80004e80:	0206e413          	ori	s0,a3,32
    80004e84:	9466                	add	s0,s0,s9
    80004e86:	6000                	ld	s0,0(s0)
    80004e88:	0286e513          	ori	a0,a3,40
    80004e8c:	9566                	add	a0,a0,s9
    80004e8e:	6108                	ld	a0,0(a0)
    80004e90:	0306e693          	ori	a3,a3,48
    80004e94:	96e6                	add	a3,a3,s9
    80004e96:	6294                	ld	a3,0(a3)
    80004e98:	060e                	slli	a2,a2,0x3
    80004e9a:	9666                	add	a2,a2,s9
    80004e9c:	6210                	ld	a2,0(a2)
    80004e9e:	01c3870b          	.insn	4, 0x01c3870b
    80004ea2:	73ca                	ld	t2,176(sp)
    80004ea4:	21ee870b          	.insn	4, 0x21ee870b
    80004ea8:	413f870b          	.insn	4, 0x413f870b
    80004eac:	6149070b          	.insn	4, 0x6149070b
    80004eb0:	4a09                	li	s4,2
    80004eb2:	80fb070b          	.insn	4, 0x80fb070b
    80004eb6:	4b0d                	li	s6,3
    80004eb8:	77a6                	ld	a5,104(sp)
    80004eba:	a0b4858b          	.insn	4, 0xa0b4858b
    80004ebe:	c0a4050b          	.insn	4, 0xc0a4050b
    80004ec2:	1cc6857b          	.insn	4, 0x1cc6857b
    80004ec6:	f2050153          	fmv.d.x	ft2,a0
    80004eca:	0220f0d3          	fadd.d	ft1,ft1,ft2
    80004ece:	0321                	addi	t1,t1,8
    80004ed0:	0003069b          	sext.w	a3,t1
    80004ed4:	e276d1e3          	bge	a3,t2,80004cf6 <svd_core+0x2cea>
    80004ed8:	00368613          	addi	a2,a3,3
    80004edc:	00d88533          	add	a0,a7,a3
    80004ee0:	050e                	slli	a0,a0,0x3
    80004ee2:	75e6                	ld	a1,120(sp)
    80004ee4:	00a586b3          	add	a3,a1,a0
    80004ee8:	ffd60513          	addi	a0,a2,-3
    80004eec:	ff06b107          	fld	ft2,-16(a3)
    80004ef0:	01a57533          	and	a0,a0,s10
    80004ef4:	050e                	slli	a0,a0,0x3
    80004ef6:	9566                	add	a0,a0,s9
    80004ef8:	00053187          	fld	ft3,0(a0)
    80004efc:	0a3170c3          	fmadd.d	ft1,ft2,ft3,ft1
    80004f00:	00c78733          	add	a4,a5,a2
    80004f04:	df4709e3          	beq	a4,s4,80004cf6 <svd_core+0x2cea>
    80004f08:	ffe60513          	addi	a0,a2,-2
    80004f0c:	ff86b107          	fld	ft2,-8(a3)
    80004f10:	01a57533          	and	a0,a0,s10
    80004f14:	050e                	slli	a0,a0,0x3
    80004f16:	9566                	add	a0,a0,s9
    80004f18:	00053187          	fld	ft3,0(a0)
    80004f1c:	0a3170c3          	fmadd.d	ft1,ft2,ft3,ft1
    80004f20:	ddb70be3          	beq	a4,s11,80004cf6 <svd_core+0x2cea>
    80004f24:	fff60513          	addi	a0,a2,-1
    80004f28:	0006b107          	fld	ft2,0(a3)
    80004f2c:	01a57533          	and	a0,a0,s10
    80004f30:	050e                	slli	a0,a0,0x3
    80004f32:	9566                	add	a0,a0,s9
    80004f34:	00053187          	fld	ft3,0(a0)
    80004f38:	0a3170c3          	fmadd.d	ft1,ft2,ft3,ft1
    80004f3c:	da070de3          	beqz	a4,80004cf6 <svd_core+0x2cea>
    80004f40:	0086b107          	fld	ft2,8(a3)
    80004f44:	01a67533          	and	a0,a2,s10
    80004f48:	050e                	slli	a0,a0,0x3
    80004f4a:	9566                	add	a0,a0,s9
    80004f4c:	00053187          	fld	ft3,0(a0)
    80004f50:	0a3170c3          	fmadd.d	ft1,ft2,ft3,ft1
    80004f54:	0611                	addi	a2,a2,4
    80004f56:	00c78533          	add	a0,a5,a2
    80004f5a:	02068693          	addi	a3,a3,32
    80004f5e:	f96515e3          	bne	a0,s6,80004ee8 <svd_core+0x2edc>
    80004f62:	bb51                	j	80004cf6 <svd_core+0x2cea>
    80004f64:	05805763          	blez	s8,80004fb2 <svd_core+0x2fa6>
    80004f68:	7542                	ld	a0,48(sp)
    80004f6a:	04157763          	bgeu	a0,ra,80004fb8 <svd_core+0x2fac>
    80004f6e:	f2000953          	fmv.d.x	fs2,zero
    80004f72:	4501                	li	a0,0
    80004f74:	75a2                	ld	a1,40(sp)
    80004f76:	1a058163          	beqz	a1,80005118 <svd_core+0x310c>
    80004f7a:	40ac05bb          	subw	a1,s8,a0
    80004f7e:	4621                	li	a2,8
    80004f80:	87ae                	mv	a5,a1
    80004f82:	00c5c363          	blt	a1,a2,80004f88 <svd_core+0x2f7c>
    80004f86:	47a1                	li	a5,8
    80004f88:	050e                	slli	a0,a0,0x3
    80004f8a:	16b05063          	blez	a1,800050ea <svd_core+0x30de>
    80004f8e:	00856593          	ori	a1,a0,8
    80004f92:	95d6                	add	a1,a1,s5
    80004f94:	0005b803          	ld	a6,0(a1)
    80004f98:	1547cc63          	blt	a5,s4,800050f0 <svd_core+0x30e4>
    80004f9c:	01056593          	ori	a1,a0,16
    80004fa0:	95d6                	add	a1,a1,s5
    80004fa2:	6190                	ld	a2,0(a1)
    80004fa4:	01478463          	beq	a5,s4,80004fac <svd_core+0x2fa0>
    80004fa8:	4190506f          	j	8000abc0 <svd_core+0x8bb4>
    80004fac:	4481                	li	s1,0
    80004fae:	4701                	li	a4,0
    80004fb0:	a299                	j	800050f6 <svd_core+0x30ea>
    80004fb2:	f2000953          	fmv.d.x	fs2,zero
    80004fb6:	a28d                	j	80005118 <svd_core+0x310c>
    80004fb8:	4501                	li	a0,0
    80004fba:	4581                	li	a1,0
    80004fbc:	f2000953          	fmv.d.x	fs2,zero
    80004fc0:	0210                	addi	a2,sp,256
    80004fc2:	40ac073b          	subw	a4,s8,a0
    80004fc6:	47a1                	li	a5,8
    80004fc8:	86ba                	mv	a3,a4
    80004fca:	00f74363          	blt	a4,a5,80004fd0 <svd_core+0x2fc4>
    80004fce:	46a1                	li	a3,8
    80004fd0:	00e05e63          	blez	a4,80004fec <svd_core+0x2fe0>
    80004fd4:	fc863903          	ld	s2,-56(a2)
    80004fd8:	479d                	li	a5,7
    80004fda:	0146cd63          	blt	a3,s4,80004ff4 <svd_core+0x2fe8>
    80004fde:	fd063983          	ld	s3,-48(a2)
    80004fe2:	0b469263          	bne	a3,s4,80005086 <svd_core+0x307a>
    80004fe6:	4381                	li	t2,0
    80004fe8:	4301                	li	t1,0
    80004fea:	a801                	j	80004ffa <svd_core+0x2fee>
    80004fec:	4901                	li	s2,0
    80004fee:	479d                	li	a5,7
    80004ff0:	ff46d7e3          	bge	a3,s4,80004fde <svd_core+0x2fd2>
    80004ff4:	4381                	li	t2,0
    80004ff6:	4301                	li	t1,0
    80004ff8:	4981                	li	s3,0
    80004ffa:	4b81                	li	s7,0
    80004ffc:	4e01                	li	t3,0
    80004ffe:	4e81                	li	t4,0
    80005000:	40ac06bb          	subw	a3,s8,a0
    80005004:	36e1                	addiw	a3,a3,-8
    80005006:	4721                	li	a4,8
    80005008:	88b6                	mv	a7,a3
    8000500a:	00e6c363          	blt	a3,a4,80005010 <svd_core+0x3004>
    8000500e:	48a1                	li	a7,8
    80005010:	00d05563          	blez	a3,8000501a <svd_core+0x300e>
    80005014:	00863f03          	ld	t5,8(a2)
    80005018:	a011                	j	8000501c <svd_core+0x3010>
    8000501a:	4f01                	li	t5,0
    8000501c:	fc063083          	ld	ra,-64(a2)
    80005020:	00063f83          	ld	t6,0(a2)
    80005024:	0148c963          	blt	a7,s4,80005036 <svd_core+0x302a>
    80005028:	01063283          	ld	t0,16(a2)
    8000502c:	07489863          	bne	a7,s4,8000509c <svd_core+0x3090>
    80005030:	4701                	li	a4,0
    80005032:	4681                	li	a3,0
    80005034:	a021                	j	8000503c <svd_core+0x3030>
    80005036:	4701                	li	a4,0
    80005038:	4681                	li	a3,0
    8000503a:	4281                	li	t0,0
    8000503c:	4481                	li	s1,0
    8000503e:	4801                	li	a6,0
    80005040:	4781                	li	a5,0
    80005042:	65d3840b          	.insn	4, 0x65d3840b
    80005046:	45c3040b          	.insn	4, 0x45c3040b
    8000504a:	2579840b          	.insn	4, 0x2579840b
    8000504e:	4120847b          	.insn	4, 0x4120847b
    80005052:	f20400d3          	fmv.d.x	ft1,s0
    80005056:	6cf7070b          	.insn	4, 0x6cf7070b
    8000505a:	4d06868b          	.insn	4, 0x4d06868b
    8000505e:	2c92868b          	.insn	4, 0x2c92868b
    80005062:	c1ef86fb          	.insn	4, 0xc1ef86fb
    80005066:	021970d3          	fadd.d	ft1,fs2,ft1
    8000506a:	f2068153          	fmv.d.x	ft2,a3
    8000506e:	0220f953          	fadd.d	fs2,ft1,ft2
    80005072:	0541                	addi	a0,a0,16
    80005074:	2589                	addiw	a1,a1,2
    80005076:	08060613          	addi	a2,a2,128
    8000507a:	73ca                	ld	t2,176(sp)
    8000507c:	66c6                	ld	a3,80(sp)
    8000507e:	40a1                	li	ra,8
    80005080:	f4d591e3          	bne	a1,a3,80004fc2 <svd_core+0x2fb6>
    80005084:	bdc5                	j	80004f74 <svd_core+0x2f68>
    80005086:	fd863b83          	ld	s7,-40(a2)
    8000508a:	4715                	li	a4,5
    8000508c:	02e6e163          	bltu	a3,a4,800050ae <svd_core+0x30a2>
    80005090:	fe063303          	ld	t1,-32(a2)
    80005094:	02e69363          	bne	a3,a4,800050ba <svd_core+0x30ae>
    80005098:	4381                	li	t2,0
    8000509a:	b78d                	j	80004ffc <svd_core+0x2ff0>
    8000509c:	6e04                	ld	s1,24(a2)
    8000509e:	4715                	li	a4,5
    800050a0:	00e8ea63          	bltu	a7,a4,800050b4 <svd_core+0x30a8>
    800050a4:	7214                	ld	a3,32(a2)
    800050a6:	02e89563          	bne	a7,a4,800050d0 <svd_core+0x30c4>
    800050aa:	4701                	li	a4,0
    800050ac:	bf49                	j	8000503e <svd_core+0x3032>
    800050ae:	4381                	li	t2,0
    800050b0:	4301                	li	t1,0
    800050b2:	b7a9                	j	80004ffc <svd_core+0x2ff0>
    800050b4:	4701                	li	a4,0
    800050b6:	4681                	li	a3,0
    800050b8:	b759                	j	8000503e <svd_core+0x3032>
    800050ba:	fe863e03          	ld	t3,-24(a2)
    800050be:	02f6e263          	bltu	a3,a5,800050e2 <svd_core+0x30d6>
    800050c2:	ff063383          	ld	t2,-16(a2)
    800050c6:	f2f68ce3          	beq	a3,a5,80004ffe <svd_core+0x2ff2>
    800050ca:	ff863e83          	ld	t4,-8(a2)
    800050ce:	bf0d                	j	80005000 <svd_core+0x2ff4>
    800050d0:	02863803          	ld	a6,40(a2)
    800050d4:	00f8e963          	bltu	a7,a5,800050e6 <svd_core+0x30da>
    800050d8:	7a18                	ld	a4,48(a2)
    800050da:	f6f883e3          	beq	a7,a5,80005040 <svd_core+0x3034>
    800050de:	7e1c                	ld	a5,56(a2)
    800050e0:	b78d                	j	80005042 <svd_core+0x3036>
    800050e2:	4381                	li	t2,0
    800050e4:	bf29                	j	80004ffe <svd_core+0x2ff2>
    800050e6:	4701                	li	a4,0
    800050e8:	bfa1                	j	80005040 <svd_core+0x3034>
    800050ea:	4801                	li	a6,0
    800050ec:	eb47d8e3          	bge	a5,s4,80004f9c <svd_core+0x2f90>
    800050f0:	4481                	li	s1,0
    800050f2:	4701                	li	a4,0
    800050f4:	4601                	li	a2,0
    800050f6:	4681                	li	a3,0
    800050f8:	4581                	li	a1,0
    800050fa:	4781                	li	a5,0
    800050fc:	9556                	add	a0,a0,s5
    800050fe:	6108                	ld	a0,0(a0)
    80005100:	64f4878b          	.insn	4, 0x64f4878b
    80005104:	44b7058b          	.insn	4, 0x44b7058b
    80005108:	24d6058b          	.insn	4, 0x24d6058b
    8000510c:	4105057b          	.insn	4, 0x4105057b
    80005110:	f20500d3          	fmv.d.x	ft1,a0
    80005114:	02197953          	fadd.d	fs2,fs2,ft1
    80005118:	0b3970d3          	fsub.d	ft1,fs2,fs3
    8000511c:	a2009553          	flt.d	a0,ft1,ft0
    80005120:	c119                	beqz	a0,80005126 <svd_core+0x311a>
    80005122:	221090d3          	fneg.d	ft1,ft1
    80005126:	6bca                	ld	s7,144(sp)
    80005128:	65aa                	ld	a1,136(sp)
    8000512a:	a2909553          	flt.d	a0,ft1,fs1
    8000512e:	23398a53          	fmv.d	fs4,fs3
    80005132:	c119                	beqz	a0,80005138 <svd_core+0x312c>
    80005134:	7fe0806f          	j	8000d932 <svd_core+0xb926>
    80005138:	4281                	li	t0,0
    8000513a:	4889                	li	a7,2
    8000513c:	50010813          	addi	a6,sp,1280
    80005140:	a831                	j	8000515c <svd_core+0x3150>
    80005142:	1b207053          	fdiv.d	ft0,ft0,fs2
    80005146:	00329513          	slli	a0,t0,0x3
    8000514a:	9566                	add	a0,a0,s9
    8000514c:	00053027          	fsd	ft0,0(a0)
    80005150:	0285                	addi	t0,t0,1
    80005152:	756a                	ld	a0,184(sp)
    80005154:	982a                	add	a6,a6,a0
    80005156:	98e2                	add	a7,a7,s8
    80005158:	24728f63          	beq	t0,t2,800053b6 <svd_core+0x33aa>
    8000515c:	001c4c63          	blt	s8,ra,80005174 <svd_core+0x3168>
    80005160:	650a                	ld	a0,128(sp)
    80005162:	00157d63          	bgeu	a0,ra,8000517c <svd_core+0x3170>
    80005166:	4301                	li	t1,0
    80005168:	f2000053          	fmv.d.x	ft0,zero
    8000516c:	461d                	li	a2,7
    8000516e:	100b9863          	bnez	s7,8000527e <svd_core+0x3272>
    80005172:	aa45                	j	80005322 <svd_core+0x3316>
    80005174:	f2000053          	fmv.d.x	ft0,zero
    80005178:	4301                	li	t1,0
    8000517a:	a265                	j	80005322 <svd_core+0x3316>
    8000517c:	4301                	li	t1,0
    8000517e:	4701                	li	a4,0
    80005180:	f2000053          	fmv.d.x	ft0,zero
    80005184:	021c                	addi	a5,sp,256
    80005186:	8642                	mv	a2,a6
    80005188:	70aa                	ld	ra,168(sp)
    8000518a:	fc063383          	ld	t2,-64(a2)
    8000518e:	fc863e83          	ld	t4,-56(a2)
    80005192:	fd063e03          	ld	t3,-48(a2)
    80005196:	fd863f03          	ld	t5,-40(a2)
    8000519a:	fe063f83          	ld	t6,-32(a2)
    8000519e:	fe863983          	ld	s3,-24(a2)
    800051a2:	ff063903          	ld	s2,-16(a2)
    800051a6:	ff863b03          	ld	s6,-8(a2)
    800051aa:	fc07ba03          	ld	s4,-64(a5)
    800051ae:	fc87bc03          	ld	s8,-56(a5)
    800051b2:	fd07bb83          	ld	s7,-48(a5)
    800051b6:	fd87b403          	ld	s0,-40(a5)
    800051ba:	fe07bc83          	ld	s9,-32(a5)
    800051be:	fe87b483          	ld	s1,-24(a5)
    800051c2:	ff07b583          	ld	a1,-16(a5)
    800051c6:	ff87b683          	ld	a3,-8(a5)
    800051ca:	01d3850b          	.insn	4, 0x01d3850b
    800051ce:	21ee050b          	.insn	4, 0x21ee050b
    800051d2:	413f850b          	.insn	4, 0x413f850b
    800051d6:	6169050b          	.insn	4, 0x6169050b
    800051da:	818a050b          	.insn	4, 0x818a050b
    800051de:	a08b850b          	.insn	4, 0xa08b850b
    800051e2:	c09c850b          	.insn	4, 0xc09c850b
    800051e6:	1cd583fb          	.insn	4, 0x1cd583fb
    800051ea:	00063e03          	ld	t3,0(a2)
    800051ee:	00863e83          	ld	t4,8(a2)
    800051f2:	01063f03          	ld	t5,16(a2)
    800051f6:	01863903          	ld	s2,24(a2)
    800051fa:	02063f83          	ld	t6,32(a2)
    800051fe:	02863983          	ld	s3,40(a2)
    80005202:	03063a03          	ld	s4,48(a2)
    80005206:	03863b83          	ld	s7,56(a2)
    8000520a:	0007bb03          	ld	s6,0(a5)
    8000520e:	0087bc83          	ld	s9,8(a5)
    80005212:	0107bc03          	ld	s8,16(a5)
    80005216:	6f94                	ld	a3,24(a5)
    80005218:	0207bd83          	ld	s11,32(a5)
    8000521c:	7784                	ld	s1,40(a5)
    8000521e:	7b8c                	ld	a1,48(a5)
    80005220:	7f80                	ld	s0,56(a5)
    80005222:	f20380d3          	fmv.d.x	ft1,t2
    80005226:	09de050b          	.insn	4, 0x09de050b
    8000522a:	292f050b          	.insn	4, 0x292f050b
    8000522e:	493f850b          	.insn	4, 0x493f850b
    80005232:	697a050b          	.insn	4, 0x697a050b
    80005236:	899b050b          	.insn	4, 0x899b050b
    8000523a:	a8dc050b          	.insn	4, 0xa8dc050b
    8000523e:	c89d850b          	.insn	4, 0xc89d850b
    80005242:	9c85857b          	.insn	4, 0x9c85857b
    80005246:	02107053          	fadd.d	ft0,ft0,ft1
    8000524a:	f20500d3          	fmv.d.x	ft1,a0
    8000524e:	02107053          	fadd.d	ft0,ft0,ft1
    80005252:	0341                	addi	t1,t1,16
    80005254:	2709                	addiw	a4,a4,2
    80005256:	08060613          	addi	a2,a2,128
    8000525a:	08078793          	addi	a5,a5,128
    8000525e:	f21716e3          	bne	a4,ra,8000518a <svd_core+0x317e>
    80005262:	00730613          	addi	a2,t1,7
    80005266:	7c46                	ld	s8,112(sp)
    80005268:	65aa                	ld	a1,136(sp)
    8000526a:	2c010c93          	addi	s9,sp,704
    8000526e:	4d85                	li	s11,1
    80005270:	40a1                	li	ra,8
    80005272:	4a09                	li	s4,2
    80005274:	4b0d                	li	s6,3
    80005276:	73ca                	ld	t2,176(sp)
    80005278:	6bca                	ld	s7,144(sp)
    8000527a:	0a0b8463          	beqz	s7,80005322 <svd_core+0x3316>
    8000527e:	03828533          	mul	a0,t0,s8
    80005282:	951a                	add	a0,a0,t1
    80005284:	050e                	slli	a0,a0,0x3
    80005286:	4c010593          	addi	a1,sp,1216
    8000528a:	952e                	add	a0,a0,a1
    8000528c:	00053383          	ld	t2,0(a0)
    80005290:	00853e03          	ld	t3,8(a0)
    80005294:	01053e83          	ld	t4,16(a0)
    80005298:	01853f03          	ld	t5,24(a0)
    8000529c:	02053f83          	ld	t6,32(a0)
    800052a0:	02853983          	ld	s3,40(a0)
    800052a4:	03053903          	ld	s2,48(a0)
    800052a8:	03853a03          	ld	s4,56(a0)
    800052ac:	00331693          	slli	a3,t1,0x3
    800052b0:	00da8733          	add	a4,s5,a3
    800052b4:	00073b03          	ld	s6,0(a4)
    800052b8:	0086e793          	ori	a5,a3,8
    800052bc:	97d6                	add	a5,a5,s5
    800052be:	639c                	ld	a5,0(a5)
    800052c0:	0106e493          	ori	s1,a3,16
    800052c4:	94d6                	add	s1,s1,s5
    800052c6:	6084                	ld	s1,0(s1)
    800052c8:	0186e593          	ori	a1,a3,24
    800052cc:	95d6                	add	a1,a1,s5
    800052ce:	618c                	ld	a1,0(a1)
    800052d0:	0206e413          	ori	s0,a3,32
    800052d4:	9456                	add	s0,s0,s5
    800052d6:	6000                	ld	s0,0(s0)
    800052d8:	0286e513          	ori	a0,a3,40
    800052dc:	9556                	add	a0,a0,s5
    800052de:	6108                	ld	a0,0(a0)
    800052e0:	0306e693          	ori	a3,a3,48
    800052e4:	96d6                	add	a3,a3,s5
    800052e6:	6294                	ld	a3,0(a3)
    800052e8:	060e                	slli	a2,a2,0x3
    800052ea:	9656                	add	a2,a2,s5
    800052ec:	6210                	ld	a2,0(a2)
    800052ee:	01c3870b          	.insn	4, 0x01c3870b
    800052f2:	6bca                	ld	s7,144(sp)
    800052f4:	73ca                	ld	t2,176(sp)
    800052f6:	21ee870b          	.insn	4, 0x21ee870b
    800052fa:	413f870b          	.insn	4, 0x413f870b
    800052fe:	6149070b          	.insn	4, 0x6149070b
    80005302:	4a09                	li	s4,2
    80005304:	80fb070b          	.insn	4, 0x80fb070b
    80005308:	4b0d                	li	s6,3
    8000530a:	a0b4858b          	.insn	4, 0xa0b4858b
    8000530e:	65aa                	ld	a1,136(sp)
    80005310:	c0a4050b          	.insn	4, 0xc0a4050b
    80005314:	1cc6857b          	.insn	4, 0x1cc6857b
    80005318:	f20500d3          	fmv.d.x	ft1,a0
    8000531c:	02107053          	fadd.d	ft0,ft0,ft1
    80005320:	0321                	addi	t1,t1,8
    80005322:	0003069b          	sext.w	a3,t1
    80005326:	e186dee3          	bge	a3,s8,80005142 <svd_core+0x3136>
    8000532a:	00368613          	addi	a2,a3,3
    8000532e:	00d88533          	add	a0,a7,a3
    80005332:	050e                	slli	a0,a0,0x3
    80005334:	4c010693          	addi	a3,sp,1216
    80005338:	96aa                	add	a3,a3,a0
    8000533a:	ffd60513          	addi	a0,a2,-3
    8000533e:	ff06b087          	fld	ft1,-16(a3)
    80005342:	01a57533          	and	a0,a0,s10
    80005346:	050e                	slli	a0,a0,0x3
    80005348:	9556                	add	a0,a0,s5
    8000534a:	00053107          	fld	ft2,0(a0)
    8000534e:	0220f043          	fmadd.d	ft0,ft1,ft2,ft0
    80005352:	00c58733          	add	a4,a1,a2
    80005356:	df4706e3          	beq	a4,s4,80005142 <svd_core+0x3136>
    8000535a:	ffe60513          	addi	a0,a2,-2
    8000535e:	ff86b087          	fld	ft1,-8(a3)
    80005362:	01a57533          	and	a0,a0,s10
    80005366:	050e                	slli	a0,a0,0x3
    80005368:	9556                	add	a0,a0,s5
    8000536a:	00053107          	fld	ft2,0(a0)
    8000536e:	0220f043          	fmadd.d	ft0,ft1,ft2,ft0
    80005372:	ddb708e3          	beq	a4,s11,80005142 <svd_core+0x3136>
    80005376:	fff60513          	addi	a0,a2,-1
    8000537a:	0006b087          	fld	ft1,0(a3)
    8000537e:	01a57533          	and	a0,a0,s10
    80005382:	050e                	slli	a0,a0,0x3
    80005384:	9556                	add	a0,a0,s5
    80005386:	00053107          	fld	ft2,0(a0)
    8000538a:	0220f043          	fmadd.d	ft0,ft1,ft2,ft0
    8000538e:	da070ae3          	beqz	a4,80005142 <svd_core+0x3136>
    80005392:	0086b087          	fld	ft1,8(a3)
    80005396:	01a67533          	and	a0,a2,s10
    8000539a:	050e                	slli	a0,a0,0x3
    8000539c:	9556                	add	a0,a0,s5
    8000539e:	00053107          	fld	ft2,0(a0)
    800053a2:	0220f043          	fmadd.d	ft0,ft1,ft2,ft0
    800053a6:	0611                	addi	a2,a2,4
    800053a8:	00c58533          	add	a0,a1,a2
    800053ac:	02068693          	addi	a3,a3,32
    800053b0:	f96515e3          	bne	a0,s6,8000533a <svd_core+0x332e>
    800053b4:	b379                	j	80005142 <svd_core+0x3136>
    800053b6:	0188                	addi	a0,sp,192
    800053b8:	20000613          	li	a2,512
    800053bc:	4581                	li	a1,0
    800053be:	00009097          	auipc	ra,0x9
    800053c2:	c8c080e7          	jalr	-884(ra) # 8000e04a <memset>
    800053c6:	40a1                	li	ra,8
    800053c8:	f2000053          	fmv.d.x	ft0,zero
    800053cc:	220009d3          	fmv.d	fs3,ft0
    800053d0:	77a6                	ld	a5,104(sp)
    800053d2:	43805863          	blez	s8,80005802 <svd_core+0x37f6>
    800053d6:	4281                	li	t0,0
    800053d8:	4889                	li	a7,2
    800053da:	6806                	ld	a6,64(sp)
    800053dc:	74ca                	ld	s1,176(sp)
    800053de:	a829                	j	800053f8 <svd_core+0x33ec>
    800053e0:	00329513          	slli	a0,t0,0x3
    800053e4:	9556                	add	a0,a0,s5
    800053e6:	00153027          	fsd	ft1,0(a0)
    800053ea:	0285                	addi	t0,t0,1
    800053ec:	750a                	ld	a0,160(sp)
    800053ee:	982a                	add	a6,a6,a0
    800053f0:	98a6                	add	a7,a7,s1
    800053f2:	656a                	ld	a0,152(sp)
    800053f4:	24a28e63          	beq	t0,a0,80005650 <svd_core+0x3644>
    800053f8:	0014ed63          	bltu	s1,ra,80005412 <svd_core+0x3406>
    800053fc:	7506                	ld	a0,96(sp)
    800053fe:	00157e63          	bgeu	a0,ra,8000541a <svd_core+0x340e>
    80005402:	4301                	li	t1,0
    80005404:	f20000d3          	fmv.d.x	ft1,zero
    80005408:	461d                	li	a2,7
    8000540a:	6566                	ld	a0,88(sp)
    8000540c:	10051763          	bnez	a0,8000551a <svd_core+0x350e>
    80005410:	a275                	j	800055bc <svd_core+0x35b0>
    80005412:	f20000d3          	fmv.d.x	ft1,zero
    80005416:	4301                	li	t1,0
    80005418:	a255                	j	800055bc <svd_core+0x35b0>
    8000541a:	4301                	li	t1,0
    8000541c:	4701                	li	a4,0
    8000541e:	f20000d3          	fmv.d.x	ft1,zero
    80005422:	061c                	addi	a5,sp,768
    80005424:	8642                	mv	a2,a6
    80005426:	60a6                	ld	ra,72(sp)
    80005428:	fc063383          	ld	t2,-64(a2)
    8000542c:	fc863e83          	ld	t4,-56(a2)
    80005430:	fd063e03          	ld	t3,-48(a2)
    80005434:	fd863f03          	ld	t5,-40(a2)
    80005438:	fe063f83          	ld	t6,-32(a2)
    8000543c:	fe863983          	ld	s3,-24(a2)
    80005440:	ff063903          	ld	s2,-16(a2)
    80005444:	ff863b03          	ld	s6,-8(a2)
    80005448:	fc07ba03          	ld	s4,-64(a5)
    8000544c:	fc87bc03          	ld	s8,-56(a5)
    80005450:	fd07bb83          	ld	s7,-48(a5)
    80005454:	fd87b403          	ld	s0,-40(a5)
    80005458:	fe07bc83          	ld	s9,-32(a5)
    8000545c:	fe87b483          	ld	s1,-24(a5)
    80005460:	ff07b583          	ld	a1,-16(a5)
    80005464:	ff87b683          	ld	a3,-8(a5)
    80005468:	01d3850b          	.insn	4, 0x01d3850b
    8000546c:	21ee050b          	.insn	4, 0x21ee050b
    80005470:	413f850b          	.insn	4, 0x413f850b
    80005474:	6169050b          	.insn	4, 0x6169050b
    80005478:	818a050b          	.insn	4, 0x818a050b
    8000547c:	a08b850b          	.insn	4, 0xa08b850b
    80005480:	c09c850b          	.insn	4, 0xc09c850b
    80005484:	1cd583fb          	.insn	4, 0x1cd583fb
    80005488:	00063e03          	ld	t3,0(a2)
    8000548c:	00863e83          	ld	t4,8(a2)
    80005490:	01063f03          	ld	t5,16(a2)
    80005494:	01863903          	ld	s2,24(a2)
    80005498:	02063f83          	ld	t6,32(a2)
    8000549c:	02863983          	ld	s3,40(a2)
    800054a0:	03063a03          	ld	s4,48(a2)
    800054a4:	03863b83          	ld	s7,56(a2)
    800054a8:	0007bb03          	ld	s6,0(a5)
    800054ac:	0087bc83          	ld	s9,8(a5)
    800054b0:	0107bc03          	ld	s8,16(a5)
    800054b4:	6f94                	ld	a3,24(a5)
    800054b6:	0207bd83          	ld	s11,32(a5)
    800054ba:	7784                	ld	s1,40(a5)
    800054bc:	7b8c                	ld	a1,48(a5)
    800054be:	7f80                	ld	s0,56(a5)
    800054c0:	f2038153          	fmv.d.x	ft2,t2
    800054c4:	09de050b          	.insn	4, 0x09de050b
    800054c8:	292f050b          	.insn	4, 0x292f050b
    800054cc:	493f850b          	.insn	4, 0x493f850b
    800054d0:	697a050b          	.insn	4, 0x697a050b
    800054d4:	899b050b          	.insn	4, 0x899b050b
    800054d8:	a8dc050b          	.insn	4, 0xa8dc050b
    800054dc:	c89d850b          	.insn	4, 0xc89d850b
    800054e0:	9c85857b          	.insn	4, 0x9c85857b
    800054e4:	0220f0d3          	fadd.d	ft1,ft1,ft2
    800054e8:	f2050153          	fmv.d.x	ft2,a0
    800054ec:	0220f0d3          	fadd.d	ft1,ft1,ft2
    800054f0:	0341                	addi	t1,t1,16
    800054f2:	2709                	addiw	a4,a4,2
    800054f4:	08060613          	addi	a2,a2,128
    800054f8:	08078793          	addi	a5,a5,128
    800054fc:	f21716e3          	bne	a4,ra,80005428 <svd_core+0x341c>
    80005500:	00730613          	addi	a2,t1,7
    80005504:	7c46                	ld	s8,112(sp)
    80005506:	77a6                	ld	a5,104(sp)
    80005508:	2c010c93          	addi	s9,sp,704
    8000550c:	4d85                	li	s11,1
    8000550e:	40a1                	li	ra,8
    80005510:	4a09                	li	s4,2
    80005512:	4b0d                	li	s6,3
    80005514:	74ca                	ld	s1,176(sp)
    80005516:	6566                	ld	a0,88(sp)
    80005518:	c155                	beqz	a0,800055bc <svd_core+0x35b0>
    8000551a:	02928533          	mul	a0,t0,s1
    8000551e:	951a                	add	a0,a0,t1
    80005520:	050e                	slli	a0,a0,0x3
    80005522:	75e6                	ld	a1,120(sp)
    80005524:	952e                	add	a0,a0,a1
    80005526:	00053383          	ld	t2,0(a0)
    8000552a:	00853e03          	ld	t3,8(a0)
    8000552e:	01053e83          	ld	t4,16(a0)
    80005532:	01853f03          	ld	t5,24(a0)
    80005536:	02053f83          	ld	t6,32(a0)
    8000553a:	02853983          	ld	s3,40(a0)
    8000553e:	03053903          	ld	s2,48(a0)
    80005542:	03853a03          	ld	s4,56(a0)
    80005546:	00331693          	slli	a3,t1,0x3
    8000554a:	00dc8733          	add	a4,s9,a3
    8000554e:	00073b03          	ld	s6,0(a4)
    80005552:	0086e793          	ori	a5,a3,8
    80005556:	97e6                	add	a5,a5,s9
    80005558:	639c                	ld	a5,0(a5)
    8000555a:	0106e493          	ori	s1,a3,16
    8000555e:	94e6                	add	s1,s1,s9
    80005560:	0004bb83          	ld	s7,0(s1)
    80005564:	0186e593          	ori	a1,a3,24
    80005568:	95e6                	add	a1,a1,s9
    8000556a:	618c                	ld	a1,0(a1)
    8000556c:	0206e413          	ori	s0,a3,32
    80005570:	9466                	add	s0,s0,s9
    80005572:	6000                	ld	s0,0(s0)
    80005574:	0286e513          	ori	a0,a3,40
    80005578:	9566                	add	a0,a0,s9
    8000557a:	6108                	ld	a0,0(a0)
    8000557c:	0306e693          	ori	a3,a3,48
    80005580:	96e6                	add	a3,a3,s9
    80005582:	6294                	ld	a3,0(a3)
    80005584:	060e                	slli	a2,a2,0x3
    80005586:	9666                	add	a2,a2,s9
    80005588:	6210                	ld	a2,0(a2)
    8000558a:	01c3870b          	.insn	4, 0x01c3870b
    8000558e:	74ca                	ld	s1,176(sp)
    80005590:	21ee870b          	.insn	4, 0x21ee870b
    80005594:	413f870b          	.insn	4, 0x413f870b
    80005598:	6149070b          	.insn	4, 0x6149070b
    8000559c:	4a09                	li	s4,2
    8000559e:	80fb070b          	.insn	4, 0x80fb070b
    800055a2:	4b0d                	li	s6,3
    800055a4:	77a6                	ld	a5,104(sp)
    800055a6:	a0bb858b          	.insn	4, 0xa0bb858b
    800055aa:	c0a4050b          	.insn	4, 0xc0a4050b
    800055ae:	1cc6857b          	.insn	4, 0x1cc6857b
    800055b2:	f2050153          	fmv.d.x	ft2,a0
    800055b6:	0220f0d3          	fadd.d	ft1,ft1,ft2
    800055ba:	0321                	addi	t1,t1,8
    800055bc:	0003069b          	sext.w	a3,t1
    800055c0:	e296d0e3          	bge	a3,s1,800053e0 <svd_core+0x33d4>
    800055c4:	00368613          	addi	a2,a3,3
    800055c8:	00d88533          	add	a0,a7,a3
    800055cc:	050e                	slli	a0,a0,0x3
    800055ce:	75e6                	ld	a1,120(sp)
    800055d0:	00a586b3          	add	a3,a1,a0
    800055d4:	ffd60513          	addi	a0,a2,-3
    800055d8:	ff06b107          	fld	ft2,-16(a3)
    800055dc:	01a57533          	and	a0,a0,s10
    800055e0:	050e                	slli	a0,a0,0x3
    800055e2:	9566                	add	a0,a0,s9
    800055e4:	00053187          	fld	ft3,0(a0)
    800055e8:	0a3170c3          	fmadd.d	ft1,ft2,ft3,ft1
    800055ec:	00c78733          	add	a4,a5,a2
    800055f0:	df4708e3          	beq	a4,s4,800053e0 <svd_core+0x33d4>
    800055f4:	ffe60513          	addi	a0,a2,-2
    800055f8:	ff86b107          	fld	ft2,-8(a3)
    800055fc:	01a57533          	and	a0,a0,s10
    80005600:	050e                	slli	a0,a0,0x3
    80005602:	9566                	add	a0,a0,s9
    80005604:	00053187          	fld	ft3,0(a0)
    80005608:	0a3170c3          	fmadd.d	ft1,ft2,ft3,ft1
    8000560c:	ddb70ae3          	beq	a4,s11,800053e0 <svd_core+0x33d4>
    80005610:	fff60513          	addi	a0,a2,-1
    80005614:	0006b107          	fld	ft2,0(a3)
    80005618:	01a57533          	and	a0,a0,s10
    8000561c:	050e                	slli	a0,a0,0x3
    8000561e:	9566                	add	a0,a0,s9
    80005620:	00053187          	fld	ft3,0(a0)
    80005624:	0a3170c3          	fmadd.d	ft1,ft2,ft3,ft1
    80005628:	da070ce3          	beqz	a4,800053e0 <svd_core+0x33d4>
    8000562c:	0086b107          	fld	ft2,8(a3)
    80005630:	01a67533          	and	a0,a2,s10
    80005634:	050e                	slli	a0,a0,0x3
    80005636:	9566                	add	a0,a0,s9
    80005638:	00053187          	fld	ft3,0(a0)
    8000563c:	0a3170c3          	fmadd.d	ft1,ft2,ft3,ft1
    80005640:	0611                	addi	a2,a2,4
    80005642:	00c78533          	add	a0,a5,a2
    80005646:	02068693          	addi	a3,a3,32
    8000564a:	f96515e3          	bne	a0,s6,800055d4 <svd_core+0x35c8>
    8000564e:	bb49                	j	800053e0 <svd_core+0x33d4>
    80005650:	05805763          	blez	s8,8000569e <svd_core+0x3692>
    80005654:	7542                	ld	a0,48(sp)
    80005656:	04157763          	bgeu	a0,ra,800056a4 <svd_core+0x3698>
    8000565a:	f20009d3          	fmv.d.x	fs3,zero
    8000565e:	4501                	li	a0,0
    80005660:	75a2                	ld	a1,40(sp)
    80005662:	1a058063          	beqz	a1,80005802 <svd_core+0x37f6>
    80005666:	40ac05bb          	subw	a1,s8,a0
    8000566a:	4621                	li	a2,8
    8000566c:	87ae                	mv	a5,a1
    8000566e:	00c5c363          	blt	a1,a2,80005674 <svd_core+0x3668>
    80005672:	47a1                	li	a5,8
    80005674:	050e                	slli	a0,a0,0x3
    80005676:	14b05f63          	blez	a1,800057d4 <svd_core+0x37c8>
    8000567a:	00856593          	ori	a1,a0,8
    8000567e:	95d6                	add	a1,a1,s5
    80005680:	0005b803          	ld	a6,0(a1)
    80005684:	1547cb63          	blt	a5,s4,800057da <svd_core+0x37ce>
    80005688:	01056593          	ori	a1,a0,16
    8000568c:	95d6                	add	a1,a1,s5
    8000568e:	6190                	ld	a2,0(a1)
    80005690:	01478463          	beq	a5,s4,80005698 <svd_core+0x368c>
    80005694:	4410506f          	j	8000b2d4 <svd_core+0x92c8>
    80005698:	4481                	li	s1,0
    8000569a:	4701                	li	a4,0
    8000569c:	a291                	j	800057e0 <svd_core+0x37d4>
    8000569e:	f20009d3          	fmv.d.x	fs3,zero
    800056a2:	a285                	j	80005802 <svd_core+0x37f6>
    800056a4:	4501                	li	a0,0
    800056a6:	4581                	li	a1,0
    800056a8:	f20009d3          	fmv.d.x	fs3,zero
    800056ac:	0210                	addi	a2,sp,256
    800056ae:	40ac073b          	subw	a4,s8,a0
    800056b2:	47a1                	li	a5,8
    800056b4:	86ba                	mv	a3,a4
    800056b6:	00f74363          	blt	a4,a5,800056bc <svd_core+0x36b0>
    800056ba:	46a1                	li	a3,8
    800056bc:	00e05e63          	blez	a4,800056d8 <svd_core+0x36cc>
    800056c0:	fc863903          	ld	s2,-56(a2)
    800056c4:	479d                	li	a5,7
    800056c6:	0146cd63          	blt	a3,s4,800056e0 <svd_core+0x36d4>
    800056ca:	fd063983          	ld	s3,-48(a2)
    800056ce:	0b469163          	bne	a3,s4,80005770 <svd_core+0x3764>
    800056d2:	4381                	li	t2,0
    800056d4:	4301                	li	t1,0
    800056d6:	a801                	j	800056e6 <svd_core+0x36da>
    800056d8:	4901                	li	s2,0
    800056da:	479d                	li	a5,7
    800056dc:	ff46d7e3          	bge	a3,s4,800056ca <svd_core+0x36be>
    800056e0:	4381                	li	t2,0
    800056e2:	4301                	li	t1,0
    800056e4:	4981                	li	s3,0
    800056e6:	4b81                	li	s7,0
    800056e8:	4e01                	li	t3,0
    800056ea:	4e81                	li	t4,0
    800056ec:	40ac06bb          	subw	a3,s8,a0
    800056f0:	36e1                	addiw	a3,a3,-8
    800056f2:	4721                	li	a4,8
    800056f4:	88b6                	mv	a7,a3
    800056f6:	00e6c363          	blt	a3,a4,800056fc <svd_core+0x36f0>
    800056fa:	48a1                	li	a7,8
    800056fc:	00d05563          	blez	a3,80005706 <svd_core+0x36fa>
    80005700:	00863f03          	ld	t5,8(a2)
    80005704:	a011                	j	80005708 <svd_core+0x36fc>
    80005706:	4f01                	li	t5,0
    80005708:	fc063083          	ld	ra,-64(a2)
    8000570c:	00063f83          	ld	t6,0(a2)
    80005710:	0148c963          	blt	a7,s4,80005722 <svd_core+0x3716>
    80005714:	01063283          	ld	t0,16(a2)
    80005718:	07489763          	bne	a7,s4,80005786 <svd_core+0x377a>
    8000571c:	4701                	li	a4,0
    8000571e:	4681                	li	a3,0
    80005720:	a021                	j	80005728 <svd_core+0x371c>
    80005722:	4701                	li	a4,0
    80005724:	4681                	li	a3,0
    80005726:	4281                	li	t0,0
    80005728:	4481                	li	s1,0
    8000572a:	4801                	li	a6,0
    8000572c:	4781                	li	a5,0
    8000572e:	65d3840b          	.insn	4, 0x65d3840b
    80005732:	45c3040b          	.insn	4, 0x45c3040b
    80005736:	2579840b          	.insn	4, 0x2579840b
    8000573a:	4120847b          	.insn	4, 0x4120847b
    8000573e:	f20400d3          	fmv.d.x	ft1,s0
    80005742:	6cf7070b          	.insn	4, 0x6cf7070b
    80005746:	4d06868b          	.insn	4, 0x4d06868b
    8000574a:	2c92868b          	.insn	4, 0x2c92868b
    8000574e:	c1ef86fb          	.insn	4, 0xc1ef86fb
    80005752:	0219f0d3          	fadd.d	ft1,fs3,ft1
    80005756:	f2068153          	fmv.d.x	ft2,a3
    8000575a:	0220f9d3          	fadd.d	fs3,ft1,ft2
    8000575e:	0541                	addi	a0,a0,16
    80005760:	2589                	addiw	a1,a1,2
    80005762:	08060613          	addi	a2,a2,128
    80005766:	66c6                	ld	a3,80(sp)
    80005768:	40a1                	li	ra,8
    8000576a:	f4d592e3          	bne	a1,a3,800056ae <svd_core+0x36a2>
    8000576e:	bdcd                	j	80005660 <svd_core+0x3654>
    80005770:	fd863b83          	ld	s7,-40(a2)
    80005774:	4715                	li	a4,5
    80005776:	02e6e163          	bltu	a3,a4,80005798 <svd_core+0x378c>
    8000577a:	fe063303          	ld	t1,-32(a2)
    8000577e:	02e69363          	bne	a3,a4,800057a4 <svd_core+0x3798>
    80005782:	4381                	li	t2,0
    80005784:	b795                	j	800056e8 <svd_core+0x36dc>
    80005786:	6e04                	ld	s1,24(a2)
    80005788:	4715                	li	a4,5
    8000578a:	00e8ea63          	bltu	a7,a4,8000579e <svd_core+0x3792>
    8000578e:	7214                	ld	a3,32(a2)
    80005790:	02e89563          	bne	a7,a4,800057ba <svd_core+0x37ae>
    80005794:	4701                	li	a4,0
    80005796:	bf51                	j	8000572a <svd_core+0x371e>
    80005798:	4381                	li	t2,0
    8000579a:	4301                	li	t1,0
    8000579c:	b7b1                	j	800056e8 <svd_core+0x36dc>
    8000579e:	4701                	li	a4,0
    800057a0:	4681                	li	a3,0
    800057a2:	b761                	j	8000572a <svd_core+0x371e>
    800057a4:	fe863e03          	ld	t3,-24(a2)
    800057a8:	02f6e263          	bltu	a3,a5,800057cc <svd_core+0x37c0>
    800057ac:	ff063383          	ld	t2,-16(a2)
    800057b0:	f2f68de3          	beq	a3,a5,800056ea <svd_core+0x36de>
    800057b4:	ff863e83          	ld	t4,-8(a2)
    800057b8:	bf15                	j	800056ec <svd_core+0x36e0>
    800057ba:	02863803          	ld	a6,40(a2)
    800057be:	00f8e963          	bltu	a7,a5,800057d0 <svd_core+0x37c4>
    800057c2:	7a18                	ld	a4,48(a2)
    800057c4:	f6f884e3          	beq	a7,a5,8000572c <svd_core+0x3720>
    800057c8:	7e1c                	ld	a5,56(a2)
    800057ca:	b795                	j	8000572e <svd_core+0x3722>
    800057cc:	4381                	li	t2,0
    800057ce:	bf31                	j	800056ea <svd_core+0x36de>
    800057d0:	4701                	li	a4,0
    800057d2:	bfa9                	j	8000572c <svd_core+0x3720>
    800057d4:	4801                	li	a6,0
    800057d6:	eb47d9e3          	bge	a5,s4,80005688 <svd_core+0x367c>
    800057da:	4481                	li	s1,0
    800057dc:	4701                	li	a4,0
    800057de:	4601                	li	a2,0
    800057e0:	4681                	li	a3,0
    800057e2:	4581                	li	a1,0
    800057e4:	4781                	li	a5,0
    800057e6:	9556                	add	a0,a0,s5
    800057e8:	6108                	ld	a0,0(a0)
    800057ea:	64f4878b          	.insn	4, 0x64f4878b
    800057ee:	44b7058b          	.insn	4, 0x44b7058b
    800057f2:	24d6058b          	.insn	4, 0x24d6058b
    800057f6:	4105057b          	.insn	4, 0x4105057b
    800057fa:	f20500d3          	fmv.d.x	ft1,a0
    800057fe:	0219f9d3          	fadd.d	fs3,fs3,ft1
    80005802:	0b29f0d3          	fsub.d	ft1,fs3,fs2
    80005806:	a2009553          	flt.d	a0,ft1,ft0
    8000580a:	c119                	beqz	a0,80005810 <svd_core+0x3804>
    8000580c:	221090d3          	fneg.d	ft1,ft1
    80005810:	73ca                	ld	t2,176(sp)
    80005812:	6bca                	ld	s7,144(sp)
    80005814:	65aa                	ld	a1,136(sp)
    80005816:	a2909553          	flt.d	a0,ft1,fs1
    8000581a:	23290a53          	fmv.d	fs4,fs2
    8000581e:	c119                	beqz	a0,80005824 <svd_core+0x3818>
    80005820:	1120806f          	j	8000d932 <svd_core+0xb926>
    80005824:	4281                	li	t0,0
    80005826:	4889                	li	a7,2
    80005828:	50010813          	addi	a6,sp,1280
    8000582c:	a831                	j	80005848 <svd_core+0x383c>
    8000582e:	1b307053          	fdiv.d	ft0,ft0,fs3
    80005832:	00329513          	slli	a0,t0,0x3
    80005836:	9566                	add	a0,a0,s9
    80005838:	00053027          	fsd	ft0,0(a0)
    8000583c:	0285                	addi	t0,t0,1
    8000583e:	756a                	ld	a0,184(sp)
    80005840:	982a                	add	a6,a6,a0
    80005842:	98e2                	add	a7,a7,s8
    80005844:	24728f63          	beq	t0,t2,80005aa2 <svd_core+0x3a96>
    80005848:	001c4c63          	blt	s8,ra,80005860 <svd_core+0x3854>
    8000584c:	650a                	ld	a0,128(sp)
    8000584e:	00157d63          	bgeu	a0,ra,80005868 <svd_core+0x385c>
    80005852:	4301                	li	t1,0
    80005854:	f2000053          	fmv.d.x	ft0,zero
    80005858:	461d                	li	a2,7
    8000585a:	100b9863          	bnez	s7,8000596a <svd_core+0x395e>
    8000585e:	aa45                	j	80005a0e <svd_core+0x3a02>
    80005860:	f2000053          	fmv.d.x	ft0,zero
    80005864:	4301                	li	t1,0
    80005866:	a265                	j	80005a0e <svd_core+0x3a02>
    80005868:	4301                	li	t1,0
    8000586a:	4701                	li	a4,0
    8000586c:	f2000053          	fmv.d.x	ft0,zero
    80005870:	021c                	addi	a5,sp,256
    80005872:	8642                	mv	a2,a6
    80005874:	70aa                	ld	ra,168(sp)
    80005876:	fc063383          	ld	t2,-64(a2)
    8000587a:	fc863e83          	ld	t4,-56(a2)
    8000587e:	fd063e03          	ld	t3,-48(a2)
    80005882:	fd863f03          	ld	t5,-40(a2)
    80005886:	fe063f83          	ld	t6,-32(a2)
    8000588a:	fe863983          	ld	s3,-24(a2)
    8000588e:	ff063903          	ld	s2,-16(a2)
    80005892:	ff863b03          	ld	s6,-8(a2)
    80005896:	fc07ba03          	ld	s4,-64(a5)
    8000589a:	fc87bc03          	ld	s8,-56(a5)
    8000589e:	fd07bb83          	ld	s7,-48(a5)
    800058a2:	fd87b403          	ld	s0,-40(a5)
    800058a6:	fe07bc83          	ld	s9,-32(a5)
    800058aa:	fe87b483          	ld	s1,-24(a5)
    800058ae:	ff07b583          	ld	a1,-16(a5)
    800058b2:	ff87b683          	ld	a3,-8(a5)
    800058b6:	01d3850b          	.insn	4, 0x01d3850b
    800058ba:	21ee050b          	.insn	4, 0x21ee050b
    800058be:	413f850b          	.insn	4, 0x413f850b
    800058c2:	6169050b          	.insn	4, 0x6169050b
    800058c6:	818a050b          	.insn	4, 0x818a050b
    800058ca:	a08b850b          	.insn	4, 0xa08b850b
    800058ce:	c09c850b          	.insn	4, 0xc09c850b
    800058d2:	1cd583fb          	.insn	4, 0x1cd583fb
    800058d6:	00063e03          	ld	t3,0(a2)
    800058da:	00863e83          	ld	t4,8(a2)
    800058de:	01063f03          	ld	t5,16(a2)
    800058e2:	01863903          	ld	s2,24(a2)
    800058e6:	02063f83          	ld	t6,32(a2)
    800058ea:	02863983          	ld	s3,40(a2)
    800058ee:	03063a03          	ld	s4,48(a2)
    800058f2:	03863b83          	ld	s7,56(a2)
    800058f6:	0007bb03          	ld	s6,0(a5)
    800058fa:	0087bc83          	ld	s9,8(a5)
    800058fe:	0107bc03          	ld	s8,16(a5)
    80005902:	6f94                	ld	a3,24(a5)
    80005904:	0207bd83          	ld	s11,32(a5)
    80005908:	7784                	ld	s1,40(a5)
    8000590a:	7b8c                	ld	a1,48(a5)
    8000590c:	7f80                	ld	s0,56(a5)
    8000590e:	f20380d3          	fmv.d.x	ft1,t2
    80005912:	09de050b          	.insn	4, 0x09de050b
    80005916:	292f050b          	.insn	4, 0x292f050b
    8000591a:	493f850b          	.insn	4, 0x493f850b
    8000591e:	697a050b          	.insn	4, 0x697a050b
    80005922:	899b050b          	.insn	4, 0x899b050b
    80005926:	a8dc050b          	.insn	4, 0xa8dc050b
    8000592a:	c89d850b          	.insn	4, 0xc89d850b
    8000592e:	9c85857b          	.insn	4, 0x9c85857b
    80005932:	02107053          	fadd.d	ft0,ft0,ft1
    80005936:	f20500d3          	fmv.d.x	ft1,a0
    8000593a:	02107053          	fadd.d	ft0,ft0,ft1
    8000593e:	0341                	addi	t1,t1,16
    80005940:	2709                	addiw	a4,a4,2
    80005942:	08060613          	addi	a2,a2,128
    80005946:	08078793          	addi	a5,a5,128
    8000594a:	f21716e3          	bne	a4,ra,80005876 <svd_core+0x386a>
    8000594e:	00730613          	addi	a2,t1,7
    80005952:	7c46                	ld	s8,112(sp)
    80005954:	65aa                	ld	a1,136(sp)
    80005956:	2c010c93          	addi	s9,sp,704
    8000595a:	4d85                	li	s11,1
    8000595c:	40a1                	li	ra,8
    8000595e:	4a09                	li	s4,2
    80005960:	4b0d                	li	s6,3
    80005962:	73ca                	ld	t2,176(sp)
    80005964:	6bca                	ld	s7,144(sp)
    80005966:	0a0b8463          	beqz	s7,80005a0e <svd_core+0x3a02>
    8000596a:	03828533          	mul	a0,t0,s8
    8000596e:	951a                	add	a0,a0,t1
    80005970:	050e                	slli	a0,a0,0x3
    80005972:	4c010593          	addi	a1,sp,1216
    80005976:	952e                	add	a0,a0,a1
    80005978:	00053383          	ld	t2,0(a0)
    8000597c:	00853e03          	ld	t3,8(a0)
    80005980:	01053e83          	ld	t4,16(a0)
    80005984:	01853f03          	ld	t5,24(a0)
    80005988:	02053f83          	ld	t6,32(a0)
    8000598c:	02853983          	ld	s3,40(a0)
    80005990:	03053903          	ld	s2,48(a0)
    80005994:	03853a03          	ld	s4,56(a0)
    80005998:	00331693          	slli	a3,t1,0x3
    8000599c:	00da8733          	add	a4,s5,a3
    800059a0:	00073b03          	ld	s6,0(a4)
    800059a4:	0086e793          	ori	a5,a3,8
    800059a8:	97d6                	add	a5,a5,s5
    800059aa:	639c                	ld	a5,0(a5)
    800059ac:	0106e493          	ori	s1,a3,16
    800059b0:	94d6                	add	s1,s1,s5
    800059b2:	6084                	ld	s1,0(s1)
    800059b4:	0186e593          	ori	a1,a3,24
    800059b8:	95d6                	add	a1,a1,s5
    800059ba:	618c                	ld	a1,0(a1)
    800059bc:	0206e413          	ori	s0,a3,32
    800059c0:	9456                	add	s0,s0,s5
    800059c2:	6000                	ld	s0,0(s0)
    800059c4:	0286e513          	ori	a0,a3,40
    800059c8:	9556                	add	a0,a0,s5
    800059ca:	6108                	ld	a0,0(a0)
    800059cc:	0306e693          	ori	a3,a3,48
    800059d0:	96d6                	add	a3,a3,s5
    800059d2:	6294                	ld	a3,0(a3)
    800059d4:	060e                	slli	a2,a2,0x3
    800059d6:	9656                	add	a2,a2,s5
    800059d8:	6210                	ld	a2,0(a2)
    800059da:	01c3870b          	.insn	4, 0x01c3870b
    800059de:	6bca                	ld	s7,144(sp)
    800059e0:	73ca                	ld	t2,176(sp)
    800059e2:	21ee870b          	.insn	4, 0x21ee870b
    800059e6:	413f870b          	.insn	4, 0x413f870b
    800059ea:	6149070b          	.insn	4, 0x6149070b
    800059ee:	4a09                	li	s4,2
    800059f0:	80fb070b          	.insn	4, 0x80fb070b
    800059f4:	4b0d                	li	s6,3
    800059f6:	a0b4858b          	.insn	4, 0xa0b4858b
    800059fa:	65aa                	ld	a1,136(sp)
    800059fc:	c0a4050b          	.insn	4, 0xc0a4050b
    80005a00:	1cc6857b          	.insn	4, 0x1cc6857b
    80005a04:	f20500d3          	fmv.d.x	ft1,a0
    80005a08:	02107053          	fadd.d	ft0,ft0,ft1
    80005a0c:	0321                	addi	t1,t1,8
    80005a0e:	0003069b          	sext.w	a3,t1
    80005a12:	e186dee3          	bge	a3,s8,8000582e <svd_core+0x3822>
    80005a16:	00368613          	addi	a2,a3,3
    80005a1a:	00d88533          	add	a0,a7,a3
    80005a1e:	050e                	slli	a0,a0,0x3
    80005a20:	4c010693          	addi	a3,sp,1216
    80005a24:	96aa                	add	a3,a3,a0
    80005a26:	ffd60513          	addi	a0,a2,-3
    80005a2a:	ff06b087          	fld	ft1,-16(a3)
    80005a2e:	01a57533          	and	a0,a0,s10
    80005a32:	050e                	slli	a0,a0,0x3
    80005a34:	9556                	add	a0,a0,s5
    80005a36:	00053107          	fld	ft2,0(a0)
    80005a3a:	0220f043          	fmadd.d	ft0,ft1,ft2,ft0
    80005a3e:	00c58733          	add	a4,a1,a2
    80005a42:	df4706e3          	beq	a4,s4,8000582e <svd_core+0x3822>
    80005a46:	ffe60513          	addi	a0,a2,-2
    80005a4a:	ff86b087          	fld	ft1,-8(a3)
    80005a4e:	01a57533          	and	a0,a0,s10
    80005a52:	050e                	slli	a0,a0,0x3
    80005a54:	9556                	add	a0,a0,s5
    80005a56:	00053107          	fld	ft2,0(a0)
    80005a5a:	0220f043          	fmadd.d	ft0,ft1,ft2,ft0
    80005a5e:	ddb708e3          	beq	a4,s11,8000582e <svd_core+0x3822>
    80005a62:	fff60513          	addi	a0,a2,-1
    80005a66:	0006b087          	fld	ft1,0(a3)
    80005a6a:	01a57533          	and	a0,a0,s10
    80005a6e:	050e                	slli	a0,a0,0x3
    80005a70:	9556                	add	a0,a0,s5
    80005a72:	00053107          	fld	ft2,0(a0)
    80005a76:	0220f043          	fmadd.d	ft0,ft1,ft2,ft0
    80005a7a:	da070ae3          	beqz	a4,8000582e <svd_core+0x3822>
    80005a7e:	0086b087          	fld	ft1,8(a3)
    80005a82:	01a67533          	and	a0,a2,s10
    80005a86:	050e                	slli	a0,a0,0x3
    80005a88:	9556                	add	a0,a0,s5
    80005a8a:	00053107          	fld	ft2,0(a0)
    80005a8e:	0220f043          	fmadd.d	ft0,ft1,ft2,ft0
    80005a92:	0611                	addi	a2,a2,4
    80005a94:	00c58533          	add	a0,a1,a2
    80005a98:	02068693          	addi	a3,a3,32
    80005a9c:	f96515e3          	bne	a0,s6,80005a26 <svd_core+0x3a1a>
    80005aa0:	b379                	j	8000582e <svd_core+0x3822>
    80005aa2:	0188                	addi	a0,sp,192
    80005aa4:	20000613          	li	a2,512
    80005aa8:	4581                	li	a1,0
    80005aaa:	00008097          	auipc	ra,0x8
    80005aae:	5a0080e7          	jalr	1440(ra) # 8000e04a <memset>
    80005ab2:	40a1                	li	ra,8
    80005ab4:	73ca                	ld	t2,176(sp)
    80005ab6:	f2000053          	fmv.d.x	ft0,zero
    80005aba:	22000953          	fmv.d	fs2,ft0
    80005abe:	77a6                	ld	a5,104(sp)
    80005ac0:	43805763          	blez	s8,80005eee <svd_core+0x3ee2>
    80005ac4:	4281                	li	t0,0
    80005ac6:	4889                	li	a7,2
    80005ac8:	6806                	ld	a6,64(sp)
    80005aca:	a829                	j	80005ae4 <svd_core+0x3ad8>
    80005acc:	00329513          	slli	a0,t0,0x3
    80005ad0:	9556                	add	a0,a0,s5
    80005ad2:	00153027          	fsd	ft1,0(a0)
    80005ad6:	0285                	addi	t0,t0,1
    80005ad8:	750a                	ld	a0,160(sp)
    80005ada:	982a                	add	a6,a6,a0
    80005adc:	989e                	add	a7,a7,t2
    80005ade:	656a                	ld	a0,152(sp)
    80005ae0:	24a28d63          	beq	t0,a0,80005d3a <svd_core+0x3d2e>
    80005ae4:	0013ed63          	bltu	t2,ra,80005afe <svd_core+0x3af2>
    80005ae8:	7506                	ld	a0,96(sp)
    80005aea:	00157e63          	bgeu	a0,ra,80005b06 <svd_core+0x3afa>
    80005aee:	4301                	li	t1,0
    80005af0:	f20000d3          	fmv.d.x	ft1,zero
    80005af4:	461d                	li	a2,7
    80005af6:	6566                	ld	a0,88(sp)
    80005af8:	10051763          	bnez	a0,80005c06 <svd_core+0x3bfa>
    80005afc:	a26d                	j	80005ca6 <svd_core+0x3c9a>
    80005afe:	f20000d3          	fmv.d.x	ft1,zero
    80005b02:	4301                	li	t1,0
    80005b04:	a24d                	j	80005ca6 <svd_core+0x3c9a>
    80005b06:	4301                	li	t1,0
