
mainop_BASELINE_O2U4.riscv:     file format elf64-littleriscv


Disassembly of section .text.init:

0000000080000000 <_start>:
    80000000:	4081                	li	ra,0
    80000002:	4101                	li	sp,0
    80000004:	4181                	li	gp,0
    80000006:	4201                	li	tp,0
    80000008:	4281                	li	t0,0
    8000000a:	4301                	li	t1,0
    8000000c:	4381                	li	t2,0
    8000000e:	4401                	li	s0,0
    80000010:	4481                	li	s1,0
    80000012:	4501                	li	a0,0
    80000014:	4581                	li	a1,0
    80000016:	4601                	li	a2,0
    80000018:	4681                	li	a3,0
    8000001a:	4701                	li	a4,0
    8000001c:	4781                	li	a5,0
    8000001e:	4801                	li	a6,0
    80000020:	4881                	li	a7,0
    80000022:	4901                	li	s2,0
    80000024:	4981                	li	s3,0
    80000026:	4a01                	li	s4,0
    80000028:	4a81                	li	s5,0
    8000002a:	4b01                	li	s6,0
    8000002c:	4b81                	li	s7,0
    8000002e:	4c01                	li	s8,0
    80000030:	4c81                	li	s9,0
    80000032:	4d01                	li	s10,0
    80000034:	4d81                	li	s11,0
    80000036:	4e01                	li	t3,0
    80000038:	4e81                	li	t4,0
    8000003a:	4f01                	li	t5,0
    8000003c:	4f81                	li	t6,0
    8000003e:	62f9                	lui	t0,0x1e
    80000040:	3002a073          	csrs	mstatus,t0
    80000044:	4285                	li	t0,1
    80000046:	02fe                	slli	t0,t0,0x1f
    80000048:	0002d863          	bgez	t0,80000058 <_start+0x58>
    8000004c:	4505                	li	a0,1
    8000004e:	00001297          	auipc	t0,0x1
    80000052:	faa2a923          	sw	a0,-78(t0) # 80001000 <tohost>
    80000056:	bfdd                	j	8000004c <_start+0x4c>
    80000058:	00000297          	auipc	t0,0x0
    8000005c:	09028293          	addi	t0,t0,144 # 800000e8 <_start+0xe8>
    80000060:	30529073          	csrw	mtvec,t0
    80000064:	00301073          	fscsr	zero
    80000068:	f0000053          	fmv.w.x	ft0,zero
    8000006c:	f00000d3          	fmv.w.x	ft1,zero
    80000070:	f0000153          	fmv.w.x	ft2,zero
    80000074:	f00001d3          	fmv.w.x	ft3,zero
    80000078:	f0000253          	fmv.w.x	ft4,zero
    8000007c:	f00002d3          	fmv.w.x	ft5,zero
    80000080:	f0000353          	fmv.w.x	ft6,zero
    80000084:	f00003d3          	fmv.w.x	ft7,zero
    80000088:	f0000453          	fmv.w.x	fs0,zero
    8000008c:	f00004d3          	fmv.w.x	fs1,zero
    80000090:	f0000553          	fmv.w.x	fa0,zero
    80000094:	f00005d3          	fmv.w.x	fa1,zero
    80000098:	f0000653          	fmv.w.x	fa2,zero
    8000009c:	f00006d3          	fmv.w.x	fa3,zero
    800000a0:	f0000753          	fmv.w.x	fa4,zero
    800000a4:	f00007d3          	fmv.w.x	fa5,zero
    800000a8:	f0000853          	fmv.w.x	fa6,zero
    800000ac:	f00008d3          	fmv.w.x	fa7,zero
    800000b0:	f0000953          	fmv.w.x	fs2,zero
    800000b4:	f00009d3          	fmv.w.x	fs3,zero
    800000b8:	f0000a53          	fmv.w.x	fs4,zero
    800000bc:	f0000ad3          	fmv.w.x	fs5,zero
    800000c0:	f0000b53          	fmv.w.x	fs6,zero
    800000c4:	f0000bd3          	fmv.w.x	fs7,zero
    800000c8:	f0000c53          	fmv.w.x	fs8,zero
    800000cc:	f0000cd3          	fmv.w.x	fs9,zero
    800000d0:	f0000d53          	fmv.w.x	fs10,zero
    800000d4:	f0000dd3          	fmv.w.x	fs11,zero
    800000d8:	f0000e53          	fmv.w.x	ft8,zero
    800000dc:	f0000ed3          	fmv.w.x	ft9,zero
    800000e0:	f0000f53          	fmv.w.x	ft10,zero
    800000e4:	f0000fd3          	fmv.w.x	ft11,zero
    800000e8:	00000297          	auipc	t0,0x0
    800000ec:	03828293          	addi	t0,t0,56 # 80000120 <trap_entry>
    800000f0:	30529073          	csrw	mtvec,t0
    800000f4:	00011197          	auipc	gp,0x11
    800000f8:	26418193          	addi	gp,gp,612 # 80011358 <__global_pointer$>
    800000fc:	8a718213          	addi	tp,gp,-1881 # 80010bff <_end+0x3f>
    80000100:	fc027213          	andi	tp,tp,-64
    80000104:	f1402573          	csrr	a0,mhartid
    80000108:	4585                	li	a1,1
    8000010a:	00b57063          	bgeu	a0,a1,8000010a <_start+0x10a>
    8000010e:	00150113          	addi	sp,a0,1
    80000112:	0146                	slli	sp,sp,0x11
    80000114:	9112                	add	sp,sp,tp
    80000116:	01151613          	slli	a2,a0,0x11
    8000011a:	9232                	add	tp,tp,a2
    8000011c:	5101006f          	j	8001062c <_init>

0000000080000120 <trap_entry>:
    80000120:	716d                	addi	sp,sp,-272
    80000122:	e406                	sd	ra,8(sp)
    80000124:	e80a                	sd	sp,16(sp)
    80000126:	ec0e                	sd	gp,24(sp)
    80000128:	f012                	sd	tp,32(sp)
    8000012a:	f416                	sd	t0,40(sp)
    8000012c:	f81a                	sd	t1,48(sp)
    8000012e:	fc1e                	sd	t2,56(sp)
    80000130:	e0a2                	sd	s0,64(sp)
    80000132:	e4a6                	sd	s1,72(sp)
    80000134:	e8aa                	sd	a0,80(sp)
    80000136:	ecae                	sd	a1,88(sp)
    80000138:	f0b2                	sd	a2,96(sp)
    8000013a:	f4b6                	sd	a3,104(sp)
    8000013c:	f8ba                	sd	a4,112(sp)
    8000013e:	fcbe                	sd	a5,120(sp)
    80000140:	e142                	sd	a6,128(sp)
    80000142:	e546                	sd	a7,136(sp)
    80000144:	e94a                	sd	s2,144(sp)
    80000146:	ed4e                	sd	s3,152(sp)
    80000148:	f152                	sd	s4,160(sp)
    8000014a:	f556                	sd	s5,168(sp)
    8000014c:	f95a                	sd	s6,176(sp)
    8000014e:	fd5e                	sd	s7,184(sp)
    80000150:	e1e2                	sd	s8,192(sp)
    80000152:	e5e6                	sd	s9,200(sp)
    80000154:	e9ea                	sd	s10,208(sp)
    80000156:	edee                	sd	s11,216(sp)
    80000158:	f1f2                	sd	t3,224(sp)
    8000015a:	f5f6                	sd	t4,232(sp)
    8000015c:	f9fa                	sd	t5,240(sp)
    8000015e:	fdfe                	sd	t6,248(sp)
    80000160:	34202573          	csrr	a0,mcause
    80000164:	341025f3          	csrr	a1,mepc
    80000168:	860a                	mv	a2,sp
    8000016a:	2fa100ef          	jal	80010464 <handle_trap>
    8000016e:	34151073          	csrw	mepc,a0
    80000172:	6289                	lui	t0,0x2
    80000174:	8002829b          	addiw	t0,t0,-2048 # 1800 <buflen.1+0x17c0>
    80000178:	3002a073          	csrs	mstatus,t0
    8000017c:	60a2                	ld	ra,8(sp)
    8000017e:	6142                	ld	sp,16(sp)
    80000180:	61e2                	ld	gp,24(sp)
    80000182:	7202                	ld	tp,32(sp)
    80000184:	72a2                	ld	t0,40(sp)
    80000186:	7342                	ld	t1,48(sp)
    80000188:	73e2                	ld	t2,56(sp)
    8000018a:	6406                	ld	s0,64(sp)
    8000018c:	64a6                	ld	s1,72(sp)
    8000018e:	6546                	ld	a0,80(sp)
    80000190:	65e6                	ld	a1,88(sp)
    80000192:	7606                	ld	a2,96(sp)
    80000194:	76a6                	ld	a3,104(sp)
    80000196:	7746                	ld	a4,112(sp)
    80000198:	77e6                	ld	a5,120(sp)
    8000019a:	680a                	ld	a6,128(sp)
    8000019c:	68aa                	ld	a7,136(sp)
    8000019e:	694a                	ld	s2,144(sp)
    800001a0:	69ea                	ld	s3,152(sp)
    800001a2:	7a0a                	ld	s4,160(sp)
    800001a4:	7aaa                	ld	s5,168(sp)
    800001a6:	7b4a                	ld	s6,176(sp)
    800001a8:	7bea                	ld	s7,184(sp)
    800001aa:	6c0e                	ld	s8,192(sp)
    800001ac:	6cae                	ld	s9,200(sp)
    800001ae:	6d4e                	ld	s10,208(sp)
    800001b0:	6dee                	ld	s11,216(sp)
    800001b2:	7e0e                	ld	t3,224(sp)
    800001b4:	7eae                	ld	t4,232(sp)
    800001b6:	7f4e                	ld	t5,240(sp)
    800001b8:	7fee                	ld	t6,248(sp)
    800001ba:	6151                	addi	sp,sp,272
    800001bc:	30200073          	mret
    800001c0:	0000                	unimp

Disassembly of section .text:

0000000080002000 <d2ull>:
    80002000:	e2050553          	fmv.x.d	a0,fa0
    80002004:	8082                	ret

0000000080002006 <ull2d>:
    80002006:	f2050553          	fmv.d.x	fa0,a0
    8000200a:	8082                	ret

000000008000200c <PickResult>:
    8000200c:	058e                	slli	a1,a1,0x3
    8000200e:	952e                	add	a0,a0,a1
    80002010:	6108                	ld	a0,0(a0)
    80002012:	8082                	ret

0000000080002014 <Impl_VecDot8>:
    80002014:	05850513          	addi	a0,a0,88
    80002018:	f2000053          	fmv.d.x	ft0,zero
    8000201c:	fc000613          	li	a2,-64
    80002020:	00c506b3          	add	a3,a0,a2
    80002024:	fe86b087          	fld	ft1,-24(a3)
    80002028:	0286b107          	fld	ft2,40(a3)
    8000202c:	0220f043          	fmadd.d	ft0,ft1,ft2,ft0
    80002030:	ff06b087          	fld	ft1,-16(a3)
    80002034:	0306b107          	fld	ft2,48(a3)
    80002038:	0220f043          	fmadd.d	ft0,ft1,ft2,ft0
    8000203c:	ff86b087          	fld	ft1,-8(a3)
    80002040:	0386b107          	fld	ft2,56(a3)
    80002044:	0220f043          	fmadd.d	ft0,ft1,ft2,ft0
    80002048:	0006b087          	fld	ft1,0(a3)
    8000204c:	0406b107          	fld	ft2,64(a3)
    80002050:	0220f043          	fmadd.d	ft0,ft1,ft2,ft0
    80002054:	02060613          	addi	a2,a2,32
    80002058:	f661                	bnez	a2,80002020 <Impl_VecDot8+0xc>
    8000205a:	0005b027          	fsd	ft0,0(a1)
    8000205e:	8082                	ret

0000000080002060 <SW_VecDot8>:
    80002060:	7175                	addi	sp,sp,-144
    80002062:	e522                	sd	s0,136(sp)
    80002064:	e126                	sd	s1,128(sp)
    80002066:	62ce                	ld	t0,208(sp)
    80002068:	632e                	ld	t1,200(sp)
    8000206a:	638e                	ld	t2,192(sp)
    8000206c:	7e6a                	ld	t3,184(sp)
    8000206e:	7eca                	ld	t4,176(sp)
    80002070:	7f2a                	ld	t5,168(sp)
    80002072:	7f8a                	ld	t6,160(sp)
    80002074:	646a                	ld	s0,152(sp)
    80002076:	64ca                	ld	s1,144(sp)
    80002078:	e02e                	sd	a1,0(sp)
    8000207a:	e432                	sd	a2,8(sp)
    8000207c:	e836                	sd	a3,16(sp)
    8000207e:	ec3a                	sd	a4,24(sp)
    80002080:	f03e                	sd	a5,32(sp)
    80002082:	f442                	sd	a6,40(sp)
    80002084:	f846                	sd	a7,48(sp)
    80002086:	fc26                	sd	s1,56(sp)
    80002088:	e0a2                	sd	s0,64(sp)
    8000208a:	e4fe                	sd	t6,72(sp)
    8000208c:	e8fa                	sd	t5,80(sp)
    8000208e:	ecf6                	sd	t4,88(sp)
    80002090:	f0f2                	sd	t3,96(sp)
    80002092:	f49e                	sd	t2,104(sp)
    80002094:	f89a                	sd	t1,112(sp)
    80002096:	fc96                	sd	t0,120(sp)
    80002098:	f2000053          	fmv.d.x	ft0,zero
    8000209c:	45c1                	li	a1,16
    8000209e:	860a                	mv	a2,sp
    800020a0:	05000693          	li	a3,80
    800020a4:	00b60733          	add	a4,a2,a1
    800020a8:	ff073087          	fld	ft1,-16(a4)
    800020ac:	03073107          	fld	ft2,48(a4)
    800020b0:	0220f043          	fmadd.d	ft0,ft1,ft2,ft0
    800020b4:	ff873087          	fld	ft1,-8(a4)
    800020b8:	03873107          	fld	ft2,56(a4)
    800020bc:	0220f043          	fmadd.d	ft0,ft1,ft2,ft0
    800020c0:	00073087          	fld	ft1,0(a4)
    800020c4:	04073107          	fld	ft2,64(a4)
    800020c8:	0220f043          	fmadd.d	ft0,ft1,ft2,ft0
    800020cc:	00873087          	fld	ft1,8(a4)
    800020d0:	04873107          	fld	ft2,72(a4)
    800020d4:	0220f043          	fmadd.d	ft0,ft1,ft2,ft0
    800020d8:	02058593          	addi	a1,a1,32
    800020dc:	fcd594e3          	bne	a1,a3,800020a4 <SW_VecDot8+0x44>
    800020e0:	00053027          	fsd	ft0,0(a0)
    800020e4:	642a                	ld	s0,136(sp)
    800020e6:	648a                	ld	s1,128(sp)
    800020e8:	6149                	addi	sp,sp,144
    800020ea:	8082                	ret

00000000800020ec <Impl_VecNorm>:
    800020ec:	1141                	addi	sp,sp,-16
    800020ee:	e406                	sd	ra,8(sp)
    800020f0:	e022                	sd	s0,0(sp)
    800020f2:	842e                	mv	s0,a1
    800020f4:	4581                	li	a1,0
    800020f6:	f2000553          	fmv.d.x	fa0,zero
    800020fa:	04000613          	li	a2,64
    800020fe:	00b506b3          	add	a3,a0,a1
    80002102:	0006b007          	fld	ft0,0(a3)
    80002106:	52007043          	fmadd.d	ft0,ft0,ft0,fa0
    8000210a:	0086b087          	fld	ft1,8(a3)
    8000210e:	0210f043          	fmadd.d	ft0,ft1,ft1,ft0
    80002112:	0106b087          	fld	ft1,16(a3)
    80002116:	0210f043          	fmadd.d	ft0,ft1,ft1,ft0
    8000211a:	0186b087          	fld	ft1,24(a3)
    8000211e:	0210f543          	fmadd.d	fa0,ft1,ft1,ft0
    80002122:	02058593          	addi	a1,a1,32
    80002126:	fcc59ce3          	bne	a1,a2,800020fe <Impl_VecNorm+0x12>
    8000212a:	5a057053          	fsqrt.d	ft0,fa0
    8000212e:	a2002553          	feq.d	a0,ft0,ft0
    80002132:	c519                	beqz	a0,80002140 <Impl_VecNorm+0x54>
    80002134:	00043027          	fsd	ft0,0(s0)
    80002138:	60a2                	ld	ra,8(sp)
    8000213a:	6402                	ld	s0,0(sp)
    8000213c:	0141                	addi	sp,sp,16
    8000213e:	8082                	ret
    80002140:	0230e0ef          	jal	80010962 <sqrt>
    80002144:	22a50053          	fmv.d	ft0,fa0
    80002148:	b7f5                	j	80002134 <Impl_VecNorm+0x48>

000000008000214a <SW_VecNorm>:
    8000214a:	715d                	addi	sp,sp,-80
    8000214c:	e486                	sd	ra,72(sp)
    8000214e:	e0a2                	sd	s0,64(sp)
    80002150:	842a                	mv	s0,a0
    80002152:	4501                	li	a0,0
    80002154:	e02e                	sd	a1,0(sp)
    80002156:	65c6                	ld	a1,80(sp)
    80002158:	e432                	sd	a2,8(sp)
    8000215a:	e836                	sd	a3,16(sp)
    8000215c:	ec3a                	sd	a4,24(sp)
    8000215e:	f03e                	sd	a5,32(sp)
    80002160:	f442                	sd	a6,40(sp)
    80002162:	f846                	sd	a7,48(sp)
    80002164:	fc2e                	sd	a1,56(sp)
    80002166:	f2000553          	fmv.d.x	fa0,zero
    8000216a:	858a                	mv	a1,sp
    8000216c:	04000613          	li	a2,64
    80002170:	00a586b3          	add	a3,a1,a0
    80002174:	0006b007          	fld	ft0,0(a3)
    80002178:	52007043          	fmadd.d	ft0,ft0,ft0,fa0
    8000217c:	0086b087          	fld	ft1,8(a3)
    80002180:	0210f043          	fmadd.d	ft0,ft1,ft1,ft0
    80002184:	0106b087          	fld	ft1,16(a3)
    80002188:	0210f043          	fmadd.d	ft0,ft1,ft1,ft0
    8000218c:	0186b087          	fld	ft1,24(a3)
    80002190:	0210f543          	fmadd.d	fa0,ft1,ft1,ft0
    80002194:	02050513          	addi	a0,a0,32
    80002198:	fcc51ce3          	bne	a0,a2,80002170 <SW_VecNorm+0x26>
    8000219c:	5a057053          	fsqrt.d	ft0,fa0
    800021a0:	a2002553          	feq.d	a0,ft0,ft0
    800021a4:	c519                	beqz	a0,800021b2 <SW_VecNorm+0x68>
    800021a6:	00043027          	fsd	ft0,0(s0)
    800021aa:	60a6                	ld	ra,72(sp)
    800021ac:	6406                	ld	s0,64(sp)
    800021ae:	6161                	addi	sp,sp,80
    800021b0:	8082                	ret
    800021b2:	7b00e0ef          	jal	80010962 <sqrt>
    800021b6:	22a50053          	fmv.d	ft0,fa0
    800021ba:	b7f5                	j	800021a6 <SW_VecNorm+0x5c>

00000000800021bc <svd_core>:
    800021bc:	81010113          	addi	sp,sp,-2032
    800021c0:	7e113423          	sd	ra,2024(sp)
    800021c4:	7e813023          	sd	s0,2016(sp)
    800021c8:	7c913c23          	sd	s1,2008(sp)
    800021cc:	7d213823          	sd	s2,2000(sp)
    800021d0:	7d313423          	sd	s3,1992(sp)
    800021d4:	7d413023          	sd	s4,1984(sp)
    800021d8:	7b513c23          	sd	s5,1976(sp)
    800021dc:	7b613823          	sd	s6,1968(sp)
    800021e0:	7b713423          	sd	s7,1960(sp)
    800021e4:	7b813023          	sd	s8,1952(sp)
    800021e8:	79913c23          	sd	s9,1944(sp)
    800021ec:	79a13823          	sd	s10,1936(sp)
    800021f0:	79b13423          	sd	s11,1928(sp)
    800021f4:	78813027          	fsd	fs0,1920(sp)
    800021f8:	76913c27          	fsd	fs1,1912(sp)
    800021fc:	77213827          	fsd	fs2,1904(sp)
    80002200:	77313427          	fsd	fs3,1896(sp)
    80002204:	77413027          	fsd	fs4,1888(sp)
    80002208:	75513c27          	fsd	fs5,1880(sp)
    8000220c:	6721                	lui	a4,0x8
    8000220e:	da07071b          	addiw	a4,a4,-608 # 7da0 <buflen.1+0x7d60>
    80002212:	40e10133          	sub	sp,sp,a4
    80002216:	fc2e                	sd	a1,56(sp)
    80002218:	f8aa                	sd	a0,112(sp)
    8000221a:	00d04463          	bgtz	a3,80002222 <svd_core+0x66>
    8000221e:	4d50d06f          	j	8000fef2 <svd_core+0xdd36>
    80002222:	8bb6                	mv	s7,a3
    80002224:	89b2                	mv	s3,a2
    80002226:	4401                	li	s0,0
    80002228:	4601                	li	a2,0
    8000222a:	0019f513          	andi	a0,s3,1
    8000222e:	ec2a                	sd	a0,24(sp)
    80002230:	ffe9fe13          	andi	t3,s3,-2
    80002234:	00499593          	slli	a1,s3,0x4
    80002238:	47810f93          	addi	t6,sp,1144
    8000223c:	00bf8d33          	add	s10,t6,a1
    80002240:	00699313          	slli	t1,s3,0x6
    80002244:	4561                	li	a0,24
    80002246:	02a986b3          	mul	a3,s3,a0
    8000224a:	00599893          	slli	a7,s3,0x5
    8000224e:	00399713          	slli	a4,s3,0x3
    80002252:	00ef8c33          	add	s8,t6,a4
    80002256:	00df8cb3          	add	s9,t6,a3
    8000225a:	7546                	ld	a0,112(sp)
    8000225c:	01050393          	addi	t2,a0,16
    80002260:	004b9f13          	slli	t5,s7,0x4
    80002264:	48010e93          	addi	t4,sp,1152
    80002268:	00be8db3          	add	s11,t4,a1
    8000226c:	00ee8ab3          	add	s5,t4,a4
    80002270:	00de8933          	add	s2,t4,a3
    80002274:	003b9593          	slli	a1,s7,0x3
    80002278:	00b38a33          	add	s4,t2,a1
    8000227c:	448d                	li	s1,3
    8000227e:	4b05                	li	s6,1
    80002280:	e8e6                	sd	s9,80(sp)
    80002282:	f0e2                	sd	s8,96(sp)
    80002284:	47810513          	addi	a0,sp,1144
    80002288:	f4aa                	sd	a0,104(sp)
    8000228a:	ecea                	sd	s10,88(sp)
    8000228c:	e81a                	sd	t1,16(sp)
    8000228e:	a035                	j	800022ba <svd_core+0xfe>
    80002290:	0621                	addi	a2,a2,8
    80002292:	941a                	add	s0,s0,t1
    80002294:	04038393          	addi	t2,t2,64
    80002298:	040a0a13          	addi	s4,s4,64
    8000229c:	6566                	ld	a0,88(sp)
    8000229e:	951a                	add	a0,a0,t1
    800022a0:	ecaa                	sd	a0,88(sp)
    800022a2:	7526                	ld	a0,104(sp)
    800022a4:	951a                	add	a0,a0,t1
    800022a6:	f4aa                	sd	a0,104(sp)
    800022a8:	7506                	ld	a0,96(sp)
    800022aa:	951a                	add	a0,a0,t1
    800022ac:	f0aa                	sd	a0,96(sp)
    800022ae:	6546                	ld	a0,80(sp)
    800022b0:	951a                	add	a0,a0,t1
    800022b2:	e8aa                	sd	a0,80(sp)
    800022b4:	04a1                	addi	s1,s1,8
    800022b6:	17767463          	bgeu	a2,s7,8000241e <svd_core+0x262>
    800022ba:	fd305be3          	blez	s3,80002290 <svd_core+0xd4>
    800022be:	40cb86bb          	subw	a3,s7,a2
    800022c2:	45a1                	li	a1,8
    800022c4:	00b6c363          	blt	a3,a1,800022ca <svd_core+0x10e>
    800022c8:	46a1                	li	a3,8
    800022ca:	40cb80b3          	sub	ra,s7,a2
    800022ce:	01699463          	bne	s3,s6,800022d6 <svd_core+0x11a>
    800022d2:	4801                	li	a6,0
    800022d4:	a8f1                	j	800023b0 <svd_core+0x1f4>
    800022d6:	f426                	sd	s1,40(sp)
    800022d8:	e4b2                	sd	a2,72(sp)
    800022da:	4801                	li	a6,0
    800022dc:	82a2                	mv	t0,s0
    800022de:	4b01                	li	s6,0
    800022e0:	f852                	sd	s4,48(sp)
    800022e2:	e09e                	sd	t2,64(sp)
    800022e4:	f022                	sd	s0,32(sp)
    800022e6:	a801                	j	800022f6 <svd_core+0x13a>
    800022e8:	0809                	addi	a6,a6,2
    800022ea:	2b09                	addiw	s6,s6,2
    800022ec:	02c1                	addi	t0,t0,16
    800022ee:	93fa                	add	t2,t2,t5
    800022f0:	9a7a                	add	s4,s4,t5
    800022f2:	0bcb0563          	beq	s6,t3,8000239c <svd_core+0x1e0>
    800022f6:	fe1059e3          	blez	ra,800022e8 <svd_core+0x12c>
    800022fa:	4305                	li	t1,1
    800022fc:	871e                	mv	a4,t2
    800022fe:	8796                	mv	a5,t0
    80002300:	ff073503          	ld	a0,-16(a4)
    80002304:	00ff85b3          	add	a1,t6,a5
    80002308:	e188                	sd	a0,0(a1)
    8000230a:	02d35f63          	bge	t1,a3,80002348 <svd_core+0x18c>
    8000230e:	ff873503          	ld	a0,-8(a4)
    80002312:	00fc05b3          	add	a1,s8,a5
    80002316:	00130613          	addi	a2,t1,1
    8000231a:	e188                	sd	a0,0(a1)
    8000231c:	02d65663          	bge	a2,a3,80002348 <svd_core+0x18c>
    80002320:	6308                	ld	a0,0(a4)
    80002322:	00fd05b3          	add	a1,s10,a5
    80002326:	00230613          	addi	a2,t1,2
    8000232a:	e188                	sd	a0,0(a1)
    8000232c:	00d65e63          	bge	a2,a3,80002348 <svd_core+0x18c>
    80002330:	6708                	ld	a0,8(a4)
    80002332:	00fc85b3          	add	a1,s9,a5
    80002336:	e188                	sd	a0,0(a1)
    80002338:	00330513          	addi	a0,t1,3
    8000233c:	0311                	addi	t1,t1,4
    8000233e:	97c6                	add	a5,a5,a7
    80002340:	02070713          	addi	a4,a4,32
    80002344:	fad54ee3          	blt	a0,a3,80002300 <svd_core+0x144>
    80002348:	fa1050e3          	blez	ra,800022e8 <svd_core+0x12c>
    8000234c:	4585                	li	a1,1
    8000234e:	8752                	mv	a4,s4
    80002350:	8796                	mv	a5,t0
    80002352:	ff073503          	ld	a0,-16(a4)
    80002356:	00fe8633          	add	a2,t4,a5
    8000235a:	e208                	sd	a0,0(a2)
    8000235c:	f8d5d6e3          	bge	a1,a3,800022e8 <svd_core+0x12c>
    80002360:	ff873503          	ld	a0,-8(a4)
    80002364:	00fa8633          	add	a2,s5,a5
    80002368:	00158413          	addi	s0,a1,1
    8000236c:	e208                	sd	a0,0(a2)
    8000236e:	f6d45de3          	bge	s0,a3,800022e8 <svd_core+0x12c>
    80002372:	6308                	ld	a0,0(a4)
    80002374:	00fd8633          	add	a2,s11,a5
    80002378:	00258413          	addi	s0,a1,2
    8000237c:	e208                	sd	a0,0(a2)
    8000237e:	f6d455e3          	bge	s0,a3,800022e8 <svd_core+0x12c>
    80002382:	6708                	ld	a0,8(a4)
    80002384:	00f90633          	add	a2,s2,a5
    80002388:	e208                	sd	a0,0(a2)
    8000238a:	00358513          	addi	a0,a1,3
    8000238e:	0591                	addi	a1,a1,4
    80002390:	97c6                	add	a5,a5,a7
    80002392:	02070713          	addi	a4,a4,32
    80002396:	fad54ee3          	blt	a0,a3,80002352 <svd_core+0x196>
    8000239a:	b7b9                	j	800022e8 <svd_core+0x12c>
    8000239c:	6626                	ld	a2,72(sp)
    8000239e:	6562                	ld	a0,24(sp)
    800023a0:	6342                	ld	t1,16(sp)
    800023a2:	6386                	ld	t2,64(sp)
    800023a4:	7a42                	ld	s4,48(sp)
    800023a6:	74a2                	ld	s1,40(sp)
    800023a8:	7402                	ld	s0,32(sp)
    800023aa:	4b05                	li	s6,1
    800023ac:	ee0502e3          	beqz	a0,80002290 <svd_core+0xd4>
    800023b0:	ee1050e3          	blez	ra,80002290 <svd_core+0xd4>
    800023b4:	037805b3          	mul	a1,a6,s7
    800023b8:	00381713          	slli	a4,a6,0x3
    800023bc:	95a6                	add	a1,a1,s1
    800023be:	058e                	slli	a1,a1,0x3
    800023c0:	7546                	ld	a0,112(sp)
    800023c2:	00b507b3          	add	a5,a0,a1
    800023c6:	4585                	li	a1,1
    800023c8:	fe87b803          	ld	a6,-24(a5)
    800023cc:	7526                	ld	a0,104(sp)
    800023ce:	953a                	add	a0,a0,a4
    800023d0:	01053023          	sd	a6,0(a0)
    800023d4:	ead5dee3          	bge	a1,a3,80002290 <svd_core+0xd4>
    800023d8:	ff07b803          	ld	a6,-16(a5)
    800023dc:	7506                	ld	a0,96(sp)
    800023de:	953a                	add	a0,a0,a4
    800023e0:	00158293          	addi	t0,a1,1
    800023e4:	01053023          	sd	a6,0(a0)
    800023e8:	ead2d4e3          	bge	t0,a3,80002290 <svd_core+0xd4>
    800023ec:	ff87b803          	ld	a6,-8(a5)
    800023f0:	6566                	ld	a0,88(sp)
    800023f2:	953a                	add	a0,a0,a4
    800023f4:	00258293          	addi	t0,a1,2
    800023f8:	01053023          	sd	a6,0(a0)
    800023fc:	e8d2dae3          	bge	t0,a3,80002290 <svd_core+0xd4>
    80002400:	0007b803          	ld	a6,0(a5)
    80002404:	6546                	ld	a0,80(sp)
    80002406:	953a                	add	a0,a0,a4
    80002408:	01053023          	sd	a6,0(a0)
    8000240c:	00358513          	addi	a0,a1,3
    80002410:	0591                	addi	a1,a1,4
    80002412:	9746                	add	a4,a4,a7
    80002414:	02078793          	addi	a5,a5,32
    80002418:	fad548e3          	blt	a0,a3,800023c8 <svd_core+0x20c>
    8000241c:	bd95                	j	80002290 <svd_core+0xd4>
    8000241e:	01704463          	bgtz	s7,80002426 <svd_core+0x26a>
    80002422:	2d10d06f          	j	8000fef2 <svd_core+0xdd36>
    80002426:	4601                	li	a2,0
    80002428:	fff9851b          	addiw	a0,s3,-1
    8000242c:	ecaa                	sd	a0,88(sp)
    8000242e:	0035551b          	srliw	a0,a0,0x3
    80002432:	0505                	addi	a0,a0,1
    80002434:	02099593          	slli	a1,s3,0x20
    80002438:	9181                	srli	a1,a1,0x20
    8000243a:	f4ae                	sd	a1,104(sp)
    8000243c:	00157593          	andi	a1,a0,1
    80002440:	e8ae                	sd	a1,80(sp)
    80002442:	9979                	andi	a0,a0,-2
    80002444:	f0aa                	sd	a0,96(sp)
    80002446:	fffb8513          	addi	a0,s7,-1
    8000244a:	f82a                	sd	a0,48(sp)
    8000244c:	27810c93          	addi	s9,sp,632
    80002450:	3ff00513          	li	a0,1023
    80002454:	1552                	slli	a0,a0,0x34
    80002456:	f42a                	sd	a0,40(sp)
    80002458:	f2000453          	fmv.d.x	fs0,zero
    8000245c:	07810a13          	addi	s4,sp,120
    80002460:	4d21                	li	s10,8
    80002462:	6521                	lui	a0,0x8
    80002464:	4785051b          	addiw	a0,a0,1144 # 8478 <buflen.1+0x8438>
    80002468:	00a10ab3          	add	s5,sp,a0
    8000246c:	05000913          	li	s2,80
    80002470:	4405                	li	s0,1
    80002472:	4c0d                	li	s8,3
    80002474:	47810b13          	addi	s6,sp,1144
    80002478:	e0b2                	sd	a2,64(sp)
    8000247a:	1ca8                	addi	a0,sp,632
    8000247c:	20000613          	li	a2,512
    80002480:	4581                	li	a1,0
    80002482:	15a0e0ef          	jal	800105dc <memset>
    80002486:	4689                	li	a3,2
    80002488:	0528                	addi	a0,sp,648
    8000248a:	75c2                	ld	a1,48(sp)
    8000248c:	7622                	ld	a2,40(sp)
    8000248e:	577d                	li	a4,-1
    80002490:	fec53823          	sd	a2,-16(a0)
    80002494:	cd91                	beqz	a1,800024b0 <svd_core+0x2f4>
    80002496:	fec53c23          	sd	a2,-8(a0)
    8000249a:	00858b63          	beq	a1,s0,800024b0 <svd_core+0x2f4>
    8000249e:	e110                	sd	a2,0(a0)
    800024a0:	00d58863          	beq	a1,a3,800024b0 <svd_core+0x2f4>
    800024a4:	e510                	sd	a2,8(a0)
    800024a6:	15f1                	addi	a1,a1,-4
    800024a8:	02050513          	addi	a0,a0,32
    800024ac:	fee592e3          	bne	a1,a4,80002490 <svd_core+0x2d4>
    800024b0:	4501                	li	a0,0
    800024b2:	22840a53          	fmv.d	fs4,fs0
    800024b6:	e4aa                	sd	a0,72(sp)
    800024b8:	18a8                	addi	a0,sp,120
    800024ba:	20000613          	li	a2,512
    800024be:	4581                	li	a1,0
    800024c0:	11c0e0ef          	jal	800105dc <memset>
    800024c4:	4489                	li	s1,2
    800024c6:	22840953          	fmv.d	fs2,fs0
    800024ca:	5f305663          	blez	s3,80002ab6 <svd_core+0x8fa>
    800024ce:	4801                	li	a6,0
    800024d0:	4881                	li	a7,0
    800024d2:	a819                	j	800024e8 <svd_core+0x32c>
    800024d4:	00389513          	slli	a0,a7,0x3
    800024d8:	9552                	add	a0,a0,s4
    800024da:	00053027          	fsd	ft0,0(a0)
    800024de:	0885                	addi	a7,a7,1
    800024e0:	985e                	add	a6,a6,s7
    800024e2:	7526                	ld	a0,104(sp)
    800024e4:	20a88a63          	beq	a7,a0,800026f8 <svd_core+0x53c>
    800024e8:	19abef63          	bltu	s7,s10,80002686 <svd_core+0x4ca>
    800024ec:	037882b3          	mul	t0,a7,s7
    800024f0:	4601                	li	a2,0
    800024f2:	471d                	li	a4,7
    800024f4:	22840053          	fmv.d	ft0,fs0
    800024f8:	005607b3          	add	a5,a2,t0
    800024fc:	078e                	slli	a5,a5,0x3
    800024fe:	7546                	ld	a0,112(sp)
    80002500:	97aa                	add	a5,a5,a0
    80002502:	0007bc03          	ld	s8,0(a5)
    80002506:	0087bd03          	ld	s10,8(a5)
    8000250a:	0107be03          	ld	t3,16(a5)
    8000250e:	0187be83          	ld	t4,24(a5)
    80002512:	0207bf03          	ld	t5,32(a5)
    80002516:	0287b303          	ld	t1,40(a5)
    8000251a:	0307b383          	ld	t2,48(a5)
    8000251e:	0387bf83          	ld	t6,56(a5)
    80002522:	00361513          	slli	a0,a2,0x3
    80002526:	00ac85b3          	add	a1,s9,a0
    8000252a:	0005bd83          	ld	s11,0(a1)
    8000252e:	00856693          	ori	a3,a0,8
    80002532:	96e6                	add	a3,a3,s9
    80002534:	0006b083          	ld	ra,0(a3)
    80002538:	01056793          	ori	a5,a0,16
    8000253c:	97e6                	add	a5,a5,s9
    8000253e:	639c                	ld	a5,0(a5)
    80002540:	01856413          	ori	s0,a0,24
    80002544:	9466                	add	s0,s0,s9
    80002546:	6000                	ld	s0,0(s0)
    80002548:	02056493          	ori	s1,a0,32
    8000254c:	94e6                	add	s1,s1,s9
    8000254e:	6084                	ld	s1,0(s1)
    80002550:	02856593          	ori	a1,a0,40
    80002554:	95e6                	add	a1,a1,s9
    80002556:	618c                	ld	a1,0(a1)
    80002558:	03056513          	ori	a0,a0,48
    8000255c:	9566                	add	a0,a0,s9
    8000255e:	6108                	ld	a0,0(a0)
    80002560:	00371693          	slli	a3,a4,0x3
    80002564:	96e6                	add	a3,a3,s9
    80002566:	6294                	ld	a3,0(a3)
    80002568:	e042                	sd	a6,0(sp)
    8000256a:	6821                	lui	a6,0x8
    8000256c:	4788081b          	addiw	a6,a6,1144 # 8478 <buflen.1+0x8438>
    80002570:	980a                	add	a6,a6,sp
    80002572:	01883023          	sd	s8,0(a6)
    80002576:	6802                	ld	a6,0(sp)
    80002578:	6c21                	lui	s8,0x8
    8000257a:	480c0c1b          	addiw	s8,s8,1152 # 8480 <buflen.1+0x8440>
    8000257e:	9c0a                	add	s8,s8,sp
    80002580:	01ac3023          	sd	s10,0(s8)
    80002584:	6c21                	lui	s8,0x8
    80002586:	488c0c1b          	addiw	s8,s8,1160 # 8488 <buflen.1+0x8448>
    8000258a:	9c0a                	add	s8,s8,sp
    8000258c:	01cc3023          	sd	t3,0(s8)
    80002590:	6e21                	lui	t3,0x8
    80002592:	490e0e1b          	addiw	t3,t3,1168 # 8490 <buflen.1+0x8450>
    80002596:	9e0a                	add	t3,t3,sp
    80002598:	01de3023          	sd	t4,0(t3)
    8000259c:	6e21                	lui	t3,0x8
    8000259e:	498e0e1b          	addiw	t3,t3,1176 # 8498 <buflen.1+0x8458>
    800025a2:	9e0a                	add	t3,t3,sp
    800025a4:	01ee3023          	sd	t5,0(t3)
    800025a8:	6e21                	lui	t3,0x8
    800025aa:	4a0e0e1b          	addiw	t3,t3,1184 # 84a0 <buflen.1+0x8460>
    800025ae:	9e0a                	add	t3,t3,sp
    800025b0:	006e3023          	sd	t1,0(t3)
    800025b4:	6321                	lui	t1,0x8
    800025b6:	4a83031b          	addiw	t1,t1,1192 # 84a8 <buflen.1+0x8468>
    800025ba:	930a                	add	t1,t1,sp
    800025bc:	00733023          	sd	t2,0(t1)
    800025c0:	6321                	lui	t1,0x8
    800025c2:	4b03031b          	addiw	t1,t1,1200 # 84b0 <buflen.1+0x8470>
    800025c6:	930a                	add	t1,t1,sp
    800025c8:	01f33023          	sd	t6,0(t1)
    800025cc:	6321                	lui	t1,0x8
    800025ce:	4b83031b          	addiw	t1,t1,1208 # 84b8 <buflen.1+0x8478>
    800025d2:	930a                	add	t1,t1,sp
    800025d4:	01b33023          	sd	s11,0(t1)
    800025d8:	6321                	lui	t1,0x8
    800025da:	4c03031b          	addiw	t1,t1,1216 # 84c0 <buflen.1+0x8480>
    800025de:	930a                	add	t1,t1,sp
    800025e0:	00133023          	sd	ra,0(t1)
    800025e4:	6321                	lui	t1,0x8
    800025e6:	4c83031b          	addiw	t1,t1,1224 # 84c8 <buflen.1+0x8488>
    800025ea:	930a                	add	t1,t1,sp
    800025ec:	00f33023          	sd	a5,0(t1)
    800025f0:	67a1                	lui	a5,0x8
    800025f2:	4d07879b          	addiw	a5,a5,1232 # 84d0 <buflen.1+0x8490>
    800025f6:	978a                	add	a5,a5,sp
    800025f8:	e380                	sd	s0,0(a5)
    800025fa:	67a1                	lui	a5,0x8
    800025fc:	4d87879b          	addiw	a5,a5,1240 # 84d8 <buflen.1+0x8498>
    80002600:	978a                	add	a5,a5,sp
    80002602:	e384                	sd	s1,0(a5)
    80002604:	67a1                	lui	a5,0x8
    80002606:	4e07879b          	addiw	a5,a5,1248 # 84e0 <buflen.1+0x84a0>
    8000260a:	978a                	add	a5,a5,sp
    8000260c:	e38c                	sd	a1,0(a5)
    8000260e:	65a1                	lui	a1,0x8
    80002610:	4e85859b          	addiw	a1,a1,1256 # 84e8 <buflen.1+0x84a8>
    80002614:	958a                	add	a1,a1,sp
    80002616:	e188                	sd	a0,0(a1)
    80002618:	6521                	lui	a0,0x8
    8000261a:	4f05051b          	addiw	a0,a0,1264 # 84f0 <buflen.1+0x84b0>
    8000261e:	950a                	add	a0,a0,sp
    80002620:	e114                	sd	a3,0(a0)
    80002622:	47c1                	li	a5,16
    80002624:	228400d3          	fmv.d	ft1,fs0
    80002628:	00fa8533          	add	a0,s5,a5
    8000262c:	ff053107          	fld	ft2,-16(a0)
    80002630:	03053187          	fld	ft3,48(a0)
    80002634:	0a3170c3          	fmadd.d	ft1,ft2,ft3,ft1
    80002638:	ff853107          	fld	ft2,-8(a0)
    8000263c:	03853187          	fld	ft3,56(a0)
    80002640:	0a3170c3          	fmadd.d	ft1,ft2,ft3,ft1
    80002644:	00053107          	fld	ft2,0(a0)
    80002648:	04053187          	fld	ft3,64(a0)
    8000264c:	0a3170c3          	fmadd.d	ft1,ft2,ft3,ft1
    80002650:	00853107          	fld	ft2,8(a0)
    80002654:	04853187          	fld	ft3,72(a0)
    80002658:	0a3170c3          	fmadd.d	ft1,ft2,ft3,ft1
    8000265c:	02078793          	addi	a5,a5,32
    80002660:	fd2794e3          	bne	a5,s2,80002628 <svd_core+0x46c>
    80002664:	02107053          	fadd.d	ft0,ft0,ft1
    80002668:	0621                	addi	a2,a2,8
    8000266a:	00766513          	ori	a0,a2,7
    8000266e:	0721                	addi	a4,a4,8
    80002670:	e97564e3          	bltu	a0,s7,800024f8 <svd_core+0x33c>
    80002674:	4d21                	li	s10,8
    80002676:	4405                	li	s0,1
    80002678:	4489                	li	s1,2
    8000267a:	4c0d                	li	s8,3
    8000267c:	0006069b          	sext.w	a3,a2
    80002680:	e576dae3          	bge	a3,s7,800024d4 <svd_core+0x318>
    80002684:	a801                	j	80002694 <svd_core+0x4d8>
    80002686:	4601                	li	a2,0
    80002688:	22840053          	fmv.d	ft0,fs0
    8000268c:	0006069b          	sext.w	a3,a2
    80002690:	e576d2e3          	bge	a3,s7,800024d4 <svd_core+0x318>
    80002694:	02061713          	slli	a4,a2,0x20
    80002698:	02075693          	srli	a3,a4,0x20
    8000269c:	40db8633          	sub	a2,s7,a3
    800026a0:	96c2                	add	a3,a3,a6
    800026a2:	068e                	slli	a3,a3,0x3
    800026a4:	7546                	ld	a0,112(sp)
    800026a6:	96aa                	add	a3,a3,a0
    800026a8:	8375                	srli	a4,a4,0x1d
    800026aa:	0528                	addi	a0,sp,648
    800026ac:	972a                	add	a4,a4,a0
    800026ae:	0006b087          	fld	ft1,0(a3)
    800026b2:	ff073107          	fld	ft2,-16(a4)
    800026b6:	0220f043          	fmadd.d	ft0,ft1,ft2,ft0
    800026ba:	e0860de3          	beq	a2,s0,800024d4 <svd_core+0x318>
    800026be:	0086b087          	fld	ft1,8(a3)
    800026c2:	ff873107          	fld	ft2,-8(a4)
    800026c6:	0220f043          	fmadd.d	ft0,ft1,ft2,ft0
    800026ca:	e09605e3          	beq	a2,s1,800024d4 <svd_core+0x318>
    800026ce:	0106b087          	fld	ft1,16(a3)
    800026d2:	00073107          	fld	ft2,0(a4)
    800026d6:	0220f043          	fmadd.d	ft0,ft1,ft2,ft0
    800026da:	df860de3          	beq	a2,s8,800024d4 <svd_core+0x318>
    800026de:	0186b087          	fld	ft1,24(a3)
    800026e2:	00873107          	fld	ft2,8(a4)
    800026e6:	0220f043          	fmadd.d	ft0,ft1,ft2,ft0
    800026ea:	1671                	addi	a2,a2,-4
    800026ec:	02068693          	addi	a3,a3,32
    800026f0:	02070713          	addi	a4,a4,32
    800026f4:	fe4d                	bnez	a2,800026ae <svd_core+0x4f2>
    800026f6:	bbf9                	j	800024d4 <svd_core+0x318>
    800026f8:	22840953          	fmv.d	fs2,fs0
    800026fc:	3b305d63          	blez	s3,80002ab6 <svd_core+0x8fa>
    80002700:	6566                	ld	a0,88(sp)
    80002702:	05a57b63          	bgeu	a0,s10,80002758 <svd_core+0x59c>
    80002706:	4d81                	li	s11,0
    80002708:	22840953          	fmv.d	fs2,fs0
    8000270c:	6546                	ld	a0,80(sp)
    8000270e:	4405                	li	s0,1
    80002710:	4c0d                	li	s8,3
    80002712:	4d21                	li	s10,8
    80002714:	3a050163          	beqz	a0,80002ab6 <svd_core+0x8fa>
    80002718:	41b9863b          	subw	a2,s3,s11
    8000271c:	4521                	li	a0,8
    8000271e:	85b2                	mv	a1,a2
    80002720:	00a64363          	blt	a2,a0,80002726 <svd_core+0x56a>
    80002724:	45a1                	li	a1,8
    80002726:	003d9513          	slli	a0,s11,0x3
    8000272a:	04000713          	li	a4,64
    8000272e:	2cc05a63          	blez	a2,80002a02 <svd_core+0x846>
    80002732:	00856613          	ori	a2,a0,8
    80002736:	9652                	add	a2,a2,s4
    80002738:	00063803          	ld	a6,0(a2)
    8000273c:	2c95c663          	blt	a1,s1,80002a08 <svd_core+0x84c>
    80002740:	01056613          	ori	a2,a0,16
    80002744:	9652                	add	a2,a2,s4
    80002746:	00063883          	ld	a7,0(a2)
    8000274a:	00958463          	beq	a1,s1,80002752 <svd_core+0x596>
    8000274e:	6b10606f          	j	800095fe <svd_core+0x7442>
    80002752:	4781                	li	a5,0
    80002754:	4301                	li	t1,0
    80002756:	ac65                	j	80002a0e <svd_core+0x852>
    80002758:	4d81                	li	s11,0
    8000275a:	4d01                	li	s10,0
    8000275c:	22840953          	fmv.d	fs2,fs0
    80002760:	4395                	li	t2,5
    80002762:	04000713          	li	a4,64
    80002766:	41b9853b          	subw	a0,s3,s11
    8000276a:	45a1                	li	a1,8
    8000276c:	87aa                	mv	a5,a0
    8000276e:	00b54363          	blt	a0,a1,80002774 <svd_core+0x5b8>
    80002772:	47a1                	li	a5,8
    80002774:	003d9c13          	slli	s8,s11,0x3
    80002778:	02a05363          	blez	a0,8000279e <svd_core+0x5e2>
    8000277c:	008c6513          	ori	a0,s8,8
    80002780:	9552                	add	a0,a0,s4
    80002782:	00053803          	ld	a6,0(a0)
    80002786:	0097cf63          	blt	a5,s1,800027a4 <svd_core+0x5e8>
    8000278a:	010c6513          	ori	a0,s8,16
    8000278e:	9552                	add	a0,a0,s4
    80002790:	00053883          	ld	a7,0(a0)
    80002794:	1a979b63          	bne	a5,s1,8000294a <svd_core+0x78e>
    80002798:	4601                	li	a2,0
    8000279a:	4681                	li	a3,0
    8000279c:	a039                	j	800027aa <svd_core+0x5ee>
    8000279e:	4801                	li	a6,0
    800027a0:	fe97d5e3          	bge	a5,s1,8000278a <svd_core+0x5ce>
    800027a4:	4601                	li	a2,0
    800027a6:	4681                	li	a3,0
    800027a8:	4881                	li	a7,0
    800027aa:	4281                	li	t0,0
    800027ac:	4501                	li	a0,0
    800027ae:	4781                	li	a5,0
    800027b0:	018a05b3          	add	a1,s4,s8
    800027b4:	6180                	ld	s0,0(a1)
    800027b6:	4581                	li	a1,0
    800027b8:	6321                	lui	t1,0x8
    800027ba:	4783031b          	addiw	t1,t1,1144 # 8478 <buflen.1+0x8438>
    800027be:	930a                	add	t1,t1,sp
    800027c0:	00833023          	sd	s0,0(t1)
    800027c4:	6321                	lui	t1,0x8
    800027c6:	4803031b          	addiw	t1,t1,1152 # 8480 <buflen.1+0x8440>
    800027ca:	930a                	add	t1,t1,sp
    800027cc:	01033023          	sd	a6,0(t1)
    800027d0:	6821                	lui	a6,0x8
    800027d2:	4888081b          	addiw	a6,a6,1160 # 8488 <buflen.1+0x8448>
    800027d6:	980a                	add	a6,a6,sp
    800027d8:	01183023          	sd	a7,0(a6)
    800027dc:	6821                	lui	a6,0x8
    800027de:	4908081b          	addiw	a6,a6,1168 # 8490 <buflen.1+0x8450>
    800027e2:	980a                	add	a6,a6,sp
    800027e4:	00583023          	sd	t0,0(a6)
    800027e8:	6821                	lui	a6,0x8
    800027ea:	4988081b          	addiw	a6,a6,1176 # 8498 <buflen.1+0x8458>
    800027ee:	980a                	add	a6,a6,sp
    800027f0:	00d83023          	sd	a3,0(a6)
    800027f4:	66a1                	lui	a3,0x8
    800027f6:	4a06869b          	addiw	a3,a3,1184 # 84a0 <buflen.1+0x8460>
    800027fa:	968a                	add	a3,a3,sp
    800027fc:	e288                	sd	a0,0(a3)
    800027fe:	6521                	lui	a0,0x8
    80002800:	4a85051b          	addiw	a0,a0,1192 # 84a8 <buflen.1+0x8468>
    80002804:	950a                	add	a0,a0,sp
    80002806:	e110                	sd	a2,0(a0)
    80002808:	6521                	lui	a0,0x8
    8000280a:	4b05051b          	addiw	a0,a0,1200 # 84b0 <buflen.1+0x8470>
    8000280e:	950a                	add	a0,a0,sp
    80002810:	e11c                	sd	a5,0(a0)
    80002812:	22840053          	fmv.d	ft0,fs0
    80002816:	00ba8533          	add	a0,s5,a1
    8000281a:	00053087          	fld	ft1,0(a0)
    8000281e:	0210f043          	fmadd.d	ft0,ft1,ft1,ft0
    80002822:	00853087          	fld	ft1,8(a0)
    80002826:	0210f043          	fmadd.d	ft0,ft1,ft1,ft0
    8000282a:	01053087          	fld	ft1,16(a0)
    8000282e:	0210f043          	fmadd.d	ft0,ft1,ft1,ft0
    80002832:	01853087          	fld	ft1,24(a0)
    80002836:	0210f043          	fmadd.d	ft0,ft1,ft1,ft0
    8000283a:	02058593          	addi	a1,a1,32
    8000283e:	fce59ce3          	bne	a1,a4,80002816 <svd_core+0x65a>
    80002842:	5a007553          	fsqrt.d	fa0,ft0
    80002846:	a2a52553          	feq.d	a0,fa0,fa0
    8000284a:	18050b63          	beqz	a0,800029e0 <svd_core+0x824>
    8000284e:	008de613          	ori	a2,s11,8
    80002852:	40c985bb          	subw	a1,s3,a2
    80002856:	46a1                	li	a3,8
    80002858:	852e                	mv	a0,a1
    8000285a:	4395                	li	t2,5
    8000285c:	00d5c363          	blt	a1,a3,80002862 <svd_core+0x6a6>
    80002860:	4521                	li	a0,8
    80002862:	060e                	slli	a2,a2,0x3
    80002864:	9652                	add	a2,a2,s4
    80002866:	00063803          	ld	a6,0(a2)
    8000286a:	02b05363          	blez	a1,80002890 <svd_core+0x6d4>
    8000286e:	048c6593          	ori	a1,s8,72
    80002872:	95d2                	add	a1,a1,s4
    80002874:	0005b883          	ld	a7,0(a1)
    80002878:	00954f63          	blt	a0,s1,80002896 <svd_core+0x6da>
    8000287c:	050c6593          	ori	a1,s8,80
    80002880:	95d2                	add	a1,a1,s4
    80002882:	0005b283          	ld	t0,0(a1)
    80002886:	0e951163          	bne	a0,s1,80002968 <svd_core+0x7ac>
    8000288a:	4781                	li	a5,0
    8000288c:	4401                	li	s0,0
    8000288e:	a039                	j	8000289c <svd_core+0x6e0>
    80002890:	4881                	li	a7,0
    80002892:	fe9555e3          	bge	a0,s1,8000287c <svd_core+0x6c0>
    80002896:	4781                	li	a5,0
    80002898:	4401                	li	s0,0
    8000289a:	4281                	li	t0,0
    8000289c:	4681                	li	a3,0
    8000289e:	4581                	li	a1,0
    800028a0:	4601                	li	a2,0
    800028a2:	4501                	li	a0,0
    800028a4:	6321                	lui	t1,0x8
    800028a6:	4783031b          	addiw	t1,t1,1144 # 8478 <buflen.1+0x8438>
    800028aa:	930a                	add	t1,t1,sp
    800028ac:	01033023          	sd	a6,0(t1)
    800028b0:	02a974d3          	fadd.d	fs1,fs2,fa0
    800028b4:	6821                	lui	a6,0x8
    800028b6:	4808081b          	addiw	a6,a6,1152 # 8480 <buflen.1+0x8440>
    800028ba:	980a                	add	a6,a6,sp
    800028bc:	01183023          	sd	a7,0(a6)
    800028c0:	6821                	lui	a6,0x8
    800028c2:	4888081b          	addiw	a6,a6,1160 # 8488 <buflen.1+0x8448>
    800028c6:	980a                	add	a6,a6,sp
    800028c8:	00583023          	sd	t0,0(a6)
    800028cc:	6821                	lui	a6,0x8
    800028ce:	4908081b          	addiw	a6,a6,1168 # 8490 <buflen.1+0x8450>
    800028d2:	980a                	add	a6,a6,sp
    800028d4:	00d83023          	sd	a3,0(a6)
    800028d8:	66a1                	lui	a3,0x8
    800028da:	4986869b          	addiw	a3,a3,1176 # 8498 <buflen.1+0x8458>
    800028de:	968a                	add	a3,a3,sp
    800028e0:	e280                	sd	s0,0(a3)
    800028e2:	66a1                	lui	a3,0x8
    800028e4:	4a06869b          	addiw	a3,a3,1184 # 84a0 <buflen.1+0x8460>
    800028e8:	968a                	add	a3,a3,sp
    800028ea:	e28c                	sd	a1,0(a3)
    800028ec:	65a1                	lui	a1,0x8
    800028ee:	4a85859b          	addiw	a1,a1,1192 # 84a8 <buflen.1+0x8468>
    800028f2:	958a                	add	a1,a1,sp
    800028f4:	e19c                	sd	a5,0(a1)
    800028f6:	65a1                	lui	a1,0x8
    800028f8:	4b05859b          	addiw	a1,a1,1200 # 84b0 <buflen.1+0x8470>
    800028fc:	958a                	add	a1,a1,sp
    800028fe:	e190                	sd	a2,0(a1)
    80002900:	22840553          	fmv.d	fa0,fs0
    80002904:	00aa85b3          	add	a1,s5,a0
    80002908:	0005b007          	fld	ft0,0(a1)
    8000290c:	52007043          	fmadd.d	ft0,ft0,ft0,fa0
    80002910:	0085b087          	fld	ft1,8(a1)
    80002914:	0210f043          	fmadd.d	ft0,ft1,ft1,ft0
    80002918:	0105b087          	fld	ft1,16(a1)
    8000291c:	0210f043          	fmadd.d	ft0,ft1,ft1,ft0
    80002920:	0185b087          	fld	ft1,24(a1)
    80002924:	0210f543          	fmadd.d	fa0,ft1,ft1,ft0
    80002928:	02050513          	addi	a0,a0,32
    8000292c:	fce51ce3          	bne	a0,a4,80002904 <svd_core+0x748>
    80002930:	5a057053          	fsqrt.d	ft0,fa0
    80002934:	a2002553          	feq.d	a0,ft0,ft0
    80002938:	cd45                	beqz	a0,800029f0 <svd_core+0x834>
    8000293a:	0204f953          	fadd.d	fs2,fs1,ft0
    8000293e:	2d09                	addiw	s10,s10,2
    80002940:	0dc1                	addi	s11,s11,16
    80002942:	7506                	ld	a0,96(sp)
    80002944:	e2ad11e3          	bne	s10,a0,80002766 <svd_core+0x5aa>
    80002948:	b3d1                	j	8000270c <svd_core+0x550>
    8000294a:	018c6513          	ori	a0,s8,24
    8000294e:	9552                	add	a0,a0,s4
    80002950:	00053283          	ld	t0,0(a0)
    80002954:	0277e863          	bltu	a5,t2,80002984 <svd_core+0x7c8>
    80002958:	020c6513          	ori	a0,s8,32
    8000295c:	9552                	add	a0,a0,s4
    8000295e:	6114                	ld	a3,0(a0)
    80002960:	02779863          	bne	a5,t2,80002990 <svd_core+0x7d4>
    80002964:	4601                	li	a2,0
    80002966:	b599                	j	800027ac <svd_core+0x5f0>
    80002968:	058c6593          	ori	a1,s8,88
    8000296c:	95d2                	add	a1,a1,s4
    8000296e:	6194                	ld	a3,0(a1)
    80002970:	00756d63          	bltu	a0,t2,8000298a <svd_core+0x7ce>
    80002974:	060c6593          	ori	a1,s8,96
    80002978:	95d2                	add	a1,a1,s4
    8000297a:	6180                	ld	s0,0(a1)
    8000297c:	02751c63          	bne	a0,t2,800029b4 <svd_core+0x7f8>
    80002980:	4781                	li	a5,0
    80002982:	bf31                	j	8000289e <svd_core+0x6e2>
    80002984:	4601                	li	a2,0
    80002986:	4681                	li	a3,0
    80002988:	b515                	j	800027ac <svd_core+0x5f0>
    8000298a:	4781                	li	a5,0
    8000298c:	4401                	li	s0,0
    8000298e:	bf01                	j	8000289e <svd_core+0x6e2>
    80002990:	028c6513          	ori	a0,s8,40
    80002994:	9552                	add	a0,a0,s4
    80002996:	6108                	ld	a0,0(a0)
    80002998:	441d                	li	s0,7
    8000299a:	0287ef63          	bltu	a5,s0,800029d8 <svd_core+0x81c>
    8000299e:	030c6593          	ori	a1,s8,48
    800029a2:	95d2                	add	a1,a1,s4
    800029a4:	6190                	ld	a2,0(a1)
    800029a6:	e08784e3          	beq	a5,s0,800027ae <svd_core+0x5f2>
    800029aa:	038c6593          	ori	a1,s8,56
    800029ae:	95d2                	add	a1,a1,s4
    800029b0:	619c                	ld	a5,0(a1)
    800029b2:	bbfd                	j	800027b0 <svd_core+0x5f4>
    800029b4:	068c6593          	ori	a1,s8,104
    800029b8:	95d2                	add	a1,a1,s4
    800029ba:	618c                	ld	a1,0(a1)
    800029bc:	431d                	li	t1,7
    800029be:	00656f63          	bltu	a0,t1,800029dc <svd_core+0x820>
    800029c2:	070c6613          	ori	a2,s8,112
    800029c6:	9652                	add	a2,a2,s4
    800029c8:	621c                	ld	a5,0(a2)
    800029ca:	ec650be3          	beq	a0,t1,800028a0 <svd_core+0x6e4>
    800029ce:	078c6513          	ori	a0,s8,120
    800029d2:	9552                	add	a0,a0,s4
    800029d4:	6110                	ld	a2,0(a0)
    800029d6:	b5f1                	j	800028a2 <svd_core+0x6e6>
    800029d8:	4601                	li	a2,0
    800029da:	bbd1                	j	800027ae <svd_core+0x5f2>
    800029dc:	4781                	li	a5,0
    800029de:	b5c9                	j	800028a0 <svd_core+0x6e4>
    800029e0:	22000553          	fmv.d	fa0,ft0
    800029e4:	77f0d0ef          	jal	80010962 <sqrt>
    800029e8:	04000713          	li	a4,64
    800029ec:	4489                	li	s1,2
    800029ee:	b585                	j	8000284e <svd_core+0x692>
    800029f0:	7730d0ef          	jal	80010962 <sqrt>
    800029f4:	4395                	li	t2,5
    800029f6:	04000713          	li	a4,64
    800029fa:	4489                	li	s1,2
    800029fc:	22a50053          	fmv.d	ft0,fa0
    80002a00:	bf2d                	j	8000293a <svd_core+0x77e>
    80002a02:	4801                	li	a6,0
    80002a04:	d295dee3          	bge	a1,s1,80002740 <svd_core+0x584>
    80002a08:	4781                	li	a5,0
    80002a0a:	4301                	li	t1,0
    80002a0c:	4881                	li	a7,0
    80002a0e:	4281                	li	t0,0
    80002a10:	4601                	li	a2,0
    80002a12:	4581                	li	a1,0
    80002a14:	9552                	add	a0,a0,s4
    80002a16:	6114                	ld	a3,0(a0)
    80002a18:	4501                	li	a0,0
    80002a1a:	63a1                	lui	t2,0x8
    80002a1c:	4783839b          	addiw	t2,t2,1144 # 8478 <buflen.1+0x8438>
    80002a20:	938a                	add	t2,t2,sp
    80002a22:	00d3b023          	sd	a3,0(t2)
    80002a26:	66a1                	lui	a3,0x8
    80002a28:	4806869b          	addiw	a3,a3,1152 # 8480 <buflen.1+0x8440>
    80002a2c:	968a                	add	a3,a3,sp
    80002a2e:	0106b023          	sd	a6,0(a3)
    80002a32:	66a1                	lui	a3,0x8
    80002a34:	4886869b          	addiw	a3,a3,1160 # 8488 <buflen.1+0x8448>
    80002a38:	968a                	add	a3,a3,sp
    80002a3a:	0116b023          	sd	a7,0(a3)
    80002a3e:	66a1                	lui	a3,0x8
    80002a40:	4906869b          	addiw	a3,a3,1168 # 8490 <buflen.1+0x8450>
    80002a44:	968a                	add	a3,a3,sp
    80002a46:	0056b023          	sd	t0,0(a3)
    80002a4a:	66a1                	lui	a3,0x8
    80002a4c:	4986869b          	addiw	a3,a3,1176 # 8498 <buflen.1+0x8458>
    80002a50:	968a                	add	a3,a3,sp
    80002a52:	0066b023          	sd	t1,0(a3)
    80002a56:	66a1                	lui	a3,0x8
    80002a58:	4a06869b          	addiw	a3,a3,1184 # 84a0 <buflen.1+0x8460>
    80002a5c:	968a                	add	a3,a3,sp
    80002a5e:	e290                	sd	a2,0(a3)
    80002a60:	6621                	lui	a2,0x8
    80002a62:	4a86061b          	addiw	a2,a2,1192 # 84a8 <buflen.1+0x8468>
    80002a66:	960a                	add	a2,a2,sp
    80002a68:	e21c                	sd	a5,0(a2)
    80002a6a:	6621                	lui	a2,0x8
    80002a6c:	4b06061b          	addiw	a2,a2,1200 # 84b0 <buflen.1+0x8470>
    80002a70:	960a                	add	a2,a2,sp
    80002a72:	e20c                	sd	a1,0(a2)
    80002a74:	22840553          	fmv.d	fa0,fs0
    80002a78:	00aa85b3          	add	a1,s5,a0
    80002a7c:	0005b007          	fld	ft0,0(a1)
    80002a80:	52007043          	fmadd.d	ft0,ft0,ft0,fa0
    80002a84:	0085b087          	fld	ft1,8(a1)
    80002a88:	0210f043          	fmadd.d	ft0,ft1,ft1,ft0
    80002a8c:	0105b087          	fld	ft1,16(a1)
    80002a90:	0210f043          	fmadd.d	ft0,ft1,ft1,ft0
    80002a94:	0185b087          	fld	ft1,24(a1)
    80002a98:	0210f543          	fmadd.d	fa0,ft1,ft1,ft0
    80002a9c:	02050513          	addi	a0,a0,32
    80002aa0:	fce51ce3          	bne	a0,a4,80002a78 <svd_core+0x8bc>
    80002aa4:	5a057053          	fsqrt.d	ft0,fa0
    80002aa8:	a2002553          	feq.d	a0,ft0,ft0
    80002aac:	e119                	bnez	a0,80002ab2 <svd_core+0x8f6>
    80002aae:	2ca0d06f          	j	8000fd78 <svd_core+0xdbbc>
    80002ab2:	02097953          	fadd.d	fs2,fs2,ft0
    80002ab6:	0b497053          	fsub.d	ft0,fs2,fs4
    80002aba:	a2801553          	flt.d	a0,ft0,fs0
    80002abe:	c119                	beqz	a0,80002ac4 <svd_core+0x908>
    80002ac0:	22001053          	fneg.d	ft0,ft0
    80002ac4:	0000e517          	auipc	a0,0xe
    80002ac8:	09450513          	addi	a0,a0,148 # 80010b58 <__ieee754_sqrt+0x1b4>
    80002acc:	2104                	fld	fs1,0(a0)
    80002ace:	a2901553          	flt.d	a0,ft0,fs1
    80002ad2:	c119                	beqz	a0,80002ad8 <svd_core+0x91c>
    80002ad4:	4020d06f          	j	8000fed6 <svd_core+0xdd1a>
    80002ad8:	4801                	li	a6,0
    80002ada:	4881                	li	a7,0
    80002adc:	a821                	j	80002af4 <svd_core+0x938>
    80002ade:	1b207053          	fdiv.d	ft0,ft0,fs2
    80002ae2:	00389513          	slli	a0,a7,0x3
    80002ae6:	9566                	add	a0,a0,s9
    80002ae8:	00053027          	fsd	ft0,0(a0)
    80002aec:	0885                	addi	a7,a7,1
    80002aee:	984e                	add	a6,a6,s3
    80002af0:	21788b63          	beq	a7,s7,80002d06 <svd_core+0xb4a>
    80002af4:	1ba9c063          	blt	s3,s10,80002c94 <svd_core+0xad8>
    80002af8:	4601                	li	a2,0
    80002afa:	033882b3          	mul	t0,a7,s3
    80002afe:	f20000d3          	fmv.d.x	ft1,zero
    80002b02:	471d                	li	a4,7
    80002b04:	22108053          	fmv.d	ft0,ft1
    80002b08:	005607b3          	add	a5,a2,t0
    80002b0c:	078e                	slli	a5,a5,0x3
    80002b0e:	97da                	add	a5,a5,s6
    80002b10:	0007bd03          	ld	s10,0(a5)
    80002b14:	0087bc03          	ld	s8,8(a5)
    80002b18:	0107be03          	ld	t3,16(a5)
    80002b1c:	0187be83          	ld	t4,24(a5)
    80002b20:	0207bf03          	ld	t5,32(a5)
    80002b24:	0287b303          	ld	t1,40(a5)
    80002b28:	0307b383          	ld	t2,48(a5)
    80002b2c:	0387bf83          	ld	t6,56(a5)
    80002b30:	00361513          	slli	a0,a2,0x3
    80002b34:	00aa05b3          	add	a1,s4,a0
    80002b38:	0005bd83          	ld	s11,0(a1)
    80002b3c:	00856693          	ori	a3,a0,8
    80002b40:	96d2                	add	a3,a3,s4
    80002b42:	0006b083          	ld	ra,0(a3)
    80002b46:	01056793          	ori	a5,a0,16
    80002b4a:	97d2                	add	a5,a5,s4
    80002b4c:	639c                	ld	a5,0(a5)
    80002b4e:	01856413          	ori	s0,a0,24
    80002b52:	9452                	add	s0,s0,s4
    80002b54:	6000                	ld	s0,0(s0)
    80002b56:	02056493          	ori	s1,a0,32
    80002b5a:	94d2                	add	s1,s1,s4
    80002b5c:	6084                	ld	s1,0(s1)
    80002b5e:	02856593          	ori	a1,a0,40
    80002b62:	95d2                	add	a1,a1,s4
    80002b64:	618c                	ld	a1,0(a1)
    80002b66:	03056513          	ori	a0,a0,48
    80002b6a:	9552                	add	a0,a0,s4
    80002b6c:	6108                	ld	a0,0(a0)
    80002b6e:	00371693          	slli	a3,a4,0x3
    80002b72:	96d2                	add	a3,a3,s4
    80002b74:	6294                	ld	a3,0(a3)
    80002b76:	e042                	sd	a6,0(sp)
    80002b78:	6821                	lui	a6,0x8
    80002b7a:	4788081b          	addiw	a6,a6,1144 # 8478 <buflen.1+0x8438>
    80002b7e:	980a                	add	a6,a6,sp
    80002b80:	01a83023          	sd	s10,0(a6)
    80002b84:	6802                	ld	a6,0(sp)
    80002b86:	6d21                	lui	s10,0x8
    80002b88:	480d0d1b          	addiw	s10,s10,1152 # 8480 <buflen.1+0x8440>
    80002b8c:	9d0a                	add	s10,s10,sp
    80002b8e:	018d3023          	sd	s8,0(s10)
    80002b92:	6c21                	lui	s8,0x8
    80002b94:	488c0c1b          	addiw	s8,s8,1160 # 8488 <buflen.1+0x8448>
    80002b98:	9c0a                	add	s8,s8,sp
    80002b9a:	01cc3023          	sd	t3,0(s8)
    80002b9e:	6e21                	lui	t3,0x8
    80002ba0:	490e0e1b          	addiw	t3,t3,1168 # 8490 <buflen.1+0x8450>
    80002ba4:	9e0a                	add	t3,t3,sp
    80002ba6:	01de3023          	sd	t4,0(t3)
    80002baa:	6e21                	lui	t3,0x8
    80002bac:	498e0e1b          	addiw	t3,t3,1176 # 8498 <buflen.1+0x8458>
    80002bb0:	9e0a                	add	t3,t3,sp
    80002bb2:	01ee3023          	sd	t5,0(t3)
    80002bb6:	6e21                	lui	t3,0x8
    80002bb8:	4a0e0e1b          	addiw	t3,t3,1184 # 84a0 <buflen.1+0x8460>
    80002bbc:	9e0a                	add	t3,t3,sp
    80002bbe:	006e3023          	sd	t1,0(t3)
    80002bc2:	6321                	lui	t1,0x8
    80002bc4:	4a83031b          	addiw	t1,t1,1192 # 84a8 <buflen.1+0x8468>
    80002bc8:	930a                	add	t1,t1,sp
    80002bca:	00733023          	sd	t2,0(t1)
    80002bce:	6321                	lui	t1,0x8
    80002bd0:	4b03031b          	addiw	t1,t1,1200 # 84b0 <buflen.1+0x8470>
    80002bd4:	930a                	add	t1,t1,sp
    80002bd6:	01f33023          	sd	t6,0(t1)
    80002bda:	6321                	lui	t1,0x8
    80002bdc:	4b83031b          	addiw	t1,t1,1208 # 84b8 <buflen.1+0x8478>
    80002be0:	930a                	add	t1,t1,sp
    80002be2:	01b33023          	sd	s11,0(t1)
    80002be6:	6321                	lui	t1,0x8
    80002be8:	4c03031b          	addiw	t1,t1,1216 # 84c0 <buflen.1+0x8480>
    80002bec:	930a                	add	t1,t1,sp
    80002bee:	00133023          	sd	ra,0(t1)
    80002bf2:	6321                	lui	t1,0x8
    80002bf4:	4c83031b          	addiw	t1,t1,1224 # 84c8 <buflen.1+0x8488>
    80002bf8:	930a                	add	t1,t1,sp
    80002bfa:	00f33023          	sd	a5,0(t1)
    80002bfe:	67a1                	lui	a5,0x8
    80002c00:	4d07879b          	addiw	a5,a5,1232 # 84d0 <buflen.1+0x8490>
    80002c04:	978a                	add	a5,a5,sp
    80002c06:	e380                	sd	s0,0(a5)
    80002c08:	67a1                	lui	a5,0x8
    80002c0a:	4d87879b          	addiw	a5,a5,1240 # 84d8 <buflen.1+0x8498>
    80002c0e:	978a                	add	a5,a5,sp
    80002c10:	e384                	sd	s1,0(a5)
    80002c12:	67a1                	lui	a5,0x8
    80002c14:	4e07879b          	addiw	a5,a5,1248 # 84e0 <buflen.1+0x84a0>
    80002c18:	978a                	add	a5,a5,sp
    80002c1a:	e38c                	sd	a1,0(a5)
    80002c1c:	65a1                	lui	a1,0x8
    80002c1e:	4e85859b          	addiw	a1,a1,1256 # 84e8 <buflen.1+0x84a8>
    80002c22:	958a                	add	a1,a1,sp
    80002c24:	e188                	sd	a0,0(a1)
    80002c26:	6521                	lui	a0,0x8
    80002c28:	4f05051b          	addiw	a0,a0,1264 # 84f0 <buflen.1+0x84b0>
    80002c2c:	950a                	add	a0,a0,sp
    80002c2e:	e114                	sd	a3,0(a0)
    80002c30:	47c1                	li	a5,16
    80002c32:	22108153          	fmv.d	ft2,ft1
    80002c36:	00fa8533          	add	a0,s5,a5
    80002c3a:	ff053187          	fld	ft3,-16(a0)
    80002c3e:	03053207          	fld	ft4,48(a0)
    80002c42:	1241f143          	fmadd.d	ft2,ft3,ft4,ft2
    80002c46:	ff853187          	fld	ft3,-8(a0)
    80002c4a:	03853207          	fld	ft4,56(a0)
    80002c4e:	1241f143          	fmadd.d	ft2,ft3,ft4,ft2
    80002c52:	00053187          	fld	ft3,0(a0)
    80002c56:	04053207          	fld	ft4,64(a0)
    80002c5a:	1241f143          	fmadd.d	ft2,ft3,ft4,ft2
    80002c5e:	00853187          	fld	ft3,8(a0)
    80002c62:	04853207          	fld	ft4,72(a0)
    80002c66:	1241f143          	fmadd.d	ft2,ft3,ft4,ft2
    80002c6a:	02078793          	addi	a5,a5,32
    80002c6e:	fd2794e3          	bne	a5,s2,80002c36 <svd_core+0xa7a>
    80002c72:	02207053          	fadd.d	ft0,ft0,ft2
    80002c76:	0621                	addi	a2,a2,8
    80002c78:	00766513          	ori	a0,a2,7
    80002c7c:	0721                	addi	a4,a4,8
    80002c7e:	e93545e3          	blt	a0,s3,80002b08 <svd_core+0x94c>
    80002c82:	4d21                	li	s10,8
    80002c84:	4405                	li	s0,1
    80002c86:	4489                	li	s1,2
    80002c88:	4c0d                	li	s8,3
    80002c8a:	0006069b          	sext.w	a3,a2
    80002c8e:	e536d8e3          	bge	a3,s3,80002ade <svd_core+0x922>
    80002c92:	a801                	j	80002ca2 <svd_core+0xae6>
    80002c94:	f2000053          	fmv.d.x	ft0,zero
    80002c98:	4601                	li	a2,0
    80002c9a:	0006069b          	sext.w	a3,a2
    80002c9e:	e536d0e3          	bge	a3,s3,80002ade <svd_core+0x922>
    80002ca2:	02061713          	slli	a4,a2,0x20
    80002ca6:	02075693          	srli	a3,a4,0x20
    80002caa:	7526                	ld	a0,104(sp)
    80002cac:	40d50633          	sub	a2,a0,a3
    80002cb0:	96c2                	add	a3,a3,a6
    80002cb2:	068e                	slli	a3,a3,0x3
    80002cb4:	96da                	add	a3,a3,s6
    80002cb6:	8375                	srli	a4,a4,0x1d
    80002cb8:	0128                	addi	a0,sp,136
    80002cba:	972a                	add	a4,a4,a0
    80002cbc:	0006b087          	fld	ft1,0(a3)
    80002cc0:	ff073107          	fld	ft2,-16(a4)
    80002cc4:	0220f043          	fmadd.d	ft0,ft1,ft2,ft0
    80002cc8:	e0860be3          	beq	a2,s0,80002ade <svd_core+0x922>
    80002ccc:	0086b087          	fld	ft1,8(a3)
    80002cd0:	ff873107          	fld	ft2,-8(a4)
    80002cd4:	0220f043          	fmadd.d	ft0,ft1,ft2,ft0
    80002cd8:	e09603e3          	beq	a2,s1,80002ade <svd_core+0x922>
    80002cdc:	0106b087          	fld	ft1,16(a3)
    80002ce0:	00073107          	fld	ft2,0(a4)
    80002ce4:	0220f043          	fmadd.d	ft0,ft1,ft2,ft0
    80002ce8:	df860be3          	beq	a2,s8,80002ade <svd_core+0x922>
    80002cec:	0186b087          	fld	ft1,24(a3)
    80002cf0:	00873107          	fld	ft2,8(a4)
    80002cf4:	0220f043          	fmadd.d	ft0,ft1,ft2,ft0
    80002cf8:	1671                	addi	a2,a2,-4
    80002cfa:	02068693          	addi	a3,a3,32
    80002cfe:	02070713          	addi	a4,a4,32
    80002d02:	fe4d                	bnez	a2,80002cbc <svd_core+0xb00>
    80002d04:	bbe9                	j	80002ade <svd_core+0x922>
    80002d06:	18a8                	addi	a0,sp,120
    80002d08:	20000613          	li	a2,512
    80002d0c:	4581                	li	a1,0
    80002d0e:	0cf0d0ef          	jal	800105dc <memset>
    80002d12:	4389                	li	t2,2
    80002d14:	f2000a53          	fmv.d.x	fs4,zero
    80002d18:	234a09d3          	fmv.d	fs3,fs4
    80002d1c:	04000493          	li	s1,64
    80002d20:	5f305463          	blez	s3,80003308 <svd_core+0x114c>
    80002d24:	4801                	li	a6,0
    80002d26:	4881                	li	a7,0
    80002d28:	a819                	j	80002d3e <svd_core+0xb82>
    80002d2a:	00389513          	slli	a0,a7,0x3
    80002d2e:	9552                	add	a0,a0,s4
    80002d30:	00053027          	fsd	ft0,0(a0)
    80002d34:	0885                	addi	a7,a7,1
    80002d36:	985e                	add	a6,a6,s7
    80002d38:	7526                	ld	a0,104(sp)
    80002d3a:	20a88f63          	beq	a7,a0,80002f58 <svd_core+0xd9c>
    80002d3e:	1babe363          	bltu	s7,s10,80002ee4 <svd_core+0xd28>
    80002d42:	4601                	li	a2,0
    80002d44:	037882b3          	mul	t0,a7,s7
    80002d48:	f20000d3          	fmv.d.x	ft1,zero
    80002d4c:	471d                	li	a4,7
    80002d4e:	22108053          	fmv.d	ft0,ft1
    80002d52:	005607b3          	add	a5,a2,t0
    80002d56:	078e                	slli	a5,a5,0x3
    80002d58:	7546                	ld	a0,112(sp)
    80002d5a:	97aa                	add	a5,a5,a0
    80002d5c:	0007bd03          	ld	s10,0(a5)
    80002d60:	0087bc03          	ld	s8,8(a5)
    80002d64:	0107be03          	ld	t3,16(a5)
    80002d68:	0187be83          	ld	t4,24(a5)
    80002d6c:	0207bf03          	ld	t5,32(a5)
    80002d70:	0287b303          	ld	t1,40(a5)
    80002d74:	0307b383          	ld	t2,48(a5)
    80002d78:	0387bf83          	ld	t6,56(a5)
    80002d7c:	00361513          	slli	a0,a2,0x3
    80002d80:	00ac85b3          	add	a1,s9,a0
    80002d84:	0005bd83          	ld	s11,0(a1)
    80002d88:	00856693          	ori	a3,a0,8
    80002d8c:	96e6                	add	a3,a3,s9
    80002d8e:	0006b083          	ld	ra,0(a3)
    80002d92:	01056793          	ori	a5,a0,16
    80002d96:	97e6                	add	a5,a5,s9
    80002d98:	639c                	ld	a5,0(a5)
    80002d9a:	01856413          	ori	s0,a0,24
    80002d9e:	9466                	add	s0,s0,s9
    80002da0:	6000                	ld	s0,0(s0)
    80002da2:	02056493          	ori	s1,a0,32
    80002da6:	94e6                	add	s1,s1,s9
    80002da8:	6084                	ld	s1,0(s1)
    80002daa:	02856593          	ori	a1,a0,40
    80002dae:	95e6                	add	a1,a1,s9
    80002db0:	618c                	ld	a1,0(a1)
    80002db2:	03056513          	ori	a0,a0,48
    80002db6:	9566                	add	a0,a0,s9
    80002db8:	6108                	ld	a0,0(a0)
    80002dba:	00371693          	slli	a3,a4,0x3
    80002dbe:	96e6                	add	a3,a3,s9
    80002dc0:	6294                	ld	a3,0(a3)
    80002dc2:	e042                	sd	a6,0(sp)
    80002dc4:	6821                	lui	a6,0x8
    80002dc6:	4788081b          	addiw	a6,a6,1144 # 8478 <buflen.1+0x8438>
    80002dca:	980a                	add	a6,a6,sp
    80002dcc:	01a83023          	sd	s10,0(a6)
    80002dd0:	6802                	ld	a6,0(sp)
    80002dd2:	6d21                	lui	s10,0x8
    80002dd4:	480d0d1b          	addiw	s10,s10,1152 # 8480 <buflen.1+0x8440>
    80002dd8:	9d0a                	add	s10,s10,sp
    80002dda:	018d3023          	sd	s8,0(s10)
    80002dde:	6c21                	lui	s8,0x8
    80002de0:	488c0c1b          	addiw	s8,s8,1160 # 8488 <buflen.1+0x8448>
    80002de4:	9c0a                	add	s8,s8,sp
    80002de6:	01cc3023          	sd	t3,0(s8)
    80002dea:	6e21                	lui	t3,0x8
    80002dec:	490e0e1b          	addiw	t3,t3,1168 # 8490 <buflen.1+0x8450>
    80002df0:	9e0a                	add	t3,t3,sp
    80002df2:	01de3023          	sd	t4,0(t3)
    80002df6:	6e21                	lui	t3,0x8
    80002df8:	498e0e1b          	addiw	t3,t3,1176 # 8498 <buflen.1+0x8458>
    80002dfc:	9e0a                	add	t3,t3,sp
    80002dfe:	01ee3023          	sd	t5,0(t3)
    80002e02:	6e21                	lui	t3,0x8
    80002e04:	4a0e0e1b          	addiw	t3,t3,1184 # 84a0 <buflen.1+0x8460>
    80002e08:	9e0a                	add	t3,t3,sp
    80002e0a:	006e3023          	sd	t1,0(t3)
    80002e0e:	6321                	lui	t1,0x8
    80002e10:	4a83031b          	addiw	t1,t1,1192 # 84a8 <buflen.1+0x8468>
    80002e14:	930a                	add	t1,t1,sp
    80002e16:	00733023          	sd	t2,0(t1)
    80002e1a:	6321                	lui	t1,0x8
    80002e1c:	4b03031b          	addiw	t1,t1,1200 # 84b0 <buflen.1+0x8470>
    80002e20:	930a                	add	t1,t1,sp
    80002e22:	01f33023          	sd	t6,0(t1)
    80002e26:	6321                	lui	t1,0x8
    80002e28:	4b83031b          	addiw	t1,t1,1208 # 84b8 <buflen.1+0x8478>
    80002e2c:	930a                	add	t1,t1,sp
    80002e2e:	01b33023          	sd	s11,0(t1)
    80002e32:	6321                	lui	t1,0x8
    80002e34:	4c03031b          	addiw	t1,t1,1216 # 84c0 <buflen.1+0x8480>
    80002e38:	930a                	add	t1,t1,sp
    80002e3a:	00133023          	sd	ra,0(t1)
    80002e3e:	6321                	lui	t1,0x8
    80002e40:	4c83031b          	addiw	t1,t1,1224 # 84c8 <buflen.1+0x8488>
    80002e44:	930a                	add	t1,t1,sp
    80002e46:	00f33023          	sd	a5,0(t1)
    80002e4a:	67a1                	lui	a5,0x8
    80002e4c:	4d07879b          	addiw	a5,a5,1232 # 84d0 <buflen.1+0x8490>
    80002e50:	978a                	add	a5,a5,sp
    80002e52:	e380                	sd	s0,0(a5)
    80002e54:	67a1                	lui	a5,0x8
    80002e56:	4d87879b          	addiw	a5,a5,1240 # 84d8 <buflen.1+0x8498>
    80002e5a:	978a                	add	a5,a5,sp
    80002e5c:	e384                	sd	s1,0(a5)
    80002e5e:	67a1                	lui	a5,0x8
    80002e60:	4e07879b          	addiw	a5,a5,1248 # 84e0 <buflen.1+0x84a0>
    80002e64:	978a                	add	a5,a5,sp
    80002e66:	e38c                	sd	a1,0(a5)
    80002e68:	65a1                	lui	a1,0x8
    80002e6a:	4e85859b          	addiw	a1,a1,1256 # 84e8 <buflen.1+0x84a8>
    80002e6e:	958a                	add	a1,a1,sp
    80002e70:	e188                	sd	a0,0(a1)
    80002e72:	6521                	lui	a0,0x8
    80002e74:	4f05051b          	addiw	a0,a0,1264 # 84f0 <buflen.1+0x84b0>
    80002e78:	950a                	add	a0,a0,sp
    80002e7a:	e114                	sd	a3,0(a0)
    80002e7c:	47c1                	li	a5,16
    80002e7e:	22108153          	fmv.d	ft2,ft1
    80002e82:	00fa8533          	add	a0,s5,a5
    80002e86:	ff053187          	fld	ft3,-16(a0)
    80002e8a:	03053207          	fld	ft4,48(a0)
    80002e8e:	1241f143          	fmadd.d	ft2,ft3,ft4,ft2
    80002e92:	ff853187          	fld	ft3,-8(a0)
    80002e96:	03853207          	fld	ft4,56(a0)
    80002e9a:	1241f143          	fmadd.d	ft2,ft3,ft4,ft2
    80002e9e:	00053187          	fld	ft3,0(a0)
    80002ea2:	04053207          	fld	ft4,64(a0)
    80002ea6:	1241f143          	fmadd.d	ft2,ft3,ft4,ft2
    80002eaa:	00853187          	fld	ft3,8(a0)
    80002eae:	04853207          	fld	ft4,72(a0)
    80002eb2:	1241f143          	fmadd.d	ft2,ft3,ft4,ft2
    80002eb6:	02078793          	addi	a5,a5,32
    80002eba:	fd2794e3          	bne	a5,s2,80002e82 <svd_core+0xcc6>
    80002ebe:	02207053          	fadd.d	ft0,ft0,ft2
    80002ec2:	0621                	addi	a2,a2,8
    80002ec4:	00766513          	ori	a0,a2,7
    80002ec8:	0721                	addi	a4,a4,8
    80002eca:	e97564e3          	bltu	a0,s7,80002d52 <svd_core+0xb96>
    80002ece:	4d21                	li	s10,8
    80002ed0:	4405                	li	s0,1
    80002ed2:	4389                	li	t2,2
    80002ed4:	4c0d                	li	s8,3
    80002ed6:	04000493          	li	s1,64
    80002eda:	0006051b          	sext.w	a0,a2
    80002ede:	e57556e3          	bge	a0,s7,80002d2a <svd_core+0xb6e>
    80002ee2:	a801                	j	80002ef2 <svd_core+0xd36>
    80002ee4:	f2000053          	fmv.d.x	ft0,zero
    80002ee8:	4601                	li	a2,0
    80002eea:	0006051b          	sext.w	a0,a2
    80002eee:	e3755ee3          	bge	a0,s7,80002d2a <svd_core+0xb6e>
    80002ef2:	02061513          	slli	a0,a2,0x20
    80002ef6:	02055593          	srli	a1,a0,0x20
    80002efa:	40bb8633          	sub	a2,s7,a1
    80002efe:	95c2                	add	a1,a1,a6
    80002f00:	058e                	slli	a1,a1,0x3
    80002f02:	76c6                	ld	a3,112(sp)
    80002f04:	96ae                	add	a3,a3,a1
    80002f06:	8175                	srli	a0,a0,0x1d
    80002f08:	052c                	addi	a1,sp,648
    80002f0a:	00a58733          	add	a4,a1,a0
    80002f0e:	0006b087          	fld	ft1,0(a3)
    80002f12:	ff073107          	fld	ft2,-16(a4)
    80002f16:	0220f043          	fmadd.d	ft0,ft1,ft2,ft0
    80002f1a:	e08608e3          	beq	a2,s0,80002d2a <svd_core+0xb6e>
    80002f1e:	0086b087          	fld	ft1,8(a3)
    80002f22:	ff873107          	fld	ft2,-8(a4)
    80002f26:	0220f043          	fmadd.d	ft0,ft1,ft2,ft0
    80002f2a:	e07600e3          	beq	a2,t2,80002d2a <svd_core+0xb6e>
    80002f2e:	0106b087          	fld	ft1,16(a3)
    80002f32:	00073107          	fld	ft2,0(a4)
    80002f36:	0220f043          	fmadd.d	ft0,ft1,ft2,ft0
    80002f3a:	df8608e3          	beq	a2,s8,80002d2a <svd_core+0xb6e>
    80002f3e:	0186b087          	fld	ft1,24(a3)
    80002f42:	00873107          	fld	ft2,8(a4)
    80002f46:	0220f043          	fmadd.d	ft0,ft1,ft2,ft0
    80002f4a:	1671                	addi	a2,a2,-4
    80002f4c:	02068693          	addi	a3,a3,32
    80002f50:	02070713          	addi	a4,a4,32
    80002f54:	fe4d                	bnez	a2,80002f0e <svd_core+0xd52>
    80002f56:	bbd1                	j	80002d2a <svd_core+0xb6e>
    80002f58:	05305c63          	blez	s3,80002fb0 <svd_core+0xdf4>
    80002f5c:	6566                	ld	a0,88(sp)
    80002f5e:	05a57c63          	bgeu	a0,s10,80002fb6 <svd_core+0xdfa>
    80002f62:	f20009d3          	fmv.d.x	fs3,zero
    80002f66:	4d81                	li	s11,0
    80002f68:	6546                	ld	a0,80(sp)
    80002f6a:	4405                	li	s0,1
    80002f6c:	4c0d                	li	s8,3
    80002f6e:	4d21                	li	s10,8
    80002f70:	38050c63          	beqz	a0,80003308 <svd_core+0x114c>
    80002f74:	41b9863b          	subw	a2,s3,s11
    80002f78:	4521                	li	a0,8
    80002f7a:	85b2                	mv	a1,a2
    80002f7c:	00a64363          	blt	a2,a0,80002f82 <svd_core+0xdc6>
    80002f80:	45a1                	li	a1,8
    80002f82:	003d9513          	slli	a0,s11,0x3
    80002f86:	2cc05863          	blez	a2,80003256 <svd_core+0x109a>
    80002f8a:	00856613          	ori	a2,a0,8
    80002f8e:	9652                	add	a2,a2,s4
    80002f90:	00063803          	ld	a6,0(a2)
    80002f94:	2c75c463          	blt	a1,t2,8000325c <svd_core+0x10a0>
    80002f98:	01056613          	ori	a2,a0,16
    80002f9c:	9652                	add	a2,a2,s4
    80002f9e:	00063883          	ld	a7,0(a2)
    80002fa2:	00758463          	beq	a1,t2,80002faa <svd_core+0xdee>
    80002fa6:	6d30606f          	j	80009e78 <svd_core+0x7cbc>
    80002faa:	4781                	li	a5,0
    80002fac:	4701                	li	a4,0
    80002fae:	ac55                	j	80003262 <svd_core+0x10a6>
    80002fb0:	f20009d3          	fmv.d.x	fs3,zero
    80002fb4:	ae91                	j	80003308 <svd_core+0x114c>
    80002fb6:	4d81                	li	s11,0
    80002fb8:	f20009d3          	fmv.d.x	fs3,zero
    80002fbc:	4d01                	li	s10,0
    80002fbe:	4415                	li	s0,5
    80002fc0:	41b9853b          	subw	a0,s3,s11
    80002fc4:	45a1                	li	a1,8
    80002fc6:	87aa                	mv	a5,a0
    80002fc8:	00b54363          	blt	a0,a1,80002fce <svd_core+0xe12>
    80002fcc:	47a1                	li	a5,8
    80002fce:	003d9c13          	slli	s8,s11,0x3
    80002fd2:	02a05363          	blez	a0,80002ff8 <svd_core+0xe3c>
    80002fd6:	008c6513          	ori	a0,s8,8
    80002fda:	9552                	add	a0,a0,s4
    80002fdc:	00053803          	ld	a6,0(a0)
    80002fe0:	0077cf63          	blt	a5,t2,80002ffe <svd_core+0xe42>
    80002fe4:	010c6513          	ori	a0,s8,16
    80002fe8:	9552                	add	a0,a0,s4
    80002fea:	00053883          	ld	a7,0(a0)
    80002fee:	1a779a63          	bne	a5,t2,800031a2 <svd_core+0xfe6>
    80002ff2:	4701                	li	a4,0
    80002ff4:	4681                	li	a3,0
    80002ff6:	a039                	j	80003004 <svd_core+0xe48>
    80002ff8:	4801                	li	a6,0
    80002ffa:	fe77d5e3          	bge	a5,t2,80002fe4 <svd_core+0xe28>
    80002ffe:	4701                	li	a4,0
    80003000:	4681                	li	a3,0
    80003002:	4881                	li	a7,0
    80003004:	4601                	li	a2,0
    80003006:	4501                	li	a0,0
    80003008:	4781                	li	a5,0
    8000300a:	018a05b3          	add	a1,s4,s8
    8000300e:	6180                	ld	s0,0(a1)
    80003010:	4581                	li	a1,0
    80003012:	62a1                	lui	t0,0x8
    80003014:	4782829b          	addiw	t0,t0,1144 # 8478 <buflen.1+0x8438>
    80003018:	928a                	add	t0,t0,sp
    8000301a:	0082b023          	sd	s0,0(t0)
    8000301e:	62a1                	lui	t0,0x8
    80003020:	4802829b          	addiw	t0,t0,1152 # 8480 <buflen.1+0x8440>
    80003024:	928a                	add	t0,t0,sp
    80003026:	0102b023          	sd	a6,0(t0)
    8000302a:	6821                	lui	a6,0x8
    8000302c:	4888081b          	addiw	a6,a6,1160 # 8488 <buflen.1+0x8448>
    80003030:	980a                	add	a6,a6,sp
    80003032:	01183023          	sd	a7,0(a6)
    80003036:	6821                	lui	a6,0x8
    80003038:	4908081b          	addiw	a6,a6,1168 # 8490 <buflen.1+0x8450>
    8000303c:	980a                	add	a6,a6,sp
    8000303e:	00c83023          	sd	a2,0(a6)
    80003042:	6621                	lui	a2,0x8
    80003044:	4986061b          	addiw	a2,a2,1176 # 8498 <buflen.1+0x8458>
    80003048:	960a                	add	a2,a2,sp
    8000304a:	e214                	sd	a3,0(a2)
    8000304c:	6621                	lui	a2,0x8
    8000304e:	4a06061b          	addiw	a2,a2,1184 # 84a0 <buflen.1+0x8460>
    80003052:	960a                	add	a2,a2,sp
    80003054:	e208                	sd	a0,0(a2)
    80003056:	6521                	lui	a0,0x8
    80003058:	4a85051b          	addiw	a0,a0,1192 # 84a8 <buflen.1+0x8468>
    8000305c:	950a                	add	a0,a0,sp
    8000305e:	e118                	sd	a4,0(a0)
    80003060:	f2000053          	fmv.d.x	ft0,zero
    80003064:	6521                	lui	a0,0x8
    80003066:	4b05051b          	addiw	a0,a0,1200 # 84b0 <buflen.1+0x8470>
    8000306a:	950a                	add	a0,a0,sp
    8000306c:	e11c                	sd	a5,0(a0)
    8000306e:	00ba8533          	add	a0,s5,a1
    80003072:	00053087          	fld	ft1,0(a0)
    80003076:	0210f043          	fmadd.d	ft0,ft1,ft1,ft0
    8000307a:	00853087          	fld	ft1,8(a0)
    8000307e:	0210f043          	fmadd.d	ft0,ft1,ft1,ft0
    80003082:	01053087          	fld	ft1,16(a0)
    80003086:	0210f043          	fmadd.d	ft0,ft1,ft1,ft0
    8000308a:	01853087          	fld	ft1,24(a0)
    8000308e:	0210f043          	fmadd.d	ft0,ft1,ft1,ft0
    80003092:	02058593          	addi	a1,a1,32
    80003096:	fc959ce3          	bne	a1,s1,8000306e <svd_core+0xeb2>
    8000309a:	5a007553          	fsqrt.d	fa0,ft0
    8000309e:	a2a52553          	feq.d	a0,fa0,fa0
    800030a2:	18050a63          	beqz	a0,80003236 <svd_core+0x107a>
    800030a6:	008de613          	ori	a2,s11,8
    800030aa:	40c985bb          	subw	a1,s3,a2
    800030ae:	46a1                	li	a3,8
    800030b0:	852e                	mv	a0,a1
    800030b2:	4415                	li	s0,5
    800030b4:	00d5c363          	blt	a1,a3,800030ba <svd_core+0xefe>
    800030b8:	4521                	li	a0,8
    800030ba:	060e                	slli	a2,a2,0x3
    800030bc:	9652                	add	a2,a2,s4
    800030be:	00063803          	ld	a6,0(a2)
    800030c2:	02b05363          	blez	a1,800030e8 <svd_core+0xf2c>
    800030c6:	048c6593          	ori	a1,s8,72
    800030ca:	95d2                	add	a1,a1,s4
    800030cc:	0005b883          	ld	a7,0(a1)
    800030d0:	00754f63          	blt	a0,t2,800030ee <svd_core+0xf32>
    800030d4:	050c6593          	ori	a1,s8,80
    800030d8:	95d2                	add	a1,a1,s4
    800030da:	0005b283          	ld	t0,0(a1)
    800030de:	0e751063          	bne	a0,t2,800031be <svd_core+0x1002>
    800030e2:	4781                	li	a5,0
    800030e4:	4701                	li	a4,0
    800030e6:	a039                	j	800030f4 <svd_core+0xf38>
    800030e8:	4881                	li	a7,0
    800030ea:	fe7555e3          	bge	a0,t2,800030d4 <svd_core+0xf18>
    800030ee:	4781                	li	a5,0
    800030f0:	4701                	li	a4,0
    800030f2:	4281                	li	t0,0
    800030f4:	4681                	li	a3,0
    800030f6:	4581                	li	a1,0
    800030f8:	4601                	li	a2,0
    800030fa:	4501                	li	a0,0
    800030fc:	6321                	lui	t1,0x8
    800030fe:	4783031b          	addiw	t1,t1,1144 # 8478 <buflen.1+0x8438>
    80003102:	930a                	add	t1,t1,sp
    80003104:	01033023          	sd	a6,0(t1)
    80003108:	02a9f9d3          	fadd.d	fs3,fs3,fa0
    8000310c:	6821                	lui	a6,0x8
    8000310e:	4808081b          	addiw	a6,a6,1152 # 8480 <buflen.1+0x8440>
    80003112:	980a                	add	a6,a6,sp
    80003114:	01183023          	sd	a7,0(a6)
    80003118:	6821                	lui	a6,0x8
    8000311a:	4888081b          	addiw	a6,a6,1160 # 8488 <buflen.1+0x8448>
    8000311e:	980a                	add	a6,a6,sp
    80003120:	00583023          	sd	t0,0(a6)
    80003124:	6821                	lui	a6,0x8
    80003126:	4908081b          	addiw	a6,a6,1168 # 8490 <buflen.1+0x8450>
    8000312a:	980a                	add	a6,a6,sp
    8000312c:	00d83023          	sd	a3,0(a6)
    80003130:	66a1                	lui	a3,0x8
    80003132:	4986869b          	addiw	a3,a3,1176 # 8498 <buflen.1+0x8458>
    80003136:	968a                	add	a3,a3,sp
    80003138:	e298                	sd	a4,0(a3)
    8000313a:	66a1                	lui	a3,0x8
    8000313c:	4a06869b          	addiw	a3,a3,1184 # 84a0 <buflen.1+0x8460>
    80003140:	968a                	add	a3,a3,sp
    80003142:	e28c                	sd	a1,0(a3)
    80003144:	65a1                	lui	a1,0x8
    80003146:	4a85859b          	addiw	a1,a1,1192 # 84a8 <buflen.1+0x8468>
    8000314a:	958a                	add	a1,a1,sp
    8000314c:	e19c                	sd	a5,0(a1)
    8000314e:	f2000553          	fmv.d.x	fa0,zero
    80003152:	65a1                	lui	a1,0x8
    80003154:	4b05859b          	addiw	a1,a1,1200 # 84b0 <buflen.1+0x8470>
    80003158:	958a                	add	a1,a1,sp
    8000315a:	e190                	sd	a2,0(a1)
    8000315c:	00aa85b3          	add	a1,s5,a0
    80003160:	0005b007          	fld	ft0,0(a1)
    80003164:	52007043          	fmadd.d	ft0,ft0,ft0,fa0
    80003168:	0085b087          	fld	ft1,8(a1)
    8000316c:	0210f043          	fmadd.d	ft0,ft1,ft1,ft0
    80003170:	0105b087          	fld	ft1,16(a1)
    80003174:	0210f043          	fmadd.d	ft0,ft1,ft1,ft0
    80003178:	0185b087          	fld	ft1,24(a1)
    8000317c:	0210f543          	fmadd.d	fa0,ft1,ft1,ft0
    80003180:	02050513          	addi	a0,a0,32
    80003184:	fc951ce3          	bne	a0,s1,8000315c <svd_core+0xfa0>
    80003188:	5a057053          	fsqrt.d	ft0,fa0
    8000318c:	a2002553          	feq.d	a0,ft0,ft0
    80003190:	c95d                	beqz	a0,80003246 <svd_core+0x108a>
    80003192:	0209f9d3          	fadd.d	fs3,fs3,ft0
    80003196:	2d09                	addiw	s10,s10,2
    80003198:	0dc1                	addi	s11,s11,16
    8000319a:	7506                	ld	a0,96(sp)
    8000319c:	e2ad12e3          	bne	s10,a0,80002fc0 <svd_core+0xe04>
    800031a0:	b3e1                	j	80002f68 <svd_core+0xdac>
    800031a2:	018c6513          	ori	a0,s8,24
    800031a6:	9552                	add	a0,a0,s4
    800031a8:	6110                	ld	a2,0(a0)
    800031aa:	0287e863          	bltu	a5,s0,800031da <svd_core+0x101e>
    800031ae:	020c6513          	ori	a0,s8,32
    800031b2:	9552                	add	a0,a0,s4
    800031b4:	6114                	ld	a3,0(a0)
    800031b6:	02879863          	bne	a5,s0,800031e6 <svd_core+0x102a>
    800031ba:	4701                	li	a4,0
    800031bc:	b5a9                	j	80003006 <svd_core+0xe4a>
    800031be:	058c6593          	ori	a1,s8,88
    800031c2:	95d2                	add	a1,a1,s4
    800031c4:	6194                	ld	a3,0(a1)
    800031c6:	00856d63          	bltu	a0,s0,800031e0 <svd_core+0x1024>
    800031ca:	060c6593          	ori	a1,s8,96
    800031ce:	95d2                	add	a1,a1,s4
    800031d0:	6198                	ld	a4,0(a1)
    800031d2:	02851c63          	bne	a0,s0,8000320a <svd_core+0x104e>
    800031d6:	4781                	li	a5,0
    800031d8:	bf39                	j	800030f6 <svd_core+0xf3a>
    800031da:	4701                	li	a4,0
    800031dc:	4681                	li	a3,0
    800031de:	b525                	j	80003006 <svd_core+0xe4a>
    800031e0:	4781                	li	a5,0
    800031e2:	4701                	li	a4,0
    800031e4:	bf09                	j	800030f6 <svd_core+0xf3a>
    800031e6:	028c6513          	ori	a0,s8,40
    800031ea:	9552                	add	a0,a0,s4
    800031ec:	6108                	ld	a0,0(a0)
    800031ee:	441d                	li	s0,7
    800031f0:	0287ef63          	bltu	a5,s0,8000322e <svd_core+0x1072>
    800031f4:	030c6593          	ori	a1,s8,48
    800031f8:	95d2                	add	a1,a1,s4
    800031fa:	6198                	ld	a4,0(a1)
    800031fc:	e08786e3          	beq	a5,s0,80003008 <svd_core+0xe4c>
    80003200:	038c6593          	ori	a1,s8,56
    80003204:	95d2                	add	a1,a1,s4
    80003206:	619c                	ld	a5,0(a1)
    80003208:	b509                	j	8000300a <svd_core+0xe4e>
    8000320a:	068c6593          	ori	a1,s8,104
    8000320e:	95d2                	add	a1,a1,s4
    80003210:	618c                	ld	a1,0(a1)
    80003212:	431d                	li	t1,7
    80003214:	00656f63          	bltu	a0,t1,80003232 <svd_core+0x1076>
    80003218:	070c6613          	ori	a2,s8,112
    8000321c:	9652                	add	a2,a2,s4
    8000321e:	621c                	ld	a5,0(a2)
    80003220:	ec650ce3          	beq	a0,t1,800030f8 <svd_core+0xf3c>
    80003224:	078c6513          	ori	a0,s8,120
    80003228:	9552                	add	a0,a0,s4
    8000322a:	6110                	ld	a2,0(a0)
    8000322c:	b5f9                	j	800030fa <svd_core+0xf3e>
    8000322e:	4701                	li	a4,0
    80003230:	bbe1                	j	80003008 <svd_core+0xe4c>
    80003232:	4781                	li	a5,0
    80003234:	b5d1                	j	800030f8 <svd_core+0xf3c>
    80003236:	22000553          	fmv.d	fa0,ft0
    8000323a:	7280d0ef          	jal	80010962 <sqrt>
    8000323e:	04000493          	li	s1,64
    80003242:	4389                	li	t2,2
    80003244:	b58d                	j	800030a6 <svd_core+0xeea>
    80003246:	71c0d0ef          	jal	80010962 <sqrt>
    8000324a:	04000493          	li	s1,64
    8000324e:	4389                	li	t2,2
    80003250:	22a50053          	fmv.d	ft0,fa0
    80003254:	bf3d                	j	80003192 <svd_core+0xfd6>
    80003256:	4801                	li	a6,0
    80003258:	d475d0e3          	bge	a1,t2,80002f98 <svd_core+0xddc>
    8000325c:	4781                	li	a5,0
    8000325e:	4701                	li	a4,0
    80003260:	4881                	li	a7,0
    80003262:	4281                	li	t0,0
    80003264:	4601                	li	a2,0
    80003266:	4581                	li	a1,0
    80003268:	9552                	add	a0,a0,s4
    8000326a:	6114                	ld	a3,0(a0)
    8000326c:	4501                	li	a0,0
    8000326e:	6321                	lui	t1,0x8
    80003270:	4783031b          	addiw	t1,t1,1144 # 8478 <buflen.1+0x8438>
    80003274:	930a                	add	t1,t1,sp
    80003276:	00d33023          	sd	a3,0(t1)
    8000327a:	66a1                	lui	a3,0x8
    8000327c:	4806869b          	addiw	a3,a3,1152 # 8480 <buflen.1+0x8440>
    80003280:	968a                	add	a3,a3,sp
    80003282:	0106b023          	sd	a6,0(a3)
    80003286:	66a1                	lui	a3,0x8
    80003288:	4886869b          	addiw	a3,a3,1160 # 8488 <buflen.1+0x8448>
    8000328c:	968a                	add	a3,a3,sp
    8000328e:	0116b023          	sd	a7,0(a3)
    80003292:	66a1                	lui	a3,0x8
    80003294:	4906869b          	addiw	a3,a3,1168 # 8490 <buflen.1+0x8450>
    80003298:	968a                	add	a3,a3,sp
    8000329a:	0056b023          	sd	t0,0(a3)
    8000329e:	66a1                	lui	a3,0x8
    800032a0:	4986869b          	addiw	a3,a3,1176 # 8498 <buflen.1+0x8458>
    800032a4:	968a                	add	a3,a3,sp
    800032a6:	e298                	sd	a4,0(a3)
    800032a8:	66a1                	lui	a3,0x8
    800032aa:	4a06869b          	addiw	a3,a3,1184 # 84a0 <buflen.1+0x8460>
    800032ae:	968a                	add	a3,a3,sp
    800032b0:	e290                	sd	a2,0(a3)
    800032b2:	6621                	lui	a2,0x8
    800032b4:	4a86061b          	addiw	a2,a2,1192 # 84a8 <buflen.1+0x8468>
    800032b8:	960a                	add	a2,a2,sp
    800032ba:	e21c                	sd	a5,0(a2)
    800032bc:	f2000553          	fmv.d.x	fa0,zero
    800032c0:	6621                	lui	a2,0x8
    800032c2:	4b06061b          	addiw	a2,a2,1200 # 84b0 <buflen.1+0x8470>
    800032c6:	960a                	add	a2,a2,sp
    800032c8:	e20c                	sd	a1,0(a2)
    800032ca:	00aa85b3          	add	a1,s5,a0
    800032ce:	0005b007          	fld	ft0,0(a1)
    800032d2:	52007043          	fmadd.d	ft0,ft0,ft0,fa0
    800032d6:	0085b087          	fld	ft1,8(a1)
    800032da:	0210f043          	fmadd.d	ft0,ft1,ft1,ft0
    800032de:	0105b087          	fld	ft1,16(a1)
    800032e2:	0210f043          	fmadd.d	ft0,ft1,ft1,ft0
    800032e6:	0185b087          	fld	ft1,24(a1)
    800032ea:	0210f543          	fmadd.d	fa0,ft1,ft1,ft0
    800032ee:	02050513          	addi	a0,a0,32
    800032f2:	fc951ce3          	bne	a0,s1,800032ca <svd_core+0x110e>
    800032f6:	5a057053          	fsqrt.d	ft0,fa0
    800032fa:	a2002553          	feq.d	a0,ft0,ft0
    800032fe:	e119                	bnez	a0,80003304 <svd_core+0x1148>
    80003300:	2870c06f          	j	8000fd86 <svd_core+0xdbca>
    80003304:	0209f9d3          	fadd.d	fs3,fs3,ft0
    80003308:	0b29f053          	fsub.d	ft0,fs3,fs2
    8000330c:	a3401553          	flt.d	a0,ft0,fs4
    80003310:	c119                	beqz	a0,80003316 <svd_core+0x115a>
    80003312:	22001053          	fneg.d	ft0,ft0
    80003316:	a2901553          	flt.d	a0,ft0,fs1
    8000331a:	23290a53          	fmv.d	fs4,fs2
    8000331e:	c119                	beqz	a0,80003324 <svd_core+0x1168>
    80003320:	3b70c06f          	j	8000fed6 <svd_core+0xdd1a>
    80003324:	4801                	li	a6,0
    80003326:	4881                	li	a7,0
    80003328:	a821                	j	80003340 <svd_core+0x1184>
    8000332a:	1b307053          	fdiv.d	ft0,ft0,fs3
    8000332e:	00389513          	slli	a0,a7,0x3
    80003332:	9566                	add	a0,a0,s9
    80003334:	00053027          	fsd	ft0,0(a0)
    80003338:	0885                	addi	a7,a7,1
    8000333a:	984e                	add	a6,a6,s3
    8000333c:	21788c63          	beq	a7,s7,80003554 <svd_core+0x1398>
    80003340:	1ba9c063          	blt	s3,s10,800034e0 <svd_core+0x1324>
    80003344:	4601                	li	a2,0
    80003346:	033882b3          	mul	t0,a7,s3
    8000334a:	f20000d3          	fmv.d.x	ft1,zero
    8000334e:	471d                	li	a4,7
    80003350:	22108053          	fmv.d	ft0,ft1
    80003354:	005607b3          	add	a5,a2,t0
    80003358:	078e                	slli	a5,a5,0x3
    8000335a:	97da                	add	a5,a5,s6
    8000335c:	0007bd03          	ld	s10,0(a5)
    80003360:	0087bc03          	ld	s8,8(a5)
    80003364:	0107be03          	ld	t3,16(a5)
    80003368:	0187be83          	ld	t4,24(a5)
    8000336c:	0207bf03          	ld	t5,32(a5)
    80003370:	0287b303          	ld	t1,40(a5)
    80003374:	0307b383          	ld	t2,48(a5)
    80003378:	0387bf83          	ld	t6,56(a5)
    8000337c:	00361513          	slli	a0,a2,0x3
    80003380:	00aa05b3          	add	a1,s4,a0
    80003384:	0005bd83          	ld	s11,0(a1)
    80003388:	00856693          	ori	a3,a0,8
    8000338c:	96d2                	add	a3,a3,s4
    8000338e:	0006b083          	ld	ra,0(a3)
    80003392:	01056793          	ori	a5,a0,16
    80003396:	97d2                	add	a5,a5,s4
    80003398:	639c                	ld	a5,0(a5)
    8000339a:	01856413          	ori	s0,a0,24
    8000339e:	9452                	add	s0,s0,s4
    800033a0:	6000                	ld	s0,0(s0)
    800033a2:	02056493          	ori	s1,a0,32
    800033a6:	94d2                	add	s1,s1,s4
    800033a8:	6084                	ld	s1,0(s1)
    800033aa:	02856593          	ori	a1,a0,40
    800033ae:	95d2                	add	a1,a1,s4
    800033b0:	618c                	ld	a1,0(a1)
    800033b2:	03056513          	ori	a0,a0,48
    800033b6:	9552                	add	a0,a0,s4
    800033b8:	6108                	ld	a0,0(a0)
    800033ba:	00371693          	slli	a3,a4,0x3
    800033be:	96d2                	add	a3,a3,s4
    800033c0:	6294                	ld	a3,0(a3)
    800033c2:	e042                	sd	a6,0(sp)
    800033c4:	6821                	lui	a6,0x8
    800033c6:	4788081b          	addiw	a6,a6,1144 # 8478 <buflen.1+0x8438>
    800033ca:	980a                	add	a6,a6,sp
    800033cc:	01a83023          	sd	s10,0(a6)
    800033d0:	6802                	ld	a6,0(sp)
    800033d2:	6d21                	lui	s10,0x8
    800033d4:	480d0d1b          	addiw	s10,s10,1152 # 8480 <buflen.1+0x8440>
    800033d8:	9d0a                	add	s10,s10,sp
    800033da:	018d3023          	sd	s8,0(s10)
    800033de:	6c21                	lui	s8,0x8
    800033e0:	488c0c1b          	addiw	s8,s8,1160 # 8488 <buflen.1+0x8448>
    800033e4:	9c0a                	add	s8,s8,sp
    800033e6:	01cc3023          	sd	t3,0(s8)
    800033ea:	6e21                	lui	t3,0x8
    800033ec:	490e0e1b          	addiw	t3,t3,1168 # 8490 <buflen.1+0x8450>
    800033f0:	9e0a                	add	t3,t3,sp
    800033f2:	01de3023          	sd	t4,0(t3)
    800033f6:	6e21                	lui	t3,0x8
    800033f8:	498e0e1b          	addiw	t3,t3,1176 # 8498 <buflen.1+0x8458>
    800033fc:	9e0a                	add	t3,t3,sp
    800033fe:	01ee3023          	sd	t5,0(t3)
    80003402:	6e21                	lui	t3,0x8
    80003404:	4a0e0e1b          	addiw	t3,t3,1184 # 84a0 <buflen.1+0x8460>
    80003408:	9e0a                	add	t3,t3,sp
    8000340a:	006e3023          	sd	t1,0(t3)
    8000340e:	6321                	lui	t1,0x8
    80003410:	4a83031b          	addiw	t1,t1,1192 # 84a8 <buflen.1+0x8468>
    80003414:	930a                	add	t1,t1,sp
    80003416:	00733023          	sd	t2,0(t1)
    8000341a:	6321                	lui	t1,0x8
    8000341c:	4b03031b          	addiw	t1,t1,1200 # 84b0 <buflen.1+0x8470>
    80003420:	930a                	add	t1,t1,sp
    80003422:	01f33023          	sd	t6,0(t1)
    80003426:	6321                	lui	t1,0x8
    80003428:	4b83031b          	addiw	t1,t1,1208 # 84b8 <buflen.1+0x8478>
    8000342c:	930a                	add	t1,t1,sp
    8000342e:	01b33023          	sd	s11,0(t1)
    80003432:	6321                	lui	t1,0x8
    80003434:	4c03031b          	addiw	t1,t1,1216 # 84c0 <buflen.1+0x8480>
    80003438:	930a                	add	t1,t1,sp
    8000343a:	00133023          	sd	ra,0(t1)
    8000343e:	6321                	lui	t1,0x8
    80003440:	4c83031b          	addiw	t1,t1,1224 # 84c8 <buflen.1+0x8488>
    80003444:	930a                	add	t1,t1,sp
    80003446:	00f33023          	sd	a5,0(t1)
    8000344a:	67a1                	lui	a5,0x8
    8000344c:	4d07879b          	addiw	a5,a5,1232 # 84d0 <buflen.1+0x8490>
    80003450:	978a                	add	a5,a5,sp
    80003452:	e380                	sd	s0,0(a5)
    80003454:	67a1                	lui	a5,0x8
    80003456:	4d87879b          	addiw	a5,a5,1240 # 84d8 <buflen.1+0x8498>
    8000345a:	978a                	add	a5,a5,sp
    8000345c:	e384                	sd	s1,0(a5)
    8000345e:	67a1                	lui	a5,0x8
    80003460:	4e07879b          	addiw	a5,a5,1248 # 84e0 <buflen.1+0x84a0>
    80003464:	978a                	add	a5,a5,sp
    80003466:	e38c                	sd	a1,0(a5)
    80003468:	65a1                	lui	a1,0x8
    8000346a:	4e85859b          	addiw	a1,a1,1256 # 84e8 <buflen.1+0x84a8>
    8000346e:	958a                	add	a1,a1,sp
    80003470:	e188                	sd	a0,0(a1)
    80003472:	6521                	lui	a0,0x8
    80003474:	4f05051b          	addiw	a0,a0,1264 # 84f0 <buflen.1+0x84b0>
    80003478:	950a                	add	a0,a0,sp
    8000347a:	e114                	sd	a3,0(a0)
    8000347c:	47c1                	li	a5,16
    8000347e:	22108153          	fmv.d	ft2,ft1
    80003482:	00fa8533          	add	a0,s5,a5
    80003486:	ff053187          	fld	ft3,-16(a0)
    8000348a:	03053207          	fld	ft4,48(a0)
    8000348e:	1241f143          	fmadd.d	ft2,ft3,ft4,ft2
    80003492:	ff853187          	fld	ft3,-8(a0)
    80003496:	03853207          	fld	ft4,56(a0)
    8000349a:	1241f143          	fmadd.d	ft2,ft3,ft4,ft2
    8000349e:	00053187          	fld	ft3,0(a0)
    800034a2:	04053207          	fld	ft4,64(a0)
    800034a6:	1241f143          	fmadd.d	ft2,ft3,ft4,ft2
    800034aa:	00853187          	fld	ft3,8(a0)
    800034ae:	04853207          	fld	ft4,72(a0)
    800034b2:	1241f143          	fmadd.d	ft2,ft3,ft4,ft2
    800034b6:	02078793          	addi	a5,a5,32
    800034ba:	fd2794e3          	bne	a5,s2,80003482 <svd_core+0x12c6>
    800034be:	02207053          	fadd.d	ft0,ft0,ft2
    800034c2:	0621                	addi	a2,a2,8
    800034c4:	00766513          	ori	a0,a2,7
    800034c8:	0721                	addi	a4,a4,8
    800034ca:	e93545e3          	blt	a0,s3,80003354 <svd_core+0x1198>
    800034ce:	4d21                	li	s10,8
    800034d0:	4405                	li	s0,1
    800034d2:	4389                	li	t2,2
    800034d4:	4c0d                	li	s8,3
    800034d6:	0006051b          	sext.w	a0,a2
    800034da:	e53558e3          	bge	a0,s3,8000332a <svd_core+0x116e>
    800034de:	a801                	j	800034ee <svd_core+0x1332>
    800034e0:	f2000053          	fmv.d.x	ft0,zero
    800034e4:	4601                	li	a2,0
    800034e6:	0006051b          	sext.w	a0,a2
    800034ea:	e53550e3          	bge	a0,s3,8000332a <svd_core+0x116e>
    800034ee:	02061513          	slli	a0,a2,0x20
    800034f2:	02055593          	srli	a1,a0,0x20
    800034f6:	7626                	ld	a2,104(sp)
    800034f8:	8e0d                	sub	a2,a2,a1
    800034fa:	95c2                	add	a1,a1,a6
    800034fc:	058e                	slli	a1,a1,0x3
    800034fe:	00bb06b3          	add	a3,s6,a1
    80003502:	8175                	srli	a0,a0,0x1d
    80003504:	012c                	addi	a1,sp,136
    80003506:	00a58733          	add	a4,a1,a0
    8000350a:	0006b087          	fld	ft1,0(a3)
    8000350e:	ff073107          	fld	ft2,-16(a4)
    80003512:	0220f043          	fmadd.d	ft0,ft1,ft2,ft0
    80003516:	e0860ae3          	beq	a2,s0,8000332a <svd_core+0x116e>
    8000351a:	0086b087          	fld	ft1,8(a3)
    8000351e:	ff873107          	fld	ft2,-8(a4)
    80003522:	0220f043          	fmadd.d	ft0,ft1,ft2,ft0
    80003526:	e07602e3          	beq	a2,t2,8000332a <svd_core+0x116e>
    8000352a:	0106b087          	fld	ft1,16(a3)
    8000352e:	00073107          	fld	ft2,0(a4)
    80003532:	0220f043          	fmadd.d	ft0,ft1,ft2,ft0
    80003536:	df860ae3          	beq	a2,s8,8000332a <svd_core+0x116e>
    8000353a:	0186b087          	fld	ft1,24(a3)
    8000353e:	00873107          	fld	ft2,8(a4)
    80003542:	0220f043          	fmadd.d	ft0,ft1,ft2,ft0
    80003546:	1671                	addi	a2,a2,-4
    80003548:	02068693          	addi	a3,a3,32
    8000354c:	02070713          	addi	a4,a4,32
    80003550:	fe4d                	bnez	a2,8000350a <svd_core+0x134e>
    80003552:	bbe1                	j	8000332a <svd_core+0x116e>
    80003554:	18a8                	addi	a0,sp,120
    80003556:	20000613          	li	a2,512
    8000355a:	4581                	li	a1,0
    8000355c:	0800d0ef          	jal	800105dc <memset>
    80003560:	4389                	li	t2,2
    80003562:	f2000a53          	fmv.d.x	fs4,zero
    80003566:	234a0953          	fmv.d	fs2,fs4
    8000356a:	04000493          	li	s1,64
    8000356e:	5f305463          	blez	s3,80003b56 <svd_core+0x199a>
    80003572:	4801                	li	a6,0
    80003574:	4881                	li	a7,0
    80003576:	a819                	j	8000358c <svd_core+0x13d0>
    80003578:	00389513          	slli	a0,a7,0x3
    8000357c:	9552                	add	a0,a0,s4
    8000357e:	00053027          	fsd	ft0,0(a0)
    80003582:	0885                	addi	a7,a7,1
    80003584:	985e                	add	a6,a6,s7
    80003586:	7526                	ld	a0,104(sp)
    80003588:	20a88f63          	beq	a7,a0,800037a6 <svd_core+0x15ea>
    8000358c:	1babe363          	bltu	s7,s10,80003732 <svd_core+0x1576>
    80003590:	4601                	li	a2,0
    80003592:	037882b3          	mul	t0,a7,s7
    80003596:	f20000d3          	fmv.d.x	ft1,zero
    8000359a:	471d                	li	a4,7
    8000359c:	22108053          	fmv.d	ft0,ft1
    800035a0:	005607b3          	add	a5,a2,t0
    800035a4:	078e                	slli	a5,a5,0x3
    800035a6:	7546                	ld	a0,112(sp)
    800035a8:	97aa                	add	a5,a5,a0
    800035aa:	0007bd03          	ld	s10,0(a5)
    800035ae:	0087bc03          	ld	s8,8(a5)
    800035b2:	0107be03          	ld	t3,16(a5)
    800035b6:	0187be83          	ld	t4,24(a5)
    800035ba:	0207bf03          	ld	t5,32(a5)
    800035be:	0287b303          	ld	t1,40(a5)
    800035c2:	0307b383          	ld	t2,48(a5)
    800035c6:	0387bf83          	ld	t6,56(a5)
    800035ca:	00361513          	slli	a0,a2,0x3
    800035ce:	00ac85b3          	add	a1,s9,a0
    800035d2:	0005bd83          	ld	s11,0(a1)
    800035d6:	00856693          	ori	a3,a0,8
    800035da:	96e6                	add	a3,a3,s9
    800035dc:	0006b083          	ld	ra,0(a3)
    800035e0:	01056793          	ori	a5,a0,16
    800035e4:	97e6                	add	a5,a5,s9
    800035e6:	639c                	ld	a5,0(a5)
    800035e8:	01856413          	ori	s0,a0,24
    800035ec:	9466                	add	s0,s0,s9
    800035ee:	6000                	ld	s0,0(s0)
    800035f0:	02056493          	ori	s1,a0,32
    800035f4:	94e6                	add	s1,s1,s9
    800035f6:	6084                	ld	s1,0(s1)
    800035f8:	02856593          	ori	a1,a0,40
    800035fc:	95e6                	add	a1,a1,s9
    800035fe:	618c                	ld	a1,0(a1)
    80003600:	03056513          	ori	a0,a0,48
    80003604:	9566                	add	a0,a0,s9
    80003606:	6108                	ld	a0,0(a0)
    80003608:	00371693          	slli	a3,a4,0x3
    8000360c:	96e6                	add	a3,a3,s9
    8000360e:	6294                	ld	a3,0(a3)
    80003610:	e042                	sd	a6,0(sp)
    80003612:	6821                	lui	a6,0x8
    80003614:	4788081b          	addiw	a6,a6,1144 # 8478 <buflen.1+0x8438>
    80003618:	980a                	add	a6,a6,sp
    8000361a:	01a83023          	sd	s10,0(a6)
    8000361e:	6802                	ld	a6,0(sp)
    80003620:	6d21                	lui	s10,0x8
    80003622:	480d0d1b          	addiw	s10,s10,1152 # 8480 <buflen.1+0x8440>
    80003626:	9d0a                	add	s10,s10,sp
    80003628:	018d3023          	sd	s8,0(s10)
    8000362c:	6c21                	lui	s8,0x8
    8000362e:	488c0c1b          	addiw	s8,s8,1160 # 8488 <buflen.1+0x8448>
    80003632:	9c0a                	add	s8,s8,sp
    80003634:	01cc3023          	sd	t3,0(s8)
    80003638:	6e21                	lui	t3,0x8
    8000363a:	490e0e1b          	addiw	t3,t3,1168 # 8490 <buflen.1+0x8450>
    8000363e:	9e0a                	add	t3,t3,sp
    80003640:	01de3023          	sd	t4,0(t3)
    80003644:	6e21                	lui	t3,0x8
    80003646:	498e0e1b          	addiw	t3,t3,1176 # 8498 <buflen.1+0x8458>
    8000364a:	9e0a                	add	t3,t3,sp
    8000364c:	01ee3023          	sd	t5,0(t3)
    80003650:	6e21                	lui	t3,0x8
    80003652:	4a0e0e1b          	addiw	t3,t3,1184 # 84a0 <buflen.1+0x8460>
    80003656:	9e0a                	add	t3,t3,sp
    80003658:	006e3023          	sd	t1,0(t3)
    8000365c:	6321                	lui	t1,0x8
    8000365e:	4a83031b          	addiw	t1,t1,1192 # 84a8 <buflen.1+0x8468>
    80003662:	930a                	add	t1,t1,sp
    80003664:	00733023          	sd	t2,0(t1)
    80003668:	6321                	lui	t1,0x8
    8000366a:	4b03031b          	addiw	t1,t1,1200 # 84b0 <buflen.1+0x8470>
    8000366e:	930a                	add	t1,t1,sp
    80003670:	01f33023          	sd	t6,0(t1)
    80003674:	6321                	lui	t1,0x8
    80003676:	4b83031b          	addiw	t1,t1,1208 # 84b8 <buflen.1+0x8478>
    8000367a:	930a                	add	t1,t1,sp
    8000367c:	01b33023          	sd	s11,0(t1)
    80003680:	6321                	lui	t1,0x8
    80003682:	4c03031b          	addiw	t1,t1,1216 # 84c0 <buflen.1+0x8480>
    80003686:	930a                	add	t1,t1,sp
    80003688:	00133023          	sd	ra,0(t1)
    8000368c:	6321                	lui	t1,0x8
    8000368e:	4c83031b          	addiw	t1,t1,1224 # 84c8 <buflen.1+0x8488>
    80003692:	930a                	add	t1,t1,sp
    80003694:	00f33023          	sd	a5,0(t1)
    80003698:	67a1                	lui	a5,0x8
    8000369a:	4d07879b          	addiw	a5,a5,1232 # 84d0 <buflen.1+0x8490>
    8000369e:	978a                	add	a5,a5,sp
    800036a0:	e380                	sd	s0,0(a5)
    800036a2:	67a1                	lui	a5,0x8
    800036a4:	4d87879b          	addiw	a5,a5,1240 # 84d8 <buflen.1+0x8498>
    800036a8:	978a                	add	a5,a5,sp
    800036aa:	e384                	sd	s1,0(a5)
    800036ac:	67a1                	lui	a5,0x8
    800036ae:	4e07879b          	addiw	a5,a5,1248 # 84e0 <buflen.1+0x84a0>
    800036b2:	978a                	add	a5,a5,sp
    800036b4:	e38c                	sd	a1,0(a5)
    800036b6:	65a1                	lui	a1,0x8
    800036b8:	4e85859b          	addiw	a1,a1,1256 # 84e8 <buflen.1+0x84a8>
    800036bc:	958a                	add	a1,a1,sp
    800036be:	e188                	sd	a0,0(a1)
    800036c0:	6521                	lui	a0,0x8
    800036c2:	4f05051b          	addiw	a0,a0,1264 # 84f0 <buflen.1+0x84b0>
    800036c6:	950a                	add	a0,a0,sp
    800036c8:	e114                	sd	a3,0(a0)
    800036ca:	47c1                	li	a5,16
    800036cc:	22108153          	fmv.d	ft2,ft1
    800036d0:	00fa8533          	add	a0,s5,a5
    800036d4:	ff053187          	fld	ft3,-16(a0)
    800036d8:	03053207          	fld	ft4,48(a0)
    800036dc:	1241f143          	fmadd.d	ft2,ft3,ft4,ft2
    800036e0:	ff853187          	fld	ft3,-8(a0)
    800036e4:	03853207          	fld	ft4,56(a0)
    800036e8:	1241f143          	fmadd.d	ft2,ft3,ft4,ft2
    800036ec:	00053187          	fld	ft3,0(a0)
    800036f0:	04053207          	fld	ft4,64(a0)
    800036f4:	1241f143          	fmadd.d	ft2,ft3,ft4,ft2
    800036f8:	00853187          	fld	ft3,8(a0)
    800036fc:	04853207          	fld	ft4,72(a0)
    80003700:	1241f143          	fmadd.d	ft2,ft3,ft4,ft2
    80003704:	02078793          	addi	a5,a5,32
    80003708:	fd2794e3          	bne	a5,s2,800036d0 <svd_core+0x1514>
    8000370c:	02207053          	fadd.d	ft0,ft0,ft2
    80003710:	0621                	addi	a2,a2,8
    80003712:	00766513          	ori	a0,a2,7
    80003716:	0721                	addi	a4,a4,8
    80003718:	e97564e3          	bltu	a0,s7,800035a0 <svd_core+0x13e4>
    8000371c:	4d21                	li	s10,8
    8000371e:	4405                	li	s0,1
    80003720:	4389                	li	t2,2
    80003722:	4c0d                	li	s8,3
    80003724:	04000493          	li	s1,64
    80003728:	0006051b          	sext.w	a0,a2
    8000372c:	e57556e3          	bge	a0,s7,80003578 <svd_core+0x13bc>
    80003730:	a801                	j	80003740 <svd_core+0x1584>
    80003732:	f2000053          	fmv.d.x	ft0,zero
    80003736:	4601                	li	a2,0
    80003738:	0006051b          	sext.w	a0,a2
    8000373c:	e3755ee3          	bge	a0,s7,80003578 <svd_core+0x13bc>
    80003740:	02061513          	slli	a0,a2,0x20
    80003744:	02055593          	srli	a1,a0,0x20
    80003748:	40bb8633          	sub	a2,s7,a1
    8000374c:	95c2                	add	a1,a1,a6
    8000374e:	058e                	slli	a1,a1,0x3
    80003750:	76c6                	ld	a3,112(sp)
    80003752:	96ae                	add	a3,a3,a1
    80003754:	8175                	srli	a0,a0,0x1d
    80003756:	052c                	addi	a1,sp,648
    80003758:	00a58733          	add	a4,a1,a0
    8000375c:	0006b087          	fld	ft1,0(a3)
    80003760:	ff073107          	fld	ft2,-16(a4)
    80003764:	0220f043          	fmadd.d	ft0,ft1,ft2,ft0
    80003768:	e08608e3          	beq	a2,s0,80003578 <svd_core+0x13bc>
    8000376c:	0086b087          	fld	ft1,8(a3)
    80003770:	ff873107          	fld	ft2,-8(a4)
    80003774:	0220f043          	fmadd.d	ft0,ft1,ft2,ft0
    80003778:	e07600e3          	beq	a2,t2,80003578 <svd_core+0x13bc>
    8000377c:	0106b087          	fld	ft1,16(a3)
    80003780:	00073107          	fld	ft2,0(a4)
    80003784:	0220f043          	fmadd.d	ft0,ft1,ft2,ft0
    80003788:	df8608e3          	beq	a2,s8,80003578 <svd_core+0x13bc>
    8000378c:	0186b087          	fld	ft1,24(a3)
    80003790:	00873107          	fld	ft2,8(a4)
    80003794:	0220f043          	fmadd.d	ft0,ft1,ft2,ft0
    80003798:	1671                	addi	a2,a2,-4
    8000379a:	02068693          	addi	a3,a3,32
    8000379e:	02070713          	addi	a4,a4,32
    800037a2:	fe4d                	bnez	a2,8000375c <svd_core+0x15a0>
    800037a4:	bbd1                	j	80003578 <svd_core+0x13bc>
    800037a6:	05305c63          	blez	s3,800037fe <svd_core+0x1642>
    800037aa:	6566                	ld	a0,88(sp)
    800037ac:	05a57c63          	bgeu	a0,s10,80003804 <svd_core+0x1648>
    800037b0:	f2000953          	fmv.d.x	fs2,zero
    800037b4:	4d81                	li	s11,0
    800037b6:	6546                	ld	a0,80(sp)
    800037b8:	4405                	li	s0,1
    800037ba:	4c0d                	li	s8,3
    800037bc:	4d21                	li	s10,8
    800037be:	38050c63          	beqz	a0,80003b56 <svd_core+0x199a>
    800037c2:	41b9863b          	subw	a2,s3,s11
    800037c6:	4521                	li	a0,8
    800037c8:	85b2                	mv	a1,a2
    800037ca:	00a64363          	blt	a2,a0,800037d0 <svd_core+0x1614>
    800037ce:	45a1                	li	a1,8
    800037d0:	003d9513          	slli	a0,s11,0x3
    800037d4:	2cc05863          	blez	a2,80003aa4 <svd_core+0x18e8>
    800037d8:	00856613          	ori	a2,a0,8
    800037dc:	9652                	add	a2,a2,s4
    800037de:	00063803          	ld	a6,0(a2)
    800037e2:	2c75c463          	blt	a1,t2,80003aaa <svd_core+0x18ee>
    800037e6:	01056613          	ori	a2,a0,16
    800037ea:	9652                	add	a2,a2,s4
    800037ec:	00063883          	ld	a7,0(a2)
    800037f0:	00758463          	beq	a1,t2,800037f8 <svd_core+0x163c>
    800037f4:	6fd0606f          	j	8000a6f0 <svd_core+0x8534>
    800037f8:	4781                	li	a5,0
    800037fa:	4701                	li	a4,0
    800037fc:	ac55                	j	80003ab0 <svd_core+0x18f4>
    800037fe:	f2000953          	fmv.d.x	fs2,zero
    80003802:	ae91                	j	80003b56 <svd_core+0x199a>
    80003804:	4d81                	li	s11,0
    80003806:	f2000953          	fmv.d.x	fs2,zero
    8000380a:	4d01                	li	s10,0
    8000380c:	4415                	li	s0,5
    8000380e:	41b9853b          	subw	a0,s3,s11
    80003812:	45a1                	li	a1,8
    80003814:	87aa                	mv	a5,a0
    80003816:	00b54363          	blt	a0,a1,8000381c <svd_core+0x1660>
    8000381a:	47a1                	li	a5,8
    8000381c:	003d9c13          	slli	s8,s11,0x3
    80003820:	02a05363          	blez	a0,80003846 <svd_core+0x168a>
    80003824:	008c6513          	ori	a0,s8,8
    80003828:	9552                	add	a0,a0,s4
    8000382a:	00053803          	ld	a6,0(a0)
    8000382e:	0077cf63          	blt	a5,t2,8000384c <svd_core+0x1690>
    80003832:	010c6513          	ori	a0,s8,16
    80003836:	9552                	add	a0,a0,s4
    80003838:	00053883          	ld	a7,0(a0)
    8000383c:	1a779a63          	bne	a5,t2,800039f0 <svd_core+0x1834>
    80003840:	4701                	li	a4,0
    80003842:	4681                	li	a3,0
    80003844:	a039                	j	80003852 <svd_core+0x1696>
    80003846:	4801                	li	a6,0
    80003848:	fe77d5e3          	bge	a5,t2,80003832 <svd_core+0x1676>
    8000384c:	4701                	li	a4,0
    8000384e:	4681                	li	a3,0
    80003850:	4881                	li	a7,0
    80003852:	4601                	li	a2,0
    80003854:	4501                	li	a0,0
    80003856:	4781                	li	a5,0
    80003858:	018a05b3          	add	a1,s4,s8
    8000385c:	6180                	ld	s0,0(a1)
    8000385e:	4581                	li	a1,0
    80003860:	62a1                	lui	t0,0x8
    80003862:	4782829b          	addiw	t0,t0,1144 # 8478 <buflen.1+0x8438>
    80003866:	928a                	add	t0,t0,sp
    80003868:	0082b023          	sd	s0,0(t0)
    8000386c:	62a1                	lui	t0,0x8
    8000386e:	4802829b          	addiw	t0,t0,1152 # 8480 <buflen.1+0x8440>
    80003872:	928a                	add	t0,t0,sp
    80003874:	0102b023          	sd	a6,0(t0)
    80003878:	6821                	lui	a6,0x8
    8000387a:	4888081b          	addiw	a6,a6,1160 # 8488 <buflen.1+0x8448>
    8000387e:	980a                	add	a6,a6,sp
    80003880:	01183023          	sd	a7,0(a6)
    80003884:	6821                	lui	a6,0x8
    80003886:	4908081b          	addiw	a6,a6,1168 # 8490 <buflen.1+0x8450>
    8000388a:	980a                	add	a6,a6,sp
    8000388c:	00c83023          	sd	a2,0(a6)
    80003890:	6621                	lui	a2,0x8
    80003892:	4986061b          	addiw	a2,a2,1176 # 8498 <buflen.1+0x8458>
    80003896:	960a                	add	a2,a2,sp
    80003898:	e214                	sd	a3,0(a2)
    8000389a:	6621                	lui	a2,0x8
    8000389c:	4a06061b          	addiw	a2,a2,1184 # 84a0 <buflen.1+0x8460>
    800038a0:	960a                	add	a2,a2,sp
    800038a2:	e208                	sd	a0,0(a2)
    800038a4:	6521                	lui	a0,0x8
    800038a6:	4a85051b          	addiw	a0,a0,1192 # 84a8 <buflen.1+0x8468>
    800038aa:	950a                	add	a0,a0,sp
    800038ac:	e118                	sd	a4,0(a0)
    800038ae:	f2000053          	fmv.d.x	ft0,zero
    800038b2:	6521                	lui	a0,0x8
    800038b4:	4b05051b          	addiw	a0,a0,1200 # 84b0 <buflen.1+0x8470>
    800038b8:	950a                	add	a0,a0,sp
    800038ba:	e11c                	sd	a5,0(a0)
    800038bc:	00ba8533          	add	a0,s5,a1
    800038c0:	00053087          	fld	ft1,0(a0)
    800038c4:	0210f043          	fmadd.d	ft0,ft1,ft1,ft0
    800038c8:	00853087          	fld	ft1,8(a0)
    800038cc:	0210f043          	fmadd.d	ft0,ft1,ft1,ft0
    800038d0:	01053087          	fld	ft1,16(a0)
    800038d4:	0210f043          	fmadd.d	ft0,ft1,ft1,ft0
    800038d8:	01853087          	fld	ft1,24(a0)
    800038dc:	0210f043          	fmadd.d	ft0,ft1,ft1,ft0
    800038e0:	02058593          	addi	a1,a1,32
    800038e4:	fc959ce3          	bne	a1,s1,800038bc <svd_core+0x1700>
    800038e8:	5a007553          	fsqrt.d	fa0,ft0
    800038ec:	a2a52553          	feq.d	a0,fa0,fa0
    800038f0:	18050a63          	beqz	a0,80003a84 <svd_core+0x18c8>
    800038f4:	008de613          	ori	a2,s11,8
    800038f8:	40c985bb          	subw	a1,s3,a2
    800038fc:	46a1                	li	a3,8
    800038fe:	852e                	mv	a0,a1
    80003900:	4415                	li	s0,5
    80003902:	00d5c363          	blt	a1,a3,80003908 <svd_core+0x174c>
    80003906:	4521                	li	a0,8
    80003908:	060e                	slli	a2,a2,0x3
    8000390a:	9652                	add	a2,a2,s4
    8000390c:	00063803          	ld	a6,0(a2)
    80003910:	02b05363          	blez	a1,80003936 <svd_core+0x177a>
    80003914:	048c6593          	ori	a1,s8,72
    80003918:	95d2                	add	a1,a1,s4
    8000391a:	0005b883          	ld	a7,0(a1)
    8000391e:	00754f63          	blt	a0,t2,8000393c <svd_core+0x1780>
    80003922:	050c6593          	ori	a1,s8,80
    80003926:	95d2                	add	a1,a1,s4
    80003928:	0005b283          	ld	t0,0(a1)
    8000392c:	0e751063          	bne	a0,t2,80003a0c <svd_core+0x1850>
    80003930:	4781                	li	a5,0
    80003932:	4701                	li	a4,0
    80003934:	a039                	j	80003942 <svd_core+0x1786>
    80003936:	4881                	li	a7,0
    80003938:	fe7555e3          	bge	a0,t2,80003922 <svd_core+0x1766>
    8000393c:	4781                	li	a5,0
    8000393e:	4701                	li	a4,0
    80003940:	4281                	li	t0,0
    80003942:	4681                	li	a3,0
    80003944:	4581                	li	a1,0
    80003946:	4601                	li	a2,0
    80003948:	4501                	li	a0,0
    8000394a:	6321                	lui	t1,0x8
    8000394c:	4783031b          	addiw	t1,t1,1144 # 8478 <buflen.1+0x8438>
    80003950:	930a                	add	t1,t1,sp
    80003952:	01033023          	sd	a6,0(t1)
    80003956:	02a97953          	fadd.d	fs2,fs2,fa0
    8000395a:	6821                	lui	a6,0x8
    8000395c:	4808081b          	addiw	a6,a6,1152 # 8480 <buflen.1+0x8440>
    80003960:	980a                	add	a6,a6,sp
    80003962:	01183023          	sd	a7,0(a6)
    80003966:	6821                	lui	a6,0x8
    80003968:	4888081b          	addiw	a6,a6,1160 # 8488 <buflen.1+0x8448>
    8000396c:	980a                	add	a6,a6,sp
    8000396e:	00583023          	sd	t0,0(a6)
    80003972:	6821                	lui	a6,0x8
    80003974:	4908081b          	addiw	a6,a6,1168 # 8490 <buflen.1+0x8450>
    80003978:	980a                	add	a6,a6,sp
    8000397a:	00d83023          	sd	a3,0(a6)
    8000397e:	66a1                	lui	a3,0x8
    80003980:	4986869b          	addiw	a3,a3,1176 # 8498 <buflen.1+0x8458>
    80003984:	968a                	add	a3,a3,sp
    80003986:	e298                	sd	a4,0(a3)
    80003988:	66a1                	lui	a3,0x8
    8000398a:	4a06869b          	addiw	a3,a3,1184 # 84a0 <buflen.1+0x8460>
    8000398e:	968a                	add	a3,a3,sp
    80003990:	e28c                	sd	a1,0(a3)
    80003992:	65a1                	lui	a1,0x8
    80003994:	4a85859b          	addiw	a1,a1,1192 # 84a8 <buflen.1+0x8468>
    80003998:	958a                	add	a1,a1,sp
    8000399a:	e19c                	sd	a5,0(a1)
    8000399c:	f2000553          	fmv.d.x	fa0,zero
    800039a0:	65a1                	lui	a1,0x8
    800039a2:	4b05859b          	addiw	a1,a1,1200 # 84b0 <buflen.1+0x8470>
    800039a6:	958a                	add	a1,a1,sp
    800039a8:	e190                	sd	a2,0(a1)
    800039aa:	00aa85b3          	add	a1,s5,a0
    800039ae:	0005b007          	fld	ft0,0(a1)
    800039b2:	52007043          	fmadd.d	ft0,ft0,ft0,fa0
    800039b6:	0085b087          	fld	ft1,8(a1)
    800039ba:	0210f043          	fmadd.d	ft0,ft1,ft1,ft0
    800039be:	0105b087          	fld	ft1,16(a1)
    800039c2:	0210f043          	fmadd.d	ft0,ft1,ft1,ft0
    800039c6:	0185b087          	fld	ft1,24(a1)
    800039ca:	0210f543          	fmadd.d	fa0,ft1,ft1,ft0
    800039ce:	02050513          	addi	a0,a0,32
    800039d2:	fc951ce3          	bne	a0,s1,800039aa <svd_core+0x17ee>
    800039d6:	5a057053          	fsqrt.d	ft0,fa0
    800039da:	a2002553          	feq.d	a0,ft0,ft0
    800039de:	c95d                	beqz	a0,80003a94 <svd_core+0x18d8>
    800039e0:	02097953          	fadd.d	fs2,fs2,ft0
    800039e4:	2d09                	addiw	s10,s10,2
    800039e6:	0dc1                	addi	s11,s11,16
    800039e8:	7506                	ld	a0,96(sp)
    800039ea:	e2ad12e3          	bne	s10,a0,8000380e <svd_core+0x1652>
    800039ee:	b3e1                	j	800037b6 <svd_core+0x15fa>
    800039f0:	018c6513          	ori	a0,s8,24
    800039f4:	9552                	add	a0,a0,s4
    800039f6:	6110                	ld	a2,0(a0)
    800039f8:	0287e863          	bltu	a5,s0,80003a28 <svd_core+0x186c>
    800039fc:	020c6513          	ori	a0,s8,32
    80003a00:	9552                	add	a0,a0,s4
    80003a02:	6114                	ld	a3,0(a0)
    80003a04:	02879863          	bne	a5,s0,80003a34 <svd_core+0x1878>
    80003a08:	4701                	li	a4,0
    80003a0a:	b5a9                	j	80003854 <svd_core+0x1698>
    80003a0c:	058c6593          	ori	a1,s8,88
    80003a10:	95d2                	add	a1,a1,s4
    80003a12:	6194                	ld	a3,0(a1)
    80003a14:	00856d63          	bltu	a0,s0,80003a2e <svd_core+0x1872>
    80003a18:	060c6593          	ori	a1,s8,96
    80003a1c:	95d2                	add	a1,a1,s4
    80003a1e:	6198                	ld	a4,0(a1)
    80003a20:	02851c63          	bne	a0,s0,80003a58 <svd_core+0x189c>
    80003a24:	4781                	li	a5,0
    80003a26:	bf39                	j	80003944 <svd_core+0x1788>
    80003a28:	4701                	li	a4,0
    80003a2a:	4681                	li	a3,0
    80003a2c:	b525                	j	80003854 <svd_core+0x1698>
    80003a2e:	4781                	li	a5,0
    80003a30:	4701                	li	a4,0
    80003a32:	bf09                	j	80003944 <svd_core+0x1788>
    80003a34:	028c6513          	ori	a0,s8,40
    80003a38:	9552                	add	a0,a0,s4
    80003a3a:	6108                	ld	a0,0(a0)
    80003a3c:	441d                	li	s0,7
    80003a3e:	0287ef63          	bltu	a5,s0,80003a7c <svd_core+0x18c0>
    80003a42:	030c6593          	ori	a1,s8,48
    80003a46:	95d2                	add	a1,a1,s4
    80003a48:	6198                	ld	a4,0(a1)
    80003a4a:	e08786e3          	beq	a5,s0,80003856 <svd_core+0x169a>
    80003a4e:	038c6593          	ori	a1,s8,56
    80003a52:	95d2                	add	a1,a1,s4
    80003a54:	619c                	ld	a5,0(a1)
    80003a56:	b509                	j	80003858 <svd_core+0x169c>
    80003a58:	068c6593          	ori	a1,s8,104
    80003a5c:	95d2                	add	a1,a1,s4
    80003a5e:	618c                	ld	a1,0(a1)
    80003a60:	431d                	li	t1,7
    80003a62:	00656f63          	bltu	a0,t1,80003a80 <svd_core+0x18c4>
    80003a66:	070c6613          	ori	a2,s8,112
    80003a6a:	9652                	add	a2,a2,s4
    80003a6c:	621c                	ld	a5,0(a2)
    80003a6e:	ec650ce3          	beq	a0,t1,80003946 <svd_core+0x178a>
    80003a72:	078c6513          	ori	a0,s8,120
    80003a76:	9552                	add	a0,a0,s4
    80003a78:	6110                	ld	a2,0(a0)
    80003a7a:	b5f9                	j	80003948 <svd_core+0x178c>
    80003a7c:	4701                	li	a4,0
    80003a7e:	bbe1                	j	80003856 <svd_core+0x169a>
    80003a80:	4781                	li	a5,0
    80003a82:	b5d1                	j	80003946 <svd_core+0x178a>
    80003a84:	22000553          	fmv.d	fa0,ft0
    80003a88:	6db0c0ef          	jal	80010962 <sqrt>
    80003a8c:	04000493          	li	s1,64
    80003a90:	4389                	li	t2,2
    80003a92:	b58d                	j	800038f4 <svd_core+0x1738>
    80003a94:	6cf0c0ef          	jal	80010962 <sqrt>
    80003a98:	04000493          	li	s1,64
    80003a9c:	4389                	li	t2,2
    80003a9e:	22a50053          	fmv.d	ft0,fa0
    80003aa2:	bf3d                	j	800039e0 <svd_core+0x1824>
    80003aa4:	4801                	li	a6,0
    80003aa6:	d475d0e3          	bge	a1,t2,800037e6 <svd_core+0x162a>
    80003aaa:	4781                	li	a5,0
    80003aac:	4701                	li	a4,0
    80003aae:	4881                	li	a7,0
    80003ab0:	4281                	li	t0,0
    80003ab2:	4601                	li	a2,0
    80003ab4:	4581                	li	a1,0
    80003ab6:	9552                	add	a0,a0,s4
    80003ab8:	6114                	ld	a3,0(a0)
    80003aba:	4501                	li	a0,0
    80003abc:	6321                	lui	t1,0x8
    80003abe:	4783031b          	addiw	t1,t1,1144 # 8478 <buflen.1+0x8438>
    80003ac2:	930a                	add	t1,t1,sp
    80003ac4:	00d33023          	sd	a3,0(t1)
    80003ac8:	66a1                	lui	a3,0x8
    80003aca:	4806869b          	addiw	a3,a3,1152 # 8480 <buflen.1+0x8440>
    80003ace:	968a                	add	a3,a3,sp
    80003ad0:	0106b023          	sd	a6,0(a3)
    80003ad4:	66a1                	lui	a3,0x8
    80003ad6:	4886869b          	addiw	a3,a3,1160 # 8488 <buflen.1+0x8448>
    80003ada:	968a                	add	a3,a3,sp
    80003adc:	0116b023          	sd	a7,0(a3)
    80003ae0:	66a1                	lui	a3,0x8
    80003ae2:	4906869b          	addiw	a3,a3,1168 # 8490 <buflen.1+0x8450>
    80003ae6:	968a                	add	a3,a3,sp
    80003ae8:	0056b023          	sd	t0,0(a3)
    80003aec:	66a1                	lui	a3,0x8
    80003aee:	4986869b          	addiw	a3,a3,1176 # 8498 <buflen.1+0x8458>
    80003af2:	968a                	add	a3,a3,sp
    80003af4:	e298                	sd	a4,0(a3)
    80003af6:	66a1                	lui	a3,0x8
    80003af8:	4a06869b          	addiw	a3,a3,1184 # 84a0 <buflen.1+0x8460>
    80003afc:	968a                	add	a3,a3,sp
    80003afe:	e290                	sd	a2,0(a3)
    80003b00:	6621                	lui	a2,0x8
    80003b02:	4a86061b          	addiw	a2,a2,1192 # 84a8 <buflen.1+0x8468>
    80003b06:	960a                	add	a2,a2,sp
    80003b08:	e21c                	sd	a5,0(a2)
    80003b0a:	f2000553          	fmv.d.x	fa0,zero
    80003b0e:	6621                	lui	a2,0x8
    80003b10:	4b06061b          	addiw	a2,a2,1200 # 84b0 <buflen.1+0x8470>
    80003b14:	960a                	add	a2,a2,sp
    80003b16:	e20c                	sd	a1,0(a2)
    80003b18:	00aa85b3          	add	a1,s5,a0
    80003b1c:	0005b007          	fld	ft0,0(a1)
    80003b20:	52007043          	fmadd.d	ft0,ft0,ft0,fa0
    80003b24:	0085b087          	fld	ft1,8(a1)
    80003b28:	0210f043          	fmadd.d	ft0,ft1,ft1,ft0
    80003b2c:	0105b087          	fld	ft1,16(a1)
    80003b30:	0210f043          	fmadd.d	ft0,ft1,ft1,ft0
    80003b34:	0185b087          	fld	ft1,24(a1)
    80003b38:	0210f543          	fmadd.d	fa0,ft1,ft1,ft0
    80003b3c:	02050513          	addi	a0,a0,32
    80003b40:	fc951ce3          	bne	a0,s1,80003b18 <svd_core+0x195c>
    80003b44:	5a057053          	fsqrt.d	ft0,fa0
    80003b48:	a2002553          	feq.d	a0,ft0,ft0
    80003b4c:	e119                	bnez	a0,80003b52 <svd_core+0x1996>
    80003b4e:	2460c06f          	j	8000fd94 <svd_core+0xdbd8>
    80003b52:	02097953          	fadd.d	fs2,fs2,ft0
    80003b56:	0b397053          	fsub.d	ft0,fs2,fs3
    80003b5a:	a3401553          	flt.d	a0,ft0,fs4
    80003b5e:	c119                	beqz	a0,80003b64 <svd_core+0x19a8>
    80003b60:	22001053          	fneg.d	ft0,ft0
    80003b64:	a2901553          	flt.d	a0,ft0,fs1
    80003b68:	23398a53          	fmv.d	fs4,fs3
    80003b6c:	c119                	beqz	a0,80003b72 <svd_core+0x19b6>
    80003b6e:	3680c06f          	j	8000fed6 <svd_core+0xdd1a>
    80003b72:	4801                	li	a6,0
    80003b74:	4881                	li	a7,0
    80003b76:	a821                	j	80003b8e <svd_core+0x19d2>
    80003b78:	1b207053          	fdiv.d	ft0,ft0,fs2
    80003b7c:	00389513          	slli	a0,a7,0x3
    80003b80:	9566                	add	a0,a0,s9
    80003b82:	00053027          	fsd	ft0,0(a0)
    80003b86:	0885                	addi	a7,a7,1
    80003b88:	984e                	add	a6,a6,s3
    80003b8a:	21788c63          	beq	a7,s7,80003da2 <svd_core+0x1be6>
    80003b8e:	1ba9c063          	blt	s3,s10,80003d2e <svd_core+0x1b72>
    80003b92:	4601                	li	a2,0
    80003b94:	033882b3          	mul	t0,a7,s3
    80003b98:	f20000d3          	fmv.d.x	ft1,zero
    80003b9c:	471d                	li	a4,7
    80003b9e:	22108053          	fmv.d	ft0,ft1
    80003ba2:	005607b3          	add	a5,a2,t0
    80003ba6:	078e                	slli	a5,a5,0x3
    80003ba8:	97da                	add	a5,a5,s6
    80003baa:	0007bd03          	ld	s10,0(a5)
    80003bae:	0087bc03          	ld	s8,8(a5)
    80003bb2:	0107be03          	ld	t3,16(a5)
    80003bb6:	0187be83          	ld	t4,24(a5)
    80003bba:	0207bf03          	ld	t5,32(a5)
    80003bbe:	0287b303          	ld	t1,40(a5)
    80003bc2:	0307b383          	ld	t2,48(a5)
    80003bc6:	0387bf83          	ld	t6,56(a5)
    80003bca:	00361513          	slli	a0,a2,0x3
    80003bce:	00aa05b3          	add	a1,s4,a0
    80003bd2:	0005bd83          	ld	s11,0(a1)
    80003bd6:	00856693          	ori	a3,a0,8
    80003bda:	96d2                	add	a3,a3,s4
    80003bdc:	0006b083          	ld	ra,0(a3)
    80003be0:	01056793          	ori	a5,a0,16
    80003be4:	97d2                	add	a5,a5,s4
    80003be6:	639c                	ld	a5,0(a5)
    80003be8:	01856413          	ori	s0,a0,24
    80003bec:	9452                	add	s0,s0,s4
    80003bee:	6000                	ld	s0,0(s0)
    80003bf0:	02056493          	ori	s1,a0,32
    80003bf4:	94d2                	add	s1,s1,s4
    80003bf6:	6084                	ld	s1,0(s1)
    80003bf8:	02856593          	ori	a1,a0,40
    80003bfc:	95d2                	add	a1,a1,s4
    80003bfe:	618c                	ld	a1,0(a1)
    80003c00:	03056513          	ori	a0,a0,48
    80003c04:	9552                	add	a0,a0,s4
    80003c06:	6108                	ld	a0,0(a0)
    80003c08:	00371693          	slli	a3,a4,0x3
    80003c0c:	96d2                	add	a3,a3,s4
    80003c0e:	6294                	ld	a3,0(a3)
    80003c10:	e042                	sd	a6,0(sp)
    80003c12:	6821                	lui	a6,0x8
    80003c14:	4788081b          	addiw	a6,a6,1144 # 8478 <buflen.1+0x8438>
    80003c18:	980a                	add	a6,a6,sp
    80003c1a:	01a83023          	sd	s10,0(a6)
    80003c1e:	6802                	ld	a6,0(sp)
    80003c20:	6d21                	lui	s10,0x8
    80003c22:	480d0d1b          	addiw	s10,s10,1152 # 8480 <buflen.1+0x8440>
    80003c26:	9d0a                	add	s10,s10,sp
    80003c28:	018d3023          	sd	s8,0(s10)
    80003c2c:	6c21                	lui	s8,0x8
    80003c2e:	488c0c1b          	addiw	s8,s8,1160 # 8488 <buflen.1+0x8448>
    80003c32:	9c0a                	add	s8,s8,sp
    80003c34:	01cc3023          	sd	t3,0(s8)
    80003c38:	6e21                	lui	t3,0x8
    80003c3a:	490e0e1b          	addiw	t3,t3,1168 # 8490 <buflen.1+0x8450>
    80003c3e:	9e0a                	add	t3,t3,sp
    80003c40:	01de3023          	sd	t4,0(t3)
    80003c44:	6e21                	lui	t3,0x8
    80003c46:	498e0e1b          	addiw	t3,t3,1176 # 8498 <buflen.1+0x8458>
    80003c4a:	9e0a                	add	t3,t3,sp
    80003c4c:	01ee3023          	sd	t5,0(t3)
    80003c50:	6e21                	lui	t3,0x8
    80003c52:	4a0e0e1b          	addiw	t3,t3,1184 # 84a0 <buflen.1+0x8460>
    80003c56:	9e0a                	add	t3,t3,sp
    80003c58:	006e3023          	sd	t1,0(t3)
    80003c5c:	6321                	lui	t1,0x8
    80003c5e:	4a83031b          	addiw	t1,t1,1192 # 84a8 <buflen.1+0x8468>
    80003c62:	930a                	add	t1,t1,sp
    80003c64:	00733023          	sd	t2,0(t1)
    80003c68:	6321                	lui	t1,0x8
    80003c6a:	4b03031b          	addiw	t1,t1,1200 # 84b0 <buflen.1+0x8470>
    80003c6e:	930a                	add	t1,t1,sp
    80003c70:	01f33023          	sd	t6,0(t1)
    80003c74:	6321                	lui	t1,0x8
    80003c76:	4b83031b          	addiw	t1,t1,1208 # 84b8 <buflen.1+0x8478>
    80003c7a:	930a                	add	t1,t1,sp
    80003c7c:	01b33023          	sd	s11,0(t1)
    80003c80:	6321                	lui	t1,0x8
    80003c82:	4c03031b          	addiw	t1,t1,1216 # 84c0 <buflen.1+0x8480>
    80003c86:	930a                	add	t1,t1,sp
    80003c88:	00133023          	sd	ra,0(t1)
    80003c8c:	6321                	lui	t1,0x8
    80003c8e:	4c83031b          	addiw	t1,t1,1224 # 84c8 <buflen.1+0x8488>
    80003c92:	930a                	add	t1,t1,sp
    80003c94:	00f33023          	sd	a5,0(t1)
    80003c98:	67a1                	lui	a5,0x8
    80003c9a:	4d07879b          	addiw	a5,a5,1232 # 84d0 <buflen.1+0x8490>
    80003c9e:	978a                	add	a5,a5,sp
    80003ca0:	e380                	sd	s0,0(a5)
    80003ca2:	67a1                	lui	a5,0x8
    80003ca4:	4d87879b          	addiw	a5,a5,1240 # 84d8 <buflen.1+0x8498>
    80003ca8:	978a                	add	a5,a5,sp
    80003caa:	e384                	sd	s1,0(a5)
    80003cac:	67a1                	lui	a5,0x8
    80003cae:	4e07879b          	addiw	a5,a5,1248 # 84e0 <buflen.1+0x84a0>
    80003cb2:	978a                	add	a5,a5,sp
    80003cb4:	e38c                	sd	a1,0(a5)
    80003cb6:	65a1                	lui	a1,0x8
    80003cb8:	4e85859b          	addiw	a1,a1,1256 # 84e8 <buflen.1+0x84a8>
    80003cbc:	958a                	add	a1,a1,sp
    80003cbe:	e188                	sd	a0,0(a1)
    80003cc0:	6521                	lui	a0,0x8
    80003cc2:	4f05051b          	addiw	a0,a0,1264 # 84f0 <buflen.1+0x84b0>
    80003cc6:	950a                	add	a0,a0,sp
    80003cc8:	e114                	sd	a3,0(a0)
    80003cca:	47c1                	li	a5,16
    80003ccc:	22108153          	fmv.d	ft2,ft1
    80003cd0:	00fa8533          	add	a0,s5,a5
    80003cd4:	ff053187          	fld	ft3,-16(a0)
    80003cd8:	03053207          	fld	ft4,48(a0)
    80003cdc:	1241f143          	fmadd.d	ft2,ft3,ft4,ft2
    80003ce0:	ff853187          	fld	ft3,-8(a0)
    80003ce4:	03853207          	fld	ft4,56(a0)
    80003ce8:	1241f143          	fmadd.d	ft2,ft3,ft4,ft2
    80003cec:	00053187          	fld	ft3,0(a0)
    80003cf0:	04053207          	fld	ft4,64(a0)
    80003cf4:	1241f143          	fmadd.d	ft2,ft3,ft4,ft2
    80003cf8:	00853187          	fld	ft3,8(a0)
    80003cfc:	04853207          	fld	ft4,72(a0)
    80003d00:	1241f143          	fmadd.d	ft2,ft3,ft4,ft2
    80003d04:	02078793          	addi	a5,a5,32
    80003d08:	fd2794e3          	bne	a5,s2,80003cd0 <svd_core+0x1b14>
    80003d0c:	02207053          	fadd.d	ft0,ft0,ft2
    80003d10:	0621                	addi	a2,a2,8
    80003d12:	00766513          	ori	a0,a2,7
    80003d16:	0721                	addi	a4,a4,8
    80003d18:	e93545e3          	blt	a0,s3,80003ba2 <svd_core+0x19e6>
    80003d1c:	4d21                	li	s10,8
    80003d1e:	4405                	li	s0,1
    80003d20:	4389                	li	t2,2
    80003d22:	4c0d                	li	s8,3
    80003d24:	0006051b          	sext.w	a0,a2
    80003d28:	e53558e3          	bge	a0,s3,80003b78 <svd_core+0x19bc>
    80003d2c:	a801                	j	80003d3c <svd_core+0x1b80>
    80003d2e:	f2000053          	fmv.d.x	ft0,zero
    80003d32:	4601                	li	a2,0
    80003d34:	0006051b          	sext.w	a0,a2
    80003d38:	e53550e3          	bge	a0,s3,80003b78 <svd_core+0x19bc>
    80003d3c:	02061513          	slli	a0,a2,0x20
    80003d40:	02055593          	srli	a1,a0,0x20
    80003d44:	7626                	ld	a2,104(sp)
    80003d46:	8e0d                	sub	a2,a2,a1
    80003d48:	95c2                	add	a1,a1,a6
    80003d4a:	058e                	slli	a1,a1,0x3
    80003d4c:	00bb06b3          	add	a3,s6,a1
    80003d50:	8175                	srli	a0,a0,0x1d
    80003d52:	012c                	addi	a1,sp,136
    80003d54:	00a58733          	add	a4,a1,a0
    80003d58:	0006b087          	fld	ft1,0(a3)
    80003d5c:	ff073107          	fld	ft2,-16(a4)
    80003d60:	0220f043          	fmadd.d	ft0,ft1,ft2,ft0
    80003d64:	e0860ae3          	beq	a2,s0,80003b78 <svd_core+0x19bc>
    80003d68:	0086b087          	fld	ft1,8(a3)
    80003d6c:	ff873107          	fld	ft2,-8(a4)
    80003d70:	0220f043          	fmadd.d	ft0,ft1,ft2,ft0
    80003d74:	e07602e3          	beq	a2,t2,80003b78 <svd_core+0x19bc>
    80003d78:	0106b087          	fld	ft1,16(a3)
    80003d7c:	00073107          	fld	ft2,0(a4)
    80003d80:	0220f043          	fmadd.d	ft0,ft1,ft2,ft0
    80003d84:	df860ae3          	beq	a2,s8,80003b78 <svd_core+0x19bc>
    80003d88:	0186b087          	fld	ft1,24(a3)
    80003d8c:	00873107          	fld	ft2,8(a4)
    80003d90:	0220f043          	fmadd.d	ft0,ft1,ft2,ft0
    80003d94:	1671                	addi	a2,a2,-4
    80003d96:	02068693          	addi	a3,a3,32
    80003d9a:	02070713          	addi	a4,a4,32
    80003d9e:	fe4d                	bnez	a2,80003d58 <svd_core+0x1b9c>
    80003da0:	bbe1                	j	80003b78 <svd_core+0x19bc>
    80003da2:	18a8                	addi	a0,sp,120
    80003da4:	20000613          	li	a2,512
    80003da8:	4581                	li	a1,0
    80003daa:	0330c0ef          	jal	800105dc <memset>
    80003dae:	4389                	li	t2,2
    80003db0:	f2000a53          	fmv.d.x	fs4,zero
    80003db4:	234a09d3          	fmv.d	fs3,fs4
    80003db8:	04000493          	li	s1,64
    80003dbc:	5f305463          	blez	s3,800043a4 <svd_core+0x21e8>
    80003dc0:	4801                	li	a6,0
    80003dc2:	4881                	li	a7,0
    80003dc4:	a819                	j	80003dda <svd_core+0x1c1e>
    80003dc6:	00389513          	slli	a0,a7,0x3
    80003dca:	9552                	add	a0,a0,s4
    80003dcc:	00053027          	fsd	ft0,0(a0)
    80003dd0:	0885                	addi	a7,a7,1
    80003dd2:	985e                	add	a6,a6,s7
    80003dd4:	7526                	ld	a0,104(sp)
    80003dd6:	20a88f63          	beq	a7,a0,80003ff4 <svd_core+0x1e38>
    80003dda:	1babe363          	bltu	s7,s10,80003f80 <svd_core+0x1dc4>
    80003dde:	4601                	li	a2,0
    80003de0:	037882b3          	mul	t0,a7,s7
    80003de4:	f20000d3          	fmv.d.x	ft1,zero
    80003de8:	471d                	li	a4,7
    80003dea:	22108053          	fmv.d	ft0,ft1
    80003dee:	005607b3          	add	a5,a2,t0
    80003df2:	078e                	slli	a5,a5,0x3
    80003df4:	7546                	ld	a0,112(sp)
    80003df6:	97aa                	add	a5,a5,a0
    80003df8:	0007bd03          	ld	s10,0(a5)
    80003dfc:	0087bc03          	ld	s8,8(a5)
    80003e00:	0107be03          	ld	t3,16(a5)
    80003e04:	0187be83          	ld	t4,24(a5)
    80003e08:	0207bf03          	ld	t5,32(a5)
    80003e0c:	0287b303          	ld	t1,40(a5)
    80003e10:	0307b383          	ld	t2,48(a5)
    80003e14:	0387bf83          	ld	t6,56(a5)
    80003e18:	00361513          	slli	a0,a2,0x3
    80003e1c:	00ac85b3          	add	a1,s9,a0
    80003e20:	0005bd83          	ld	s11,0(a1)
    80003e24:	00856693          	ori	a3,a0,8
    80003e28:	96e6                	add	a3,a3,s9
    80003e2a:	0006b083          	ld	ra,0(a3)
    80003e2e:	01056793          	ori	a5,a0,16
    80003e32:	97e6                	add	a5,a5,s9
    80003e34:	639c                	ld	a5,0(a5)
    80003e36:	01856413          	ori	s0,a0,24
    80003e3a:	9466                	add	s0,s0,s9
    80003e3c:	6000                	ld	s0,0(s0)
    80003e3e:	02056493          	ori	s1,a0,32
    80003e42:	94e6                	add	s1,s1,s9
    80003e44:	6084                	ld	s1,0(s1)
    80003e46:	02856593          	ori	a1,a0,40
    80003e4a:	95e6                	add	a1,a1,s9
    80003e4c:	618c                	ld	a1,0(a1)
    80003e4e:	03056513          	ori	a0,a0,48
    80003e52:	9566                	add	a0,a0,s9
    80003e54:	6108                	ld	a0,0(a0)
    80003e56:	00371693          	slli	a3,a4,0x3
    80003e5a:	96e6                	add	a3,a3,s9
    80003e5c:	6294                	ld	a3,0(a3)
    80003e5e:	e042                	sd	a6,0(sp)
    80003e60:	6821                	lui	a6,0x8
    80003e62:	4788081b          	addiw	a6,a6,1144 # 8478 <buflen.1+0x8438>
    80003e66:	980a                	add	a6,a6,sp
    80003e68:	01a83023          	sd	s10,0(a6)
    80003e6c:	6802                	ld	a6,0(sp)
    80003e6e:	6d21                	lui	s10,0x8
    80003e70:	480d0d1b          	addiw	s10,s10,1152 # 8480 <buflen.1+0x8440>
    80003e74:	9d0a                	add	s10,s10,sp
    80003e76:	018d3023          	sd	s8,0(s10)
    80003e7a:	6c21                	lui	s8,0x8
    80003e7c:	488c0c1b          	addiw	s8,s8,1160 # 8488 <buflen.1+0x8448>
    80003e80:	9c0a                	add	s8,s8,sp
    80003e82:	01cc3023          	sd	t3,0(s8)
    80003e86:	6e21                	lui	t3,0x8
    80003e88:	490e0e1b          	addiw	t3,t3,1168 # 8490 <buflen.1+0x8450>
    80003e8c:	9e0a                	add	t3,t3,sp
    80003e8e:	01de3023          	sd	t4,0(t3)
    80003e92:	6e21                	lui	t3,0x8
    80003e94:	498e0e1b          	addiw	t3,t3,1176 # 8498 <buflen.1+0x8458>
    80003e98:	9e0a                	add	t3,t3,sp
    80003e9a:	01ee3023          	sd	t5,0(t3)
    80003e9e:	6e21                	lui	t3,0x8
    80003ea0:	4a0e0e1b          	addiw	t3,t3,1184 # 84a0 <buflen.1+0x8460>
    80003ea4:	9e0a                	add	t3,t3,sp
    80003ea6:	006e3023          	sd	t1,0(t3)
    80003eaa:	6321                	lui	t1,0x8
    80003eac:	4a83031b          	addiw	t1,t1,1192 # 84a8 <buflen.1+0x8468>
    80003eb0:	930a                	add	t1,t1,sp
    80003eb2:	00733023          	sd	t2,0(t1)
    80003eb6:	6321                	lui	t1,0x8
    80003eb8:	4b03031b          	addiw	t1,t1,1200 # 84b0 <buflen.1+0x8470>
    80003ebc:	930a                	add	t1,t1,sp
    80003ebe:	01f33023          	sd	t6,0(t1)
    80003ec2:	6321                	lui	t1,0x8
    80003ec4:	4b83031b          	addiw	t1,t1,1208 # 84b8 <buflen.1+0x8478>
    80003ec8:	930a                	add	t1,t1,sp
    80003eca:	01b33023          	sd	s11,0(t1)
    80003ece:	6321                	lui	t1,0x8
    80003ed0:	4c03031b          	addiw	t1,t1,1216 # 84c0 <buflen.1+0x8480>
    80003ed4:	930a                	add	t1,t1,sp
    80003ed6:	00133023          	sd	ra,0(t1)
    80003eda:	6321                	lui	t1,0x8
    80003edc:	4c83031b          	addiw	t1,t1,1224 # 84c8 <buflen.1+0x8488>
    80003ee0:	930a                	add	t1,t1,sp
    80003ee2:	00f33023          	sd	a5,0(t1)
    80003ee6:	67a1                	lui	a5,0x8
    80003ee8:	4d07879b          	addiw	a5,a5,1232 # 84d0 <buflen.1+0x8490>
    80003eec:	978a                	add	a5,a5,sp
    80003eee:	e380                	sd	s0,0(a5)
    80003ef0:	67a1                	lui	a5,0x8
    80003ef2:	4d87879b          	addiw	a5,a5,1240 # 84d8 <buflen.1+0x8498>
    80003ef6:	978a                	add	a5,a5,sp
    80003ef8:	e384                	sd	s1,0(a5)
    80003efa:	67a1                	lui	a5,0x8
    80003efc:	4e07879b          	addiw	a5,a5,1248 # 84e0 <buflen.1+0x84a0>
    80003f00:	978a                	add	a5,a5,sp
    80003f02:	e38c                	sd	a1,0(a5)
    80003f04:	65a1                	lui	a1,0x8
    80003f06:	4e85859b          	addiw	a1,a1,1256 # 84e8 <buflen.1+0x84a8>
    80003f0a:	958a                	add	a1,a1,sp
    80003f0c:	e188                	sd	a0,0(a1)
    80003f0e:	6521                	lui	a0,0x8
    80003f10:	4f05051b          	addiw	a0,a0,1264 # 84f0 <buflen.1+0x84b0>
    80003f14:	950a                	add	a0,a0,sp
    80003f16:	e114                	sd	a3,0(a0)
    80003f18:	47c1                	li	a5,16
    80003f1a:	22108153          	fmv.d	ft2,ft1
    80003f1e:	00fa8533          	add	a0,s5,a5
    80003f22:	ff053187          	fld	ft3,-16(a0)
    80003f26:	03053207          	fld	ft4,48(a0)
    80003f2a:	1241f143          	fmadd.d	ft2,ft3,ft4,ft2
    80003f2e:	ff853187          	fld	ft3,-8(a0)
    80003f32:	03853207          	fld	ft4,56(a0)
    80003f36:	1241f143          	fmadd.d	ft2,ft3,ft4,ft2
    80003f3a:	00053187          	fld	ft3,0(a0)
    80003f3e:	04053207          	fld	ft4,64(a0)
    80003f42:	1241f143          	fmadd.d	ft2,ft3,ft4,ft2
    80003f46:	00853187          	fld	ft3,8(a0)
    80003f4a:	04853207          	fld	ft4,72(a0)
    80003f4e:	1241f143          	fmadd.d	ft2,ft3,ft4,ft2
    80003f52:	02078793          	addi	a5,a5,32
    80003f56:	fd2794e3          	bne	a5,s2,80003f1e <svd_core+0x1d62>
    80003f5a:	02207053          	fadd.d	ft0,ft0,ft2
    80003f5e:	0621                	addi	a2,a2,8
    80003f60:	00766513          	ori	a0,a2,7
    80003f64:	0721                	addi	a4,a4,8
    80003f66:	e97564e3          	bltu	a0,s7,80003dee <svd_core+0x1c32>
    80003f6a:	4d21                	li	s10,8
    80003f6c:	4405                	li	s0,1
    80003f6e:	4389                	li	t2,2
    80003f70:	4c0d                	li	s8,3
    80003f72:	04000493          	li	s1,64
    80003f76:	0006051b          	sext.w	a0,a2
    80003f7a:	e57556e3          	bge	a0,s7,80003dc6 <svd_core+0x1c0a>
    80003f7e:	a801                	j	80003f8e <svd_core+0x1dd2>
    80003f80:	f2000053          	fmv.d.x	ft0,zero
    80003f84:	4601                	li	a2,0
    80003f86:	0006051b          	sext.w	a0,a2
    80003f8a:	e3755ee3          	bge	a0,s7,80003dc6 <svd_core+0x1c0a>
    80003f8e:	02061513          	slli	a0,a2,0x20
    80003f92:	02055593          	srli	a1,a0,0x20
    80003f96:	40bb8633          	sub	a2,s7,a1
    80003f9a:	95c2                	add	a1,a1,a6
    80003f9c:	058e                	slli	a1,a1,0x3
    80003f9e:	76c6                	ld	a3,112(sp)
    80003fa0:	96ae                	add	a3,a3,a1
    80003fa2:	8175                	srli	a0,a0,0x1d
    80003fa4:	052c                	addi	a1,sp,648
    80003fa6:	00a58733          	add	a4,a1,a0
    80003faa:	0006b087          	fld	ft1,0(a3)
    80003fae:	ff073107          	fld	ft2,-16(a4)
    80003fb2:	0220f043          	fmadd.d	ft0,ft1,ft2,ft0
    80003fb6:	e08608e3          	beq	a2,s0,80003dc6 <svd_core+0x1c0a>
    80003fba:	0086b087          	fld	ft1,8(a3)
    80003fbe:	ff873107          	fld	ft2,-8(a4)
    80003fc2:	0220f043          	fmadd.d	ft0,ft1,ft2,ft0
    80003fc6:	e07600e3          	beq	a2,t2,80003dc6 <svd_core+0x1c0a>
    80003fca:	0106b087          	fld	ft1,16(a3)
    80003fce:	00073107          	fld	ft2,0(a4)
    80003fd2:	0220f043          	fmadd.d	ft0,ft1,ft2,ft0
    80003fd6:	df8608e3          	beq	a2,s8,80003dc6 <svd_core+0x1c0a>
    80003fda:	0186b087          	fld	ft1,24(a3)
    80003fde:	00873107          	fld	ft2,8(a4)
    80003fe2:	0220f043          	fmadd.d	ft0,ft1,ft2,ft0
    80003fe6:	1671                	addi	a2,a2,-4
    80003fe8:	02068693          	addi	a3,a3,32
    80003fec:	02070713          	addi	a4,a4,32
    80003ff0:	fe4d                	bnez	a2,80003faa <svd_core+0x1dee>
    80003ff2:	bbd1                	j	80003dc6 <svd_core+0x1c0a>
    80003ff4:	05305c63          	blez	s3,8000404c <svd_core+0x1e90>
    80003ff8:	6566                	ld	a0,88(sp)
    80003ffa:	05a57c63          	bgeu	a0,s10,80004052 <svd_core+0x1e96>
    80003ffe:	f20009d3          	fmv.d.x	fs3,zero
    80004002:	4d81                	li	s11,0
    80004004:	6546                	ld	a0,80(sp)
    80004006:	4405                	li	s0,1
    80004008:	4c0d                	li	s8,3
    8000400a:	4d21                	li	s10,8
    8000400c:	38050c63          	beqz	a0,800043a4 <svd_core+0x21e8>
    80004010:	41b9863b          	subw	a2,s3,s11
    80004014:	4521                	li	a0,8
    80004016:	85b2                	mv	a1,a2
    80004018:	00a64363          	blt	a2,a0,8000401e <svd_core+0x1e62>
    8000401c:	45a1                	li	a1,8
    8000401e:	003d9513          	slli	a0,s11,0x3
    80004022:	2cc05863          	blez	a2,800042f2 <svd_core+0x2136>
    80004026:	00856613          	ori	a2,a0,8
    8000402a:	9652                	add	a2,a2,s4
    8000402c:	00063803          	ld	a6,0(a2)
    80004030:	2c75c463          	blt	a1,t2,800042f8 <svd_core+0x213c>
    80004034:	01056613          	ori	a2,a0,16
    80004038:	9652                	add	a2,a2,s4
    8000403a:	00063883          	ld	a7,0(a2)
    8000403e:	00758463          	beq	a1,t2,80004046 <svd_core+0x1e8a>
    80004042:	7270606f          	j	8000af68 <svd_core+0x8dac>
    80004046:	4781                	li	a5,0
    80004048:	4701                	li	a4,0
    8000404a:	ac55                	j	800042fe <svd_core+0x2142>
    8000404c:	f20009d3          	fmv.d.x	fs3,zero
    80004050:	ae91                	j	800043a4 <svd_core+0x21e8>
    80004052:	4d81                	li	s11,0
    80004054:	f20009d3          	fmv.d.x	fs3,zero
    80004058:	4d01                	li	s10,0
    8000405a:	4415                	li	s0,5
    8000405c:	41b9853b          	subw	a0,s3,s11
    80004060:	45a1                	li	a1,8
    80004062:	87aa                	mv	a5,a0
    80004064:	00b54363          	blt	a0,a1,8000406a <svd_core+0x1eae>
    80004068:	47a1                	li	a5,8
    8000406a:	003d9c13          	slli	s8,s11,0x3
    8000406e:	02a05363          	blez	a0,80004094 <svd_core+0x1ed8>
    80004072:	008c6513          	ori	a0,s8,8
    80004076:	9552                	add	a0,a0,s4
    80004078:	00053803          	ld	a6,0(a0)
    8000407c:	0077cf63          	blt	a5,t2,8000409a <svd_core+0x1ede>
    80004080:	010c6513          	ori	a0,s8,16
    80004084:	9552                	add	a0,a0,s4
    80004086:	00053883          	ld	a7,0(a0)
    8000408a:	1a779a63          	bne	a5,t2,8000423e <svd_core+0x2082>
    8000408e:	4701                	li	a4,0
    80004090:	4681                	li	a3,0
    80004092:	a039                	j	800040a0 <svd_core+0x1ee4>
    80004094:	4801                	li	a6,0
    80004096:	fe77d5e3          	bge	a5,t2,80004080 <svd_core+0x1ec4>
    8000409a:	4701                	li	a4,0
    8000409c:	4681                	li	a3,0
    8000409e:	4881                	li	a7,0
    800040a0:	4601                	li	a2,0
    800040a2:	4501                	li	a0,0
    800040a4:	4781                	li	a5,0
    800040a6:	018a05b3          	add	a1,s4,s8
    800040aa:	6180                	ld	s0,0(a1)
    800040ac:	4581                	li	a1,0
    800040ae:	62a1                	lui	t0,0x8
    800040b0:	4782829b          	addiw	t0,t0,1144 # 8478 <buflen.1+0x8438>
    800040b4:	928a                	add	t0,t0,sp
    800040b6:	0082b023          	sd	s0,0(t0)
    800040ba:	62a1                	lui	t0,0x8
    800040bc:	4802829b          	addiw	t0,t0,1152 # 8480 <buflen.1+0x8440>
    800040c0:	928a                	add	t0,t0,sp
    800040c2:	0102b023          	sd	a6,0(t0)
    800040c6:	6821                	lui	a6,0x8
    800040c8:	4888081b          	addiw	a6,a6,1160 # 8488 <buflen.1+0x8448>
    800040cc:	980a                	add	a6,a6,sp
    800040ce:	01183023          	sd	a7,0(a6)
    800040d2:	6821                	lui	a6,0x8
    800040d4:	4908081b          	addiw	a6,a6,1168 # 8490 <buflen.1+0x8450>
    800040d8:	980a                	add	a6,a6,sp
    800040da:	00c83023          	sd	a2,0(a6)
    800040de:	6621                	lui	a2,0x8
    800040e0:	4986061b          	addiw	a2,a2,1176 # 8498 <buflen.1+0x8458>
    800040e4:	960a                	add	a2,a2,sp
    800040e6:	e214                	sd	a3,0(a2)
    800040e8:	6621                	lui	a2,0x8
    800040ea:	4a06061b          	addiw	a2,a2,1184 # 84a0 <buflen.1+0x8460>
    800040ee:	960a                	add	a2,a2,sp
    800040f0:	e208                	sd	a0,0(a2)
    800040f2:	6521                	lui	a0,0x8
    800040f4:	4a85051b          	addiw	a0,a0,1192 # 84a8 <buflen.1+0x8468>
    800040f8:	950a                	add	a0,a0,sp
    800040fa:	e118                	sd	a4,0(a0)
    800040fc:	f2000053          	fmv.d.x	ft0,zero
    80004100:	6521                	lui	a0,0x8
    80004102:	4b05051b          	addiw	a0,a0,1200 # 84b0 <buflen.1+0x8470>
    80004106:	950a                	add	a0,a0,sp
    80004108:	e11c                	sd	a5,0(a0)
    8000410a:	00ba8533          	add	a0,s5,a1
    8000410e:	00053087          	fld	ft1,0(a0)
    80004112:	0210f043          	fmadd.d	ft0,ft1,ft1,ft0
    80004116:	00853087          	fld	ft1,8(a0)
    8000411a:	0210f043          	fmadd.d	ft0,ft1,ft1,ft0
    8000411e:	01053087          	fld	ft1,16(a0)
    80004122:	0210f043          	fmadd.d	ft0,ft1,ft1,ft0
    80004126:	01853087          	fld	ft1,24(a0)
    8000412a:	0210f043          	fmadd.d	ft0,ft1,ft1,ft0
    8000412e:	02058593          	addi	a1,a1,32
    80004132:	fc959ce3          	bne	a1,s1,8000410a <svd_core+0x1f4e>
    80004136:	5a007553          	fsqrt.d	fa0,ft0
    8000413a:	a2a52553          	feq.d	a0,fa0,fa0
    8000413e:	18050a63          	beqz	a0,800042d2 <svd_core+0x2116>
    80004142:	008de613          	ori	a2,s11,8
    80004146:	40c985bb          	subw	a1,s3,a2
    8000414a:	46a1                	li	a3,8
    8000414c:	852e                	mv	a0,a1
    8000414e:	4415                	li	s0,5
    80004150:	00d5c363          	blt	a1,a3,80004156 <svd_core+0x1f9a>
    80004154:	4521                	li	a0,8
    80004156:	060e                	slli	a2,a2,0x3
    80004158:	9652                	add	a2,a2,s4
    8000415a:	00063803          	ld	a6,0(a2)
    8000415e:	02b05363          	blez	a1,80004184 <svd_core+0x1fc8>
    80004162:	048c6593          	ori	a1,s8,72
    80004166:	95d2                	add	a1,a1,s4
    80004168:	0005b883          	ld	a7,0(a1)
    8000416c:	00754f63          	blt	a0,t2,8000418a <svd_core+0x1fce>
    80004170:	050c6593          	ori	a1,s8,80
    80004174:	95d2                	add	a1,a1,s4
    80004176:	0005b283          	ld	t0,0(a1)
    8000417a:	0e751063          	bne	a0,t2,8000425a <svd_core+0x209e>
    8000417e:	4781                	li	a5,0
    80004180:	4701                	li	a4,0
    80004182:	a039                	j	80004190 <svd_core+0x1fd4>
    80004184:	4881                	li	a7,0
    80004186:	fe7555e3          	bge	a0,t2,80004170 <svd_core+0x1fb4>
    8000418a:	4781                	li	a5,0
    8000418c:	4701                	li	a4,0
    8000418e:	4281                	li	t0,0
    80004190:	4681                	li	a3,0
    80004192:	4581                	li	a1,0
    80004194:	4601                	li	a2,0
    80004196:	4501                	li	a0,0
    80004198:	6321                	lui	t1,0x8
    8000419a:	4783031b          	addiw	t1,t1,1144 # 8478 <buflen.1+0x8438>
    8000419e:	930a                	add	t1,t1,sp
    800041a0:	01033023          	sd	a6,0(t1)
    800041a4:	02a9f9d3          	fadd.d	fs3,fs3,fa0
    800041a8:	6821                	lui	a6,0x8
    800041aa:	4808081b          	addiw	a6,a6,1152 # 8480 <buflen.1+0x8440>
    800041ae:	980a                	add	a6,a6,sp
    800041b0:	01183023          	sd	a7,0(a6)
    800041b4:	6821                	lui	a6,0x8
    800041b6:	4888081b          	addiw	a6,a6,1160 # 8488 <buflen.1+0x8448>
    800041ba:	980a                	add	a6,a6,sp
    800041bc:	00583023          	sd	t0,0(a6)
    800041c0:	6821                	lui	a6,0x8
    800041c2:	4908081b          	addiw	a6,a6,1168 # 8490 <buflen.1+0x8450>
    800041c6:	980a                	add	a6,a6,sp
    800041c8:	00d83023          	sd	a3,0(a6)
    800041cc:	66a1                	lui	a3,0x8
    800041ce:	4986869b          	addiw	a3,a3,1176 # 8498 <buflen.1+0x8458>
    800041d2:	968a                	add	a3,a3,sp
    800041d4:	e298                	sd	a4,0(a3)
    800041d6:	66a1                	lui	a3,0x8
    800041d8:	4a06869b          	addiw	a3,a3,1184 # 84a0 <buflen.1+0x8460>
    800041dc:	968a                	add	a3,a3,sp
    800041de:	e28c                	sd	a1,0(a3)
    800041e0:	65a1                	lui	a1,0x8
    800041e2:	4a85859b          	addiw	a1,a1,1192 # 84a8 <buflen.1+0x8468>
    800041e6:	958a                	add	a1,a1,sp
    800041e8:	e19c                	sd	a5,0(a1)
    800041ea:	f2000553          	fmv.d.x	fa0,zero
    800041ee:	65a1                	lui	a1,0x8
    800041f0:	4b05859b          	addiw	a1,a1,1200 # 84b0 <buflen.1+0x8470>
    800041f4:	958a                	add	a1,a1,sp
    800041f6:	e190                	sd	a2,0(a1)
    800041f8:	00aa85b3          	add	a1,s5,a0
    800041fc:	0005b007          	fld	ft0,0(a1)
    80004200:	52007043          	fmadd.d	ft0,ft0,ft0,fa0
    80004204:	0085b087          	fld	ft1,8(a1)
    80004208:	0210f043          	fmadd.d	ft0,ft1,ft1,ft0
    8000420c:	0105b087          	fld	ft1,16(a1)
    80004210:	0210f043          	fmadd.d	ft0,ft1,ft1,ft0
    80004214:	0185b087          	fld	ft1,24(a1)
    80004218:	0210f543          	fmadd.d	fa0,ft1,ft1,ft0
    8000421c:	02050513          	addi	a0,a0,32
    80004220:	fc951ce3          	bne	a0,s1,800041f8 <svd_core+0x203c>
    80004224:	5a057053          	fsqrt.d	ft0,fa0
    80004228:	a2002553          	feq.d	a0,ft0,ft0
    8000422c:	c95d                	beqz	a0,800042e2 <svd_core+0x2126>
    8000422e:	0209f9d3          	fadd.d	fs3,fs3,ft0
    80004232:	2d09                	addiw	s10,s10,2
    80004234:	0dc1                	addi	s11,s11,16
    80004236:	7506                	ld	a0,96(sp)
    80004238:	e2ad12e3          	bne	s10,a0,8000405c <svd_core+0x1ea0>
    8000423c:	b3e1                	j	80004004 <svd_core+0x1e48>
    8000423e:	018c6513          	ori	a0,s8,24
    80004242:	9552                	add	a0,a0,s4
    80004244:	6110                	ld	a2,0(a0)
    80004246:	0287e863          	bltu	a5,s0,80004276 <svd_core+0x20ba>
    8000424a:	020c6513          	ori	a0,s8,32
    8000424e:	9552                	add	a0,a0,s4
    80004250:	6114                	ld	a3,0(a0)
    80004252:	02879863          	bne	a5,s0,80004282 <svd_core+0x20c6>
    80004256:	4701                	li	a4,0
    80004258:	b5a9                	j	800040a2 <svd_core+0x1ee6>
    8000425a:	058c6593          	ori	a1,s8,88
    8000425e:	95d2                	add	a1,a1,s4
    80004260:	6194                	ld	a3,0(a1)
    80004262:	00856d63          	bltu	a0,s0,8000427c <svd_core+0x20c0>
    80004266:	060c6593          	ori	a1,s8,96
    8000426a:	95d2                	add	a1,a1,s4
    8000426c:	6198                	ld	a4,0(a1)
    8000426e:	02851c63          	bne	a0,s0,800042a6 <svd_core+0x20ea>
    80004272:	4781                	li	a5,0
    80004274:	bf39                	j	80004192 <svd_core+0x1fd6>
    80004276:	4701                	li	a4,0
    80004278:	4681                	li	a3,0
    8000427a:	b525                	j	800040a2 <svd_core+0x1ee6>
    8000427c:	4781                	li	a5,0
    8000427e:	4701                	li	a4,0
    80004280:	bf09                	j	80004192 <svd_core+0x1fd6>
    80004282:	028c6513          	ori	a0,s8,40
    80004286:	9552                	add	a0,a0,s4
    80004288:	6108                	ld	a0,0(a0)
    8000428a:	441d                	li	s0,7
    8000428c:	0287ef63          	bltu	a5,s0,800042ca <svd_core+0x210e>
    80004290:	030c6593          	ori	a1,s8,48
    80004294:	95d2                	add	a1,a1,s4
    80004296:	6198                	ld	a4,0(a1)
    80004298:	e08786e3          	beq	a5,s0,800040a4 <svd_core+0x1ee8>
    8000429c:	038c6593          	ori	a1,s8,56
    800042a0:	95d2                	add	a1,a1,s4
    800042a2:	619c                	ld	a5,0(a1)
    800042a4:	b509                	j	800040a6 <svd_core+0x1eea>
    800042a6:	068c6593          	ori	a1,s8,104
    800042aa:	95d2                	add	a1,a1,s4
    800042ac:	618c                	ld	a1,0(a1)
    800042ae:	431d                	li	t1,7
    800042b0:	00656f63          	bltu	a0,t1,800042ce <svd_core+0x2112>
    800042b4:	070c6613          	ori	a2,s8,112
    800042b8:	9652                	add	a2,a2,s4
    800042ba:	621c                	ld	a5,0(a2)
    800042bc:	ec650ce3          	beq	a0,t1,80004194 <svd_core+0x1fd8>
    800042c0:	078c6513          	ori	a0,s8,120
    800042c4:	9552                	add	a0,a0,s4
    800042c6:	6110                	ld	a2,0(a0)
    800042c8:	b5f9                	j	80004196 <svd_core+0x1fda>
    800042ca:	4701                	li	a4,0
    800042cc:	bbe1                	j	800040a4 <svd_core+0x1ee8>
    800042ce:	4781                	li	a5,0
    800042d0:	b5d1                	j	80004194 <svd_core+0x1fd8>
    800042d2:	22000553          	fmv.d	fa0,ft0
    800042d6:	68c0c0ef          	jal	80010962 <sqrt>
    800042da:	04000493          	li	s1,64
    800042de:	4389                	li	t2,2
    800042e0:	b58d                	j	80004142 <svd_core+0x1f86>
    800042e2:	6800c0ef          	jal	80010962 <sqrt>
    800042e6:	04000493          	li	s1,64
    800042ea:	4389                	li	t2,2
    800042ec:	22a50053          	fmv.d	ft0,fa0
    800042f0:	bf3d                	j	8000422e <svd_core+0x2072>
    800042f2:	4801                	li	a6,0
    800042f4:	d475d0e3          	bge	a1,t2,80004034 <svd_core+0x1e78>
    800042f8:	4781                	li	a5,0
    800042fa:	4701                	li	a4,0
    800042fc:	4881                	li	a7,0
    800042fe:	4281                	li	t0,0
    80004300:	4601                	li	a2,0
    80004302:	4581                	li	a1,0
    80004304:	9552                	add	a0,a0,s4
    80004306:	6114                	ld	a3,0(a0)
    80004308:	4501                	li	a0,0
    8000430a:	6321                	lui	t1,0x8
    8000430c:	4783031b          	addiw	t1,t1,1144 # 8478 <buflen.1+0x8438>
    80004310:	930a                	add	t1,t1,sp
    80004312:	00d33023          	sd	a3,0(t1)
    80004316:	66a1                	lui	a3,0x8
    80004318:	4806869b          	addiw	a3,a3,1152 # 8480 <buflen.1+0x8440>
    8000431c:	968a                	add	a3,a3,sp
    8000431e:	0106b023          	sd	a6,0(a3)
    80004322:	66a1                	lui	a3,0x8
    80004324:	4886869b          	addiw	a3,a3,1160 # 8488 <buflen.1+0x8448>
    80004328:	968a                	add	a3,a3,sp
    8000432a:	0116b023          	sd	a7,0(a3)
    8000432e:	66a1                	lui	a3,0x8
    80004330:	4906869b          	addiw	a3,a3,1168 # 8490 <buflen.1+0x8450>
    80004334:	968a                	add	a3,a3,sp
    80004336:	0056b023          	sd	t0,0(a3)
    8000433a:	66a1                	lui	a3,0x8
    8000433c:	4986869b          	addiw	a3,a3,1176 # 8498 <buflen.1+0x8458>
    80004340:	968a                	add	a3,a3,sp
    80004342:	e298                	sd	a4,0(a3)
    80004344:	66a1                	lui	a3,0x8
    80004346:	4a06869b          	addiw	a3,a3,1184 # 84a0 <buflen.1+0x8460>
    8000434a:	968a                	add	a3,a3,sp
    8000434c:	e290                	sd	a2,0(a3)
    8000434e:	6621                	lui	a2,0x8
    80004350:	4a86061b          	addiw	a2,a2,1192 # 84a8 <buflen.1+0x8468>
    80004354:	960a                	add	a2,a2,sp
    80004356:	e21c                	sd	a5,0(a2)
    80004358:	f2000553          	fmv.d.x	fa0,zero
    8000435c:	6621                	lui	a2,0x8
    8000435e:	4b06061b          	addiw	a2,a2,1200 # 84b0 <buflen.1+0x8470>
    80004362:	960a                	add	a2,a2,sp
    80004364:	e20c                	sd	a1,0(a2)
    80004366:	00aa85b3          	add	a1,s5,a0
    8000436a:	0005b007          	fld	ft0,0(a1)
    8000436e:	52007043          	fmadd.d	ft0,ft0,ft0,fa0
    80004372:	0085b087          	fld	ft1,8(a1)
    80004376:	0210f043          	fmadd.d	ft0,ft1,ft1,ft0
    8000437a:	0105b087          	fld	ft1,16(a1)
    8000437e:	0210f043          	fmadd.d	ft0,ft1,ft1,ft0
    80004382:	0185b087          	fld	ft1,24(a1)
    80004386:	0210f543          	fmadd.d	fa0,ft1,ft1,ft0
    8000438a:	02050513          	addi	a0,a0,32
    8000438e:	fc951ce3          	bne	a0,s1,80004366 <svd_core+0x21aa>
    80004392:	5a057053          	fsqrt.d	ft0,fa0
    80004396:	a2002553          	feq.d	a0,ft0,ft0
    8000439a:	e119                	bnez	a0,800043a0 <svd_core+0x21e4>
    8000439c:	2070b06f          	j	8000fda2 <svd_core+0xdbe6>
    800043a0:	0209f9d3          	fadd.d	fs3,fs3,ft0
    800043a4:	0b29f053          	fsub.d	ft0,fs3,fs2
    800043a8:	a3401553          	flt.d	a0,ft0,fs4
    800043ac:	c119                	beqz	a0,800043b2 <svd_core+0x21f6>
    800043ae:	22001053          	fneg.d	ft0,ft0
    800043b2:	a2901553          	flt.d	a0,ft0,fs1
    800043b6:	23290a53          	fmv.d	fs4,fs2
    800043ba:	c119                	beqz	a0,800043c0 <svd_core+0x2204>
    800043bc:	31b0b06f          	j	8000fed6 <svd_core+0xdd1a>
    800043c0:	4801                	li	a6,0
    800043c2:	4881                	li	a7,0
    800043c4:	a821                	j	800043dc <svd_core+0x2220>
    800043c6:	1b307053          	fdiv.d	ft0,ft0,fs3
    800043ca:	00389513          	slli	a0,a7,0x3
    800043ce:	9566                	add	a0,a0,s9
    800043d0:	00053027          	fsd	ft0,0(a0)
    800043d4:	0885                	addi	a7,a7,1
    800043d6:	984e                	add	a6,a6,s3
    800043d8:	21788c63          	beq	a7,s7,800045f0 <svd_core+0x2434>
    800043dc:	1ba9c063          	blt	s3,s10,8000457c <svd_core+0x23c0>
    800043e0:	4601                	li	a2,0
    800043e2:	033882b3          	mul	t0,a7,s3
    800043e6:	f20000d3          	fmv.d.x	ft1,zero
    800043ea:	471d                	li	a4,7
    800043ec:	22108053          	fmv.d	ft0,ft1
    800043f0:	005607b3          	add	a5,a2,t0
    800043f4:	078e                	slli	a5,a5,0x3
    800043f6:	97da                	add	a5,a5,s6
    800043f8:	0007bd03          	ld	s10,0(a5)
    800043fc:	0087bc03          	ld	s8,8(a5)
    80004400:	0107be03          	ld	t3,16(a5)
    80004404:	0187be83          	ld	t4,24(a5)
    80004408:	0207bf03          	ld	t5,32(a5)
    8000440c:	0287b303          	ld	t1,40(a5)
    80004410:	0307b383          	ld	t2,48(a5)
    80004414:	0387bf83          	ld	t6,56(a5)
    80004418:	00361513          	slli	a0,a2,0x3
    8000441c:	00aa05b3          	add	a1,s4,a0
    80004420:	0005bd83          	ld	s11,0(a1)
    80004424:	00856693          	ori	a3,a0,8
    80004428:	96d2                	add	a3,a3,s4
    8000442a:	0006b083          	ld	ra,0(a3)
    8000442e:	01056793          	ori	a5,a0,16
    80004432:	97d2                	add	a5,a5,s4
    80004434:	639c                	ld	a5,0(a5)
    80004436:	01856413          	ori	s0,a0,24
    8000443a:	9452                	add	s0,s0,s4
    8000443c:	6000                	ld	s0,0(s0)
    8000443e:	02056493          	ori	s1,a0,32
    80004442:	94d2                	add	s1,s1,s4
    80004444:	6084                	ld	s1,0(s1)
    80004446:	02856593          	ori	a1,a0,40
    8000444a:	95d2                	add	a1,a1,s4
    8000444c:	618c                	ld	a1,0(a1)
    8000444e:	03056513          	ori	a0,a0,48
    80004452:	9552                	add	a0,a0,s4
    80004454:	6108                	ld	a0,0(a0)
    80004456:	00371693          	slli	a3,a4,0x3
    8000445a:	96d2                	add	a3,a3,s4
    8000445c:	6294                	ld	a3,0(a3)
    8000445e:	e042                	sd	a6,0(sp)
    80004460:	6821                	lui	a6,0x8
    80004462:	4788081b          	addiw	a6,a6,1144 # 8478 <buflen.1+0x8438>
    80004466:	980a                	add	a6,a6,sp
    80004468:	01a83023          	sd	s10,0(a6)
    8000446c:	6802                	ld	a6,0(sp)
    8000446e:	6d21                	lui	s10,0x8
    80004470:	480d0d1b          	addiw	s10,s10,1152 # 8480 <buflen.1+0x8440>
    80004474:	9d0a                	add	s10,s10,sp
    80004476:	018d3023          	sd	s8,0(s10)
    8000447a:	6c21                	lui	s8,0x8
    8000447c:	488c0c1b          	addiw	s8,s8,1160 # 8488 <buflen.1+0x8448>
    80004480:	9c0a                	add	s8,s8,sp
    80004482:	01cc3023          	sd	t3,0(s8)
    80004486:	6e21                	lui	t3,0x8
    80004488:	490e0e1b          	addiw	t3,t3,1168 # 8490 <buflen.1+0x8450>
    8000448c:	9e0a                	add	t3,t3,sp
    8000448e:	01de3023          	sd	t4,0(t3)
    80004492:	6e21                	lui	t3,0x8
    80004494:	498e0e1b          	addiw	t3,t3,1176 # 8498 <buflen.1+0x8458>
    80004498:	9e0a                	add	t3,t3,sp
    8000449a:	01ee3023          	sd	t5,0(t3)
    8000449e:	6e21                	lui	t3,0x8
    800044a0:	4a0e0e1b          	addiw	t3,t3,1184 # 84a0 <buflen.1+0x8460>
    800044a4:	9e0a                	add	t3,t3,sp
    800044a6:	006e3023          	sd	t1,0(t3)
    800044aa:	6321                	lui	t1,0x8
    800044ac:	4a83031b          	addiw	t1,t1,1192 # 84a8 <buflen.1+0x8468>
    800044b0:	930a                	add	t1,t1,sp
    800044b2:	00733023          	sd	t2,0(t1)
    800044b6:	6321                	lui	t1,0x8
    800044b8:	4b03031b          	addiw	t1,t1,1200 # 84b0 <buflen.1+0x8470>
    800044bc:	930a                	add	t1,t1,sp
    800044be:	01f33023          	sd	t6,0(t1)
    800044c2:	6321                	lui	t1,0x8
    800044c4:	4b83031b          	addiw	t1,t1,1208 # 84b8 <buflen.1+0x8478>
    800044c8:	930a                	add	t1,t1,sp
    800044ca:	01b33023          	sd	s11,0(t1)
    800044ce:	6321                	lui	t1,0x8
    800044d0:	4c03031b          	addiw	t1,t1,1216 # 84c0 <buflen.1+0x8480>
    800044d4:	930a                	add	t1,t1,sp
    800044d6:	00133023          	sd	ra,0(t1)
    800044da:	6321                	lui	t1,0x8
    800044dc:	4c83031b          	addiw	t1,t1,1224 # 84c8 <buflen.1+0x8488>
    800044e0:	930a                	add	t1,t1,sp
    800044e2:	00f33023          	sd	a5,0(t1)
    800044e6:	67a1                	lui	a5,0x8
    800044e8:	4d07879b          	addiw	a5,a5,1232 # 84d0 <buflen.1+0x8490>
    800044ec:	978a                	add	a5,a5,sp
    800044ee:	e380                	sd	s0,0(a5)
    800044f0:	67a1                	lui	a5,0x8
    800044f2:	4d87879b          	addiw	a5,a5,1240 # 84d8 <buflen.1+0x8498>
    800044f6:	978a                	add	a5,a5,sp
    800044f8:	e384                	sd	s1,0(a5)
    800044fa:	67a1                	lui	a5,0x8
    800044fc:	4e07879b          	addiw	a5,a5,1248 # 84e0 <buflen.1+0x84a0>
    80004500:	978a                	add	a5,a5,sp
    80004502:	e38c                	sd	a1,0(a5)
    80004504:	65a1                	lui	a1,0x8
    80004506:	4e85859b          	addiw	a1,a1,1256 # 84e8 <buflen.1+0x84a8>
    8000450a:	958a                	add	a1,a1,sp
    8000450c:	e188                	sd	a0,0(a1)
    8000450e:	6521                	lui	a0,0x8
    80004510:	4f05051b          	addiw	a0,a0,1264 # 84f0 <buflen.1+0x84b0>
    80004514:	950a                	add	a0,a0,sp
    80004516:	e114                	sd	a3,0(a0)
    80004518:	47c1                	li	a5,16
    8000451a:	22108153          	fmv.d	ft2,ft1
    8000451e:	00fa8533          	add	a0,s5,a5
    80004522:	ff053187          	fld	ft3,-16(a0)
    80004526:	03053207          	fld	ft4,48(a0)
    8000452a:	1241f143          	fmadd.d	ft2,ft3,ft4,ft2
    8000452e:	ff853187          	fld	ft3,-8(a0)
    80004532:	03853207          	fld	ft4,56(a0)
    80004536:	1241f143          	fmadd.d	ft2,ft3,ft4,ft2
    8000453a:	00053187          	fld	ft3,0(a0)
    8000453e:	04053207          	fld	ft4,64(a0)
    80004542:	1241f143          	fmadd.d	ft2,ft3,ft4,ft2
    80004546:	00853187          	fld	ft3,8(a0)
    8000454a:	04853207          	fld	ft4,72(a0)
    8000454e:	1241f143          	fmadd.d	ft2,ft3,ft4,ft2
    80004552:	02078793          	addi	a5,a5,32
    80004556:	fd2794e3          	bne	a5,s2,8000451e <svd_core+0x2362>
    8000455a:	02207053          	fadd.d	ft0,ft0,ft2
    8000455e:	0621                	addi	a2,a2,8
    80004560:	00766513          	ori	a0,a2,7
    80004564:	0721                	addi	a4,a4,8
    80004566:	e93545e3          	blt	a0,s3,800043f0 <svd_core+0x2234>
    8000456a:	4d21                	li	s10,8
    8000456c:	4405                	li	s0,1
    8000456e:	4389                	li	t2,2
    80004570:	4c0d                	li	s8,3
    80004572:	0006051b          	sext.w	a0,a2
    80004576:	e53558e3          	bge	a0,s3,800043c6 <svd_core+0x220a>
    8000457a:	a801                	j	8000458a <svd_core+0x23ce>
    8000457c:	f2000053          	fmv.d.x	ft0,zero
    80004580:	4601                	li	a2,0
    80004582:	0006051b          	sext.w	a0,a2
    80004586:	e53550e3          	bge	a0,s3,800043c6 <svd_core+0x220a>
    8000458a:	02061513          	slli	a0,a2,0x20
    8000458e:	02055593          	srli	a1,a0,0x20
    80004592:	7626                	ld	a2,104(sp)
    80004594:	8e0d                	sub	a2,a2,a1
    80004596:	95c2                	add	a1,a1,a6
    80004598:	058e                	slli	a1,a1,0x3
    8000459a:	00bb06b3          	add	a3,s6,a1
    8000459e:	8175                	srli	a0,a0,0x1d
    800045a0:	012c                	addi	a1,sp,136
    800045a2:	00a58733          	add	a4,a1,a0
    800045a6:	0006b087          	fld	ft1,0(a3)
    800045aa:	ff073107          	fld	ft2,-16(a4)
    800045ae:	0220f043          	fmadd.d	ft0,ft1,ft2,ft0
    800045b2:	e0860ae3          	beq	a2,s0,800043c6 <svd_core+0x220a>
    800045b6:	0086b087          	fld	ft1,8(a3)
    800045ba:	ff873107          	fld	ft2,-8(a4)
    800045be:	0220f043          	fmadd.d	ft0,ft1,ft2,ft0
    800045c2:	e07602e3          	beq	a2,t2,800043c6 <svd_core+0x220a>
    800045c6:	0106b087          	fld	ft1,16(a3)
    800045ca:	00073107          	fld	ft2,0(a4)
    800045ce:	0220f043          	fmadd.d	ft0,ft1,ft2,ft0
    800045d2:	df860ae3          	beq	a2,s8,800043c6 <svd_core+0x220a>
    800045d6:	0186b087          	fld	ft1,24(a3)
    800045da:	00873107          	fld	ft2,8(a4)
    800045de:	0220f043          	fmadd.d	ft0,ft1,ft2,ft0
    800045e2:	1671                	addi	a2,a2,-4
    800045e4:	02068693          	addi	a3,a3,32
    800045e8:	02070713          	addi	a4,a4,32
    800045ec:	fe4d                	bnez	a2,800045a6 <svd_core+0x23ea>
    800045ee:	bbe1                	j	800043c6 <svd_core+0x220a>
    800045f0:	18a8                	addi	a0,sp,120
    800045f2:	20000613          	li	a2,512
    800045f6:	4581                	li	a1,0
    800045f8:	7e50b0ef          	jal	800105dc <memset>
    800045fc:	4389                	li	t2,2
    800045fe:	f2000a53          	fmv.d.x	fs4,zero
    80004602:	234a0953          	fmv.d	fs2,fs4
    80004606:	04000493          	li	s1,64
    8000460a:	5f305463          	blez	s3,80004bf2 <svd_core+0x2a36>
    8000460e:	4801                	li	a6,0
    80004610:	4881                	li	a7,0
    80004612:	a819                	j	80004628 <svd_core+0x246c>
    80004614:	00389513          	slli	a0,a7,0x3
    80004618:	9552                	add	a0,a0,s4
    8000461a:	00053027          	fsd	ft0,0(a0)
    8000461e:	0885                	addi	a7,a7,1
    80004620:	985e                	add	a6,a6,s7
    80004622:	7526                	ld	a0,104(sp)
    80004624:	20a88f63          	beq	a7,a0,80004842 <svd_core+0x2686>
    80004628:	1babe363          	bltu	s7,s10,800047ce <svd_core+0x2612>
    8000462c:	4601                	li	a2,0
    8000462e:	037882b3          	mul	t0,a7,s7
    80004632:	f20000d3          	fmv.d.x	ft1,zero
    80004636:	471d                	li	a4,7
    80004638:	22108053          	fmv.d	ft0,ft1
    8000463c:	005607b3          	add	a5,a2,t0
    80004640:	078e                	slli	a5,a5,0x3
    80004642:	7546                	ld	a0,112(sp)
    80004644:	97aa                	add	a5,a5,a0
    80004646:	0007bd03          	ld	s10,0(a5)
    8000464a:	0087bc03          	ld	s8,8(a5)
    8000464e:	0107be03          	ld	t3,16(a5)
    80004652:	0187be83          	ld	t4,24(a5)
    80004656:	0207bf03          	ld	t5,32(a5)
    8000465a:	0287b303          	ld	t1,40(a5)
    8000465e:	0307b383          	ld	t2,48(a5)
    80004662:	0387bf83          	ld	t6,56(a5)
    80004666:	00361513          	slli	a0,a2,0x3
    8000466a:	00ac85b3          	add	a1,s9,a0
    8000466e:	0005bd83          	ld	s11,0(a1)
    80004672:	00856693          	ori	a3,a0,8
    80004676:	96e6                	add	a3,a3,s9
    80004678:	0006b083          	ld	ra,0(a3)
    8000467c:	01056793          	ori	a5,a0,16
    80004680:	97e6                	add	a5,a5,s9
    80004682:	639c                	ld	a5,0(a5)
    80004684:	01856413          	ori	s0,a0,24
    80004688:	9466                	add	s0,s0,s9
    8000468a:	6000                	ld	s0,0(s0)
    8000468c:	02056493          	ori	s1,a0,32
    80004690:	94e6                	add	s1,s1,s9
    80004692:	6084                	ld	s1,0(s1)
    80004694:	02856593          	ori	a1,a0,40
    80004698:	95e6                	add	a1,a1,s9
    8000469a:	618c                	ld	a1,0(a1)
    8000469c:	03056513          	ori	a0,a0,48
    800046a0:	9566                	add	a0,a0,s9
    800046a2:	6108                	ld	a0,0(a0)
    800046a4:	00371693          	slli	a3,a4,0x3
    800046a8:	96e6                	add	a3,a3,s9
    800046aa:	6294                	ld	a3,0(a3)
    800046ac:	e042                	sd	a6,0(sp)
    800046ae:	6821                	lui	a6,0x8
    800046b0:	4788081b          	addiw	a6,a6,1144 # 8478 <buflen.1+0x8438>
    800046b4:	980a                	add	a6,a6,sp
    800046b6:	01a83023          	sd	s10,0(a6)
    800046ba:	6802                	ld	a6,0(sp)
    800046bc:	6d21                	lui	s10,0x8
    800046be:	480d0d1b          	addiw	s10,s10,1152 # 8480 <buflen.1+0x8440>
    800046c2:	9d0a                	add	s10,s10,sp
    800046c4:	018d3023          	sd	s8,0(s10)
    800046c8:	6c21                	lui	s8,0x8
    800046ca:	488c0c1b          	addiw	s8,s8,1160 # 8488 <buflen.1+0x8448>
    800046ce:	9c0a                	add	s8,s8,sp
    800046d0:	01cc3023          	sd	t3,0(s8)
    800046d4:	6e21                	lui	t3,0x8
    800046d6:	490e0e1b          	addiw	t3,t3,1168 # 8490 <buflen.1+0x8450>
    800046da:	9e0a                	add	t3,t3,sp
    800046dc:	01de3023          	sd	t4,0(t3)
    800046e0:	6e21                	lui	t3,0x8
    800046e2:	498e0e1b          	addiw	t3,t3,1176 # 8498 <buflen.1+0x8458>
    800046e6:	9e0a                	add	t3,t3,sp
    800046e8:	01ee3023          	sd	t5,0(t3)
    800046ec:	6e21                	lui	t3,0x8
    800046ee:	4a0e0e1b          	addiw	t3,t3,1184 # 84a0 <buflen.1+0x8460>
    800046f2:	9e0a                	add	t3,t3,sp
    800046f4:	006e3023          	sd	t1,0(t3)
    800046f8:	6321                	lui	t1,0x8
    800046fa:	4a83031b          	addiw	t1,t1,1192 # 84a8 <buflen.1+0x8468>
    800046fe:	930a                	add	t1,t1,sp
    80004700:	00733023          	sd	t2,0(t1)
    80004704:	6321                	lui	t1,0x8
    80004706:	4b03031b          	addiw	t1,t1,1200 # 84b0 <buflen.1+0x8470>
    8000470a:	930a                	add	t1,t1,sp
    8000470c:	01f33023          	sd	t6,0(t1)
    80004710:	6321                	lui	t1,0x8
    80004712:	4b83031b          	addiw	t1,t1,1208 # 84b8 <buflen.1+0x8478>
    80004716:	930a                	add	t1,t1,sp
    80004718:	01b33023          	sd	s11,0(t1)
    8000471c:	6321                	lui	t1,0x8
    8000471e:	4c03031b          	addiw	t1,t1,1216 # 84c0 <buflen.1+0x8480>
    80004722:	930a                	add	t1,t1,sp
    80004724:	00133023          	sd	ra,0(t1)
    80004728:	6321                	lui	t1,0x8
    8000472a:	4c83031b          	addiw	t1,t1,1224 # 84c8 <buflen.1+0x8488>
    8000472e:	930a                	add	t1,t1,sp
    80004730:	00f33023          	sd	a5,0(t1)
    80004734:	67a1                	lui	a5,0x8
    80004736:	4d07879b          	addiw	a5,a5,1232 # 84d0 <buflen.1+0x8490>
    8000473a:	978a                	add	a5,a5,sp
    8000473c:	e380                	sd	s0,0(a5)
    8000473e:	67a1                	lui	a5,0x8
    80004740:	4d87879b          	addiw	a5,a5,1240 # 84d8 <buflen.1+0x8498>
    80004744:	978a                	add	a5,a5,sp
    80004746:	e384                	sd	s1,0(a5)
    80004748:	67a1                	lui	a5,0x8
    8000474a:	4e07879b          	addiw	a5,a5,1248 # 84e0 <buflen.1+0x84a0>
    8000474e:	978a                	add	a5,a5,sp
    80004750:	e38c                	sd	a1,0(a5)
    80004752:	65a1                	lui	a1,0x8
    80004754:	4e85859b          	addiw	a1,a1,1256 # 84e8 <buflen.1+0x84a8>
    80004758:	958a                	add	a1,a1,sp
    8000475a:	e188                	sd	a0,0(a1)
    8000475c:	6521                	lui	a0,0x8
    8000475e:	4f05051b          	addiw	a0,a0,1264 # 84f0 <buflen.1+0x84b0>
    80004762:	950a                	add	a0,a0,sp
    80004764:	e114                	sd	a3,0(a0)
    80004766:	47c1                	li	a5,16
    80004768:	22108153          	fmv.d	ft2,ft1
    8000476c:	00fa8533          	add	a0,s5,a5
    80004770:	ff053187          	fld	ft3,-16(a0)
    80004774:	03053207          	fld	ft4,48(a0)
    80004778:	1241f143          	fmadd.d	ft2,ft3,ft4,ft2
    8000477c:	ff853187          	fld	ft3,-8(a0)
    80004780:	03853207          	fld	ft4,56(a0)
    80004784:	1241f143          	fmadd.d	ft2,ft3,ft4,ft2
    80004788:	00053187          	fld	ft3,0(a0)
    8000478c:	04053207          	fld	ft4,64(a0)
    80004790:	1241f143          	fmadd.d	ft2,ft3,ft4,ft2
    80004794:	00853187          	fld	ft3,8(a0)
    80004798:	04853207          	fld	ft4,72(a0)
    8000479c:	1241f143          	fmadd.d	ft2,ft3,ft4,ft2
    800047a0:	02078793          	addi	a5,a5,32
    800047a4:	fd2794e3          	bne	a5,s2,8000476c <svd_core+0x25b0>
    800047a8:	02207053          	fadd.d	ft0,ft0,ft2
    800047ac:	0621                	addi	a2,a2,8
    800047ae:	00766513          	ori	a0,a2,7
    800047b2:	0721                	addi	a4,a4,8
    800047b4:	e97564e3          	bltu	a0,s7,8000463c <svd_core+0x2480>
    800047b8:	4d21                	li	s10,8
    800047ba:	4405                	li	s0,1
    800047bc:	4389                	li	t2,2
    800047be:	4c0d                	li	s8,3
    800047c0:	04000493          	li	s1,64
    800047c4:	0006051b          	sext.w	a0,a2
    800047c8:	e57556e3          	bge	a0,s7,80004614 <svd_core+0x2458>
    800047cc:	a801                	j	800047dc <svd_core+0x2620>
    800047ce:	f2000053          	fmv.d.x	ft0,zero
    800047d2:	4601                	li	a2,0
    800047d4:	0006051b          	sext.w	a0,a2
    800047d8:	e3755ee3          	bge	a0,s7,80004614 <svd_core+0x2458>
    800047dc:	02061513          	slli	a0,a2,0x20
    800047e0:	02055593          	srli	a1,a0,0x20
    800047e4:	40bb8633          	sub	a2,s7,a1
    800047e8:	95c2                	add	a1,a1,a6
    800047ea:	058e                	slli	a1,a1,0x3
    800047ec:	76c6                	ld	a3,112(sp)
    800047ee:	96ae                	add	a3,a3,a1
    800047f0:	8175                	srli	a0,a0,0x1d
    800047f2:	052c                	addi	a1,sp,648
    800047f4:	00a58733          	add	a4,a1,a0
    800047f8:	0006b087          	fld	ft1,0(a3)
    800047fc:	ff073107          	fld	ft2,-16(a4)
    80004800:	0220f043          	fmadd.d	ft0,ft1,ft2,ft0
    80004804:	e08608e3          	beq	a2,s0,80004614 <svd_core+0x2458>
    80004808:	0086b087          	fld	ft1,8(a3)
    8000480c:	ff873107          	fld	ft2,-8(a4)
    80004810:	0220f043          	fmadd.d	ft0,ft1,ft2,ft0
    80004814:	e07600e3          	beq	a2,t2,80004614 <svd_core+0x2458>
    80004818:	0106b087          	fld	ft1,16(a3)
    8000481c:	00073107          	fld	ft2,0(a4)
    80004820:	0220f043          	fmadd.d	ft0,ft1,ft2,ft0
    80004824:	df8608e3          	beq	a2,s8,80004614 <svd_core+0x2458>
    80004828:	0186b087          	fld	ft1,24(a3)
    8000482c:	00873107          	fld	ft2,8(a4)
    80004830:	0220f043          	fmadd.d	ft0,ft1,ft2,ft0
    80004834:	1671                	addi	a2,a2,-4
    80004836:	02068693          	addi	a3,a3,32
    8000483a:	02070713          	addi	a4,a4,32
    8000483e:	fe4d                	bnez	a2,800047f8 <svd_core+0x263c>
    80004840:	bbd1                	j	80004614 <svd_core+0x2458>
    80004842:	05305c63          	blez	s3,8000489a <svd_core+0x26de>
    80004846:	6566                	ld	a0,88(sp)
    80004848:	05a57c63          	bgeu	a0,s10,800048a0 <svd_core+0x26e4>
    8000484c:	f2000953          	fmv.d.x	fs2,zero
    80004850:	4d81                	li	s11,0
    80004852:	6546                	ld	a0,80(sp)
    80004854:	4405                	li	s0,1
    80004856:	4c0d                	li	s8,3
    80004858:	4d21                	li	s10,8
    8000485a:	38050c63          	beqz	a0,80004bf2 <svd_core+0x2a36>
    8000485e:	41b9863b          	subw	a2,s3,s11
    80004862:	4521                	li	a0,8
    80004864:	85b2                	mv	a1,a2
    80004866:	00a64363          	blt	a2,a0,8000486c <svd_core+0x26b0>
    8000486a:	45a1                	li	a1,8
    8000486c:	003d9513          	slli	a0,s11,0x3
    80004870:	2cc05863          	blez	a2,80004b40 <svd_core+0x2984>
    80004874:	00856613          	ori	a2,a0,8
    80004878:	9652                	add	a2,a2,s4
    8000487a:	00063803          	ld	a6,0(a2)
    8000487e:	2c75c463          	blt	a1,t2,80004b46 <svd_core+0x298a>
    80004882:	01056613          	ori	a2,a0,16
    80004886:	9652                	add	a2,a2,s4
    80004888:	00063883          	ld	a7,0(a2)
    8000488c:	00758463          	beq	a1,t2,80004894 <svd_core+0x26d8>
    80004890:	7510606f          	j	8000b7e0 <svd_core+0x9624>
    80004894:	4781                	li	a5,0
    80004896:	4701                	li	a4,0
    80004898:	ac55                	j	80004b4c <svd_core+0x2990>
    8000489a:	f2000953          	fmv.d.x	fs2,zero
    8000489e:	ae91                	j	80004bf2 <svd_core+0x2a36>
    800048a0:	4d81                	li	s11,0
    800048a2:	f2000953          	fmv.d.x	fs2,zero
    800048a6:	4d01                	li	s10,0
    800048a8:	4415                	li	s0,5
    800048aa:	41b9853b          	subw	a0,s3,s11
    800048ae:	45a1                	li	a1,8
    800048b0:	87aa                	mv	a5,a0
    800048b2:	00b54363          	blt	a0,a1,800048b8 <svd_core+0x26fc>
    800048b6:	47a1                	li	a5,8
    800048b8:	003d9c13          	slli	s8,s11,0x3
    800048bc:	02a05363          	blez	a0,800048e2 <svd_core+0x2726>
    800048c0:	008c6513          	ori	a0,s8,8
    800048c4:	9552                	add	a0,a0,s4
    800048c6:	00053803          	ld	a6,0(a0)
    800048ca:	0077cf63          	blt	a5,t2,800048e8 <svd_core+0x272c>
    800048ce:	010c6513          	ori	a0,s8,16
    800048d2:	9552                	add	a0,a0,s4
    800048d4:	00053883          	ld	a7,0(a0)
    800048d8:	1a779a63          	bne	a5,t2,80004a8c <svd_core+0x28d0>
    800048dc:	4701                	li	a4,0
    800048de:	4681                	li	a3,0
    800048e0:	a039                	j	800048ee <svd_core+0x2732>
    800048e2:	4801                	li	a6,0
    800048e4:	fe77d5e3          	bge	a5,t2,800048ce <svd_core+0x2712>
    800048e8:	4701                	li	a4,0
    800048ea:	4681                	li	a3,0
    800048ec:	4881                	li	a7,0
    800048ee:	4601                	li	a2,0
    800048f0:	4501                	li	a0,0
    800048f2:	4781                	li	a5,0
    800048f4:	018a05b3          	add	a1,s4,s8
    800048f8:	6180                	ld	s0,0(a1)
    800048fa:	4581                	li	a1,0
    800048fc:	62a1                	lui	t0,0x8
    800048fe:	4782829b          	addiw	t0,t0,1144 # 8478 <buflen.1+0x8438>
    80004902:	928a                	add	t0,t0,sp
    80004904:	0082b023          	sd	s0,0(t0)
    80004908:	62a1                	lui	t0,0x8
    8000490a:	4802829b          	addiw	t0,t0,1152 # 8480 <buflen.1+0x8440>
    8000490e:	928a                	add	t0,t0,sp
    80004910:	0102b023          	sd	a6,0(t0)
    80004914:	6821                	lui	a6,0x8
    80004916:	4888081b          	addiw	a6,a6,1160 # 8488 <buflen.1+0x8448>
    8000491a:	980a                	add	a6,a6,sp
    8000491c:	01183023          	sd	a7,0(a6)
    80004920:	6821                	lui	a6,0x8
    80004922:	4908081b          	addiw	a6,a6,1168 # 8490 <buflen.1+0x8450>
    80004926:	980a                	add	a6,a6,sp
    80004928:	00c83023          	sd	a2,0(a6)
    8000492c:	6621                	lui	a2,0x8
    8000492e:	4986061b          	addiw	a2,a2,1176 # 8498 <buflen.1+0x8458>
    80004932:	960a                	add	a2,a2,sp
    80004934:	e214                	sd	a3,0(a2)
    80004936:	6621                	lui	a2,0x8
    80004938:	4a06061b          	addiw	a2,a2,1184 # 84a0 <buflen.1+0x8460>
    8000493c:	960a                	add	a2,a2,sp
    8000493e:	e208                	sd	a0,0(a2)
    80004940:	6521                	lui	a0,0x8
    80004942:	4a85051b          	addiw	a0,a0,1192 # 84a8 <buflen.1+0x8468>
    80004946:	950a                	add	a0,a0,sp
    80004948:	e118                	sd	a4,0(a0)
    8000494a:	f2000053          	fmv.d.x	ft0,zero
    8000494e:	6521                	lui	a0,0x8
    80004950:	4b05051b          	addiw	a0,a0,1200 # 84b0 <buflen.1+0x8470>
    80004954:	950a                	add	a0,a0,sp
    80004956:	e11c                	sd	a5,0(a0)
    80004958:	00ba8533          	add	a0,s5,a1
    8000495c:	00053087          	fld	ft1,0(a0)
    80004960:	0210f043          	fmadd.d	ft0,ft1,ft1,ft0
    80004964:	00853087          	fld	ft1,8(a0)
    80004968:	0210f043          	fmadd.d	ft0,ft1,ft1,ft0
    8000496c:	01053087          	fld	ft1,16(a0)
    80004970:	0210f043          	fmadd.d	ft0,ft1,ft1,ft0
    80004974:	01853087          	fld	ft1,24(a0)
    80004978:	0210f043          	fmadd.d	ft0,ft1,ft1,ft0
    8000497c:	02058593          	addi	a1,a1,32
    80004980:	fc959ce3          	bne	a1,s1,80004958 <svd_core+0x279c>
    80004984:	5a007553          	fsqrt.d	fa0,ft0
    80004988:	a2a52553          	feq.d	a0,fa0,fa0
    8000498c:	18050a63          	beqz	a0,80004b20 <svd_core+0x2964>
    80004990:	008de613          	ori	a2,s11,8
    80004994:	40c985bb          	subw	a1,s3,a2
    80004998:	46a1                	li	a3,8
    8000499a:	852e                	mv	a0,a1
    8000499c:	4415                	li	s0,5
    8000499e:	00d5c363          	blt	a1,a3,800049a4 <svd_core+0x27e8>
    800049a2:	4521                	li	a0,8
    800049a4:	060e                	slli	a2,a2,0x3
    800049a6:	9652                	add	a2,a2,s4
    800049a8:	00063803          	ld	a6,0(a2)
    800049ac:	02b05363          	blez	a1,800049d2 <svd_core+0x2816>
    800049b0:	048c6593          	ori	a1,s8,72
    800049b4:	95d2                	add	a1,a1,s4
    800049b6:	0005b883          	ld	a7,0(a1)
    800049ba:	00754f63          	blt	a0,t2,800049d8 <svd_core+0x281c>
    800049be:	050c6593          	ori	a1,s8,80
    800049c2:	95d2                	add	a1,a1,s4
    800049c4:	0005b283          	ld	t0,0(a1)
    800049c8:	0e751063          	bne	a0,t2,80004aa8 <svd_core+0x28ec>
    800049cc:	4781                	li	a5,0
    800049ce:	4701                	li	a4,0
    800049d0:	a039                	j	800049de <svd_core+0x2822>
    800049d2:	4881                	li	a7,0
    800049d4:	fe7555e3          	bge	a0,t2,800049be <svd_core+0x2802>
    800049d8:	4781                	li	a5,0
    800049da:	4701                	li	a4,0
    800049dc:	4281                	li	t0,0
    800049de:	4681                	li	a3,0
    800049e0:	4581                	li	a1,0
    800049e2:	4601                	li	a2,0
    800049e4:	4501                	li	a0,0
    800049e6:	6321                	lui	t1,0x8
    800049e8:	4783031b          	addiw	t1,t1,1144 # 8478 <buflen.1+0x8438>
    800049ec:	930a                	add	t1,t1,sp
    800049ee:	01033023          	sd	a6,0(t1)
    800049f2:	02a97953          	fadd.d	fs2,fs2,fa0
    800049f6:	6821                	lui	a6,0x8
    800049f8:	4808081b          	addiw	a6,a6,1152 # 8480 <buflen.1+0x8440>
    800049fc:	980a                	add	a6,a6,sp
    800049fe:	01183023          	sd	a7,0(a6)
    80004a02:	6821                	lui	a6,0x8
    80004a04:	4888081b          	addiw	a6,a6,1160 # 8488 <buflen.1+0x8448>
    80004a08:	980a                	add	a6,a6,sp
    80004a0a:	00583023          	sd	t0,0(a6)
    80004a0e:	6821                	lui	a6,0x8
    80004a10:	4908081b          	addiw	a6,a6,1168 # 8490 <buflen.1+0x8450>
    80004a14:	980a                	add	a6,a6,sp
    80004a16:	00d83023          	sd	a3,0(a6)
    80004a1a:	66a1                	lui	a3,0x8
    80004a1c:	4986869b          	addiw	a3,a3,1176 # 8498 <buflen.1+0x8458>
    80004a20:	968a                	add	a3,a3,sp
    80004a22:	e298                	sd	a4,0(a3)
    80004a24:	66a1                	lui	a3,0x8
    80004a26:	4a06869b          	addiw	a3,a3,1184 # 84a0 <buflen.1+0x8460>
    80004a2a:	968a                	add	a3,a3,sp
    80004a2c:	e28c                	sd	a1,0(a3)
    80004a2e:	65a1                	lui	a1,0x8
    80004a30:	4a85859b          	addiw	a1,a1,1192 # 84a8 <buflen.1+0x8468>
    80004a34:	958a                	add	a1,a1,sp
    80004a36:	e19c                	sd	a5,0(a1)
    80004a38:	f2000553          	fmv.d.x	fa0,zero
    80004a3c:	65a1                	lui	a1,0x8
    80004a3e:	4b05859b          	addiw	a1,a1,1200 # 84b0 <buflen.1+0x8470>
    80004a42:	958a                	add	a1,a1,sp
    80004a44:	e190                	sd	a2,0(a1)
    80004a46:	00aa85b3          	add	a1,s5,a0
    80004a4a:	0005b007          	fld	ft0,0(a1)
    80004a4e:	52007043          	fmadd.d	ft0,ft0,ft0,fa0
    80004a52:	0085b087          	fld	ft1,8(a1)
    80004a56:	0210f043          	fmadd.d	ft0,ft1,ft1,ft0
    80004a5a:	0105b087          	fld	ft1,16(a1)
    80004a5e:	0210f043          	fmadd.d	ft0,ft1,ft1,ft0
    80004a62:	0185b087          	fld	ft1,24(a1)
    80004a66:	0210f543          	fmadd.d	fa0,ft1,ft1,ft0
    80004a6a:	02050513          	addi	a0,a0,32
    80004a6e:	fc951ce3          	bne	a0,s1,80004a46 <svd_core+0x288a>
    80004a72:	5a057053          	fsqrt.d	ft0,fa0
    80004a76:	a2002553          	feq.d	a0,ft0,ft0
    80004a7a:	c95d                	beqz	a0,80004b30 <svd_core+0x2974>
    80004a7c:	02097953          	fadd.d	fs2,fs2,ft0
    80004a80:	2d09                	addiw	s10,s10,2
    80004a82:	0dc1                	addi	s11,s11,16
    80004a84:	7506                	ld	a0,96(sp)
    80004a86:	e2ad12e3          	bne	s10,a0,800048aa <svd_core+0x26ee>
    80004a8a:	b3e1                	j	80004852 <svd_core+0x2696>
    80004a8c:	018c6513          	ori	a0,s8,24
    80004a90:	9552                	add	a0,a0,s4
    80004a92:	6110                	ld	a2,0(a0)
    80004a94:	0287e863          	bltu	a5,s0,80004ac4 <svd_core+0x2908>
    80004a98:	020c6513          	ori	a0,s8,32
    80004a9c:	9552                	add	a0,a0,s4
    80004a9e:	6114                	ld	a3,0(a0)
    80004aa0:	02879863          	bne	a5,s0,80004ad0 <svd_core+0x2914>
    80004aa4:	4701                	li	a4,0
    80004aa6:	b5a9                	j	800048f0 <svd_core+0x2734>
    80004aa8:	058c6593          	ori	a1,s8,88
    80004aac:	95d2                	add	a1,a1,s4
    80004aae:	6194                	ld	a3,0(a1)
    80004ab0:	00856d63          	bltu	a0,s0,80004aca <svd_core+0x290e>
    80004ab4:	060c6593          	ori	a1,s8,96
    80004ab8:	95d2                	add	a1,a1,s4
    80004aba:	6198                	ld	a4,0(a1)
    80004abc:	02851c63          	bne	a0,s0,80004af4 <svd_core+0x2938>
    80004ac0:	4781                	li	a5,0
    80004ac2:	bf39                	j	800049e0 <svd_core+0x2824>
    80004ac4:	4701                	li	a4,0
    80004ac6:	4681                	li	a3,0
    80004ac8:	b525                	j	800048f0 <svd_core+0x2734>
    80004aca:	4781                	li	a5,0
    80004acc:	4701                	li	a4,0
    80004ace:	bf09                	j	800049e0 <svd_core+0x2824>
    80004ad0:	028c6513          	ori	a0,s8,40
    80004ad4:	9552                	add	a0,a0,s4
    80004ad6:	6108                	ld	a0,0(a0)
    80004ad8:	441d                	li	s0,7
    80004ada:	0287ef63          	bltu	a5,s0,80004b18 <svd_core+0x295c>
    80004ade:	030c6593          	ori	a1,s8,48
    80004ae2:	95d2                	add	a1,a1,s4
    80004ae4:	6198                	ld	a4,0(a1)
    80004ae6:	e08786e3          	beq	a5,s0,800048f2 <svd_core+0x2736>
    80004aea:	038c6593          	ori	a1,s8,56
    80004aee:	95d2                	add	a1,a1,s4
    80004af0:	619c                	ld	a5,0(a1)
    80004af2:	b509                	j	800048f4 <svd_core+0x2738>
    80004af4:	068c6593          	ori	a1,s8,104
    80004af8:	95d2                	add	a1,a1,s4
    80004afa:	618c                	ld	a1,0(a1)
    80004afc:	431d                	li	t1,7
    80004afe:	00656f63          	bltu	a0,t1,80004b1c <svd_core+0x2960>
    80004b02:	070c6613          	ori	a2,s8,112
    80004b06:	9652                	add	a2,a2,s4
    80004b08:	621c                	ld	a5,0(a2)
    80004b0a:	ec650ce3          	beq	a0,t1,800049e2 <svd_core+0x2826>
    80004b0e:	078c6513          	ori	a0,s8,120
    80004b12:	9552                	add	a0,a0,s4
    80004b14:	6110                	ld	a2,0(a0)
    80004b16:	b5f9                	j	800049e4 <svd_core+0x2828>
    80004b18:	4701                	li	a4,0
    80004b1a:	bbe1                	j	800048f2 <svd_core+0x2736>
    80004b1c:	4781                	li	a5,0
    80004b1e:	b5d1                	j	800049e2 <svd_core+0x2826>
    80004b20:	22000553          	fmv.d	fa0,ft0
    80004b24:	63f0b0ef          	jal	80010962 <sqrt>
    80004b28:	04000493          	li	s1,64
    80004b2c:	4389                	li	t2,2
    80004b2e:	b58d                	j	80004990 <svd_core+0x27d4>
    80004b30:	6330b0ef          	jal	80010962 <sqrt>
    80004b34:	04000493          	li	s1,64
    80004b38:	4389                	li	t2,2
    80004b3a:	22a50053          	fmv.d	ft0,fa0
    80004b3e:	bf3d                	j	80004a7c <svd_core+0x28c0>
    80004b40:	4801                	li	a6,0
    80004b42:	d475d0e3          	bge	a1,t2,80004882 <svd_core+0x26c6>
    80004b46:	4781                	li	a5,0
    80004b48:	4701                	li	a4,0
    80004b4a:	4881                	li	a7,0
    80004b4c:	4281                	li	t0,0
    80004b4e:	4601                	li	a2,0
    80004b50:	4581                	li	a1,0
    80004b52:	9552                	add	a0,a0,s4
    80004b54:	6114                	ld	a3,0(a0)
    80004b56:	4501                	li	a0,0
    80004b58:	6321                	lui	t1,0x8
    80004b5a:	4783031b          	addiw	t1,t1,1144 # 8478 <buflen.1+0x8438>
    80004b5e:	930a                	add	t1,t1,sp
    80004b60:	00d33023          	sd	a3,0(t1)
    80004b64:	66a1                	lui	a3,0x8
    80004b66:	4806869b          	addiw	a3,a3,1152 # 8480 <buflen.1+0x8440>
    80004b6a:	968a                	add	a3,a3,sp
    80004b6c:	0106b023          	sd	a6,0(a3)
    80004b70:	66a1                	lui	a3,0x8
    80004b72:	4886869b          	addiw	a3,a3,1160 # 8488 <buflen.1+0x8448>
    80004b76:	968a                	add	a3,a3,sp
    80004b78:	0116b023          	sd	a7,0(a3)
    80004b7c:	66a1                	lui	a3,0x8
    80004b7e:	4906869b          	addiw	a3,a3,1168 # 8490 <buflen.1+0x8450>
    80004b82:	968a                	add	a3,a3,sp
    80004b84:	0056b023          	sd	t0,0(a3)
    80004b88:	66a1                	lui	a3,0x8
    80004b8a:	4986869b          	addiw	a3,a3,1176 # 8498 <buflen.1+0x8458>
    80004b8e:	968a                	add	a3,a3,sp
    80004b90:	e298                	sd	a4,0(a3)
    80004b92:	66a1                	lui	a3,0x8
    80004b94:	4a06869b          	addiw	a3,a3,1184 # 84a0 <buflen.1+0x8460>
    80004b98:	968a                	add	a3,a3,sp
    80004b9a:	e290                	sd	a2,0(a3)
    80004b9c:	6621                	lui	a2,0x8
    80004b9e:	4a86061b          	addiw	a2,a2,1192 # 84a8 <buflen.1+0x8468>
    80004ba2:	960a                	add	a2,a2,sp
    80004ba4:	e21c                	sd	a5,0(a2)
    80004ba6:	f2000553          	fmv.d.x	fa0,zero
    80004baa:	6621                	lui	a2,0x8
    80004bac:	4b06061b          	addiw	a2,a2,1200 # 84b0 <buflen.1+0x8470>
    80004bb0:	960a                	add	a2,a2,sp
    80004bb2:	e20c                	sd	a1,0(a2)
    80004bb4:	00aa85b3          	add	a1,s5,a0
    80004bb8:	0005b007          	fld	ft0,0(a1)
    80004bbc:	52007043          	fmadd.d	ft0,ft0,ft0,fa0
    80004bc0:	0085b087          	fld	ft1,8(a1)
    80004bc4:	0210f043          	fmadd.d	ft0,ft1,ft1,ft0
    80004bc8:	0105b087          	fld	ft1,16(a1)
    80004bcc:	0210f043          	fmadd.d	ft0,ft1,ft1,ft0
    80004bd0:	0185b087          	fld	ft1,24(a1)
    80004bd4:	0210f543          	fmadd.d	fa0,ft1,ft1,ft0
    80004bd8:	02050513          	addi	a0,a0,32
    80004bdc:	fc951ce3          	bne	a0,s1,80004bb4 <svd_core+0x29f8>
    80004be0:	5a057053          	fsqrt.d	ft0,fa0
    80004be4:	a2002553          	feq.d	a0,ft0,ft0
    80004be8:	e119                	bnez	a0,80004bee <svd_core+0x2a32>
    80004bea:	1c60b06f          	j	8000fdb0 <svd_core+0xdbf4>
    80004bee:	02097953          	fadd.d	fs2,fs2,ft0
    80004bf2:	0b397053          	fsub.d	ft0,fs2,fs3
    80004bf6:	a3401553          	flt.d	a0,ft0,fs4
    80004bfa:	c119                	beqz	a0,80004c00 <svd_core+0x2a44>
    80004bfc:	22001053          	fneg.d	ft0,ft0
    80004c00:	a2901553          	flt.d	a0,ft0,fs1
    80004c04:	23398a53          	fmv.d	fs4,fs3
    80004c08:	c119                	beqz	a0,80004c0e <svd_core+0x2a52>
    80004c0a:	2cc0b06f          	j	8000fed6 <svd_core+0xdd1a>
    80004c0e:	4801                	li	a6,0
    80004c10:	4881                	li	a7,0
    80004c12:	a821                	j	80004c2a <svd_core+0x2a6e>
    80004c14:	1b207053          	fdiv.d	ft0,ft0,fs2
    80004c18:	00389513          	slli	a0,a7,0x3
    80004c1c:	9566                	add	a0,a0,s9
    80004c1e:	00053027          	fsd	ft0,0(a0)
    80004c22:	0885                	addi	a7,a7,1
    80004c24:	984e                	add	a6,a6,s3
    80004c26:	21788c63          	beq	a7,s7,80004e3e <svd_core+0x2c82>
    80004c2a:	1ba9c063          	blt	s3,s10,80004dca <svd_core+0x2c0e>
    80004c2e:	4601                	li	a2,0
    80004c30:	033882b3          	mul	t0,a7,s3
    80004c34:	f20000d3          	fmv.d.x	ft1,zero
    80004c38:	471d                	li	a4,7
    80004c3a:	22108053          	fmv.d	ft0,ft1
    80004c3e:	005607b3          	add	a5,a2,t0
    80004c42:	078e                	slli	a5,a5,0x3
    80004c44:	97da                	add	a5,a5,s6
    80004c46:	0007bd03          	ld	s10,0(a5)
    80004c4a:	0087bc03          	ld	s8,8(a5)
    80004c4e:	0107be03          	ld	t3,16(a5)
    80004c52:	0187be83          	ld	t4,24(a5)
    80004c56:	0207bf03          	ld	t5,32(a5)
    80004c5a:	0287b303          	ld	t1,40(a5)
    80004c5e:	0307b383          	ld	t2,48(a5)
    80004c62:	0387bf83          	ld	t6,56(a5)
    80004c66:	00361513          	slli	a0,a2,0x3
    80004c6a:	00aa05b3          	add	a1,s4,a0
    80004c6e:	0005bd83          	ld	s11,0(a1)
    80004c72:	00856693          	ori	a3,a0,8
    80004c76:	96d2                	add	a3,a3,s4
    80004c78:	0006b083          	ld	ra,0(a3)
    80004c7c:	01056793          	ori	a5,a0,16
    80004c80:	97d2                	add	a5,a5,s4
    80004c82:	639c                	ld	a5,0(a5)
    80004c84:	01856413          	ori	s0,a0,24
    80004c88:	9452                	add	s0,s0,s4
    80004c8a:	6000                	ld	s0,0(s0)
    80004c8c:	02056493          	ori	s1,a0,32
    80004c90:	94d2                	add	s1,s1,s4
    80004c92:	6084                	ld	s1,0(s1)
    80004c94:	02856593          	ori	a1,a0,40
    80004c98:	95d2                	add	a1,a1,s4
    80004c9a:	618c                	ld	a1,0(a1)
    80004c9c:	03056513          	ori	a0,a0,48
    80004ca0:	9552                	add	a0,a0,s4
    80004ca2:	6108                	ld	a0,0(a0)
    80004ca4:	00371693          	slli	a3,a4,0x3
    80004ca8:	96d2                	add	a3,a3,s4
    80004caa:	6294                	ld	a3,0(a3)
    80004cac:	e042                	sd	a6,0(sp)
    80004cae:	6821                	lui	a6,0x8
    80004cb0:	4788081b          	addiw	a6,a6,1144 # 8478 <buflen.1+0x8438>
    80004cb4:	980a                	add	a6,a6,sp
    80004cb6:	01a83023          	sd	s10,0(a6)
    80004cba:	6802                	ld	a6,0(sp)
    80004cbc:	6d21                	lui	s10,0x8
    80004cbe:	480d0d1b          	addiw	s10,s10,1152 # 8480 <buflen.1+0x8440>
    80004cc2:	9d0a                	add	s10,s10,sp
    80004cc4:	018d3023          	sd	s8,0(s10)
    80004cc8:	6c21                	lui	s8,0x8
    80004cca:	488c0c1b          	addiw	s8,s8,1160 # 8488 <buflen.1+0x8448>
    80004cce:	9c0a                	add	s8,s8,sp
    80004cd0:	01cc3023          	sd	t3,0(s8)
    80004cd4:	6e21                	lui	t3,0x8
    80004cd6:	490e0e1b          	addiw	t3,t3,1168 # 8490 <buflen.1+0x8450>
    80004cda:	9e0a                	add	t3,t3,sp
    80004cdc:	01de3023          	sd	t4,0(t3)
    80004ce0:	6e21                	lui	t3,0x8
    80004ce2:	498e0e1b          	addiw	t3,t3,1176 # 8498 <buflen.1+0x8458>
    80004ce6:	9e0a                	add	t3,t3,sp
    80004ce8:	01ee3023          	sd	t5,0(t3)
    80004cec:	6e21                	lui	t3,0x8
    80004cee:	4a0e0e1b          	addiw	t3,t3,1184 # 84a0 <buflen.1+0x8460>
    80004cf2:	9e0a                	add	t3,t3,sp
    80004cf4:	006e3023          	sd	t1,0(t3)
    80004cf8:	6321                	lui	t1,0x8
    80004cfa:	4a83031b          	addiw	t1,t1,1192 # 84a8 <buflen.1+0x8468>
    80004cfe:	930a                	add	t1,t1,sp
    80004d00:	00733023          	sd	t2,0(t1)
    80004d04:	6321                	lui	t1,0x8
    80004d06:	4b03031b          	addiw	t1,t1,1200 # 84b0 <buflen.1+0x8470>
    80004d0a:	930a                	add	t1,t1,sp
    80004d0c:	01f33023          	sd	t6,0(t1)
    80004d10:	6321                	lui	t1,0x8
    80004d12:	4b83031b          	addiw	t1,t1,1208 # 84b8 <buflen.1+0x8478>
    80004d16:	930a                	add	t1,t1,sp
    80004d18:	01b33023          	sd	s11,0(t1)
    80004d1c:	6321                	lui	t1,0x8
    80004d1e:	4c03031b          	addiw	t1,t1,1216 # 84c0 <buflen.1+0x8480>
    80004d22:	930a                	add	t1,t1,sp
    80004d24:	00133023          	sd	ra,0(t1)
    80004d28:	6321                	lui	t1,0x8
    80004d2a:	4c83031b          	addiw	t1,t1,1224 # 84c8 <buflen.1+0x8488>
    80004d2e:	930a                	add	t1,t1,sp
    80004d30:	00f33023          	sd	a5,0(t1)
    80004d34:	67a1                	lui	a5,0x8
    80004d36:	4d07879b          	addiw	a5,a5,1232 # 84d0 <buflen.1+0x8490>
    80004d3a:	978a                	add	a5,a5,sp
    80004d3c:	e380                	sd	s0,0(a5)
    80004d3e:	67a1                	lui	a5,0x8
    80004d40:	4d87879b          	addiw	a5,a5,1240 # 84d8 <buflen.1+0x8498>
    80004d44:	978a                	add	a5,a5,sp
    80004d46:	e384                	sd	s1,0(a5)
    80004d48:	67a1                	lui	a5,0x8
    80004d4a:	4e07879b          	addiw	a5,a5,1248 # 84e0 <buflen.1+0x84a0>
    80004d4e:	978a                	add	a5,a5,sp
    80004d50:	e38c                	sd	a1,0(a5)
    80004d52:	65a1                	lui	a1,0x8
    80004d54:	4e85859b          	addiw	a1,a1,1256 # 84e8 <buflen.1+0x84a8>
    80004d58:	958a                	add	a1,a1,sp
    80004d5a:	e188                	sd	a0,0(a1)
    80004d5c:	6521                	lui	a0,0x8
    80004d5e:	4f05051b          	addiw	a0,a0,1264 # 84f0 <buflen.1+0x84b0>
    80004d62:	950a                	add	a0,a0,sp
    80004d64:	e114                	sd	a3,0(a0)
    80004d66:	47c1                	li	a5,16
    80004d68:	22108153          	fmv.d	ft2,ft1
    80004d6c:	00fa8533          	add	a0,s5,a5
    80004d70:	ff053187          	fld	ft3,-16(a0)
    80004d74:	03053207          	fld	ft4,48(a0)
    80004d78:	1241f143          	fmadd.d	ft2,ft3,ft4,ft2
    80004d7c:	ff853187          	fld	ft3,-8(a0)
    80004d80:	03853207          	fld	ft4,56(a0)
    80004d84:	1241f143          	fmadd.d	ft2,ft3,ft4,ft2
    80004d88:	00053187          	fld	ft3,0(a0)
    80004d8c:	04053207          	fld	ft4,64(a0)
    80004d90:	1241f143          	fmadd.d	ft2,ft3,ft4,ft2
    80004d94:	00853187          	fld	ft3,8(a0)
    80004d98:	04853207          	fld	ft4,72(a0)
    80004d9c:	1241f143          	fmadd.d	ft2,ft3,ft4,ft2
    80004da0:	02078793          	addi	a5,a5,32
    80004da4:	fd2794e3          	bne	a5,s2,80004d6c <svd_core+0x2bb0>
    80004da8:	02207053          	fadd.d	ft0,ft0,ft2
    80004dac:	0621                	addi	a2,a2,8
    80004dae:	00766513          	ori	a0,a2,7
    80004db2:	0721                	addi	a4,a4,8
    80004db4:	e93545e3          	blt	a0,s3,80004c3e <svd_core+0x2a82>
    80004db8:	4d21                	li	s10,8
    80004dba:	4405                	li	s0,1
    80004dbc:	4389                	li	t2,2
    80004dbe:	4c0d                	li	s8,3
    80004dc0:	0006051b          	sext.w	a0,a2
    80004dc4:	e53558e3          	bge	a0,s3,80004c14 <svd_core+0x2a58>
    80004dc8:	a801                	j	80004dd8 <svd_core+0x2c1c>
    80004dca:	f2000053          	fmv.d.x	ft0,zero
    80004dce:	4601                	li	a2,0
    80004dd0:	0006051b          	sext.w	a0,a2
    80004dd4:	e53550e3          	bge	a0,s3,80004c14 <svd_core+0x2a58>
    80004dd8:	02061513          	slli	a0,a2,0x20
    80004ddc:	02055593          	srli	a1,a0,0x20
    80004de0:	7626                	ld	a2,104(sp)
    80004de2:	8e0d                	sub	a2,a2,a1
    80004de4:	95c2                	add	a1,a1,a6
    80004de6:	058e                	slli	a1,a1,0x3
    80004de8:	00bb06b3          	add	a3,s6,a1
    80004dec:	8175                	srli	a0,a0,0x1d
    80004dee:	012c                	addi	a1,sp,136
    80004df0:	00a58733          	add	a4,a1,a0
    80004df4:	0006b087          	fld	ft1,0(a3)
    80004df8:	ff073107          	fld	ft2,-16(a4)
    80004dfc:	0220f043          	fmadd.d	ft0,ft1,ft2,ft0
    80004e00:	e0860ae3          	beq	a2,s0,80004c14 <svd_core+0x2a58>
    80004e04:	0086b087          	fld	ft1,8(a3)
    80004e08:	ff873107          	fld	ft2,-8(a4)
    80004e0c:	0220f043          	fmadd.d	ft0,ft1,ft2,ft0
    80004e10:	e07602e3          	beq	a2,t2,80004c14 <svd_core+0x2a58>
    80004e14:	0106b087          	fld	ft1,16(a3)
    80004e18:	00073107          	fld	ft2,0(a4)
    80004e1c:	0220f043          	fmadd.d	ft0,ft1,ft2,ft0
    80004e20:	df860ae3          	beq	a2,s8,80004c14 <svd_core+0x2a58>
    80004e24:	0186b087          	fld	ft1,24(a3)
    80004e28:	00873107          	fld	ft2,8(a4)
    80004e2c:	0220f043          	fmadd.d	ft0,ft1,ft2,ft0
    80004e30:	1671                	addi	a2,a2,-4
    80004e32:	02068693          	addi	a3,a3,32
    80004e36:	02070713          	addi	a4,a4,32
    80004e3a:	fe4d                	bnez	a2,80004df4 <svd_core+0x2c38>
    80004e3c:	bbe1                	j	80004c14 <svd_core+0x2a58>
    80004e3e:	18a8                	addi	a0,sp,120
    80004e40:	20000613          	li	a2,512
    80004e44:	4581                	li	a1,0
    80004e46:	7960b0ef          	jal	800105dc <memset>
    80004e4a:	4389                	li	t2,2
    80004e4c:	f2000a53          	fmv.d.x	fs4,zero
    80004e50:	234a09d3          	fmv.d	fs3,fs4
    80004e54:	04000493          	li	s1,64
    80004e58:	5f305463          	blez	s3,80005440 <svd_core+0x3284>
    80004e5c:	4801                	li	a6,0
    80004e5e:	4881                	li	a7,0
    80004e60:	a819                	j	80004e76 <svd_core+0x2cba>
    80004e62:	00389513          	slli	a0,a7,0x3
    80004e66:	9552                	add	a0,a0,s4
    80004e68:	00053027          	fsd	ft0,0(a0)
    80004e6c:	0885                	addi	a7,a7,1
    80004e6e:	985e                	add	a6,a6,s7
    80004e70:	7526                	ld	a0,104(sp)
    80004e72:	20a88f63          	beq	a7,a0,80005090 <svd_core+0x2ed4>
    80004e76:	1babe363          	bltu	s7,s10,8000501c <svd_core+0x2e60>
    80004e7a:	4601                	li	a2,0
    80004e7c:	037882b3          	mul	t0,a7,s7
    80004e80:	f20000d3          	fmv.d.x	ft1,zero
    80004e84:	471d                	li	a4,7
    80004e86:	22108053          	fmv.d	ft0,ft1
    80004e8a:	005607b3          	add	a5,a2,t0
    80004e8e:	078e                	slli	a5,a5,0x3
    80004e90:	7546                	ld	a0,112(sp)
    80004e92:	97aa                	add	a5,a5,a0
    80004e94:	0007bd03          	ld	s10,0(a5)
    80004e98:	0087bc03          	ld	s8,8(a5)
    80004e9c:	0107be03          	ld	t3,16(a5)
    80004ea0:	0187be83          	ld	t4,24(a5)
    80004ea4:	0207bf03          	ld	t5,32(a5)
    80004ea8:	0287b303          	ld	t1,40(a5)
    80004eac:	0307b383          	ld	t2,48(a5)
    80004eb0:	0387bf83          	ld	t6,56(a5)
    80004eb4:	00361513          	slli	a0,a2,0x3
    80004eb8:	00ac85b3          	add	a1,s9,a0
    80004ebc:	0005bd83          	ld	s11,0(a1)
    80004ec0:	00856693          	ori	a3,a0,8
    80004ec4:	96e6                	add	a3,a3,s9
    80004ec6:	0006b083          	ld	ra,0(a3)
    80004eca:	01056793          	ori	a5,a0,16
    80004ece:	97e6                	add	a5,a5,s9
    80004ed0:	639c                	ld	a5,0(a5)
    80004ed2:	01856413          	ori	s0,a0,24
    80004ed6:	9466                	add	s0,s0,s9
    80004ed8:	6000                	ld	s0,0(s0)
    80004eda:	02056493          	ori	s1,a0,32
    80004ede:	94e6                	add	s1,s1,s9
    80004ee0:	6084                	ld	s1,0(s1)
    80004ee2:	02856593          	ori	a1,a0,40
    80004ee6:	95e6                	add	a1,a1,s9
    80004ee8:	618c                	ld	a1,0(a1)
    80004eea:	03056513          	ori	a0,a0,48
    80004eee:	9566                	add	a0,a0,s9
    80004ef0:	6108                	ld	a0,0(a0)
    80004ef2:	00371693          	slli	a3,a4,0x3
    80004ef6:	96e6                	add	a3,a3,s9
    80004ef8:	6294                	ld	a3,0(a3)
    80004efa:	e042                	sd	a6,0(sp)
    80004efc:	6821                	lui	a6,0x8
    80004efe:	4788081b          	addiw	a6,a6,1144 # 8478 <buflen.1+0x8438>
    80004f02:	980a                	add	a6,a6,sp
    80004f04:	01a83023          	sd	s10,0(a6)
    80004f08:	6802                	ld	a6,0(sp)
    80004f0a:	6d21                	lui	s10,0x8
    80004f0c:	480d0d1b          	addiw	s10,s10,1152 # 8480 <buflen.1+0x8440>
    80004f10:	9d0a                	add	s10,s10,sp
    80004f12:	018d3023          	sd	s8,0(s10)
    80004f16:	6c21                	lui	s8,0x8
    80004f18:	488c0c1b          	addiw	s8,s8,1160 # 8488 <buflen.1+0x8448>
    80004f1c:	9c0a                	add	s8,s8,sp
    80004f1e:	01cc3023          	sd	t3,0(s8)
    80004f22:	6e21                	lui	t3,0x8
    80004f24:	490e0e1b          	addiw	t3,t3,1168 # 8490 <buflen.1+0x8450>
    80004f28:	9e0a                	add	t3,t3,sp
    80004f2a:	01de3023          	sd	t4,0(t3)
    80004f2e:	6e21                	lui	t3,0x8
    80004f30:	498e0e1b          	addiw	t3,t3,1176 # 8498 <buflen.1+0x8458>
    80004f34:	9e0a                	add	t3,t3,sp
    80004f36:	01ee3023          	sd	t5,0(t3)
    80004f3a:	6e21                	lui	t3,0x8
    80004f3c:	4a0e0e1b          	addiw	t3,t3,1184 # 84a0 <buflen.1+0x8460>
    80004f40:	9e0a                	add	t3,t3,sp
    80004f42:	006e3023          	sd	t1,0(t3)
    80004f46:	6321                	lui	t1,0x8
    80004f48:	4a83031b          	addiw	t1,t1,1192 # 84a8 <buflen.1+0x8468>
    80004f4c:	930a                	add	t1,t1,sp
    80004f4e:	00733023          	sd	t2,0(t1)
    80004f52:	6321                	lui	t1,0x8
    80004f54:	4b03031b          	addiw	t1,t1,1200 # 84b0 <buflen.1+0x8470>
    80004f58:	930a                	add	t1,t1,sp
    80004f5a:	01f33023          	sd	t6,0(t1)
    80004f5e:	6321                	lui	t1,0x8
    80004f60:	4b83031b          	addiw	t1,t1,1208 # 84b8 <buflen.1+0x8478>
    80004f64:	930a                	add	t1,t1,sp
    80004f66:	01b33023          	sd	s11,0(t1)
    80004f6a:	6321                	lui	t1,0x8
    80004f6c:	4c03031b          	addiw	t1,t1,1216 # 84c0 <buflen.1+0x8480>
    80004f70:	930a                	add	t1,t1,sp
    80004f72:	00133023          	sd	ra,0(t1)
    80004f76:	6321                	lui	t1,0x8
    80004f78:	4c83031b          	addiw	t1,t1,1224 # 84c8 <buflen.1+0x8488>
    80004f7c:	930a                	add	t1,t1,sp
    80004f7e:	00f33023          	sd	a5,0(t1)
    80004f82:	67a1                	lui	a5,0x8
    80004f84:	4d07879b          	addiw	a5,a5,1232 # 84d0 <buflen.1+0x8490>
    80004f88:	978a                	add	a5,a5,sp
    80004f8a:	e380                	sd	s0,0(a5)
    80004f8c:	67a1                	lui	a5,0x8
    80004f8e:	4d87879b          	addiw	a5,a5,1240 # 84d8 <buflen.1+0x8498>
    80004f92:	978a                	add	a5,a5,sp
    80004f94:	e384                	sd	s1,0(a5)
    80004f96:	67a1                	lui	a5,0x8
    80004f98:	4e07879b          	addiw	a5,a5,1248 # 84e0 <buflen.1+0x84a0>
    80004f9c:	978a                	add	a5,a5,sp
    80004f9e:	e38c                	sd	a1,0(a5)
    80004fa0:	65a1                	lui	a1,0x8
    80004fa2:	4e85859b          	addiw	a1,a1,1256 # 84e8 <buflen.1+0x84a8>
    80004fa6:	958a                	add	a1,a1,sp
    80004fa8:	e188                	sd	a0,0(a1)
    80004faa:	6521                	lui	a0,0x8
    80004fac:	4f05051b          	addiw	a0,a0,1264 # 84f0 <buflen.1+0x84b0>
    80004fb0:	950a                	add	a0,a0,sp
    80004fb2:	e114                	sd	a3,0(a0)
    80004fb4:	47c1                	li	a5,16
    80004fb6:	22108153          	fmv.d	ft2,ft1
    80004fba:	00fa8533          	add	a0,s5,a5
    80004fbe:	ff053187          	fld	ft3,-16(a0)
    80004fc2:	03053207          	fld	ft4,48(a0)
    80004fc6:	1241f143          	fmadd.d	ft2,ft3,ft4,ft2
    80004fca:	ff853187          	fld	ft3,-8(a0)
    80004fce:	03853207          	fld	ft4,56(a0)
    80004fd2:	1241f143          	fmadd.d	ft2,ft3,ft4,ft2
    80004fd6:	00053187          	fld	ft3,0(a0)
    80004fda:	04053207          	fld	ft4,64(a0)
    80004fde:	1241f143          	fmadd.d	ft2,ft3,ft4,ft2
    80004fe2:	00853187          	fld	ft3,8(a0)
    80004fe6:	04853207          	fld	ft4,72(a0)
    80004fea:	1241f143          	fmadd.d	ft2,ft3,ft4,ft2
    80004fee:	02078793          	addi	a5,a5,32
    80004ff2:	fd2794e3          	bne	a5,s2,80004fba <svd_core+0x2dfe>
    80004ff6:	02207053          	fadd.d	ft0,ft0,ft2
    80004ffa:	0621                	addi	a2,a2,8
    80004ffc:	00766513          	ori	a0,a2,7
    80005000:	0721                	addi	a4,a4,8
    80005002:	e97564e3          	bltu	a0,s7,80004e8a <svd_core+0x2cce>
    80005006:	4d21                	li	s10,8
    80005008:	4405                	li	s0,1
    8000500a:	4389                	li	t2,2
    8000500c:	4c0d                	li	s8,3
    8000500e:	04000493          	li	s1,64
    80005012:	0006051b          	sext.w	a0,a2
    80005016:	e57556e3          	bge	a0,s7,80004e62 <svd_core+0x2ca6>
    8000501a:	a801                	j	8000502a <svd_core+0x2e6e>
    8000501c:	f2000053          	fmv.d.x	ft0,zero
    80005020:	4601                	li	a2,0
    80005022:	0006051b          	sext.w	a0,a2
    80005026:	e3755ee3          	bge	a0,s7,80004e62 <svd_core+0x2ca6>
    8000502a:	02061513          	slli	a0,a2,0x20
    8000502e:	02055593          	srli	a1,a0,0x20
    80005032:	40bb8633          	sub	a2,s7,a1
    80005036:	95c2                	add	a1,a1,a6
    80005038:	058e                	slli	a1,a1,0x3
    8000503a:	76c6                	ld	a3,112(sp)
    8000503c:	96ae                	add	a3,a3,a1
    8000503e:	8175                	srli	a0,a0,0x1d
    80005040:	052c                	addi	a1,sp,648
    80005042:	00a58733          	add	a4,a1,a0
    80005046:	0006b087          	fld	ft1,0(a3)
    8000504a:	ff073107          	fld	ft2,-16(a4)
    8000504e:	0220f043          	fmadd.d	ft0,ft1,ft2,ft0
    80005052:	e08608e3          	beq	a2,s0,80004e62 <svd_core+0x2ca6>
    80005056:	0086b087          	fld	ft1,8(a3)
    8000505a:	ff873107          	fld	ft2,-8(a4)
    8000505e:	0220f043          	fmadd.d	ft0,ft1,ft2,ft0
    80005062:	e07600e3          	beq	a2,t2,80004e62 <svd_core+0x2ca6>
    80005066:	0106b087          	fld	ft1,16(a3)
    8000506a:	00073107          	fld	ft2,0(a4)
    8000506e:	0220f043          	fmadd.d	ft0,ft1,ft2,ft0
    80005072:	df8608e3          	beq	a2,s8,80004e62 <svd_core+0x2ca6>
    80005076:	0186b087          	fld	ft1,24(a3)
    8000507a:	00873107          	fld	ft2,8(a4)
    8000507e:	0220f043          	fmadd.d	ft0,ft1,ft2,ft0
    80005082:	1671                	addi	a2,a2,-4
    80005084:	02068693          	addi	a3,a3,32
    80005088:	02070713          	addi	a4,a4,32
    8000508c:	fe4d                	bnez	a2,80005046 <svd_core+0x2e8a>
    8000508e:	bbd1                	j	80004e62 <svd_core+0x2ca6>
    80005090:	05305c63          	blez	s3,800050e8 <svd_core+0x2f2c>
    80005094:	6566                	ld	a0,88(sp)
    80005096:	05a57c63          	bgeu	a0,s10,800050ee <svd_core+0x2f32>
    8000509a:	f20009d3          	fmv.d.x	fs3,zero
    8000509e:	4d81                	li	s11,0
    800050a0:	6546                	ld	a0,80(sp)
    800050a2:	4405                	li	s0,1
    800050a4:	4c0d                	li	s8,3
    800050a6:	4d21                	li	s10,8
    800050a8:	38050c63          	beqz	a0,80005440 <svd_core+0x3284>
    800050ac:	41b9863b          	subw	a2,s3,s11
    800050b0:	4521                	li	a0,8
    800050b2:	85b2                	mv	a1,a2
    800050b4:	00a64363          	blt	a2,a0,800050ba <svd_core+0x2efe>
    800050b8:	45a1                	li	a1,8
    800050ba:	003d9513          	slli	a0,s11,0x3
    800050be:	2cc05863          	blez	a2,8000538e <svd_core+0x31d2>
    800050c2:	00856613          	ori	a2,a0,8
    800050c6:	9652                	add	a2,a2,s4
    800050c8:	00063803          	ld	a6,0(a2)
    800050cc:	2c75c463          	blt	a1,t2,80005394 <svd_core+0x31d8>
    800050d0:	01056613          	ori	a2,a0,16
    800050d4:	9652                	add	a2,a2,s4
    800050d6:	00063883          	ld	a7,0(a2)
    800050da:	00758463          	beq	a1,t2,800050e2 <svd_core+0x2f26>
    800050de:	77b0606f          	j	8000c058 <svd_core+0x9e9c>
    800050e2:	4781                	li	a5,0
    800050e4:	4701                	li	a4,0
    800050e6:	ac55                	j	8000539a <svd_core+0x31de>
    800050e8:	f20009d3          	fmv.d.x	fs3,zero
    800050ec:	ae91                	j	80005440 <svd_core+0x3284>
    800050ee:	4d81                	li	s11,0
    800050f0:	f20009d3          	fmv.d.x	fs3,zero
    800050f4:	4d01                	li	s10,0
    800050f6:	4415                	li	s0,5
    800050f8:	41b9853b          	subw	a0,s3,s11
    800050fc:	45a1                	li	a1,8
    800050fe:	87aa                	mv	a5,a0
    80005100:	00b54363          	blt	a0,a1,80005106 <svd_core+0x2f4a>
    80005104:	47a1                	li	a5,8
    80005106:	003d9c13          	slli	s8,s11,0x3
    8000510a:	02a05363          	blez	a0,80005130 <svd_core+0x2f74>
    8000510e:	008c6513          	ori	a0,s8,8
    80005112:	9552                	add	a0,a0,s4
    80005114:	00053803          	ld	a6,0(a0)
    80005118:	0077cf63          	blt	a5,t2,80005136 <svd_core+0x2f7a>
    8000511c:	010c6513          	ori	a0,s8,16
    80005120:	9552                	add	a0,a0,s4
    80005122:	00053883          	ld	a7,0(a0)
    80005126:	1a779a63          	bne	a5,t2,800052da <svd_core+0x311e>
    8000512a:	4701                	li	a4,0
    8000512c:	4681                	li	a3,0
    8000512e:	a039                	j	8000513c <svd_core+0x2f80>
    80005130:	4801                	li	a6,0
    80005132:	fe77d5e3          	bge	a5,t2,8000511c <svd_core+0x2f60>
    80005136:	4701                	li	a4,0
    80005138:	4681                	li	a3,0
    8000513a:	4881                	li	a7,0
    8000513c:	4601                	li	a2,0
    8000513e:	4501                	li	a0,0
    80005140:	4781                	li	a5,0
    80005142:	018a05b3          	add	a1,s4,s8
    80005146:	6180                	ld	s0,0(a1)
    80005148:	4581                	li	a1,0
    8000514a:	62a1                	lui	t0,0x8
    8000514c:	4782829b          	addiw	t0,t0,1144 # 8478 <buflen.1+0x8438>
    80005150:	928a                	add	t0,t0,sp
    80005152:	0082b023          	sd	s0,0(t0)
    80005156:	62a1                	lui	t0,0x8
    80005158:	4802829b          	addiw	t0,t0,1152 # 8480 <buflen.1+0x8440>
    8000515c:	928a                	add	t0,t0,sp
    8000515e:	0102b023          	sd	a6,0(t0)
    80005162:	6821                	lui	a6,0x8
    80005164:	4888081b          	addiw	a6,a6,1160 # 8488 <buflen.1+0x8448>
    80005168:	980a                	add	a6,a6,sp
    8000516a:	01183023          	sd	a7,0(a6)
    8000516e:	6821                	lui	a6,0x8
    80005170:	4908081b          	addiw	a6,a6,1168 # 8490 <buflen.1+0x8450>
    80005174:	980a                	add	a6,a6,sp
    80005176:	00c83023          	sd	a2,0(a6)
    8000517a:	6621                	lui	a2,0x8
    8000517c:	4986061b          	addiw	a2,a2,1176 # 8498 <buflen.1+0x8458>
    80005180:	960a                	add	a2,a2,sp
    80005182:	e214                	sd	a3,0(a2)
    80005184:	6621                	lui	a2,0x8
    80005186:	4a06061b          	addiw	a2,a2,1184 # 84a0 <buflen.1+0x8460>
    8000518a:	960a                	add	a2,a2,sp
    8000518c:	e208                	sd	a0,0(a2)
    8000518e:	6521                	lui	a0,0x8
    80005190:	4a85051b          	addiw	a0,a0,1192 # 84a8 <buflen.1+0x8468>
    80005194:	950a                	add	a0,a0,sp
    80005196:	e118                	sd	a4,0(a0)
    80005198:	f2000053          	fmv.d.x	ft0,zero
    8000519c:	6521                	lui	a0,0x8
    8000519e:	4b05051b          	addiw	a0,a0,1200 # 84b0 <buflen.1+0x8470>
    800051a2:	950a                	add	a0,a0,sp
    800051a4:	e11c                	sd	a5,0(a0)
    800051a6:	00ba8533          	add	a0,s5,a1
    800051aa:	00053087          	fld	ft1,0(a0)
    800051ae:	0210f043          	fmadd.d	ft0,ft1,ft1,ft0
    800051b2:	00853087          	fld	ft1,8(a0)
    800051b6:	0210f043          	fmadd.d	ft0,ft1,ft1,ft0
    800051ba:	01053087          	fld	ft1,16(a0)
    800051be:	0210f043          	fmadd.d	ft0,ft1,ft1,ft0
    800051c2:	01853087          	fld	ft1,24(a0)
    800051c6:	0210f043          	fmadd.d	ft0,ft1,ft1,ft0
    800051ca:	02058593          	addi	a1,a1,32
    800051ce:	fc959ce3          	bne	a1,s1,800051a6 <svd_core+0x2fea>
    800051d2:	5a007553          	fsqrt.d	fa0,ft0
    800051d6:	a2a52553          	feq.d	a0,fa0,fa0
    800051da:	18050a63          	beqz	a0,8000536e <svd_core+0x31b2>
    800051de:	008de613          	ori	a2,s11,8
    800051e2:	40c985bb          	subw	a1,s3,a2
    800051e6:	46a1                	li	a3,8
    800051e8:	852e                	mv	a0,a1
    800051ea:	4415                	li	s0,5
    800051ec:	00d5c363          	blt	a1,a3,800051f2 <svd_core+0x3036>
    800051f0:	4521                	li	a0,8
    800051f2:	060e                	slli	a2,a2,0x3
    800051f4:	9652                	add	a2,a2,s4
    800051f6:	00063803          	ld	a6,0(a2)
    800051fa:	02b05363          	blez	a1,80005220 <svd_core+0x3064>
    800051fe:	048c6593          	ori	a1,s8,72
    80005202:	95d2                	add	a1,a1,s4
    80005204:	0005b883          	ld	a7,0(a1)
    80005208:	00754f63          	blt	a0,t2,80005226 <svd_core+0x306a>
    8000520c:	050c6593          	ori	a1,s8,80
    80005210:	95d2                	add	a1,a1,s4
    80005212:	0005b283          	ld	t0,0(a1)
    80005216:	0e751063          	bne	a0,t2,800052f6 <svd_core+0x313a>
    8000521a:	4781                	li	a5,0
    8000521c:	4701                	li	a4,0
    8000521e:	a039                	j	8000522c <svd_core+0x3070>
    80005220:	4881                	li	a7,0
    80005222:	fe7555e3          	bge	a0,t2,8000520c <svd_core+0x3050>
    80005226:	4781                	li	a5,0
    80005228:	4701                	li	a4,0
    8000522a:	4281                	li	t0,0
    8000522c:	4681                	li	a3,0
    8000522e:	4581                	li	a1,0
    80005230:	4601                	li	a2,0
    80005232:	4501                	li	a0,0
    80005234:	6321                	lui	t1,0x8
    80005236:	4783031b          	addiw	t1,t1,1144 # 8478 <buflen.1+0x8438>
    8000523a:	930a                	add	t1,t1,sp
    8000523c:	01033023          	sd	a6,0(t1)
    80005240:	02a9f9d3          	fadd.d	fs3,fs3,fa0
    80005244:	6821                	lui	a6,0x8
    80005246:	4808081b          	addiw	a6,a6,1152 # 8480 <buflen.1+0x8440>
    8000524a:	980a                	add	a6,a6,sp
    8000524c:	01183023          	sd	a7,0(a6)
    80005250:	6821                	lui	a6,0x8
    80005252:	4888081b          	addiw	a6,a6,1160 # 8488 <buflen.1+0x8448>
    80005256:	980a                	add	a6,a6,sp
    80005258:	00583023          	sd	t0,0(a6)
    8000525c:	6821                	lui	a6,0x8
    8000525e:	4908081b          	addiw	a6,a6,1168 # 8490 <buflen.1+0x8450>
    80005262:	980a                	add	a6,a6,sp
    80005264:	00d83023          	sd	a3,0(a6)
    80005268:	66a1                	lui	a3,0x8
    8000526a:	4986869b          	addiw	a3,a3,1176 # 8498 <buflen.1+0x8458>
    8000526e:	968a                	add	a3,a3,sp
    80005270:	e298                	sd	a4,0(a3)
    80005272:	66a1                	lui	a3,0x8
    80005274:	4a06869b          	addiw	a3,a3,1184 # 84a0 <buflen.1+0x8460>
    80005278:	968a                	add	a3,a3,sp
    8000527a:	e28c                	sd	a1,0(a3)
    8000527c:	65a1                	lui	a1,0x8
    8000527e:	4a85859b          	addiw	a1,a1,1192 # 84a8 <buflen.1+0x8468>
    80005282:	958a                	add	a1,a1,sp
    80005284:	e19c                	sd	a5,0(a1)
    80005286:	f2000553          	fmv.d.x	fa0,zero
    8000528a:	65a1                	lui	a1,0x8
    8000528c:	4b05859b          	addiw	a1,a1,1200 # 84b0 <buflen.1+0x8470>
    80005290:	958a                	add	a1,a1,sp
    80005292:	e190                	sd	a2,0(a1)
    80005294:	00aa85b3          	add	a1,s5,a0
    80005298:	0005b007          	fld	ft0,0(a1)
    8000529c:	52007043          	fmadd.d	ft0,ft0,ft0,fa0
    800052a0:	0085b087          	fld	ft1,8(a1)
    800052a4:	0210f043          	fmadd.d	ft0,ft1,ft1,ft0
    800052a8:	0105b087          	fld	ft1,16(a1)
    800052ac:	0210f043          	fmadd.d	ft0,ft1,ft1,ft0
    800052b0:	0185b087          	fld	ft1,24(a1)
    800052b4:	0210f543          	fmadd.d	fa0,ft1,ft1,ft0
    800052b8:	02050513          	addi	a0,a0,32
    800052bc:	fc951ce3          	bne	a0,s1,80005294 <svd_core+0x30d8>
    800052c0:	5a057053          	fsqrt.d	ft0,fa0
    800052c4:	a2002553          	feq.d	a0,ft0,ft0
    800052c8:	c95d                	beqz	a0,8000537e <svd_core+0x31c2>
    800052ca:	0209f9d3          	fadd.d	fs3,fs3,ft0
    800052ce:	2d09                	addiw	s10,s10,2
    800052d0:	0dc1                	addi	s11,s11,16
    800052d2:	7506                	ld	a0,96(sp)
    800052d4:	e2ad12e3          	bne	s10,a0,800050f8 <svd_core+0x2f3c>
    800052d8:	b3e1                	j	800050a0 <svd_core+0x2ee4>
    800052da:	018c6513          	ori	a0,s8,24
    800052de:	9552                	add	a0,a0,s4
    800052e0:	6110                	ld	a2,0(a0)
    800052e2:	0287e863          	bltu	a5,s0,80005312 <svd_core+0x3156>
    800052e6:	020c6513          	ori	a0,s8,32
    800052ea:	9552                	add	a0,a0,s4
    800052ec:	6114                	ld	a3,0(a0)
    800052ee:	02879863          	bne	a5,s0,8000531e <svd_core+0x3162>
    800052f2:	4701                	li	a4,0
    800052f4:	b5a9                	j	8000513e <svd_core+0x2f82>
    800052f6:	058c6593          	ori	a1,s8,88
    800052fa:	95d2                	add	a1,a1,s4
    800052fc:	6194                	ld	a3,0(a1)
    800052fe:	00856d63          	bltu	a0,s0,80005318 <svd_core+0x315c>
    80005302:	060c6593          	ori	a1,s8,96
    80005306:	95d2                	add	a1,a1,s4
    80005308:	6198                	ld	a4,0(a1)
    8000530a:	02851c63          	bne	a0,s0,80005342 <svd_core+0x3186>
    8000530e:	4781                	li	a5,0
    80005310:	bf39                	j	8000522e <svd_core+0x3072>
    80005312:	4701                	li	a4,0
    80005314:	4681                	li	a3,0
    80005316:	b525                	j	8000513e <svd_core+0x2f82>
    80005318:	4781                	li	a5,0
    8000531a:	4701                	li	a4,0
    8000531c:	bf09                	j	8000522e <svd_core+0x3072>
    8000531e:	028c6513          	ori	a0,s8,40
    80005322:	9552                	add	a0,a0,s4
    80005324:	6108                	ld	a0,0(a0)
    80005326:	441d                	li	s0,7
    80005328:	0287ef63          	bltu	a5,s0,80005366 <svd_core+0x31aa>
    8000532c:	030c6593          	ori	a1,s8,48
    80005330:	95d2                	add	a1,a1,s4
    80005332:	6198                	ld	a4,0(a1)
    80005334:	e08786e3          	beq	a5,s0,80005140 <svd_core+0x2f84>
    80005338:	038c6593          	ori	a1,s8,56
    8000533c:	95d2                	add	a1,a1,s4
    8000533e:	619c                	ld	a5,0(a1)
    80005340:	b509                	j	80005142 <svd_core+0x2f86>
    80005342:	068c6593          	ori	a1,s8,104
    80005346:	95d2                	add	a1,a1,s4
    80005348:	618c                	ld	a1,0(a1)
    8000534a:	431d                	li	t1,7
    8000534c:	00656f63          	bltu	a0,t1,8000536a <svd_core+0x31ae>
    80005350:	070c6613          	ori	a2,s8,112
    80005354:	9652                	add	a2,a2,s4
    80005356:	621c                	ld	a5,0(a2)
    80005358:	ec650ce3          	beq	a0,t1,80005230 <svd_core+0x3074>
    8000535c:	078c6513          	ori	a0,s8,120
    80005360:	9552                	add	a0,a0,s4
    80005362:	6110                	ld	a2,0(a0)
    80005364:	b5f9                	j	80005232 <svd_core+0x3076>
    80005366:	4701                	li	a4,0
    80005368:	bbe1                	j	80005140 <svd_core+0x2f84>
    8000536a:	4781                	li	a5,0
    8000536c:	b5d1                	j	80005230 <svd_core+0x3074>
    8000536e:	22000553          	fmv.d	fa0,ft0
    80005372:	5f00b0ef          	jal	80010962 <sqrt>
    80005376:	04000493          	li	s1,64
    8000537a:	4389                	li	t2,2
    8000537c:	b58d                	j	800051de <svd_core+0x3022>
    8000537e:	5e40b0ef          	jal	80010962 <sqrt>
    80005382:	04000493          	li	s1,64
    80005386:	4389                	li	t2,2
    80005388:	22a50053          	fmv.d	ft0,fa0
    8000538c:	bf3d                	j	800052ca <svd_core+0x310e>
    8000538e:	4801                	li	a6,0
    80005390:	d475d0e3          	bge	a1,t2,800050d0 <svd_core+0x2f14>
    80005394:	4781                	li	a5,0
    80005396:	4701                	li	a4,0
    80005398:	4881                	li	a7,0
    8000539a:	4281                	li	t0,0
    8000539c:	4601                	li	a2,0
    8000539e:	4581                	li	a1,0
    800053a0:	9552                	add	a0,a0,s4
    800053a2:	6114                	ld	a3,0(a0)
    800053a4:	4501                	li	a0,0
    800053a6:	6321                	lui	t1,0x8
    800053a8:	4783031b          	addiw	t1,t1,1144 # 8478 <buflen.1+0x8438>
    800053ac:	930a                	add	t1,t1,sp
    800053ae:	00d33023          	sd	a3,0(t1)
    800053b2:	66a1                	lui	a3,0x8
    800053b4:	4806869b          	addiw	a3,a3,1152 # 8480 <buflen.1+0x8440>
    800053b8:	968a                	add	a3,a3,sp
    800053ba:	0106b023          	sd	a6,0(a3)
    800053be:	66a1                	lui	a3,0x8
    800053c0:	4886869b          	addiw	a3,a3,1160 # 8488 <buflen.1+0x8448>
    800053c4:	968a                	add	a3,a3,sp
    800053c6:	0116b023          	sd	a7,0(a3)
    800053ca:	66a1                	lui	a3,0x8
    800053cc:	4906869b          	addiw	a3,a3,1168 # 8490 <buflen.1+0x8450>
    800053d0:	968a                	add	a3,a3,sp
    800053d2:	0056b023          	sd	t0,0(a3)
    800053d6:	66a1                	lui	a3,0x8
    800053d8:	4986869b          	addiw	a3,a3,1176 # 8498 <buflen.1+0x8458>
    800053dc:	968a                	add	a3,a3,sp
    800053de:	e298                	sd	a4,0(a3)
    800053e0:	66a1                	lui	a3,0x8
    800053e2:	4a06869b          	addiw	a3,a3,1184 # 84a0 <buflen.1+0x8460>
    800053e6:	968a                	add	a3,a3,sp
    800053e8:	e290                	sd	a2,0(a3)
    800053ea:	6621                	lui	a2,0x8
    800053ec:	4a86061b          	addiw	a2,a2,1192 # 84a8 <buflen.1+0x8468>
    800053f0:	960a                	add	a2,a2,sp
    800053f2:	e21c                	sd	a5,0(a2)
    800053f4:	f2000553          	fmv.d.x	fa0,zero
    800053f8:	6621                	lui	a2,0x8
    800053fa:	4b06061b          	addiw	a2,a2,1200 # 84b0 <buflen.1+0x8470>
    800053fe:	960a                	add	a2,a2,sp
    80005400:	e20c                	sd	a1,0(a2)
    80005402:	00aa85b3          	add	a1,s5,a0
    80005406:	0005b007          	fld	ft0,0(a1)
    8000540a:	52007043          	fmadd.d	ft0,ft0,ft0,fa0
    8000540e:	0085b087          	fld	ft1,8(a1)
    80005412:	0210f043          	fmadd.d	ft0,ft1,ft1,ft0
    80005416:	0105b087          	fld	ft1,16(a1)
    8000541a:	0210f043          	fmadd.d	ft0,ft1,ft1,ft0
    8000541e:	0185b087          	fld	ft1,24(a1)
    80005422:	0210f543          	fmadd.d	fa0,ft1,ft1,ft0
    80005426:	02050513          	addi	a0,a0,32
    8000542a:	fc951ce3          	bne	a0,s1,80005402 <svd_core+0x3246>
    8000542e:	5a057053          	fsqrt.d	ft0,fa0
    80005432:	a2002553          	feq.d	a0,ft0,ft0
    80005436:	e119                	bnez	a0,8000543c <svd_core+0x3280>
    80005438:	1870a06f          	j	8000fdbe <svd_core+0xdc02>
    8000543c:	0209f9d3          	fadd.d	fs3,fs3,ft0
    80005440:	0b29f053          	fsub.d	ft0,fs3,fs2
    80005444:	a3401553          	flt.d	a0,ft0,fs4
    80005448:	c119                	beqz	a0,8000544e <svd_core+0x3292>
    8000544a:	22001053          	fneg.d	ft0,ft0
    8000544e:	a2901553          	flt.d	a0,ft0,fs1
    80005452:	23290a53          	fmv.d	fs4,fs2
    80005456:	c119                	beqz	a0,8000545c <svd_core+0x32a0>
    80005458:	27f0a06f          	j	8000fed6 <svd_core+0xdd1a>
    8000545c:	4801                	li	a6,0
    8000545e:	4881                	li	a7,0
    80005460:	a821                	j	80005478 <svd_core+0x32bc>
    80005462:	1b307053          	fdiv.d	ft0,ft0,fs3
    80005466:	00389513          	slli	a0,a7,0x3
    8000546a:	9566                	add	a0,a0,s9
    8000546c:	00053027          	fsd	ft0,0(a0)
    80005470:	0885                	addi	a7,a7,1
    80005472:	984e                	add	a6,a6,s3
    80005474:	21788c63          	beq	a7,s7,8000568c <svd_core+0x34d0>
    80005478:	1ba9c063          	blt	s3,s10,80005618 <svd_core+0x345c>
    8000547c:	4601                	li	a2,0
    8000547e:	033882b3          	mul	t0,a7,s3
    80005482:	f20000d3          	fmv.d.x	ft1,zero
    80005486:	471d                	li	a4,7
    80005488:	22108053          	fmv.d	ft0,ft1
    8000548c:	005607b3          	add	a5,a2,t0
    80005490:	078e                	slli	a5,a5,0x3
    80005492:	97da                	add	a5,a5,s6
    80005494:	0007bd03          	ld	s10,0(a5)
    80005498:	0087bc03          	ld	s8,8(a5)
    8000549c:	0107be03          	ld	t3,16(a5)
    800054a0:	0187be83          	ld	t4,24(a5)
    800054a4:	0207bf03          	ld	t5,32(a5)
    800054a8:	0287b303          	ld	t1,40(a5)
    800054ac:	0307b383          	ld	t2,48(a5)
    800054b0:	0387bf83          	ld	t6,56(a5)
    800054b4:	00361513          	slli	a0,a2,0x3
    800054b8:	00aa05b3          	add	a1,s4,a0
    800054bc:	0005bd83          	ld	s11,0(a1)
    800054c0:	00856693          	ori	a3,a0,8
    800054c4:	96d2                	add	a3,a3,s4
    800054c6:	0006b083          	ld	ra,0(a3)
    800054ca:	01056793          	ori	a5,a0,16
    800054ce:	97d2                	add	a5,a5,s4
    800054d0:	639c                	ld	a5,0(a5)
    800054d2:	01856413          	ori	s0,a0,24
    800054d6:	9452                	add	s0,s0,s4
    800054d8:	6000                	ld	s0,0(s0)
    800054da:	02056493          	ori	s1,a0,32
    800054de:	94d2                	add	s1,s1,s4
    800054e0:	6084                	ld	s1,0(s1)
    800054e2:	02856593          	ori	a1,a0,40
    800054e6:	95d2                	add	a1,a1,s4
    800054e8:	618c                	ld	a1,0(a1)
    800054ea:	03056513          	ori	a0,a0,48
    800054ee:	9552                	add	a0,a0,s4
    800054f0:	6108                	ld	a0,0(a0)
    800054f2:	00371693          	slli	a3,a4,0x3
    800054f6:	96d2                	add	a3,a3,s4
    800054f8:	6294                	ld	a3,0(a3)
    800054fa:	e042                	sd	a6,0(sp)
    800054fc:	6821                	lui	a6,0x8
    800054fe:	4788081b          	addiw	a6,a6,1144 # 8478 <buflen.1+0x8438>
    80005502:	980a                	add	a6,a6,sp
    80005504:	01a83023          	sd	s10,0(a6)
    80005508:	6802                	ld	a6,0(sp)
    8000550a:	6d21                	lui	s10,0x8
    8000550c:	480d0d1b          	addiw	s10,s10,1152 # 8480 <buflen.1+0x8440>
    80005510:	9d0a                	add	s10,s10,sp
    80005512:	018d3023          	sd	s8,0(s10)
    80005516:	6c21                	lui	s8,0x8
    80005518:	488c0c1b          	addiw	s8,s8,1160 # 8488 <buflen.1+0x8448>
    8000551c:	9c0a                	add	s8,s8,sp
    8000551e:	01cc3023          	sd	t3,0(s8)
    80005522:	6e21                	lui	t3,0x8
    80005524:	490e0e1b          	addiw	t3,t3,1168 # 8490 <buflen.1+0x8450>
    80005528:	9e0a                	add	t3,t3,sp
    8000552a:	01de3023          	sd	t4,0(t3)
    8000552e:	6e21                	lui	t3,0x8
    80005530:	498e0e1b          	addiw	t3,t3,1176 # 8498 <buflen.1+0x8458>
    80005534:	9e0a                	add	t3,t3,sp
    80005536:	01ee3023          	sd	t5,0(t3)
    8000553a:	6e21                	lui	t3,0x8
    8000553c:	4a0e0e1b          	addiw	t3,t3,1184 # 84a0 <buflen.1+0x8460>
    80005540:	9e0a                	add	t3,t3,sp
    80005542:	006e3023          	sd	t1,0(t3)
    80005546:	6321                	lui	t1,0x8
    80005548:	4a83031b          	addiw	t1,t1,1192 # 84a8 <buflen.1+0x8468>
    8000554c:	930a                	add	t1,t1,sp
    8000554e:	00733023          	sd	t2,0(t1)
    80005552:	6321                	lui	t1,0x8
    80005554:	4b03031b          	addiw	t1,t1,1200 # 84b0 <buflen.1+0x8470>
    80005558:	930a                	add	t1,t1,sp
    8000555a:	01f33023          	sd	t6,0(t1)
    8000555e:	6321                	lui	t1,0x8
    80005560:	4b83031b          	addiw	t1,t1,1208 # 84b8 <buflen.1+0x8478>
    80005564:	930a                	add	t1,t1,sp
    80005566:	01b33023          	sd	s11,0(t1)
    8000556a:	6321                	lui	t1,0x8
    8000556c:	4c03031b          	addiw	t1,t1,1216 # 84c0 <buflen.1+0x8480>
    80005570:	930a                	add	t1,t1,sp
    80005572:	00133023          	sd	ra,0(t1)
    80005576:	6321                	lui	t1,0x8
    80005578:	4c83031b          	addiw	t1,t1,1224 # 84c8 <buflen.1+0x8488>
    8000557c:	930a                	add	t1,t1,sp
    8000557e:	00f33023          	sd	a5,0(t1)
    80005582:	67a1                	lui	a5,0x8
    80005584:	4d07879b          	addiw	a5,a5,1232 # 84d0 <buflen.1+0x8490>
    80005588:	978a                	add	a5,a5,sp
    8000558a:	e380                	sd	s0,0(a5)
    8000558c:	67a1                	lui	a5,0x8
    8000558e:	4d87879b          	addiw	a5,a5,1240 # 84d8 <buflen.1+0x8498>
    80005592:	978a                	add	a5,a5,sp
    80005594:	e384                	sd	s1,0(a5)
    80005596:	67a1                	lui	a5,0x8
    80005598:	4e07879b          	addiw	a5,a5,1248 # 84e0 <buflen.1+0x84a0>
    8000559c:	978a                	add	a5,a5,sp
    8000559e:	e38c                	sd	a1,0(a5)
    800055a0:	65a1                	lui	a1,0x8
    800055a2:	4e85859b          	addiw	a1,a1,1256 # 84e8 <buflen.1+0x84a8>
    800055a6:	958a                	add	a1,a1,sp
    800055a8:	e188                	sd	a0,0(a1)
    800055aa:	6521                	lui	a0,0x8
    800055ac:	4f05051b          	addiw	a0,a0,1264 # 84f0 <buflen.1+0x84b0>
    800055b0:	950a                	add	a0,a0,sp
    800055b2:	e114                	sd	a3,0(a0)
    800055b4:	47c1                	li	a5,16
    800055b6:	22108153          	fmv.d	ft2,ft1
    800055ba:	00fa8533          	add	a0,s5,a5
    800055be:	ff053187          	fld	ft3,-16(a0)
    800055c2:	03053207          	fld	ft4,48(a0)
    800055c6:	1241f143          	fmadd.d	ft2,ft3,ft4,ft2
    800055ca:	ff853187          	fld	ft3,-8(a0)
    800055ce:	03853207          	fld	ft4,56(a0)
    800055d2:	1241f143          	fmadd.d	ft2,ft3,ft4,ft2
    800055d6:	00053187          	fld	ft3,0(a0)
    800055da:	04053207          	fld	ft4,64(a0)
    800055de:	1241f143          	fmadd.d	ft2,ft3,ft4,ft2
    800055e2:	00853187          	fld	ft3,8(a0)
    800055e6:	04853207          	fld	ft4,72(a0)
    800055ea:	1241f143          	fmadd.d	ft2,ft3,ft4,ft2
    800055ee:	02078793          	addi	a5,a5,32
    800055f2:	fd2794e3          	bne	a5,s2,800055ba <svd_core+0x33fe>
    800055f6:	02207053          	fadd.d	ft0,ft0,ft2
    800055fa:	0621                	addi	a2,a2,8
    800055fc:	00766513          	ori	a0,a2,7
    80005600:	0721                	addi	a4,a4,8
    80005602:	e93545e3          	blt	a0,s3,8000548c <svd_core+0x32d0>
    80005606:	4d21                	li	s10,8
    80005608:	4405                	li	s0,1
    8000560a:	4389                	li	t2,2
    8000560c:	4c0d                	li	s8,3
    8000560e:	0006051b          	sext.w	a0,a2
    80005612:	e53558e3          	bge	a0,s3,80005462 <svd_core+0x32a6>
    80005616:	a801                	j	80005626 <svd_core+0x346a>
    80005618:	f2000053          	fmv.d.x	ft0,zero
    8000561c:	4601                	li	a2,0
    8000561e:	0006051b          	sext.w	a0,a2
    80005622:	e53550e3          	bge	a0,s3,80005462 <svd_core+0x32a6>
    80005626:	02061513          	slli	a0,a2,0x20
    8000562a:	02055593          	srli	a1,a0,0x20
    8000562e:	7626                	ld	a2,104(sp)
    80005630:	8e0d                	sub	a2,a2,a1
    80005632:	95c2                	add	a1,a1,a6
    80005634:	058e                	slli	a1,a1,0x3
    80005636:	00bb06b3          	add	a3,s6,a1
    8000563a:	8175                	srli	a0,a0,0x1d
    8000563c:	012c                	addi	a1,sp,136
    8000563e:	00a58733          	add	a4,a1,a0
    80005642:	0006b087          	fld	ft1,0(a3)
    80005646:	ff073107          	fld	ft2,-16(a4)
    8000564a:	0220f043          	fmadd.d	ft0,ft1,ft2,ft0
    8000564e:	e0860ae3          	beq	a2,s0,80005462 <svd_core+0x32a6>
    80005652:	0086b087          	fld	ft1,8(a3)
    80005656:	ff873107          	fld	ft2,-8(a4)
    8000565a:	0220f043          	fmadd.d	ft0,ft1,ft2,ft0
    8000565e:	e07602e3          	beq	a2,t2,80005462 <svd_core+0x32a6>
    80005662:	0106b087          	fld	ft1,16(a3)
    80005666:	00073107          	fld	ft2,0(a4)
    8000566a:	0220f043          	fmadd.d	ft0,ft1,ft2,ft0
    8000566e:	df860ae3          	beq	a2,s8,80005462 <svd_core+0x32a6>
    80005672:	0186b087          	fld	ft1,24(a3)
    80005676:	00873107          	fld	ft2,8(a4)
    8000567a:	0220f043          	fmadd.d	ft0,ft1,ft2,ft0
    8000567e:	1671                	addi	a2,a2,-4
    80005680:	02068693          	addi	a3,a3,32
    80005684:	02070713          	addi	a4,a4,32
    80005688:	fe4d                	bnez	a2,80005642 <svd_core+0x3486>
    8000568a:	bbe1                	j	80005462 <svd_core+0x32a6>
    8000568c:	18a8                	addi	a0,sp,120
    8000568e:	20000613          	li	a2,512
    80005692:	4581                	li	a1,0
    80005694:	7490a0ef          	jal	800105dc <memset>
    80005698:	4389                	li	t2,2
    8000569a:	f2000a53          	fmv.d.x	fs4,zero
    8000569e:	234a0953          	fmv.d	fs2,fs4
    800056a2:	04000493          	li	s1,64
    800056a6:	5f305463          	blez	s3,80005c8e <svd_core+0x3ad2>
    800056aa:	4801                	li	a6,0
    800056ac:	4881                	li	a7,0
    800056ae:	a819                	j	800056c4 <svd_core+0x3508>
    800056b0:	00389513          	slli	a0,a7,0x3
    800056b4:	9552                	add	a0,a0,s4
    800056b6:	00053027          	fsd	ft0,0(a0)
    800056ba:	0885                	addi	a7,a7,1
    800056bc:	985e                	add	a6,a6,s7
    800056be:	7526                	ld	a0,104(sp)
    800056c0:	20a88f63          	beq	a7,a0,800058de <svd_core+0x3722>
    800056c4:	1babe363          	bltu	s7,s10,8000586a <svd_core+0x36ae>
    800056c8:	4601                	li	a2,0
    800056ca:	037882b3          	mul	t0,a7,s7
    800056ce:	f20000d3          	fmv.d.x	ft1,zero
    800056d2:	471d                	li	a4,7
    800056d4:	22108053          	fmv.d	ft0,ft1
    800056d8:	005607b3          	add	a5,a2,t0
    800056dc:	078e                	slli	a5,a5,0x3
    800056de:	7546                	ld	a0,112(sp)
    800056e0:	97aa                	add	a5,a5,a0
    800056e2:	0007bd03          	ld	s10,0(a5)
    800056e6:	0087bc03          	ld	s8,8(a5)
    800056ea:	0107be03          	ld	t3,16(a5)
    800056ee:	0187be83          	ld	t4,24(a5)
    800056f2:	0207bf03          	ld	t5,32(a5)
    800056f6:	0287b303          	ld	t1,40(a5)
    800056fa:	0307b383          	ld	t2,48(a5)
    800056fe:	0387bf83          	ld	t6,56(a5)
    80005702:	00361513          	slli	a0,a2,0x3
    80005706:	00ac85b3          	add	a1,s9,a0
    8000570a:	0005bd83          	ld	s11,0(a1)
    8000570e:	00856693          	ori	a3,a0,8
    80005712:	96e6                	add	a3,a3,s9
    80005714:	0006b083          	ld	ra,0(a3)
    80005718:	01056793          	ori	a5,a0,16
    8000571c:	97e6                	add	a5,a5,s9
    8000571e:	639c                	ld	a5,0(a5)
    80005720:	01856413          	ori	s0,a0,24
    80005724:	9466                	add	s0,s0,s9
    80005726:	6000                	ld	s0,0(s0)
    80005728:	02056493          	ori	s1,a0,32
    8000572c:	94e6                	add	s1,s1,s9
    8000572e:	6084                	ld	s1,0(s1)
    80005730:	02856593          	ori	a1,a0,40
    80005734:	95e6                	add	a1,a1,s9
    80005736:	618c                	ld	a1,0(a1)
    80005738:	03056513          	ori	a0,a0,48
    8000573c:	9566                	add	a0,a0,s9
    8000573e:	6108                	ld	a0,0(a0)
    80005740:	00371693          	slli	a3,a4,0x3
    80005744:	96e6                	add	a3,a3,s9
    80005746:	6294                	ld	a3,0(a3)
    80005748:	e042                	sd	a6,0(sp)
    8000574a:	6821                	lui	a6,0x8
    8000574c:	4788081b          	addiw	a6,a6,1144 # 8478 <buflen.1+0x8438>
    80005750:	980a                	add	a6,a6,sp
    80005752:	01a83023          	sd	s10,0(a6)
    80005756:	6802                	ld	a6,0(sp)
    80005758:	6d21                	lui	s10,0x8
    8000575a:	480d0d1b          	addiw	s10,s10,1152 # 8480 <buflen.1+0x8440>
    8000575e:	9d0a                	add	s10,s10,sp
    80005760:	018d3023          	sd	s8,0(s10)
    80005764:	6c21                	lui	s8,0x8
    80005766:	488c0c1b          	addiw	s8,s8,1160 # 8488 <buflen.1+0x8448>
    8000576a:	9c0a                	add	s8,s8,sp
    8000576c:	01cc3023          	sd	t3,0(s8)
    80005770:	6e21                	lui	t3,0x8
    80005772:	490e0e1b          	addiw	t3,t3,1168 # 8490 <buflen.1+0x8450>
    80005776:	9e0a                	add	t3,t3,sp
    80005778:	01de3023          	sd	t4,0(t3)
    8000577c:	6e21                	lui	t3,0x8
    8000577e:	498e0e1b          	addiw	t3,t3,1176 # 8498 <buflen.1+0x8458>
