
mainop_O2U4_NY.riscv:     file format elf64-littleriscv


Disassembly of section .text.init:

0000000080000000 <_start>:
    80000000:	4081                	li	ra,0
    80000002:	4101                	li	sp,0
    80000004:	4181                	li	gp,0
    80000006:	4201                	li	tp,0
    80000008:	4281                	li	t0,0
    8000000a:	4301                	li	t1,0
    8000000c:	4381                	li	t2,0
    8000000e:	4401                	li	s0,0
    80000010:	4481                	li	s1,0
    80000012:	4501                	li	a0,0
    80000014:	4581                	li	a1,0
    80000016:	4601                	li	a2,0
    80000018:	4681                	li	a3,0
    8000001a:	4701                	li	a4,0
    8000001c:	4781                	li	a5,0
    8000001e:	4801                	li	a6,0
    80000020:	4881                	li	a7,0
    80000022:	4901                	li	s2,0
    80000024:	4981                	li	s3,0
    80000026:	4a01                	li	s4,0
    80000028:	4a81                	li	s5,0
    8000002a:	4b01                	li	s6,0
    8000002c:	4b81                	li	s7,0
    8000002e:	4c01                	li	s8,0
    80000030:	4c81                	li	s9,0
    80000032:	4d01                	li	s10,0
    80000034:	4d81                	li	s11,0
    80000036:	4e01                	li	t3,0
    80000038:	4e81                	li	t4,0
    8000003a:	4f01                	li	t5,0
    8000003c:	4f81                	li	t6,0
    8000003e:	62f9                	lui	t0,0x1e
    80000040:	3002a073          	csrs	mstatus,t0
    80000044:	4285                	li	t0,1
    80000046:	02fe                	slli	t0,t0,0x1f
    80000048:	0002d863          	bgez	t0,80000058 <_start+0x58>
    8000004c:	4505                	li	a0,1
    8000004e:	00001297          	auipc	t0,0x1
    80000052:	faa2a923          	sw	a0,-78(t0) # 80001000 <tohost>
    80000056:	bfdd                	j	8000004c <_start+0x4c>
    80000058:	00000297          	auipc	t0,0x0
    8000005c:	09028293          	addi	t0,t0,144 # 800000e8 <_start+0xe8>
    80000060:	30529073          	csrw	mtvec,t0
    80000064:	00301073          	fscsr	zero
    80000068:	f0000053          	fmv.w.x	ft0,zero
    8000006c:	f00000d3          	fmv.w.x	ft1,zero
    80000070:	f0000153          	fmv.w.x	ft2,zero
    80000074:	f00001d3          	fmv.w.x	ft3,zero
    80000078:	f0000253          	fmv.w.x	ft4,zero
    8000007c:	f00002d3          	fmv.w.x	ft5,zero
    80000080:	f0000353          	fmv.w.x	ft6,zero
    80000084:	f00003d3          	fmv.w.x	ft7,zero
    80000088:	f0000453          	fmv.w.x	fs0,zero
    8000008c:	f00004d3          	fmv.w.x	fs1,zero
    80000090:	f0000553          	fmv.w.x	fa0,zero
    80000094:	f00005d3          	fmv.w.x	fa1,zero
    80000098:	f0000653          	fmv.w.x	fa2,zero
    8000009c:	f00006d3          	fmv.w.x	fa3,zero
    800000a0:	f0000753          	fmv.w.x	fa4,zero
    800000a4:	f00007d3          	fmv.w.x	fa5,zero
    800000a8:	f0000853          	fmv.w.x	fa6,zero
    800000ac:	f00008d3          	fmv.w.x	fa7,zero
    800000b0:	f0000953          	fmv.w.x	fs2,zero
    800000b4:	f00009d3          	fmv.w.x	fs3,zero
    800000b8:	f0000a53          	fmv.w.x	fs4,zero
    800000bc:	f0000ad3          	fmv.w.x	fs5,zero
    800000c0:	f0000b53          	fmv.w.x	fs6,zero
    800000c4:	f0000bd3          	fmv.w.x	fs7,zero
    800000c8:	f0000c53          	fmv.w.x	fs8,zero
    800000cc:	f0000cd3          	fmv.w.x	fs9,zero
    800000d0:	f0000d53          	fmv.w.x	fs10,zero
    800000d4:	f0000dd3          	fmv.w.x	fs11,zero
    800000d8:	f0000e53          	fmv.w.x	ft8,zero
    800000dc:	f0000ed3          	fmv.w.x	ft9,zero
    800000e0:	f0000f53          	fmv.w.x	ft10,zero
    800000e4:	f0000fd3          	fmv.w.x	ft11,zero
    800000e8:	00000297          	auipc	t0,0x0
    800000ec:	03828293          	addi	t0,t0,56 # 80000120 <trap_entry>
    800000f0:	30529073          	csrw	mtvec,t0
    800000f4:	0000f197          	auipc	gp,0xf
    800000f8:	26c18193          	addi	gp,gp,620 # 8000f360 <__global_pointer$>
    800000fc:	89f18213          	addi	tp,gp,-1889 # 8000ebff <_end+0x3f>
    80000100:	fc027213          	andi	tp,tp,-64
    80000104:	f1402573          	csrr	a0,mhartid
    80000108:	4585                	li	a1,1
    8000010a:	00b57063          	bgeu	a0,a1,8000010a <_start+0x10a>
    8000010e:	00150113          	addi	sp,a0,1
    80000112:	0146                	slli	sp,sp,0x11
    80000114:	9112                	add	sp,sp,tp
    80000116:	01151613          	slli	a2,a0,0x11
    8000011a:	9232                	add	tp,tp,a2
    8000011c:	5660e06f          	j	8000e682 <_init>

0000000080000120 <trap_entry>:
    80000120:	716d                	addi	sp,sp,-272
    80000122:	e406                	sd	ra,8(sp)
    80000124:	e80a                	sd	sp,16(sp)
    80000126:	ec0e                	sd	gp,24(sp)
    80000128:	f012                	sd	tp,32(sp)
    8000012a:	f416                	sd	t0,40(sp)
    8000012c:	f81a                	sd	t1,48(sp)
    8000012e:	fc1e                	sd	t2,56(sp)
    80000130:	e0a2                	sd	s0,64(sp)
    80000132:	e4a6                	sd	s1,72(sp)
    80000134:	e8aa                	sd	a0,80(sp)
    80000136:	ecae                	sd	a1,88(sp)
    80000138:	f0b2                	sd	a2,96(sp)
    8000013a:	f4b6                	sd	a3,104(sp)
    8000013c:	f8ba                	sd	a4,112(sp)
    8000013e:	fcbe                	sd	a5,120(sp)
    80000140:	e142                	sd	a6,128(sp)
    80000142:	e546                	sd	a7,136(sp)
    80000144:	e94a                	sd	s2,144(sp)
    80000146:	ed4e                	sd	s3,152(sp)
    80000148:	f152                	sd	s4,160(sp)
    8000014a:	f556                	sd	s5,168(sp)
    8000014c:	f95a                	sd	s6,176(sp)
    8000014e:	fd5e                	sd	s7,184(sp)
    80000150:	e1e2                	sd	s8,192(sp)
    80000152:	e5e6                	sd	s9,200(sp)
    80000154:	e9ea                	sd	s10,208(sp)
    80000156:	edee                	sd	s11,216(sp)
    80000158:	f1f2                	sd	t3,224(sp)
    8000015a:	f5f6                	sd	t4,232(sp)
    8000015c:	f9fa                	sd	t5,240(sp)
    8000015e:	fdfe                	sd	t6,248(sp)
    80000160:	34202573          	csrr	a0,mcause
    80000164:	341025f3          	csrr	a1,mepc
    80000168:	860a                	mv	a2,sp
    8000016a:	3500e0ef          	jal	8000e4ba <handle_trap>
    8000016e:	34151073          	csrw	mepc,a0
    80000172:	6289                	lui	t0,0x2
    80000174:	8002829b          	addiw	t0,t0,-2048 # 1800 <buflen.1+0x17c0>
    80000178:	3002a073          	csrs	mstatus,t0
    8000017c:	60a2                	ld	ra,8(sp)
    8000017e:	6142                	ld	sp,16(sp)
    80000180:	61e2                	ld	gp,24(sp)
    80000182:	7202                	ld	tp,32(sp)
    80000184:	72a2                	ld	t0,40(sp)
    80000186:	7342                	ld	t1,48(sp)
    80000188:	73e2                	ld	t2,56(sp)
    8000018a:	6406                	ld	s0,64(sp)
    8000018c:	64a6                	ld	s1,72(sp)
    8000018e:	6546                	ld	a0,80(sp)
    80000190:	65e6                	ld	a1,88(sp)
    80000192:	7606                	ld	a2,96(sp)
    80000194:	76a6                	ld	a3,104(sp)
    80000196:	7746                	ld	a4,112(sp)
    80000198:	77e6                	ld	a5,120(sp)
    8000019a:	680a                	ld	a6,128(sp)
    8000019c:	68aa                	ld	a7,136(sp)
    8000019e:	694a                	ld	s2,144(sp)
    800001a0:	69ea                	ld	s3,152(sp)
    800001a2:	7a0a                	ld	s4,160(sp)
    800001a4:	7aaa                	ld	s5,168(sp)
    800001a6:	7b4a                	ld	s6,176(sp)
    800001a8:	7bea                	ld	s7,184(sp)
    800001aa:	6c0e                	ld	s8,192(sp)
    800001ac:	6cae                	ld	s9,200(sp)
    800001ae:	6d4e                	ld	s10,208(sp)
    800001b0:	6dee                	ld	s11,216(sp)
    800001b2:	7e0e                	ld	t3,224(sp)
    800001b4:	7eae                	ld	t4,232(sp)
    800001b6:	7f4e                	ld	t5,240(sp)
    800001b8:	7fee                	ld	t6,248(sp)
    800001ba:	6151                	addi	sp,sp,272
    800001bc:	30200073          	mret
    800001c0:	0000                	unimp

Disassembly of section .text:

0000000080002000 <d2ull>:
    80002000:	e2050553          	fmv.x.d	a0,fa0
    80002004:	8082                	ret

0000000080002006 <ull2d>:
    80002006:	f2050553          	fmv.d.x	fa0,a0
    8000200a:	8082                	ret

000000008000200c <svd_core>:
    8000200c:	81010113          	addi	sp,sp,-2032
    80002010:	7e113423          	sd	ra,2024(sp)
    80002014:	7e813023          	sd	s0,2016(sp)
    80002018:	7c913c23          	sd	s1,2008(sp)
    8000201c:	7d213823          	sd	s2,2000(sp)
    80002020:	7d313423          	sd	s3,1992(sp)
    80002024:	7d413023          	sd	s4,1984(sp)
    80002028:	7b513c23          	sd	s5,1976(sp)
    8000202c:	7b613823          	sd	s6,1968(sp)
    80002030:	7b713423          	sd	s7,1960(sp)
    80002034:	7b813023          	sd	s8,1952(sp)
    80002038:	79913c23          	sd	s9,1944(sp)
    8000203c:	79a13823          	sd	s10,1936(sp)
    80002040:	79b13423          	sd	s11,1928(sp)
    80002044:	78813027          	fsd	fs0,1920(sp)
    80002048:	76913c27          	fsd	fs1,1912(sp)
    8000204c:	77213827          	fsd	fs2,1904(sp)
    80002050:	77313427          	fsd	fs3,1896(sp)
    80002054:	77413027          	fsd	fs4,1888(sp)
    80002058:	6721                	lui	a4,0x8
    8000205a:	d807071b          	addiw	a4,a4,-640 # 7d80 <buflen.1+0x7d40>
    8000205e:	40e10133          	sub	sp,sp,a4
    80002062:	e5b2                	sd	a2,200(sp)
    80002064:	ec2e                	sd	a1,24(sp)
    80002066:	ed2a                	sd	a0,152(sp)
    80002068:	e1b6                	sd	a3,192(sp)
    8000206a:	00d04463          	bgtz	a3,80002072 <svd_core+0x66>
    8000206e:	6cb0b06f          	j	8000df38 <svd_core+0xbf2c>
    80002072:	4901                	li	s2,0
    80002074:	4601                	li	a2,0
    80002076:	4561                	li	a0,24
    80002078:	67ae                	ld	a5,200(sp)
    8000207a:	02a78533          	mul	a0,a5,a0
    8000207e:	0017f593          	andi	a1,a5,1
    80002082:	fcae                	sd	a1,120(sp)
    80002084:	ffe7fe13          	andi	t3,a5,-2
    80002088:	4e010c93          	addi	s9,sp,1248
    8000208c:	00ac8c33          	add	s8,s9,a0
    80002090:	00679293          	slli	t0,a5,0x6
    80002094:	00579393          	slli	t2,a5,0x5
    80002098:	00479693          	slli	a3,a5,0x4
    8000209c:	00dc8ab3          	add	s5,s9,a3
    800020a0:	65ea                	ld	a1,152(sp)
    800020a2:	01058993          	addi	s3,a1,16
    800020a6:	670e                	ld	a4,192(sp)
    800020a8:	00471f13          	slli	t5,a4,0x4
    800020ac:	00379593          	slli	a1,a5,0x3
    800020b0:	00bc8a33          	add	s4,s9,a1
    800020b4:	4e810e93          	addi	t4,sp,1256
    800020b8:	00ae8d33          	add	s10,t4,a0
    800020bc:	00de80b3          	add	ra,t4,a3
    800020c0:	00371513          	slli	a0,a4,0x3
    800020c4:	f4aa                	sd	a0,104(sp)
    800020c6:	00a98fb3          	add	t6,s3,a0
    800020ca:	f8ae                	sd	a1,112(sp)
    800020cc:	00be8833          	add	a6,t4,a1
    800020d0:	4589                	li	a1,2
    800020d2:	e9d2                	sd	s4,208(sp)
    800020d4:	fd56                	sd	s5,184(sp)
    800020d6:	4e010513          	addi	a0,sp,1248
    800020da:	edaa                	sd	a0,216(sp)
    800020dc:	f962                	sd	s8,176(sp)
    800020de:	f096                	sd	t0,96(sp)
    800020e0:	a03d                	j	8000210e <svd_core+0x102>
    800020e2:	0621                	addi	a2,a2,8
    800020e4:	9916                	add	s2,s2,t0
    800020e6:	04098993          	addi	s3,s3,64
    800020ea:	040f8f93          	addi	t6,t6,64
    800020ee:	754a                	ld	a0,176(sp)
    800020f0:	9516                	add	a0,a0,t0
    800020f2:	f92a                	sd	a0,176(sp)
    800020f4:	656e                	ld	a0,216(sp)
    800020f6:	9516                	add	a0,a0,t0
    800020f8:	edaa                	sd	a0,216(sp)
    800020fa:	756a                	ld	a0,184(sp)
    800020fc:	9516                	add	a0,a0,t0
    800020fe:	fd2a                	sd	a0,184(sp)
    80002100:	05a1                	addi	a1,a1,8
    80002102:	654e                	ld	a0,208(sp)
    80002104:	9516                	add	a0,a0,t0
    80002106:	e9aa                	sd	a0,208(sp)
    80002108:	650e                	ld	a0,192(sp)
    8000210a:	16a67b63          	bgeu	a2,a0,80002280 <svd_core+0x274>
    8000210e:	652e                	ld	a0,200(sp)
    80002110:	fca059e3          	blez	a0,800020e2 <svd_core+0xd6>
    80002114:	f52e                	sd	a1,168(sp)
    80002116:	658e                	ld	a1,192(sp)
    80002118:	40c5873b          	subw	a4,a1,a2
    8000211c:	4521                	li	a0,8
    8000211e:	00a74363          	blt	a4,a0,80002124 <svd_core+0x118>
    80002122:	4721                	li	a4,8
    80002124:	40c58db3          	sub	s11,a1,a2
    80002128:	4505                	li	a0,1
    8000212a:	65ae                	ld	a1,200(sp)
    8000212c:	00a59563          	bne	a1,a0,80002136 <svd_core+0x12a>
    80002130:	4b01                	li	s6,0
    80002132:	75aa                	ld	a1,168(sp)
    80002134:	a8e9                	j	8000220e <svd_core+0x202>
    80002136:	e932                	sd	a2,144(sp)
    80002138:	4b01                	li	s6,0
    8000213a:	4501                	li	a0,0
    8000213c:	e17e                	sd	t6,128(sp)
    8000213e:	e54e                	sd	s3,136(sp)
    80002140:	f14a                	sd	s2,160(sp)
    80002142:	a801                	j	80002152 <svd_core+0x146>
    80002144:	0b09                	addi	s6,s6,2
    80002146:	2509                	addiw	a0,a0,2
    80002148:	0941                	addi	s2,s2,16
    8000214a:	99fa                	add	s3,s3,t5
    8000214c:	9ffa                	add	t6,t6,t5
    8000214e:	0bc50763          	beq	a0,t3,800021fc <svd_core+0x1f0>
    80002152:	ffb059e3          	blez	s11,80002144 <svd_core+0x138>
    80002156:	4881                	li	a7,0
    80002158:	834e                	mv	t1,s3
    8000215a:	82ca                	mv	t0,s2
    8000215c:	ff033583          	ld	a1,-16(t1)
    80002160:	005c8633          	add	a2,s9,t0
    80002164:	00188693          	addi	a3,a7,1
    80002168:	e20c                	sd	a1,0(a2)
    8000216a:	02e6df63          	bge	a3,a4,800021a8 <svd_core+0x19c>
    8000216e:	ff833583          	ld	a1,-8(t1)
    80002172:	005a0633          	add	a2,s4,t0
    80002176:	00288693          	addi	a3,a7,2
    8000217a:	e20c                	sd	a1,0(a2)
    8000217c:	02e6d663          	bge	a3,a4,800021a8 <svd_core+0x19c>
    80002180:	00033583          	ld	a1,0(t1)
    80002184:	005a8633          	add	a2,s5,t0
    80002188:	00388693          	addi	a3,a7,3
    8000218c:	e20c                	sd	a1,0(a2)
    8000218e:	00e6dd63          	bge	a3,a4,800021a8 <svd_core+0x19c>
    80002192:	00833583          	ld	a1,8(t1)
    80002196:	005c0633          	add	a2,s8,t0
    8000219a:	e20c                	sd	a1,0(a2)
    8000219c:	0891                	addi	a7,a7,4
    8000219e:	929e                	add	t0,t0,t2
    800021a0:	02030313          	addi	t1,t1,32
    800021a4:	fae8cce3          	blt	a7,a4,8000215c <svd_core+0x150>
    800021a8:	f9b05ee3          	blez	s11,80002144 <svd_core+0x138>
    800021ac:	4481                	li	s1,0
    800021ae:	87fe                	mv	a5,t6
    800021b0:	844a                	mv	s0,s2
    800021b2:	ff07b583          	ld	a1,-16(a5)
    800021b6:	008e8633          	add	a2,t4,s0
    800021ba:	00148693          	addi	a3,s1,1
    800021be:	e20c                	sd	a1,0(a2)
    800021c0:	f8e6d2e3          	bge	a3,a4,80002144 <svd_core+0x138>
    800021c4:	ff87b583          	ld	a1,-8(a5)
    800021c8:	00880633          	add	a2,a6,s0
    800021cc:	00248693          	addi	a3,s1,2
    800021d0:	e20c                	sd	a1,0(a2)
    800021d2:	f6e6d9e3          	bge	a3,a4,80002144 <svd_core+0x138>
    800021d6:	638c                	ld	a1,0(a5)
    800021d8:	00808633          	add	a2,ra,s0
    800021dc:	00348693          	addi	a3,s1,3
    800021e0:	e20c                	sd	a1,0(a2)
    800021e2:	f6e6d1e3          	bge	a3,a4,80002144 <svd_core+0x138>
    800021e6:	678c                	ld	a1,8(a5)
    800021e8:	008d0633          	add	a2,s10,s0
    800021ec:	e20c                	sd	a1,0(a2)
    800021ee:	0491                	addi	s1,s1,4
    800021f0:	941e                	add	s0,s0,t2
    800021f2:	02078793          	addi	a5,a5,32
    800021f6:	fae4cee3          	blt	s1,a4,800021b2 <svd_core+0x1a6>
    800021fa:	b7a9                	j	80002144 <svd_core+0x138>
    800021fc:	790a                	ld	s2,160(sp)
    800021fe:	664a                	ld	a2,144(sp)
    80002200:	7566                	ld	a0,120(sp)
    80002202:	7286                	ld	t0,96(sp)
    80002204:	69aa                	ld	s3,136(sp)
    80002206:	6f8a                	ld	t6,128(sp)
    80002208:	75aa                	ld	a1,168(sp)
    8000220a:	ec050ce3          	beqz	a0,800020e2 <svd_core+0xd6>
    8000220e:	edb05ae3          	blez	s11,800020e2 <svd_core+0xd6>
    80002212:	650e                	ld	a0,192(sp)
    80002214:	02ab07b3          	mul	a5,s6,a0
    80002218:	4501                	li	a0,0
    8000221a:	003b1693          	slli	a3,s6,0x3
    8000221e:	97ae                	add	a5,a5,a1
    80002220:	078e                	slli	a5,a5,0x3
    80002222:	65ea                	ld	a1,152(sp)
    80002224:	97ae                	add	a5,a5,a1
    80002226:	75aa                	ld	a1,168(sp)
    80002228:	ff07b883          	ld	a7,-16(a5)
    8000222c:	64ee                	ld	s1,216(sp)
    8000222e:	00d48433          	add	s0,s1,a3
    80002232:	00150493          	addi	s1,a0,1
    80002236:	01143023          	sd	a7,0(s0)
    8000223a:	eae4d4e3          	bge	s1,a4,800020e2 <svd_core+0xd6>
    8000223e:	ff87b883          	ld	a7,-8(a5)
    80002242:	64ce                	ld	s1,208(sp)
    80002244:	00d48433          	add	s0,s1,a3
    80002248:	00250493          	addi	s1,a0,2
    8000224c:	01143023          	sd	a7,0(s0)
    80002250:	e8e4d9e3          	bge	s1,a4,800020e2 <svd_core+0xd6>
    80002254:	0007b883          	ld	a7,0(a5)
    80002258:	74ea                	ld	s1,184(sp)
    8000225a:	00d48433          	add	s0,s1,a3
    8000225e:	00350493          	addi	s1,a0,3
    80002262:	01143023          	sd	a7,0(s0)
    80002266:	e6e4dee3          	bge	s1,a4,800020e2 <svd_core+0xd6>
    8000226a:	6784                	ld	s1,8(a5)
    8000226c:	744a                	ld	s0,176(sp)
    8000226e:	9436                	add	s0,s0,a3
    80002270:	e004                	sd	s1,0(s0)
    80002272:	0511                	addi	a0,a0,4
    80002274:	969e                	add	a3,a3,t2
    80002276:	02078793          	addi	a5,a5,32
    8000227a:	fae547e3          	blt	a0,a4,80002228 <svd_core+0x21c>
    8000227e:	b595                	j	800020e2 <svd_core+0xd6>
    80002280:	650e                	ld	a0,192(sp)
    80002282:	00a04463          	bgtz	a0,8000228a <svd_core+0x27e>
    80002286:	4b30b06f          	j	8000df38 <svd_core+0xbf2c>
    8000228a:	4701                	li	a4,0
    8000228c:	557d                	li	a0,-1
    8000228e:	02055d13          	srli	s10,a0,0x20
    80002292:	678e                	ld	a5,192(sp)
    80002294:	ff87851b          	addiw	a0,a5,-8
    80002298:	e52a                	sd	a0,136(sp)
    8000229a:	0035551b          	srliw	a0,a0,0x3
    8000229e:	0505                	addi	a0,a0,1
    800022a0:	64ae                	ld	s1,200(sp)
    800022a2:	fff4859b          	addiw	a1,s1,-1
    800022a6:	fc2e                	sd	a1,56(sp)
    800022a8:	0035d59b          	srliw	a1,a1,0x3
    800022ac:	0585                	addi	a1,a1,1
    800022ae:	ff84861b          	addiw	a2,s1,-8
    800022b2:	f532                	sd	a2,168(sp)
    800022b4:	0036561b          	srliw	a2,a2,0x3
    800022b8:	0605                	addi	a2,a2,1
    800022ba:	02049693          	slli	a3,s1,0x20
    800022be:	9281                	srli	a3,a3,0x20
    800022c0:	fd36                	sd	a3,184(sp)
    800022c2:	00157693          	andi	a3,a0,1
    800022c6:	e136                	sd	a3,128(sp)
    800022c8:	ffe57c13          	andi	s8,a0,-2
    800022cc:	0015f513          	andi	a0,a1,1
    800022d0:	f82a                	sd	a0,48(sp)
    800022d2:	ffe5f513          	andi	a0,a1,-2
    800022d6:	fcaa                	sd	a0,120(sp)
    800022d8:	00167513          	andi	a0,a2,1
    800022dc:	f12a                	sd	a0,160(sp)
    800022de:	ffe67c93          	andi	s9,a2,-2
    800022e2:	656a                	ld	a0,152(sp)
    800022e4:	04050513          	addi	a0,a0,64
    800022e8:	e4aa                	sd	a0,72(sp)
    800022ea:	40f007b3          	neg	a5,a5
    800022ee:	40900533          	neg	a0,s1
    800022f2:	f92a                	sd	a0,176(sp)
    800022f4:	2e010b13          	addi	s6,sp,736
    800022f8:	3ff00513          	li	a0,1023
    800022fc:	1552                	slli	a0,a0,0x34
    800022fe:	e82a                	sd	a0,16(sp)
    80002300:	4a05                	li	s4,1
    80002302:	f2000453          	fmv.d.x	fs0,zero
    80002306:	0e010a93          	addi	s5,sp,224
    8000230a:	4909                	li	s2,2
    8000230c:	498d                	li	s3,3
    8000230e:	ede6                	sd	s9,216(sp)
    80002310:	e9e2                	sd	s8,208(sp)
    80002312:	e93e                	sd	a5,144(sp)
    80002314:	f03a                	sd	a4,32(sp)
    80002316:	1588                	addi	a0,sp,736
    80002318:	20000613          	li	a2,512
    8000231c:	4581                	li	a1,0
    8000231e:	0000c097          	auipc	ra,0xc
    80002322:	314080e7          	jalr	788(ra) # 8000e632 <memset>
    80002326:	1d88                	addi	a0,sp,752
    80002328:	658e                	ld	a1,192(sp)
    8000232a:	6642                	ld	a2,16(sp)
    8000232c:	fec53823          	sd	a2,-16(a0)
    80002330:	01458e63          	beq	a1,s4,8000234c <svd_core+0x340>
    80002334:	fec53c23          	sd	a2,-8(a0)
    80002338:	01258a63          	beq	a1,s2,8000234c <svd_core+0x340>
    8000233c:	e110                	sd	a2,0(a0)
    8000233e:	01358763          	beq	a1,s3,8000234c <svd_core+0x340>
    80002342:	e510                	sd	a2,8(a0)
    80002344:	15f1                	addi	a1,a1,-4
    80002346:	02050513          	addi	a0,a0,32
    8000234a:	f1ed                	bnez	a1,8000232c <svd_core+0x320>
    8000234c:	4501                	li	a0,0
    8000234e:	22840a53          	fmv.d	fs4,fs0
    80002352:	f42a                	sd	a0,40(sp)
    80002354:	1188                	addi	a0,sp,224
    80002356:	20000613          	li	a2,512
    8000235a:	4581                	li	a1,0
    8000235c:	0000c097          	auipc	ra,0xc
    80002360:	2d6080e7          	jalr	726(ra) # 8000e632 <memset>
    80002364:	4421                	li	s0,8
    80002366:	67ca                	ld	a5,144(sp)
    80002368:	22840953          	fmv.d	fs2,fs0
    8000236c:	75a6                	ld	a1,104(sp)
    8000236e:	652e                	ld	a0,200(sp)
    80002370:	46a05463          	blez	a0,800027d8 <svd_core+0x7cc>
    80002374:	4989                	li	s3,2
    80002376:	4881                	li	a7,0
    80002378:	4809                	li	a6,2
    8000237a:	6926                	ld	s2,72(sp)
    8000237c:	a829                	j	80002396 <svd_core+0x38a>
    8000237e:	00389513          	slli	a0,a7,0x3
    80002382:	9556                	add	a0,a0,s5
    80002384:	00053027          	fsd	ft0,0(a0)
    80002388:	0885                	addi	a7,a7,1
    8000238a:	992e                	add	s2,s2,a1
    8000238c:	650e                	ld	a0,192(sp)
    8000238e:	982a                	add	a6,a6,a0
    80002390:	756a                	ld	a0,184(sp)
    80002392:	26a88463          	beq	a7,a0,800025fa <svd_core+0x5ee>
    80002396:	650e                	ld	a0,192(sp)
    80002398:	00856d63          	bltu	a0,s0,800023b2 <svd_core+0x3a6>
    8000239c:	652a                	ld	a0,136(sp)
    8000239e:	00857e63          	bgeu	a0,s0,800023ba <svd_core+0x3ae>
    800023a2:	4281                	li	t0,0
    800023a4:	4b9d                	li	s7,7
    800023a6:	22840053          	fmv.d	ft0,fs0
    800023aa:	650a                	ld	a0,128(sp)
    800023ac:	10051463          	bnez	a0,800024b4 <svd_core+0x4a8>
    800023b0:	aa5d                	j	80002566 <svd_core+0x55a>
    800023b2:	4281                	li	t0,0
    800023b4:	22840053          	fmv.d	ft0,fs0
    800023b8:	a27d                	j	80002566 <svd_core+0x55a>
    800023ba:	4281                	li	t0,0
    800023bc:	4701                	li	a4,0
    800023be:	161c                	addi	a5,sp,800
    800023c0:	864a                	mv	a2,s2
    800023c2:	22840053          	fmv.d	ft0,fs0
    800023c6:	fc063303          	ld	t1,-64(a2)
    800023ca:	fc863e03          	ld	t3,-56(a2)
    800023ce:	fd063383          	ld	t2,-48(a2)
    800023d2:	fd863f03          	ld	t5,-40(a2)
    800023d6:	fe063e83          	ld	t4,-32(a2)
    800023da:	fe863a03          	ld	s4,-24(a2)
    800023de:	ff063f83          	ld	t6,-16(a2)
    800023e2:	ff863b03          	ld	s6,-8(a2)
    800023e6:	fc07bb83          	ld	s7,-64(a5)
    800023ea:	fc87bd83          	ld	s11,-56(a5)
    800023ee:	fd07bc83          	ld	s9,-48(a5)
    800023f2:	fd87b483          	ld	s1,-40(a5)
    800023f6:	fe07b083          	ld	ra,-32(a5)
    800023fa:	fe87b683          	ld	a3,-24(a5)
    800023fe:	ff07b503          	ld	a0,-16(a5)
    80002402:	ff87b403          	ld	s0,-8(a5)
    80002406:	01c3058b          	.insn	4, 0x01c3058b
    8000240a:	21e3858b          	.insn	4, 0x21e3858b
    8000240e:	414e858b          	.insn	4, 0x414e858b
    80002412:	616f858b          	.insn	4, 0x616f858b
    80002416:	81bb858b          	.insn	4, 0x81bb858b
    8000241a:	a09c858b          	.insn	4, 0xa09c858b
    8000241e:	c0d0858b          	.insn	4, 0xc0d0858b
    80002422:	1c85057b          	.insn	4, 0x1c85057b
    80002426:	f20500d3          	fmv.d.x	ft1,a0
    8000242a:	02107053          	fadd.d	ft0,ft0,ft1
    8000242e:	00063303          	ld	t1,0(a2)
    80002432:	00863383          	ld	t2,8(a2)
    80002436:	01063e03          	ld	t3,16(a2)
    8000243a:	01863f03          	ld	t5,24(a2)
    8000243e:	02063e83          	ld	t4,32(a2)
    80002442:	02863f83          	ld	t6,40(a2)
    80002446:	03063a03          	ld	s4,48(a2)
    8000244a:	03863b03          	ld	s6,56(a2)
    8000244e:	0007bb83          	ld	s7,0(a5)
    80002452:	0087bd83          	ld	s11,8(a5)
    80002456:	0107bc83          	ld	s9,16(a5)
    8000245a:	0187b083          	ld	ra,24(a5)
    8000245e:	7394                	ld	a3,32(a5)
    80002460:	7780                	ld	s0,40(a5)
    80002462:	7b88                	ld	a0,48(a5)
    80002464:	7f84                	ld	s1,56(a5)
    80002466:	0873058b          	.insn	4, 0x0873058b
    8000246a:	29ee058b          	.insn	4, 0x29ee058b
    8000246e:	49fe858b          	.insn	4, 0x49fe858b
    80002472:	696a058b          	.insn	4, 0x696a058b
    80002476:	89bb858b          	.insn	4, 0x89bb858b
    8000247a:	a81c858b          	.insn	4, 0xa81c858b
    8000247e:	c886858b          	.insn	4, 0xc886858b
    80002482:	9c95057b          	.insn	4, 0x9c95057b
    80002486:	f20500d3          	fmv.d.x	ft1,a0
    8000248a:	02107053          	fadd.d	ft0,ft0,ft1
    8000248e:	02c1                	addi	t0,t0,16
    80002490:	2709                	addiw	a4,a4,2
    80002492:	08060613          	addi	a2,a2,128
    80002496:	08078793          	addi	a5,a5,128
    8000249a:	f38716e3          	bne	a4,s8,800023c6 <svd_core+0x3ba>
    8000249e:	00728b93          	addi	s7,t0,7
    800024a2:	75a6                	ld	a1,104(sp)
    800024a4:	6cee                	ld	s9,216(sp)
    800024a6:	67ca                	ld	a5,144(sp)
    800024a8:	2e010b13          	addi	s6,sp,736
    800024ac:	4a05                	li	s4,1
    800024ae:	4421                	li	s0,8
    800024b0:	650a                	ld	a0,128(sp)
    800024b2:	c955                	beqz	a0,80002566 <svd_core+0x55a>
    800024b4:	650e                	ld	a0,192(sp)
    800024b6:	02a88733          	mul	a4,a7,a0
    800024ba:	9716                	add	a4,a4,t0
    800024bc:	070e                	slli	a4,a4,0x3
    800024be:	656a                	ld	a0,152(sp)
    800024c0:	972a                	add	a4,a4,a0
    800024c2:	630c                	ld	a1,0(a4)
    800024c4:	6714                	ld	a3,8(a4)
    800024c6:	6b08                	ld	a0,16(a4)
    800024c8:	01873383          	ld	t2,24(a4)
    800024cc:	02073303          	ld	t1,32(a4)
    800024d0:	02873e83          	ld	t4,40(a4)
    800024d4:	03073e03          	ld	t3,48(a4)
    800024d8:	03873f03          	ld	t5,56(a4)
    800024dc:	00329793          	slli	a5,t0,0x3
    800024e0:	00fb0733          	add	a4,s6,a5
    800024e4:	00073f83          	ld	t6,0(a4)
    800024e8:	0087e713          	ori	a4,a5,8
    800024ec:	975a                	add	a4,a4,s6
    800024ee:	00073083          	ld	ra,0(a4)
    800024f2:	0107e713          	ori	a4,a5,16
    800024f6:	975a                	add	a4,a4,s6
    800024f8:	00073c83          	ld	s9,0(a4)
    800024fc:	0187ed93          	ori	s11,a5,24
    80002500:	01bb0733          	add	a4,s6,s11
    80002504:	00073d83          	ld	s11,0(a4)
    80002508:	0207e613          	ori	a2,a5,32
    8000250c:	965a                	add	a2,a2,s6
    8000250e:	00063a03          	ld	s4,0(a2)
    80002512:	0287e713          	ori	a4,a5,40
    80002516:	975a                	add	a4,a4,s6
    80002518:	1580                	addi	s0,sp,736
    8000251a:	00073b03          	ld	s6,0(a4)
    8000251e:	0307e793          	ori	a5,a5,48
    80002522:	97a2                	add	a5,a5,s0
    80002524:	639c                	ld	a5,0(a5)
    80002526:	003b9613          	slli	a2,s7,0x3
    8000252a:	9622                	add	a2,a2,s0
    8000252c:	6210                	ld	a2,0(a2)
    8000252e:	00d5870b          	.insn	4, 0x00d5870b
    80002532:	2075070b          	.insn	4, 0x2075070b
    80002536:	41d3070b          	.insn	4, 0x41d3070b
    8000253a:	4421                	li	s0,8
    8000253c:	61ee070b          	.insn	4, 0x61ee070b
    80002540:	801f870b          	.insn	4, 0x801f870b
    80002544:	75a6                	ld	a1,104(sp)
    80002546:	a1bc870b          	.insn	4, 0xa1bc870b
    8000254a:	6cee                	ld	s9,216(sp)
    8000254c:	c16a070b          	.insn	4, 0xc16a070b
    80002550:	4a05                	li	s4,1
    80002552:	2e010b13          	addi	s6,sp,736
    80002556:	1cc7867b          	.insn	4, 0x1cc7867b
    8000255a:	67ca                	ld	a5,144(sp)
    8000255c:	f20600d3          	fmv.d.x	ft1,a2
    80002560:	02107053          	fadd.d	ft0,ft0,ft1
    80002564:	02a1                	addi	t0,t0,8
    80002566:	0002869b          	sext.w	a3,t0
    8000256a:	650e                	ld	a0,192(sp)
    8000256c:	e0a6d9e3          	bge	a3,a0,8000237e <svd_core+0x372>
    80002570:	00368613          	addi	a2,a3,3
    80002574:	96c2                	add	a3,a3,a6
    80002576:	068e                	slli	a3,a3,0x3
    80002578:	656a                	ld	a0,152(sp)
    8000257a:	96aa                	add	a3,a3,a0
    8000257c:	ffd60513          	addi	a0,a2,-3
    80002580:	ff06b087          	fld	ft1,-16(a3)
    80002584:	01a57533          	and	a0,a0,s10
    80002588:	050e                	slli	a0,a0,0x3
    8000258a:	955a                	add	a0,a0,s6
    8000258c:	00053107          	fld	ft2,0(a0)
    80002590:	0220f043          	fmadd.d	ft0,ft1,ft2,ft0
    80002594:	00c78733          	add	a4,a5,a2
    80002598:	df3703e3          	beq	a4,s3,8000237e <svd_core+0x372>
    8000259c:	ffe60513          	addi	a0,a2,-2
    800025a0:	ff86b087          	fld	ft1,-8(a3)
    800025a4:	01a57533          	and	a0,a0,s10
    800025a8:	050e                	slli	a0,a0,0x3
    800025aa:	955a                	add	a0,a0,s6
    800025ac:	00053107          	fld	ft2,0(a0)
    800025b0:	0220f043          	fmadd.d	ft0,ft1,ft2,ft0
    800025b4:	dd4705e3          	beq	a4,s4,8000237e <svd_core+0x372>
    800025b8:	fff60513          	addi	a0,a2,-1
    800025bc:	0006b087          	fld	ft1,0(a3)
    800025c0:	01a57533          	and	a0,a0,s10
    800025c4:	050e                	slli	a0,a0,0x3
    800025c6:	955a                	add	a0,a0,s6
    800025c8:	00053107          	fld	ft2,0(a0)
    800025cc:	0220f043          	fmadd.d	ft0,ft1,ft2,ft0
    800025d0:	da0707e3          	beqz	a4,8000237e <svd_core+0x372>
    800025d4:	0086b087          	fld	ft1,8(a3)
    800025d8:	01a67533          	and	a0,a2,s10
    800025dc:	050e                	slli	a0,a0,0x3
    800025de:	955a                	add	a0,a0,s6
    800025e0:	00053107          	fld	ft2,0(a0)
    800025e4:	0220f043          	fmadd.d	ft0,ft1,ft2,ft0
    800025e8:	0611                	addi	a2,a2,4
    800025ea:	00c78533          	add	a0,a5,a2
    800025ee:	02068693          	addi	a3,a3,32
    800025f2:	470d                	li	a4,3
    800025f4:	f8e514e3          	bne	a0,a4,8000257c <svd_core+0x570>
    800025f8:	b359                	j	8000237e <svd_core+0x372>
    800025fa:	22840953          	fmv.d	fs2,fs0
    800025fe:	4909                	li	s2,2
    80002600:	498d                	li	s3,3
    80002602:	652e                	ld	a0,200(sp)
    80002604:	1ca05a63          	blez	a0,800027d8 <svd_core+0x7cc>
    80002608:	7562                	ld	a0,56(sp)
    8000260a:	04857463          	bgeu	a0,s0,80002652 <svd_core+0x646>
    8000260e:	4501                	li	a0,0
    80002610:	22840953          	fmv.d	fs2,fs0
    80002614:	75c2                	ld	a1,48(sp)
    80002616:	1c058163          	beqz	a1,800027d8 <svd_core+0x7cc>
    8000261a:	65ae                	ld	a1,200(sp)
    8000261c:	9d89                	subw	a1,a1,a0
    8000261e:	4621                	li	a2,8
    80002620:	87ae                	mv	a5,a1
    80002622:	00c5c363          	blt	a1,a2,80002628 <svd_core+0x61c>
    80002626:	47a1                	li	a5,8
    80002628:	050e                	slli	a0,a0,0x3
    8000262a:	18b05063          	blez	a1,800027aa <svd_core+0x79e>
    8000262e:	00856593          	ori	a1,a0,8
    80002632:	95d6                	add	a1,a1,s5
    80002634:	0005b803          	ld	a6,0(a1)
    80002638:	1727cc63          	blt	a5,s2,800027b0 <svd_core+0x7a4>
    8000263c:	01056593          	ori	a1,a0,16
    80002640:	95d6                	add	a1,a1,s5
    80002642:	6190                	ld	a2,0(a1)
    80002644:	01278463          	beq	a5,s2,8000264c <svd_core+0x640>
    80002648:	62d0506f          	j	80008474 <svd_core+0x6468>
    8000264c:	4481                	li	s1,0
    8000264e:	4701                	li	a4,0
    80002650:	a29d                	j	800027b6 <svd_core+0x7aa>
    80002652:	4501                	li	a0,0
    80002654:	4b81                	li	s7,0
    80002656:	1210                	addi	a2,sp,288
    80002658:	22840953          	fmv.d	fs2,fs0
    8000265c:	a889                	j	800026ae <svd_core+0x6a2>
    8000265e:	4f01                	li	t5,0
    80002660:	4e81                	li	t4,0
    80002662:	4581                	li	a1,0
    80002664:	4d81                	li	s11,0
    80002666:	4801                	li	a6,0
    80002668:	4781                	li	a5,0
    8000266a:	7686                	ld	a3,96(sp)
    8000266c:	6766                	ld	a4,88(sp)
    8000266e:	64e4040b          	.insn	4, 0x64e4040b
    80002672:	44de040b          	.insn	4, 0x44de040b
    80002676:	2474840b          	.insn	4, 0x2474840b
    8000267a:	4062847b          	.insn	4, 0x4062847b
    8000267e:	f2040053          	fmv.d.x	ft0,s0
    80002682:	02097053          	fadd.d	ft0,fs2,ft0
    80002686:	6cff070b          	.insn	4, 0x6cff070b
    8000268a:	4d0e868b          	.insn	4, 0x4d0e868b
    8000268e:	2db5868b          	.insn	4, 0x2db5868b
    80002692:	c1f086fb          	.insn	4, 0xc1f086fb
    80002696:	f20680d3          	fmv.d.x	ft1,a3
    8000269a:	02107953          	fadd.d	fs2,ft0,ft1
    8000269e:	0541                	addi	a0,a0,16
    800026a0:	2b89                	addiw	s7,s7,2
    800026a2:	08060613          	addi	a2,a2,128
    800026a6:	76e6                	ld	a3,120(sp)
    800026a8:	4421                	li	s0,8
    800026aa:	f6db85e3          	beq	s7,a3,80002614 <svd_core+0x608>
    800026ae:	65ae                	ld	a1,200(sp)
    800026b0:	40a5873b          	subw	a4,a1,a0
    800026b4:	47a1                	li	a5,8
    800026b6:	86ba                	mv	a3,a4
    800026b8:	00f74363          	blt	a4,a5,800026be <svd_core+0x6b2>
    800026bc:	46a1                	li	a3,8
    800026be:	00e05e63          	blez	a4,800026da <svd_core+0x6ce>
    800026c2:	fc863303          	ld	t1,-56(a2)
    800026c6:	0126cd63          	blt	a3,s2,800026e0 <svd_core+0x6d4>
    800026ca:	fd063403          	ld	s0,-48(a2)
    800026ce:	05269c63          	bne	a3,s2,80002726 <svd_core+0x71a>
    800026d2:	84a2                	mv	s1,s0
    800026d4:	4401                	li	s0,0
    800026d6:	4e01                	li	t3,0
    800026d8:	a039                	j	800026e6 <svd_core+0x6da>
    800026da:	4301                	li	t1,0
    800026dc:	ff26d7e3          	bge	a3,s2,800026ca <svd_core+0x6be>
    800026e0:	4401                	li	s0,0
    800026e2:	4e01                	li	t3,0
    800026e4:	4481                	li	s1,0
    800026e6:	4381                	li	t2,0
    800026e8:	f082                	sd	zero,96(sp)
    800026ea:	ec82                	sd	zero,88(sp)
    800026ec:	65ae                	ld	a1,200(sp)
    800026ee:	40a586bb          	subw	a3,a1,a0
    800026f2:	36e1                	addiw	a3,a3,-8
    800026f4:	4721                	li	a4,8
    800026f6:	88b6                	mv	a7,a3
    800026f8:	00e6c363          	blt	a3,a4,800026fe <svd_core+0x6f2>
    800026fc:	48a1                	li	a7,8
    800026fe:	00d05563          	blez	a3,80002708 <svd_core+0x6fc>
    80002702:	00863f83          	ld	t6,8(a2)
    80002706:	a011                	j	8000270a <svd_core+0x6fe>
    80002708:	4f81                	li	t6,0
    8000270a:	fc063283          	ld	t0,-64(a2)
    8000270e:	00063083          	ld	ra,0(a2)
    80002712:	f528c6e3          	blt	a7,s2,8000265e <svd_core+0x652>
    80002716:	6a0c                	ld	a1,16(a2)
    80002718:	e8ae                	sd	a1,80(sp)
    8000271a:	03289263          	bne	a7,s2,8000273e <svd_core+0x732>
    8000271e:	4f01                	li	t5,0
    80002720:	4e81                	li	t4,0
    80002722:	4d81                	li	s11,0
    80002724:	a835                	j	80002760 <svd_core+0x754>
    80002726:	fd863383          	ld	t2,-40(a2)
    8000272a:	4715                	li	a4,5
    8000272c:	02e6e463          	bltu	a3,a4,80002754 <svd_core+0x748>
    80002730:	fe063e03          	ld	t3,-32(a2)
    80002734:	02e69c63          	bne	a3,a4,8000276c <svd_core+0x760>
    80002738:	84a2                	mv	s1,s0
    8000273a:	4401                	li	s0,0
    8000273c:	b775                	j	800026e8 <svd_core+0x6dc>
    8000273e:	01863d83          	ld	s11,24(a2)
    80002742:	4715                	li	a4,5
    80002744:	00e8ec63          	bltu	a7,a4,8000275c <svd_core+0x750>
    80002748:	02063e83          	ld	t4,32(a2)
    8000274c:	02e89f63          	bne	a7,a4,8000278a <svd_core+0x77e>
    80002750:	4f01                	li	t5,0
    80002752:	a039                	j	80002760 <svd_core+0x754>
    80002754:	84a2                	mv	s1,s0
    80002756:	4401                	li	s0,0
    80002758:	4e01                	li	t3,0
    8000275a:	b779                	j	800026e8 <svd_core+0x6dc>
    8000275c:	4f01                	li	t5,0
    8000275e:	4e81                	li	t4,0
    80002760:	4801                	li	a6,0
    80002762:	4781                	li	a5,0
    80002764:	7686                	ld	a3,96(sp)
    80002766:	6766                	ld	a4,88(sp)
    80002768:	65c6                	ld	a1,80(sp)
    8000276a:	b711                	j	8000266e <svd_core+0x662>
    8000276c:	fe863783          	ld	a5,-24(a2)
    80002770:	471d                	li	a4,7
    80002772:	f0be                	sd	a5,96(sp)
    80002774:	84a2                	mv	s1,s0
    80002776:	02e6e663          	bltu	a3,a4,800027a2 <svd_core+0x796>
    8000277a:	ff063403          	ld	s0,-16(a2)
    8000277e:	f6e686e3          	beq	a3,a4,800026ea <svd_core+0x6de>
    80002782:	ff863683          	ld	a3,-8(a2)
    80002786:	ecb6                	sd	a3,88(sp)
    80002788:	b795                	j	800026ec <svd_core+0x6e0>
    8000278a:	02863803          	ld	a6,40(a2)
    8000278e:	471d                	li	a4,7
    80002790:	00e8eb63          	bltu	a7,a4,800027a6 <svd_core+0x79a>
    80002794:	479d                	li	a5,7
    80002796:	03063f03          	ld	t5,48(a2)
    8000279a:	fcf884e3          	beq	a7,a5,80002762 <svd_core+0x756>
    8000279e:	7e1c                	ld	a5,56(a2)
    800027a0:	b7d1                	j	80002764 <svd_core+0x758>
    800027a2:	4401                	li	s0,0
    800027a4:	b799                	j	800026ea <svd_core+0x6de>
    800027a6:	4f01                	li	t5,0
    800027a8:	bf6d                	j	80002762 <svd_core+0x756>
    800027aa:	4801                	li	a6,0
    800027ac:	e927d8e3          	bge	a5,s2,8000263c <svd_core+0x630>
    800027b0:	4481                	li	s1,0
    800027b2:	4701                	li	a4,0
    800027b4:	4601                	li	a2,0
    800027b6:	4681                	li	a3,0
    800027b8:	4581                	li	a1,0
    800027ba:	4781                	li	a5,0
    800027bc:	9556                	add	a0,a0,s5
    800027be:	6108                	ld	a0,0(a0)
    800027c0:	64f4878b          	.insn	4, 0x64f4878b
    800027c4:	44b7058b          	.insn	4, 0x44b7058b
    800027c8:	24d6058b          	.insn	4, 0x24d6058b
    800027cc:	4105057b          	.insn	4, 0x4105057b
    800027d0:	f2050053          	fmv.d.x	ft0,a0
    800027d4:	02097953          	fadd.d	fs2,fs2,ft0
    800027d8:	0b497053          	fsub.d	ft0,fs2,fs4
    800027dc:	a2801553          	flt.d	a0,ft0,fs0
    800027e0:	c119                	beqz	a0,800027e6 <svd_core+0x7da>
    800027e2:	22001053          	fneg.d	ft0,ft0
    800027e6:	75ca                	ld	a1,176(sp)
    800027e8:	0000c517          	auipc	a0,0xc
    800027ec:	37850513          	addi	a0,a0,888 # 8000eb60 <strtol+0x298>
    800027f0:	2104                	fld	fs1,0(a0)
    800027f2:	a2901553          	flt.d	a0,ft0,fs1
    800027f6:	c119                	beqz	a0,800027fc <svd_core+0x7f0>
    800027f8:	7220b06f          	j	8000df1a <svd_core+0xbf0e>
    800027fc:	4c01                	li	s8,0
    800027fe:	4089                	li	ra,2
    80002800:	52010d93          	addi	s11,sp,1312
    80002804:	a015                	j	80002828 <svd_core+0x81c>
    80002806:	4421                	li	s0,8
    80002808:	498d                	li	s3,3
    8000280a:	1b207053          	fdiv.d	ft0,ft0,fs2
    8000280e:	003c1513          	slli	a0,s8,0x3
    80002812:	955a                	add	a0,a0,s6
    80002814:	00053027          	fsd	ft0,0(a0)
    80002818:	0c05                	addi	s8,s8,1
    8000281a:	7546                	ld	a0,112(sp)
    8000281c:	9daa                	add	s11,s11,a0
    8000281e:	652e                	ld	a0,200(sp)
    80002820:	90aa                	add	ra,ra,a0
    80002822:	650e                	ld	a0,192(sp)
    80002824:	26ac0063          	beq	s8,a0,80002a84 <svd_core+0xa78>
    80002828:	652e                	ld	a0,200(sp)
    8000282a:	00854c63          	blt	a0,s0,80002842 <svd_core+0x836>
    8000282e:	752a                	ld	a0,168(sp)
    80002830:	00857d63          	bgeu	a0,s0,8000284a <svd_core+0x83e>
    80002834:	4981                	li	s3,0
    80002836:	4b1d                	li	s6,7
    80002838:	22840053          	fmv.d	ft0,fs0
    8000283c:	750a                	ld	a0,160(sp)
    8000283e:	ed7d                	bnez	a0,8000293c <svd_core+0x930>
    80002840:	a265                	j	800029e8 <svd_core+0x9dc>
    80002842:	4981                	li	s3,0
    80002844:	22840053          	fmv.d	ft0,fs0
    80002848:	a255                	j	800029ec <svd_core+0x9e0>
    8000284a:	4981                	li	s3,0
    8000284c:	4701                	li	a4,0
    8000284e:	121c                	addi	a5,sp,288
    80002850:	866e                	mv	a2,s11
    80002852:	22840053          	fmv.d	ft0,fs0
    80002856:	fc063803          	ld	a6,-64(a2)
    8000285a:	fc863283          	ld	t0,-56(a2)
    8000285e:	fd063883          	ld	a7,-48(a2)
    80002862:	fd863303          	ld	t1,-40(a2)
    80002866:	fe063383          	ld	t2,-32(a2)
    8000286a:	fe863e83          	ld	t4,-24(a2)
    8000286e:	ff063e03          	ld	t3,-16(a2)
    80002872:	ff863f83          	ld	t6,-8(a2)
    80002876:	fc07bf03          	ld	t5,-64(a5)
    8000287a:	fc87ba03          	ld	s4,-56(a5)
    8000287e:	fd07b903          	ld	s2,-48(a5)
    80002882:	fd87b403          	ld	s0,-40(a5)
    80002886:	fe07bb03          	ld	s6,-32(a5)
    8000288a:	fe87b483          	ld	s1,-24(a5)
    8000288e:	ff07b583          	ld	a1,-16(a5)
    80002892:	ff87b683          	ld	a3,-8(a5)
    80002896:	0058050b          	.insn	4, 0x0058050b
    8000289a:	2068850b          	.insn	4, 0x2068850b
    8000289e:	41d3850b          	.insn	4, 0x41d3850b
    800028a2:	61fe050b          	.insn	4, 0x61fe050b
    800028a6:	814f050b          	.insn	4, 0x814f050b
    800028aa:	a089050b          	.insn	4, 0xa089050b
    800028ae:	c09b050b          	.insn	4, 0xc09b050b
    800028b2:	1cd5857b          	.insn	4, 0x1cd5857b
    800028b6:	f20500d3          	fmv.d.x	ft1,a0
    800028ba:	02107053          	fadd.d	ft0,ft0,ft1
    800028be:	00063803          	ld	a6,0(a2)
    800028c2:	00863883          	ld	a7,8(a2)
    800028c6:	01063283          	ld	t0,16(a2)
    800028ca:	01863383          	ld	t2,24(a2)
    800028ce:	02063303          	ld	t1,32(a2)
    800028d2:	02863e03          	ld	t3,40(a2)
    800028d6:	03063e83          	ld	t4,48(a2)
    800028da:	03863f03          	ld	t5,56(a2)
    800028de:	0007bf83          	ld	t6,0(a5)
    800028e2:	0087ba03          	ld	s4,8(a5)
    800028e6:	0107b903          	ld	s2,16(a5)
    800028ea:	0187bb03          	ld	s6,24(a5)
    800028ee:	7394                	ld	a3,32(a5)
    800028f0:	7780                	ld	s0,40(a5)
    800028f2:	7b88                	ld	a0,48(a5)
    800028f4:	7f84                	ld	s1,56(a5)
    800028f6:	0918058b          	.insn	4, 0x0918058b
    800028fa:	2872858b          	.insn	4, 0x2872858b
    800028fe:	49c3058b          	.insn	4, 0x49c3058b
    80002902:	69ee858b          	.insn	4, 0x69ee858b
    80002906:	894f858b          	.insn	4, 0x894f858b
    8000290a:	a969058b          	.insn	4, 0xa969058b
    8000290e:	c886858b          	.insn	4, 0xc886858b
    80002912:	9c95057b          	.insn	4, 0x9c95057b
    80002916:	f20500d3          	fmv.d.x	ft1,a0
    8000291a:	02107053          	fadd.d	ft0,ft0,ft1
    8000291e:	09c1                	addi	s3,s3,16
    80002920:	2709                	addiw	a4,a4,2
    80002922:	08060613          	addi	a2,a2,128
    80002926:	08078793          	addi	a5,a5,128
    8000292a:	f39716e3          	bne	a4,s9,80002856 <svd_core+0x84a>
    8000292e:	00798b13          	addi	s6,s3,7
    80002932:	75ca                	ld	a1,176(sp)
    80002934:	4a05                	li	s4,1
    80002936:	4909                	li	s2,2
    80002938:	750a                	ld	a0,160(sp)
    8000293a:	c55d                	beqz	a0,800029e8 <svd_core+0x9dc>
    8000293c:	652e                	ld	a0,200(sp)
    8000293e:	02ac0733          	mul	a4,s8,a0
    80002942:	974e                	add	a4,a4,s3
    80002944:	070e                	slli	a4,a4,0x3
    80002946:	4e010513          	addi	a0,sp,1248
    8000294a:	972a                	add	a4,a4,a0
    8000294c:	00073803          	ld	a6,0(a4)
    80002950:	00873283          	ld	t0,8(a4)
    80002954:	01073883          	ld	a7,16(a4)
    80002958:	01873303          	ld	t1,24(a4)
    8000295c:	02073383          	ld	t2,32(a4)
    80002960:	02873e03          	ld	t3,40(a4)
    80002964:	03073e83          	ld	t4,48(a4)
    80002968:	03873f03          	ld	t5,56(a4)
    8000296c:	00399793          	slli	a5,s3,0x3
    80002970:	00fa8433          	add	s0,s5,a5
    80002974:	00043f83          	ld	t6,0(s0)
    80002978:	0087e713          	ori	a4,a5,8
    8000297c:	9756                	add	a4,a4,s5
    8000297e:	00073903          	ld	s2,0(a4)
    80002982:	0107e413          	ori	s0,a5,16
    80002986:	9456                	add	s0,s0,s5
    80002988:	00043a03          	ld	s4,0(s0)
    8000298c:	0187e713          	ori	a4,a5,24
    80002990:	9756                	add	a4,a4,s5
    80002992:	00073b83          	ld	s7,0(a4)
    80002996:	0207e413          	ori	s0,a5,32
    8000299a:	9456                	add	s0,s0,s5
    8000299c:	00043c83          	ld	s9,0(s0)
    800029a0:	0287e613          	ori	a2,a5,40
    800029a4:	9656                	add	a2,a2,s5
    800029a6:	6210                	ld	a2,0(a2)
    800029a8:	0307e793          	ori	a5,a5,48
    800029ac:	97d6                	add	a5,a5,s5
    800029ae:	639c                	ld	a5,0(a5)
    800029b0:	003b1713          	slli	a4,s6,0x3
    800029b4:	9756                	add	a4,a4,s5
    800029b6:	6318                	ld	a4,0(a4)
    800029b8:	0058040b          	.insn	4, 0x0058040b
    800029bc:	2068840b          	.insn	4, 0x2068840b
    800029c0:	41c3840b          	.insn	4, 0x41c3840b
    800029c4:	61ee840b          	.insn	4, 0x61ee840b
    800029c8:	812f840b          	.insn	4, 0x812f840b
    800029cc:	4909                	li	s2,2
    800029ce:	a17a040b          	.insn	4, 0xa17a040b
    800029d2:	4a05                	li	s4,1
    800029d4:	c0cc860b          	.insn	4, 0xc0cc860b
    800029d8:	6cee                	ld	s9,216(sp)
    800029da:	1ce7867b          	.insn	4, 0x1ce7867b
    800029de:	f20600d3          	fmv.d.x	ft1,a2
    800029e2:	02107053          	fadd.d	ft0,ft0,ft1
    800029e6:	09a1                	addi	s3,s3,8
    800029e8:	2e010b13          	addi	s6,sp,736
    800029ec:	0009869b          	sext.w	a3,s3
    800029f0:	652e                	ld	a0,200(sp)
    800029f2:	e0a6dae3          	bge	a3,a0,80002806 <svd_core+0x7fa>
    800029f6:	00368613          	addi	a2,a3,3
    800029fa:	9686                	add	a3,a3,ra
    800029fc:	068e                	slli	a3,a3,0x3
    800029fe:	4e010513          	addi	a0,sp,1248
    80002a02:	96aa                	add	a3,a3,a0
    80002a04:	4421                	li	s0,8
    80002a06:	498d                	li	s3,3
    80002a08:	ffd60513          	addi	a0,a2,-3
    80002a0c:	ff06b087          	fld	ft1,-16(a3)
    80002a10:	01a57533          	and	a0,a0,s10
    80002a14:	050e                	slli	a0,a0,0x3
    80002a16:	9556                	add	a0,a0,s5
    80002a18:	00053107          	fld	ft2,0(a0)
    80002a1c:	0220f043          	fmadd.d	ft0,ft1,ft2,ft0
    80002a20:	00c58733          	add	a4,a1,a2
    80002a24:	df2703e3          	beq	a4,s2,8000280a <svd_core+0x7fe>
    80002a28:	ffe60513          	addi	a0,a2,-2
    80002a2c:	ff86b087          	fld	ft1,-8(a3)
    80002a30:	01a57533          	and	a0,a0,s10
    80002a34:	050e                	slli	a0,a0,0x3
    80002a36:	9556                	add	a0,a0,s5
    80002a38:	00053107          	fld	ft2,0(a0)
    80002a3c:	0220f043          	fmadd.d	ft0,ft1,ft2,ft0
    80002a40:	dd4705e3          	beq	a4,s4,8000280a <svd_core+0x7fe>
    80002a44:	fff60513          	addi	a0,a2,-1
    80002a48:	0006b087          	fld	ft1,0(a3)
    80002a4c:	01a57533          	and	a0,a0,s10
    80002a50:	050e                	slli	a0,a0,0x3
    80002a52:	9556                	add	a0,a0,s5
    80002a54:	00053107          	fld	ft2,0(a0)
    80002a58:	0220f043          	fmadd.d	ft0,ft1,ft2,ft0
    80002a5c:	da0707e3          	beqz	a4,8000280a <svd_core+0x7fe>
    80002a60:	0086b087          	fld	ft1,8(a3)
    80002a64:	01a67533          	and	a0,a2,s10
    80002a68:	050e                	slli	a0,a0,0x3
    80002a6a:	9556                	add	a0,a0,s5
    80002a6c:	00053107          	fld	ft2,0(a0)
    80002a70:	0220f043          	fmadd.d	ft0,ft1,ft2,ft0
    80002a74:	0611                	addi	a2,a2,4
    80002a76:	00c58533          	add	a0,a1,a2
    80002a7a:	02068693          	addi	a3,a3,32
    80002a7e:	f93515e3          	bne	a0,s3,80002a08 <svd_core+0x9fc>
    80002a82:	b361                	j	8000280a <svd_core+0x7fe>
    80002a84:	1188                	addi	a0,sp,224
    80002a86:	20000613          	li	a2,512
    80002a8a:	4581                	li	a1,0
    80002a8c:	0000c097          	auipc	ra,0xc
    80002a90:	ba6080e7          	jalr	-1114(ra) # 8000e632 <memset>
    80002a94:	43a1                	li	t2,8
    80002a96:	228409d3          	fmv.d	fs3,fs0
    80002a9a:	7dc6                	ld	s11,112(sp)
    80002a9c:	6c4e                	ld	s8,208(sp)
    80002a9e:	67ca                	ld	a5,144(sp)
    80002aa0:	652e                	ld	a0,200(sp)
    80002aa2:	44a05d63          	blez	a0,80002efc <svd_core+0xef0>
    80002aa6:	4281                	li	t0,0
    80002aa8:	4889                	li	a7,2
    80002aaa:	6826                	ld	a6,72(sp)
    80002aac:	a831                	j	80002ac8 <svd_core+0xabc>
    80002aae:	00329513          	slli	a0,t0,0x3
    80002ab2:	9556                	add	a0,a0,s5
    80002ab4:	00053027          	fsd	ft0,0(a0)
    80002ab8:	0285                	addi	t0,t0,1
    80002aba:	7526                	ld	a0,104(sp)
    80002abc:	982a                	add	a6,a6,a0
    80002abe:	650e                	ld	a0,192(sp)
    80002ac0:	98aa                	add	a7,a7,a0
    80002ac2:	756a                	ld	a0,184(sp)
    80002ac4:	26a28463          	beq	t0,a0,80002d2c <svd_core+0xd20>
    80002ac8:	650e                	ld	a0,192(sp)
    80002aca:	00756d63          	bltu	a0,t2,80002ae4 <svd_core+0xad8>
    80002ace:	652a                	ld	a0,136(sp)
    80002ad0:	00757e63          	bgeu	a0,t2,80002aec <svd_core+0xae0>
    80002ad4:	4301                	li	t1,0
    80002ad6:	461d                	li	a2,7
    80002ad8:	22840053          	fmv.d	ft0,fs0
    80002adc:	650a                	ld	a0,128(sp)
    80002ade:	10051663          	bnez	a0,80002bea <svd_core+0xbde>
    80002ae2:	aa55                	j	80002c96 <svd_core+0xc8a>
    80002ae4:	4301                	li	t1,0
    80002ae6:	22840053          	fmv.d	ft0,fs0
    80002aea:	a275                	j	80002c96 <svd_core+0xc8a>
    80002aec:	4301                	li	t1,0
    80002aee:	4701                	li	a4,0
    80002af0:	161c                	addi	a5,sp,800
    80002af2:	8642                	mv	a2,a6
    80002af4:	22840053          	fmv.d	ft0,fs0
    80002af8:	fc063383          	ld	t2,-64(a2)
    80002afc:	fc863e83          	ld	t4,-56(a2)
    80002b00:	fd063e03          	ld	t3,-48(a2)
    80002b04:	fd863f03          	ld	t5,-40(a2)
    80002b08:	fe063f83          	ld	t6,-32(a2)
    80002b0c:	fe863983          	ld	s3,-24(a2)
    80002b10:	ff063903          	ld	s2,-16(a2)
    80002b14:	ff863b03          	ld	s6,-8(a2)
    80002b18:	fc07ba03          	ld	s4,-64(a5)
    80002b1c:	fc87bc03          	ld	s8,-56(a5)
    80002b20:	fd07bb83          	ld	s7,-48(a5)
    80002b24:	fd87b403          	ld	s0,-40(a5)
    80002b28:	fe07bc83          	ld	s9,-32(a5)
    80002b2c:	fe87b483          	ld	s1,-24(a5)
    80002b30:	ff07b583          	ld	a1,-16(a5)
    80002b34:	ff87b683          	ld	a3,-8(a5)
    80002b38:	01d3850b          	.insn	4, 0x01d3850b
    80002b3c:	21ee050b          	.insn	4, 0x21ee050b
    80002b40:	413f850b          	.insn	4, 0x413f850b
    80002b44:	6169050b          	.insn	4, 0x6169050b
    80002b48:	818a050b          	.insn	4, 0x818a050b
    80002b4c:	a08b850b          	.insn	4, 0xa08b850b
    80002b50:	c09c850b          	.insn	4, 0xc09c850b
    80002b54:	1cd5857b          	.insn	4, 0x1cd5857b
    80002b58:	f20500d3          	fmv.d.x	ft1,a0
    80002b5c:	02107053          	fadd.d	ft0,ft0,ft1
    80002b60:	00063383          	ld	t2,0(a2)
    80002b64:	00863e03          	ld	t3,8(a2)
    80002b68:	01063e83          	ld	t4,16(a2)
    80002b6c:	01863f83          	ld	t6,24(a2)
    80002b70:	02063f03          	ld	t5,32(a2)
    80002b74:	02863903          	ld	s2,40(a2)
    80002b78:	03063983          	ld	s3,48(a2)
    80002b7c:	03863a03          	ld	s4,56(a2)
    80002b80:	0007bb03          	ld	s6,0(a5)
    80002b84:	0087bc03          	ld	s8,8(a5)
    80002b88:	0107bb83          	ld	s7,16(a5)
    80002b8c:	0187bc83          	ld	s9,24(a5)
    80002b90:	7394                	ld	a3,32(a5)
    80002b92:	7780                	ld	s0,40(a5)
    80002b94:	7b88                	ld	a0,48(a5)
    80002b96:	7f84                	ld	s1,56(a5)
    80002b98:	09c3858b          	.insn	4, 0x09c3858b
    80002b9c:	29fe858b          	.insn	4, 0x29fe858b
    80002ba0:	492f058b          	.insn	4, 0x492f058b
    80002ba4:	6949858b          	.insn	4, 0x6949858b
    80002ba8:	898b058b          	.insn	4, 0x898b058b
    80002bac:	6c4e                	ld	s8,208(sp)
    80002bae:	a99b858b          	.insn	4, 0xa99b858b
    80002bb2:	c886858b          	.insn	4, 0xc886858b
    80002bb6:	9c95057b          	.insn	4, 0x9c95057b
    80002bba:	f20500d3          	fmv.d.x	ft1,a0
    80002bbe:	02107053          	fadd.d	ft0,ft0,ft1
    80002bc2:	0341                	addi	t1,t1,16
    80002bc4:	2709                	addiw	a4,a4,2
    80002bc6:	08060613          	addi	a2,a2,128
    80002bca:	08078793          	addi	a5,a5,128
    80002bce:	f38715e3          	bne	a4,s8,80002af8 <svd_core+0xaec>
    80002bd2:	00730613          	addi	a2,t1,7
    80002bd6:	6cee                	ld	s9,216(sp)
    80002bd8:	67ca                	ld	a5,144(sp)
    80002bda:	2e010b13          	addi	s6,sp,736
    80002bde:	4a05                	li	s4,1
    80002be0:	43a1                	li	t2,8
    80002be2:	4909                	li	s2,2
    80002be4:	498d                	li	s3,3
    80002be6:	650a                	ld	a0,128(sp)
    80002be8:	c55d                	beqz	a0,80002c96 <svd_core+0xc8a>
    80002bea:	650e                	ld	a0,192(sp)
    80002bec:	02a28533          	mul	a0,t0,a0
    80002bf0:	951a                	add	a0,a0,t1
    80002bf2:	050e                	slli	a0,a0,0x3
    80002bf4:	65ea                	ld	a1,152(sp)
    80002bf6:	952e                	add	a0,a0,a1
    80002bf8:	00053383          	ld	t2,0(a0)
    80002bfc:	00853e03          	ld	t3,8(a0)
    80002c00:	01053e83          	ld	t4,16(a0)
    80002c04:	01853f03          	ld	t5,24(a0)
    80002c08:	02053f83          	ld	t6,32(a0)
    80002c0c:	02853983          	ld	s3,40(a0)
    80002c10:	03053903          	ld	s2,48(a0)
    80002c14:	03853a03          	ld	s4,56(a0)
    80002c18:	00331693          	slli	a3,t1,0x3
    80002c1c:	00db0733          	add	a4,s6,a3
    80002c20:	2e010093          	addi	ra,sp,736
    80002c24:	00073b03          	ld	s6,0(a4)
    80002c28:	0086e793          	ori	a5,a3,8
    80002c2c:	9786                	add	a5,a5,ra
    80002c2e:	639c                	ld	a5,0(a5)
    80002c30:	0106e493          	ori	s1,a3,16
    80002c34:	9486                	add	s1,s1,ra
    80002c36:	6084                	ld	s1,0(s1)
    80002c38:	0186e593          	ori	a1,a3,24
    80002c3c:	9586                	add	a1,a1,ra
    80002c3e:	618c                	ld	a1,0(a1)
    80002c40:	0206e413          	ori	s0,a3,32
    80002c44:	9406                	add	s0,s0,ra
    80002c46:	6000                	ld	s0,0(s0)
    80002c48:	0286e513          	ori	a0,a3,40
    80002c4c:	9506                	add	a0,a0,ra
    80002c4e:	6108                	ld	a0,0(a0)
    80002c50:	0306e693          	ori	a3,a3,48
    80002c54:	9686                	add	a3,a3,ra
    80002c56:	6294                	ld	a3,0(a3)
    80002c58:	060e                	slli	a2,a2,0x3
    80002c5a:	9606                	add	a2,a2,ra
    80002c5c:	6210                	ld	a2,0(a2)
    80002c5e:	01c3870b          	.insn	4, 0x01c3870b
    80002c62:	21ee870b          	.insn	4, 0x21ee870b
    80002c66:	413f870b          	.insn	4, 0x413f870b
    80002c6a:	498d                	li	s3,3
    80002c6c:	43a1                	li	t2,8
    80002c6e:	6149070b          	.insn	4, 0x6149070b
    80002c72:	4909                	li	s2,2
    80002c74:	4a05                	li	s4,1
    80002c76:	80fb070b          	.insn	4, 0x80fb070b
    80002c7a:	2e010b13          	addi	s6,sp,736
    80002c7e:	67ca                	ld	a5,144(sp)
    80002c80:	a0b4858b          	.insn	4, 0xa0b4858b
    80002c84:	c0a4050b          	.insn	4, 0xc0a4050b
    80002c88:	1cc6857b          	.insn	4, 0x1cc6857b
    80002c8c:	f20500d3          	fmv.d.x	ft1,a0
    80002c90:	02107053          	fadd.d	ft0,ft0,ft1
    80002c94:	0321                	addi	t1,t1,8
    80002c96:	0003069b          	sext.w	a3,t1
    80002c9a:	650e                	ld	a0,192(sp)
    80002c9c:	e0a6d9e3          	bge	a3,a0,80002aae <svd_core+0xaa2>
    80002ca0:	00368613          	addi	a2,a3,3
    80002ca4:	00d88533          	add	a0,a7,a3
    80002ca8:	050e                	slli	a0,a0,0x3
    80002caa:	65ea                	ld	a1,152(sp)
    80002cac:	00a586b3          	add	a3,a1,a0
    80002cb0:	ffd60513          	addi	a0,a2,-3
    80002cb4:	ff06b087          	fld	ft1,-16(a3)
    80002cb8:	01a57533          	and	a0,a0,s10
    80002cbc:	050e                	slli	a0,a0,0x3
    80002cbe:	955a                	add	a0,a0,s6
    80002cc0:	00053107          	fld	ft2,0(a0)
    80002cc4:	0220f043          	fmadd.d	ft0,ft1,ft2,ft0
    80002cc8:	00c78733          	add	a4,a5,a2
    80002ccc:	df2701e3          	beq	a4,s2,80002aae <svd_core+0xaa2>
    80002cd0:	ffe60513          	addi	a0,a2,-2
    80002cd4:	ff86b087          	fld	ft1,-8(a3)
    80002cd8:	01a57533          	and	a0,a0,s10
    80002cdc:	050e                	slli	a0,a0,0x3
    80002cde:	955a                	add	a0,a0,s6
    80002ce0:	00053107          	fld	ft2,0(a0)
    80002ce4:	0220f043          	fmadd.d	ft0,ft1,ft2,ft0
    80002ce8:	dd4703e3          	beq	a4,s4,80002aae <svd_core+0xaa2>
    80002cec:	fff60513          	addi	a0,a2,-1
    80002cf0:	0006b087          	fld	ft1,0(a3)
    80002cf4:	01a57533          	and	a0,a0,s10
    80002cf8:	050e                	slli	a0,a0,0x3
    80002cfa:	955a                	add	a0,a0,s6
    80002cfc:	00053107          	fld	ft2,0(a0)
    80002d00:	0220f043          	fmadd.d	ft0,ft1,ft2,ft0
    80002d04:	da0705e3          	beqz	a4,80002aae <svd_core+0xaa2>
    80002d08:	0086b087          	fld	ft1,8(a3)
    80002d0c:	01a67533          	and	a0,a2,s10
    80002d10:	050e                	slli	a0,a0,0x3
    80002d12:	955a                	add	a0,a0,s6
    80002d14:	00053107          	fld	ft2,0(a0)
    80002d18:	0220f043          	fmadd.d	ft0,ft1,ft2,ft0
    80002d1c:	0611                	addi	a2,a2,4
    80002d1e:	00c78533          	add	a0,a5,a2
    80002d22:	02068693          	addi	a3,a3,32
    80002d26:	f93515e3          	bne	a0,s3,80002cb0 <svd_core+0xca4>
    80002d2a:	b351                	j	80002aae <svd_core+0xaa2>
    80002d2c:	228409d3          	fmv.d	fs3,fs0
    80002d30:	652e                	ld	a0,200(sp)
    80002d32:	1ca05563          	blez	a0,80002efc <svd_core+0xef0>
    80002d36:	7562                	ld	a0,56(sp)
    80002d38:	04757463          	bgeu	a0,t2,80002d80 <svd_core+0xd74>
    80002d3c:	f20009d3          	fmv.d.x	fs3,zero
    80002d40:	4501                	li	a0,0
    80002d42:	75c2                	ld	a1,48(sp)
    80002d44:	1a058c63          	beqz	a1,80002efc <svd_core+0xef0>
    80002d48:	65ae                	ld	a1,200(sp)
    80002d4a:	9d89                	subw	a1,a1,a0
    80002d4c:	4621                	li	a2,8
    80002d4e:	87ae                	mv	a5,a1
    80002d50:	00c5c363          	blt	a1,a2,80002d56 <svd_core+0xd4a>
    80002d54:	47a1                	li	a5,8
    80002d56:	050e                	slli	a0,a0,0x3
    80002d58:	16b05b63          	blez	a1,80002ece <svd_core+0xec2>
    80002d5c:	00856593          	ori	a1,a0,8
    80002d60:	95d6                	add	a1,a1,s5
    80002d62:	0005b803          	ld	a6,0(a1)
    80002d66:	1727c763          	blt	a5,s2,80002ed4 <svd_core+0xec8>
    80002d6a:	01056593          	ori	a1,a0,16
    80002d6e:	95d6                	add	a1,a1,s5
    80002d70:	6190                	ld	a2,0(a1)
    80002d72:	01278463          	beq	a5,s2,80002d7a <svd_core+0xd6e>
    80002d76:	6530506f          	j	80008bc8 <svd_core+0x6bbc>
    80002d7a:	4481                	li	s1,0
    80002d7c:	4701                	li	a4,0
    80002d7e:	aab1                	j	80002eda <svd_core+0xece>
    80002d80:	4501                	li	a0,0
    80002d82:	4f01                	li	t5,0
    80002d84:	f20009d3          	fmv.d.x	fs3,zero
    80002d88:	1210                	addi	a2,sp,288
    80002d8a:	65ae                	ld	a1,200(sp)
    80002d8c:	40a5873b          	subw	a4,a1,a0
    80002d90:	47a1                	li	a5,8
    80002d92:	86ba                	mv	a3,a4
    80002d94:	00f74363          	blt	a4,a5,80002d9a <svd_core+0xd8e>
    80002d98:	46a1                	li	a3,8
    80002d9a:	00e05e63          	blez	a4,80002db6 <svd_core+0xdaa>
    80002d9e:	fc863303          	ld	t1,-56(a2)
    80002da2:	0126cd63          	blt	a3,s2,80002dbc <svd_core+0xdb0>
    80002da6:	fd063403          	ld	s0,-48(a2)
    80002daa:	0b269663          	bne	a3,s2,80002e56 <svd_core+0xe4a>
    80002dae:	84a2                	mv	s1,s0
    80002db0:	4401                	li	s0,0
    80002db2:	f082                	sd	zero,96(sp)
    80002db4:	a039                	j	80002dc2 <svd_core+0xdb6>
    80002db6:	4301                	li	t1,0
    80002db8:	ff26d7e3          	bge	a3,s2,80002da6 <svd_core+0xd9a>
    80002dbc:	4401                	li	s0,0
    80002dbe:	f082                	sd	zero,96(sp)
    80002dc0:	4481                	li	s1,0
    80002dc2:	4381                	li	t2,0
    80002dc4:	ec82                	sd	zero,88(sp)
    80002dc6:	e882                	sd	zero,80(sp)
    80002dc8:	65ae                	ld	a1,200(sp)
    80002dca:	40a586bb          	subw	a3,a1,a0
    80002dce:	36e1                	addiw	a3,a3,-8
    80002dd0:	4721                	li	a4,8
    80002dd2:	88b6                	mv	a7,a3
    80002dd4:	00e6c363          	blt	a3,a4,80002dda <svd_core+0xdce>
    80002dd8:	48a1                	li	a7,8
    80002dda:	00d05563          	blez	a3,80002de4 <svd_core+0xdd8>
    80002dde:	00863f83          	ld	t6,8(a2)
    80002de2:	a011                	j	80002de6 <svd_core+0xdda>
    80002de4:	4f81                	li	t6,0
    80002de6:	fc063283          	ld	t0,-64(a2)
    80002dea:	00063083          	ld	ra,0(a2)
    80002dee:	0128c963          	blt	a7,s2,80002e00 <svd_core+0xdf4>
    80002df2:	01063b83          	ld	s7,16(a2)
    80002df6:	07289d63          	bne	a7,s2,80002e70 <svd_core+0xe64>
    80002dfa:	4e81                	li	t4,0
    80002dfc:	4e01                	li	t3,0
    80002dfe:	a021                	j	80002e06 <svd_core+0xdfa>
    80002e00:	4e81                	li	t4,0
    80002e02:	4e01                	li	t3,0
    80002e04:	4b81                	li	s7,0
    80002e06:	4d81                	li	s11,0
    80002e08:	4801                	li	a6,0
    80002e0a:	4781                	li	a5,0
    80002e0c:	7686                	ld	a3,96(sp)
    80002e0e:	6766                	ld	a4,88(sp)
    80002e10:	65c6                	ld	a1,80(sp)
    80002e12:	64b4040b          	.insn	4, 0x64b4040b
    80002e16:	44e6840b          	.insn	4, 0x44e6840b
    80002e1a:	2474840b          	.insn	4, 0x2474840b
    80002e1e:	4062847b          	.insn	4, 0x4062847b
    80002e22:	f2040053          	fmv.d.x	ft0,s0
    80002e26:	0209f053          	fadd.d	ft0,fs3,ft0
    80002e2a:	6cfe870b          	.insn	4, 0x6cfe870b
    80002e2e:	4d0e068b          	.insn	4, 0x4d0e068b
    80002e32:	2dbb868b          	.insn	4, 0x2dbb868b
    80002e36:	c1f086fb          	.insn	4, 0xc1f086fb
    80002e3a:	f20680d3          	fmv.d.x	ft1,a3
    80002e3e:	021079d3          	fadd.d	fs3,ft0,ft1
    80002e42:	0541                	addi	a0,a0,16
    80002e44:	2f09                	addiw	t5,t5,2
    80002e46:	08060613          	addi	a2,a2,128
    80002e4a:	7dc6                	ld	s11,112(sp)
    80002e4c:	76e6                	ld	a3,120(sp)
    80002e4e:	43a1                	li	t2,8
    80002e50:	f2df1de3          	bne	t5,a3,80002d8a <svd_core+0xd7e>
    80002e54:	b5fd                	j	80002d42 <svd_core+0xd36>
    80002e56:	fd863383          	ld	t2,-40(a2)
    80002e5a:	84a2                	mv	s1,s0
    80002e5c:	4715                	li	a4,5
    80002e5e:	02e6e463          	bltu	a3,a4,80002e86 <svd_core+0xe7a>
    80002e62:	fe063403          	ld	s0,-32(a2)
    80002e66:	f0a2                	sd	s0,96(sp)
    80002e68:	02e69563          	bne	a3,a4,80002e92 <svd_core+0xe86>
    80002e6c:	4401                	li	s0,0
    80002e6e:	bf99                	j	80002dc4 <svd_core+0xdb8>
    80002e70:	01863d83          	ld	s11,24(a2)
    80002e74:	4715                	li	a4,5
    80002e76:	00e8eb63          	bltu	a7,a4,80002e8c <svd_core+0xe80>
    80002e7a:	02063e03          	ld	t3,32(a2)
    80002e7e:	02e89863          	bne	a7,a4,80002eae <svd_core+0xea2>
    80002e82:	4e81                	li	t4,0
    80002e84:	b751                	j	80002e08 <svd_core+0xdfc>
    80002e86:	4401                	li	s0,0
    80002e88:	f082                	sd	zero,96(sp)
    80002e8a:	bf2d                	j	80002dc4 <svd_core+0xdb8>
    80002e8c:	4e81                	li	t4,0
    80002e8e:	4e01                	li	t3,0
    80002e90:	bfa5                	j	80002e08 <svd_core+0xdfc>
    80002e92:	fe863783          	ld	a5,-24(a2)
    80002e96:	471d                	li	a4,7
    80002e98:	ecbe                	sd	a5,88(sp)
    80002e9a:	02e6e663          	bltu	a3,a4,80002ec6 <svd_core+0xeba>
    80002e9e:	ff063403          	ld	s0,-16(a2)
    80002ea2:	f2e682e3          	beq	a3,a4,80002dc6 <svd_core+0xdba>
    80002ea6:	ff863583          	ld	a1,-8(a2)
    80002eaa:	e8ae                	sd	a1,80(sp)
    80002eac:	bf31                	j	80002dc8 <svd_core+0xdbc>
    80002eae:	02863803          	ld	a6,40(a2)
    80002eb2:	471d                	li	a4,7
    80002eb4:	00e8eb63          	bltu	a7,a4,80002eca <svd_core+0xebe>
    80002eb8:	479d                	li	a5,7
    80002eba:	03063e83          	ld	t4,48(a2)
    80002ebe:	f4f886e3          	beq	a7,a5,80002e0a <svd_core+0xdfe>
    80002ec2:	7e1c                	ld	a5,56(a2)
    80002ec4:	b7a1                	j	80002e0c <svd_core+0xe00>
    80002ec6:	4401                	li	s0,0
    80002ec8:	bdfd                	j	80002dc6 <svd_core+0xdba>
    80002eca:	4e81                	li	t4,0
    80002ecc:	bf3d                	j	80002e0a <svd_core+0xdfe>
    80002ece:	4801                	li	a6,0
    80002ed0:	e927dde3          	bge	a5,s2,80002d6a <svd_core+0xd5e>
    80002ed4:	4481                	li	s1,0
    80002ed6:	4701                	li	a4,0
    80002ed8:	4601                	li	a2,0
    80002eda:	4681                	li	a3,0
    80002edc:	4581                	li	a1,0
    80002ede:	4781                	li	a5,0
    80002ee0:	9556                	add	a0,a0,s5
    80002ee2:	6108                	ld	a0,0(a0)
    80002ee4:	64f4878b          	.insn	4, 0x64f4878b
    80002ee8:	44b7058b          	.insn	4, 0x44b7058b
    80002eec:	24d6058b          	.insn	4, 0x24d6058b
    80002ef0:	4105057b          	.insn	4, 0x4105057b
    80002ef4:	f2050053          	fmv.d.x	ft0,a0
    80002ef8:	0209f9d3          	fadd.d	fs3,fs3,ft0
    80002efc:	0b29f053          	fsub.d	ft0,fs3,fs2
    80002f00:	a2801553          	flt.d	a0,ft0,fs0
    80002f04:	c119                	beqz	a0,80002f0a <svd_core+0xefe>
    80002f06:	22001053          	fneg.d	ft0,ft0
    80002f0a:	75ca                	ld	a1,176(sp)
    80002f0c:	a2901553          	flt.d	a0,ft0,fs1
    80002f10:	23290a53          	fmv.d	fs4,fs2
    80002f14:	c119                	beqz	a0,80002f1a <svd_core+0xf0e>
    80002f16:	0040b06f          	j	8000df1a <svd_core+0xbf0e>
    80002f1a:	4281                	li	t0,0
    80002f1c:	4889                	li	a7,2
    80002f1e:	52010813          	addi	a6,sp,1312
    80002f22:	a839                	j	80002f40 <svd_core+0xf34>
    80002f24:	1b307053          	fdiv.d	ft0,ft0,fs3
    80002f28:	00329513          	slli	a0,t0,0x3
    80002f2c:	955a                	add	a0,a0,s6
    80002f2e:	00053027          	fsd	ft0,0(a0)
    80002f32:	0285                	addi	t0,t0,1
    80002f34:	986e                	add	a6,a6,s11
    80002f36:	652e                	ld	a0,200(sp)
    80002f38:	98aa                	add	a7,a7,a0
    80002f3a:	650e                	ld	a0,192(sp)
    80002f3c:	26a28363          	beq	t0,a0,800031a2 <svd_core+0x1196>
    80002f40:	652e                	ld	a0,200(sp)
    80002f42:	00754d63          	blt	a0,t2,80002f5c <svd_core+0xf50>
    80002f46:	752a                	ld	a0,168(sp)
    80002f48:	00757e63          	bgeu	a0,t2,80002f64 <svd_core+0xf58>
    80002f4c:	4301                	li	t1,0
    80002f4e:	f2000053          	fmv.d.x	ft0,zero
    80002f52:	461d                	li	a2,7
    80002f54:	750a                	ld	a0,160(sp)
    80002f56:	10051663          	bnez	a0,80003062 <svd_core+0x1056>
    80002f5a:	aa4d                	j	8000310c <svd_core+0x1100>
    80002f5c:	f2000053          	fmv.d.x	ft0,zero
    80002f60:	4301                	li	t1,0
    80002f62:	a26d                	j	8000310c <svd_core+0x1100>
    80002f64:	4301                	li	t1,0
    80002f66:	4701                	li	a4,0
    80002f68:	f2000053          	fmv.d.x	ft0,zero
    80002f6c:	121c                	addi	a5,sp,288
    80002f6e:	8642                	mv	a2,a6
    80002f70:	fc063383          	ld	t2,-64(a2)
    80002f74:	fc863e83          	ld	t4,-56(a2)
    80002f78:	fd063e03          	ld	t3,-48(a2)
    80002f7c:	fd863f03          	ld	t5,-40(a2)
    80002f80:	fe063f83          	ld	t6,-32(a2)
    80002f84:	fe863983          	ld	s3,-24(a2)
    80002f88:	ff063903          	ld	s2,-16(a2)
    80002f8c:	ff863b03          	ld	s6,-8(a2)
    80002f90:	fc07ba03          	ld	s4,-64(a5)
    80002f94:	fc87bc03          	ld	s8,-56(a5)
    80002f98:	fd07bb83          	ld	s7,-48(a5)
    80002f9c:	fd87b403          	ld	s0,-40(a5)
    80002fa0:	fe07bc83          	ld	s9,-32(a5)
    80002fa4:	fe87b483          	ld	s1,-24(a5)
    80002fa8:	ff07b583          	ld	a1,-16(a5)
    80002fac:	ff87b683          	ld	a3,-8(a5)
    80002fb0:	01d3850b          	.insn	4, 0x01d3850b
    80002fb4:	21ee050b          	.insn	4, 0x21ee050b
    80002fb8:	413f850b          	.insn	4, 0x413f850b
    80002fbc:	6169050b          	.insn	4, 0x6169050b
    80002fc0:	818a050b          	.insn	4, 0x818a050b
    80002fc4:	a08b850b          	.insn	4, 0xa08b850b
    80002fc8:	c09c850b          	.insn	4, 0xc09c850b
    80002fcc:	1cd5857b          	.insn	4, 0x1cd5857b
    80002fd0:	f20500d3          	fmv.d.x	ft1,a0
    80002fd4:	02107053          	fadd.d	ft0,ft0,ft1
    80002fd8:	00063383          	ld	t2,0(a2)
    80002fdc:	00863e03          	ld	t3,8(a2)
    80002fe0:	01063e83          	ld	t4,16(a2)
    80002fe4:	01863f83          	ld	t6,24(a2)
    80002fe8:	02063f03          	ld	t5,32(a2)
    80002fec:	02863903          	ld	s2,40(a2)
    80002ff0:	03063983          	ld	s3,48(a2)
    80002ff4:	03863a03          	ld	s4,56(a2)
    80002ff8:	0007bb03          	ld	s6,0(a5)
    80002ffc:	0087bc03          	ld	s8,8(a5)
    80003000:	0107bb83          	ld	s7,16(a5)
    80003004:	0187bc83          	ld	s9,24(a5)
    80003008:	7394                	ld	a3,32(a5)
    8000300a:	7780                	ld	s0,40(a5)
    8000300c:	7b88                	ld	a0,48(a5)
    8000300e:	7f84                	ld	s1,56(a5)
    80003010:	09c3858b          	.insn	4, 0x09c3858b
    80003014:	29fe858b          	.insn	4, 0x29fe858b
    80003018:	492f058b          	.insn	4, 0x492f058b
    8000301c:	6949858b          	.insn	4, 0x6949858b
    80003020:	898b058b          	.insn	4, 0x898b058b
    80003024:	a99b858b          	.insn	4, 0xa99b858b
    80003028:	6cee                	ld	s9,216(sp)
    8000302a:	c886858b          	.insn	4, 0xc886858b
    8000302e:	9c95057b          	.insn	4, 0x9c95057b
    80003032:	f20500d3          	fmv.d.x	ft1,a0
    80003036:	02107053          	fadd.d	ft0,ft0,ft1
    8000303a:	0341                	addi	t1,t1,16
    8000303c:	2709                	addiw	a4,a4,2
    8000303e:	08060613          	addi	a2,a2,128
    80003042:	08078793          	addi	a5,a5,128
    80003046:	f39715e3          	bne	a4,s9,80002f70 <svd_core+0xf64>
    8000304a:	00730613          	addi	a2,t1,7
    8000304e:	6c4e                	ld	s8,208(sp)
    80003050:	75ca                	ld	a1,176(sp)
    80003052:	2e010b13          	addi	s6,sp,736
    80003056:	4a05                	li	s4,1
    80003058:	43a1                	li	t2,8
    8000305a:	4909                	li	s2,2
    8000305c:	498d                	li	s3,3
    8000305e:	750a                	ld	a0,160(sp)
    80003060:	c555                	beqz	a0,8000310c <svd_core+0x1100>
    80003062:	652e                	ld	a0,200(sp)
    80003064:	02a28533          	mul	a0,t0,a0
    80003068:	951a                	add	a0,a0,t1
    8000306a:	050e                	slli	a0,a0,0x3
    8000306c:	4e010593          	addi	a1,sp,1248
    80003070:	952e                	add	a0,a0,a1
    80003072:	00053383          	ld	t2,0(a0)
    80003076:	00853e03          	ld	t3,8(a0)
    8000307a:	01053e83          	ld	t4,16(a0)
    8000307e:	01853f03          	ld	t5,24(a0)
    80003082:	02053f83          	ld	t6,32(a0)
    80003086:	02853983          	ld	s3,40(a0)
    8000308a:	03053903          	ld	s2,48(a0)
    8000308e:	03853a03          	ld	s4,56(a0)
    80003092:	00331693          	slli	a3,t1,0x3
    80003096:	00da8733          	add	a4,s5,a3
    8000309a:	00073b03          	ld	s6,0(a4)
    8000309e:	0086e793          	ori	a5,a3,8
    800030a2:	97d6                	add	a5,a5,s5
    800030a4:	639c                	ld	a5,0(a5)
    800030a6:	0106e493          	ori	s1,a3,16
    800030aa:	94d6                	add	s1,s1,s5
    800030ac:	6084                	ld	s1,0(s1)
    800030ae:	0186e593          	ori	a1,a3,24
    800030b2:	95d6                	add	a1,a1,s5
    800030b4:	618c                	ld	a1,0(a1)
    800030b6:	0206e413          	ori	s0,a3,32
    800030ba:	9456                	add	s0,s0,s5
    800030bc:	6000                	ld	s0,0(s0)
    800030be:	0286e513          	ori	a0,a3,40
    800030c2:	9556                	add	a0,a0,s5
    800030c4:	6108                	ld	a0,0(a0)
    800030c6:	0306e693          	ori	a3,a3,48
    800030ca:	96d6                	add	a3,a3,s5
    800030cc:	6294                	ld	a3,0(a3)
    800030ce:	060e                	slli	a2,a2,0x3
    800030d0:	9656                	add	a2,a2,s5
    800030d2:	6210                	ld	a2,0(a2)
    800030d4:	01c3870b          	.insn	4, 0x01c3870b
    800030d8:	21ee870b          	.insn	4, 0x21ee870b
    800030dc:	413f870b          	.insn	4, 0x413f870b
    800030e0:	498d                	li	s3,3
    800030e2:	43a1                	li	t2,8
    800030e4:	6149070b          	.insn	4, 0x6149070b
    800030e8:	4909                	li	s2,2
    800030ea:	4a05                	li	s4,1
    800030ec:	80fb070b          	.insn	4, 0x80fb070b
    800030f0:	2e010b13          	addi	s6,sp,736
    800030f4:	a0b4858b          	.insn	4, 0xa0b4858b
    800030f8:	75ca                	ld	a1,176(sp)
    800030fa:	c0a4050b          	.insn	4, 0xc0a4050b
    800030fe:	1cc6857b          	.insn	4, 0x1cc6857b
    80003102:	f20500d3          	fmv.d.x	ft1,a0
    80003106:	02107053          	fadd.d	ft0,ft0,ft1
    8000310a:	0321                	addi	t1,t1,8
    8000310c:	0003069b          	sext.w	a3,t1
    80003110:	652e                	ld	a0,200(sp)
    80003112:	e0a6d9e3          	bge	a3,a0,80002f24 <svd_core+0xf18>
    80003116:	00368613          	addi	a2,a3,3
    8000311a:	00d88533          	add	a0,a7,a3
    8000311e:	050e                	slli	a0,a0,0x3
    80003120:	4e010693          	addi	a3,sp,1248
    80003124:	96aa                	add	a3,a3,a0
    80003126:	ffd60513          	addi	a0,a2,-3
    8000312a:	ff06b087          	fld	ft1,-16(a3)
    8000312e:	01a57533          	and	a0,a0,s10
    80003132:	050e                	slli	a0,a0,0x3
    80003134:	9556                	add	a0,a0,s5
    80003136:	00053107          	fld	ft2,0(a0)
    8000313a:	0220f043          	fmadd.d	ft0,ft1,ft2,ft0
    8000313e:	00c58733          	add	a4,a1,a2
    80003142:	df2701e3          	beq	a4,s2,80002f24 <svd_core+0xf18>
    80003146:	ffe60513          	addi	a0,a2,-2
    8000314a:	ff86b087          	fld	ft1,-8(a3)
    8000314e:	01a57533          	and	a0,a0,s10
    80003152:	050e                	slli	a0,a0,0x3
    80003154:	9556                	add	a0,a0,s5
    80003156:	00053107          	fld	ft2,0(a0)
    8000315a:	0220f043          	fmadd.d	ft0,ft1,ft2,ft0
    8000315e:	dd4703e3          	beq	a4,s4,80002f24 <svd_core+0xf18>
    80003162:	fff60513          	addi	a0,a2,-1
    80003166:	0006b087          	fld	ft1,0(a3)
    8000316a:	01a57533          	and	a0,a0,s10
    8000316e:	050e                	slli	a0,a0,0x3
    80003170:	9556                	add	a0,a0,s5
    80003172:	00053107          	fld	ft2,0(a0)
    80003176:	0220f043          	fmadd.d	ft0,ft1,ft2,ft0
    8000317a:	da0705e3          	beqz	a4,80002f24 <svd_core+0xf18>
    8000317e:	0086b087          	fld	ft1,8(a3)
    80003182:	01a67533          	and	a0,a2,s10
    80003186:	050e                	slli	a0,a0,0x3
    80003188:	9556                	add	a0,a0,s5
    8000318a:	00053107          	fld	ft2,0(a0)
    8000318e:	0220f043          	fmadd.d	ft0,ft1,ft2,ft0
    80003192:	0611                	addi	a2,a2,4
    80003194:	00c58533          	add	a0,a1,a2
    80003198:	02068693          	addi	a3,a3,32
    8000319c:	f93515e3          	bne	a0,s3,80003126 <svd_core+0x111a>
    800031a0:	b351                	j	80002f24 <svd_core+0xf18>
    800031a2:	1188                	addi	a0,sp,224
    800031a4:	20000613          	li	a2,512
    800031a8:	4581                	li	a1,0
    800031aa:	0000b097          	auipc	ra,0xb
    800031ae:	488080e7          	jalr	1160(ra) # 8000e632 <memset>
    800031b2:	43a1                	li	t2,8
    800031b4:	f2000053          	fmv.d.x	ft0,zero
    800031b8:	22000953          	fmv.d	fs2,ft0
    800031bc:	7da6                	ld	s11,104(sp)
    800031be:	67ca                	ld	a5,144(sp)
    800031c0:	652e                	ld	a0,200(sp)
    800031c2:	46a05063          	blez	a0,80003622 <svd_core+0x1616>
    800031c6:	4281                	li	t0,0
    800031c8:	4889                	li	a7,2
    800031ca:	6826                	ld	a6,72(sp)
    800031cc:	a829                	j	800031e6 <svd_core+0x11da>
    800031ce:	00329513          	slli	a0,t0,0x3
    800031d2:	9556                	add	a0,a0,s5
    800031d4:	00153027          	fsd	ft1,0(a0)
    800031d8:	0285                	addi	t0,t0,1
    800031da:	986e                	add	a6,a6,s11
    800031dc:	650e                	ld	a0,192(sp)
    800031de:	98aa                	add	a7,a7,a0
    800031e0:	756a                	ld	a0,184(sp)
    800031e2:	26a28463          	beq	t0,a0,8000344a <svd_core+0x143e>
    800031e6:	650e                	ld	a0,192(sp)
    800031e8:	00756d63          	bltu	a0,t2,80003202 <svd_core+0x11f6>
    800031ec:	652a                	ld	a0,136(sp)
    800031ee:	00757e63          	bgeu	a0,t2,8000320a <svd_core+0x11fe>
    800031f2:	4301                	li	t1,0
    800031f4:	f20000d3          	fmv.d.x	ft1,zero
    800031f8:	461d                	li	a2,7
    800031fa:	650a                	ld	a0,128(sp)
    800031fc:	10051663          	bnez	a0,80003308 <svd_core+0x12fc>
    80003200:	aa55                	j	800033b4 <svd_core+0x13a8>
    80003202:	f20000d3          	fmv.d.x	ft1,zero
    80003206:	4301                	li	t1,0
    80003208:	a275                	j	800033b4 <svd_core+0x13a8>
    8000320a:	4301                	li	t1,0
    8000320c:	4701                	li	a4,0
    8000320e:	f20000d3          	fmv.d.x	ft1,zero
    80003212:	161c                	addi	a5,sp,800
    80003214:	8642                	mv	a2,a6
    80003216:	fc063383          	ld	t2,-64(a2)
    8000321a:	fc863e83          	ld	t4,-56(a2)
    8000321e:	fd063e03          	ld	t3,-48(a2)
    80003222:	fd863f03          	ld	t5,-40(a2)
    80003226:	fe063f83          	ld	t6,-32(a2)
    8000322a:	fe863983          	ld	s3,-24(a2)
    8000322e:	ff063903          	ld	s2,-16(a2)
    80003232:	ff863b03          	ld	s6,-8(a2)
    80003236:	fc07ba03          	ld	s4,-64(a5)
    8000323a:	fc87bc03          	ld	s8,-56(a5)
    8000323e:	fd07bb83          	ld	s7,-48(a5)
    80003242:	fd87b403          	ld	s0,-40(a5)
    80003246:	fe07bc83          	ld	s9,-32(a5)
    8000324a:	fe87b483          	ld	s1,-24(a5)
    8000324e:	ff07b583          	ld	a1,-16(a5)
    80003252:	ff87b683          	ld	a3,-8(a5)
    80003256:	01d3850b          	.insn	4, 0x01d3850b
    8000325a:	21ee050b          	.insn	4, 0x21ee050b
    8000325e:	413f850b          	.insn	4, 0x413f850b
    80003262:	6169050b          	.insn	4, 0x6169050b
    80003266:	818a050b          	.insn	4, 0x818a050b
    8000326a:	a08b850b          	.insn	4, 0xa08b850b
    8000326e:	c09c850b          	.insn	4, 0xc09c850b
    80003272:	1cd5857b          	.insn	4, 0x1cd5857b
    80003276:	f2050153          	fmv.d.x	ft2,a0
    8000327a:	0220f0d3          	fadd.d	ft1,ft1,ft2
    8000327e:	00063383          	ld	t2,0(a2)
    80003282:	00863e03          	ld	t3,8(a2)
    80003286:	01063e83          	ld	t4,16(a2)
    8000328a:	01863f83          	ld	t6,24(a2)
    8000328e:	02063f03          	ld	t5,32(a2)
    80003292:	02863903          	ld	s2,40(a2)
    80003296:	03063983          	ld	s3,48(a2)
    8000329a:	03863a03          	ld	s4,56(a2)
    8000329e:	0007bb03          	ld	s6,0(a5)
    800032a2:	0087bc03          	ld	s8,8(a5)
    800032a6:	0107bb83          	ld	s7,16(a5)
    800032aa:	0187bc83          	ld	s9,24(a5)
    800032ae:	7394                	ld	a3,32(a5)
    800032b0:	7780                	ld	s0,40(a5)
    800032b2:	7b88                	ld	a0,48(a5)
    800032b4:	7f84                	ld	s1,56(a5)
    800032b6:	09c3858b          	.insn	4, 0x09c3858b
    800032ba:	29fe858b          	.insn	4, 0x29fe858b
    800032be:	492f058b          	.insn	4, 0x492f058b
    800032c2:	6949858b          	.insn	4, 0x6949858b
    800032c6:	898b058b          	.insn	4, 0x898b058b
    800032ca:	6c4e                	ld	s8,208(sp)
    800032cc:	a99b858b          	.insn	4, 0xa99b858b
    800032d0:	c886858b          	.insn	4, 0xc886858b
    800032d4:	9c95057b          	.insn	4, 0x9c95057b
    800032d8:	f2050153          	fmv.d.x	ft2,a0
    800032dc:	0220f0d3          	fadd.d	ft1,ft1,ft2
    800032e0:	0341                	addi	t1,t1,16
    800032e2:	2709                	addiw	a4,a4,2
    800032e4:	08060613          	addi	a2,a2,128
    800032e8:	08078793          	addi	a5,a5,128
    800032ec:	f38715e3          	bne	a4,s8,80003216 <svd_core+0x120a>
    800032f0:	00730613          	addi	a2,t1,7
    800032f4:	6cee                	ld	s9,216(sp)
    800032f6:	67ca                	ld	a5,144(sp)
    800032f8:	2e010b13          	addi	s6,sp,736
    800032fc:	4a05                	li	s4,1
    800032fe:	43a1                	li	t2,8
    80003300:	4909                	li	s2,2
    80003302:	498d                	li	s3,3
    80003304:	650a                	ld	a0,128(sp)
    80003306:	c55d                	beqz	a0,800033b4 <svd_core+0x13a8>
    80003308:	650e                	ld	a0,192(sp)
    8000330a:	02a28533          	mul	a0,t0,a0
    8000330e:	951a                	add	a0,a0,t1
    80003310:	050e                	slli	a0,a0,0x3
    80003312:	65ea                	ld	a1,152(sp)
    80003314:	952e                	add	a0,a0,a1
    80003316:	00053383          	ld	t2,0(a0)
    8000331a:	00853e03          	ld	t3,8(a0)
    8000331e:	01053e83          	ld	t4,16(a0)
    80003322:	01853f03          	ld	t5,24(a0)
    80003326:	02053f83          	ld	t6,32(a0)
    8000332a:	02853983          	ld	s3,40(a0)
    8000332e:	03053903          	ld	s2,48(a0)
    80003332:	03853a03          	ld	s4,56(a0)
    80003336:	00331693          	slli	a3,t1,0x3
    8000333a:	00db0733          	add	a4,s6,a3
    8000333e:	2e010093          	addi	ra,sp,736
    80003342:	00073b03          	ld	s6,0(a4)
    80003346:	0086e793          	ori	a5,a3,8
    8000334a:	9786                	add	a5,a5,ra
    8000334c:	639c                	ld	a5,0(a5)
    8000334e:	0106e493          	ori	s1,a3,16
    80003352:	9486                	add	s1,s1,ra
    80003354:	6084                	ld	s1,0(s1)
    80003356:	0186e593          	ori	a1,a3,24
    8000335a:	9586                	add	a1,a1,ra
    8000335c:	618c                	ld	a1,0(a1)
    8000335e:	0206e413          	ori	s0,a3,32
    80003362:	9406                	add	s0,s0,ra
    80003364:	6000                	ld	s0,0(s0)
    80003366:	0286e513          	ori	a0,a3,40
    8000336a:	9506                	add	a0,a0,ra
    8000336c:	6108                	ld	a0,0(a0)
    8000336e:	0306e693          	ori	a3,a3,48
    80003372:	9686                	add	a3,a3,ra
    80003374:	6294                	ld	a3,0(a3)
    80003376:	060e                	slli	a2,a2,0x3
    80003378:	9606                	add	a2,a2,ra
    8000337a:	6210                	ld	a2,0(a2)
    8000337c:	01c3870b          	.insn	4, 0x01c3870b
    80003380:	21ee870b          	.insn	4, 0x21ee870b
    80003384:	413f870b          	.insn	4, 0x413f870b
    80003388:	498d                	li	s3,3
    8000338a:	43a1                	li	t2,8
    8000338c:	6149070b          	.insn	4, 0x6149070b
    80003390:	4909                	li	s2,2
    80003392:	4a05                	li	s4,1
    80003394:	80fb070b          	.insn	4, 0x80fb070b
    80003398:	2e010b13          	addi	s6,sp,736
    8000339c:	67ca                	ld	a5,144(sp)
    8000339e:	a0b4858b          	.insn	4, 0xa0b4858b
    800033a2:	c0a4050b          	.insn	4, 0xc0a4050b
    800033a6:	1cc6857b          	.insn	4, 0x1cc6857b
    800033aa:	f2050153          	fmv.d.x	ft2,a0
    800033ae:	0220f0d3          	fadd.d	ft1,ft1,ft2
    800033b2:	0321                	addi	t1,t1,8
    800033b4:	0003069b          	sext.w	a3,t1
    800033b8:	650e                	ld	a0,192(sp)
    800033ba:	e0a6dae3          	bge	a3,a0,800031ce <svd_core+0x11c2>
    800033be:	00368613          	addi	a2,a3,3
    800033c2:	00d88533          	add	a0,a7,a3
    800033c6:	050e                	slli	a0,a0,0x3
    800033c8:	65ea                	ld	a1,152(sp)
    800033ca:	00a586b3          	add	a3,a1,a0
    800033ce:	ffd60513          	addi	a0,a2,-3
    800033d2:	ff06b107          	fld	ft2,-16(a3)
    800033d6:	01a57533          	and	a0,a0,s10
    800033da:	050e                	slli	a0,a0,0x3
    800033dc:	955a                	add	a0,a0,s6
    800033de:	00053187          	fld	ft3,0(a0)
    800033e2:	0a3170c3          	fmadd.d	ft1,ft2,ft3,ft1
    800033e6:	00c78733          	add	a4,a5,a2
    800033ea:	df2702e3          	beq	a4,s2,800031ce <svd_core+0x11c2>
    800033ee:	ffe60513          	addi	a0,a2,-2
    800033f2:	ff86b107          	fld	ft2,-8(a3)
    800033f6:	01a57533          	and	a0,a0,s10
    800033fa:	050e                	slli	a0,a0,0x3
    800033fc:	955a                	add	a0,a0,s6
    800033fe:	00053187          	fld	ft3,0(a0)
    80003402:	0a3170c3          	fmadd.d	ft1,ft2,ft3,ft1
    80003406:	dd4704e3          	beq	a4,s4,800031ce <svd_core+0x11c2>
    8000340a:	fff60513          	addi	a0,a2,-1
    8000340e:	0006b107          	fld	ft2,0(a3)
    80003412:	01a57533          	and	a0,a0,s10
    80003416:	050e                	slli	a0,a0,0x3
    80003418:	955a                	add	a0,a0,s6
    8000341a:	00053187          	fld	ft3,0(a0)
    8000341e:	0a3170c3          	fmadd.d	ft1,ft2,ft3,ft1
    80003422:	da0706e3          	beqz	a4,800031ce <svd_core+0x11c2>
    80003426:	0086b107          	fld	ft2,8(a3)
    8000342a:	01a67533          	and	a0,a2,s10
    8000342e:	050e                	slli	a0,a0,0x3
    80003430:	955a                	add	a0,a0,s6
    80003432:	00053187          	fld	ft3,0(a0)
    80003436:	0a3170c3          	fmadd.d	ft1,ft2,ft3,ft1
    8000343a:	0611                	addi	a2,a2,4
    8000343c:	00c78533          	add	a0,a5,a2
    80003440:	02068693          	addi	a3,a3,32
    80003444:	f93515e3          	bne	a0,s3,800033ce <svd_core+0x13c2>
    80003448:	b359                	j	800031ce <svd_core+0x11c2>
    8000344a:	652e                	ld	a0,200(sp)
    8000344c:	04a05763          	blez	a0,8000349a <svd_core+0x148e>
    80003450:	7562                	ld	a0,56(sp)
    80003452:	04757763          	bgeu	a0,t2,800034a0 <svd_core+0x1494>
    80003456:	f2000953          	fmv.d.x	fs2,zero
    8000345a:	4501                	li	a0,0
    8000345c:	75c2                	ld	a1,48(sp)
    8000345e:	1c058263          	beqz	a1,80003622 <svd_core+0x1616>
    80003462:	65ae                	ld	a1,200(sp)
    80003464:	9d89                	subw	a1,a1,a0
    80003466:	4621                	li	a2,8
    80003468:	87ae                	mv	a5,a1
    8000346a:	00c5c363          	blt	a1,a2,80003470 <svd_core+0x1464>
    8000346e:	47a1                	li	a5,8
    80003470:	050e                	slli	a0,a0,0x3
    80003472:	18b05163          	blez	a1,800035f4 <svd_core+0x15e8>
    80003476:	00856593          	ori	a1,a0,8
    8000347a:	95d6                	add	a1,a1,s5
    8000347c:	0005b803          	ld	a6,0(a1)
    80003480:	1727cd63          	blt	a5,s2,800035fa <svd_core+0x15ee>
    80003484:	01056593          	ori	a1,a0,16
    80003488:	95d6                	add	a1,a1,s5
    8000348a:	6190                	ld	a2,0(a1)
    8000348c:	01278463          	beq	a5,s2,80003494 <svd_core+0x1488>
    80003490:	68b0506f          	j	8000931a <svd_core+0x730e>
    80003494:	4481                	li	s1,0
    80003496:	4701                	li	a4,0
    80003498:	a2a5                	j	80003600 <svd_core+0x15f4>
    8000349a:	f2000953          	fmv.d.x	fs2,zero
    8000349e:	a251                	j	80003622 <svd_core+0x1616>
    800034a0:	4501                	li	a0,0
    800034a2:	4581                	li	a1,0
    800034a4:	f2000953          	fmv.d.x	fs2,zero
    800034a8:	1210                	addi	a2,sp,288
    800034aa:	66ae                	ld	a3,200(sp)
    800034ac:	40a6873b          	subw	a4,a3,a0
    800034b0:	47a1                	li	a5,8
    800034b2:	86ba                	mv	a3,a4
    800034b4:	00f74363          	blt	a4,a5,800034ba <svd_core+0x14ae>
    800034b8:	46a1                	li	a3,8
    800034ba:	00e05e63          	blez	a4,800034d6 <svd_core+0x14ca>
    800034be:	fc863303          	ld	t1,-56(a2)
    800034c2:	0126cd63          	blt	a3,s2,800034dc <svd_core+0x14d0>
    800034c6:	fd063403          	ld	s0,-48(a2)
    800034ca:	0b269463          	bne	a3,s2,80003572 <svd_core+0x1566>
    800034ce:	84a2                	mv	s1,s0
    800034d0:	4401                	li	s0,0
    800034d2:	4e01                	li	t3,0
    800034d4:	a039                	j	800034e2 <svd_core+0x14d6>
    800034d6:	4301                	li	t1,0
    800034d8:	ff26d7e3          	bge	a3,s2,800034c6 <svd_core+0x14ba>
    800034dc:	4401                	li	s0,0
    800034de:	4e01                	li	t3,0
    800034e0:	4481                	li	s1,0
    800034e2:	4381                	li	t2,0
    800034e4:	f082                	sd	zero,96(sp)
    800034e6:	ec82                	sd	zero,88(sp)
    800034e8:	66ae                	ld	a3,200(sp)
    800034ea:	9e89                	subw	a3,a3,a0
    800034ec:	36e1                	addiw	a3,a3,-8
    800034ee:	4721                	li	a4,8
    800034f0:	88b6                	mv	a7,a3
    800034f2:	00e6c363          	blt	a3,a4,800034f8 <svd_core+0x14ec>
    800034f6:	48a1                	li	a7,8
    800034f8:	00d05463          	blez	a3,80003500 <svd_core+0x14f4>
    800034fc:	6614                	ld	a3,8(a2)
    800034fe:	a011                	j	80003502 <svd_core+0x14f6>
    80003500:	4681                	li	a3,0
    80003502:	fc063083          	ld	ra,-64(a2)
    80003506:	00063f83          	ld	t6,0(a2)
    8000350a:	0128ca63          	blt	a7,s2,8000351e <svd_core+0x1512>
    8000350e:	01063283          	ld	t0,16(a2)
    80003512:	07289c63          	bne	a7,s2,8000358a <svd_core+0x157e>
    80003516:	88b6                	mv	a7,a3
    80003518:	4f01                	li	t5,0
    8000351a:	4e81                	li	t4,0
    8000351c:	a029                	j	80003526 <svd_core+0x151a>
    8000351e:	88b6                	mv	a7,a3
    80003520:	4f01                	li	t5,0
    80003522:	4e81                	li	t4,0
    80003524:	4281                	li	t0,0
    80003526:	4d81                	li	s11,0
    80003528:	4801                	li	a6,0
    8000352a:	4781                	li	a5,0
    8000352c:	7686                	ld	a3,96(sp)
    8000352e:	6766                	ld	a4,88(sp)
    80003530:	64e4040b          	.insn	4, 0x64e4040b
    80003534:	44de040b          	.insn	4, 0x44de040b
    80003538:	2474840b          	.insn	4, 0x2474840b
    8000353c:	4060847b          	.insn	4, 0x4060847b
    80003540:	f20400d3          	fmv.d.x	ft1,s0
    80003544:	021970d3          	fadd.d	ft1,fs2,ft1
    80003548:	6cff070b          	.insn	4, 0x6cff070b
    8000354c:	4d0e868b          	.insn	4, 0x4d0e868b
    80003550:	2db2868b          	.insn	4, 0x2db2868b
    80003554:	c11f86fb          	.insn	4, 0xc11f86fb
    80003558:	f2068153          	fmv.d.x	ft2,a3
    8000355c:	0220f953          	fadd.d	fs2,ft1,ft2
    80003560:	0541                	addi	a0,a0,16
    80003562:	2589                	addiw	a1,a1,2
    80003564:	08060613          	addi	a2,a2,128
    80003568:	76e6                	ld	a3,120(sp)
    8000356a:	43a1                	li	t2,8
    8000356c:	f2d59fe3          	bne	a1,a3,800034aa <svd_core+0x149e>
    80003570:	b5f5                	j	8000345c <svd_core+0x1450>
    80003572:	fd863383          	ld	t2,-40(a2)
    80003576:	4715                	li	a4,5
    80003578:	02e6e563          	bltu	a3,a4,800035a2 <svd_core+0x1596>
    8000357c:	fe063e03          	ld	t3,-32(a2)
    80003580:	84a2                	mv	s1,s0
    80003582:	02e69863          	bne	a3,a4,800035b2 <svd_core+0x15a6>
    80003586:	4401                	li	s0,0
    80003588:	bfb1                	j	800034e4 <svd_core+0x14d8>
    8000358a:	01863d83          	ld	s11,24(a2)
    8000358e:	4715                	li	a4,5
    80003590:	00e8ed63          	bltu	a7,a4,800035aa <svd_core+0x159e>
    80003594:	02063e83          	ld	t4,32(a2)
    80003598:	02e89b63          	bne	a7,a4,800035ce <svd_core+0x15c2>
    8000359c:	88b6                	mv	a7,a3
    8000359e:	4f01                	li	t5,0
    800035a0:	b761                	j	80003528 <svd_core+0x151c>
    800035a2:	84a2                	mv	s1,s0
    800035a4:	4401                	li	s0,0
    800035a6:	4e01                	li	t3,0
    800035a8:	bf35                	j	800034e4 <svd_core+0x14d8>
    800035aa:	88b6                	mv	a7,a3
    800035ac:	4f01                	li	t5,0
    800035ae:	4e81                	li	t4,0
    800035b0:	bfa5                	j	80003528 <svd_core+0x151c>
    800035b2:	fe863783          	ld	a5,-24(a2)
    800035b6:	471d                	li	a4,7
    800035b8:	f0be                	sd	a5,96(sp)
    800035ba:	02e6e563          	bltu	a3,a4,800035e4 <svd_core+0x15d8>
    800035be:	ff063403          	ld	s0,-16(a2)
    800035c2:	f2e682e3          	beq	a3,a4,800034e6 <svd_core+0x14da>
    800035c6:	ff863683          	ld	a3,-8(a2)
    800035ca:	ecb6                	sd	a3,88(sp)
    800035cc:	bf31                	j	800034e8 <svd_core+0x14dc>
    800035ce:	02863803          	ld	a6,40(a2)
    800035d2:	479d                	li	a5,7
    800035d4:	00f8ea63          	bltu	a7,a5,800035e8 <svd_core+0x15dc>
    800035d8:	03063f03          	ld	t5,48(a2)
    800035dc:	00f89963          	bne	a7,a5,800035ee <svd_core+0x15e2>
    800035e0:	88b6                	mv	a7,a3
    800035e2:	b7a1                	j	8000352a <svd_core+0x151e>
    800035e4:	4401                	li	s0,0
    800035e6:	b701                	j	800034e6 <svd_core+0x14da>
    800035e8:	88b6                	mv	a7,a3
    800035ea:	4f01                	li	t5,0
    800035ec:	bf3d                	j	8000352a <svd_core+0x151e>
    800035ee:	88b6                	mv	a7,a3
    800035f0:	7e1c                	ld	a5,56(a2)
    800035f2:	bf2d                	j	8000352c <svd_core+0x1520>
    800035f4:	4801                	li	a6,0
    800035f6:	e927d7e3          	bge	a5,s2,80003484 <svd_core+0x1478>
    800035fa:	4481                	li	s1,0
    800035fc:	4701                	li	a4,0
    800035fe:	4601                	li	a2,0
    80003600:	4681                	li	a3,0
    80003602:	4581                	li	a1,0
    80003604:	4781                	li	a5,0
    80003606:	9556                	add	a0,a0,s5
    80003608:	6108                	ld	a0,0(a0)
    8000360a:	64f4878b          	.insn	4, 0x64f4878b
    8000360e:	44b7058b          	.insn	4, 0x44b7058b
    80003612:	24d6058b          	.insn	4, 0x24d6058b
    80003616:	4105057b          	.insn	4, 0x4105057b
    8000361a:	f20500d3          	fmv.d.x	ft1,a0
    8000361e:	02197953          	fadd.d	fs2,fs2,ft1
    80003622:	0b3970d3          	fsub.d	ft1,fs2,fs3
    80003626:	a2009553          	flt.d	a0,ft1,ft0
    8000362a:	c119                	beqz	a0,80003630 <svd_core+0x1624>
    8000362c:	221090d3          	fneg.d	ft1,ft1
    80003630:	70c6                	ld	ra,112(sp)
    80003632:	75ca                	ld	a1,176(sp)
    80003634:	a2909553          	flt.d	a0,ft1,fs1
    80003638:	23398a53          	fmv.d	fs4,fs3
    8000363c:	c119                	beqz	a0,80003642 <svd_core+0x1636>
    8000363e:	0dd0a06f          	j	8000df1a <svd_core+0xbf0e>
    80003642:	4281                	li	t0,0
    80003644:	4889                	li	a7,2
    80003646:	52010813          	addi	a6,sp,1312
    8000364a:	a839                	j	80003668 <svd_core+0x165c>
    8000364c:	1b207053          	fdiv.d	ft0,ft0,fs2
    80003650:	00329513          	slli	a0,t0,0x3
    80003654:	955a                	add	a0,a0,s6
    80003656:	00053027          	fsd	ft0,0(a0)
    8000365a:	0285                	addi	t0,t0,1
    8000365c:	9806                	add	a6,a6,ra
    8000365e:	652e                	ld	a0,200(sp)
    80003660:	98aa                	add	a7,a7,a0
    80003662:	650e                	ld	a0,192(sp)
    80003664:	26a28363          	beq	t0,a0,800038ca <svd_core+0x18be>
    80003668:	652e                	ld	a0,200(sp)
    8000366a:	00754d63          	blt	a0,t2,80003684 <svd_core+0x1678>
    8000366e:	752a                	ld	a0,168(sp)
    80003670:	00757e63          	bgeu	a0,t2,8000368c <svd_core+0x1680>
    80003674:	4301                	li	t1,0
    80003676:	f2000053          	fmv.d.x	ft0,zero
    8000367a:	461d                	li	a2,7
    8000367c:	750a                	ld	a0,160(sp)
    8000367e:	10051663          	bnez	a0,8000378a <svd_core+0x177e>
    80003682:	aa4d                	j	80003834 <svd_core+0x1828>
    80003684:	f2000053          	fmv.d.x	ft0,zero
    80003688:	4301                	li	t1,0
    8000368a:	a26d                	j	80003834 <svd_core+0x1828>
    8000368c:	4301                	li	t1,0
    8000368e:	4701                	li	a4,0
    80003690:	f2000053          	fmv.d.x	ft0,zero
    80003694:	121c                	addi	a5,sp,288
    80003696:	8642                	mv	a2,a6
    80003698:	fc063383          	ld	t2,-64(a2)
    8000369c:	fc863e83          	ld	t4,-56(a2)
    800036a0:	fd063e03          	ld	t3,-48(a2)
    800036a4:	fd863f03          	ld	t5,-40(a2)
    800036a8:	fe063f83          	ld	t6,-32(a2)
    800036ac:	fe863983          	ld	s3,-24(a2)
    800036b0:	ff063903          	ld	s2,-16(a2)
    800036b4:	ff863b03          	ld	s6,-8(a2)
    800036b8:	fc07ba03          	ld	s4,-64(a5)
    800036bc:	fc87bc03          	ld	s8,-56(a5)
    800036c0:	fd07bb83          	ld	s7,-48(a5)
    800036c4:	fd87b403          	ld	s0,-40(a5)
    800036c8:	fe07bc83          	ld	s9,-32(a5)
    800036cc:	fe87b483          	ld	s1,-24(a5)
    800036d0:	ff07b583          	ld	a1,-16(a5)
    800036d4:	ff87b683          	ld	a3,-8(a5)
    800036d8:	01d3850b          	.insn	4, 0x01d3850b
    800036dc:	21ee050b          	.insn	4, 0x21ee050b
    800036e0:	413f850b          	.insn	4, 0x413f850b
    800036e4:	6169050b          	.insn	4, 0x6169050b
    800036e8:	818a050b          	.insn	4, 0x818a050b
    800036ec:	a08b850b          	.insn	4, 0xa08b850b
    800036f0:	c09c850b          	.insn	4, 0xc09c850b
    800036f4:	1cd5857b          	.insn	4, 0x1cd5857b
    800036f8:	f20500d3          	fmv.d.x	ft1,a0
    800036fc:	02107053          	fadd.d	ft0,ft0,ft1
    80003700:	00063383          	ld	t2,0(a2)
    80003704:	00863e03          	ld	t3,8(a2)
    80003708:	01063e83          	ld	t4,16(a2)
    8000370c:	01863f83          	ld	t6,24(a2)
    80003710:	02063f03          	ld	t5,32(a2)
    80003714:	02863903          	ld	s2,40(a2)
    80003718:	03063983          	ld	s3,48(a2)
    8000371c:	03863a03          	ld	s4,56(a2)
    80003720:	0007bb03          	ld	s6,0(a5)
    80003724:	0087bc03          	ld	s8,8(a5)
    80003728:	0107bb83          	ld	s7,16(a5)
    8000372c:	0187bc83          	ld	s9,24(a5)
    80003730:	7394                	ld	a3,32(a5)
    80003732:	7780                	ld	s0,40(a5)
    80003734:	7b88                	ld	a0,48(a5)
    80003736:	7f84                	ld	s1,56(a5)
    80003738:	09c3858b          	.insn	4, 0x09c3858b
    8000373c:	29fe858b          	.insn	4, 0x29fe858b
    80003740:	492f058b          	.insn	4, 0x492f058b
    80003744:	6949858b          	.insn	4, 0x6949858b
    80003748:	898b058b          	.insn	4, 0x898b058b
    8000374c:	a99b858b          	.insn	4, 0xa99b858b
    80003750:	6cee                	ld	s9,216(sp)
    80003752:	c886858b          	.insn	4, 0xc886858b
    80003756:	9c95057b          	.insn	4, 0x9c95057b
    8000375a:	f20500d3          	fmv.d.x	ft1,a0
    8000375e:	02107053          	fadd.d	ft0,ft0,ft1
    80003762:	0341                	addi	t1,t1,16
    80003764:	2709                	addiw	a4,a4,2
    80003766:	08060613          	addi	a2,a2,128
    8000376a:	08078793          	addi	a5,a5,128
    8000376e:	f39715e3          	bne	a4,s9,80003698 <svd_core+0x168c>
    80003772:	00730613          	addi	a2,t1,7
    80003776:	6c4e                	ld	s8,208(sp)
    80003778:	75ca                	ld	a1,176(sp)
    8000377a:	2e010b13          	addi	s6,sp,736
    8000377e:	4a05                	li	s4,1
    80003780:	43a1                	li	t2,8
    80003782:	4909                	li	s2,2
    80003784:	498d                	li	s3,3
    80003786:	750a                	ld	a0,160(sp)
    80003788:	c555                	beqz	a0,80003834 <svd_core+0x1828>
    8000378a:	652e                	ld	a0,200(sp)
    8000378c:	02a28533          	mul	a0,t0,a0
    80003790:	951a                	add	a0,a0,t1
    80003792:	050e                	slli	a0,a0,0x3
    80003794:	4e010593          	addi	a1,sp,1248
    80003798:	952e                	add	a0,a0,a1
    8000379a:	00053383          	ld	t2,0(a0)
    8000379e:	00853e03          	ld	t3,8(a0)
    800037a2:	01053e83          	ld	t4,16(a0)
    800037a6:	01853f03          	ld	t5,24(a0)
    800037aa:	02053f83          	ld	t6,32(a0)
    800037ae:	02853983          	ld	s3,40(a0)
    800037b2:	03053903          	ld	s2,48(a0)
    800037b6:	03853a03          	ld	s4,56(a0)
    800037ba:	00331693          	slli	a3,t1,0x3
    800037be:	00da8733          	add	a4,s5,a3
    800037c2:	00073b03          	ld	s6,0(a4)
    800037c6:	0086e793          	ori	a5,a3,8
    800037ca:	97d6                	add	a5,a5,s5
    800037cc:	639c                	ld	a5,0(a5)
    800037ce:	0106e493          	ori	s1,a3,16
    800037d2:	94d6                	add	s1,s1,s5
    800037d4:	6084                	ld	s1,0(s1)
    800037d6:	0186e593          	ori	a1,a3,24
    800037da:	95d6                	add	a1,a1,s5
    800037dc:	618c                	ld	a1,0(a1)
    800037de:	0206e413          	ori	s0,a3,32
    800037e2:	9456                	add	s0,s0,s5
    800037e4:	6000                	ld	s0,0(s0)
    800037e6:	0286e513          	ori	a0,a3,40
    800037ea:	9556                	add	a0,a0,s5
    800037ec:	6108                	ld	a0,0(a0)
    800037ee:	0306e693          	ori	a3,a3,48
    800037f2:	96d6                	add	a3,a3,s5
    800037f4:	6294                	ld	a3,0(a3)
    800037f6:	060e                	slli	a2,a2,0x3
    800037f8:	9656                	add	a2,a2,s5
    800037fa:	6210                	ld	a2,0(a2)
    800037fc:	01c3870b          	.insn	4, 0x01c3870b
    80003800:	21ee870b          	.insn	4, 0x21ee870b
    80003804:	413f870b          	.insn	4, 0x413f870b
    80003808:	498d                	li	s3,3
    8000380a:	43a1                	li	t2,8
    8000380c:	6149070b          	.insn	4, 0x6149070b
    80003810:	4909                	li	s2,2
    80003812:	4a05                	li	s4,1
    80003814:	80fb070b          	.insn	4, 0x80fb070b
    80003818:	2e010b13          	addi	s6,sp,736
    8000381c:	a0b4858b          	.insn	4, 0xa0b4858b
    80003820:	75ca                	ld	a1,176(sp)
    80003822:	c0a4050b          	.insn	4, 0xc0a4050b
    80003826:	1cc6857b          	.insn	4, 0x1cc6857b
    8000382a:	f20500d3          	fmv.d.x	ft1,a0
    8000382e:	02107053          	fadd.d	ft0,ft0,ft1
    80003832:	0321                	addi	t1,t1,8
    80003834:	0003069b          	sext.w	a3,t1
    80003838:	652e                	ld	a0,200(sp)
    8000383a:	e0a6d9e3          	bge	a3,a0,8000364c <svd_core+0x1640>
    8000383e:	00368613          	addi	a2,a3,3
    80003842:	00d88533          	add	a0,a7,a3
    80003846:	050e                	slli	a0,a0,0x3
    80003848:	4e010693          	addi	a3,sp,1248
    8000384c:	96aa                	add	a3,a3,a0
    8000384e:	ffd60513          	addi	a0,a2,-3
    80003852:	ff06b087          	fld	ft1,-16(a3)
    80003856:	01a57533          	and	a0,a0,s10
    8000385a:	050e                	slli	a0,a0,0x3
    8000385c:	9556                	add	a0,a0,s5
    8000385e:	00053107          	fld	ft2,0(a0)
    80003862:	0220f043          	fmadd.d	ft0,ft1,ft2,ft0
    80003866:	00c58733          	add	a4,a1,a2
    8000386a:	df2701e3          	beq	a4,s2,8000364c <svd_core+0x1640>
    8000386e:	ffe60513          	addi	a0,a2,-2
    80003872:	ff86b087          	fld	ft1,-8(a3)
    80003876:	01a57533          	and	a0,a0,s10
    8000387a:	050e                	slli	a0,a0,0x3
    8000387c:	9556                	add	a0,a0,s5
    8000387e:	00053107          	fld	ft2,0(a0)
    80003882:	0220f043          	fmadd.d	ft0,ft1,ft2,ft0
    80003886:	dd4703e3          	beq	a4,s4,8000364c <svd_core+0x1640>
    8000388a:	fff60513          	addi	a0,a2,-1
    8000388e:	0006b087          	fld	ft1,0(a3)
    80003892:	01a57533          	and	a0,a0,s10
    80003896:	050e                	slli	a0,a0,0x3
    80003898:	9556                	add	a0,a0,s5
    8000389a:	00053107          	fld	ft2,0(a0)
    8000389e:	0220f043          	fmadd.d	ft0,ft1,ft2,ft0
    800038a2:	da0705e3          	beqz	a4,8000364c <svd_core+0x1640>
    800038a6:	0086b087          	fld	ft1,8(a3)
    800038aa:	01a67533          	and	a0,a2,s10
    800038ae:	050e                	slli	a0,a0,0x3
    800038b0:	9556                	add	a0,a0,s5
    800038b2:	00053107          	fld	ft2,0(a0)
    800038b6:	0220f043          	fmadd.d	ft0,ft1,ft2,ft0
    800038ba:	0611                	addi	a2,a2,4
    800038bc:	00c58533          	add	a0,a1,a2
    800038c0:	02068693          	addi	a3,a3,32
    800038c4:	f93515e3          	bne	a0,s3,8000384e <svd_core+0x1842>
    800038c8:	b351                	j	8000364c <svd_core+0x1640>
    800038ca:	1188                	addi	a0,sp,224
    800038cc:	20000613          	li	a2,512
    800038d0:	4581                	li	a1,0
    800038d2:	0000b097          	auipc	ra,0xb
    800038d6:	d60080e7          	jalr	-672(ra) # 8000e632 <memset>
    800038da:	43a1                	li	t2,8
    800038dc:	f2000053          	fmv.d.x	ft0,zero
    800038e0:	220009d3          	fmv.d	fs3,ft0
    800038e4:	7da6                	ld	s11,104(sp)
    800038e6:	67ca                	ld	a5,144(sp)
    800038e8:	652e                	ld	a0,200(sp)
    800038ea:	46a05163          	blez	a0,80003d4c <svd_core+0x1d40>
    800038ee:	4281                	li	t0,0
    800038f0:	4889                	li	a7,2
    800038f2:	6826                	ld	a6,72(sp)
    800038f4:	a829                	j	8000390e <svd_core+0x1902>
    800038f6:	00329513          	slli	a0,t0,0x3
    800038fa:	9556                	add	a0,a0,s5
    800038fc:	00153027          	fsd	ft1,0(a0)
    80003900:	0285                	addi	t0,t0,1
    80003902:	986e                	add	a6,a6,s11
    80003904:	650e                	ld	a0,192(sp)
    80003906:	98aa                	add	a7,a7,a0
    80003908:	756a                	ld	a0,184(sp)
    8000390a:	26a28463          	beq	t0,a0,80003b72 <svd_core+0x1b66>
    8000390e:	650e                	ld	a0,192(sp)
    80003910:	00756d63          	bltu	a0,t2,8000392a <svd_core+0x191e>
    80003914:	652a                	ld	a0,136(sp)
    80003916:	00757e63          	bgeu	a0,t2,80003932 <svd_core+0x1926>
    8000391a:	4301                	li	t1,0
    8000391c:	f20000d3          	fmv.d.x	ft1,zero
    80003920:	461d                	li	a2,7
    80003922:	650a                	ld	a0,128(sp)
    80003924:	10051663          	bnez	a0,80003a30 <svd_core+0x1a24>
    80003928:	aa55                	j	80003adc <svd_core+0x1ad0>
    8000392a:	f20000d3          	fmv.d.x	ft1,zero
    8000392e:	4301                	li	t1,0
    80003930:	a275                	j	80003adc <svd_core+0x1ad0>
    80003932:	4301                	li	t1,0
    80003934:	4701                	li	a4,0
    80003936:	f20000d3          	fmv.d.x	ft1,zero
    8000393a:	161c                	addi	a5,sp,800
    8000393c:	8642                	mv	a2,a6
    8000393e:	fc063383          	ld	t2,-64(a2)
    80003942:	fc863e83          	ld	t4,-56(a2)
    80003946:	fd063e03          	ld	t3,-48(a2)
    8000394a:	fd863f03          	ld	t5,-40(a2)
    8000394e:	fe063f83          	ld	t6,-32(a2)
    80003952:	fe863983          	ld	s3,-24(a2)
    80003956:	ff063903          	ld	s2,-16(a2)
    8000395a:	ff863b03          	ld	s6,-8(a2)
    8000395e:	fc07ba03          	ld	s4,-64(a5)
    80003962:	fc87bc03          	ld	s8,-56(a5)
    80003966:	fd07bb83          	ld	s7,-48(a5)
    8000396a:	fd87b403          	ld	s0,-40(a5)
    8000396e:	fe07bc83          	ld	s9,-32(a5)
    80003972:	fe87b483          	ld	s1,-24(a5)
    80003976:	ff07b583          	ld	a1,-16(a5)
    8000397a:	ff87b683          	ld	a3,-8(a5)
    8000397e:	01d3850b          	.insn	4, 0x01d3850b
    80003982:	21ee050b          	.insn	4, 0x21ee050b
    80003986:	413f850b          	.insn	4, 0x413f850b
    8000398a:	6169050b          	.insn	4, 0x6169050b
    8000398e:	818a050b          	.insn	4, 0x818a050b
    80003992:	a08b850b          	.insn	4, 0xa08b850b
    80003996:	c09c850b          	.insn	4, 0xc09c850b
    8000399a:	1cd5857b          	.insn	4, 0x1cd5857b
    8000399e:	f2050153          	fmv.d.x	ft2,a0
    800039a2:	0220f0d3          	fadd.d	ft1,ft1,ft2
    800039a6:	00063383          	ld	t2,0(a2)
    800039aa:	00863e03          	ld	t3,8(a2)
    800039ae:	01063e83          	ld	t4,16(a2)
    800039b2:	01863f83          	ld	t6,24(a2)
    800039b6:	02063f03          	ld	t5,32(a2)
    800039ba:	02863903          	ld	s2,40(a2)
    800039be:	03063983          	ld	s3,48(a2)
    800039c2:	03863a03          	ld	s4,56(a2)
    800039c6:	0007bb03          	ld	s6,0(a5)
    800039ca:	0087bc03          	ld	s8,8(a5)
    800039ce:	0107bb83          	ld	s7,16(a5)
    800039d2:	0187bc83          	ld	s9,24(a5)
    800039d6:	7394                	ld	a3,32(a5)
    800039d8:	7780                	ld	s0,40(a5)
    800039da:	7b88                	ld	a0,48(a5)
    800039dc:	7f84                	ld	s1,56(a5)
    800039de:	09c3858b          	.insn	4, 0x09c3858b
    800039e2:	29fe858b          	.insn	4, 0x29fe858b
    800039e6:	492f058b          	.insn	4, 0x492f058b
    800039ea:	6949858b          	.insn	4, 0x6949858b
    800039ee:	898b058b          	.insn	4, 0x898b058b
    800039f2:	6c4e                	ld	s8,208(sp)
    800039f4:	a99b858b          	.insn	4, 0xa99b858b
    800039f8:	c886858b          	.insn	4, 0xc886858b
    800039fc:	9c95057b          	.insn	4, 0x9c95057b
    80003a00:	f2050153          	fmv.d.x	ft2,a0
    80003a04:	0220f0d3          	fadd.d	ft1,ft1,ft2
    80003a08:	0341                	addi	t1,t1,16
    80003a0a:	2709                	addiw	a4,a4,2
    80003a0c:	08060613          	addi	a2,a2,128
    80003a10:	08078793          	addi	a5,a5,128
    80003a14:	f38715e3          	bne	a4,s8,8000393e <svd_core+0x1932>
    80003a18:	00730613          	addi	a2,t1,7
    80003a1c:	6cee                	ld	s9,216(sp)
    80003a1e:	67ca                	ld	a5,144(sp)
    80003a20:	2e010b13          	addi	s6,sp,736
    80003a24:	4a05                	li	s4,1
    80003a26:	43a1                	li	t2,8
    80003a28:	4909                	li	s2,2
    80003a2a:	498d                	li	s3,3
    80003a2c:	650a                	ld	a0,128(sp)
    80003a2e:	c55d                	beqz	a0,80003adc <svd_core+0x1ad0>
    80003a30:	650e                	ld	a0,192(sp)
    80003a32:	02a28533          	mul	a0,t0,a0
    80003a36:	951a                	add	a0,a0,t1
    80003a38:	050e                	slli	a0,a0,0x3
    80003a3a:	65ea                	ld	a1,152(sp)
    80003a3c:	952e                	add	a0,a0,a1
    80003a3e:	00053383          	ld	t2,0(a0)
    80003a42:	00853e03          	ld	t3,8(a0)
    80003a46:	01053e83          	ld	t4,16(a0)
    80003a4a:	01853f03          	ld	t5,24(a0)
    80003a4e:	02053f83          	ld	t6,32(a0)
    80003a52:	02853983          	ld	s3,40(a0)
    80003a56:	03053903          	ld	s2,48(a0)
    80003a5a:	03853a03          	ld	s4,56(a0)
    80003a5e:	00331693          	slli	a3,t1,0x3
    80003a62:	00db0733          	add	a4,s6,a3
    80003a66:	2e010093          	addi	ra,sp,736
    80003a6a:	00073b03          	ld	s6,0(a4)
    80003a6e:	0086e793          	ori	a5,a3,8
    80003a72:	9786                	add	a5,a5,ra
    80003a74:	639c                	ld	a5,0(a5)
    80003a76:	0106e493          	ori	s1,a3,16
    80003a7a:	9486                	add	s1,s1,ra
    80003a7c:	6084                	ld	s1,0(s1)
    80003a7e:	0186e593          	ori	a1,a3,24
    80003a82:	9586                	add	a1,a1,ra
    80003a84:	618c                	ld	a1,0(a1)
    80003a86:	0206e413          	ori	s0,a3,32
    80003a8a:	9406                	add	s0,s0,ra
    80003a8c:	6000                	ld	s0,0(s0)
    80003a8e:	0286e513          	ori	a0,a3,40
    80003a92:	9506                	add	a0,a0,ra
    80003a94:	6108                	ld	a0,0(a0)
    80003a96:	0306e693          	ori	a3,a3,48
    80003a9a:	9686                	add	a3,a3,ra
    80003a9c:	6294                	ld	a3,0(a3)
    80003a9e:	060e                	slli	a2,a2,0x3
    80003aa0:	9606                	add	a2,a2,ra
    80003aa2:	6210                	ld	a2,0(a2)
    80003aa4:	01c3870b          	.insn	4, 0x01c3870b
    80003aa8:	21ee870b          	.insn	4, 0x21ee870b
    80003aac:	413f870b          	.insn	4, 0x413f870b
    80003ab0:	498d                	li	s3,3
    80003ab2:	43a1                	li	t2,8
    80003ab4:	6149070b          	.insn	4, 0x6149070b
    80003ab8:	4909                	li	s2,2
    80003aba:	4a05                	li	s4,1
    80003abc:	80fb070b          	.insn	4, 0x80fb070b
    80003ac0:	2e010b13          	addi	s6,sp,736
    80003ac4:	67ca                	ld	a5,144(sp)
    80003ac6:	a0b4858b          	.insn	4, 0xa0b4858b
    80003aca:	c0a4050b          	.insn	4, 0xc0a4050b
    80003ace:	1cc6857b          	.insn	4, 0x1cc6857b
    80003ad2:	f2050153          	fmv.d.x	ft2,a0
    80003ad6:	0220f0d3          	fadd.d	ft1,ft1,ft2
    80003ada:	0321                	addi	t1,t1,8
    80003adc:	0003069b          	sext.w	a3,t1
    80003ae0:	650e                	ld	a0,192(sp)
    80003ae2:	e0a6dae3          	bge	a3,a0,800038f6 <svd_core+0x18ea>
    80003ae6:	00368613          	addi	a2,a3,3
    80003aea:	00d88533          	add	a0,a7,a3
    80003aee:	050e                	slli	a0,a0,0x3
    80003af0:	65ea                	ld	a1,152(sp)
    80003af2:	00a586b3          	add	a3,a1,a0
    80003af6:	ffd60513          	addi	a0,a2,-3
    80003afa:	ff06b107          	fld	ft2,-16(a3)
    80003afe:	01a57533          	and	a0,a0,s10
    80003b02:	050e                	slli	a0,a0,0x3
    80003b04:	955a                	add	a0,a0,s6
    80003b06:	00053187          	fld	ft3,0(a0)
    80003b0a:	0a3170c3          	fmadd.d	ft1,ft2,ft3,ft1
    80003b0e:	00c78733          	add	a4,a5,a2
    80003b12:	df2702e3          	beq	a4,s2,800038f6 <svd_core+0x18ea>
    80003b16:	ffe60513          	addi	a0,a2,-2
    80003b1a:	ff86b107          	fld	ft2,-8(a3)
    80003b1e:	01a57533          	and	a0,a0,s10
    80003b22:	050e                	slli	a0,a0,0x3
    80003b24:	955a                	add	a0,a0,s6
    80003b26:	00053187          	fld	ft3,0(a0)
    80003b2a:	0a3170c3          	fmadd.d	ft1,ft2,ft3,ft1
    80003b2e:	dd4704e3          	beq	a4,s4,800038f6 <svd_core+0x18ea>
    80003b32:	fff60513          	addi	a0,a2,-1
    80003b36:	0006b107          	fld	ft2,0(a3)
    80003b3a:	01a57533          	and	a0,a0,s10
    80003b3e:	050e                	slli	a0,a0,0x3
    80003b40:	955a                	add	a0,a0,s6
    80003b42:	00053187          	fld	ft3,0(a0)
    80003b46:	0a3170c3          	fmadd.d	ft1,ft2,ft3,ft1
    80003b4a:	da0706e3          	beqz	a4,800038f6 <svd_core+0x18ea>
    80003b4e:	0086b107          	fld	ft2,8(a3)
    80003b52:	01a67533          	and	a0,a2,s10
    80003b56:	050e                	slli	a0,a0,0x3
    80003b58:	955a                	add	a0,a0,s6
    80003b5a:	00053187          	fld	ft3,0(a0)
    80003b5e:	0a3170c3          	fmadd.d	ft1,ft2,ft3,ft1
    80003b62:	0611                	addi	a2,a2,4
    80003b64:	00c78533          	add	a0,a5,a2
    80003b68:	02068693          	addi	a3,a3,32
    80003b6c:	f93515e3          	bne	a0,s3,80003af6 <svd_core+0x1aea>
    80003b70:	b359                	j	800038f6 <svd_core+0x18ea>
    80003b72:	652e                	ld	a0,200(sp)
    80003b74:	04a05763          	blez	a0,80003bc2 <svd_core+0x1bb6>
    80003b78:	7562                	ld	a0,56(sp)
    80003b7a:	04757763          	bgeu	a0,t2,80003bc8 <svd_core+0x1bbc>
    80003b7e:	f20009d3          	fmv.d.x	fs3,zero
    80003b82:	4501                	li	a0,0
    80003b84:	75c2                	ld	a1,48(sp)
    80003b86:	1c058363          	beqz	a1,80003d4c <svd_core+0x1d40>
    80003b8a:	65ae                	ld	a1,200(sp)
    80003b8c:	9d89                	subw	a1,a1,a0
    80003b8e:	4621                	li	a2,8
    80003b90:	87ae                	mv	a5,a1
    80003b92:	00c5c363          	blt	a1,a2,80003b98 <svd_core+0x1b8c>
    80003b96:	47a1                	li	a5,8
    80003b98:	050e                	slli	a0,a0,0x3
    80003b9a:	18b05263          	blez	a1,80003d1e <svd_core+0x1d12>
    80003b9e:	00856593          	ori	a1,a0,8
    80003ba2:	95d6                	add	a1,a1,s5
    80003ba4:	0005b803          	ld	a6,0(a1)
    80003ba8:	1727ce63          	blt	a5,s2,80003d24 <svd_core+0x1d18>
    80003bac:	01056593          	ori	a1,a0,16
    80003bb0:	95d6                	add	a1,a1,s5
    80003bb2:	6190                	ld	a2,0(a1)
    80003bb4:	01278463          	beq	a5,s2,80003bbc <svd_core+0x1bb0>
    80003bb8:	6af0506f          	j	80009a66 <svd_core+0x7a5a>
    80003bbc:	4481                	li	s1,0
    80003bbe:	4701                	li	a4,0
    80003bc0:	a2ad                	j	80003d2a <svd_core+0x1d1e>
    80003bc2:	f20009d3          	fmv.d.x	fs3,zero
    80003bc6:	a259                	j	80003d4c <svd_core+0x1d40>
    80003bc8:	4501                	li	a0,0
    80003bca:	4f01                	li	t5,0
    80003bcc:	f20009d3          	fmv.d.x	fs3,zero
    80003bd0:	1210                	addi	a2,sp,288
    80003bd2:	65ae                	ld	a1,200(sp)
    80003bd4:	40a5873b          	subw	a4,a1,a0
    80003bd8:	47a1                	li	a5,8
    80003bda:	86ba                	mv	a3,a4
    80003bdc:	00f74363          	blt	a4,a5,80003be2 <svd_core+0x1bd6>
    80003be0:	46a1                	li	a3,8
    80003be2:	00e05e63          	blez	a4,80003bfe <svd_core+0x1bf2>
    80003be6:	fc863303          	ld	t1,-56(a2)
    80003bea:	0126cd63          	blt	a3,s2,80003c04 <svd_core+0x1bf8>
    80003bee:	fd063483          	ld	s1,-48(a2)
    80003bf2:	01269e63          	bne	a3,s2,80003c0e <svd_core+0x1c02>
    80003bf6:	4401                	li	s0,0
    80003bf8:	4e01                	li	t3,0
    80003bfa:	f082                	sd	zero,96(sp)
    80003bfc:	a03d                	j	80003c2a <svd_core+0x1c1e>
    80003bfe:	4301                	li	t1,0
    80003c00:	ff26d7e3          	bge	a3,s2,80003bee <svd_core+0x1be2>
    80003c04:	4401                	li	s0,0
    80003c06:	4e01                	li	t3,0
    80003c08:	4481                	li	s1,0
    80003c0a:	f082                	sd	zero,96(sp)
    80003c0c:	a839                	j	80003c2a <svd_core+0x1c1e>
    80003c0e:	fd863403          	ld	s0,-40(a2)
    80003c12:	4715                	li	a4,5
    80003c14:	f0a2                	sd	s0,96(sp)
    80003c16:	00e6e863          	bltu	a3,a4,80003c26 <svd_core+0x1c1a>
    80003c1a:	fe063e03          	ld	t3,-32(a2)
    80003c1e:	0ae69f63          	bne	a3,a4,80003cdc <svd_core+0x1cd0>
    80003c22:	4401                	li	s0,0
    80003c24:	a019                	j	80003c2a <svd_core+0x1c1e>
    80003c26:	4401                	li	s0,0
    80003c28:	4e01                	li	t3,0
    80003c2a:	ec82                	sd	zero,88(sp)
    80003c2c:	e882                	sd	zero,80(sp)
    80003c2e:	65ae                	ld	a1,200(sp)
    80003c30:	40a586bb          	subw	a3,a1,a0
    80003c34:	36e1                	addiw	a3,a3,-8
    80003c36:	4721                	li	a4,8
    80003c38:	88b6                	mv	a7,a3
    80003c3a:	00e6c363          	blt	a3,a4,80003c40 <svd_core+0x1c34>
    80003c3e:	48a1                	li	a7,8
    80003c40:	00d05563          	blez	a3,80003c4a <svd_core+0x1c3e>
    80003c44:	00863f83          	ld	t6,8(a2)
    80003c48:	a011                	j	80003c4c <svd_core+0x1c40>
    80003c4a:	4f81                	li	t6,0
    80003c4c:	fc063083          	ld	ra,-64(a2)
    80003c50:	620c                	ld	a1,0(a2)
    80003c52:	0128ca63          	blt	a7,s2,80003c66 <svd_core+0x1c5a>
    80003c56:	01063283          	ld	t0,16(a2)
    80003c5a:	07289163          	bne	a7,s2,80003cbc <svd_core+0x1cb0>
    80003c5e:	88ae                	mv	a7,a1
    80003c60:	4e81                	li	t4,0
    80003c62:	4381                	li	t2,0
    80003c64:	a029                	j	80003c6e <svd_core+0x1c62>
    80003c66:	88ae                	mv	a7,a1
    80003c68:	4e81                	li	t4,0
    80003c6a:	4381                	li	t2,0
    80003c6c:	4281                	li	t0,0
    80003c6e:	4d81                	li	s11,0
    80003c70:	4801                	li	a6,0
    80003c72:	4781                	li	a5,0
    80003c74:	7686                	ld	a3,96(sp)
    80003c76:	6766                	ld	a4,88(sp)
    80003c78:	65c6                	ld	a1,80(sp)
    80003c7a:	64b4040b          	.insn	4, 0x64b4040b
    80003c7e:	44ee040b          	.insn	4, 0x44ee040b
    80003c82:	24d4840b          	.insn	4, 0x24d4840b
    80003c86:	4060847b          	.insn	4, 0x4060847b
    80003c8a:	f20400d3          	fmv.d.x	ft1,s0
    80003c8e:	0219f0d3          	fadd.d	ft1,fs3,ft1
    80003c92:	6cfe870b          	.insn	4, 0x6cfe870b
    80003c96:	4d03868b          	.insn	4, 0x4d03868b
    80003c9a:	2db2868b          	.insn	4, 0x2db2868b
    80003c9e:	c1f886fb          	.insn	4, 0xc1f886fb
    80003ca2:	f2068153          	fmv.d.x	ft2,a3
    80003ca6:	0220f9d3          	fadd.d	fs3,ft1,ft2
    80003caa:	0541                	addi	a0,a0,16
    80003cac:	2f09                	addiw	t5,t5,2
    80003cae:	08060613          	addi	a2,a2,128
    80003cb2:	76e6                	ld	a3,120(sp)
    80003cb4:	43a1                	li	t2,8
    80003cb6:	f0df1ee3          	bne	t5,a3,80003bd2 <svd_core+0x1bc6>
    80003cba:	b5e9                	j	80003b84 <svd_core+0x1b78>
    80003cbc:	01863d83          	ld	s11,24(a2)
    80003cc0:	4715                	li	a4,5
    80003cc2:	00e8e963          	bltu	a7,a4,80003cd4 <svd_core+0x1cc8>
    80003cc6:	02063383          	ld	t2,32(a2)
    80003cca:	02e89763          	bne	a7,a4,80003cf8 <svd_core+0x1cec>
    80003cce:	88ae                	mv	a7,a1
    80003cd0:	4e81                	li	t4,0
    80003cd2:	bf79                	j	80003c70 <svd_core+0x1c64>
    80003cd4:	88ae                	mv	a7,a1
    80003cd6:	4e81                	li	t4,0
    80003cd8:	4381                	li	t2,0
    80003cda:	bf59                	j	80003c70 <svd_core+0x1c64>
    80003cdc:	fe863783          	ld	a5,-24(a2)
    80003ce0:	471d                	li	a4,7
    80003ce2:	ecbe                	sd	a5,88(sp)
    80003ce4:	02e6e563          	bltu	a3,a4,80003d0e <svd_core+0x1d02>
    80003ce8:	ff063403          	ld	s0,-16(a2)
    80003cec:	f4e680e3          	beq	a3,a4,80003c2c <svd_core+0x1c20>
    80003cf0:	ff863583          	ld	a1,-8(a2)
    80003cf4:	e8ae                	sd	a1,80(sp)
    80003cf6:	bf25                	j	80003c2e <svd_core+0x1c22>
    80003cf8:	02863803          	ld	a6,40(a2)
    80003cfc:	479d                	li	a5,7
    80003cfe:	00f8ea63          	bltu	a7,a5,80003d12 <svd_core+0x1d06>
    80003d02:	03063e83          	ld	t4,48(a2)
    80003d06:	00f89963          	bne	a7,a5,80003d18 <svd_core+0x1d0c>
    80003d0a:	88ae                	mv	a7,a1
    80003d0c:	b79d                	j	80003c72 <svd_core+0x1c66>
    80003d0e:	4401                	li	s0,0
    80003d10:	bf31                	j	80003c2c <svd_core+0x1c20>
    80003d12:	88ae                	mv	a7,a1
    80003d14:	4e81                	li	t4,0
    80003d16:	bfb1                	j	80003c72 <svd_core+0x1c66>
    80003d18:	88ae                	mv	a7,a1
    80003d1a:	7e1c                	ld	a5,56(a2)
    80003d1c:	bfa1                	j	80003c74 <svd_core+0x1c68>
    80003d1e:	4801                	li	a6,0
    80003d20:	e927d6e3          	bge	a5,s2,80003bac <svd_core+0x1ba0>
    80003d24:	4481                	li	s1,0
    80003d26:	4701                	li	a4,0
    80003d28:	4601                	li	a2,0
    80003d2a:	4681                	li	a3,0
    80003d2c:	4581                	li	a1,0
    80003d2e:	4781                	li	a5,0
    80003d30:	9556                	add	a0,a0,s5
    80003d32:	6108                	ld	a0,0(a0)
    80003d34:	64f4878b          	.insn	4, 0x64f4878b
    80003d38:	44b7058b          	.insn	4, 0x44b7058b
    80003d3c:	24d6058b          	.insn	4, 0x24d6058b
    80003d40:	4105057b          	.insn	4, 0x4105057b
    80003d44:	f20500d3          	fmv.d.x	ft1,a0
    80003d48:	0219f9d3          	fadd.d	fs3,fs3,ft1
    80003d4c:	0b29f0d3          	fsub.d	ft1,fs3,fs2
    80003d50:	a2009553          	flt.d	a0,ft1,ft0
    80003d54:	c119                	beqz	a0,80003d5a <svd_core+0x1d4e>
    80003d56:	221090d3          	fneg.d	ft1,ft1
    80003d5a:	70c6                	ld	ra,112(sp)
    80003d5c:	75ca                	ld	a1,176(sp)
    80003d5e:	a2909553          	flt.d	a0,ft1,fs1
    80003d62:	23290a53          	fmv.d	fs4,fs2
    80003d66:	c119                	beqz	a0,80003d6c <svd_core+0x1d60>
    80003d68:	1b20a06f          	j	8000df1a <svd_core+0xbf0e>
    80003d6c:	4281                	li	t0,0
    80003d6e:	4889                	li	a7,2
    80003d70:	52010813          	addi	a6,sp,1312
    80003d74:	a839                	j	80003d92 <svd_core+0x1d86>
    80003d76:	1b307053          	fdiv.d	ft0,ft0,fs3
    80003d7a:	00329513          	slli	a0,t0,0x3
    80003d7e:	955a                	add	a0,a0,s6
    80003d80:	00053027          	fsd	ft0,0(a0)
    80003d84:	0285                	addi	t0,t0,1
    80003d86:	9806                	add	a6,a6,ra
    80003d88:	652e                	ld	a0,200(sp)
    80003d8a:	98aa                	add	a7,a7,a0
    80003d8c:	650e                	ld	a0,192(sp)
    80003d8e:	26a28363          	beq	t0,a0,80003ff4 <svd_core+0x1fe8>
    80003d92:	652e                	ld	a0,200(sp)
    80003d94:	00754d63          	blt	a0,t2,80003dae <svd_core+0x1da2>
    80003d98:	752a                	ld	a0,168(sp)
    80003d9a:	00757e63          	bgeu	a0,t2,80003db6 <svd_core+0x1daa>
    80003d9e:	4301                	li	t1,0
    80003da0:	f2000053          	fmv.d.x	ft0,zero
    80003da4:	461d                	li	a2,7
    80003da6:	750a                	ld	a0,160(sp)
    80003da8:	10051663          	bnez	a0,80003eb4 <svd_core+0x1ea8>
    80003dac:	aa4d                	j	80003f5e <svd_core+0x1f52>
    80003dae:	f2000053          	fmv.d.x	ft0,zero
    80003db2:	4301                	li	t1,0
    80003db4:	a26d                	j	80003f5e <svd_core+0x1f52>
    80003db6:	4301                	li	t1,0
    80003db8:	4701                	li	a4,0
    80003dba:	f2000053          	fmv.d.x	ft0,zero
    80003dbe:	121c                	addi	a5,sp,288
    80003dc0:	8642                	mv	a2,a6
    80003dc2:	fc063383          	ld	t2,-64(a2)
    80003dc6:	fc863e83          	ld	t4,-56(a2)
    80003dca:	fd063e03          	ld	t3,-48(a2)
    80003dce:	fd863f03          	ld	t5,-40(a2)
    80003dd2:	fe063f83          	ld	t6,-32(a2)
    80003dd6:	fe863983          	ld	s3,-24(a2)
    80003dda:	ff063903          	ld	s2,-16(a2)
    80003dde:	ff863b03          	ld	s6,-8(a2)
    80003de2:	fc07ba03          	ld	s4,-64(a5)
    80003de6:	fc87bc03          	ld	s8,-56(a5)
    80003dea:	fd07bb83          	ld	s7,-48(a5)
    80003dee:	fd87b403          	ld	s0,-40(a5)
    80003df2:	fe07bc83          	ld	s9,-32(a5)
    80003df6:	fe87b483          	ld	s1,-24(a5)
    80003dfa:	ff07b583          	ld	a1,-16(a5)
    80003dfe:	ff87b683          	ld	a3,-8(a5)
    80003e02:	01d3850b          	.insn	4, 0x01d3850b
    80003e06:	21ee050b          	.insn	4, 0x21ee050b
    80003e0a:	413f850b          	.insn	4, 0x413f850b
    80003e0e:	6169050b          	.insn	4, 0x6169050b
    80003e12:	818a050b          	.insn	4, 0x818a050b
    80003e16:	a08b850b          	.insn	4, 0xa08b850b
    80003e1a:	c09c850b          	.insn	4, 0xc09c850b
    80003e1e:	1cd5857b          	.insn	4, 0x1cd5857b
    80003e22:	f20500d3          	fmv.d.x	ft1,a0
    80003e26:	02107053          	fadd.d	ft0,ft0,ft1
    80003e2a:	00063383          	ld	t2,0(a2)
    80003e2e:	00863e03          	ld	t3,8(a2)
    80003e32:	01063e83          	ld	t4,16(a2)
    80003e36:	01863f83          	ld	t6,24(a2)
    80003e3a:	02063f03          	ld	t5,32(a2)
    80003e3e:	02863903          	ld	s2,40(a2)
    80003e42:	03063983          	ld	s3,48(a2)
    80003e46:	03863a03          	ld	s4,56(a2)
    80003e4a:	0007bb03          	ld	s6,0(a5)
    80003e4e:	0087bc03          	ld	s8,8(a5)
    80003e52:	0107bb83          	ld	s7,16(a5)
    80003e56:	0187bc83          	ld	s9,24(a5)
    80003e5a:	7394                	ld	a3,32(a5)
    80003e5c:	7780                	ld	s0,40(a5)
    80003e5e:	7b88                	ld	a0,48(a5)
    80003e60:	7f84                	ld	s1,56(a5)
    80003e62:	09c3858b          	.insn	4, 0x09c3858b
    80003e66:	29fe858b          	.insn	4, 0x29fe858b
    80003e6a:	492f058b          	.insn	4, 0x492f058b
    80003e6e:	6949858b          	.insn	4, 0x6949858b
    80003e72:	898b058b          	.insn	4, 0x898b058b
    80003e76:	a99b858b          	.insn	4, 0xa99b858b
    80003e7a:	6cee                	ld	s9,216(sp)
    80003e7c:	c886858b          	.insn	4, 0xc886858b
    80003e80:	9c95057b          	.insn	4, 0x9c95057b
    80003e84:	f20500d3          	fmv.d.x	ft1,a0
    80003e88:	02107053          	fadd.d	ft0,ft0,ft1
    80003e8c:	0341                	addi	t1,t1,16
    80003e8e:	2709                	addiw	a4,a4,2
    80003e90:	08060613          	addi	a2,a2,128
    80003e94:	08078793          	addi	a5,a5,128
    80003e98:	f39715e3          	bne	a4,s9,80003dc2 <svd_core+0x1db6>
    80003e9c:	00730613          	addi	a2,t1,7
    80003ea0:	6c4e                	ld	s8,208(sp)
    80003ea2:	75ca                	ld	a1,176(sp)
    80003ea4:	2e010b13          	addi	s6,sp,736
    80003ea8:	4a05                	li	s4,1
    80003eaa:	43a1                	li	t2,8
    80003eac:	4909                	li	s2,2
    80003eae:	498d                	li	s3,3
    80003eb0:	750a                	ld	a0,160(sp)
    80003eb2:	c555                	beqz	a0,80003f5e <svd_core+0x1f52>
    80003eb4:	652e                	ld	a0,200(sp)
    80003eb6:	02a28533          	mul	a0,t0,a0
    80003eba:	951a                	add	a0,a0,t1
    80003ebc:	050e                	slli	a0,a0,0x3
    80003ebe:	4e010593          	addi	a1,sp,1248
    80003ec2:	952e                	add	a0,a0,a1
    80003ec4:	00053383          	ld	t2,0(a0)
    80003ec8:	00853e03          	ld	t3,8(a0)
    80003ecc:	01053e83          	ld	t4,16(a0)
    80003ed0:	01853f03          	ld	t5,24(a0)
    80003ed4:	02053f83          	ld	t6,32(a0)
    80003ed8:	02853983          	ld	s3,40(a0)
    80003edc:	03053903          	ld	s2,48(a0)
    80003ee0:	03853a03          	ld	s4,56(a0)
    80003ee4:	00331693          	slli	a3,t1,0x3
    80003ee8:	00da8733          	add	a4,s5,a3
    80003eec:	00073b03          	ld	s6,0(a4)
    80003ef0:	0086e793          	ori	a5,a3,8
    80003ef4:	97d6                	add	a5,a5,s5
    80003ef6:	639c                	ld	a5,0(a5)
    80003ef8:	0106e493          	ori	s1,a3,16
    80003efc:	94d6                	add	s1,s1,s5
    80003efe:	6084                	ld	s1,0(s1)
    80003f00:	0186e593          	ori	a1,a3,24
    80003f04:	95d6                	add	a1,a1,s5
    80003f06:	618c                	ld	a1,0(a1)
    80003f08:	0206e413          	ori	s0,a3,32
    80003f0c:	9456                	add	s0,s0,s5
    80003f0e:	6000                	ld	s0,0(s0)
    80003f10:	0286e513          	ori	a0,a3,40
    80003f14:	9556                	add	a0,a0,s5
    80003f16:	6108                	ld	a0,0(a0)
    80003f18:	0306e693          	ori	a3,a3,48
    80003f1c:	96d6                	add	a3,a3,s5
    80003f1e:	6294                	ld	a3,0(a3)
    80003f20:	060e                	slli	a2,a2,0x3
    80003f22:	9656                	add	a2,a2,s5
    80003f24:	6210                	ld	a2,0(a2)
    80003f26:	01c3870b          	.insn	4, 0x01c3870b
    80003f2a:	21ee870b          	.insn	4, 0x21ee870b
    80003f2e:	413f870b          	.insn	4, 0x413f870b
    80003f32:	498d                	li	s3,3
    80003f34:	43a1                	li	t2,8
    80003f36:	6149070b          	.insn	4, 0x6149070b
    80003f3a:	4909                	li	s2,2
    80003f3c:	4a05                	li	s4,1
    80003f3e:	80fb070b          	.insn	4, 0x80fb070b
    80003f42:	2e010b13          	addi	s6,sp,736
    80003f46:	a0b4858b          	.insn	4, 0xa0b4858b
    80003f4a:	75ca                	ld	a1,176(sp)
    80003f4c:	c0a4050b          	.insn	4, 0xc0a4050b
    80003f50:	1cc6857b          	.insn	4, 0x1cc6857b
    80003f54:	f20500d3          	fmv.d.x	ft1,a0
    80003f58:	02107053          	fadd.d	ft0,ft0,ft1
    80003f5c:	0321                	addi	t1,t1,8
    80003f5e:	0003069b          	sext.w	a3,t1
    80003f62:	652e                	ld	a0,200(sp)
    80003f64:	e0a6d9e3          	bge	a3,a0,80003d76 <svd_core+0x1d6a>
    80003f68:	00368613          	addi	a2,a3,3
    80003f6c:	00d88533          	add	a0,a7,a3
    80003f70:	050e                	slli	a0,a0,0x3
    80003f72:	4e010693          	addi	a3,sp,1248
    80003f76:	96aa                	add	a3,a3,a0
    80003f78:	ffd60513          	addi	a0,a2,-3
    80003f7c:	ff06b087          	fld	ft1,-16(a3)
    80003f80:	01a57533          	and	a0,a0,s10
    80003f84:	050e                	slli	a0,a0,0x3
    80003f86:	9556                	add	a0,a0,s5
    80003f88:	00053107          	fld	ft2,0(a0)
    80003f8c:	0220f043          	fmadd.d	ft0,ft1,ft2,ft0
    80003f90:	00c58733          	add	a4,a1,a2
    80003f94:	df2701e3          	beq	a4,s2,80003d76 <svd_core+0x1d6a>
    80003f98:	ffe60513          	addi	a0,a2,-2
    80003f9c:	ff86b087          	fld	ft1,-8(a3)
    80003fa0:	01a57533          	and	a0,a0,s10
    80003fa4:	050e                	slli	a0,a0,0x3
    80003fa6:	9556                	add	a0,a0,s5
    80003fa8:	00053107          	fld	ft2,0(a0)
    80003fac:	0220f043          	fmadd.d	ft0,ft1,ft2,ft0
    80003fb0:	dd4703e3          	beq	a4,s4,80003d76 <svd_core+0x1d6a>
    80003fb4:	fff60513          	addi	a0,a2,-1
    80003fb8:	0006b087          	fld	ft1,0(a3)
    80003fbc:	01a57533          	and	a0,a0,s10
    80003fc0:	050e                	slli	a0,a0,0x3
    80003fc2:	9556                	add	a0,a0,s5
    80003fc4:	00053107          	fld	ft2,0(a0)
    80003fc8:	0220f043          	fmadd.d	ft0,ft1,ft2,ft0
    80003fcc:	da0705e3          	beqz	a4,80003d76 <svd_core+0x1d6a>
    80003fd0:	0086b087          	fld	ft1,8(a3)
    80003fd4:	01a67533          	and	a0,a2,s10
    80003fd8:	050e                	slli	a0,a0,0x3
    80003fda:	9556                	add	a0,a0,s5
    80003fdc:	00053107          	fld	ft2,0(a0)
    80003fe0:	0220f043          	fmadd.d	ft0,ft1,ft2,ft0
    80003fe4:	0611                	addi	a2,a2,4
    80003fe6:	00c58533          	add	a0,a1,a2
    80003fea:	02068693          	addi	a3,a3,32
    80003fee:	f93515e3          	bne	a0,s3,80003f78 <svd_core+0x1f6c>
    80003ff2:	b351                	j	80003d76 <svd_core+0x1d6a>
    80003ff4:	1188                	addi	a0,sp,224
    80003ff6:	20000613          	li	a2,512
    80003ffa:	4581                	li	a1,0
    80003ffc:	0000a097          	auipc	ra,0xa
    80004000:	636080e7          	jalr	1590(ra) # 8000e632 <memset>
    80004004:	43a1                	li	t2,8
    80004006:	f2000053          	fmv.d.x	ft0,zero
    8000400a:	22000953          	fmv.d	fs2,ft0
    8000400e:	7da6                	ld	s11,104(sp)
    80004010:	67ca                	ld	a5,144(sp)
    80004012:	652e                	ld	a0,200(sp)
    80004014:	44a05b63          	blez	a0,8000446a <svd_core+0x245e>
    80004018:	4281                	li	t0,0
    8000401a:	4889                	li	a7,2
    8000401c:	6826                	ld	a6,72(sp)
    8000401e:	a829                	j	80004038 <svd_core+0x202c>
    80004020:	00329513          	slli	a0,t0,0x3
    80004024:	9556                	add	a0,a0,s5
    80004026:	00153027          	fsd	ft1,0(a0)
    8000402a:	0285                	addi	t0,t0,1
    8000402c:	986e                	add	a6,a6,s11
    8000402e:	650e                	ld	a0,192(sp)
    80004030:	98aa                	add	a7,a7,a0
    80004032:	756a                	ld	a0,184(sp)
    80004034:	26a28463          	beq	t0,a0,8000429c <svd_core+0x2290>
    80004038:	650e                	ld	a0,192(sp)
    8000403a:	00756d63          	bltu	a0,t2,80004054 <svd_core+0x2048>
    8000403e:	652a                	ld	a0,136(sp)
    80004040:	00757e63          	bgeu	a0,t2,8000405c <svd_core+0x2050>
    80004044:	4301                	li	t1,0
    80004046:	f20000d3          	fmv.d.x	ft1,zero
    8000404a:	461d                	li	a2,7
    8000404c:	650a                	ld	a0,128(sp)
    8000404e:	10051663          	bnez	a0,8000415a <svd_core+0x214e>
    80004052:	aa55                	j	80004206 <svd_core+0x21fa>
    80004054:	f20000d3          	fmv.d.x	ft1,zero
    80004058:	4301                	li	t1,0
    8000405a:	a275                	j	80004206 <svd_core+0x21fa>
    8000405c:	4301                	li	t1,0
    8000405e:	4701                	li	a4,0
    80004060:	f20000d3          	fmv.d.x	ft1,zero
    80004064:	161c                	addi	a5,sp,800
    80004066:	8642                	mv	a2,a6
    80004068:	fc063383          	ld	t2,-64(a2)
    8000406c:	fc863e83          	ld	t4,-56(a2)
    80004070:	fd063e03          	ld	t3,-48(a2)
    80004074:	fd863f03          	ld	t5,-40(a2)
    80004078:	fe063f83          	ld	t6,-32(a2)
    8000407c:	fe863983          	ld	s3,-24(a2)
    80004080:	ff063903          	ld	s2,-16(a2)
    80004084:	ff863b03          	ld	s6,-8(a2)
    80004088:	fc07ba03          	ld	s4,-64(a5)
    8000408c:	fc87bc03          	ld	s8,-56(a5)
    80004090:	fd07bb83          	ld	s7,-48(a5)
    80004094:	fd87b403          	ld	s0,-40(a5)
    80004098:	fe07bc83          	ld	s9,-32(a5)
    8000409c:	fe87b483          	ld	s1,-24(a5)
    800040a0:	ff07b583          	ld	a1,-16(a5)
    800040a4:	ff87b683          	ld	a3,-8(a5)
    800040a8:	01d3850b          	.insn	4, 0x01d3850b
    800040ac:	21ee050b          	.insn	4, 0x21ee050b
    800040b0:	413f850b          	.insn	4, 0x413f850b
    800040b4:	6169050b          	.insn	4, 0x6169050b
    800040b8:	818a050b          	.insn	4, 0x818a050b
    800040bc:	a08b850b          	.insn	4, 0xa08b850b
    800040c0:	c09c850b          	.insn	4, 0xc09c850b
    800040c4:	1cd5857b          	.insn	4, 0x1cd5857b
    800040c8:	f2050153          	fmv.d.x	ft2,a0
    800040cc:	0220f0d3          	fadd.d	ft1,ft1,ft2
    800040d0:	00063383          	ld	t2,0(a2)
    800040d4:	00863e03          	ld	t3,8(a2)
    800040d8:	01063e83          	ld	t4,16(a2)
    800040dc:	01863f83          	ld	t6,24(a2)
    800040e0:	02063f03          	ld	t5,32(a2)
    800040e4:	02863903          	ld	s2,40(a2)
    800040e8:	03063983          	ld	s3,48(a2)
    800040ec:	03863a03          	ld	s4,56(a2)
    800040f0:	0007bb03          	ld	s6,0(a5)
    800040f4:	0087bc03          	ld	s8,8(a5)
    800040f8:	0107bb83          	ld	s7,16(a5)
    800040fc:	0187bc83          	ld	s9,24(a5)
    80004100:	7394                	ld	a3,32(a5)
    80004102:	7780                	ld	s0,40(a5)
    80004104:	7b88                	ld	a0,48(a5)
    80004106:	7f84                	ld	s1,56(a5)
    80004108:	09c3858b          	.insn	4, 0x09c3858b
    8000410c:	29fe858b          	.insn	4, 0x29fe858b
    80004110:	492f058b          	.insn	4, 0x492f058b
    80004114:	6949858b          	.insn	4, 0x6949858b
    80004118:	898b058b          	.insn	4, 0x898b058b
    8000411c:	6c4e                	ld	s8,208(sp)
    8000411e:	a99b858b          	.insn	4, 0xa99b858b
    80004122:	c886858b          	.insn	4, 0xc886858b
    80004126:	9c95057b          	.insn	4, 0x9c95057b
    8000412a:	f2050153          	fmv.d.x	ft2,a0
    8000412e:	0220f0d3          	fadd.d	ft1,ft1,ft2
    80004132:	0341                	addi	t1,t1,16
    80004134:	2709                	addiw	a4,a4,2
    80004136:	08060613          	addi	a2,a2,128
    8000413a:	08078793          	addi	a5,a5,128
    8000413e:	f38715e3          	bne	a4,s8,80004068 <svd_core+0x205c>
    80004142:	00730613          	addi	a2,t1,7
    80004146:	6cee                	ld	s9,216(sp)
    80004148:	67ca                	ld	a5,144(sp)
    8000414a:	2e010b13          	addi	s6,sp,736
    8000414e:	4a05                	li	s4,1
    80004150:	43a1                	li	t2,8
    80004152:	4909                	li	s2,2
    80004154:	498d                	li	s3,3
    80004156:	650a                	ld	a0,128(sp)
    80004158:	c55d                	beqz	a0,80004206 <svd_core+0x21fa>
    8000415a:	650e                	ld	a0,192(sp)
    8000415c:	02a28533          	mul	a0,t0,a0
    80004160:	951a                	add	a0,a0,t1
    80004162:	050e                	slli	a0,a0,0x3
    80004164:	65ea                	ld	a1,152(sp)
    80004166:	952e                	add	a0,a0,a1
    80004168:	00053383          	ld	t2,0(a0)
    8000416c:	00853e03          	ld	t3,8(a0)
    80004170:	01053e83          	ld	t4,16(a0)
    80004174:	01853f03          	ld	t5,24(a0)
    80004178:	02053f83          	ld	t6,32(a0)
    8000417c:	02853983          	ld	s3,40(a0)
    80004180:	03053903          	ld	s2,48(a0)
    80004184:	03853a03          	ld	s4,56(a0)
    80004188:	00331693          	slli	a3,t1,0x3
    8000418c:	00db0733          	add	a4,s6,a3
    80004190:	2e010093          	addi	ra,sp,736
    80004194:	00073b03          	ld	s6,0(a4)
    80004198:	0086e793          	ori	a5,a3,8
    8000419c:	9786                	add	a5,a5,ra
    8000419e:	639c                	ld	a5,0(a5)
    800041a0:	0106e493          	ori	s1,a3,16
    800041a4:	9486                	add	s1,s1,ra
    800041a6:	6084                	ld	s1,0(s1)
    800041a8:	0186e593          	ori	a1,a3,24
    800041ac:	9586                	add	a1,a1,ra
    800041ae:	618c                	ld	a1,0(a1)
    800041b0:	0206e413          	ori	s0,a3,32
    800041b4:	9406                	add	s0,s0,ra
    800041b6:	6000                	ld	s0,0(s0)
    800041b8:	0286e513          	ori	a0,a3,40
    800041bc:	9506                	add	a0,a0,ra
    800041be:	6108                	ld	a0,0(a0)
    800041c0:	0306e693          	ori	a3,a3,48
    800041c4:	9686                	add	a3,a3,ra
    800041c6:	6294                	ld	a3,0(a3)
    800041c8:	060e                	slli	a2,a2,0x3
    800041ca:	9606                	add	a2,a2,ra
    800041cc:	6210                	ld	a2,0(a2)
    800041ce:	01c3870b          	.insn	4, 0x01c3870b
    800041d2:	21ee870b          	.insn	4, 0x21ee870b
    800041d6:	413f870b          	.insn	4, 0x413f870b
    800041da:	498d                	li	s3,3
    800041dc:	43a1                	li	t2,8
    800041de:	6149070b          	.insn	4, 0x6149070b
    800041e2:	4909                	li	s2,2
    800041e4:	4a05                	li	s4,1
    800041e6:	80fb070b          	.insn	4, 0x80fb070b
    800041ea:	2e010b13          	addi	s6,sp,736
    800041ee:	67ca                	ld	a5,144(sp)
    800041f0:	a0b4858b          	.insn	4, 0xa0b4858b
    800041f4:	c0a4050b          	.insn	4, 0xc0a4050b
    800041f8:	1cc6857b          	.insn	4, 0x1cc6857b
    800041fc:	f2050153          	fmv.d.x	ft2,a0
    80004200:	0220f0d3          	fadd.d	ft1,ft1,ft2
    80004204:	0321                	addi	t1,t1,8
    80004206:	0003069b          	sext.w	a3,t1
    8000420a:	650e                	ld	a0,192(sp)
    8000420c:	e0a6dae3          	bge	a3,a0,80004020 <svd_core+0x2014>
    80004210:	00368613          	addi	a2,a3,3
    80004214:	00d88533          	add	a0,a7,a3
    80004218:	050e                	slli	a0,a0,0x3
    8000421a:	65ea                	ld	a1,152(sp)
    8000421c:	00a586b3          	add	a3,a1,a0
    80004220:	ffd60513          	addi	a0,a2,-3
    80004224:	ff06b107          	fld	ft2,-16(a3)
    80004228:	01a57533          	and	a0,a0,s10
    8000422c:	050e                	slli	a0,a0,0x3
    8000422e:	955a                	add	a0,a0,s6
    80004230:	00053187          	fld	ft3,0(a0)
    80004234:	0a3170c3          	fmadd.d	ft1,ft2,ft3,ft1
    80004238:	00c78733          	add	a4,a5,a2
    8000423c:	df2702e3          	beq	a4,s2,80004020 <svd_core+0x2014>
    80004240:	ffe60513          	addi	a0,a2,-2
    80004244:	ff86b107          	fld	ft2,-8(a3)
    80004248:	01a57533          	and	a0,a0,s10
    8000424c:	050e                	slli	a0,a0,0x3
    8000424e:	955a                	add	a0,a0,s6
    80004250:	00053187          	fld	ft3,0(a0)
    80004254:	0a3170c3          	fmadd.d	ft1,ft2,ft3,ft1
    80004258:	dd4704e3          	beq	a4,s4,80004020 <svd_core+0x2014>
    8000425c:	fff60513          	addi	a0,a2,-1
    80004260:	0006b107          	fld	ft2,0(a3)
    80004264:	01a57533          	and	a0,a0,s10
    80004268:	050e                	slli	a0,a0,0x3
    8000426a:	955a                	add	a0,a0,s6
    8000426c:	00053187          	fld	ft3,0(a0)
    80004270:	0a3170c3          	fmadd.d	ft1,ft2,ft3,ft1
    80004274:	da0706e3          	beqz	a4,80004020 <svd_core+0x2014>
    80004278:	0086b107          	fld	ft2,8(a3)
    8000427c:	01a67533          	and	a0,a2,s10
    80004280:	050e                	slli	a0,a0,0x3
    80004282:	955a                	add	a0,a0,s6
    80004284:	00053187          	fld	ft3,0(a0)
    80004288:	0a3170c3          	fmadd.d	ft1,ft2,ft3,ft1
    8000428c:	0611                	addi	a2,a2,4
    8000428e:	00c78533          	add	a0,a5,a2
    80004292:	02068693          	addi	a3,a3,32
    80004296:	f93515e3          	bne	a0,s3,80004220 <svd_core+0x2214>
    8000429a:	b359                	j	80004020 <svd_core+0x2014>
    8000429c:	652e                	ld	a0,200(sp)
    8000429e:	04a05763          	blez	a0,800042ec <svd_core+0x22e0>
    800042a2:	7562                	ld	a0,56(sp)
    800042a4:	04757763          	bgeu	a0,t2,800042f2 <svd_core+0x22e6>
    800042a8:	f2000953          	fmv.d.x	fs2,zero
    800042ac:	4501                	li	a0,0
    800042ae:	75c2                	ld	a1,48(sp)
    800042b0:	1a058d63          	beqz	a1,8000446a <svd_core+0x245e>
    800042b4:	65ae                	ld	a1,200(sp)
    800042b6:	9d89                	subw	a1,a1,a0
    800042b8:	4621                	li	a2,8
    800042ba:	87ae                	mv	a5,a1
    800042bc:	00c5c363          	blt	a1,a2,800042c2 <svd_core+0x22b6>
    800042c0:	47a1                	li	a5,8
    800042c2:	050e                	slli	a0,a0,0x3
    800042c4:	16b05c63          	blez	a1,8000443c <svd_core+0x2430>
    800042c8:	00856593          	ori	a1,a0,8
    800042cc:	95d6                	add	a1,a1,s5
    800042ce:	0005b803          	ld	a6,0(a1)
    800042d2:	1727c863          	blt	a5,s2,80004442 <svd_core+0x2436>
    800042d6:	01056593          	ori	a1,a0,16
    800042da:	95d6                	add	a1,a1,s5
    800042dc:	6190                	ld	a2,0(a1)
    800042de:	01278463          	beq	a5,s2,800042e6 <svd_core+0x22da>
    800042e2:	6d70506f          	j	8000a1b8 <svd_core+0x81ac>
    800042e6:	4481                	li	s1,0
    800042e8:	4701                	li	a4,0
    800042ea:	aab9                	j	80004448 <svd_core+0x243c>
    800042ec:	f2000953          	fmv.d.x	fs2,zero
    800042f0:	aaad                	j	8000446a <svd_core+0x245e>
    800042f2:	4501                	li	a0,0
    800042f4:	4f01                	li	t5,0
    800042f6:	f2000953          	fmv.d.x	fs2,zero
    800042fa:	1210                	addi	a2,sp,288
    800042fc:	65ae                	ld	a1,200(sp)
    800042fe:	40a5873b          	subw	a4,a1,a0
    80004302:	47a1                	li	a5,8
    80004304:	86ba                	mv	a3,a4
    80004306:	00f74363          	blt	a4,a5,8000430c <svd_core+0x2300>
    8000430a:	46a1                	li	a3,8
    8000430c:	00e05e63          	blez	a4,80004328 <svd_core+0x231c>
    80004310:	fc863303          	ld	t1,-56(a2)
    80004314:	0126cd63          	blt	a3,s2,8000432e <svd_core+0x2322>
    80004318:	fd063403          	ld	s0,-48(a2)
    8000431c:	0b269563          	bne	a3,s2,800043c6 <svd_core+0x23ba>
    80004320:	84a2                	mv	s1,s0
    80004322:	4401                	li	s0,0
    80004324:	f082                	sd	zero,96(sp)
    80004326:	a039                	j	80004334 <svd_core+0x2328>
    80004328:	4301                	li	t1,0
    8000432a:	ff26d7e3          	bge	a3,s2,80004318 <svd_core+0x230c>
    8000432e:	4401                	li	s0,0
    80004330:	f082                	sd	zero,96(sp)
    80004332:	4481                	li	s1,0
    80004334:	4381                	li	t2,0
    80004336:	ec82                	sd	zero,88(sp)
    80004338:	e882                	sd	zero,80(sp)
    8000433a:	65ae                	ld	a1,200(sp)
    8000433c:	40a586bb          	subw	a3,a1,a0
    80004340:	36e1                	addiw	a3,a3,-8
    80004342:	4721                	li	a4,8
    80004344:	88b6                	mv	a7,a3
    80004346:	00e6c363          	blt	a3,a4,8000434c <svd_core+0x2340>
    8000434a:	48a1                	li	a7,8
    8000434c:	00d05563          	blez	a3,80004356 <svd_core+0x234a>
    80004350:	00863f83          	ld	t6,8(a2)
    80004354:	a011                	j	80004358 <svd_core+0x234c>
    80004356:	4f81                	li	t6,0
    80004358:	fc063b83          	ld	s7,-64(a2)
    8000435c:	00063083          	ld	ra,0(a2)
    80004360:	0128c963          	blt	a7,s2,80004372 <svd_core+0x2366>
    80004364:	01063283          	ld	t0,16(a2)
    80004368:	07289c63          	bne	a7,s2,800043e0 <svd_core+0x23d4>
    8000436c:	4e81                	li	t4,0
    8000436e:	4e01                	li	t3,0
    80004370:	a021                	j	80004378 <svd_core+0x236c>
    80004372:	4e81                	li	t4,0
    80004374:	4e01                	li	t3,0
    80004376:	4281                	li	t0,0
    80004378:	4d81                	li	s11,0
    8000437a:	4801                	li	a6,0
    8000437c:	4781                	li	a5,0
    8000437e:	7686                	ld	a3,96(sp)
    80004380:	6766                	ld	a4,88(sp)
    80004382:	65c6                	ld	a1,80(sp)
    80004384:	64b4040b          	.insn	4, 0x64b4040b
    80004388:	44e6840b          	.insn	4, 0x44e6840b
    8000438c:	2474840b          	.insn	4, 0x2474840b
    80004390:	406b847b          	.insn	4, 0x406b847b
    80004394:	f20400d3          	fmv.d.x	ft1,s0
    80004398:	021970d3          	fadd.d	ft1,fs2,ft1
    8000439c:	6cfe870b          	.insn	4, 0x6cfe870b
    800043a0:	4d0e068b          	.insn	4, 0x4d0e068b
    800043a4:	2db2868b          	.insn	4, 0x2db2868b
    800043a8:	c1f086fb          	.insn	4, 0xc1f086fb
    800043ac:	f2068153          	fmv.d.x	ft2,a3
    800043b0:	0220f953          	fadd.d	fs2,ft1,ft2
    800043b4:	0541                	addi	a0,a0,16
    800043b6:	2f09                	addiw	t5,t5,2
    800043b8:	08060613          	addi	a2,a2,128
    800043bc:	76e6                	ld	a3,120(sp)
    800043be:	43a1                	li	t2,8
    800043c0:	f2df1ee3          	bne	t5,a3,800042fc <svd_core+0x22f0>
    800043c4:	b5ed                	j	800042ae <svd_core+0x22a2>
    800043c6:	fd863383          	ld	t2,-40(a2)
    800043ca:	84a2                	mv	s1,s0
    800043cc:	4715                	li	a4,5
    800043ce:	02e6e463          	bltu	a3,a4,800043f6 <svd_core+0x23ea>
    800043d2:	fe063403          	ld	s0,-32(a2)
    800043d6:	f0a2                	sd	s0,96(sp)
    800043d8:	02e69563          	bne	a3,a4,80004402 <svd_core+0x23f6>
    800043dc:	4401                	li	s0,0
    800043de:	bfa1                	j	80004336 <svd_core+0x232a>
    800043e0:	01863d83          	ld	s11,24(a2)
    800043e4:	4715                	li	a4,5
    800043e6:	00e8eb63          	bltu	a7,a4,800043fc <svd_core+0x23f0>
    800043ea:	02063e03          	ld	t3,32(a2)
    800043ee:	02e89863          	bne	a7,a4,8000441e <svd_core+0x2412>
    800043f2:	4e81                	li	t4,0
    800043f4:	b759                	j	8000437a <svd_core+0x236e>
    800043f6:	4401                	li	s0,0
    800043f8:	f082                	sd	zero,96(sp)
    800043fa:	bf35                	j	80004336 <svd_core+0x232a>
    800043fc:	4e81                	li	t4,0
    800043fe:	4e01                	li	t3,0
    80004400:	bfad                	j	8000437a <svd_core+0x236e>
    80004402:	fe863783          	ld	a5,-24(a2)
    80004406:	471d                	li	a4,7
    80004408:	ecbe                	sd	a5,88(sp)
    8000440a:	02e6e563          	bltu	a3,a4,80004434 <svd_core+0x2428>
    8000440e:	ff063403          	ld	s0,-16(a2)
    80004412:	f2e683e3          	beq	a3,a4,80004338 <svd_core+0x232c>
    80004416:	ff863583          	ld	a1,-8(a2)
    8000441a:	e8ae                	sd	a1,80(sp)
    8000441c:	bf39                	j	8000433a <svd_core+0x232e>
    8000441e:	02863803          	ld	a6,40(a2)
    80004422:	479d                	li	a5,7
    80004424:	00f8ea63          	bltu	a7,a5,80004438 <svd_core+0x242c>
    80004428:	03063e83          	ld	t4,48(a2)
    8000442c:	f4f888e3          	beq	a7,a5,8000437c <svd_core+0x2370>
    80004430:	7e1c                	ld	a5,56(a2)
    80004432:	b7b1                	j	8000437e <svd_core+0x2372>
    80004434:	4401                	li	s0,0
    80004436:	b709                	j	80004338 <svd_core+0x232c>
    80004438:	4e81                	li	t4,0
    8000443a:	b789                	j	8000437c <svd_core+0x2370>
    8000443c:	4801                	li	a6,0
    8000443e:	e927dce3          	bge	a5,s2,800042d6 <svd_core+0x22ca>
    80004442:	4481                	li	s1,0
    80004444:	4701                	li	a4,0
    80004446:	4601                	li	a2,0
    80004448:	4681                	li	a3,0
    8000444a:	4581                	li	a1,0
    8000444c:	4781                	li	a5,0
    8000444e:	9556                	add	a0,a0,s5
    80004450:	6108                	ld	a0,0(a0)
    80004452:	64f4878b          	.insn	4, 0x64f4878b
    80004456:	44b7058b          	.insn	4, 0x44b7058b
    8000445a:	24d6058b          	.insn	4, 0x24d6058b
    8000445e:	4105057b          	.insn	4, 0x4105057b
    80004462:	f20500d3          	fmv.d.x	ft1,a0
    80004466:	02197953          	fadd.d	fs2,fs2,ft1
    8000446a:	0b3970d3          	fsub.d	ft1,fs2,fs3
    8000446e:	a2009553          	flt.d	a0,ft1,ft0
    80004472:	c119                	beqz	a0,80004478 <svd_core+0x246c>
    80004474:	221090d3          	fneg.d	ft1,ft1
    80004478:	70c6                	ld	ra,112(sp)
    8000447a:	75ca                	ld	a1,176(sp)
    8000447c:	a2909553          	flt.d	a0,ft1,fs1
    80004480:	23398a53          	fmv.d	fs4,fs3
    80004484:	c119                	beqz	a0,8000448a <svd_core+0x247e>
    80004486:	2950906f          	j	8000df1a <svd_core+0xbf0e>
    8000448a:	4281                	li	t0,0
    8000448c:	4889                	li	a7,2
    8000448e:	52010813          	addi	a6,sp,1312
    80004492:	a839                	j	800044b0 <svd_core+0x24a4>
    80004494:	1b207053          	fdiv.d	ft0,ft0,fs2
    80004498:	00329513          	slli	a0,t0,0x3
    8000449c:	955a                	add	a0,a0,s6
    8000449e:	00053027          	fsd	ft0,0(a0)
    800044a2:	0285                	addi	t0,t0,1
    800044a4:	9806                	add	a6,a6,ra
    800044a6:	652e                	ld	a0,200(sp)
    800044a8:	98aa                	add	a7,a7,a0
    800044aa:	650e                	ld	a0,192(sp)
    800044ac:	26a28363          	beq	t0,a0,80004712 <svd_core+0x2706>
    800044b0:	652e                	ld	a0,200(sp)
    800044b2:	00754d63          	blt	a0,t2,800044cc <svd_core+0x24c0>
    800044b6:	752a                	ld	a0,168(sp)
    800044b8:	00757e63          	bgeu	a0,t2,800044d4 <svd_core+0x24c8>
    800044bc:	4301                	li	t1,0
    800044be:	f2000053          	fmv.d.x	ft0,zero
    800044c2:	461d                	li	a2,7
    800044c4:	750a                	ld	a0,160(sp)
    800044c6:	10051663          	bnez	a0,800045d2 <svd_core+0x25c6>
    800044ca:	aa4d                	j	8000467c <svd_core+0x2670>
    800044cc:	f2000053          	fmv.d.x	ft0,zero
    800044d0:	4301                	li	t1,0
    800044d2:	a26d                	j	8000467c <svd_core+0x2670>
    800044d4:	4301                	li	t1,0
    800044d6:	4701                	li	a4,0
    800044d8:	f2000053          	fmv.d.x	ft0,zero
    800044dc:	121c                	addi	a5,sp,288
    800044de:	8642                	mv	a2,a6
    800044e0:	fc063383          	ld	t2,-64(a2)
    800044e4:	fc863e83          	ld	t4,-56(a2)
    800044e8:	fd063e03          	ld	t3,-48(a2)
    800044ec:	fd863f03          	ld	t5,-40(a2)
    800044f0:	fe063f83          	ld	t6,-32(a2)
    800044f4:	fe863983          	ld	s3,-24(a2)
    800044f8:	ff063903          	ld	s2,-16(a2)
    800044fc:	ff863b03          	ld	s6,-8(a2)
    80004500:	fc07ba03          	ld	s4,-64(a5)
    80004504:	fc87bc03          	ld	s8,-56(a5)
    80004508:	fd07bb83          	ld	s7,-48(a5)
    8000450c:	fd87b403          	ld	s0,-40(a5)
    80004510:	fe07bc83          	ld	s9,-32(a5)
    80004514:	fe87b483          	ld	s1,-24(a5)
    80004518:	ff07b583          	ld	a1,-16(a5)
    8000451c:	ff87b683          	ld	a3,-8(a5)
    80004520:	01d3850b          	.insn	4, 0x01d3850b
    80004524:	21ee050b          	.insn	4, 0x21ee050b
    80004528:	413f850b          	.insn	4, 0x413f850b
    8000452c:	6169050b          	.insn	4, 0x6169050b
    80004530:	818a050b          	.insn	4, 0x818a050b
    80004534:	a08b850b          	.insn	4, 0xa08b850b
    80004538:	c09c850b          	.insn	4, 0xc09c850b
    8000453c:	1cd5857b          	.insn	4, 0x1cd5857b
    80004540:	f20500d3          	fmv.d.x	ft1,a0
    80004544:	02107053          	fadd.d	ft0,ft0,ft1
    80004548:	00063383          	ld	t2,0(a2)
    8000454c:	00863e03          	ld	t3,8(a2)
    80004550:	01063e83          	ld	t4,16(a2)
    80004554:	01863f83          	ld	t6,24(a2)
    80004558:	02063f03          	ld	t5,32(a2)
    8000455c:	02863903          	ld	s2,40(a2)
    80004560:	03063983          	ld	s3,48(a2)
    80004564:	03863a03          	ld	s4,56(a2)
    80004568:	0007bb03          	ld	s6,0(a5)
    8000456c:	0087bc03          	ld	s8,8(a5)
    80004570:	0107bb83          	ld	s7,16(a5)
    80004574:	0187bc83          	ld	s9,24(a5)
    80004578:	7394                	ld	a3,32(a5)
    8000457a:	7780                	ld	s0,40(a5)
    8000457c:	7b88                	ld	a0,48(a5)
    8000457e:	7f84                	ld	s1,56(a5)
    80004580:	09c3858b          	.insn	4, 0x09c3858b
    80004584:	29fe858b          	.insn	4, 0x29fe858b
    80004588:	492f058b          	.insn	4, 0x492f058b
    8000458c:	6949858b          	.insn	4, 0x6949858b
    80004590:	898b058b          	.insn	4, 0x898b058b
    80004594:	a99b858b          	.insn	4, 0xa99b858b
    80004598:	6cee                	ld	s9,216(sp)
    8000459a:	c886858b          	.insn	4, 0xc886858b
    8000459e:	9c95057b          	.insn	4, 0x9c95057b
    800045a2:	f20500d3          	fmv.d.x	ft1,a0
    800045a6:	02107053          	fadd.d	ft0,ft0,ft1
    800045aa:	0341                	addi	t1,t1,16
    800045ac:	2709                	addiw	a4,a4,2
    800045ae:	08060613          	addi	a2,a2,128
    800045b2:	08078793          	addi	a5,a5,128
    800045b6:	f39715e3          	bne	a4,s9,800044e0 <svd_core+0x24d4>
    800045ba:	00730613          	addi	a2,t1,7
    800045be:	6c4e                	ld	s8,208(sp)
    800045c0:	75ca                	ld	a1,176(sp)
    800045c2:	2e010b13          	addi	s6,sp,736
    800045c6:	4a05                	li	s4,1
    800045c8:	43a1                	li	t2,8
    800045ca:	4909                	li	s2,2
    800045cc:	498d                	li	s3,3
    800045ce:	750a                	ld	a0,160(sp)
    800045d0:	c555                	beqz	a0,8000467c <svd_core+0x2670>
    800045d2:	652e                	ld	a0,200(sp)
    800045d4:	02a28533          	mul	a0,t0,a0
    800045d8:	951a                	add	a0,a0,t1
    800045da:	050e                	slli	a0,a0,0x3
    800045dc:	4e010593          	addi	a1,sp,1248
    800045e0:	952e                	add	a0,a0,a1
    800045e2:	00053383          	ld	t2,0(a0)
    800045e6:	00853e03          	ld	t3,8(a0)
    800045ea:	01053e83          	ld	t4,16(a0)
    800045ee:	01853f03          	ld	t5,24(a0)
    800045f2:	02053f83          	ld	t6,32(a0)
    800045f6:	02853983          	ld	s3,40(a0)
    800045fa:	03053903          	ld	s2,48(a0)
    800045fe:	03853a03          	ld	s4,56(a0)
    80004602:	00331693          	slli	a3,t1,0x3
    80004606:	00da8733          	add	a4,s5,a3
    8000460a:	00073b03          	ld	s6,0(a4)
    8000460e:	0086e793          	ori	a5,a3,8
    80004612:	97d6                	add	a5,a5,s5
    80004614:	639c                	ld	a5,0(a5)
    80004616:	0106e493          	ori	s1,a3,16
    8000461a:	94d6                	add	s1,s1,s5
    8000461c:	6084                	ld	s1,0(s1)
    8000461e:	0186e593          	ori	a1,a3,24
    80004622:	95d6                	add	a1,a1,s5
    80004624:	618c                	ld	a1,0(a1)
    80004626:	0206e413          	ori	s0,a3,32
    8000462a:	9456                	add	s0,s0,s5
    8000462c:	6000                	ld	s0,0(s0)
    8000462e:	0286e513          	ori	a0,a3,40
    80004632:	9556                	add	a0,a0,s5
    80004634:	6108                	ld	a0,0(a0)
    80004636:	0306e693          	ori	a3,a3,48
    8000463a:	96d6                	add	a3,a3,s5
    8000463c:	6294                	ld	a3,0(a3)
    8000463e:	060e                	slli	a2,a2,0x3
    80004640:	9656                	add	a2,a2,s5
    80004642:	6210                	ld	a2,0(a2)
    80004644:	01c3870b          	.insn	4, 0x01c3870b
    80004648:	21ee870b          	.insn	4, 0x21ee870b
    8000464c:	413f870b          	.insn	4, 0x413f870b
    80004650:	498d                	li	s3,3
    80004652:	43a1                	li	t2,8
    80004654:	6149070b          	.insn	4, 0x6149070b
    80004658:	4909                	li	s2,2
    8000465a:	4a05                	li	s4,1
    8000465c:	80fb070b          	.insn	4, 0x80fb070b
    80004660:	2e010b13          	addi	s6,sp,736
    80004664:	a0b4858b          	.insn	4, 0xa0b4858b
    80004668:	75ca                	ld	a1,176(sp)
    8000466a:	c0a4050b          	.insn	4, 0xc0a4050b
    8000466e:	1cc6857b          	.insn	4, 0x1cc6857b
    80004672:	f20500d3          	fmv.d.x	ft1,a0
    80004676:	02107053          	fadd.d	ft0,ft0,ft1
    8000467a:	0321                	addi	t1,t1,8
    8000467c:	0003069b          	sext.w	a3,t1
    80004680:	652e                	ld	a0,200(sp)
    80004682:	e0a6d9e3          	bge	a3,a0,80004494 <svd_core+0x2488>
    80004686:	00368613          	addi	a2,a3,3
    8000468a:	00d88533          	add	a0,a7,a3
    8000468e:	050e                	slli	a0,a0,0x3
    80004690:	4e010693          	addi	a3,sp,1248
    80004694:	96aa                	add	a3,a3,a0
    80004696:	ffd60513          	addi	a0,a2,-3
    8000469a:	ff06b087          	fld	ft1,-16(a3)
    8000469e:	01a57533          	and	a0,a0,s10
    800046a2:	050e                	slli	a0,a0,0x3
    800046a4:	9556                	add	a0,a0,s5
    800046a6:	00053107          	fld	ft2,0(a0)
    800046aa:	0220f043          	fmadd.d	ft0,ft1,ft2,ft0
    800046ae:	00c58733          	add	a4,a1,a2
    800046b2:	df2701e3          	beq	a4,s2,80004494 <svd_core+0x2488>
    800046b6:	ffe60513          	addi	a0,a2,-2
    800046ba:	ff86b087          	fld	ft1,-8(a3)
    800046be:	01a57533          	and	a0,a0,s10
    800046c2:	050e                	slli	a0,a0,0x3
    800046c4:	9556                	add	a0,a0,s5
    800046c6:	00053107          	fld	ft2,0(a0)
    800046ca:	0220f043          	fmadd.d	ft0,ft1,ft2,ft0
    800046ce:	dd4703e3          	beq	a4,s4,80004494 <svd_core+0x2488>
    800046d2:	fff60513          	addi	a0,a2,-1
    800046d6:	0006b087          	fld	ft1,0(a3)
    800046da:	01a57533          	and	a0,a0,s10
    800046de:	050e                	slli	a0,a0,0x3
    800046e0:	9556                	add	a0,a0,s5
    800046e2:	00053107          	fld	ft2,0(a0)
    800046e6:	0220f043          	fmadd.d	ft0,ft1,ft2,ft0
    800046ea:	da0705e3          	beqz	a4,80004494 <svd_core+0x2488>
    800046ee:	0086b087          	fld	ft1,8(a3)
    800046f2:	01a67533          	and	a0,a2,s10
    800046f6:	050e                	slli	a0,a0,0x3
    800046f8:	9556                	add	a0,a0,s5
    800046fa:	00053107          	fld	ft2,0(a0)
    800046fe:	0220f043          	fmadd.d	ft0,ft1,ft2,ft0
    80004702:	0611                	addi	a2,a2,4
    80004704:	00c58533          	add	a0,a1,a2
    80004708:	02068693          	addi	a3,a3,32
    8000470c:	f93515e3          	bne	a0,s3,80004696 <svd_core+0x268a>
    80004710:	b351                	j	80004494 <svd_core+0x2488>
    80004712:	1188                	addi	a0,sp,224
    80004714:	20000613          	li	a2,512
    80004718:	4581                	li	a1,0
    8000471a:	0000a097          	auipc	ra,0xa
    8000471e:	f18080e7          	jalr	-232(ra) # 8000e632 <memset>
    80004722:	43a1                	li	t2,8
    80004724:	f2000053          	fmv.d.x	ft0,zero
    80004728:	220009d3          	fmv.d	fs3,ft0
    8000472c:	7da6                	ld	s11,104(sp)
    8000472e:	67ca                	ld	a5,144(sp)
    80004730:	652e                	ld	a0,200(sp)
    80004732:	46a05163          	blez	a0,80004b94 <svd_core+0x2b88>
    80004736:	4281                	li	t0,0
    80004738:	4889                	li	a7,2
    8000473a:	6826                	ld	a6,72(sp)
    8000473c:	a829                	j	80004756 <svd_core+0x274a>
    8000473e:	00329513          	slli	a0,t0,0x3
    80004742:	9556                	add	a0,a0,s5
    80004744:	00153027          	fsd	ft1,0(a0)
    80004748:	0285                	addi	t0,t0,1
    8000474a:	986e                	add	a6,a6,s11
    8000474c:	650e                	ld	a0,192(sp)
    8000474e:	98aa                	add	a7,a7,a0
    80004750:	756a                	ld	a0,184(sp)
    80004752:	26a28463          	beq	t0,a0,800049ba <svd_core+0x29ae>
    80004756:	650e                	ld	a0,192(sp)
    80004758:	00756d63          	bltu	a0,t2,80004772 <svd_core+0x2766>
    8000475c:	652a                	ld	a0,136(sp)
    8000475e:	00757e63          	bgeu	a0,t2,8000477a <svd_core+0x276e>
    80004762:	4301                	li	t1,0
    80004764:	f20000d3          	fmv.d.x	ft1,zero
    80004768:	461d                	li	a2,7
    8000476a:	650a                	ld	a0,128(sp)
    8000476c:	10051663          	bnez	a0,80004878 <svd_core+0x286c>
    80004770:	aa55                	j	80004924 <svd_core+0x2918>
    80004772:	f20000d3          	fmv.d.x	ft1,zero
    80004776:	4301                	li	t1,0
    80004778:	a275                	j	80004924 <svd_core+0x2918>
    8000477a:	4301                	li	t1,0
    8000477c:	4701                	li	a4,0
    8000477e:	f20000d3          	fmv.d.x	ft1,zero
    80004782:	161c                	addi	a5,sp,800
    80004784:	8642                	mv	a2,a6
    80004786:	fc063383          	ld	t2,-64(a2)
    8000478a:	fc863e83          	ld	t4,-56(a2)
    8000478e:	fd063e03          	ld	t3,-48(a2)
    80004792:	fd863f03          	ld	t5,-40(a2)
    80004796:	fe063f83          	ld	t6,-32(a2)
    8000479a:	fe863983          	ld	s3,-24(a2)
    8000479e:	ff063903          	ld	s2,-16(a2)
    800047a2:	ff863b03          	ld	s6,-8(a2)
    800047a6:	fc07ba03          	ld	s4,-64(a5)
    800047aa:	fc87bc03          	ld	s8,-56(a5)
    800047ae:	fd07bb83          	ld	s7,-48(a5)
    800047b2:	fd87b403          	ld	s0,-40(a5)
    800047b6:	fe07bc83          	ld	s9,-32(a5)
    800047ba:	fe87b483          	ld	s1,-24(a5)
    800047be:	ff07b583          	ld	a1,-16(a5)
    800047c2:	ff87b683          	ld	a3,-8(a5)
    800047c6:	01d3850b          	.insn	4, 0x01d3850b
    800047ca:	21ee050b          	.insn	4, 0x21ee050b
    800047ce:	413f850b          	.insn	4, 0x413f850b
    800047d2:	6169050b          	.insn	4, 0x6169050b
    800047d6:	818a050b          	.insn	4, 0x818a050b
    800047da:	a08b850b          	.insn	4, 0xa08b850b
    800047de:	c09c850b          	.insn	4, 0xc09c850b
    800047e2:	1cd5857b          	.insn	4, 0x1cd5857b
    800047e6:	f2050153          	fmv.d.x	ft2,a0
    800047ea:	0220f0d3          	fadd.d	ft1,ft1,ft2
    800047ee:	00063383          	ld	t2,0(a2)
    800047f2:	00863e03          	ld	t3,8(a2)
    800047f6:	01063e83          	ld	t4,16(a2)
    800047fa:	01863f83          	ld	t6,24(a2)
    800047fe:	02063f03          	ld	t5,32(a2)
    80004802:	02863903          	ld	s2,40(a2)
    80004806:	03063983          	ld	s3,48(a2)
    8000480a:	03863a03          	ld	s4,56(a2)
    8000480e:	0007bb03          	ld	s6,0(a5)
    80004812:	0087bc03          	ld	s8,8(a5)
    80004816:	0107bb83          	ld	s7,16(a5)
    8000481a:	0187bc83          	ld	s9,24(a5)
    8000481e:	7394                	ld	a3,32(a5)
    80004820:	7780                	ld	s0,40(a5)
    80004822:	7b88                	ld	a0,48(a5)
    80004824:	7f84                	ld	s1,56(a5)
    80004826:	09c3858b          	.insn	4, 0x09c3858b
    8000482a:	29fe858b          	.insn	4, 0x29fe858b
    8000482e:	492f058b          	.insn	4, 0x492f058b
    80004832:	6949858b          	.insn	4, 0x6949858b
    80004836:	898b058b          	.insn	4, 0x898b058b
    8000483a:	6c4e                	ld	s8,208(sp)
    8000483c:	a99b858b          	.insn	4, 0xa99b858b
    80004840:	c886858b          	.insn	4, 0xc886858b
    80004844:	9c95057b          	.insn	4, 0x9c95057b
    80004848:	f2050153          	fmv.d.x	ft2,a0
    8000484c:	0220f0d3          	fadd.d	ft1,ft1,ft2
    80004850:	0341                	addi	t1,t1,16
    80004852:	2709                	addiw	a4,a4,2
    80004854:	08060613          	addi	a2,a2,128
    80004858:	08078793          	addi	a5,a5,128
    8000485c:	f38715e3          	bne	a4,s8,80004786 <svd_core+0x277a>
    80004860:	00730613          	addi	a2,t1,7
    80004864:	6cee                	ld	s9,216(sp)
    80004866:	67ca                	ld	a5,144(sp)
    80004868:	2e010b13          	addi	s6,sp,736
    8000486c:	4a05                	li	s4,1
    8000486e:	43a1                	li	t2,8
    80004870:	4909                	li	s2,2
    80004872:	498d                	li	s3,3
    80004874:	650a                	ld	a0,128(sp)
    80004876:	c55d                	beqz	a0,80004924 <svd_core+0x2918>
    80004878:	650e                	ld	a0,192(sp)
    8000487a:	02a28533          	mul	a0,t0,a0
    8000487e:	951a                	add	a0,a0,t1
    80004880:	050e                	slli	a0,a0,0x3
    80004882:	65ea                	ld	a1,152(sp)
    80004884:	952e                	add	a0,a0,a1
    80004886:	00053383          	ld	t2,0(a0)
    8000488a:	00853e03          	ld	t3,8(a0)
    8000488e:	01053e83          	ld	t4,16(a0)
    80004892:	01853f03          	ld	t5,24(a0)
    80004896:	02053f83          	ld	t6,32(a0)
    8000489a:	02853983          	ld	s3,40(a0)
    8000489e:	03053903          	ld	s2,48(a0)
    800048a2:	03853a03          	ld	s4,56(a0)
    800048a6:	00331693          	slli	a3,t1,0x3
    800048aa:	00db0733          	add	a4,s6,a3
    800048ae:	2e010093          	addi	ra,sp,736
    800048b2:	00073b03          	ld	s6,0(a4)
    800048b6:	0086e793          	ori	a5,a3,8
    800048ba:	9786                	add	a5,a5,ra
    800048bc:	639c                	ld	a5,0(a5)
    800048be:	0106e493          	ori	s1,a3,16
    800048c2:	9486                	add	s1,s1,ra
    800048c4:	6084                	ld	s1,0(s1)
    800048c6:	0186e593          	ori	a1,a3,24
    800048ca:	9586                	add	a1,a1,ra
    800048cc:	618c                	ld	a1,0(a1)
    800048ce:	0206e413          	ori	s0,a3,32
    800048d2:	9406                	add	s0,s0,ra
    800048d4:	6000                	ld	s0,0(s0)
    800048d6:	0286e513          	ori	a0,a3,40
    800048da:	9506                	add	a0,a0,ra
    800048dc:	6108                	ld	a0,0(a0)
    800048de:	0306e693          	ori	a3,a3,48
    800048e2:	9686                	add	a3,a3,ra
    800048e4:	6294                	ld	a3,0(a3)
    800048e6:	060e                	slli	a2,a2,0x3
    800048e8:	9606                	add	a2,a2,ra
    800048ea:	6210                	ld	a2,0(a2)
    800048ec:	01c3870b          	.insn	4, 0x01c3870b
    800048f0:	21ee870b          	.insn	4, 0x21ee870b
    800048f4:	413f870b          	.insn	4, 0x413f870b
    800048f8:	498d                	li	s3,3
    800048fa:	43a1                	li	t2,8
    800048fc:	6149070b          	.insn	4, 0x6149070b
    80004900:	4909                	li	s2,2
    80004902:	4a05                	li	s4,1
    80004904:	80fb070b          	.insn	4, 0x80fb070b
    80004908:	2e010b13          	addi	s6,sp,736
    8000490c:	67ca                	ld	a5,144(sp)
    8000490e:	a0b4858b          	.insn	4, 0xa0b4858b
    80004912:	c0a4050b          	.insn	4, 0xc0a4050b
    80004916:	1cc6857b          	.insn	4, 0x1cc6857b
    8000491a:	f2050153          	fmv.d.x	ft2,a0
    8000491e:	0220f0d3          	fadd.d	ft1,ft1,ft2
    80004922:	0321                	addi	t1,t1,8
    80004924:	0003069b          	sext.w	a3,t1
    80004928:	650e                	ld	a0,192(sp)
    8000492a:	e0a6dae3          	bge	a3,a0,8000473e <svd_core+0x2732>
    8000492e:	00368613          	addi	a2,a3,3
    80004932:	00d88533          	add	a0,a7,a3
    80004936:	050e                	slli	a0,a0,0x3
    80004938:	65ea                	ld	a1,152(sp)
    8000493a:	00a586b3          	add	a3,a1,a0
    8000493e:	ffd60513          	addi	a0,a2,-3
    80004942:	ff06b107          	fld	ft2,-16(a3)
    80004946:	01a57533          	and	a0,a0,s10
    8000494a:	050e                	slli	a0,a0,0x3
    8000494c:	955a                	add	a0,a0,s6
    8000494e:	00053187          	fld	ft3,0(a0)
    80004952:	0a3170c3          	fmadd.d	ft1,ft2,ft3,ft1
    80004956:	00c78733          	add	a4,a5,a2
    8000495a:	df2702e3          	beq	a4,s2,8000473e <svd_core+0x2732>
    8000495e:	ffe60513          	addi	a0,a2,-2
    80004962:	ff86b107          	fld	ft2,-8(a3)
    80004966:	01a57533          	and	a0,a0,s10
    8000496a:	050e                	slli	a0,a0,0x3
    8000496c:	955a                	add	a0,a0,s6
    8000496e:	00053187          	fld	ft3,0(a0)
    80004972:	0a3170c3          	fmadd.d	ft1,ft2,ft3,ft1
    80004976:	dd4704e3          	beq	a4,s4,8000473e <svd_core+0x2732>
    8000497a:	fff60513          	addi	a0,a2,-1
    8000497e:	0006b107          	fld	ft2,0(a3)
    80004982:	01a57533          	and	a0,a0,s10
    80004986:	050e                	slli	a0,a0,0x3
    80004988:	955a                	add	a0,a0,s6
    8000498a:	00053187          	fld	ft3,0(a0)
    8000498e:	0a3170c3          	fmadd.d	ft1,ft2,ft3,ft1
    80004992:	da0706e3          	beqz	a4,8000473e <svd_core+0x2732>
    80004996:	0086b107          	fld	ft2,8(a3)
    8000499a:	01a67533          	and	a0,a2,s10
    8000499e:	050e                	slli	a0,a0,0x3
    800049a0:	955a                	add	a0,a0,s6
    800049a2:	00053187          	fld	ft3,0(a0)
    800049a6:	0a3170c3          	fmadd.d	ft1,ft2,ft3,ft1
    800049aa:	0611                	addi	a2,a2,4
    800049ac:	00c78533          	add	a0,a5,a2
    800049b0:	02068693          	addi	a3,a3,32
    800049b4:	f93515e3          	bne	a0,s3,8000493e <svd_core+0x2932>
    800049b8:	b359                	j	8000473e <svd_core+0x2732>
    800049ba:	652e                	ld	a0,200(sp)
    800049bc:	04a05763          	blez	a0,80004a0a <svd_core+0x29fe>
    800049c0:	7562                	ld	a0,56(sp)
    800049c2:	04757763          	bgeu	a0,t2,80004a10 <svd_core+0x2a04>
    800049c6:	f20009d3          	fmv.d.x	fs3,zero
    800049ca:	4501                	li	a0,0
    800049cc:	75c2                	ld	a1,48(sp)
    800049ce:	1c058363          	beqz	a1,80004b94 <svd_core+0x2b88>
    800049d2:	65ae                	ld	a1,200(sp)
    800049d4:	9d89                	subw	a1,a1,a0
    800049d6:	4621                	li	a2,8
    800049d8:	87ae                	mv	a5,a1
    800049da:	00c5c363          	blt	a1,a2,800049e0 <svd_core+0x29d4>
    800049de:	47a1                	li	a5,8
    800049e0:	050e                	slli	a0,a0,0x3
    800049e2:	18b05263          	blez	a1,80004b66 <svd_core+0x2b5a>
    800049e6:	00856593          	ori	a1,a0,8
    800049ea:	95d6                	add	a1,a1,s5
    800049ec:	0005b803          	ld	a6,0(a1)
    800049f0:	1727ce63          	blt	a5,s2,80004b6c <svd_core+0x2b60>
    800049f4:	01056593          	ori	a1,a0,16
    800049f8:	95d6                	add	a1,a1,s5
    800049fa:	6190                	ld	a2,0(a1)
    800049fc:	01278463          	beq	a5,s2,80004a04 <svd_core+0x29f8>
    80004a00:	70b0506f          	j	8000a90a <svd_core+0x88fe>
    80004a04:	4481                	li	s1,0
    80004a06:	4701                	li	a4,0
    80004a08:	a2ad                	j	80004b72 <svd_core+0x2b66>
    80004a0a:	f20009d3          	fmv.d.x	fs3,zero
    80004a0e:	a259                	j	80004b94 <svd_core+0x2b88>
    80004a10:	4501                	li	a0,0
    80004a12:	4581                	li	a1,0
    80004a14:	f20009d3          	fmv.d.x	fs3,zero
    80004a18:	1210                	addi	a2,sp,288
    80004a1a:	66ae                	ld	a3,200(sp)
    80004a1c:	40a6873b          	subw	a4,a3,a0
    80004a20:	47a1                	li	a5,8
    80004a22:	86ba                	mv	a3,a4
    80004a24:	00f74363          	blt	a4,a5,80004a2a <svd_core+0x2a1e>
    80004a28:	46a1                	li	a3,8
    80004a2a:	00e05d63          	blez	a4,80004a44 <svd_core+0x2a38>
    80004a2e:	fc863303          	ld	t1,-56(a2)
    80004a32:	0126cc63          	blt	a3,s2,80004a4a <svd_core+0x2a3e>
    80004a36:	fd063403          	ld	s0,-48(a2)
    80004a3a:	0b269563          	bne	a3,s2,80004ae4 <svd_core+0x2ad8>
    80004a3e:	ec82                	sd	zero,88(sp)
    80004a40:	4e01                	li	t3,0
    80004a42:	a039                	j	80004a50 <svd_core+0x2a44>
    80004a44:	4301                	li	t1,0
    80004a46:	ff26d8e3          	bge	a3,s2,80004a36 <svd_core+0x2a2a>
    80004a4a:	ec82                	sd	zero,88(sp)
    80004a4c:	4e01                	li	t3,0
    80004a4e:	4401                	li	s0,0
    80004a50:	4381                	li	t2,0
    80004a52:	f082                	sd	zero,96(sp)
    80004a54:	e882                	sd	zero,80(sp)
    80004a56:	66ae                	ld	a3,200(sp)
    80004a58:	9e89                	subw	a3,a3,a0
    80004a5a:	36e1                	addiw	a3,a3,-8
    80004a5c:	4721                	li	a4,8
    80004a5e:	88b6                	mv	a7,a3
    80004a60:	00e6c363          	blt	a3,a4,80004a66 <svd_core+0x2a5a>
    80004a64:	48a1                	li	a7,8
    80004a66:	00d05563          	blez	a3,80004a70 <svd_core+0x2a64>
    80004a6a:	00863f83          	ld	t6,8(a2)
    80004a6e:	a011                	j	80004a72 <svd_core+0x2a66>
    80004a70:	4f81                	li	t6,0
    80004a72:	fc063083          	ld	ra,-64(a2)
    80004a76:	6214                	ld	a3,0(a2)
    80004a78:	0128ca63          	blt	a7,s2,80004a8c <svd_core+0x2a80>
    80004a7c:	01063283          	ld	t0,16(a2)
    80004a80:	07289d63          	bne	a7,s2,80004afa <svd_core+0x2aee>
    80004a84:	88b6                	mv	a7,a3
    80004a86:	4f01                	li	t5,0
    80004a88:	4e81                	li	t4,0
    80004a8a:	a029                	j	80004a94 <svd_core+0x2a88>
    80004a8c:	88b6                	mv	a7,a3
    80004a8e:	4f01                	li	t5,0
    80004a90:	4e81                	li	t4,0
    80004a92:	4281                	li	t0,0
    80004a94:	4d81                	li	s11,0
    80004a96:	4801                	li	a6,0
    80004a98:	4781                	li	a5,0
    80004a9a:	84a2                	mv	s1,s0
    80004a9c:	6466                	ld	s0,88(sp)
    80004a9e:	7686                	ld	a3,96(sp)
    80004aa0:	6746                	ld	a4,80(sp)
    80004aa2:	64e4040b          	.insn	4, 0x64e4040b
    80004aa6:	44de040b          	.insn	4, 0x44de040b
    80004aaa:	2474840b          	.insn	4, 0x2474840b
    80004aae:	4060847b          	.insn	4, 0x4060847b
    80004ab2:	f20400d3          	fmv.d.x	ft1,s0
    80004ab6:	0219f0d3          	fadd.d	ft1,fs3,ft1
    80004aba:	6cff070b          	.insn	4, 0x6cff070b
    80004abe:	4d0e868b          	.insn	4, 0x4d0e868b
    80004ac2:	2db2868b          	.insn	4, 0x2db2868b
    80004ac6:	c1f886fb          	.insn	4, 0xc1f886fb
    80004aca:	f2068153          	fmv.d.x	ft2,a3
    80004ace:	0220f9d3          	fadd.d	fs3,ft1,ft2
    80004ad2:	0541                	addi	a0,a0,16
    80004ad4:	2589                	addiw	a1,a1,2
    80004ad6:	08060613          	addi	a2,a2,128
    80004ada:	76e6                	ld	a3,120(sp)
    80004adc:	43a1                	li	t2,8
    80004ade:	f2d59ee3          	bne	a1,a3,80004a1a <svd_core+0x2a0e>
    80004ae2:	b5ed                	j	800049cc <svd_core+0x29c0>
    80004ae4:	fd863383          	ld	t2,-40(a2)
    80004ae8:	4715                	li	a4,5
    80004aea:	02e6e463          	bltu	a3,a4,80004b12 <svd_core+0x2b06>
    80004aee:	fe063e03          	ld	t3,-32(a2)
    80004af2:	02e69763          	bne	a3,a4,80004b20 <svd_core+0x2b14>
    80004af6:	ec82                	sd	zero,88(sp)
    80004af8:	bfa9                	j	80004a52 <svd_core+0x2a46>
    80004afa:	01863d83          	ld	s11,24(a2)
    80004afe:	4715                	li	a4,5
    80004b00:	00e8ec63          	bltu	a7,a4,80004b18 <svd_core+0x2b0c>
    80004b04:	02063e83          	ld	t4,32(a2)
    80004b08:	02e89b63          	bne	a7,a4,80004b3e <svd_core+0x2b32>
    80004b0c:	88b6                	mv	a7,a3
    80004b0e:	4f01                	li	t5,0
    80004b10:	b759                	j	80004a96 <svd_core+0x2a8a>
    80004b12:	ec82                	sd	zero,88(sp)
    80004b14:	4e01                	li	t3,0
    80004b16:	bf35                	j	80004a52 <svd_core+0x2a46>
    80004b18:	88b6                	mv	a7,a3
    80004b1a:	4f01                	li	t5,0
    80004b1c:	4e81                	li	t4,0
    80004b1e:	bfa5                	j	80004a96 <svd_core+0x2a8a>
    80004b20:	fe863483          	ld	s1,-24(a2)
    80004b24:	471d                	li	a4,7
    80004b26:	f0a6                	sd	s1,96(sp)
    80004b28:	02e6e763          	bltu	a3,a4,80004b56 <svd_core+0x2b4a>
    80004b2c:	ff063783          	ld	a5,-16(a2)
    80004b30:	ecbe                	sd	a5,88(sp)
    80004b32:	f2e681e3          	beq	a3,a4,80004a54 <svd_core+0x2a48>
    80004b36:	ff863683          	ld	a3,-8(a2)
    80004b3a:	e8b6                	sd	a3,80(sp)
    80004b3c:	bf29                	j	80004a56 <svd_core+0x2a4a>
    80004b3e:	02863803          	ld	a6,40(a2)
    80004b42:	471d                	li	a4,7
    80004b44:	00e8eb63          	bltu	a7,a4,80004b5a <svd_core+0x2b4e>
    80004b48:	479d                	li	a5,7
    80004b4a:	03063f03          	ld	t5,48(a2)
    80004b4e:	00f89963          	bne	a7,a5,80004b60 <svd_core+0x2b54>
    80004b52:	88b6                	mv	a7,a3
    80004b54:	b791                	j	80004a98 <svd_core+0x2a8c>
    80004b56:	ec82                	sd	zero,88(sp)
    80004b58:	bdf5                	j	80004a54 <svd_core+0x2a48>
    80004b5a:	88b6                	mv	a7,a3
    80004b5c:	4f01                	li	t5,0
    80004b5e:	bf2d                	j	80004a98 <svd_core+0x2a8c>
    80004b60:	88b6                	mv	a7,a3
    80004b62:	7e1c                	ld	a5,56(a2)
    80004b64:	bf1d                	j	80004a9a <svd_core+0x2a8e>
    80004b66:	4801                	li	a6,0
    80004b68:	e927d6e3          	bge	a5,s2,800049f4 <svd_core+0x29e8>
    80004b6c:	4481                	li	s1,0
    80004b6e:	4701                	li	a4,0
    80004b70:	4601                	li	a2,0
    80004b72:	4681                	li	a3,0
    80004b74:	4581                	li	a1,0
    80004b76:	4781                	li	a5,0
    80004b78:	9556                	add	a0,a0,s5
    80004b7a:	6108                	ld	a0,0(a0)
    80004b7c:	64f4878b          	.insn	4, 0x64f4878b
    80004b80:	44b7058b          	.insn	4, 0x44b7058b
    80004b84:	24d6058b          	.insn	4, 0x24d6058b
    80004b88:	4105057b          	.insn	4, 0x4105057b
    80004b8c:	f20500d3          	fmv.d.x	ft1,a0
    80004b90:	0219f9d3          	fadd.d	fs3,fs3,ft1
    80004b94:	0b29f0d3          	fsub.d	ft1,fs3,fs2
    80004b98:	a2009553          	flt.d	a0,ft1,ft0
    80004b9c:	c119                	beqz	a0,80004ba2 <svd_core+0x2b96>
    80004b9e:	221090d3          	fneg.d	ft1,ft1
    80004ba2:	70c6                	ld	ra,112(sp)
    80004ba4:	75ca                	ld	a1,176(sp)
    80004ba6:	a2909553          	flt.d	a0,ft1,fs1
    80004baa:	23290a53          	fmv.d	fs4,fs2
    80004bae:	c119                	beqz	a0,80004bb4 <svd_core+0x2ba8>
    80004bb0:	36a0906f          	j	8000df1a <svd_core+0xbf0e>
    80004bb4:	4281                	li	t0,0
    80004bb6:	4889                	li	a7,2
    80004bb8:	52010813          	addi	a6,sp,1312
    80004bbc:	a839                	j	80004bda <svd_core+0x2bce>
    80004bbe:	1b307053          	fdiv.d	ft0,ft0,fs3
    80004bc2:	00329513          	slli	a0,t0,0x3
    80004bc6:	955a                	add	a0,a0,s6
    80004bc8:	00053027          	fsd	ft0,0(a0)
    80004bcc:	0285                	addi	t0,t0,1
    80004bce:	9806                	add	a6,a6,ra
    80004bd0:	652e                	ld	a0,200(sp)
    80004bd2:	98aa                	add	a7,a7,a0
    80004bd4:	650e                	ld	a0,192(sp)
    80004bd6:	26a28363          	beq	t0,a0,80004e3c <svd_core+0x2e30>
    80004bda:	652e                	ld	a0,200(sp)
    80004bdc:	00754d63          	blt	a0,t2,80004bf6 <svd_core+0x2bea>
    80004be0:	752a                	ld	a0,168(sp)
    80004be2:	00757e63          	bgeu	a0,t2,80004bfe <svd_core+0x2bf2>
    80004be6:	4301                	li	t1,0
    80004be8:	f2000053          	fmv.d.x	ft0,zero
    80004bec:	461d                	li	a2,7
    80004bee:	750a                	ld	a0,160(sp)
    80004bf0:	10051663          	bnez	a0,80004cfc <svd_core+0x2cf0>
    80004bf4:	aa4d                	j	80004da6 <svd_core+0x2d9a>
    80004bf6:	f2000053          	fmv.d.x	ft0,zero
    80004bfa:	4301                	li	t1,0
    80004bfc:	a26d                	j	80004da6 <svd_core+0x2d9a>
    80004bfe:	4301                	li	t1,0
    80004c00:	4701                	li	a4,0
    80004c02:	f2000053          	fmv.d.x	ft0,zero
    80004c06:	121c                	addi	a5,sp,288
    80004c08:	8642                	mv	a2,a6
    80004c0a:	fc063383          	ld	t2,-64(a2)
    80004c0e:	fc863e83          	ld	t4,-56(a2)
    80004c12:	fd063e03          	ld	t3,-48(a2)
    80004c16:	fd863f03          	ld	t5,-40(a2)
    80004c1a:	fe063f83          	ld	t6,-32(a2)
    80004c1e:	fe863983          	ld	s3,-24(a2)
    80004c22:	ff063903          	ld	s2,-16(a2)
    80004c26:	ff863b03          	ld	s6,-8(a2)
    80004c2a:	fc07ba03          	ld	s4,-64(a5)
    80004c2e:	fc87bc03          	ld	s8,-56(a5)
    80004c32:	fd07bb83          	ld	s7,-48(a5)
    80004c36:	fd87b403          	ld	s0,-40(a5)
    80004c3a:	fe07bc83          	ld	s9,-32(a5)
    80004c3e:	fe87b483          	ld	s1,-24(a5)
    80004c42:	ff07b583          	ld	a1,-16(a5)
    80004c46:	ff87b683          	ld	a3,-8(a5)
    80004c4a:	01d3850b          	.insn	4, 0x01d3850b
    80004c4e:	21ee050b          	.insn	4, 0x21ee050b
    80004c52:	413f850b          	.insn	4, 0x413f850b
    80004c56:	6169050b          	.insn	4, 0x6169050b
    80004c5a:	818a050b          	.insn	4, 0x818a050b
    80004c5e:	a08b850b          	.insn	4, 0xa08b850b
    80004c62:	c09c850b          	.insn	4, 0xc09c850b
    80004c66:	1cd5857b          	.insn	4, 0x1cd5857b
    80004c6a:	f20500d3          	fmv.d.x	ft1,a0
    80004c6e:	02107053          	fadd.d	ft0,ft0,ft1
    80004c72:	00063383          	ld	t2,0(a2)
    80004c76:	00863e03          	ld	t3,8(a2)
    80004c7a:	01063e83          	ld	t4,16(a2)
    80004c7e:	01863f83          	ld	t6,24(a2)
    80004c82:	02063f03          	ld	t5,32(a2)
    80004c86:	02863903          	ld	s2,40(a2)
    80004c8a:	03063983          	ld	s3,48(a2)
    80004c8e:	03863a03          	ld	s4,56(a2)
    80004c92:	0007bb03          	ld	s6,0(a5)
    80004c96:	0087bc03          	ld	s8,8(a5)
    80004c9a:	0107bb83          	ld	s7,16(a5)
    80004c9e:	0187bc83          	ld	s9,24(a5)
    80004ca2:	7394                	ld	a3,32(a5)
    80004ca4:	7780                	ld	s0,40(a5)
    80004ca6:	7b88                	ld	a0,48(a5)
    80004ca8:	7f84                	ld	s1,56(a5)
    80004caa:	09c3858b          	.insn	4, 0x09c3858b
    80004cae:	29fe858b          	.insn	4, 0x29fe858b
    80004cb2:	492f058b          	.insn	4, 0x492f058b
    80004cb6:	6949858b          	.insn	4, 0x6949858b
    80004cba:	898b058b          	.insn	4, 0x898b058b
    80004cbe:	a99b858b          	.insn	4, 0xa99b858b
    80004cc2:	6cee                	ld	s9,216(sp)
    80004cc4:	c886858b          	.insn	4, 0xc886858b
    80004cc8:	9c95057b          	.insn	4, 0x9c95057b
    80004ccc:	f20500d3          	fmv.d.x	ft1,a0
    80004cd0:	02107053          	fadd.d	ft0,ft0,ft1
    80004cd4:	0341                	addi	t1,t1,16
    80004cd6:	2709                	addiw	a4,a4,2
    80004cd8:	08060613          	addi	a2,a2,128
    80004cdc:	08078793          	addi	a5,a5,128
    80004ce0:	f39715e3          	bne	a4,s9,80004c0a <svd_core+0x2bfe>
    80004ce4:	00730613          	addi	a2,t1,7
    80004ce8:	6c4e                	ld	s8,208(sp)
    80004cea:	75ca                	ld	a1,176(sp)
    80004cec:	2e010b13          	addi	s6,sp,736
    80004cf0:	4a05                	li	s4,1
    80004cf2:	43a1                	li	t2,8
    80004cf4:	4909                	li	s2,2
    80004cf6:	498d                	li	s3,3
    80004cf8:	750a                	ld	a0,160(sp)
    80004cfa:	c555                	beqz	a0,80004da6 <svd_core+0x2d9a>
    80004cfc:	652e                	ld	a0,200(sp)
    80004cfe:	02a28533          	mul	a0,t0,a0
    80004d02:	951a                	add	a0,a0,t1
    80004d04:	050e                	slli	a0,a0,0x3
    80004d06:	4e010593          	addi	a1,sp,1248
    80004d0a:	952e                	add	a0,a0,a1
    80004d0c:	00053383          	ld	t2,0(a0)
    80004d10:	00853e03          	ld	t3,8(a0)
    80004d14:	01053e83          	ld	t4,16(a0)
    80004d18:	01853f03          	ld	t5,24(a0)
    80004d1c:	02053f83          	ld	t6,32(a0)
    80004d20:	02853983          	ld	s3,40(a0)
    80004d24:	03053903          	ld	s2,48(a0)
    80004d28:	03853a03          	ld	s4,56(a0)
    80004d2c:	00331693          	slli	a3,t1,0x3
    80004d30:	00da8733          	add	a4,s5,a3
    80004d34:	00073b03          	ld	s6,0(a4)
    80004d38:	0086e793          	ori	a5,a3,8
    80004d3c:	97d6                	add	a5,a5,s5
    80004d3e:	639c                	ld	a5,0(a5)
    80004d40:	0106e493          	ori	s1,a3,16
    80004d44:	94d6                	add	s1,s1,s5
    80004d46:	6084                	ld	s1,0(s1)
    80004d48:	0186e593          	ori	a1,a3,24
    80004d4c:	95d6                	add	a1,a1,s5
    80004d4e:	618c                	ld	a1,0(a1)
    80004d50:	0206e413          	ori	s0,a3,32
    80004d54:	9456                	add	s0,s0,s5
    80004d56:	6000                	ld	s0,0(s0)
    80004d58:	0286e513          	ori	a0,a3,40
    80004d5c:	9556                	add	a0,a0,s5
    80004d5e:	6108                	ld	a0,0(a0)
    80004d60:	0306e693          	ori	a3,a3,48
    80004d64:	96d6                	add	a3,a3,s5
    80004d66:	6294                	ld	a3,0(a3)
    80004d68:	060e                	slli	a2,a2,0x3
    80004d6a:	9656                	add	a2,a2,s5
    80004d6c:	6210                	ld	a2,0(a2)
    80004d6e:	01c3870b          	.insn	4, 0x01c3870b
    80004d72:	21ee870b          	.insn	4, 0x21ee870b
    80004d76:	413f870b          	.insn	4, 0x413f870b
    80004d7a:	498d                	li	s3,3
    80004d7c:	43a1                	li	t2,8
    80004d7e:	6149070b          	.insn	4, 0x6149070b
    80004d82:	4909                	li	s2,2
    80004d84:	4a05                	li	s4,1
    80004d86:	80fb070b          	.insn	4, 0x80fb070b
    80004d8a:	2e010b13          	addi	s6,sp,736
    80004d8e:	a0b4858b          	.insn	4, 0xa0b4858b
    80004d92:	75ca                	ld	a1,176(sp)
    80004d94:	c0a4050b          	.insn	4, 0xc0a4050b
    80004d98:	1cc6857b          	.insn	4, 0x1cc6857b
    80004d9c:	f20500d3          	fmv.d.x	ft1,a0
    80004da0:	02107053          	fadd.d	ft0,ft0,ft1
    80004da4:	0321                	addi	t1,t1,8
    80004da6:	0003069b          	sext.w	a3,t1
    80004daa:	652e                	ld	a0,200(sp)
    80004dac:	e0a6d9e3          	bge	a3,a0,80004bbe <svd_core+0x2bb2>
    80004db0:	00368613          	addi	a2,a3,3
    80004db4:	00d88533          	add	a0,a7,a3
    80004db8:	050e                	slli	a0,a0,0x3
    80004dba:	4e010693          	addi	a3,sp,1248
    80004dbe:	96aa                	add	a3,a3,a0
    80004dc0:	ffd60513          	addi	a0,a2,-3
    80004dc4:	ff06b087          	fld	ft1,-16(a3)
    80004dc8:	01a57533          	and	a0,a0,s10
    80004dcc:	050e                	slli	a0,a0,0x3
    80004dce:	9556                	add	a0,a0,s5
    80004dd0:	00053107          	fld	ft2,0(a0)
    80004dd4:	0220f043          	fmadd.d	ft0,ft1,ft2,ft0
    80004dd8:	00c58733          	add	a4,a1,a2
    80004ddc:	df2701e3          	beq	a4,s2,80004bbe <svd_core+0x2bb2>
    80004de0:	ffe60513          	addi	a0,a2,-2
    80004de4:	ff86b087          	fld	ft1,-8(a3)
    80004de8:	01a57533          	and	a0,a0,s10
    80004dec:	050e                	slli	a0,a0,0x3
    80004dee:	9556                	add	a0,a0,s5
    80004df0:	00053107          	fld	ft2,0(a0)
    80004df4:	0220f043          	fmadd.d	ft0,ft1,ft2,ft0
    80004df8:	dd4703e3          	beq	a4,s4,80004bbe <svd_core+0x2bb2>
    80004dfc:	fff60513          	addi	a0,a2,-1
    80004e00:	0006b087          	fld	ft1,0(a3)
    80004e04:	01a57533          	and	a0,a0,s10
    80004e08:	050e                	slli	a0,a0,0x3
    80004e0a:	9556                	add	a0,a0,s5
    80004e0c:	00053107          	fld	ft2,0(a0)
    80004e10:	0220f043          	fmadd.d	ft0,ft1,ft2,ft0
    80004e14:	da0705e3          	beqz	a4,80004bbe <svd_core+0x2bb2>
    80004e18:	0086b087          	fld	ft1,8(a3)
    80004e1c:	01a67533          	and	a0,a2,s10
    80004e20:	050e                	slli	a0,a0,0x3
    80004e22:	9556                	add	a0,a0,s5
    80004e24:	00053107          	fld	ft2,0(a0)
    80004e28:	0220f043          	fmadd.d	ft0,ft1,ft2,ft0
    80004e2c:	0611                	addi	a2,a2,4
    80004e2e:	00c58533          	add	a0,a1,a2
    80004e32:	02068693          	addi	a3,a3,32
    80004e36:	f93515e3          	bne	a0,s3,80004dc0 <svd_core+0x2db4>
    80004e3a:	b351                	j	80004bbe <svd_core+0x2bb2>
    80004e3c:	1188                	addi	a0,sp,224
    80004e3e:	20000613          	li	a2,512
    80004e42:	4581                	li	a1,0
    80004e44:	00009097          	auipc	ra,0x9
    80004e48:	7ee080e7          	jalr	2030(ra) # 8000e632 <memset>
    80004e4c:	43a1                	li	t2,8
    80004e4e:	f2000053          	fmv.d.x	ft0,zero
    80004e52:	22000953          	fmv.d	fs2,ft0
    80004e56:	7da6                	ld	s11,104(sp)
    80004e58:	67ca                	ld	a5,144(sp)
    80004e5a:	652e                	ld	a0,200(sp)
    80004e5c:	44a05c63          	blez	a0,800052b4 <svd_core+0x32a8>
    80004e60:	4281                	li	t0,0
    80004e62:	4889                	li	a7,2
    80004e64:	6826                	ld	a6,72(sp)
    80004e66:	a829                	j	80004e80 <svd_core+0x2e74>
    80004e68:	00329513          	slli	a0,t0,0x3
    80004e6c:	9556                	add	a0,a0,s5
    80004e6e:	00153027          	fsd	ft1,0(a0)
    80004e72:	0285                	addi	t0,t0,1
    80004e74:	986e                	add	a6,a6,s11
    80004e76:	650e                	ld	a0,192(sp)
    80004e78:	98aa                	add	a7,a7,a0
    80004e7a:	756a                	ld	a0,184(sp)
    80004e7c:	26a28463          	beq	t0,a0,800050e4 <svd_core+0x30d8>
    80004e80:	650e                	ld	a0,192(sp)
    80004e82:	00756d63          	bltu	a0,t2,80004e9c <svd_core+0x2e90>
    80004e86:	652a                	ld	a0,136(sp)
    80004e88:	00757e63          	bgeu	a0,t2,80004ea4 <svd_core+0x2e98>
    80004e8c:	4301                	li	t1,0
    80004e8e:	f20000d3          	fmv.d.x	ft1,zero
    80004e92:	461d                	li	a2,7
    80004e94:	650a                	ld	a0,128(sp)
    80004e96:	10051663          	bnez	a0,80004fa2 <svd_core+0x2f96>
    80004e9a:	aa55                	j	8000504e <svd_core+0x3042>
    80004e9c:	f20000d3          	fmv.d.x	ft1,zero
    80004ea0:	4301                	li	t1,0
    80004ea2:	a275                	j	8000504e <svd_core+0x3042>
    80004ea4:	4301                	li	t1,0
    80004ea6:	4701                	li	a4,0
    80004ea8:	f20000d3          	fmv.d.x	ft1,zero
    80004eac:	161c                	addi	a5,sp,800
    80004eae:	8642                	mv	a2,a6
    80004eb0:	fc063383          	ld	t2,-64(a2)
    80004eb4:	fc863e83          	ld	t4,-56(a2)
    80004eb8:	fd063e03          	ld	t3,-48(a2)
    80004ebc:	fd863f03          	ld	t5,-40(a2)
    80004ec0:	fe063f83          	ld	t6,-32(a2)
    80004ec4:	fe863983          	ld	s3,-24(a2)
    80004ec8:	ff063903          	ld	s2,-16(a2)
    80004ecc:	ff863b03          	ld	s6,-8(a2)
    80004ed0:	fc07ba03          	ld	s4,-64(a5)
    80004ed4:	fc87bc03          	ld	s8,-56(a5)
    80004ed8:	fd07bb83          	ld	s7,-48(a5)
    80004edc:	fd87b403          	ld	s0,-40(a5)
    80004ee0:	fe07bc83          	ld	s9,-32(a5)
    80004ee4:	fe87b483          	ld	s1,-24(a5)
    80004ee8:	ff07b583          	ld	a1,-16(a5)
    80004eec:	ff87b683          	ld	a3,-8(a5)
    80004ef0:	01d3850b          	.insn	4, 0x01d3850b
    80004ef4:	21ee050b          	.insn	4, 0x21ee050b
    80004ef8:	413f850b          	.insn	4, 0x413f850b
    80004efc:	6169050b          	.insn	4, 0x6169050b
    80004f00:	818a050b          	.insn	4, 0x818a050b
    80004f04:	a08b850b          	.insn	4, 0xa08b850b
    80004f08:	c09c850b          	.insn	4, 0xc09c850b
    80004f0c:	1cd5857b          	.insn	4, 0x1cd5857b
    80004f10:	f2050153          	fmv.d.x	ft2,a0
    80004f14:	0220f0d3          	fadd.d	ft1,ft1,ft2
    80004f18:	00063383          	ld	t2,0(a2)
    80004f1c:	00863e03          	ld	t3,8(a2)
    80004f20:	01063e83          	ld	t4,16(a2)
    80004f24:	01863f83          	ld	t6,24(a2)
    80004f28:	02063f03          	ld	t5,32(a2)
    80004f2c:	02863903          	ld	s2,40(a2)
    80004f30:	03063983          	ld	s3,48(a2)
    80004f34:	03863a03          	ld	s4,56(a2)
    80004f38:	0007bb03          	ld	s6,0(a5)
    80004f3c:	0087bc03          	ld	s8,8(a5)
    80004f40:	0107bb83          	ld	s7,16(a5)
    80004f44:	0187bc83          	ld	s9,24(a5)
    80004f48:	7394                	ld	a3,32(a5)
    80004f4a:	7780                	ld	s0,40(a5)
    80004f4c:	7b88                	ld	a0,48(a5)
    80004f4e:	7f84                	ld	s1,56(a5)
    80004f50:	09c3858b          	.insn	4, 0x09c3858b
    80004f54:	29fe858b          	.insn	4, 0x29fe858b
    80004f58:	492f058b          	.insn	4, 0x492f058b
    80004f5c:	6949858b          	.insn	4, 0x6949858b
    80004f60:	898b058b          	.insn	4, 0x898b058b
    80004f64:	6c4e                	ld	s8,208(sp)
    80004f66:	a99b858b          	.insn	4, 0xa99b858b
    80004f6a:	c886858b          	.insn	4, 0xc886858b
    80004f6e:	9c95057b          	.insn	4, 0x9c95057b
    80004f72:	f2050153          	fmv.d.x	ft2,a0
    80004f76:	0220f0d3          	fadd.d	ft1,ft1,ft2
    80004f7a:	0341                	addi	t1,t1,16
    80004f7c:	2709                	addiw	a4,a4,2
    80004f7e:	08060613          	addi	a2,a2,128
    80004f82:	08078793          	addi	a5,a5,128
    80004f86:	f38715e3          	bne	a4,s8,80004eb0 <svd_core+0x2ea4>
    80004f8a:	00730613          	addi	a2,t1,7
    80004f8e:	6cee                	ld	s9,216(sp)
    80004f90:	67ca                	ld	a5,144(sp)
    80004f92:	2e010b13          	addi	s6,sp,736
    80004f96:	4a05                	li	s4,1
    80004f98:	43a1                	li	t2,8
    80004f9a:	4909                	li	s2,2
    80004f9c:	498d                	li	s3,3
    80004f9e:	650a                	ld	a0,128(sp)
    80004fa0:	c55d                	beqz	a0,8000504e <svd_core+0x3042>
    80004fa2:	650e                	ld	a0,192(sp)
    80004fa4:	02a28533          	mul	a0,t0,a0
    80004fa8:	951a                	add	a0,a0,t1
    80004faa:	050e                	slli	a0,a0,0x3
    80004fac:	65ea                	ld	a1,152(sp)
    80004fae:	952e                	add	a0,a0,a1
    80004fb0:	00053383          	ld	t2,0(a0)
    80004fb4:	00853e03          	ld	t3,8(a0)
    80004fb8:	01053e83          	ld	t4,16(a0)
    80004fbc:	01853f03          	ld	t5,24(a0)
    80004fc0:	02053f83          	ld	t6,32(a0)
    80004fc4:	02853983          	ld	s3,40(a0)
    80004fc8:	03053903          	ld	s2,48(a0)
    80004fcc:	03853a03          	ld	s4,56(a0)
    80004fd0:	00331693          	slli	a3,t1,0x3
    80004fd4:	00db0733          	add	a4,s6,a3
    80004fd8:	2e010093          	addi	ra,sp,736
    80004fdc:	00073b03          	ld	s6,0(a4)
    80004fe0:	0086e793          	ori	a5,a3,8
    80004fe4:	9786                	add	a5,a5,ra
    80004fe6:	639c                	ld	a5,0(a5)
    80004fe8:	0106e493          	ori	s1,a3,16
    80004fec:	9486                	add	s1,s1,ra
    80004fee:	6084                	ld	s1,0(s1)
    80004ff0:	0186e593          	ori	a1,a3,24
    80004ff4:	9586                	add	a1,a1,ra
    80004ff6:	618c                	ld	a1,0(a1)
    80004ff8:	0206e413          	ori	s0,a3,32
    80004ffc:	9406                	add	s0,s0,ra
    80004ffe:	6000                	ld	s0,0(s0)
    80005000:	0286e513          	ori	a0,a3,40
    80005004:	9506                	add	a0,a0,ra
    80005006:	6108                	ld	a0,0(a0)
    80005008:	0306e693          	ori	a3,a3,48
    8000500c:	9686                	add	a3,a3,ra
    8000500e:	6294                	ld	a3,0(a3)
    80005010:	060e                	slli	a2,a2,0x3
    80005012:	9606                	add	a2,a2,ra
    80005014:	6210                	ld	a2,0(a2)
    80005016:	01c3870b          	.insn	4, 0x01c3870b
    8000501a:	21ee870b          	.insn	4, 0x21ee870b
    8000501e:	413f870b          	.insn	4, 0x413f870b
    80005022:	498d                	li	s3,3
    80005024:	43a1                	li	t2,8
    80005026:	6149070b          	.insn	4, 0x6149070b
    8000502a:	4909                	li	s2,2
    8000502c:	4a05                	li	s4,1
    8000502e:	80fb070b          	.insn	4, 0x80fb070b
    80005032:	2e010b13          	addi	s6,sp,736
    80005036:	67ca                	ld	a5,144(sp)
    80005038:	a0b4858b          	.insn	4, 0xa0b4858b
    8000503c:	c0a4050b          	.insn	4, 0xc0a4050b
    80005040:	1cc6857b          	.insn	4, 0x1cc6857b
    80005044:	f2050153          	fmv.d.x	ft2,a0
    80005048:	0220f0d3          	fadd.d	ft1,ft1,ft2
    8000504c:	0321                	addi	t1,t1,8
    8000504e:	0003069b          	sext.w	a3,t1
    80005052:	650e                	ld	a0,192(sp)
    80005054:	e0a6dae3          	bge	a3,a0,80004e68 <svd_core+0x2e5c>
    80005058:	00368613          	addi	a2,a3,3
    8000505c:	00d88533          	add	a0,a7,a3
    80005060:	050e                	slli	a0,a0,0x3
    80005062:	65ea                	ld	a1,152(sp)
    80005064:	00a586b3          	add	a3,a1,a0
    80005068:	ffd60513          	addi	a0,a2,-3
    8000506c:	ff06b107          	fld	ft2,-16(a3)
    80005070:	01a57533          	and	a0,a0,s10
    80005074:	050e                	slli	a0,a0,0x3
    80005076:	955a                	add	a0,a0,s6
    80005078:	00053187          	fld	ft3,0(a0)
    8000507c:	0a3170c3          	fmadd.d	ft1,ft2,ft3,ft1
    80005080:	00c78733          	add	a4,a5,a2
    80005084:	df2702e3          	beq	a4,s2,80004e68 <svd_core+0x2e5c>
    80005088:	ffe60513          	addi	a0,a2,-2
    8000508c:	ff86b107          	fld	ft2,-8(a3)
    80005090:	01a57533          	and	a0,a0,s10
    80005094:	050e                	slli	a0,a0,0x3
    80005096:	955a                	add	a0,a0,s6
    80005098:	00053187          	fld	ft3,0(a0)
    8000509c:	0a3170c3          	fmadd.d	ft1,ft2,ft3,ft1
    800050a0:	dd4704e3          	beq	a4,s4,80004e68 <svd_core+0x2e5c>
    800050a4:	fff60513          	addi	a0,a2,-1
    800050a8:	0006b107          	fld	ft2,0(a3)
    800050ac:	01a57533          	and	a0,a0,s10
    800050b0:	050e                	slli	a0,a0,0x3
    800050b2:	955a                	add	a0,a0,s6
    800050b4:	00053187          	fld	ft3,0(a0)
    800050b8:	0a3170c3          	fmadd.d	ft1,ft2,ft3,ft1
    800050bc:	da0706e3          	beqz	a4,80004e68 <svd_core+0x2e5c>
    800050c0:	0086b107          	fld	ft2,8(a3)
    800050c4:	01a67533          	and	a0,a2,s10
    800050c8:	050e                	slli	a0,a0,0x3
    800050ca:	955a                	add	a0,a0,s6
    800050cc:	00053187          	fld	ft3,0(a0)
    800050d0:	0a3170c3          	fmadd.d	ft1,ft2,ft3,ft1
    800050d4:	0611                	addi	a2,a2,4
    800050d6:	00c78533          	add	a0,a5,a2
    800050da:	02068693          	addi	a3,a3,32
    800050de:	f93515e3          	bne	a0,s3,80005068 <svd_core+0x305c>
    800050e2:	b359                	j	80004e68 <svd_core+0x2e5c>
    800050e4:	652e                	ld	a0,200(sp)
    800050e6:	04a05763          	blez	a0,80005134 <svd_core+0x3128>
    800050ea:	7562                	ld	a0,56(sp)
    800050ec:	04757763          	bgeu	a0,t2,8000513a <svd_core+0x312e>
    800050f0:	f2000953          	fmv.d.x	fs2,zero
    800050f4:	4501                	li	a0,0
    800050f6:	75c2                	ld	a1,48(sp)
    800050f8:	1a058e63          	beqz	a1,800052b4 <svd_core+0x32a8>
    800050fc:	65ae                	ld	a1,200(sp)
    800050fe:	9d89                	subw	a1,a1,a0
    80005100:	4621                	li	a2,8
    80005102:	87ae                	mv	a5,a1
    80005104:	00c5c363          	blt	a1,a2,8000510a <svd_core+0x30fe>
    80005108:	47a1                	li	a5,8
    8000510a:	050e                	slli	a0,a0,0x3
    8000510c:	16b05d63          	blez	a1,80005286 <svd_core+0x327a>
    80005110:	00856593          	ori	a1,a0,8
    80005114:	95d6                	add	a1,a1,s5
    80005116:	0005b803          	ld	a6,0(a1)
    8000511a:	1727c963          	blt	a5,s2,8000528c <svd_core+0x3280>
    8000511e:	01056593          	ori	a1,a0,16
    80005122:	95d6                	add	a1,a1,s5
    80005124:	6190                	ld	a2,0(a1)
    80005126:	01278463          	beq	a5,s2,8000512e <svd_core+0x3122>
    8000512a:	72d0506f          	j	8000b056 <svd_core+0x904a>
    8000512e:	4481                	li	s1,0
    80005130:	4701                	li	a4,0
    80005132:	a285                	j	80005292 <svd_core+0x3286>
    80005134:	f2000953          	fmv.d.x	fs2,zero
    80005138:	aab5                	j	800052b4 <svd_core+0x32a8>
    8000513a:	4501                	li	a0,0
    8000513c:	4f01                	li	t5,0
    8000513e:	f2000953          	fmv.d.x	fs2,zero
    80005142:	1210                	addi	a2,sp,288
    80005144:	65ae                	ld	a1,200(sp)
    80005146:	40a5873b          	subw	a4,a1,a0
    8000514a:	47a1                	li	a5,8
    8000514c:	86ba                	mv	a3,a4
    8000514e:	00f74363          	blt	a4,a5,80005154 <svd_core+0x3148>
    80005152:	46a1                	li	a3,8
    80005154:	00e05e63          	blez	a4,80005170 <svd_core+0x3164>
    80005158:	fc863303          	ld	t1,-56(a2)
    8000515c:	0126cd63          	blt	a3,s2,80005176 <svd_core+0x316a>
    80005160:	fd063403          	ld	s0,-48(a2)
    80005164:	0b269563          	bne	a3,s2,8000520e <svd_core+0x3202>
    80005168:	84a2                	mv	s1,s0
    8000516a:	4401                	li	s0,0
    8000516c:	f082                	sd	zero,96(sp)
    8000516e:	a039                	j	8000517c <svd_core+0x3170>
    80005170:	4301                	li	t1,0
    80005172:	ff26d7e3          	bge	a3,s2,80005160 <svd_core+0x3154>
    80005176:	4401                	li	s0,0
    80005178:	f082                	sd	zero,96(sp)
    8000517a:	4481                	li	s1,0
    8000517c:	4381                	li	t2,0
    8000517e:	ec82                	sd	zero,88(sp)
    80005180:	e882                	sd	zero,80(sp)
    80005182:	65ae                	ld	a1,200(sp)
    80005184:	40a586bb          	subw	a3,a1,a0
    80005188:	36e1                	addiw	a3,a3,-8
    8000518a:	4721                	li	a4,8
    8000518c:	88b6                	mv	a7,a3
    8000518e:	00e6c363          	blt	a3,a4,80005194 <svd_core+0x3188>
    80005192:	48a1                	li	a7,8
    80005194:	00d05563          	blez	a3,8000519e <svd_core+0x3192>
    80005198:	00863f83          	ld	t6,8(a2)
    8000519c:	a011                	j	800051a0 <svd_core+0x3194>
    8000519e:	4f81                	li	t6,0
    800051a0:	fc063b83          	ld	s7,-64(a2)
    800051a4:	00063083          	ld	ra,0(a2)
    800051a8:	0128c963          	blt	a7,s2,800051ba <svd_core+0x31ae>
    800051ac:	01063283          	ld	t0,16(a2)
    800051b0:	07289c63          	bne	a7,s2,80005228 <svd_core+0x321c>
    800051b4:	4e81                	li	t4,0
    800051b6:	4e01                	li	t3,0
    800051b8:	a021                	j	800051c0 <svd_core+0x31b4>
    800051ba:	4e81                	li	t4,0
    800051bc:	4e01                	li	t3,0
    800051be:	4281                	li	t0,0
    800051c0:	4d81                	li	s11,0
    800051c2:	4801                	li	a6,0
    800051c4:	4781                	li	a5,0
    800051c6:	7686                	ld	a3,96(sp)
    800051c8:	6766                	ld	a4,88(sp)
    800051ca:	65c6                	ld	a1,80(sp)
    800051cc:	64b4040b          	.insn	4, 0x64b4040b
    800051d0:	44e6840b          	.insn	4, 0x44e6840b
    800051d4:	2474840b          	.insn	4, 0x2474840b
    800051d8:	406b847b          	.insn	4, 0x406b847b
    800051dc:	f20400d3          	fmv.d.x	ft1,s0
    800051e0:	021970d3          	fadd.d	ft1,fs2,ft1
    800051e4:	6cfe870b          	.insn	4, 0x6cfe870b
    800051e8:	4d0e068b          	.insn	4, 0x4d0e068b
    800051ec:	2db2868b          	.insn	4, 0x2db2868b
    800051f0:	c1f086fb          	.insn	4, 0xc1f086fb
    800051f4:	f2068153          	fmv.d.x	ft2,a3
    800051f8:	0220f953          	fadd.d	fs2,ft1,ft2
    800051fc:	0541                	addi	a0,a0,16
    800051fe:	2f09                	addiw	t5,t5,2
    80005200:	08060613          	addi	a2,a2,128
    80005204:	76e6                	ld	a3,120(sp)
    80005206:	43a1                	li	t2,8
    80005208:	f2df1ee3          	bne	t5,a3,80005144 <svd_core+0x3138>
    8000520c:	b5ed                	j	800050f6 <svd_core+0x30ea>
    8000520e:	fd863383          	ld	t2,-40(a2)
    80005212:	84a2                	mv	s1,s0
    80005214:	4715                	li	a4,5
    80005216:	02e6e463          	bltu	a3,a4,8000523e <svd_core+0x3232>
    8000521a:	fe063403          	ld	s0,-32(a2)
    8000521e:	f0a2                	sd	s0,96(sp)
    80005220:	02e69563          	bne	a3,a4,8000524a <svd_core+0x323e>
    80005224:	4401                	li	s0,0
    80005226:	bfa1                	j	8000517e <svd_core+0x3172>
    80005228:	01863d83          	ld	s11,24(a2)
    8000522c:	4715                	li	a4,5
    8000522e:	00e8eb63          	bltu	a7,a4,80005244 <svd_core+0x3238>
    80005232:	02063e03          	ld	t3,32(a2)
    80005236:	02e89863          	bne	a7,a4,80005266 <svd_core+0x325a>
    8000523a:	4e81                	li	t4,0
    8000523c:	b759                	j	800051c2 <svd_core+0x31b6>
    8000523e:	4401                	li	s0,0
    80005240:	f082                	sd	zero,96(sp)
    80005242:	bf35                	j	8000517e <svd_core+0x3172>
    80005244:	4e81                	li	t4,0
    80005246:	4e01                	li	t3,0
    80005248:	bfad                	j	800051c2 <svd_core+0x31b6>
    8000524a:	fe863783          	ld	a5,-24(a2)
    8000524e:	471d                	li	a4,7
    80005250:	ecbe                	sd	a5,88(sp)
    80005252:	02e6e663          	bltu	a3,a4,8000527e <svd_core+0x3272>
    80005256:	ff063403          	ld	s0,-16(a2)
    8000525a:	f2e683e3          	beq	a3,a4,80005180 <svd_core+0x3174>
    8000525e:	ff863583          	ld	a1,-8(a2)
    80005262:	e8ae                	sd	a1,80(sp)
    80005264:	bf39                	j	80005182 <svd_core+0x3176>
    80005266:	02863803          	ld	a6,40(a2)
    8000526a:	471d                	li	a4,7
    8000526c:	00e8eb63          	bltu	a7,a4,80005282 <svd_core+0x3276>
    80005270:	479d                	li	a5,7
    80005272:	03063e83          	ld	t4,48(a2)
    80005276:	f4f887e3          	beq	a7,a5,800051c4 <svd_core+0x31b8>
    8000527a:	7e1c                	ld	a5,56(a2)
    8000527c:	b7a9                	j	800051c6 <svd_core+0x31ba>
    8000527e:	4401                	li	s0,0
    80005280:	b701                	j	80005180 <svd_core+0x3174>
    80005282:	4e81                	li	t4,0
    80005284:	b781                	j	800051c4 <svd_core+0x31b8>
    80005286:	4801                	li	a6,0
    80005288:	e927dbe3          	bge	a5,s2,8000511e <svd_core+0x3112>
    8000528c:	4481                	li	s1,0
    8000528e:	4701                	li	a4,0
    80005290:	4601                	li	a2,0
    80005292:	4681                	li	a3,0
    80005294:	4581                	li	a1,0
    80005296:	4781                	li	a5,0
    80005298:	9556                	add	a0,a0,s5
    8000529a:	6108                	ld	a0,0(a0)
    8000529c:	64f4878b          	.insn	4, 0x64f4878b
    800052a0:	44b7058b          	.insn	4, 0x44b7058b
    800052a4:	24d6058b          	.insn	4, 0x24d6058b
    800052a8:	4105057b          	.insn	4, 0x4105057b
    800052ac:	f20500d3          	fmv.d.x	ft1,a0
    800052b0:	02197953          	fadd.d	fs2,fs2,ft1
    800052b4:	0b3970d3          	fsub.d	ft1,fs2,fs3
    800052b8:	a2009553          	flt.d	a0,ft1,ft0
    800052bc:	c119                	beqz	a0,800052c2 <svd_core+0x32b6>
    800052be:	221090d3          	fneg.d	ft1,ft1
    800052c2:	70c6                	ld	ra,112(sp)
    800052c4:	75ca                	ld	a1,176(sp)
    800052c6:	a2909553          	flt.d	a0,ft1,fs1
    800052ca:	23398a53          	fmv.d	fs4,fs3
    800052ce:	c119                	beqz	a0,800052d4 <svd_core+0x32c8>
    800052d0:	44b0806f          	j	8000df1a <svd_core+0xbf0e>
    800052d4:	4281                	li	t0,0
    800052d6:	4889                	li	a7,2
    800052d8:	52010813          	addi	a6,sp,1312
    800052dc:	a839                	j	800052fa <svd_core+0x32ee>
    800052de:	1b207053          	fdiv.d	ft0,ft0,fs2
    800052e2:	00329513          	slli	a0,t0,0x3
    800052e6:	955a                	add	a0,a0,s6
    800052e8:	00053027          	fsd	ft0,0(a0)
    800052ec:	0285                	addi	t0,t0,1
    800052ee:	9806                	add	a6,a6,ra
    800052f0:	652e                	ld	a0,200(sp)
    800052f2:	98aa                	add	a7,a7,a0
    800052f4:	650e                	ld	a0,192(sp)
    800052f6:	26a28363          	beq	t0,a0,8000555c <svd_core+0x3550>
    800052fa:	652e                	ld	a0,200(sp)
    800052fc:	00754d63          	blt	a0,t2,80005316 <svd_core+0x330a>
    80005300:	752a                	ld	a0,168(sp)
    80005302:	00757e63          	bgeu	a0,t2,8000531e <svd_core+0x3312>
    80005306:	4301                	li	t1,0
    80005308:	f2000053          	fmv.d.x	ft0,zero
    8000530c:	461d                	li	a2,7
    8000530e:	750a                	ld	a0,160(sp)
    80005310:	10051663          	bnez	a0,8000541c <svd_core+0x3410>
    80005314:	aa4d                	j	800054c6 <svd_core+0x34ba>
    80005316:	f2000053          	fmv.d.x	ft0,zero
    8000531a:	4301                	li	t1,0
    8000531c:	a26d                	j	800054c6 <svd_core+0x34ba>
    8000531e:	4301                	li	t1,0
    80005320:	4701                	li	a4,0
    80005322:	f2000053          	fmv.d.x	ft0,zero
    80005326:	121c                	addi	a5,sp,288
    80005328:	8642                	mv	a2,a6
    8000532a:	fc063383          	ld	t2,-64(a2)
    8000532e:	fc863e83          	ld	t4,-56(a2)
    80005332:	fd063e03          	ld	t3,-48(a2)
    80005336:	fd863f03          	ld	t5,-40(a2)
    8000533a:	fe063f83          	ld	t6,-32(a2)
    8000533e:	fe863983          	ld	s3,-24(a2)
    80005342:	ff063903          	ld	s2,-16(a2)
    80005346:	ff863b03          	ld	s6,-8(a2)
    8000534a:	fc07ba03          	ld	s4,-64(a5)
    8000534e:	fc87bc03          	ld	s8,-56(a5)
    80005352:	fd07bb83          	ld	s7,-48(a5)
    80005356:	fd87b403          	ld	s0,-40(a5)
    8000535a:	fe07bc83          	ld	s9,-32(a5)
    8000535e:	fe87b483          	ld	s1,-24(a5)
    80005362:	ff07b583          	ld	a1,-16(a5)
    80005366:	ff87b683          	ld	a3,-8(a5)
    8000536a:	01d3850b          	.insn	4, 0x01d3850b
    8000536e:	21ee050b          	.insn	4, 0x21ee050b
    80005372:	413f850b          	.insn	4, 0x413f850b
    80005376:	6169050b          	.insn	4, 0x6169050b
    8000537a:	818a050b          	.insn	4, 0x818a050b
    8000537e:	a08b850b          	.insn	4, 0xa08b850b
    80005382:	c09c850b          	.insn	4, 0xc09c850b
    80005386:	1cd5857b          	.insn	4, 0x1cd5857b
    8000538a:	f20500d3          	fmv.d.x	ft1,a0
    8000538e:	02107053          	fadd.d	ft0,ft0,ft1
    80005392:	00063383          	ld	t2,0(a2)
    80005396:	00863e03          	ld	t3,8(a2)
    8000539a:	01063e83          	ld	t4,16(a2)
    8000539e:	01863f83          	ld	t6,24(a2)
    800053a2:	02063f03          	ld	t5,32(a2)
    800053a6:	02863903          	ld	s2,40(a2)
    800053aa:	03063983          	ld	s3,48(a2)
    800053ae:	03863a03          	ld	s4,56(a2)
    800053b2:	0007bb03          	ld	s6,0(a5)
    800053b6:	0087bc03          	ld	s8,8(a5)
    800053ba:	0107bb83          	ld	s7,16(a5)
    800053be:	0187bc83          	ld	s9,24(a5)
    800053c2:	7394                	ld	a3,32(a5)
    800053c4:	7780                	ld	s0,40(a5)
    800053c6:	7b88                	ld	a0,48(a5)
    800053c8:	7f84                	ld	s1,56(a5)
    800053ca:	09c3858b          	.insn	4, 0x09c3858b
    800053ce:	29fe858b          	.insn	4, 0x29fe858b
    800053d2:	492f058b          	.insn	4, 0x492f058b
    800053d6:	6949858b          	.insn	4, 0x6949858b
    800053da:	898b058b          	.insn	4, 0x898b058b
    800053de:	a99b858b          	.insn	4, 0xa99b858b
    800053e2:	6cee                	ld	s9,216(sp)
    800053e4:	c886858b          	.insn	4, 0xc886858b
    800053e8:	9c95057b          	.insn	4, 0x9c95057b
    800053ec:	f20500d3          	fmv.d.x	ft1,a0
    800053f0:	02107053          	fadd.d	ft0,ft0,ft1
    800053f4:	0341                	addi	t1,t1,16
    800053f6:	2709                	addiw	a4,a4,2
    800053f8:	08060613          	addi	a2,a2,128
    800053fc:	08078793          	addi	a5,a5,128
    80005400:	f39715e3          	bne	a4,s9,8000532a <svd_core+0x331e>
    80005404:	00730613          	addi	a2,t1,7
    80005408:	6c4e                	ld	s8,208(sp)
    8000540a:	75ca                	ld	a1,176(sp)
    8000540c:	2e010b13          	addi	s6,sp,736
    80005410:	4a05                	li	s4,1
    80005412:	43a1                	li	t2,8
    80005414:	4909                	li	s2,2
    80005416:	498d                	li	s3,3
    80005418:	750a                	ld	a0,160(sp)
    8000541a:	c555                	beqz	a0,800054c6 <svd_core+0x34ba>
    8000541c:	652e                	ld	a0,200(sp)
    8000541e:	02a28533          	mul	a0,t0,a0
    80005422:	951a                	add	a0,a0,t1
    80005424:	050e                	slli	a0,a0,0x3
    80005426:	4e010593          	addi	a1,sp,1248
    8000542a:	952e                	add	a0,a0,a1
    8000542c:	00053383          	ld	t2,0(a0)
    80005430:	00853e03          	ld	t3,8(a0)
    80005434:	01053e83          	ld	t4,16(a0)
    80005438:	01853f03          	ld	t5,24(a0)
    8000543c:	02053f83          	ld	t6,32(a0)
    80005440:	02853983          	ld	s3,40(a0)
    80005444:	03053903          	ld	s2,48(a0)
    80005448:	03853a03          	ld	s4,56(a0)
    8000544c:	00331693          	slli	a3,t1,0x3
    80005450:	00da8733          	add	a4,s5,a3
    80005454:	00073b03          	ld	s6,0(a4)
    80005458:	0086e793          	ori	a5,a3,8
    8000545c:	97d6                	add	a5,a5,s5
    8000545e:	639c                	ld	a5,0(a5)
    80005460:	0106e493          	ori	s1,a3,16
    80005464:	94d6                	add	s1,s1,s5
    80005466:	6084                	ld	s1,0(s1)
    80005468:	0186e593          	ori	a1,a3,24
    8000546c:	95d6                	add	a1,a1,s5
    8000546e:	618c                	ld	a1,0(a1)
    80005470:	0206e413          	ori	s0,a3,32
    80005474:	9456                	add	s0,s0,s5
    80005476:	6000                	ld	s0,0(s0)
    80005478:	0286e513          	ori	a0,a3,40
    8000547c:	9556                	add	a0,a0,s5
    8000547e:	6108                	ld	a0,0(a0)
    80005480:	0306e693          	ori	a3,a3,48
    80005484:	96d6                	add	a3,a3,s5
    80005486:	6294                	ld	a3,0(a3)
    80005488:	060e                	slli	a2,a2,0x3
    8000548a:	9656                	add	a2,a2,s5
    8000548c:	6210                	ld	a2,0(a2)
    8000548e:	01c3870b          	.insn	4, 0x01c3870b
    80005492:	21ee870b          	.insn	4, 0x21ee870b
    80005496:	413f870b          	.insn	4, 0x413f870b
    8000549a:	498d                	li	s3,3
    8000549c:	43a1                	li	t2,8
    8000549e:	6149070b          	.insn	4, 0x6149070b
    800054a2:	4909                	li	s2,2
    800054a4:	4a05                	li	s4,1
    800054a6:	80fb070b          	.insn	4, 0x80fb070b
    800054aa:	2e010b13          	addi	s6,sp,736
    800054ae:	a0b4858b          	.insn	4, 0xa0b4858b
    800054b2:	75ca                	ld	a1,176(sp)
    800054b4:	c0a4050b          	.insn	4, 0xc0a4050b
    800054b8:	1cc6857b          	.insn	4, 0x1cc6857b
    800054bc:	f20500d3          	fmv.d.x	ft1,a0
    800054c0:	02107053          	fadd.d	ft0,ft0,ft1
    800054c4:	0321                	addi	t1,t1,8
    800054c6:	0003069b          	sext.w	a3,t1
    800054ca:	652e                	ld	a0,200(sp)
    800054cc:	e0a6d9e3          	bge	a3,a0,800052de <svd_core+0x32d2>
    800054d0:	00368613          	addi	a2,a3,3
    800054d4:	00d88533          	add	a0,a7,a3
    800054d8:	050e                	slli	a0,a0,0x3
    800054da:	4e010693          	addi	a3,sp,1248
    800054de:	96aa                	add	a3,a3,a0
    800054e0:	ffd60513          	addi	a0,a2,-3
    800054e4:	ff06b087          	fld	ft1,-16(a3)
    800054e8:	01a57533          	and	a0,a0,s10
    800054ec:	050e                	slli	a0,a0,0x3
    800054ee:	9556                	add	a0,a0,s5
    800054f0:	00053107          	fld	ft2,0(a0)
    800054f4:	0220f043          	fmadd.d	ft0,ft1,ft2,ft0
    800054f8:	00c58733          	add	a4,a1,a2
    800054fc:	df2701e3          	beq	a4,s2,800052de <svd_core+0x32d2>
    80005500:	ffe60513          	addi	a0,a2,-2
    80005504:	ff86b087          	fld	ft1,-8(a3)
    80005508:	01a57533          	and	a0,a0,s10
    8000550c:	050e                	slli	a0,a0,0x3
    8000550e:	9556                	add	a0,a0,s5
    80005510:	00053107          	fld	ft2,0(a0)
    80005514:	0220f043          	fmadd.d	ft0,ft1,ft2,ft0
    80005518:	dd4703e3          	beq	a4,s4,800052de <svd_core+0x32d2>
    8000551c:	fff60513          	addi	a0,a2,-1
    80005520:	0006b087          	fld	ft1,0(a3)
    80005524:	01a57533          	and	a0,a0,s10
    80005528:	050e                	slli	a0,a0,0x3
    8000552a:	9556                	add	a0,a0,s5
    8000552c:	00053107          	fld	ft2,0(a0)
    80005530:	0220f043          	fmadd.d	ft0,ft1,ft2,ft0
    80005534:	da0705e3          	beqz	a4,800052de <svd_core+0x32d2>
    80005538:	0086b087          	fld	ft1,8(a3)
    8000553c:	01a67533          	and	a0,a2,s10
    80005540:	050e                	slli	a0,a0,0x3
    80005542:	9556                	add	a0,a0,s5
    80005544:	00053107          	fld	ft2,0(a0)
    80005548:	0220f043          	fmadd.d	ft0,ft1,ft2,ft0
    8000554c:	0611                	addi	a2,a2,4
    8000554e:	00c58533          	add	a0,a1,a2
    80005552:	02068693          	addi	a3,a3,32
    80005556:	f93515e3          	bne	a0,s3,800054e0 <svd_core+0x34d4>
    8000555a:	b351                	j	800052de <svd_core+0x32d2>
    8000555c:	1188                	addi	a0,sp,224
    8000555e:	20000613          	li	a2,512
    80005562:	4581                	li	a1,0
    80005564:	00009097          	auipc	ra,0x9
    80005568:	0ce080e7          	jalr	206(ra) # 8000e632 <memset>
    8000556c:	43a1                	li	t2,8
    8000556e:	f2000053          	fmv.d.x	ft0,zero
    80005572:	220009d3          	fmv.d	fs3,ft0
    80005576:	7da6                	ld	s11,104(sp)
    80005578:	67ca                	ld	a5,144(sp)
    8000557a:	652e                	ld	a0,200(sp)
    8000557c:	44a05a63          	blez	a0,800059d0 <svd_core+0x39c4>
    80005580:	4281                	li	t0,0
    80005582:	4889                	li	a7,2
    80005584:	6826                	ld	a6,72(sp)
    80005586:	a829                	j	800055a0 <svd_core+0x3594>
    80005588:	00329513          	slli	a0,t0,0x3
    8000558c:	9556                	add	a0,a0,s5
    8000558e:	00153027          	fsd	ft1,0(a0)
    80005592:	0285                	addi	t0,t0,1
    80005594:	986e                	add	a6,a6,s11
    80005596:	650e                	ld	a0,192(sp)
    80005598:	98aa                	add	a7,a7,a0
    8000559a:	756a                	ld	a0,184(sp)
    8000559c:	26a28463          	beq	t0,a0,80005804 <svd_core+0x37f8>
    800055a0:	650e                	ld	a0,192(sp)
    800055a2:	00756d63          	bltu	a0,t2,800055bc <svd_core+0x35b0>
    800055a6:	652a                	ld	a0,136(sp)
    800055a8:	00757e63          	bgeu	a0,t2,800055c4 <svd_core+0x35b8>
    800055ac:	4301                	li	t1,0
    800055ae:	f20000d3          	fmv.d.x	ft1,zero
    800055b2:	461d                	li	a2,7
    800055b4:	650a                	ld	a0,128(sp)
    800055b6:	10051663          	bnez	a0,800056c2 <svd_core+0x36b6>
    800055ba:	aa55                	j	8000576e <svd_core+0x3762>
    800055bc:	f20000d3          	fmv.d.x	ft1,zero
    800055c0:	4301                	li	t1,0
    800055c2:	a275                	j	8000576e <svd_core+0x3762>
    800055c4:	4301                	li	t1,0
    800055c6:	4701                	li	a4,0
    800055c8:	f20000d3          	fmv.d.x	ft1,zero
    800055cc:	161c                	addi	a5,sp,800
    800055ce:	8642                	mv	a2,a6
    800055d0:	fc063383          	ld	t2,-64(a2)
    800055d4:	fc863e83          	ld	t4,-56(a2)
    800055d8:	fd063e03          	ld	t3,-48(a2)
    800055dc:	fd863f03          	ld	t5,-40(a2)
    800055e0:	fe063f83          	ld	t6,-32(a2)
    800055e4:	fe863983          	ld	s3,-24(a2)
    800055e8:	ff063903          	ld	s2,-16(a2)
    800055ec:	ff863b03          	ld	s6,-8(a2)
    800055f0:	fc07ba03          	ld	s4,-64(a5)
    800055f4:	fc87bc03          	ld	s8,-56(a5)
    800055f8:	fd07bb83          	ld	s7,-48(a5)
    800055fc:	fd87b403          	ld	s0,-40(a5)
    80005600:	fe07bc83          	ld	s9,-32(a5)
    80005604:	fe87b483          	ld	s1,-24(a5)
    80005608:	ff07b583          	ld	a1,-16(a5)
    8000560c:	ff87b683          	ld	a3,-8(a5)
    80005610:	01d3850b          	.insn	4, 0x01d3850b
    80005614:	21ee050b          	.insn	4, 0x21ee050b
    80005618:	413f850b          	.insn	4, 0x413f850b
    8000561c:	6169050b          	.insn	4, 0x6169050b
    80005620:	818a050b          	.insn	4, 0x818a050b
    80005624:	a08b850b          	.insn	4, 0xa08b850b
    80005628:	c09c850b          	.insn	4, 0xc09c850b
    8000562c:	1cd5857b          	.insn	4, 0x1cd5857b
    80005630:	f2050153          	fmv.d.x	ft2,a0
    80005634:	0220f0d3          	fadd.d	ft1,ft1,ft2
    80005638:	00063383          	ld	t2,0(a2)
    8000563c:	00863e03          	ld	t3,8(a2)
    80005640:	01063e83          	ld	t4,16(a2)
    80005644:	01863f83          	ld	t6,24(a2)
    80005648:	02063f03          	ld	t5,32(a2)
    8000564c:	02863903          	ld	s2,40(a2)
    80005650:	03063983          	ld	s3,48(a2)
    80005654:	03863a03          	ld	s4,56(a2)
    80005658:	0007bb03          	ld	s6,0(a5)
    8000565c:	0087bc03          	ld	s8,8(a5)
    80005660:	0107bb83          	ld	s7,16(a5)
    80005664:	0187bc83          	ld	s9,24(a5)
    80005668:	7394                	ld	a3,32(a5)
    8000566a:	7780                	ld	s0,40(a5)
    8000566c:	7b88                	ld	a0,48(a5)
    8000566e:	7f84                	ld	s1,56(a5)
    80005670:	09c3858b          	.insn	4, 0x09c3858b
    80005674:	29fe858b          	.insn	4, 0x29fe858b
    80005678:	492f058b          	.insn	4, 0x492f058b
    8000567c:	6949858b          	.insn	4, 0x6949858b
    80005680:	898b058b          	.insn	4, 0x898b058b
    80005684:	6c4e                	ld	s8,208(sp)
    80005686:	a99b858b          	.insn	4, 0xa99b858b
    8000568a:	c886858b          	.insn	4, 0xc886858b
    8000568e:	9c95057b          	.insn	4, 0x9c95057b
    80005692:	f2050153          	fmv.d.x	ft2,a0
    80005696:	0220f0d3          	fadd.d	ft1,ft1,ft2
    8000569a:	0341                	addi	t1,t1,16
    8000569c:	2709                	addiw	a4,a4,2
    8000569e:	08060613          	addi	a2,a2,128
    800056a2:	08078793          	addi	a5,a5,128
    800056a6:	f38715e3          	bne	a4,s8,800055d0 <svd_core+0x35c4>
    800056aa:	00730613          	addi	a2,t1,7
    800056ae:	6cee                	ld	s9,216(sp)
    800056b0:	67ca                	ld	a5,144(sp)
    800056b2:	2e010b13          	addi	s6,sp,736
    800056b6:	4a05                	li	s4,1
    800056b8:	43a1                	li	t2,8
    800056ba:	4909                	li	s2,2
    800056bc:	498d                	li	s3,3
    800056be:	650a                	ld	a0,128(sp)
    800056c0:	c55d                	beqz	a0,8000576e <svd_core+0x3762>
    800056c2:	650e                	ld	a0,192(sp)
    800056c4:	02a28533          	mul	a0,t0,a0
    800056c8:	951a                	add	a0,a0,t1
    800056ca:	050e                	slli	a0,a0,0x3
    800056cc:	65ea                	ld	a1,152(sp)
    800056ce:	952e                	add	a0,a0,a1
    800056d0:	00053383          	ld	t2,0(a0)
    800056d4:	00853e03          	ld	t3,8(a0)
    800056d8:	01053e83          	ld	t4,16(a0)
    800056dc:	01853f03          	ld	t5,24(a0)
    800056e0:	02053f83          	ld	t6,32(a0)
    800056e4:	02853983          	ld	s3,40(a0)
    800056e8:	03053903          	ld	s2,48(a0)
    800056ec:	03853a03          	ld	s4,56(a0)
    800056f0:	00331693          	slli	a3,t1,0x3
    800056f4:	00db0733          	add	a4,s6,a3
    800056f8:	2e010093          	addi	ra,sp,736
    800056fc:	00073b03          	ld	s6,0(a4)
    80005700:	0086e793          	ori	a5,a3,8
    80005704:	9786                	add	a5,a5,ra
    80005706:	639c                	ld	a5,0(a5)
    80005708:	0106e493          	ori	s1,a3,16
    8000570c:	9486                	add	s1,s1,ra
    8000570e:	6084                	ld	s1,0(s1)
    80005710:	0186e593          	ori	a1,a3,24
    80005714:	9586                	add	a1,a1,ra
    80005716:	618c                	ld	a1,0(a1)
    80005718:	0206e413          	ori	s0,a3,32
    8000571c:	9406                	add	s0,s0,ra
    8000571e:	6000                	ld	s0,0(s0)
    80005720:	0286e513          	ori	a0,a3,40
    80005724:	9506                	add	a0,a0,ra
    80005726:	6108                	ld	a0,0(a0)
    80005728:	0306e693          	ori	a3,a3,48
    8000572c:	9686                	add	a3,a3,ra
    8000572e:	6294                	ld	a3,0(a3)
    80005730:	060e                	slli	a2,a2,0x3
    80005732:	9606                	add	a2,a2,ra
    80005734:	6210                	ld	a2,0(a2)
    80005736:	01c3870b          	.insn	4, 0x01c3870b
    8000573a:	21ee870b          	.insn	4, 0x21ee870b
    8000573e:	413f870b          	.insn	4, 0x413f870b
    80005742:	498d                	li	s3,3
    80005744:	43a1                	li	t2,8
    80005746:	6149070b          	.insn	4, 0x6149070b
    8000574a:	4909                	li	s2,2
    8000574c:	4a05                	li	s4,1
    8000574e:	80fb070b          	.insn	4, 0x80fb070b
    80005752:	2e010b13          	addi	s6,sp,736
    80005756:	67ca                	ld	a5,144(sp)
    80005758:	a0b4858b          	.insn	4, 0xa0b4858b
    8000575c:	c0a4050b          	.insn	4, 0xc0a4050b
    80005760:	1cc6857b          	.insn	4, 0x1cc6857b
    80005764:	f2050153          	fmv.d.x	ft2,a0
    80005768:	0220f0d3          	fadd.d	ft1,ft1,ft2
    8000576c:	0321                	addi	t1,t1,8
    8000576e:	0003069b          	sext.w	a3,t1
    80005772:	650e                	ld	a0,192(sp)
    80005774:	e0a6dae3          	bge	a3,a0,80005588 <svd_core+0x357c>
    80005778:	00368613          	addi	a2,a3,3
    8000577c:	00d88533          	add	a0,a7,a3
    80005780:	050e                	slli	a0,a0,0x3
    80005782:	65ea                	ld	a1,152(sp)
    80005784:	00a586b3          	add	a3,a1,a0
    80005788:	ffd60513          	addi	a0,a2,-3
    8000578c:	ff06b107          	fld	ft2,-16(a3)
    80005790:	01a57533          	and	a0,a0,s10
    80005794:	050e                	slli	a0,a0,0x3
    80005796:	955a                	add	a0,a0,s6
    80005798:	00053187          	fld	ft3,0(a0)
    8000579c:	0a3170c3          	fmadd.d	ft1,ft2,ft3,ft1
    800057a0:	00c78733          	add	a4,a5,a2
    800057a4:	df2702e3          	beq	a4,s2,80005588 <svd_core+0x357c>
    800057a8:	ffe60513          	addi	a0,a2,-2
    800057ac:	ff86b107          	fld	ft2,-8(a3)
    800057b0:	01a57533          	and	a0,a0,s10
    800057b4:	050e                	slli	a0,a0,0x3
    800057b6:	955a                	add	a0,a0,s6
    800057b8:	00053187          	fld	ft3,0(a0)
    800057bc:	0a3170c3          	fmadd.d	ft1,ft2,ft3,ft1
    800057c0:	dd4704e3          	beq	a4,s4,80005588 <svd_core+0x357c>
    800057c4:	fff60513          	addi	a0,a2,-1
    800057c8:	0006b107          	fld	ft2,0(a3)
    800057cc:	01a57533          	and	a0,a0,s10
    800057d0:	050e                	slli	a0,a0,0x3
    800057d2:	955a                	add	a0,a0,s6
    800057d4:	00053187          	fld	ft3,0(a0)
    800057d8:	0a3170c3          	fmadd.d	ft1,ft2,ft3,ft1
    800057dc:	da0706e3          	beqz	a4,80005588 <svd_core+0x357c>
    800057e0:	0086b107          	fld	ft2,8(a3)
    800057e4:	01a67533          	and	a0,a2,s10
    800057e8:	050e                	slli	a0,a0,0x3
    800057ea:	955a                	add	a0,a0,s6
    800057ec:	00053187          	fld	ft3,0(a0)
    800057f0:	0a3170c3          	fmadd.d	ft1,ft2,ft3,ft1
    800057f4:	0611                	addi	a2,a2,4
    800057f6:	00c78533          	add	a0,a5,a2
    800057fa:	02068693          	addi	a3,a3,32
    800057fe:	f93515e3          	bne	a0,s3,80005788 <svd_core+0x377c>
    80005802:	b359                	j	80005588 <svd_core+0x357c>
    80005804:	652e                	ld	a0,200(sp)
    80005806:	04a05763          	blez	a0,80005854 <svd_core+0x3848>
    8000580a:	7562                	ld	a0,56(sp)
    8000580c:	04757763          	bgeu	a0,t2,8000585a <svd_core+0x384e>
    80005810:	f20009d3          	fmv.d.x	fs3,zero
    80005814:	4501                	li	a0,0
    80005816:	75c2                	ld	a1,48(sp)
    80005818:	1a058c63          	beqz	a1,800059d0 <svd_core+0x39c4>
    8000581c:	65ae                	ld	a1,200(sp)
    8000581e:	9d89                	subw	a1,a1,a0
    80005820:	4621                	li	a2,8
    80005822:	87ae                	mv	a5,a1
    80005824:	00c5c363          	blt	a1,a2,8000582a <svd_core+0x381e>
    80005828:	47a1                	li	a5,8
    8000582a:	050e                	slli	a0,a0,0x3
    8000582c:	16b05b63          	blez	a1,800059a2 <svd_core+0x3996>
    80005830:	00856593          	ori	a1,a0,8
    80005834:	95d6                	add	a1,a1,s5
    80005836:	0005b803          	ld	a6,0(a1)
    8000583a:	1727c763          	blt	a5,s2,800059a8 <svd_core+0x399c>
    8000583e:	01056593          	ori	a1,a0,16
    80005842:	95d6                	add	a1,a1,s5
    80005844:	6190                	ld	a2,0(a1)
    80005846:	01278463          	beq	a5,s2,8000584e <svd_core+0x3842>
    8000584a:	75f0506f          	j	8000b7a8 <svd_core+0x979c>
    8000584e:	4481                	li	s1,0
    80005850:	4701                	li	a4,0
    80005852:	aab1                	j	800059ae <svd_core+0x39a2>
    80005854:	f20009d3          	fmv.d.x	fs3,zero
    80005858:	aaa5                	j	800059d0 <svd_core+0x39c4>
    8000585a:	4501                	li	a0,0
    8000585c:	4f01                	li	t5,0
    8000585e:	f20009d3          	fmv.d.x	fs3,zero
    80005862:	1210                	addi	a2,sp,288
    80005864:	65ae                	ld	a1,200(sp)
    80005866:	40a5873b          	subw	a4,a1,a0
    8000586a:	47a1                	li	a5,8
    8000586c:	86ba                	mv	a3,a4
    8000586e:	00f74363          	blt	a4,a5,80005874 <svd_core+0x3868>
    80005872:	46a1                	li	a3,8
    80005874:	00e05e63          	blez	a4,80005890 <svd_core+0x3884>
    80005878:	fc863303          	ld	t1,-56(a2)
    8000587c:	0126cd63          	blt	a3,s2,80005896 <svd_core+0x388a>
    80005880:	fd063483          	ld	s1,-48(a2)
    80005884:	01269e63          	bne	a3,s2,800058a0 <svd_core+0x3894>
    80005888:	4401                	li	s0,0
    8000588a:	4e01                	li	t3,0
    8000588c:	f082                	sd	zero,96(sp)
    8000588e:	a03d                	j	800058bc <svd_core+0x38b0>
    80005890:	4301                	li	t1,0
    80005892:	ff26d7e3          	bge	a3,s2,80005880 <svd_core+0x3874>
    80005896:	4401                	li	s0,0
    80005898:	4e01                	li	t3,0
    8000589a:	4481                	li	s1,0
    8000589c:	f082                	sd	zero,96(sp)
    8000589e:	a839                	j	800058bc <svd_core+0x38b0>
    800058a0:	fd863403          	ld	s0,-40(a2)
    800058a4:	4715                	li	a4,5
    800058a6:	f0a2                	sd	s0,96(sp)
    800058a8:	00e6e863          	bltu	a3,a4,800058b8 <svd_core+0x38ac>
    800058ac:	fe063e03          	ld	t3,-32(a2)
    800058b0:	0ae69c63          	bne	a3,a4,80005968 <svd_core+0x395c>
    800058b4:	4401                	li	s0,0
    800058b6:	a019                	j	800058bc <svd_core+0x38b0>
    800058b8:	4401                	li	s0,0
    800058ba:	4e01                	li	t3,0
    800058bc:	ec82                	sd	zero,88(sp)
    800058be:	e882                	sd	zero,80(sp)
    800058c0:	65ae                	ld	a1,200(sp)
    800058c2:	40a586bb          	subw	a3,a1,a0
    800058c6:	36e1                	addiw	a3,a3,-8
    800058c8:	4721                	li	a4,8
    800058ca:	88b6                	mv	a7,a3
    800058cc:	00e6c363          	blt	a3,a4,800058d2 <svd_core+0x38c6>
    800058d0:	48a1                	li	a7,8
    800058d2:	00d05563          	blez	a3,800058dc <svd_core+0x38d0>
    800058d6:	00863f83          	ld	t6,8(a2)
    800058da:	a011                	j	800058de <svd_core+0x38d2>
    800058dc:	4f81                	li	t6,0
    800058de:	fc063283          	ld	t0,-64(a2)
    800058e2:	00063083          	ld	ra,0(a2)
    800058e6:	0128c963          	blt	a7,s2,800058f8 <svd_core+0x38ec>
    800058ea:	01063b83          	ld	s7,16(a2)
    800058ee:	05289f63          	bne	a7,s2,8000594c <svd_core+0x3940>
    800058f2:	4e81                	li	t4,0
    800058f4:	4381                	li	t2,0
    800058f6:	a021                	j	800058fe <svd_core+0x38f2>
    800058f8:	4e81                	li	t4,0
    800058fa:	4381                	li	t2,0
    800058fc:	4b81                	li	s7,0
    800058fe:	4d81                	li	s11,0
    80005900:	4801                	li	a6,0
    80005902:	4781                	li	a5,0
    80005904:	7686                	ld	a3,96(sp)
    80005906:	6766                	ld	a4,88(sp)
    80005908:	65c6                	ld	a1,80(sp)
    8000590a:	64b4040b          	.insn	4, 0x64b4040b
    8000590e:	44ee040b          	.insn	4, 0x44ee040b
    80005912:	24d4840b          	.insn	4, 0x24d4840b
    80005916:	4062847b          	.insn	4, 0x4062847b
    8000591a:	f20400d3          	fmv.d.x	ft1,s0
    8000591e:	0219f0d3          	fadd.d	ft1,fs3,ft1
    80005922:	6cfe870b          	.insn	4, 0x6cfe870b
    80005926:	4d03868b          	.insn	4, 0x4d03868b
    8000592a:	2dbb868b          	.insn	4, 0x2dbb868b
    8000592e:	c1f086fb          	.insn	4, 0xc1f086fb
    80005932:	f2068153          	fmv.d.x	ft2,a3
    80005936:	0220f9d3          	fadd.d	fs3,ft1,ft2
    8000593a:	0541                	addi	a0,a0,16
    8000593c:	2f09                	addiw	t5,t5,2
    8000593e:	08060613          	addi	a2,a2,128
    80005942:	76e6                	ld	a3,120(sp)
    80005944:	43a1                	li	t2,8
    80005946:	f0df1fe3          	bne	t5,a3,80005864 <svd_core+0x3858>
    8000594a:	b5f1                	j	80005816 <svd_core+0x380a>
    8000594c:	01863d83          	ld	s11,24(a2)
    80005950:	4715                	li	a4,5
    80005952:	00e8e863          	bltu	a7,a4,80005962 <svd_core+0x3956>
    80005956:	02063383          	ld	t2,32(a2)
    8000595a:	02e89563          	bne	a7,a4,80005984 <svd_core+0x3978>
    8000595e:	4e81                	li	t4,0
    80005960:	b745                	j	80005900 <svd_core+0x38f4>
    80005962:	4e81                	li	t4,0
    80005964:	4381                	li	t2,0
    80005966:	bf69                	j	80005900 <svd_core+0x38f4>
    80005968:	fe863783          	ld	a5,-24(a2)
    8000596c:	471d                	li	a4,7
    8000596e:	ecbe                	sd	a5,88(sp)
    80005970:	02e6e563          	bltu	a3,a4,8000599a <svd_core+0x398e>
    80005974:	ff063403          	ld	s0,-16(a2)
    80005978:	f4e683e3          	beq	a3,a4,800058be <svd_core+0x38b2>
    8000597c:	ff863583          	ld	a1,-8(a2)
    80005980:	e8ae                	sd	a1,80(sp)
    80005982:	bf3d                	j	800058c0 <svd_core+0x38b4>
    80005984:	02863803          	ld	a6,40(a2)
    80005988:	479d                	li	a5,7
    8000598a:	00f8ea63          	bltu	a7,a5,8000599e <svd_core+0x3992>
    8000598e:	03063e83          	ld	t4,48(a2)
    80005992:	f6f888e3          	beq	a7,a5,80005902 <svd_core+0x38f6>
    80005996:	7e1c                	ld	a5,56(a2)
    80005998:	b7b5                	j	80005904 <svd_core+0x38f8>
    8000599a:	4401                	li	s0,0
    8000599c:	b70d                	j	800058be <svd_core+0x38b2>
    8000599e:	4e81                	li	t4,0
    800059a0:	b78d                	j	80005902 <svd_core+0x38f6>
    800059a2:	4801                	li	a6,0
    800059a4:	e927dde3          	bge	a5,s2,8000583e <svd_core+0x3832>
    800059a8:	4481                	li	s1,0
    800059aa:	4701                	li	a4,0
    800059ac:	4601                	li	a2,0
    800059ae:	4681                	li	a3,0
    800059b0:	4581                	li	a1,0
    800059b2:	4781                	li	a5,0
    800059b4:	9556                	add	a0,a0,s5
    800059b6:	6108                	ld	a0,0(a0)
    800059b8:	64f4878b          	.insn	4, 0x64f4878b
    800059bc:	44b7058b          	.insn	4, 0x44b7058b
    800059c0:	24d6058b          	.insn	4, 0x24d6058b
    800059c4:	4105057b          	.insn	4, 0x4105057b
    800059c8:	f20500d3          	fmv.d.x	ft1,a0
    800059cc:	0219f9d3          	fadd.d	fs3,fs3,ft1
    800059d0:	0b29f0d3          	fsub.d	ft1,fs3,fs2
    800059d4:	a2009553          	flt.d	a0,ft1,ft0
    800059d8:	c119                	beqz	a0,800059de <svd_core+0x39d2>
    800059da:	221090d3          	fneg.d	ft1,ft1
    800059de:	70c6                	ld	ra,112(sp)
    800059e0:	75ca                	ld	a1,176(sp)
    800059e2:	a2909553          	flt.d	a0,ft1,fs1
    800059e6:	23290a53          	fmv.d	fs4,fs2
    800059ea:	c119                	beqz	a0,800059f0 <svd_core+0x39e4>
    800059ec:	52e0806f          	j	8000df1a <svd_core+0xbf0e>
    800059f0:	4281                	li	t0,0
    800059f2:	4889                	li	a7,2
    800059f4:	52010813          	addi	a6,sp,1312
    800059f8:	a839                	j	80005a16 <svd_core+0x3a0a>
    800059fa:	1b307053          	fdiv.d	ft0,ft0,fs3
    800059fe:	00329513          	slli	a0,t0,0x3
    80005a02:	955a                	add	a0,a0,s6
    80005a04:	00053027          	fsd	ft0,0(a0)
    80005a08:	0285                	addi	t0,t0,1
    80005a0a:	9806                	add	a6,a6,ra
    80005a0c:	652e                	ld	a0,200(sp)
    80005a0e:	98aa                	add	a7,a7,a0
    80005a10:	650e                	ld	a0,192(sp)
    80005a12:	26a28363          	beq	t0,a0,80005c78 <svd_core+0x3c6c>
    80005a16:	652e                	ld	a0,200(sp)
    80005a18:	00754d63          	blt	a0,t2,80005a32 <svd_core+0x3a26>
    80005a1c:	752a                	ld	a0,168(sp)
    80005a1e:	00757e63          	bgeu	a0,t2,80005a3a <svd_core+0x3a2e>
    80005a22:	4301                	li	t1,0
    80005a24:	f2000053          	fmv.d.x	ft0,zero
    80005a28:	461d                	li	a2,7
    80005a2a:	750a                	ld	a0,160(sp)
    80005a2c:	10051663          	bnez	a0,80005b38 <svd_core+0x3b2c>
    80005a30:	aa4d                	j	80005be2 <svd_core+0x3bd6>
    80005a32:	f2000053          	fmv.d.x	ft0,zero
    80005a36:	4301                	li	t1,0
    80005a38:	a26d                	j	80005be2 <svd_core+0x3bd6>
    80005a3a:	4301                	li	t1,0
    80005a3c:	4701                	li	a4,0
    80005a3e:	f2000053          	fmv.d.x	ft0,zero
    80005a42:	121c                	addi	a5,sp,288
    80005a44:	8642                	mv	a2,a6
    80005a46:	fc063383          	ld	t2,-64(a2)
    80005a4a:	fc863e83          	ld	t4,-56(a2)
