
mainop_O2U4_NY.riscv:     file format elf64-littleriscv


Disassembly of section .text.init:

0000000080000000 <_start>:
    80000000:	4081                	li	ra,0
    80000002:	4101                	li	sp,0
    80000004:	4181                	li	gp,0
    80000006:	4201                	li	tp,0
    80000008:	4281                	li	t0,0
    8000000a:	4301                	li	t1,0
    8000000c:	4381                	li	t2,0
    8000000e:	4401                	li	s0,0
    80000010:	4481                	li	s1,0
    80000012:	4501                	li	a0,0
    80000014:	4581                	li	a1,0
    80000016:	4601                	li	a2,0
    80000018:	4681                	li	a3,0
    8000001a:	4701                	li	a4,0
    8000001c:	4781                	li	a5,0
    8000001e:	4801                	li	a6,0
    80000020:	4881                	li	a7,0
    80000022:	4901                	li	s2,0
    80000024:	4981                	li	s3,0
    80000026:	4a01                	li	s4,0
    80000028:	4a81                	li	s5,0
    8000002a:	4b01                	li	s6,0
    8000002c:	4b81                	li	s7,0
    8000002e:	4c01                	li	s8,0
    80000030:	4c81                	li	s9,0
    80000032:	4d01                	li	s10,0
    80000034:	4d81                	li	s11,0
    80000036:	4e01                	li	t3,0
    80000038:	4e81                	li	t4,0
    8000003a:	4f01                	li	t5,0
    8000003c:	4f81                	li	t6,0
    8000003e:	62f9                	lui	t0,0x1e
    80000040:	3002a073          	csrs	mstatus,t0
    80000044:	4285                	li	t0,1
    80000046:	02fe                	slli	t0,t0,0x1f
    80000048:	0002d863          	bgez	t0,80000058 <_start+0x58>
    8000004c:	4505                	li	a0,1
    8000004e:	00001297          	auipc	t0,0x1
    80000052:	faa2a923          	sw	a0,-78(t0) # 80001000 <tohost>
    80000056:	bfdd                	j	8000004c <_start+0x4c>
    80000058:	00000297          	auipc	t0,0x0
    8000005c:	09028293          	addi	t0,t0,144 # 800000e8 <_start+0xe8>
    80000060:	30529073          	csrw	mtvec,t0
    80000064:	00301073          	fscsr	zero
    80000068:	f0000053          	fmv.w.x	ft0,zero
    8000006c:	f00000d3          	fmv.w.x	ft1,zero
    80000070:	f0000153          	fmv.w.x	ft2,zero
    80000074:	f00001d3          	fmv.w.x	ft3,zero
    80000078:	f0000253          	fmv.w.x	ft4,zero
    8000007c:	f00002d3          	fmv.w.x	ft5,zero
    80000080:	f0000353          	fmv.w.x	ft6,zero
    80000084:	f00003d3          	fmv.w.x	ft7,zero
    80000088:	f0000453          	fmv.w.x	fs0,zero
    8000008c:	f00004d3          	fmv.w.x	fs1,zero
    80000090:	f0000553          	fmv.w.x	fa0,zero
    80000094:	f00005d3          	fmv.w.x	fa1,zero
    80000098:	f0000653          	fmv.w.x	fa2,zero
    8000009c:	f00006d3          	fmv.w.x	fa3,zero
    800000a0:	f0000753          	fmv.w.x	fa4,zero
    800000a4:	f00007d3          	fmv.w.x	fa5,zero
    800000a8:	f0000853          	fmv.w.x	fa6,zero
    800000ac:	f00008d3          	fmv.w.x	fa7,zero
    800000b0:	f0000953          	fmv.w.x	fs2,zero
    800000b4:	f00009d3          	fmv.w.x	fs3,zero
    800000b8:	f0000a53          	fmv.w.x	fs4,zero
    800000bc:	f0000ad3          	fmv.w.x	fs5,zero
    800000c0:	f0000b53          	fmv.w.x	fs6,zero
    800000c4:	f0000bd3          	fmv.w.x	fs7,zero
    800000c8:	f0000c53          	fmv.w.x	fs8,zero
    800000cc:	f0000cd3          	fmv.w.x	fs9,zero
    800000d0:	f0000d53          	fmv.w.x	fs10,zero
    800000d4:	f0000dd3          	fmv.w.x	fs11,zero
    800000d8:	f0000e53          	fmv.w.x	ft8,zero
    800000dc:	f0000ed3          	fmv.w.x	ft9,zero
    800000e0:	f0000f53          	fmv.w.x	ft10,zero
    800000e4:	f0000fd3          	fmv.w.x	ft11,zero
    800000e8:	00000297          	auipc	t0,0x0
    800000ec:	03c28293          	addi	t0,t0,60 # 80000124 <trap_entry>
    800000f0:	30529073          	csrw	mtvec,t0
    800000f4:	00004197          	auipc	gp,0x4
    800000f8:	79418193          	addi	gp,gp,1940 # 80004888 <__global_pointer$>
    800000fc:	00006217          	auipc	tp,0x6
    80000100:	a8320213          	addi	tp,tp,-1405 # 80005b7f <_end+0x3f>
    80000104:	fc027213          	andi	tp,tp,-64
    80000108:	f1402573          	csrr	a0,mhartid
    8000010c:	4585                	li	a1,1
    8000010e:	00b57063          	bgeu	a0,a1,8000010e <_start+0x10e>
    80000112:	00150113          	addi	sp,a0,1
    80000116:	0146                	slli	sp,sp,0x11
    80000118:	9112                	add	sp,sp,tp
    8000011a:	01151613          	slli	a2,a0,0x11
    8000011e:	9232                	add	tp,tp,a2
    80000120:	4740306f          	j	80003594 <_init>

0000000080000124 <trap_entry>:
    80000124:	716d                	addi	sp,sp,-272
    80000126:	e406                	sd	ra,8(sp)
    80000128:	e80a                	sd	sp,16(sp)
    8000012a:	ec0e                	sd	gp,24(sp)
    8000012c:	f012                	sd	tp,32(sp)
    8000012e:	f416                	sd	t0,40(sp)
    80000130:	f81a                	sd	t1,48(sp)
    80000132:	fc1e                	sd	t2,56(sp)
    80000134:	e0a2                	sd	s0,64(sp)
    80000136:	e4a6                	sd	s1,72(sp)
    80000138:	e8aa                	sd	a0,80(sp)
    8000013a:	ecae                	sd	a1,88(sp)
    8000013c:	f0b2                	sd	a2,96(sp)
    8000013e:	f4b6                	sd	a3,104(sp)
    80000140:	f8ba                	sd	a4,112(sp)
    80000142:	fcbe                	sd	a5,120(sp)
    80000144:	e142                	sd	a6,128(sp)
    80000146:	e546                	sd	a7,136(sp)
    80000148:	e94a                	sd	s2,144(sp)
    8000014a:	ed4e                	sd	s3,152(sp)
    8000014c:	f152                	sd	s4,160(sp)
    8000014e:	f556                	sd	s5,168(sp)
    80000150:	f95a                	sd	s6,176(sp)
    80000152:	fd5e                	sd	s7,184(sp)
    80000154:	e1e2                	sd	s8,192(sp)
    80000156:	e5e6                	sd	s9,200(sp)
    80000158:	e9ea                	sd	s10,208(sp)
    8000015a:	edee                	sd	s11,216(sp)
    8000015c:	f1f2                	sd	t3,224(sp)
    8000015e:	f5f6                	sd	t4,232(sp)
    80000160:	f9fa                	sd	t5,240(sp)
    80000162:	fdfe                	sd	t6,248(sp)
    80000164:	34202573          	csrr	a0,mcause
    80000168:	341025f3          	csrr	a1,mepc
    8000016c:	860a                	mv	a2,sp
    8000016e:	25e030ef          	jal	800033cc <handle_trap>
    80000172:	34151073          	csrw	mepc,a0
    80000176:	6289                	lui	t0,0x2
    80000178:	8002829b          	addiw	t0,t0,-2048 # 1800 <buflen.1+0x17c0>
    8000017c:	3002a073          	csrs	mstatus,t0
    80000180:	60a2                	ld	ra,8(sp)
    80000182:	6142                	ld	sp,16(sp)
    80000184:	61e2                	ld	gp,24(sp)
    80000186:	7202                	ld	tp,32(sp)
    80000188:	72a2                	ld	t0,40(sp)
    8000018a:	7342                	ld	t1,48(sp)
    8000018c:	73e2                	ld	t2,56(sp)
    8000018e:	6406                	ld	s0,64(sp)
    80000190:	64a6                	ld	s1,72(sp)
    80000192:	6546                	ld	a0,80(sp)
    80000194:	65e6                	ld	a1,88(sp)
    80000196:	7606                	ld	a2,96(sp)
    80000198:	76a6                	ld	a3,104(sp)
    8000019a:	7746                	ld	a4,112(sp)
    8000019c:	77e6                	ld	a5,120(sp)
    8000019e:	680a                	ld	a6,128(sp)
    800001a0:	68aa                	ld	a7,136(sp)
    800001a2:	694a                	ld	s2,144(sp)
    800001a4:	69ea                	ld	s3,152(sp)
    800001a6:	7a0a                	ld	s4,160(sp)
    800001a8:	7aaa                	ld	s5,168(sp)
    800001aa:	7b4a                	ld	s6,176(sp)
    800001ac:	7bea                	ld	s7,184(sp)
    800001ae:	6c0e                	ld	s8,192(sp)
    800001b0:	6cae                	ld	s9,200(sp)
    800001b2:	6d4e                	ld	s10,208(sp)
    800001b4:	6dee                	ld	s11,216(sp)
    800001b6:	7e0e                	ld	t3,224(sp)
    800001b8:	7eae                	ld	t4,232(sp)
    800001ba:	7f4e                	ld	t5,240(sp)
    800001bc:	7fee                	ld	t6,248(sp)
    800001be:	6151                	addi	sp,sp,272
    800001c0:	30200073          	mret
    800001c4:	0000                	unimp

Disassembly of section .text:

0000000080002000 <d2ull>:
    80002000:	e2050553          	fmv.x.d	a0,fa0
    80002004:	8082                	ret

0000000080002006 <ull2d>:
    80002006:	f2050553          	fmv.d.x	fa0,a0
    8000200a:	8082                	ret

000000008000200c <KeyExpansion>:
    8000200c:	7119                	addi	sp,sp,-128
    8000200e:	fc86                	sd	ra,120(sp)
    80002010:	f8a2                	sd	s0,112(sp)
    80002012:	f4a6                	sd	s1,104(sp)
    80002014:	f0ca                	sd	s2,96(sp)
    80002016:	ecce                	sd	s3,88(sp)
    80002018:	e8d2                	sd	s4,80(sp)
    8000201a:	e4d6                	sd	s5,72(sp)
    8000201c:	e0da                	sd	s6,64(sp)
    8000201e:	fc5e                	sd	s7,56(sp)
    80002020:	f862                	sd	s8,48(sp)
    80002022:	f466                	sd	s9,40(sp)
    80002024:	f06a                	sd	s10,32(sp)
    80002026:	ec6e                	sd	s11,24(sp)
    80002028:	4601                	li	a2,0
    8000202a:	0505                	addi	a0,a0,1
    8000202c:	46c1                	li	a3,16
    8000202e:	00c50733          	add	a4,a0,a2
    80002032:	fff70783          	lb	a5,-1(a4)
    80002036:	00c584b3          	add	s1,a1,a2
    8000203a:	00f48023          	sb	a5,0(s1)
    8000203e:	00070783          	lb	a5,0(a4)
    80002042:	00f480a3          	sb	a5,1(s1)
    80002046:	00170783          	lb	a5,1(a4)
    8000204a:	00f48123          	sb	a5,2(s1)
    8000204e:	00270703          	lb	a4,2(a4)
    80002052:	0611                	addi	a2,a2,4
    80002054:	00e481a3          	sb	a4,3(s1)
    80002058:	fcd61be3          	bne	a2,a3,8000202e <KeyExpansion+0x22>
    8000205c:	00c5c303          	lbu	t1,12(a1)
    80002060:	00d5c703          	lbu	a4,13(a1)
    80002064:	00002897          	auipc	a7,0x2
    80002068:	e8588893          	addi	a7,a7,-379 # 80003ee9 <Rcon>
    8000206c:	00188603          	lb	a2,1(a7)
    80002070:	00002517          	auipc	a0,0x2
    80002074:	d7950513          	addi	a0,a0,-647 # 80003de9 <sbox>
    80002078:	00e506b3          	add	a3,a0,a4
    8000207c:	883a                	mv	a6,a4
    8000207e:	00068683          	lb	a3,0(a3)
    80002082:	00e5c383          	lbu	t2,14(a1)
    80002086:	00f5c283          	lbu	t0,15(a1)
    8000208a:	8e35                	xor	a2,a2,a3
    8000208c:	006506b3          	add	a3,a0,t1
    80002090:	00068683          	lb	a3,0(a3)
    80002094:	00550733          	add	a4,a0,t0
    80002098:	00070703          	lb	a4,0(a4)
    8000209c:	007507b3          	add	a5,a0,t2
    800020a0:	00058483          	lb	s1,0(a1)
    800020a4:	00078783          	lb	a5,0(a5)
    800020a8:	00158403          	lb	s0,1(a1)
    800020ac:	00964b33          	xor	s6,a2,s1
    800020b0:	01658823          	sb	s6,16(a1)
    800020b4:	0087cab3          	xor	s5,a5,s0
    800020b8:	00258483          	lb	s1,2(a1)
    800020bc:	015588a3          	sb	s5,17(a1)
    800020c0:	00358403          	lb	s0,3(a1)
    800020c4:	00974c33          	xor	s8,a4,s1
    800020c8:	01858923          	sb	s8,18(a1)
    800020cc:	0086cbb3          	xor	s7,a3,s0
    800020d0:	00458f83          	lb	t6,4(a1)
    800020d4:	017589a3          	sb	s7,19(a1)
    800020d8:	00558903          	lb	s2,5(a1)
    800020dc:	01fb44b3          	xor	s1,s6,t6
    800020e0:	00958a23          	sb	s1,20(a1)
    800020e4:	012ac433          	xor	s0,s5,s2
    800020e8:	00658983          	lb	s3,6(a1)
    800020ec:	00858aa3          	sb	s0,21(a1)
    800020f0:	00758a03          	lb	s4,7(a1)
    800020f4:	013c47b3          	xor	a5,s8,s3
    800020f8:	00f58b23          	sb	a5,22(a1)
    800020fc:	014bc633          	xor	a2,s7,s4
    80002100:	00858683          	lb	a3,8(a1)
    80002104:	00c58ba3          	sb	a2,23(a1)
    80002108:	00958703          	lb	a4,9(a1)
    8000210c:	00d4ceb3          	xor	t4,s1,a3
    80002110:	01d58c23          	sb	t4,24(a1)
    80002114:	00e44e33          	xor	t3,s0,a4
    80002118:	00a58683          	lb	a3,10(a1)
    8000211c:	01c58ca3          	sb	t3,25(a1)
    80002120:	00b58703          	lb	a4,11(a1)
    80002124:	00d7ccb3          	xor	s9,a5,a3
    80002128:	01958d23          	sb	s9,26(a1)
    8000212c:	00e64f33          	xor	t5,a2,a4
    80002130:	01e58da3          	sb	t5,27(a1)
    80002134:	006ec633          	xor	a2,t4,t1
    80002138:	00c58e23          	sb	a2,28(a1)
    8000213c:	010e46b3          	xor	a3,t3,a6
    80002140:	84c2                	mv	s1,a6
    80002142:	e842                	sd	a6,16(sp)
    80002144:	00d58ea3          	sb	a3,29(a1)
    80002148:	007cc733          	xor	a4,s9,t2
    8000214c:	00e58f23          	sb	a4,30(a1)
    80002150:	005f47b3          	xor	a5,t5,t0
    80002154:	00f58fa3          	sb	a5,31(a1)
    80002158:	00288403          	lb	s0,2(a7)
    8000215c:	0ff6f693          	zext.b	a3,a3
    80002160:	96aa                	add	a3,a3,a0
    80002162:	00068683          	lb	a3,0(a3)
    80002166:	8ea1                	xor	a3,a3,s0
    80002168:	0ff67613          	zext.b	a2,a2
    8000216c:	962a                	add	a2,a2,a0
    8000216e:	00060403          	lb	s0,0(a2)
    80002172:	0ff7f613          	zext.b	a2,a5
    80002176:	962a                	add	a2,a2,a0
    80002178:	00060783          	lb	a5,0(a2)
    8000217c:	0ff77613          	zext.b	a2,a4
    80002180:	962a                	add	a2,a2,a0
    80002182:	00060603          	lb	a2,0(a2)
    80002186:	0166cb33          	xor	s6,a3,s6
    8000218a:	03658023          	sb	s6,32(a1)
    8000218e:	01564ab3          	xor	s5,a2,s5
    80002192:	035580a3          	sb	s5,33(a1)
    80002196:	0187cc33          	xor	s8,a5,s8
    8000219a:	03858123          	sb	s8,34(a1)
    8000219e:	01744bb3          	xor	s7,s0,s7
    800021a2:	037581a3          	sb	s7,35(a1)
    800021a6:	01f6cd33          	xor	s10,a3,t6
    800021aa:	03a58223          	sb	s10,36(a1)
    800021ae:	01264933          	xor	s2,a2,s2
    800021b2:	032582a3          	sb	s2,37(a1)
    800021b6:	0137cdb3          	xor	s11,a5,s3
    800021ba:	03b58323          	sb	s11,38(a1)
    800021be:	014449b3          	xor	s3,s0,s4
    800021c2:	033583a3          	sb	s3,39(a1)
    800021c6:	01dd4433          	xor	s0,s10,t4
    800021ca:	02858423          	sb	s0,40(a1)
    800021ce:	01c94433          	xor	s0,s2,t3
    800021d2:	028584a3          	sb	s0,41(a1)
    800021d6:	019dc433          	xor	s0,s11,s9
    800021da:	02858523          	sb	s0,42(a1)
    800021de:	01e9c433          	xor	s0,s3,t5
    800021e2:	028585a3          	sb	s0,43(a1)
    800021e6:	006d4833          	xor	a6,s10,t1
    800021ea:	03058623          	sb	a6,44(a1)
    800021ee:	009944b3          	xor	s1,s2,s1
    800021f2:	029586a3          	sb	s1,45(a1)
    800021f6:	007dca33          	xor	s4,s11,t2
    800021fa:	03458723          	sb	s4,46(a1)
    800021fe:	0059c0b3          	xor	ra,s3,t0
    80002202:	021587a3          	sb	ra,47(a1)
    80002206:	00388703          	lb	a4,3(a7)
    8000220a:	0ff4f793          	zext.b	a5,s1
    8000220e:	97aa                	add	a5,a5,a0
    80002210:	00078783          	lb	a5,0(a5)
    80002214:	8f3d                	xor	a4,a4,a5
    80002216:	0ff87793          	zext.b	a5,a6
    8000221a:	97aa                	add	a5,a5,a0
    8000221c:	00078f83          	lb	t6,0(a5)
    80002220:	0ff0f793          	zext.b	a5,ra
    80002224:	97aa                	add	a5,a5,a0
    80002226:	00078783          	lb	a5,0(a5)
    8000222a:	0ffa7613          	zext.b	a2,s4
    8000222e:	962a                	add	a2,a2,a0
    80002230:	00060603          	lb	a2,0(a2)
    80002234:	01674733          	xor	a4,a4,s6
    80002238:	02e58823          	sb	a4,48(a1)
    8000223c:	01564ab3          	xor	s5,a2,s5
    80002240:	035588a3          	sb	s5,49(a1)
    80002244:	0187c7b3          	xor	a5,a5,s8
    80002248:	02f58923          	sb	a5,50(a1)
    8000224c:	017fcb33          	xor	s6,t6,s7
    80002250:	036589a3          	sb	s6,51(a1)
    80002254:	01a74433          	xor	s0,a4,s10
    80002258:	02858a23          	sb	s0,52(a1)
    8000225c:	012ac433          	xor	s0,s5,s2
    80002260:	02858aa3          	sb	s0,53(a1)
    80002264:	01b7c433          	xor	s0,a5,s11
    80002268:	02858b23          	sb	s0,54(a1)
    8000226c:	013b4433          	xor	s0,s6,s3
    80002270:	02858ba3          	sb	s0,55(a1)
    80002274:	01d74eb3          	xor	t4,a4,t4
    80002278:	03d58c23          	sb	t4,56(a1)
    8000227c:	01cace33          	xor	t3,s5,t3
    80002280:	03c58ca3          	sb	t3,57(a1)
    80002284:	0197cfb3          	xor	t6,a5,s9
    80002288:	03f58d23          	sb	t6,58(a1)
    8000228c:	01eb4f33          	xor	t5,s6,t5
    80002290:	03e58da3          	sb	t5,59(a1)
    80002294:	010ec433          	xor	s0,t4,a6
    80002298:	02858e23          	sb	s0,60(a1)
    8000229c:	009e44b3          	xor	s1,t3,s1
    800022a0:	02958ea3          	sb	s1,61(a1)
    800022a4:	014fc633          	xor	a2,t6,s4
    800022a8:	02c58f23          	sb	a2,62(a1)
    800022ac:	001f46b3          	xor	a3,t5,ra
    800022b0:	02d58fa3          	sb	a3,63(a1)
    800022b4:	00488803          	lb	a6,4(a7)
    800022b8:	0ff4f493          	zext.b	s1,s1
    800022bc:	94aa                	add	s1,s1,a0
    800022be:	00048483          	lb	s1,0(s1)
    800022c2:	009844b3          	xor	s1,a6,s1
    800022c6:	0ff47413          	zext.b	s0,s0
    800022ca:	942a                	add	s0,s0,a0
    800022cc:	00040403          	lb	s0,0(s0)
    800022d0:	0ff6f693          	zext.b	a3,a3
    800022d4:	96aa                	add	a3,a3,a0
    800022d6:	00068683          	lb	a3,0(a3)
    800022da:	0ff67613          	zext.b	a2,a2
    800022de:	962a                	add	a2,a2,a0
    800022e0:	00060603          	lb	a2,0(a2)
    800022e4:	00e4c0b3          	xor	ra,s1,a4
    800022e8:	04158023          	sb	ra,64(a1)
    800022ec:	01564c33          	xor	s8,a2,s5
    800022f0:	058580a3          	sb	s8,65(a1)
    800022f4:	8fb5                	xor	a5,a5,a3
    800022f6:	04f58123          	sb	a5,66(a1)
    800022fa:	01644cb3          	xor	s9,s0,s6
    800022fe:	059581a3          	sb	s9,67(a1)
    80002302:	01a4cab3          	xor	s5,s1,s10
    80002306:	05558223          	sb	s5,68(a1)
    8000230a:	01264a33          	xor	s4,a2,s2
    8000230e:	054582a3          	sb	s4,69(a1)
    80002312:	01b6cbb3          	xor	s7,a3,s11
    80002316:	05758323          	sb	s7,70(a1)
    8000231a:	01344b33          	xor	s6,s0,s3
    8000231e:	056583a3          	sb	s6,71(a1)
    80002322:	01dac733          	xor	a4,s5,t4
    80002326:	04e58423          	sb	a4,72(a1)
    8000232a:	01ca4733          	xor	a4,s4,t3
    8000232e:	04e584a3          	sb	a4,73(a1)
    80002332:	01fbc733          	xor	a4,s7,t6
    80002336:	04e58523          	sb	a4,74(a1)
    8000233a:	01eb4733          	xor	a4,s6,t5
    8000233e:	04e585a3          	sb	a4,75(a1)
    80002342:	0064c933          	xor	s2,s1,t1
    80002346:	05258623          	sb	s2,76(a1)
    8000234a:	6742                	ld	a4,16(sp)
    8000234c:	00e649b3          	xor	s3,a2,a4
    80002350:	053586a3          	sb	s3,77(a1)
    80002354:	0076c633          	xor	a2,a3,t2
    80002358:	04c58723          	sb	a2,78(a1)
    8000235c:	00544333          	xor	t1,s0,t0
    80002360:	046587a3          	sb	t1,79(a1)
    80002364:	8846                	mv	a6,a7
    80002366:	00588703          	lb	a4,5(a7)
    8000236a:	0ff9f693          	zext.b	a3,s3
    8000236e:	96aa                	add	a3,a3,a0
    80002370:	00068683          	lb	a3,0(a3)
    80002374:	00d74433          	xor	s0,a4,a3
    80002378:	0ff97693          	zext.b	a3,s2
    8000237c:	96aa                	add	a3,a3,a0
    8000237e:	00068683          	lb	a3,0(a3)
    80002382:	0ff37713          	zext.b	a4,t1
    80002386:	972a                	add	a4,a4,a0
    80002388:	00070703          	lb	a4,0(a4)
    8000238c:	0ff67493          	zext.b	s1,a2
    80002390:	94aa                	add	s1,s1,a0
    80002392:	00048483          	lb	s1,0(s1)
    80002396:	00144d33          	xor	s10,s0,ra
    8000239a:	05a58823          	sb	s10,80(a1)
    8000239e:	0184c433          	xor	s0,s1,s8
    800023a2:	048588a3          	sb	s0,81(a1)
    800023a6:	00f744b3          	xor	s1,a4,a5
    800023aa:	04958923          	sb	s1,82(a1)
    800023ae:	0196cc33          	xor	s8,a3,s9
    800023b2:	058589a3          	sb	s8,83(a1)
    800023b6:	015d4733          	xor	a4,s10,s5
    800023ba:	04e58a23          	sb	a4,84(a1)
    800023be:	01444733          	xor	a4,s0,s4
    800023c2:	04e58aa3          	sb	a4,85(a1)
    800023c6:	0174c733          	xor	a4,s1,s7
    800023ca:	04e58b23          	sb	a4,86(a1)
    800023ce:	016c4733          	xor	a4,s8,s6
    800023d2:	04e58ba3          	sb	a4,87(a1)
    800023d6:	01dd4eb3          	xor	t4,s10,t4
    800023da:	05d58c23          	sb	t4,88(a1)
    800023de:	01c44e33          	xor	t3,s0,t3
    800023e2:	05c58ca3          	sb	t3,89(a1)
    800023e6:	01f4c8b3          	xor	a7,s1,t6
    800023ea:	05158d23          	sb	a7,90(a1)
    800023ee:	01ec43b3          	xor	t2,s8,t5
    800023f2:	04758da3          	sb	t2,91(a1)
    800023f6:	012ec733          	xor	a4,t4,s2
    800023fa:	04e58e23          	sb	a4,92(a1)
    800023fe:	013e47b3          	xor	a5,t3,s3
    80002402:	04f58ea3          	sb	a5,93(a1)
    80002406:	80b2                	mv	ra,a2
    80002408:	e432                	sd	a2,8(sp)
    8000240a:	00c8c633          	xor	a2,a7,a2
    8000240e:	04c58f23          	sb	a2,94(a1)
    80002412:	0063c6b3          	xor	a3,t2,t1
    80002416:	e81a                	sd	t1,16(sp)
    80002418:	04d58fa3          	sb	a3,95(a1)
    8000241c:	00680f03          	lb	t5,6(a6)
    80002420:	82c2                	mv	t0,a6
    80002422:	0ff7f793          	zext.b	a5,a5
    80002426:	97aa                	add	a5,a5,a0
    80002428:	00078783          	lb	a5,0(a5)
    8000242c:	00ff47b3          	xor	a5,t5,a5
    80002430:	0ff77713          	zext.b	a4,a4
    80002434:	972a                	add	a4,a4,a0
    80002436:	00070703          	lb	a4,0(a4)
    8000243a:	0ff6f693          	zext.b	a3,a3
    8000243e:	96aa                	add	a3,a3,a0
    80002440:	00068683          	lb	a3,0(a3)
    80002444:	0ff67613          	zext.b	a2,a2
    80002448:	962a                	add	a2,a2,a0
    8000244a:	00060603          	lb	a2,0(a2)
    8000244e:	01a7cf33          	xor	t5,a5,s10
    80002452:	07e58023          	sb	t5,96(a1)
    80002456:	00864fb3          	xor	t6,a2,s0
    8000245a:	07f580a3          	sb	t6,97(a1)
    8000245e:	0096ccb3          	xor	s9,a3,s1
    80002462:	07958123          	sb	s9,98(a1)
    80002466:	01874c33          	xor	s8,a4,s8
    8000246a:	078581a3          	sb	s8,99(a1)
    8000246e:	0157cd33          	xor	s10,a5,s5
    80002472:	07a58223          	sb	s10,100(a1)
    80002476:	01464db3          	xor	s11,a2,s4
    8000247a:	07b582a3          	sb	s11,101(a1)
    8000247e:	0176ca33          	xor	s4,a3,s7
    80002482:	07458323          	sb	s4,102(a1)
    80002486:	01674ab3          	xor	s5,a4,s6
    8000248a:	075583a3          	sb	s5,103(a1)
    8000248e:	01dd4733          	xor	a4,s10,t4
    80002492:	06e58423          	sb	a4,104(a1)
    80002496:	01cdc733          	xor	a4,s11,t3
    8000249a:	06e584a3          	sb	a4,105(a1)
    8000249e:	011a4733          	xor	a4,s4,a7
    800024a2:	06e58523          	sb	a4,106(a1)
    800024a6:	007ac733          	xor	a4,s5,t2
    800024aa:	06e585a3          	sb	a4,107(a1)
    800024ae:	012d4833          	xor	a6,s10,s2
    800024b2:	07058623          	sb	a6,108(a1)
    800024b6:	013dc7b3          	xor	a5,s11,s3
    800024ba:	06f586a3          	sb	a5,109(a1)
    800024be:	001a4bb3          	xor	s7,s4,ra
    800024c2:	07758723          	sb	s7,110(a1)
    800024c6:	006ac0b3          	xor	ra,s5,t1
    800024ca:	061587a3          	sb	ra,111(a1)
    800024ce:	00728403          	lb	s0,7(t0)
    800024d2:	0ff7f493          	zext.b	s1,a5
    800024d6:	94aa                	add	s1,s1,a0
    800024d8:	00048483          	lb	s1,0(s1)
    800024dc:	8c25                	xor	s0,s0,s1
    800024de:	0ff87493          	zext.b	s1,a6
    800024e2:	94aa                	add	s1,s1,a0
    800024e4:	00048b03          	lb	s6,0(s1)
    800024e8:	0ff0f493          	zext.b	s1,ra
    800024ec:	94aa                	add	s1,s1,a0
    800024ee:	00048483          	lb	s1,0(s1)
    800024f2:	0ffbf613          	zext.b	a2,s7
    800024f6:	962a                	add	a2,a2,a0
    800024f8:	00060603          	lb	a2,0(a2)
    800024fc:	01e44433          	xor	s0,s0,t5
    80002500:	06858823          	sb	s0,112(a1)
    80002504:	01f64633          	xor	a2,a2,t6
    80002508:	06c588a3          	sb	a2,113(a1)
    8000250c:	0194ccb3          	xor	s9,s1,s9
    80002510:	07958923          	sb	s9,114(a1)
    80002514:	018b4b33          	xor	s6,s6,s8
    80002518:	076589a3          	sb	s6,115(a1)
    8000251c:	01a44733          	xor	a4,s0,s10
    80002520:	06e58a23          	sb	a4,116(a1)
    80002524:	01b64733          	xor	a4,a2,s11
    80002528:	06e58aa3          	sb	a4,117(a1)
    8000252c:	014cc733          	xor	a4,s9,s4
    80002530:	06e58b23          	sb	a4,118(a1)
    80002534:	015b4733          	xor	a4,s6,s5
    80002538:	06e58ba3          	sb	a4,119(a1)
    8000253c:	01d44f33          	xor	t5,s0,t4
    80002540:	07e58c23          	sb	t5,120(a1)
    80002544:	01c64fb3          	xor	t6,a2,t3
    80002548:	07f58ca3          	sb	t6,121(a1)
    8000254c:	011cc8b3          	xor	a7,s9,a7
    80002550:	07158d23          	sb	a7,122(a1)
    80002554:	007b43b3          	xor	t2,s6,t2
    80002558:	06758da3          	sb	t2,123(a1)
    8000255c:	010f4733          	xor	a4,t5,a6
    80002560:	06e58e23          	sb	a4,124(a1)
    80002564:	00ffc7b3          	xor	a5,t6,a5
    80002568:	06f58ea3          	sb	a5,125(a1)
    8000256c:	0178c6b3          	xor	a3,a7,s7
    80002570:	06d58f23          	sb	a3,126(a1)
    80002574:	0013c4b3          	xor	s1,t2,ra
    80002578:	06958fa3          	sb	s1,127(a1)
    8000257c:	00828803          	lb	a6,8(t0)
    80002580:	0ff7f793          	zext.b	a5,a5
    80002584:	97aa                	add	a5,a5,a0
    80002586:	00078783          	lb	a5,0(a5)
    8000258a:	00f847b3          	xor	a5,a6,a5
    8000258e:	0ff77713          	zext.b	a4,a4
    80002592:	972a                	add	a4,a4,a0
    80002594:	00070703          	lb	a4,0(a4)
    80002598:	0ff4f493          	zext.b	s1,s1
    8000259c:	94aa                	add	s1,s1,a0
    8000259e:	00048483          	lb	s1,0(s1)
    800025a2:	0ff6f693          	zext.b	a3,a3
    800025a6:	96aa                	add	a3,a3,a0
    800025a8:	00068683          	lb	a3,0(a3)
    800025ac:	0087cbb3          	xor	s7,a5,s0
    800025b0:	09758023          	sb	s7,128(a1)
    800025b4:	00c6cc33          	xor	s8,a3,a2
    800025b8:	098580a3          	sb	s8,129(a1)
    800025bc:	0194ccb3          	xor	s9,s1,s9
    800025c0:	09958123          	sb	s9,130(a1)
    800025c4:	016740b3          	xor	ra,a4,s6
    800025c8:	081581a3          	sb	ra,131(a1)
    800025cc:	01a7c433          	xor	s0,a5,s10
    800025d0:	08858223          	sb	s0,132(a1)
    800025d4:	01b6cb33          	xor	s6,a3,s11
    800025d8:	096582a3          	sb	s6,133(a1)
    800025dc:	0144cd33          	xor	s10,s1,s4
    800025e0:	09a58323          	sb	s10,134(a1)
    800025e4:	01574a33          	xor	s4,a4,s5
    800025e8:	094583a3          	sb	s4,135(a1)
    800025ec:	01e44633          	xor	a2,s0,t5
    800025f0:	08c58423          	sb	a2,136(a1)
    800025f4:	01fb4633          	xor	a2,s6,t6
    800025f8:	08c584a3          	sb	a2,137(a1)
    800025fc:	011d4633          	xor	a2,s10,a7
    80002600:	08c58523          	sb	a2,138(a1)
    80002604:	007a4633          	xor	a2,s4,t2
    80002608:	08c585a3          	sb	a2,139(a1)
    8000260c:	0127ce33          	xor	t3,a5,s2
    80002610:	09c58623          	sb	t3,140(a1)
    80002614:	0136ceb3          	xor	t4,a3,s3
    80002618:	09d586a3          	sb	t4,141(a1)
    8000261c:	6622                	ld	a2,8(sp)
    8000261e:	00c4c333          	xor	t1,s1,a2
    80002622:	08658723          	sb	t1,142(a1)
    80002626:	6642                	ld	a2,16(sp)
    80002628:	00c74833          	xor	a6,a4,a2
    8000262c:	090587a3          	sb	a6,143(a1)
    80002630:	8d96                	mv	s11,t0
    80002632:	00928603          	lb	a2,9(t0)
    80002636:	0ffef693          	zext.b	a3,t4
    8000263a:	96aa                	add	a3,a3,a0
    8000263c:	00068683          	lb	a3,0(a3)
    80002640:	8e35                	xor	a2,a2,a3
    80002642:	0ffe7693          	zext.b	a3,t3
    80002646:	96aa                	add	a3,a3,a0
    80002648:	00068683          	lb	a3,0(a3)
    8000264c:	0ff87713          	zext.b	a4,a6
    80002650:	972a                	add	a4,a4,a0
    80002652:	00070703          	lb	a4,0(a4)
    80002656:	0ff37793          	zext.b	a5,t1
    8000265a:	97aa                	add	a5,a5,a0
    8000265c:	00078783          	lb	a5,0(a5)
    80002660:	01764933          	xor	s2,a2,s7
    80002664:	09258823          	sb	s2,144(a1)
    80002668:	0187c7b3          	xor	a5,a5,s8
    8000266c:	08f588a3          	sb	a5,145(a1)
    80002670:	01974ab3          	xor	s5,a4,s9
    80002674:	09558923          	sb	s5,146(a1)
    80002678:	0016c9b3          	xor	s3,a3,ra
    8000267c:	093589a3          	sb	s3,147(a1)
    80002680:	008944b3          	xor	s1,s2,s0
    80002684:	08958a23          	sb	s1,148(a1)
    80002688:	0167c4b3          	xor	s1,a5,s6
    8000268c:	08958aa3          	sb	s1,149(a1)
    80002690:	01aac4b3          	xor	s1,s5,s10
    80002694:	08958b23          	sb	s1,150(a1)
    80002698:	0149c4b3          	xor	s1,s3,s4
    8000269c:	08958ba3          	sb	s1,151(a1)
    800026a0:	01e94f33          	xor	t5,s2,t5
    800026a4:	09e58c23          	sb	t5,152(a1)
    800026a8:	01f7c2b3          	xor	t0,a5,t6
    800026ac:	08558ca3          	sb	t0,153(a1)
    800026b0:	011ac8b3          	xor	a7,s5,a7
    800026b4:	09158d23          	sb	a7,154(a1)
    800026b8:	0079c3b3          	xor	t2,s3,t2
    800026bc:	08758da3          	sb	t2,155(a1)
    800026c0:	01cf44b3          	xor	s1,t5,t3
    800026c4:	08958e23          	sb	s1,156(a1)
    800026c8:	01d2c633          	xor	a2,t0,t4
    800026cc:	08c58ea3          	sb	a2,157(a1)
    800026d0:	0068c6b3          	xor	a3,a7,t1
    800026d4:	08d58f23          	sb	a3,158(a1)
    800026d8:	0103c733          	xor	a4,t2,a6
    800026dc:	08e58fa3          	sb	a4,159(a1)
    800026e0:	00ad8f83          	lb	t6,10(s11)
    800026e4:	0ff67613          	zext.b	a2,a2
    800026e8:	962a                	add	a2,a2,a0
    800026ea:	00060603          	lb	a2,0(a2)
    800026ee:	00cfc633          	xor	a2,t6,a2
    800026f2:	0ff4f493          	zext.b	s1,s1
    800026f6:	94aa                	add	s1,s1,a0
    800026f8:	00048483          	lb	s1,0(s1)
    800026fc:	0ff77713          	zext.b	a4,a4
    80002700:	972a                	add	a4,a4,a0
    80002702:	00070703          	lb	a4,0(a4)
    80002706:	0ff6f693          	zext.b	a3,a3
    8000270a:	9536                	add	a0,a0,a3
    8000270c:	00050503          	lb	a0,0(a0)
    80002710:	012646b3          	xor	a3,a2,s2
    80002714:	0ad58023          	sb	a3,160(a1)
    80002718:	00f546b3          	xor	a3,a0,a5
    8000271c:	0ad580a3          	sb	a3,161(a1)
    80002720:	015746b3          	xor	a3,a4,s5
    80002724:	0ad58123          	sb	a3,162(a1)
    80002728:	0134c6b3          	xor	a3,s1,s3
    8000272c:	0ad581a3          	sb	a3,163(a1)
    80002730:	8e21                	xor	a2,a2,s0
    80002732:	0ac58223          	sb	a2,164(a1)
    80002736:	01654533          	xor	a0,a0,s6
    8000273a:	0aa582a3          	sb	a0,165(a1)
    8000273e:	01a746b3          	xor	a3,a4,s10
    80002742:	0ad58323          	sb	a3,166(a1)
    80002746:	0144c733          	xor	a4,s1,s4
    8000274a:	0ae583a3          	sb	a4,167(a1)
    8000274e:	01e647b3          	xor	a5,a2,t5
    80002752:	0af58423          	sb	a5,168(a1)
    80002756:	005547b3          	xor	a5,a0,t0
    8000275a:	0af584a3          	sb	a5,169(a1)
    8000275e:	0116c7b3          	xor	a5,a3,a7
    80002762:	0af58523          	sb	a5,170(a1)
    80002766:	007747b3          	xor	a5,a4,t2
    8000276a:	0af585a3          	sb	a5,171(a1)
    8000276e:	01c64633          	xor	a2,a2,t3
    80002772:	0ac58623          	sb	a2,172(a1)
    80002776:	01d54533          	xor	a0,a0,t4
    8000277a:	0aa586a3          	sb	a0,173(a1)
    8000277e:	0066c533          	xor	a0,a3,t1
    80002782:	0aa58723          	sb	a0,174(a1)
    80002786:	01074533          	xor	a0,a4,a6
    8000278a:	0aa587a3          	sb	a0,175(a1)
    8000278e:	70e6                	ld	ra,120(sp)
    80002790:	7446                	ld	s0,112(sp)
    80002792:	74a6                	ld	s1,104(sp)
    80002794:	7906                	ld	s2,96(sp)
    80002796:	69e6                	ld	s3,88(sp)
    80002798:	6a46                	ld	s4,80(sp)
    8000279a:	6aa6                	ld	s5,72(sp)
    8000279c:	6b06                	ld	s6,64(sp)
    8000279e:	7be2                	ld	s7,56(sp)
    800027a0:	7c42                	ld	s8,48(sp)
    800027a2:	7ca2                	ld	s9,40(sp)
    800027a4:	7d02                	ld	s10,32(sp)
    800027a6:	6de2                	ld	s11,24(sp)
    800027a8:	6109                	addi	sp,sp,128
    800027aa:	8082                	ret

00000000800027ac <AES_Encrypt>:
    800027ac:	7139                	addi	sp,sp,-64
    800027ae:	fc06                	sd	ra,56(sp)
    800027b0:	f822                	sd	s0,48(sp)
    800027b2:	f426                	sd	s1,40(sp)
    800027b4:	f04a                	sd	s2,32(sp)
    800027b6:	ec4e                	sd	s3,24(sp)
    800027b8:	e852                	sd	s4,16(sp)
    800027ba:	e456                	sd	s5,8(sp)
    800027bc:	8a36                	mv	s4,a3
    800027be:	8932                	mv	s2,a2
    800027c0:	89aa                	mv	s3,a0
    800027c2:	00002a97          	auipc	s5,0x2
    800027c6:	906a8a93          	addi	s5,s5,-1786 # 800040c8 <expandedKey>
    800027ca:	852e                	mv	a0,a1
    800027cc:	85d6                	mv	a1,s5
    800027ce:	00000097          	auipc	ra,0x0
    800027d2:	83e080e7          	jalr	-1986(ra) # 8000200c <KeyExpansion>
    800027d6:	001a1513          	slli	a0,s4,0x1
    800027da:	9171                	srli	a0,a0,0x3c
    800027dc:	00aa053b          	addw	a0,s4,a0
    800027e0:	40455f1b          	sraiw	t5,a0,0x4
    800027e4:	48c1                	li	a7,16
    800027e6:	020f1813          	slli	a6,t5,0x20
    800027ea:	00002517          	auipc	a0,0x2
    800027ee:	8c650513          	addi	a0,a0,-1850 # 800040b0 <pstate>
    800027f2:	151a4b63          	blt	s4,a7,80002948 <AES_Encrypt+0x19c>
    800027f6:	02085593          	srli	a1,a6,0x20
    800027fa:	46bd                	li	a3,15
    800027fc:	00d98733          	add	a4,s3,a3
    80002800:	ff170783          	lb	a5,-15(a4)
    80002804:	000a8483          	lb	s1,0(s5)
    80002808:	6100                	ld	s0,0(a0)
    8000280a:	8fa5                	xor	a5,a5,s1
    8000280c:	00d404b3          	add	s1,s0,a3
    80002810:	fef488a3          	sb	a5,-15(s1)
    80002814:	ff270783          	lb	a5,-14(a4)
    80002818:	001a8483          	lb	s1,1(s5)
    8000281c:	6100                	ld	s0,0(a0)
    8000281e:	8fa5                	xor	a5,a5,s1
    80002820:	00d404b3          	add	s1,s0,a3
    80002824:	fef48aa3          	sb	a5,-11(s1)
    80002828:	ff370783          	lb	a5,-13(a4)
    8000282c:	002a8483          	lb	s1,2(s5)
    80002830:	6100                	ld	s0,0(a0)
    80002832:	8fa5                	xor	a5,a5,s1
    80002834:	00d404b3          	add	s1,s0,a3
    80002838:	fef48ca3          	sb	a5,-7(s1)
    8000283c:	ff470783          	lb	a5,-12(a4)
    80002840:	003a8483          	lb	s1,3(s5)
    80002844:	6100                	ld	s0,0(a0)
    80002846:	8fa5                	xor	a5,a5,s1
    80002848:	00d404b3          	add	s1,s0,a3
    8000284c:	fef48ea3          	sb	a5,-3(s1)
    80002850:	ff570783          	lb	a5,-11(a4)
    80002854:	004a8483          	lb	s1,4(s5)
    80002858:	6100                	ld	s0,0(a0)
    8000285a:	8fa5                	xor	a5,a5,s1
    8000285c:	00d404b3          	add	s1,s0,a3
    80002860:	fef48923          	sb	a5,-14(s1)
    80002864:	ff670783          	lb	a5,-10(a4)
    80002868:	005a8483          	lb	s1,5(s5)
    8000286c:	6100                	ld	s0,0(a0)
    8000286e:	8fa5                	xor	a5,a5,s1
    80002870:	00d404b3          	add	s1,s0,a3
    80002874:	fef48b23          	sb	a5,-10(s1)
    80002878:	ff770783          	lb	a5,-9(a4)
    8000287c:	006a8483          	lb	s1,6(s5)
    80002880:	6100                	ld	s0,0(a0)
    80002882:	8fa5                	xor	a5,a5,s1
    80002884:	00d404b3          	add	s1,s0,a3
    80002888:	fef48d23          	sb	a5,-6(s1)
    8000288c:	ff870783          	lb	a5,-8(a4)
    80002890:	007a8483          	lb	s1,7(s5)
    80002894:	6100                	ld	s0,0(a0)
    80002896:	8fa5                	xor	a5,a5,s1
    80002898:	00d404b3          	add	s1,s0,a3
    8000289c:	fef48f23          	sb	a5,-2(s1)
    800028a0:	ff970783          	lb	a5,-7(a4)
    800028a4:	008a8483          	lb	s1,8(s5)
    800028a8:	6100                	ld	s0,0(a0)
    800028aa:	8fa5                	xor	a5,a5,s1
    800028ac:	00d404b3          	add	s1,s0,a3
    800028b0:	fef489a3          	sb	a5,-13(s1)
    800028b4:	ffa70783          	lb	a5,-6(a4)
    800028b8:	009a8483          	lb	s1,9(s5)
    800028bc:	6100                	ld	s0,0(a0)
    800028be:	8fa5                	xor	a5,a5,s1
    800028c0:	00d404b3          	add	s1,s0,a3
    800028c4:	fef48ba3          	sb	a5,-9(s1)
    800028c8:	ffb70783          	lb	a5,-5(a4)
    800028cc:	00aa8483          	lb	s1,10(s5)
    800028d0:	6100                	ld	s0,0(a0)
    800028d2:	8fa5                	xor	a5,a5,s1
    800028d4:	00d404b3          	add	s1,s0,a3
    800028d8:	fef48da3          	sb	a5,-5(s1)
    800028dc:	ffc70783          	lb	a5,-4(a4)
    800028e0:	00ba8483          	lb	s1,11(s5)
    800028e4:	6100                	ld	s0,0(a0)
    800028e6:	8fa5                	xor	a5,a5,s1
    800028e8:	00d404b3          	add	s1,s0,a3
    800028ec:	fef48fa3          	sb	a5,-1(s1)
    800028f0:	ffd70783          	lb	a5,-3(a4)
    800028f4:	00ca8483          	lb	s1,12(s5)
    800028f8:	6100                	ld	s0,0(a0)
    800028fa:	8fa5                	xor	a5,a5,s1
    800028fc:	00d404b3          	add	s1,s0,a3
    80002900:	fef48a23          	sb	a5,-12(s1)
    80002904:	ffe70783          	lb	a5,-2(a4)
    80002908:	00da8483          	lb	s1,13(s5)
    8000290c:	6100                	ld	s0,0(a0)
    8000290e:	8fa5                	xor	a5,a5,s1
    80002910:	00d404b3          	add	s1,s0,a3
    80002914:	fef48c23          	sb	a5,-8(s1)
    80002918:	fff70783          	lb	a5,-1(a4)
    8000291c:	00ea8483          	lb	s1,14(s5)
    80002920:	6100                	ld	s0,0(a0)
    80002922:	8fa5                	xor	a5,a5,s1
    80002924:	00d404b3          	add	s1,s0,a3
    80002928:	fef48e23          	sb	a5,-4(s1)
    8000292c:	00070703          	lb	a4,0(a4)
    80002930:	00fa8783          	lb	a5,15(s5)
    80002934:	6104                	ld	s1,0(a0)
    80002936:	8f3d                	xor	a4,a4,a5
    80002938:	00d487b3          	add	a5,s1,a3
    8000293c:	00e78023          	sb	a4,0(a5)
    80002940:	15fd                	addi	a1,a1,-1
    80002942:	06c1                	addi	a3,a3,16
    80002944:	ea059ce3          	bnez	a1,800027fc <AES_Encrypt+0x50>
    80002948:	02085313          	srli	t1,a6,0x20
    8000294c:	4e85                	li	t4,1
    8000294e:	04000e13          	li	t3,64
    80002952:	00001397          	auipc	t2,0x1
    80002956:	76638393          	addi	t2,t2,1894 # 800040b8 <pullstate>
    8000295a:	42a9                	li	t0,10
    8000295c:	a021                	j	80002964 <AES_Encrypt+0x1b8>
    8000295e:	0e85                	addi	t4,t4,1
    80002960:	3c5e8763          	beq	t4,t0,80002d2e <AES_Encrypt+0x582>
    80002964:	15ca4263          	blt	s4,t3,80002aa8 <AES_Encrypt+0x2fc>
    80002968:	0003b683          	ld	a3,0(t2)
    8000296c:	4581                	li	a1,0
    8000296e:	02068693          	addi	a3,a3,32
    80002972:	fe06b703          	ld	a4,-32(a3)
    80002976:	fe86b783          	ld	a5,-24(a3)
    8000297a:	40f7077b          	.insn	4, 0x40f7077b
    8000297e:	ff06b783          	ld	a5,-16(a3)
    80002982:	ff86b483          	ld	s1,-8(a3)
    80002986:	08e7142b          	.insn	4, 0x08e7142b
    8000298a:	a09787fb          	.insn	4, 0xa09787fb
    8000298e:	fee6b023          	sd	a4,-32(a3)
    80002992:	6298                	ld	a4,0(a3)
    80002994:	6684                	ld	s1,8(a3)
    80002996:	fe86b423          	sd	s0,-24(a3)
    8000299a:	4097077b          	.insn	4, 0x4097077b
    8000299e:	fef6b823          	sd	a5,-16(a3)
    800029a2:	6a84                	ld	s1,16(a3)
    800029a4:	6e80                	ld	s0,24(a3)
    800029a6:	14f797ab          	.insn	4, 0x14f797ab
    800029aa:	a08484fb          	.insn	4, 0xa08484fb
    800029ae:	fef6bc23          	sd	a5,-8(a3)
    800029b2:	e298                	sd	a4,0(a3)
    800029b4:	08e7172b          	.insn	4, 0x08e7172b
    800029b8:	e698                	sd	a4,8(a3)
    800029ba:	1494972b          	.insn	4, 0x1494972b
    800029be:	ea84                	sd	s1,16(a3)
    800029c0:	ee98                	sd	a4,24(a3)
    800029c2:	2591                	addiw	a1,a1,4
    800029c4:	0035e713          	ori	a4,a1,3
    800029c8:	04068693          	addi	a3,a3,64
    800029cc:	fbe743e3          	blt	a4,t5,80002972 <AES_Encrypt+0x1c6>
    800029d0:	0dca4c63          	blt	s4,t3,80002aa8 <AES_Encrypt+0x2fc>
    800029d4:	0003b683          	ld	a3,0(t2)
    800029d8:	4581                	li	a1,0
    800029da:	02068693          	addi	a3,a3,32
    800029de:	fe06b703          	ld	a4,-32(a3)
    800029e2:	fe86b783          	ld	a5,-24(a3)
    800029e6:	20f7077b          	.insn	4, 0x20f7077b
    800029ea:	ff06b783          	ld	a5,-16(a3)
    800029ee:	ff86b483          	ld	s1,-8(a3)
    800029f2:	809787fb          	.insn	4, 0x809787fb
    800029f6:	6284                	ld	s1,0(a3)
    800029f8:	6680                	ld	s0,8(a3)
    800029fa:	e08484fb          	.insn	4, 0xe08484fb
    800029fe:	04e7142b          	.insn	4, 0x04e7142b
    80002a02:	fee6b023          	sd	a4,-32(a3)
    80002a06:	6a98                	ld	a4,16(a3)
    80002a08:	6e90                	ld	a2,24(a3)
    80002a0a:	fe86b423          	sd	s0,-24(a3)
    80002a0e:	20c7067b          	.insn	4, 0x20c7067b
    80002a12:	fef6b823          	sd	a5,-16(a3)
    80002a16:	10f7972b          	.insn	4, 0x10f7972b
    80002a1a:	fee6bc23          	sd	a4,-8(a3)
    80002a1e:	e284                	sd	s1,0(a3)
    80002a20:	1c94972b          	.insn	4, 0x1c94972b
    80002a24:	e698                	sd	a4,8(a3)
    80002a26:	04c6172b          	.insn	4, 0x04c6172b
    80002a2a:	ea90                	sd	a2,16(a3)
    80002a2c:	ee98                	sd	a4,24(a3)
    80002a2e:	2591                	addiw	a1,a1,4
    80002a30:	0035e613          	ori	a2,a1,3
    80002a34:	04068693          	addi	a3,a3,64
    80002a38:	fbe643e3          	blt	a2,t5,800029de <AES_Encrypt+0x232>
    80002a3c:	07ca4663          	blt	s4,t3,80002aa8 <AES_Encrypt+0x2fc>
    80002a40:	0003b683          	ld	a3,0(t2)
    80002a44:	4581                	li	a1,0
    80002a46:	02068693          	addi	a3,a3,32
    80002a4a:	fe06b603          	ld	a2,-32(a3)
    80002a4e:	fe86b703          	ld	a4,-24(a3)
    80002a52:	00e6067b          	.insn	4, 0x00e6067b
    80002a56:	ff06b703          	ld	a4,-16(a3)
    80002a5a:	ff86b783          	ld	a5,-8(a3)
    80002a5e:	60f7077b          	.insn	4, 0x60f7077b
    80002a62:	629c                	ld	a5,0(a3)
    80002a64:	6684                	ld	s1,8(a3)
    80002a66:	00c6142b          	.insn	4, 0x00c6142b
    80002a6a:	c09787fb          	.insn	4, 0xc09787fb
    80002a6e:	fec6b023          	sd	a2,-32(a3)
    80002a72:	6a90                	ld	a2,16(a3)
    80002a74:	6e84                	ld	s1,24(a3)
    80002a76:	fe86b423          	sd	s0,-24(a3)
    80002a7a:	0096067b          	.insn	4, 0x0096067b
    80002a7e:	fee6b823          	sd	a4,-16(a3)
    80002a82:	0ce7172b          	.insn	4, 0x0ce7172b
    80002a86:	fee6bc23          	sd	a4,-8(a3)
    80002a8a:	e29c                	sd	a5,0(a3)
    80002a8c:	18f7972b          	.insn	4, 0x18f7972b
    80002a90:	e698                	sd	a4,8(a3)
    80002a92:	00c6172b          	.insn	4, 0x00c6172b
    80002a96:	ea90                	sd	a2,16(a3)
    80002a98:	ee98                	sd	a4,24(a3)
    80002a9a:	2591                	addiw	a1,a1,4
    80002a9c:	0035e613          	ori	a2,a1,3
    80002aa0:	04068693          	addi	a3,a3,64
    80002aa4:	fbe643e3          	blt	a2,t5,80002a4a <AES_Encrypt+0x29e>
    80002aa8:	eb1a4be3          	blt	s4,a7,8000295e <AES_Encrypt+0x1b2>
    80002aac:	004e9593          	slli	a1,t4,0x4
    80002ab0:	00ba87b3          	add	a5,s5,a1
    80002ab4:	00178f93          	addi	t6,a5,1
    80002ab8:	00278993          	addi	s3,a5,2
    80002abc:	00378493          	addi	s1,a5,3
    80002ac0:	443d                	li	s0,15
    80002ac2:	859a                	mv	a1,t1
    80002ac4:	6110                	ld	a2,0(a0)
    80002ac6:	00078683          	lb	a3,0(a5)
    80002aca:	9622                	add	a2,a2,s0
    80002acc:	ff160703          	lb	a4,-15(a2)
    80002ad0:	8eb9                	xor	a3,a3,a4
    80002ad2:	fed608a3          	sb	a3,-15(a2)
    80002ad6:	6110                	ld	a2,0(a0)
    80002ad8:	000f8683          	lb	a3,0(t6)
    80002adc:	9622                	add	a2,a2,s0
    80002ade:	ff260703          	lb	a4,-14(a2)
    80002ae2:	8eb9                	xor	a3,a3,a4
    80002ae4:	fed60923          	sb	a3,-14(a2)
    80002ae8:	6110                	ld	a2,0(a0)
    80002aea:	00098683          	lb	a3,0(s3)
    80002aee:	9622                	add	a2,a2,s0
    80002af0:	ff360703          	lb	a4,-13(a2)
    80002af4:	8eb9                	xor	a3,a3,a4
    80002af6:	fed609a3          	sb	a3,-13(a2)
    80002afa:	6110                	ld	a2,0(a0)
    80002afc:	00048683          	lb	a3,0(s1)
    80002b00:	9622                	add	a2,a2,s0
    80002b02:	ff460703          	lb	a4,-12(a2)
    80002b06:	8eb9                	xor	a3,a3,a4
    80002b08:	fed60a23          	sb	a3,-12(a2)
    80002b0c:	6110                	ld	a2,0(a0)
    80002b0e:	00478683          	lb	a3,4(a5)
    80002b12:	9622                	add	a2,a2,s0
    80002b14:	ff560703          	lb	a4,-11(a2)
    80002b18:	8eb9                	xor	a3,a3,a4
    80002b1a:	fed60aa3          	sb	a3,-11(a2)
    80002b1e:	6110                	ld	a2,0(a0)
    80002b20:	00578683          	lb	a3,5(a5)
    80002b24:	9622                	add	a2,a2,s0
    80002b26:	ff660703          	lb	a4,-10(a2)
    80002b2a:	8eb9                	xor	a3,a3,a4
    80002b2c:	fed60b23          	sb	a3,-10(a2)
    80002b30:	6110                	ld	a2,0(a0)
    80002b32:	00678683          	lb	a3,6(a5)
    80002b36:	9622                	add	a2,a2,s0
    80002b38:	ff760703          	lb	a4,-9(a2)
    80002b3c:	8eb9                	xor	a3,a3,a4
    80002b3e:	fed60ba3          	sb	a3,-9(a2)
    80002b42:	6110                	ld	a2,0(a0)
    80002b44:	00778683          	lb	a3,7(a5)
    80002b48:	9622                	add	a2,a2,s0
    80002b4a:	ff860703          	lb	a4,-8(a2)
    80002b4e:	8eb9                	xor	a3,a3,a4
    80002b50:	fed60c23          	sb	a3,-8(a2)
    80002b54:	6110                	ld	a2,0(a0)
    80002b56:	00878683          	lb	a3,8(a5)
    80002b5a:	9622                	add	a2,a2,s0
    80002b5c:	ff960703          	lb	a4,-7(a2)
    80002b60:	8eb9                	xor	a3,a3,a4
    80002b62:	fed60ca3          	sb	a3,-7(a2)
    80002b66:	6110                	ld	a2,0(a0)
    80002b68:	00978683          	lb	a3,9(a5)
    80002b6c:	9622                	add	a2,a2,s0
    80002b6e:	ffa60703          	lb	a4,-6(a2)
    80002b72:	8eb9                	xor	a3,a3,a4
    80002b74:	fed60d23          	sb	a3,-6(a2)
    80002b78:	6110                	ld	a2,0(a0)
    80002b7a:	00a78683          	lb	a3,10(a5)
    80002b7e:	9622                	add	a2,a2,s0
    80002b80:	ffb60703          	lb	a4,-5(a2)
    80002b84:	8eb9                	xor	a3,a3,a4
    80002b86:	fed60da3          	sb	a3,-5(a2)
    80002b8a:	6110                	ld	a2,0(a0)
    80002b8c:	00b78683          	lb	a3,11(a5)
    80002b90:	9622                	add	a2,a2,s0
    80002b92:	ffc60703          	lb	a4,-4(a2)
    80002b96:	8eb9                	xor	a3,a3,a4
    80002b98:	fed60e23          	sb	a3,-4(a2)
    80002b9c:	6110                	ld	a2,0(a0)
    80002b9e:	00c78683          	lb	a3,12(a5)
    80002ba2:	9622                	add	a2,a2,s0
    80002ba4:	ffd60703          	lb	a4,-3(a2)
    80002ba8:	8eb9                	xor	a3,a3,a4
    80002baa:	fed60ea3          	sb	a3,-3(a2)
    80002bae:	6110                	ld	a2,0(a0)
    80002bb0:	00d78683          	lb	a3,13(a5)
    80002bb4:	9622                	add	a2,a2,s0
    80002bb6:	ffe60703          	lb	a4,-2(a2)
    80002bba:	8eb9                	xor	a3,a3,a4
    80002bbc:	fed60f23          	sb	a3,-2(a2)
    80002bc0:	6110                	ld	a2,0(a0)
    80002bc2:	00e78683          	lb	a3,14(a5)
    80002bc6:	9622                	add	a2,a2,s0
    80002bc8:	fff60703          	lb	a4,-1(a2)
    80002bcc:	8eb9                	xor	a3,a3,a4
    80002bce:	fed60fa3          	sb	a3,-1(a2)
    80002bd2:	6110                	ld	a2,0(a0)
    80002bd4:	00f78683          	lb	a3,15(a5)
    80002bd8:	9622                	add	a2,a2,s0
    80002bda:	00060703          	lb	a4,0(a2)
    80002bde:	8eb9                	xor	a3,a3,a4
    80002be0:	00d60023          	sb	a3,0(a2)
    80002be4:	15fd                	addi	a1,a1,-1
    80002be6:	0441                	addi	s0,s0,16
    80002be8:	ec059ee3          	bnez	a1,80002ac4 <AES_Encrypt+0x318>
    80002bec:	0e85                	addi	t4,t4,1
    80002bee:	d65e9be3          	bne	t4,t0,80002964 <AES_Encrypt+0x1b8>
    80002bf2:	45c1                	li	a1,16
    80002bf4:	12ba4d63          	blt	s4,a1,80002d2e <AES_Encrypt+0x582>
    80002bf8:	02085593          	srli	a1,a6,0x20
    80002bfc:	46bd                	li	a3,15
    80002bfe:	00001717          	auipc	a4,0x1
    80002c02:	1eb70713          	addi	a4,a4,491 # 80003de9 <sbox>
    80002c06:	6110                	ld	a2,0(a0)
    80002c08:	9636                	add	a2,a2,a3
    80002c0a:	ff164783          	lbu	a5,-15(a2)
    80002c0e:	97ba                	add	a5,a5,a4
    80002c10:	00078783          	lb	a5,0(a5)
    80002c14:	fef608a3          	sb	a5,-15(a2)
    80002c18:	6110                	ld	a2,0(a0)
    80002c1a:	9636                	add	a2,a2,a3
    80002c1c:	ff264783          	lbu	a5,-14(a2)
    80002c20:	97ba                	add	a5,a5,a4
    80002c22:	00078783          	lb	a5,0(a5)
    80002c26:	fef60923          	sb	a5,-14(a2)
    80002c2a:	6110                	ld	a2,0(a0)
    80002c2c:	9636                	add	a2,a2,a3
    80002c2e:	ff364783          	lbu	a5,-13(a2)
    80002c32:	97ba                	add	a5,a5,a4
    80002c34:	00078783          	lb	a5,0(a5)
    80002c38:	fef609a3          	sb	a5,-13(a2)
    80002c3c:	6110                	ld	a2,0(a0)
    80002c3e:	9636                	add	a2,a2,a3
    80002c40:	ff464783          	lbu	a5,-12(a2)
    80002c44:	97ba                	add	a5,a5,a4
    80002c46:	00078783          	lb	a5,0(a5)
    80002c4a:	fef60a23          	sb	a5,-12(a2)
    80002c4e:	6110                	ld	a2,0(a0)
    80002c50:	9636                	add	a2,a2,a3
    80002c52:	ff564783          	lbu	a5,-11(a2)
    80002c56:	97ba                	add	a5,a5,a4
    80002c58:	00078783          	lb	a5,0(a5)
    80002c5c:	fef60aa3          	sb	a5,-11(a2)
    80002c60:	6110                	ld	a2,0(a0)
    80002c62:	9636                	add	a2,a2,a3
    80002c64:	ff664783          	lbu	a5,-10(a2)
    80002c68:	97ba                	add	a5,a5,a4
    80002c6a:	00078783          	lb	a5,0(a5)
    80002c6e:	fef60b23          	sb	a5,-10(a2)
    80002c72:	6110                	ld	a2,0(a0)
    80002c74:	9636                	add	a2,a2,a3
    80002c76:	ff764783          	lbu	a5,-9(a2)
    80002c7a:	97ba                	add	a5,a5,a4
    80002c7c:	00078783          	lb	a5,0(a5)
    80002c80:	fef60ba3          	sb	a5,-9(a2)
    80002c84:	6110                	ld	a2,0(a0)
    80002c86:	9636                	add	a2,a2,a3
    80002c88:	ff864783          	lbu	a5,-8(a2)
    80002c8c:	97ba                	add	a5,a5,a4
    80002c8e:	00078783          	lb	a5,0(a5)
    80002c92:	fef60c23          	sb	a5,-8(a2)
    80002c96:	6110                	ld	a2,0(a0)
    80002c98:	9636                	add	a2,a2,a3
    80002c9a:	ff964783          	lbu	a5,-7(a2)
    80002c9e:	97ba                	add	a5,a5,a4
    80002ca0:	00078783          	lb	a5,0(a5)
    80002ca4:	fef60ca3          	sb	a5,-7(a2)
    80002ca8:	6110                	ld	a2,0(a0)
    80002caa:	9636                	add	a2,a2,a3
    80002cac:	ffa64783          	lbu	a5,-6(a2)
    80002cb0:	97ba                	add	a5,a5,a4
    80002cb2:	00078783          	lb	a5,0(a5)
    80002cb6:	fef60d23          	sb	a5,-6(a2)
    80002cba:	6110                	ld	a2,0(a0)
    80002cbc:	9636                	add	a2,a2,a3
    80002cbe:	ffb64783          	lbu	a5,-5(a2)
    80002cc2:	97ba                	add	a5,a5,a4
    80002cc4:	00078783          	lb	a5,0(a5)
    80002cc8:	fef60da3          	sb	a5,-5(a2)
    80002ccc:	6110                	ld	a2,0(a0)
    80002cce:	9636                	add	a2,a2,a3
    80002cd0:	ffc64783          	lbu	a5,-4(a2)
    80002cd4:	97ba                	add	a5,a5,a4
    80002cd6:	00078783          	lb	a5,0(a5)
    80002cda:	fef60e23          	sb	a5,-4(a2)
    80002cde:	6110                	ld	a2,0(a0)
    80002ce0:	9636                	add	a2,a2,a3
    80002ce2:	ffd64783          	lbu	a5,-3(a2)
    80002ce6:	97ba                	add	a5,a5,a4
    80002ce8:	00078783          	lb	a5,0(a5)
    80002cec:	fef60ea3          	sb	a5,-3(a2)
    80002cf0:	6110                	ld	a2,0(a0)
    80002cf2:	9636                	add	a2,a2,a3
    80002cf4:	ffe64783          	lbu	a5,-2(a2)
    80002cf8:	97ba                	add	a5,a5,a4
    80002cfa:	00078783          	lb	a5,0(a5)
    80002cfe:	fef60f23          	sb	a5,-2(a2)
    80002d02:	6110                	ld	a2,0(a0)
    80002d04:	9636                	add	a2,a2,a3
    80002d06:	fff64783          	lbu	a5,-1(a2)
    80002d0a:	97ba                	add	a5,a5,a4
    80002d0c:	00078783          	lb	a5,0(a5)
    80002d10:	fef60fa3          	sb	a5,-1(a2)
    80002d14:	6110                	ld	a2,0(a0)
    80002d16:	9636                	add	a2,a2,a3
    80002d18:	00064783          	lbu	a5,0(a2)
    80002d1c:	97ba                	add	a5,a5,a4
    80002d1e:	00078783          	lb	a5,0(a5)
    80002d22:	00f60023          	sb	a5,0(a2)
    80002d26:	15fd                	addi	a1,a1,-1
    80002d28:	06c1                	addi	a3,a3,16
    80002d2a:	ec059ee3          	bnez	a1,80002c06 <AES_Encrypt+0x45a>
    80002d2e:	04000593          	li	a1,64
    80002d32:	06ba4663          	blt	s4,a1,80002d9e <AES_Encrypt+0x5f2>
    80002d36:	0003b603          	ld	a2,0(t2)
    80002d3a:	4581                	li	a1,0
    80002d3c:	02060693          	addi	a3,a2,32
    80002d40:	fe06b603          	ld	a2,-32(a3)
    80002d44:	fe86b703          	ld	a4,-24(a3)
    80002d48:	20e6067b          	.insn	4, 0x20e6067b
    80002d4c:	ff06b703          	ld	a4,-16(a3)
    80002d50:	ff86b783          	ld	a5,-8(a3)
    80002d54:	80f7077b          	.insn	4, 0x80f7077b
    80002d58:	629c                	ld	a5,0(a3)
    80002d5a:	6684                	ld	s1,8(a3)
    80002d5c:	e09787fb          	.insn	4, 0xe09787fb
    80002d60:	04c614ab          	.insn	4, 0x04c614ab
    80002d64:	fec6b023          	sd	a2,-32(a3)
    80002d68:	6a90                	ld	a2,16(a3)
    80002d6a:	6e80                	ld	s0,24(a3)
    80002d6c:	fe96b423          	sd	s1,-24(a3)
    80002d70:	2086067b          	.insn	4, 0x2086067b
    80002d74:	fee6b823          	sd	a4,-16(a3)
    80002d78:	10e7172b          	.insn	4, 0x10e7172b
    80002d7c:	fee6bc23          	sd	a4,-8(a3)
    80002d80:	e29c                	sd	a5,0(a3)
    80002d82:	1cf7972b          	.insn	4, 0x1cf7972b
    80002d86:	e698                	sd	a4,8(a3)
    80002d88:	04c6172b          	.insn	4, 0x04c6172b
    80002d8c:	ea90                	sd	a2,16(a3)
    80002d8e:	ee98                	sd	a4,24(a3)
    80002d90:	2591                	addiw	a1,a1,4
    80002d92:	0035e613          	ori	a2,a1,3
    80002d96:	04068693          	addi	a3,a3,64
    80002d9a:	fbe643e3          	blt	a2,t5,80002d40 <AES_Encrypt+0x594>
    80002d9e:	45c1                	li	a1,16
    80002da0:	20ba4463          	blt	s4,a1,80002fa8 <AES_Encrypt+0x7fc>
    80002da4:	02085593          	srli	a1,a6,0x20
    80002da8:	463d                	li	a2,15
    80002daa:	6114                	ld	a3,0(a0)
    80002dac:	0a0a8703          	lb	a4,160(s5)
    80002db0:	96b2                	add	a3,a3,a2
    80002db2:	ff168783          	lb	a5,-15(a3)
    80002db6:	8f3d                	xor	a4,a4,a5
    80002db8:	fee688a3          	sb	a4,-15(a3)
    80002dbc:	6114                	ld	a3,0(a0)
    80002dbe:	0a1a8703          	lb	a4,161(s5)
    80002dc2:	96b2                	add	a3,a3,a2
    80002dc4:	ff268783          	lb	a5,-14(a3)
    80002dc8:	8f3d                	xor	a4,a4,a5
    80002dca:	fee68923          	sb	a4,-14(a3)
    80002dce:	6114                	ld	a3,0(a0)
    80002dd0:	0a2a8703          	lb	a4,162(s5)
    80002dd4:	96b2                	add	a3,a3,a2
    80002dd6:	ff368783          	lb	a5,-13(a3)
    80002dda:	8f3d                	xor	a4,a4,a5
    80002ddc:	fee689a3          	sb	a4,-13(a3)
    80002de0:	6114                	ld	a3,0(a0)
    80002de2:	0a3a8703          	lb	a4,163(s5)
    80002de6:	96b2                	add	a3,a3,a2
    80002de8:	ff468783          	lb	a5,-12(a3)
    80002dec:	8f3d                	xor	a4,a4,a5
    80002dee:	fee68a23          	sb	a4,-12(a3)
    80002df2:	6114                	ld	a3,0(a0)
    80002df4:	0a4a8703          	lb	a4,164(s5)
    80002df8:	96b2                	add	a3,a3,a2
    80002dfa:	ff568783          	lb	a5,-11(a3)
    80002dfe:	8f3d                	xor	a4,a4,a5
    80002e00:	fee68aa3          	sb	a4,-11(a3)
    80002e04:	6114                	ld	a3,0(a0)
    80002e06:	0a5a8703          	lb	a4,165(s5)
    80002e0a:	96b2                	add	a3,a3,a2
    80002e0c:	ff668783          	lb	a5,-10(a3)
    80002e10:	8f3d                	xor	a4,a4,a5
    80002e12:	fee68b23          	sb	a4,-10(a3)
    80002e16:	6114                	ld	a3,0(a0)
    80002e18:	0a6a8703          	lb	a4,166(s5)
    80002e1c:	96b2                	add	a3,a3,a2
    80002e1e:	ff768783          	lb	a5,-9(a3)
    80002e22:	8f3d                	xor	a4,a4,a5
    80002e24:	fee68ba3          	sb	a4,-9(a3)
    80002e28:	6114                	ld	a3,0(a0)
    80002e2a:	0a7a8703          	lb	a4,167(s5)
    80002e2e:	96b2                	add	a3,a3,a2
    80002e30:	ff868783          	lb	a5,-8(a3)
    80002e34:	8f3d                	xor	a4,a4,a5
    80002e36:	fee68c23          	sb	a4,-8(a3)
    80002e3a:	6114                	ld	a3,0(a0)
    80002e3c:	0a8a8703          	lb	a4,168(s5)
    80002e40:	96b2                	add	a3,a3,a2
    80002e42:	ff968783          	lb	a5,-7(a3)
    80002e46:	8f3d                	xor	a4,a4,a5
    80002e48:	fee68ca3          	sb	a4,-7(a3)
    80002e4c:	6114                	ld	a3,0(a0)
    80002e4e:	0a9a8703          	lb	a4,169(s5)
    80002e52:	96b2                	add	a3,a3,a2
    80002e54:	ffa68783          	lb	a5,-6(a3)
    80002e58:	8f3d                	xor	a4,a4,a5
    80002e5a:	fee68d23          	sb	a4,-6(a3)
    80002e5e:	6114                	ld	a3,0(a0)
    80002e60:	0aaa8703          	lb	a4,170(s5)
    80002e64:	96b2                	add	a3,a3,a2
    80002e66:	ffb68783          	lb	a5,-5(a3)
    80002e6a:	8f3d                	xor	a4,a4,a5
    80002e6c:	fee68da3          	sb	a4,-5(a3)
    80002e70:	6114                	ld	a3,0(a0)
    80002e72:	0aba8703          	lb	a4,171(s5)
    80002e76:	96b2                	add	a3,a3,a2
    80002e78:	ffc68783          	lb	a5,-4(a3)
    80002e7c:	8f3d                	xor	a4,a4,a5
    80002e7e:	fee68e23          	sb	a4,-4(a3)
    80002e82:	6114                	ld	a3,0(a0)
    80002e84:	0aca8703          	lb	a4,172(s5)
    80002e88:	96b2                	add	a3,a3,a2
    80002e8a:	ffd68783          	lb	a5,-3(a3)
    80002e8e:	8f3d                	xor	a4,a4,a5
    80002e90:	fee68ea3          	sb	a4,-3(a3)
    80002e94:	6114                	ld	a3,0(a0)
    80002e96:	0ada8703          	lb	a4,173(s5)
    80002e9a:	96b2                	add	a3,a3,a2
    80002e9c:	ffe68783          	lb	a5,-2(a3)
    80002ea0:	8f3d                	xor	a4,a4,a5
    80002ea2:	fee68f23          	sb	a4,-2(a3)
    80002ea6:	6114                	ld	a3,0(a0)
    80002ea8:	0aea8703          	lb	a4,174(s5)
    80002eac:	96b2                	add	a3,a3,a2
    80002eae:	fff68783          	lb	a5,-1(a3)
    80002eb2:	8f3d                	xor	a4,a4,a5
    80002eb4:	fee68fa3          	sb	a4,-1(a3)
    80002eb8:	6114                	ld	a3,0(a0)
    80002eba:	0afa8703          	lb	a4,175(s5)
    80002ebe:	96b2                	add	a3,a3,a2
    80002ec0:	00068783          	lb	a5,0(a3)
    80002ec4:	8f3d                	xor	a4,a4,a5
    80002ec6:	00e68023          	sb	a4,0(a3)
    80002eca:	15fd                	addi	a1,a1,-1
    80002ecc:	0641                	addi	a2,a2,16
    80002ece:	ec059ee3          	bnez	a1,80002daa <AES_Encrypt+0x5fe>
    80002ed2:	45c1                	li	a1,16
    80002ed4:	0cba4a63          	blt	s4,a1,80002fa8 <AES_Encrypt+0x7fc>
    80002ed8:	02085593          	srli	a1,a6,0x20
    80002edc:	463d                	li	a2,15
    80002ede:	6114                	ld	a3,0(a0)
    80002ee0:	96b2                	add	a3,a3,a2
    80002ee2:	ff168703          	lb	a4,-15(a3)
    80002ee6:	00c906b3          	add	a3,s2,a2
    80002eea:	fee688a3          	sb	a4,-15(a3)
    80002eee:	6118                	ld	a4,0(a0)
    80002ef0:	9732                	add	a4,a4,a2
    80002ef2:	ff570703          	lb	a4,-11(a4)
    80002ef6:	fee68923          	sb	a4,-14(a3)
    80002efa:	6118                	ld	a4,0(a0)
    80002efc:	9732                	add	a4,a4,a2
    80002efe:	ff970703          	lb	a4,-7(a4)
    80002f02:	fee689a3          	sb	a4,-13(a3)
    80002f06:	6118                	ld	a4,0(a0)
    80002f08:	9732                	add	a4,a4,a2
    80002f0a:	ffd70703          	lb	a4,-3(a4)
    80002f0e:	fee68a23          	sb	a4,-12(a3)
    80002f12:	6118                	ld	a4,0(a0)
    80002f14:	9732                	add	a4,a4,a2
    80002f16:	ff270703          	lb	a4,-14(a4)
    80002f1a:	fee68aa3          	sb	a4,-11(a3)
    80002f1e:	6118                	ld	a4,0(a0)
    80002f20:	9732                	add	a4,a4,a2
    80002f22:	ff670703          	lb	a4,-10(a4)
    80002f26:	fee68b23          	sb	a4,-10(a3)
    80002f2a:	6118                	ld	a4,0(a0)
    80002f2c:	9732                	add	a4,a4,a2
    80002f2e:	ffa70703          	lb	a4,-6(a4)
    80002f32:	fee68ba3          	sb	a4,-9(a3)
    80002f36:	6118                	ld	a4,0(a0)
    80002f38:	9732                	add	a4,a4,a2
    80002f3a:	ffe70703          	lb	a4,-2(a4)
    80002f3e:	fee68c23          	sb	a4,-8(a3)
    80002f42:	6118                	ld	a4,0(a0)
    80002f44:	9732                	add	a4,a4,a2
    80002f46:	ff370703          	lb	a4,-13(a4)
    80002f4a:	fee68ca3          	sb	a4,-7(a3)
    80002f4e:	6118                	ld	a4,0(a0)
    80002f50:	9732                	add	a4,a4,a2
    80002f52:	ff770703          	lb	a4,-9(a4)
    80002f56:	fee68d23          	sb	a4,-6(a3)
    80002f5a:	6118                	ld	a4,0(a0)
    80002f5c:	9732                	add	a4,a4,a2
    80002f5e:	ffb70703          	lb	a4,-5(a4)
    80002f62:	fee68da3          	sb	a4,-5(a3)
    80002f66:	6118                	ld	a4,0(a0)
    80002f68:	9732                	add	a4,a4,a2
    80002f6a:	fff70703          	lb	a4,-1(a4)
    80002f6e:	fee68e23          	sb	a4,-4(a3)
    80002f72:	6118                	ld	a4,0(a0)
    80002f74:	9732                	add	a4,a4,a2
    80002f76:	ff470703          	lb	a4,-12(a4)
    80002f7a:	fee68ea3          	sb	a4,-3(a3)
    80002f7e:	6118                	ld	a4,0(a0)
    80002f80:	9732                	add	a4,a4,a2
    80002f82:	ff870703          	lb	a4,-8(a4)
    80002f86:	fee68f23          	sb	a4,-2(a3)
    80002f8a:	6118                	ld	a4,0(a0)
    80002f8c:	9732                	add	a4,a4,a2
    80002f8e:	ffc70703          	lb	a4,-4(a4)
    80002f92:	fee68fa3          	sb	a4,-1(a3)
    80002f96:	6118                	ld	a4,0(a0)
    80002f98:	9732                	add	a4,a4,a2
    80002f9a:	00070703          	lb	a4,0(a4)
    80002f9e:	00e68023          	sb	a4,0(a3)
    80002fa2:	15fd                	addi	a1,a1,-1
    80002fa4:	0641                	addi	a2,a2,16
    80002fa6:	fd85                	bnez	a1,80002ede <AES_Encrypt+0x732>
    80002fa8:	70e2                	ld	ra,56(sp)
    80002faa:	7442                	ld	s0,48(sp)
    80002fac:	74a2                	ld	s1,40(sp)
    80002fae:	7902                	ld	s2,32(sp)
    80002fb0:	69e2                	ld	s3,24(sp)
    80002fb2:	6a42                	ld	s4,16(sp)
    80002fb4:	6aa2                	ld	s5,8(sp)
    80002fb6:	6121                	addi	sp,sp,64
    80002fb8:	8082                	ret

0000000080002fba <main>:
    80002fba:	1141                	addi	sp,sp,-16
    80002fbc:	e406                	sd	ra,8(sp)
    80002fbe:	e022                	sd	s0,0(sp)
    80002fc0:	00001517          	auipc	a0,0x1
    80002fc4:	0f050513          	addi	a0,a0,240 # 800040b0 <pstate>
    80002fc8:	00001597          	auipc	a1,0x1
    80002fcc:	1b058593          	addi	a1,a1,432 # 80004178 <pintstate>
    80002fd0:	e10c                	sd	a1,0(a0)
    80002fd2:	00001517          	auipc	a0,0x1
    80002fd6:	0e650513          	addi	a0,a0,230 # 800040b8 <pullstate>
    80002fda:	e10c                	sd	a1,0(a0)
    80002fdc:	b0002473          	csrr	s0,mcycle
    80002fe0:	00001517          	auipc	a0,0x1
    80002fe4:	f1450513          	addi	a0,a0,-236 # 80003ef4 <plaintext>
    80002fe8:	00001597          	auipc	a1,0x1
    80002fec:	08c58593          	addi	a1,a1,140 # 80004074 <key>
    80002ff0:	00003617          	auipc	a2,0x3
    80002ff4:	98860613          	addi	a2,a2,-1656 # 80005978 <encrypted>
    80002ff8:	18000693          	li	a3,384
    80002ffc:	fffff097          	auipc	ra,0xfffff
    80003000:	7b0080e7          	jalr	1968(ra) # 800027ac <AES_Encrypt>
    80003004:	b0002573          	csrr	a0,mcycle
    80003008:	9d01                	subw	a0,a0,s0
    8000300a:	60a2                	ld	ra,8(sp)
    8000300c:	6402                	ld	s0,0(sp)
    8000300e:	0141                	addi	sp,sp,16
    80003010:	8082                	ret

0000000080003012 <vprintfmt>:
    80003012:	7149                	addi	sp,sp,-368
    80003014:	f2a2                	sd	s0,352(sp)
    80003016:	eea6                	sd	s1,344(sp)
    80003018:	eaca                	sd	s2,336(sp)
    8000301a:	e2d2                	sd	s4,320(sp)
    8000301c:	fe56                	sd	s5,312(sp)
    8000301e:	fa5a                	sd	s6,304(sp)
    80003020:	f65e                	sd	s7,296(sp)
    80003022:	f686                	sd	ra,360(sp)
    80003024:	e6ce                	sd	s3,328(sp)
    80003026:	f262                	sd	s8,288(sp)
    80003028:	ee66                	sd	s9,280(sp)
    8000302a:	e66e                	sd	s11,264(sp)
    8000302c:	892a                	mv	s2,a0
    8000302e:	84ae                	mv	s1,a1
    80003030:	8432                	mv	s0,a2
    80003032:	8bb6                	mv	s7,a3
    80003034:	02500a13          	li	s4,37
    80003038:	05500b13          	li	s6,85
    8000303c:	00001a97          	auipc	s5,0x1
    80003040:	c08a8a93          	addi	s5,s5,-1016 # 80003c44 <Nr+0x4>
    80003044:	a029                	j	8000304e <vprintfmt+0x3c>
    80003046:	cd1d                	beqz	a0,80003084 <vprintfmt+0x72>
    80003048:	85a6                	mv	a1,s1
    8000304a:	0405                	addi	s0,s0,1
    8000304c:	9902                	jalr	s2
    8000304e:	00044503          	lbu	a0,0(s0)
    80003052:	ff451ae3          	bne	a0,s4,80003046 <vprintfmt+0x34>
    80003056:	00144683          	lbu	a3,1(s0)
    8000305a:	00140993          	addi	s3,s0,1
    8000305e:	874e                	mv	a4,s3
    80003060:	02000c93          	li	s9,32
    80003064:	5c7d                	li	s8,-1
    80003066:	5dfd                	li	s11,-1
    80003068:	4581                	li	a1,0
    8000306a:	fdd6879b          	addiw	a5,a3,-35
    8000306e:	0ff7f793          	zext.b	a5,a5
    80003072:	00170413          	addi	s0,a4,1
    80003076:	04fb6163          	bltu	s6,a5,800030b8 <vprintfmt+0xa6>
    8000307a:	078a                	slli	a5,a5,0x2
    8000307c:	97d6                	add	a5,a5,s5
    8000307e:	439c                	lw	a5,0(a5)
    80003080:	97d6                	add	a5,a5,s5
    80003082:	8782                	jr	a5
    80003084:	70b6                	ld	ra,360(sp)
    80003086:	7416                	ld	s0,352(sp)
    80003088:	64f6                	ld	s1,344(sp)
    8000308a:	6956                	ld	s2,336(sp)
    8000308c:	69b6                	ld	s3,328(sp)
    8000308e:	6a16                	ld	s4,320(sp)
    80003090:	7af2                	ld	s5,312(sp)
    80003092:	7b52                	ld	s6,304(sp)
    80003094:	7bb2                	ld	s7,296(sp)
    80003096:	7c12                	ld	s8,288(sp)
    80003098:	6cf2                	ld	s9,280(sp)
    8000309a:	6db2                	ld	s11,264(sp)
    8000309c:	6175                	addi	sp,sp,368
    8000309e:	8082                	ret
    800030a0:	8cb6                	mv	s9,a3
    800030a2:	00174683          	lbu	a3,1(a4)
    800030a6:	8722                	mv	a4,s0
    800030a8:	00170413          	addi	s0,a4,1
    800030ac:	fdd6879b          	addiw	a5,a3,-35
    800030b0:	0ff7f793          	zext.b	a5,a5
    800030b4:	fcfb73e3          	bgeu	s6,a5,8000307a <vprintfmt+0x68>
    800030b8:	85a6                	mv	a1,s1
    800030ba:	02500513          	li	a0,37
    800030be:	9902                	jalr	s2
    800030c0:	844e                	mv	s0,s3
    800030c2:	b771                	j	8000304e <vprintfmt+0x3c>
    800030c4:	fd068c1b          	addiw	s8,a3,-48
    800030c8:	00174683          	lbu	a3,1(a4)
    800030cc:	47a5                	li	a5,9
    800030ce:	fd06871b          	addiw	a4,a3,-48
    800030d2:	0006861b          	sext.w	a2,a3
    800030d6:	20e7ef63          	bltu	a5,a4,800032f4 <vprintfmt+0x2e2>
    800030da:	8722                	mv	a4,s0
    800030dc:	4825                	li	a6,9
    800030de:	00174683          	lbu	a3,1(a4)
    800030e2:	002c179b          	slliw	a5,s8,0x2
    800030e6:	018787bb          	addw	a5,a5,s8
    800030ea:	0017979b          	slliw	a5,a5,0x1
    800030ee:	9fb1                	addw	a5,a5,a2
    800030f0:	fd06851b          	addiw	a0,a3,-48
    800030f4:	0705                	addi	a4,a4,1
    800030f6:	fd078c1b          	addiw	s8,a5,-48
    800030fa:	0006861b          	sext.w	a2,a3
    800030fe:	fea870e3          	bgeu	a6,a0,800030de <vprintfmt+0xcc>
    80003102:	f60dd4e3          	bgez	s11,8000306a <vprintfmt+0x58>
    80003106:	8de2                	mv	s11,s8
    80003108:	5c7d                	li	s8,-1
    8000310a:	b785                	j	8000306a <vprintfmt+0x58>
    8000310c:	00174683          	lbu	a3,1(a4)
    80003110:	8722                	mv	a4,s0
    80003112:	bfa1                	j	8000306a <vprintfmt+0x58>
    80003114:	85a6                	mv	a1,s1
    80003116:	02500513          	li	a0,37
    8000311a:	9902                	jalr	s2
    8000311c:	bf0d                	j	8000304e <vprintfmt+0x3c>
    8000311e:	000bac03          	lw	s8,0(s7)
    80003122:	00174683          	lbu	a3,1(a4)
    80003126:	0ba1                	addi	s7,s7,8
    80003128:	8722                	mv	a4,s0
    8000312a:	bfe1                	j	80003102 <vprintfmt+0xf0>
    8000312c:	85a6                	mv	a1,s1
    8000312e:	03000513          	li	a0,48
    80003132:	ea6a                	sd	s10,272(sp)
    80003134:	9902                	jalr	s2
    80003136:	85a6                	mv	a1,s1
    80003138:	07800513          	li	a0,120
    8000313c:	9902                	jalr	s2
    8000313e:	4641                	li	a2,16
    80003140:	008b8713          	addi	a4,s7,8
    80003144:	000bb783          	ld	a5,0(s7)
    80003148:	8bba                	mv	s7,a4
    8000314a:	02c7f5b3          	remu	a1,a5,a2
    8000314e:	000c899b          	sext.w	s3,s9
    80003152:	0054                	addi	a3,sp,4
    80003154:	4705                	li	a4,1
    80003156:	c02e                	sw	a1,0(sp)
    80003158:	16c7ea63          	bltu	a5,a2,800032cc <vprintfmt+0x2ba>
    8000315c:	02c7d7b3          	divu	a5,a5,a2
    80003160:	0691                	addi	a3,a3,4
    80003162:	8c3a                	mv	s8,a4
    80003164:	2705                	addiw	a4,a4,1
    80003166:	02c7f5b3          	remu	a1,a5,a2
    8000316a:	feb6ae23          	sw	a1,-4(a3)
    8000316e:	fec7f7e3          	bgeu	a5,a2,8000315c <vprintfmt+0x14a>
    80003172:	fffd8c9b          	addiw	s9,s11,-1
    80003176:	fff70d1b          	addiw	s10,a4,-1
    8000317a:	01b75863          	bge	a4,s11,8000318a <vprintfmt+0x178>
    8000317e:	85a6                	mv	a1,s1
    80003180:	854e                	mv	a0,s3
    80003182:	3cfd                	addiw	s9,s9,-1
    80003184:	9902                	jalr	s2
    80003186:	ffac9ce3          	bne	s9,s10,8000317e <vprintfmt+0x16c>
    8000318a:	0c0a                	slli	s8,s8,0x2
    8000318c:	018109b3          	add	s3,sp,s8
    80003190:	ffc10c93          	addi	s9,sp,-4
    80003194:	4c25                	li	s8,9
    80003196:	0009a783          	lw	a5,0(s3)
    8000319a:	03000513          	li	a0,48
    8000319e:	00fc7463          	bgeu	s8,a5,800031a6 <vprintfmt+0x194>
    800031a2:	05700513          	li	a0,87
    800031a6:	85a6                	mv	a1,s1
    800031a8:	9d3d                	addw	a0,a0,a5
    800031aa:	19f1                	addi	s3,s3,-4
    800031ac:	9902                	jalr	s2
    800031ae:	ff9994e3          	bne	s3,s9,80003196 <vprintfmt+0x184>
    800031b2:	6d52                	ld	s10,272(sp)
    800031b4:	bd69                	j	8000304e <vprintfmt+0x3c>
    800031b6:	ea6a                	sd	s10,272(sp)
    800031b8:	4785                	li	a5,1
    800031ba:	008b8c13          	addi	s8,s7,8
    800031be:	00b7c463          	blt	a5,a1,800031c6 <vprintfmt+0x1b4>
    800031c2:	10058763          	beqz	a1,800032d0 <vprintfmt+0x2be>
    800031c6:	000bb983          	ld	s3,0(s7)
    800031ca:	1009cc63          	bltz	s3,800032e2 <vprintfmt+0x2d0>
    800031ce:	87ce                	mv	a5,s3
    800031d0:	8be2                	mv	s7,s8
    800031d2:	4629                	li	a2,10
    800031d4:	bf9d                	j	8000314a <vprintfmt+0x138>
    800031d6:	00174683          	lbu	a3,1(a4)
    800031da:	2585                	addiw	a1,a1,1
    800031dc:	8722                	mv	a4,s0
    800031de:	b571                	j	8000306a <vprintfmt+0x58>
    800031e0:	ea6a                	sd	s10,272(sp)
    800031e2:	4641                	li	a2,16
    800031e4:	4785                	li	a5,1
    800031e6:	008b8713          	addi	a4,s7,8
    800031ea:	f4b7cde3          	blt	a5,a1,80003144 <vprintfmt+0x132>
    800031ee:	f9b9                	bnez	a1,80003144 <vprintfmt+0x132>
    800031f0:	000be783          	lwu	a5,0(s7)
    800031f4:	8bba                	mv	s7,a4
    800031f6:	bf91                	j	8000314a <vprintfmt+0x138>
    800031f8:	ea6a                	sd	s10,272(sp)
    800031fa:	000bbd03          	ld	s10,0(s7)
    800031fe:	0ba1                	addi	s7,s7,8
    80003200:	040d0363          	beqz	s10,80003246 <vprintfmt+0x234>
    80003204:	09b05e63          	blez	s11,800032a0 <vprintfmt+0x28e>
    80003208:	02d00793          	li	a5,45
    8000320c:	04fc9f63          	bne	s9,a5,8000326a <vprintfmt+0x258>
    80003210:	000d4503          	lbu	a0,0(s10)
    80003214:	c105                	beqz	a0,80003234 <vprintfmt+0x222>
    80003216:	59fd                	li	s3,-1
    80003218:	000c4563          	bltz	s8,80003222 <vprintfmt+0x210>
    8000321c:	3c7d                	addiw	s8,s8,-1
    8000321e:	013c0963          	beq	s8,s3,80003230 <vprintfmt+0x21e>
    80003222:	85a6                	mv	a1,s1
    80003224:	9902                	jalr	s2
    80003226:	001d4503          	lbu	a0,1(s10)
    8000322a:	3dfd                	addiw	s11,s11,-1
    8000322c:	0d05                	addi	s10,s10,1
    8000322e:	f56d                	bnez	a0,80003218 <vprintfmt+0x206>
    80003230:	f9b051e3          	blez	s11,800031b2 <vprintfmt+0x1a0>
    80003234:	85a6                	mv	a1,s1
    80003236:	02000513          	li	a0,32
    8000323a:	3dfd                	addiw	s11,s11,-1
    8000323c:	9902                	jalr	s2
    8000323e:	fe0d9be3          	bnez	s11,80003234 <vprintfmt+0x222>
    80003242:	6d52                	ld	s10,272(sp)
    80003244:	b529                	j	8000304e <vprintfmt+0x3c>
    80003246:	00001d17          	auipc	s10,0x1
    8000324a:	b5ad0d13          	addi	s10,s10,-1190 # 80003da0 <Nr+0x160>
    8000324e:	02800513          	li	a0,40
    80003252:	fdb052e3          	blez	s11,80003216 <vprintfmt+0x204>
    80003256:	02d00793          	li	a5,45
    8000325a:	00001d17          	auipc	s10,0x1
    8000325e:	b46d0d13          	addi	s10,s10,-1210 # 80003da0 <Nr+0x160>
    80003262:	02800513          	li	a0,40
    80003266:	fafc88e3          	beq	s9,a5,80003216 <vprintfmt+0x204>
    8000326a:	000d861b          	sext.w	a2,s11
    8000326e:	87ea                	mv	a5,s10
    80003270:	018d06b3          	add	a3,s10,s8
    80003274:	000c1663          	bnez	s8,80003280 <vprintfmt+0x26e>
    80003278:	a829                	j	80003292 <vprintfmt+0x280>
    8000327a:	0785                	addi	a5,a5,1
    8000327c:	00d78563          	beq	a5,a3,80003286 <vprintfmt+0x274>
    80003280:	0007c703          	lbu	a4,0(a5)
    80003284:	fb7d                	bnez	a4,8000327a <vprintfmt+0x268>
    80003286:	41a787b3          	sub	a5,a5,s10
    8000328a:	40f60dbb          	subw	s11,a2,a5
    8000328e:	01b05963          	blez	s11,800032a0 <vprintfmt+0x28e>
    80003292:	2c81                	sext.w	s9,s9
    80003294:	85a6                	mv	a1,s1
    80003296:	8566                	mv	a0,s9
    80003298:	3dfd                	addiw	s11,s11,-1
    8000329a:	9902                	jalr	s2
    8000329c:	fe0d9ce3          	bnez	s11,80003294 <vprintfmt+0x282>
    800032a0:	000d4503          	lbu	a0,0(s10)
    800032a4:	d519                	beqz	a0,800031b2 <vprintfmt+0x1a0>
    800032a6:	59fd                	li	s3,-1
    800032a8:	bf85                	j	80003218 <vprintfmt+0x206>
    800032aa:	fffdc793          	not	a5,s11
    800032ae:	97fd                	srai	a5,a5,0x3f
    800032b0:	00fdf7b3          	and	a5,s11,a5
    800032b4:	00174683          	lbu	a3,1(a4)
    800032b8:	00078d9b          	sext.w	s11,a5
    800032bc:	8722                	mv	a4,s0
    800032be:	b375                	j	8000306a <vprintfmt+0x58>
    800032c0:	000ba503          	lw	a0,0(s7)
    800032c4:	85a6                	mv	a1,s1
    800032c6:	0ba1                	addi	s7,s7,8
    800032c8:	9902                	jalr	s2
    800032ca:	b351                	j	8000304e <vprintfmt+0x3c>
    800032cc:	4c01                	li	s8,0
    800032ce:	b555                	j	80003172 <vprintfmt+0x160>
    800032d0:	000ba983          	lw	s3,0(s7)
    800032d4:	bddd                	j	800031ca <vprintfmt+0x1b8>
    800032d6:	ea6a                	sd	s10,272(sp)
    800032d8:	4629                	li	a2,10
    800032da:	b729                	j	800031e4 <vprintfmt+0x1d2>
    800032dc:	ea6a                	sd	s10,272(sp)
    800032de:	4621                	li	a2,8
    800032e0:	b711                	j	800031e4 <vprintfmt+0x1d2>
    800032e2:	85a6                	mv	a1,s1
    800032e4:	02d00513          	li	a0,45
    800032e8:	9902                	jalr	s2
    800032ea:	413007b3          	neg	a5,s3
    800032ee:	8be2                	mv	s7,s8
    800032f0:	4629                	li	a2,10
    800032f2:	bda1                	j	8000314a <vprintfmt+0x138>
    800032f4:	8722                	mv	a4,s0
    800032f6:	b531                	j	80003102 <vprintfmt+0xf0>

00000000800032f8 <sprintf_putch.0>:
    800032f8:	619c                	ld	a5,0(a1)
    800032fa:	00a78023          	sb	a0,0(a5)
    800032fe:	619c                	ld	a5,0(a1)
    80003300:	0785                	addi	a5,a5,1
    80003302:	e19c                	sd	a5,0(a1)
    80003304:	8082                	ret

0000000080003306 <putchar>:
    80003306:	04022803          	lw	a6,64(tp) # 40 <buflen.1>
    8000330a:	00020793          	mv	a5,tp
    8000330e:	97c2                	add	a5,a5,a6
    80003310:	7159                	addi	sp,sp,-112
    80003312:	0018069b          	addiw	a3,a6,1
    80003316:	04d22023          	sw	a3,64(tp) # 40 <buflen.1>
    8000331a:	00a78023          	sb	a0,0(a5)
    8000331e:	03f10713          	addi	a4,sp,63
    80003322:	47a9                	li	a5,10
    80003324:	fc077713          	andi	a4,a4,-64
    80003328:	00f50963          	beq	a0,a5,8000333a <putchar+0x34>
    8000332c:	04000793          	li	a5,64
    80003330:	00f68563          	beq	a3,a5,8000333a <putchar+0x34>
    80003334:	4501                	li	a0,0
    80003336:	6165                	addi	sp,sp,112
    80003338:	8082                	ret
    8000333a:	04000793          	li	a5,64
    8000333e:	e31c                	sd	a5,0(a4)
    80003340:	4785                	li	a5,1
    80003342:	e71c                	sd	a5,8(a4)
    80003344:	00020613          	mv	a2,tp
    80003348:	eb10                	sd	a2,16(a4)
    8000334a:	ef14                	sd	a3,24(a4)
    8000334c:	0ff0000f          	fence
    80003350:	ffffe697          	auipc	a3,0xffffe
    80003354:	cf068693          	addi	a3,a3,-784 # 80001040 <fromhost>
    80003358:	ffffe797          	auipc	a5,0xffffe
    8000335c:	cae7b423          	sd	a4,-856(a5) # 80001000 <tohost>
    80003360:	629c                	ld	a5,0(a3)
    80003362:	dffd                	beqz	a5,80003360 <putchar+0x5a>
    80003364:	ffffe797          	auipc	a5,0xffffe
    80003368:	cc07be23          	sd	zero,-804(a5) # 80001040 <fromhost>
    8000336c:	0ff0000f          	fence
    80003370:	04022023          	sw	zero,64(tp) # 40 <buflen.1>
    80003374:	631c                	ld	a5,0(a4)
    80003376:	4501                	li	a0,0
    80003378:	6165                	addi	sp,sp,112
    8000337a:	8082                	ret

000000008000337c <setStats>:
    8000337c:	b0002773          	csrr	a4,mcycle
    80003380:	00002797          	auipc	a5,0x2
    80003384:	77878793          	addi	a5,a5,1912 # 80005af8 <counters>
    80003388:	c511                	beqz	a0,80003394 <setStats+0x18>
    8000338a:	e398                	sd	a4,0(a5)
    8000338c:	b0202773          	csrr	a4,minstret
    80003390:	e798                	sd	a4,8(a5)
    80003392:	8082                	ret
    80003394:	6394                	ld	a3,0(a5)
    80003396:	00001617          	auipc	a2,0x1
    8000339a:	a1a60613          	addi	a2,a2,-1510 # 80003db0 <Nr+0x170>
    8000339e:	eb90                	sd	a2,16(a5)
    800033a0:	8f15                	sub	a4,a4,a3
    800033a2:	e398                	sd	a4,0(a5)
    800033a4:	b0202773          	csrr	a4,minstret
    800033a8:	6794                	ld	a3,8(a5)
    800033aa:	00001617          	auipc	a2,0x1
    800033ae:	a0e60613          	addi	a2,a2,-1522 # 80003db8 <Nr+0x178>
    800033b2:	ef90                	sd	a2,24(a5)
    800033b4:	8f15                	sub	a4,a4,a3
    800033b6:	e798                	sd	a4,8(a5)
    800033b8:	8082                	ret

00000000800033ba <tohost_exit>:
    800033ba:	00151793          	slli	a5,a0,0x1
    800033be:	0017e793          	ori	a5,a5,1
    800033c2:	ffffe717          	auipc	a4,0xffffe
    800033c6:	c2f73f23          	sd	a5,-962(a4) # 80001000 <tohost>
    800033ca:	a001                	j	800033ca <tohost_exit+0x10>

00000000800033cc <handle_trap>:
    800033cc:	6785                	lui	a5,0x1
    800033ce:	a7378793          	addi	a5,a5,-1421 # a73 <buflen.1+0xa33>
    800033d2:	ffffe717          	auipc	a4,0xffffe
    800033d6:	c2f73723          	sd	a5,-978(a4) # 80001000 <tohost>
    800033da:	a001                	j	800033da <handle_trap+0xe>

00000000800033dc <exit>:
    800033dc:	1141                	addi	sp,sp,-16
    800033de:	e406                	sd	ra,8(sp)
    800033e0:	fdbff0ef          	jal	800033ba <tohost_exit>

00000000800033e4 <abort>:
    800033e4:	10d00793          	li	a5,269
    800033e8:	ffffe717          	auipc	a4,0xffffe
    800033ec:	c0f73c23          	sd	a5,-1000(a4) # 80001000 <tohost>
    800033f0:	a001                	j	800033f0 <abort+0xc>

00000000800033f2 <printstr>:
    800033f2:	00054783          	lbu	a5,0(a0)
    800033f6:	7159                	addi	sp,sp,-112
    800033f8:	03f10693          	addi	a3,sp,63
    800033fc:	fc06f693          	andi	a3,a3,-64
    80003400:	c3b9                	beqz	a5,80003446 <printstr+0x54>
    80003402:	87aa                	mv	a5,a0
    80003404:	0017c703          	lbu	a4,1(a5)
    80003408:	0785                	addi	a5,a5,1
    8000340a:	ff6d                	bnez	a4,80003404 <printstr+0x12>
    8000340c:	8f89                	sub	a5,a5,a0
    8000340e:	04000713          	li	a4,64
    80003412:	e298                	sd	a4,0(a3)
    80003414:	4705                	li	a4,1
    80003416:	e698                	sd	a4,8(a3)
    80003418:	ea88                	sd	a0,16(a3)
    8000341a:	ee9c                	sd	a5,24(a3)
    8000341c:	0ff0000f          	fence
    80003420:	ffffe717          	auipc	a4,0xffffe
    80003424:	c2070713          	addi	a4,a4,-992 # 80001040 <fromhost>
    80003428:	ffffe797          	auipc	a5,0xffffe
    8000342c:	bcd7bc23          	sd	a3,-1064(a5) # 80001000 <tohost>
    80003430:	631c                	ld	a5,0(a4)
    80003432:	dffd                	beqz	a5,80003430 <printstr+0x3e>
    80003434:	ffffe797          	auipc	a5,0xffffe
    80003438:	c007b623          	sd	zero,-1012(a5) # 80001040 <fromhost>
    8000343c:	0ff0000f          	fence
    80003440:	629c                	ld	a5,0(a3)
    80003442:	6165                	addi	sp,sp,112
    80003444:	8082                	ret
    80003446:	4781                	li	a5,0
    80003448:	b7d9                	j	8000340e <printstr+0x1c>

000000008000344a <thread_entry>:
    8000344a:	c111                	beqz	a0,8000344e <thread_entry+0x4>
    8000344c:	a001                	j	8000344c <thread_entry+0x2>
    8000344e:	8082                	ret

0000000080003450 <printhex>:
    80003450:	7179                	addi	sp,sp,-48
    80003452:	87aa                	mv	a5,a0
    80003454:	f406                	sd	ra,40(sp)
    80003456:	0028                	addi	a0,sp,8
    80003458:	01710713          	addi	a4,sp,23
    8000345c:	4825                	li	a6,9
    8000345e:	a011                	j	80003462 <printhex+0x12>
    80003460:	8736                	mv	a4,a3
    80003462:	00f7f613          	andi	a2,a5,15
    80003466:	86b2                	mv	a3,a2
    80003468:	03000593          	li	a1,48
    8000346c:	00c87463          	bgeu	a6,a2,80003474 <printhex+0x24>
    80003470:	05700593          	li	a1,87
    80003474:	9ead                	addw	a3,a3,a1
    80003476:	00d70023          	sb	a3,0(a4)
    8000347a:	8391                	srli	a5,a5,0x4
    8000347c:	fff70693          	addi	a3,a4,-1
    80003480:	fee510e3          	bne	a0,a4,80003460 <printhex+0x10>
    80003484:	00010c23          	sb	zero,24(sp)
    80003488:	f6bff0ef          	jal	800033f2 <printstr>
    8000348c:	70a2                	ld	ra,40(sp)
    8000348e:	6145                	addi	sp,sp,48
    80003490:	8082                	ret

0000000080003492 <printf>:
    80003492:	711d                	addi	sp,sp,-96
    80003494:	02810313          	addi	t1,sp,40
    80003498:	f42e                	sd	a1,40(sp)
    8000349a:	f832                	sd	a2,48(sp)
    8000349c:	fc36                	sd	a3,56(sp)
    8000349e:	862a                	mv	a2,a0
    800034a0:	869a                	mv	a3,t1
    800034a2:	00000517          	auipc	a0,0x0
    800034a6:	e6450513          	addi	a0,a0,-412 # 80003306 <putchar>
    800034aa:	4581                	li	a1,0
    800034ac:	ec06                	sd	ra,24(sp)
    800034ae:	e0ba                	sd	a4,64(sp)
    800034b0:	e4be                	sd	a5,72(sp)
    800034b2:	e8c2                	sd	a6,80(sp)
    800034b4:	ecc6                	sd	a7,88(sp)
    800034b6:	e41a                	sd	t1,8(sp)
    800034b8:	b5bff0ef          	jal	80003012 <vprintfmt>
    800034bc:	60e2                	ld	ra,24(sp)
    800034be:	4501                	li	a0,0
    800034c0:	6125                	addi	sp,sp,96
    800034c2:	8082                	ret

00000000800034c4 <sprintf>:
    800034c4:	711d                	addi	sp,sp,-96
    800034c6:	03010e13          	addi	t3,sp,48
    800034ca:	f022                	sd	s0,32(sp)
    800034cc:	e42a                	sd	a0,8(sp)
    800034ce:	842a                	mv	s0,a0
    800034d0:	f832                	sd	a2,48(sp)
    800034d2:	fc36                	sd	a3,56(sp)
    800034d4:	862e                	mv	a2,a1
    800034d6:	00000517          	auipc	a0,0x0
    800034da:	e2250513          	addi	a0,a0,-478 # 800032f8 <sprintf_putch.0>
    800034de:	002c                	addi	a1,sp,8
    800034e0:	86f2                	mv	a3,t3
    800034e2:	f406                	sd	ra,40(sp)
    800034e4:	e4be                	sd	a5,72(sp)
    800034e6:	e0ba                	sd	a4,64(sp)
    800034e8:	e8c2                	sd	a6,80(sp)
    800034ea:	ecc6                	sd	a7,88(sp)
    800034ec:	ec72                	sd	t3,24(sp)
    800034ee:	b25ff0ef          	jal	80003012 <vprintfmt>
    800034f2:	67a2                	ld	a5,8(sp)
    800034f4:	00078023          	sb	zero,0(a5)
    800034f8:	6522                	ld	a0,8(sp)
    800034fa:	70a2                	ld	ra,40(sp)
    800034fc:	9d01                	subw	a0,a0,s0
    800034fe:	7402                	ld	s0,32(sp)
    80003500:	6125                	addi	sp,sp,96
    80003502:	8082                	ret

0000000080003504 <memcpy>:
    80003504:	00c5e7b3          	or	a5,a1,a2
    80003508:	8fc9                	or	a5,a5,a0
    8000350a:	8b9d                	andi	a5,a5,7
    8000350c:	00c506b3          	add	a3,a0,a2
    80003510:	cf91                	beqz	a5,8000352c <memcpy+0x28>
    80003512:	962e                	add	a2,a2,a1
    80003514:	87aa                	mv	a5,a0
    80003516:	02d57663          	bgeu	a0,a3,80003542 <memcpy+0x3e>
    8000351a:	0005c703          	lbu	a4,0(a1)
    8000351e:	0585                	addi	a1,a1,1
    80003520:	0785                	addi	a5,a5,1
    80003522:	fee78fa3          	sb	a4,-1(a5)
    80003526:	feb61ae3          	bne	a2,a1,8000351a <memcpy+0x16>
    8000352a:	8082                	ret
    8000352c:	fed57fe3          	bgeu	a0,a3,8000352a <memcpy+0x26>
    80003530:	87aa                	mv	a5,a0
    80003532:	6198                	ld	a4,0(a1)
    80003534:	07a1                	addi	a5,a5,8
    80003536:	05a1                	addi	a1,a1,8
    80003538:	fee7bc23          	sd	a4,-8(a5)
    8000353c:	fed7ebe3          	bltu	a5,a3,80003532 <memcpy+0x2e>
    80003540:	8082                	ret
    80003542:	8082                	ret

0000000080003544 <memset>:
    80003544:	00c567b3          	or	a5,a0,a2
    80003548:	8b9d                	andi	a5,a5,7
    8000354a:	962a                	add	a2,a2,a0
    8000354c:	cf81                	beqz	a5,80003564 <memset+0x20>
    8000354e:	0ff5f713          	zext.b	a4,a1
    80003552:	87aa                	mv	a5,a0
    80003554:	02c57f63          	bgeu	a0,a2,80003592 <memset+0x4e>
    80003558:	0785                	addi	a5,a5,1
    8000355a:	fee78fa3          	sb	a4,-1(a5)
    8000355e:	fec79de3          	bne	a5,a2,80003558 <memset+0x14>
    80003562:	8082                	ret
    80003564:	010107b7          	lui	a5,0x1010
    80003568:	10178793          	addi	a5,a5,257 # 1010101 <buflen.1+0x10100c1>
    8000356c:	07c2                	slli	a5,a5,0x10
    8000356e:	10178793          	addi	a5,a5,257
    80003572:	07c2                	slli	a5,a5,0x10
    80003574:	0ff5f713          	zext.b	a4,a1
    80003578:	10178793          	addi	a5,a5,257
    8000357c:	02f70733          	mul	a4,a4,a5
    80003580:	fec571e3          	bgeu	a0,a2,80003562 <memset+0x1e>
    80003584:	87aa                	mv	a5,a0
    80003586:	07a1                	addi	a5,a5,8
    80003588:	fee7bc23          	sd	a4,-8(a5)
    8000358c:	fec7ede3          	bltu	a5,a2,80003586 <memset+0x42>
    80003590:	8082                	ret
    80003592:	8082                	ret

0000000080003594 <_init>:
    80003594:	7171                	addi	sp,sp,-176
    80003596:	00002797          	auipc	a5,0x2
    8000359a:	58278793          	addi	a5,a5,1410 # 80005b18 <_tdata_begin>
    8000359e:	e152                	sd	s4,128(sp)
    800035a0:	00002a17          	auipc	s4,0x2
    800035a4:	578a0a13          	addi	s4,s4,1400 # 80005b18 <_tdata_begin>
    800035a8:	e54e                	sd	s3,136(sp)
    800035aa:	40fa09b3          	sub	s3,s4,a5
    800035ae:	ed26                	sd	s1,152(sp)
    800035b0:	e94a                	sd	s2,144(sp)
    800035b2:	84aa                	mv	s1,a0
    800035b4:	892e                	mv	s2,a1
    800035b6:	8512                	mv	a0,tp
    800035b8:	85be                	mv	a1,a5
    800035ba:	864e                	mv	a2,s3
    800035bc:	f506                	sd	ra,168(sp)
    800035be:	f122                	sd	s0,160(sp)
    800035c0:	fcd6                	sd	s5,120(sp)
    800035c2:	8a92                	mv	s5,tp
    800035c4:	f41ff0ef          	jal	80003504 <memcpy>
    800035c8:	00002617          	auipc	a2,0x2
    800035cc:	5bc60613          	addi	a2,a2,1468 # 80005b84 <_tbss_end>
    800035d0:	41460633          	sub	a2,a2,s4
    800035d4:	4581                	li	a1,0
    800035d6:	013a8533          	add	a0,s5,s3
    800035da:	f6bff0ef          	jal	80003544 <memset>
    800035de:	85ca                	mv	a1,s2
    800035e0:	8526                	mv	a0,s1
    800035e2:	e69ff0ef          	jal	8000344a <thread_entry>
    800035e6:	4581                	li	a1,0
    800035e8:	4501                	li	a0,0
    800035ea:	9d1ff0ef          	jal	80002fba <main>
    800035ee:	00002917          	auipc	s2,0x2
    800035f2:	50a90913          	addi	s2,s2,1290 # 80005af8 <counters>
    800035f6:	00093683          	ld	a3,0(s2)
    800035fa:	03f10413          	addi	s0,sp,63
    800035fe:	fc047413          	andi	s0,s0,-64
    80003602:	84aa                	mv	s1,a0
    80003604:	ea85                	bnez	a3,80003634 <_init+0xa0>
    80003606:	00893683          	ld	a3,8(s2)
    8000360a:	e681                	bnez	a3,80003612 <_init+0x7e>
    8000360c:	8526                	mv	a0,s1
    8000360e:	dadff0ef          	jal	800033ba <tohost_exit>
    80003612:	89a2                	mv	s3,s0
    80003614:	01893603          	ld	a2,24(s2)
    80003618:	854e                	mv	a0,s3
    8000361a:	00000597          	auipc	a1,0x0
    8000361e:	7c658593          	addi	a1,a1,1990 # 80003de0 <Nr+0x1a0>
    80003622:	ea3ff0ef          	jal	800034c4 <sprintf>
    80003626:	99aa                	add	s3,s3,a0
    80003628:	ff3402e3          	beq	s0,s3,8000360c <_init+0x78>
    8000362c:	8522                	mv	a0,s0
    8000362e:	dc5ff0ef          	jal	800033f2 <printstr>
    80003632:	bfe9                	j	8000360c <_init+0x78>
    80003634:	01093603          	ld	a2,16(s2)
    80003638:	00000597          	auipc	a1,0x0
    8000363c:	7a858593          	addi	a1,a1,1960 # 80003de0 <Nr+0x1a0>
    80003640:	8522                	mv	a0,s0
    80003642:	e83ff0ef          	jal	800034c4 <sprintf>
    80003646:	00893683          	ld	a3,8(s2)
    8000364a:	00a409b3          	add	s3,s0,a0
    8000364e:	dee9                	beqz	a3,80003628 <_init+0x94>
    80003650:	b7d1                	j	80003614 <_init+0x80>

0000000080003652 <strlen>:
    80003652:	00054783          	lbu	a5,0(a0)
    80003656:	cb89                	beqz	a5,80003668 <strlen+0x16>
    80003658:	87aa                	mv	a5,a0
    8000365a:	0017c703          	lbu	a4,1(a5)
    8000365e:	0785                	addi	a5,a5,1
    80003660:	ff6d                	bnez	a4,8000365a <strlen+0x8>
    80003662:	40a78533          	sub	a0,a5,a0
    80003666:	8082                	ret
    80003668:	4501                	li	a0,0
    8000366a:	8082                	ret

000000008000366c <strnlen>:
    8000366c:	00b506b3          	add	a3,a0,a1
    80003670:	87aa                	mv	a5,a0
    80003672:	e589                	bnez	a1,8000367c <strnlen+0x10>
    80003674:	a829                	j	8000368e <strnlen+0x22>
    80003676:	0785                	addi	a5,a5,1
    80003678:	00f68863          	beq	a3,a5,80003688 <strnlen+0x1c>
    8000367c:	0007c703          	lbu	a4,0(a5)
    80003680:	fb7d                	bnez	a4,80003676 <strnlen+0xa>
    80003682:	40a78533          	sub	a0,a5,a0
    80003686:	8082                	ret
    80003688:	40a68533          	sub	a0,a3,a0
    8000368c:	8082                	ret
    8000368e:	4501                	li	a0,0
    80003690:	8082                	ret

0000000080003692 <strcmp>:
    80003692:	00054783          	lbu	a5,0(a0)
    80003696:	0585                	addi	a1,a1,1
    80003698:	0505                	addi	a0,a0,1
    8000369a:	fff5c703          	lbu	a4,-1(a1)
    8000369e:	c799                	beqz	a5,800036ac <strcmp+0x1a>
    800036a0:	fee789e3          	beq	a5,a4,80003692 <strcmp>
    800036a4:	0007851b          	sext.w	a0,a5
    800036a8:	9d19                	subw	a0,a0,a4
    800036aa:	8082                	ret
    800036ac:	4501                	li	a0,0
    800036ae:	bfed                	j	800036a8 <strcmp+0x16>

00000000800036b0 <strcpy>:
    800036b0:	87aa                	mv	a5,a0
    800036b2:	0005c703          	lbu	a4,0(a1)
    800036b6:	0785                	addi	a5,a5,1
    800036b8:	0585                	addi	a1,a1,1
    800036ba:	fee78fa3          	sb	a4,-1(a5)
    800036be:	fb75                	bnez	a4,800036b2 <strcpy+0x2>
    800036c0:	8082                	ret

00000000800036c2 <atol>:
    800036c2:	00054703          	lbu	a4,0(a0)
    800036c6:	02000693          	li	a3,32
    800036ca:	87aa                	mv	a5,a0
    800036cc:	00d71763          	bne	a4,a3,800036da <atol+0x18>
    800036d0:	0017c703          	lbu	a4,1(a5)
    800036d4:	0785                	addi	a5,a5,1
    800036d6:	fed70de3          	beq	a4,a3,800036d0 <atol+0xe>
    800036da:	02d00693          	li	a3,45
    800036de:	04d70163          	beq	a4,a3,80003720 <atol+0x5e>
    800036e2:	02b00693          	li	a3,43
    800036e6:	02d70763          	beq	a4,a3,80003714 <atol+0x52>
    800036ea:	0007c683          	lbu	a3,0(a5)
    800036ee:	4581                	li	a1,0
    800036f0:	ce8d                	beqz	a3,8000372a <atol+0x68>
    800036f2:	4501                	li	a0,0
    800036f4:	0785                	addi	a5,a5,1
    800036f6:	00251713          	slli	a4,a0,0x2
    800036fa:	fd06861b          	addiw	a2,a3,-48
    800036fe:	0007c683          	lbu	a3,0(a5)
    80003702:	972a                	add	a4,a4,a0
    80003704:	0706                	slli	a4,a4,0x1
    80003706:	00e60533          	add	a0,a2,a4
    8000370a:	f6ed                	bnez	a3,800036f4 <atol+0x32>
    8000370c:	c185                	beqz	a1,8000372c <atol+0x6a>
    8000370e:	40a00533          	neg	a0,a0
    80003712:	8082                	ret
    80003714:	0017c683          	lbu	a3,1(a5)
    80003718:	0785                	addi	a5,a5,1
    8000371a:	ca81                	beqz	a3,8000372a <atol+0x68>
    8000371c:	4581                	li	a1,0
    8000371e:	bfd1                	j	800036f2 <atol+0x30>
    80003720:	0017c683          	lbu	a3,1(a5)
    80003724:	4585                	li	a1,1
    80003726:	0785                	addi	a5,a5,1
    80003728:	f6e9                	bnez	a3,800036f2 <atol+0x30>
    8000372a:	4501                	li	a0,0
    8000372c:	8082                	ret

000000008000372e <__errno>:
    8000372e:	83818513          	addi	a0,gp,-1992 # 800040c0 <__errno_location>
    80003732:	8082                	ret

0000000080003734 <atoi>:
    80003734:	cd41                	beqz	a0,800037cc <atoi+0x98>
    80003736:	02000693          	li	a3,32
    8000373a:	4611                	li	a2,4
    8000373c:	00054783          	lbu	a5,0(a0)
    80003740:	ff77871b          	addiw	a4,a5,-9
    80003744:	0ff77713          	zext.b	a4,a4
    80003748:	06d78863          	beq	a5,a3,800037b8 <atoi+0x84>
    8000374c:	06e67663          	bgeu	a2,a4,800037b8 <atoi+0x84>
    80003750:	02b00713          	li	a4,43
    80003754:	06e78763          	beq	a5,a4,800037c2 <atoi+0x8e>
    80003758:	02d00713          	li	a4,45
    8000375c:	4305                	li	t1,1
    8000375e:	06e78963          	beq	a5,a4,800037d0 <atoi+0x9c>
    80003762:	fd07879b          	addiw	a5,a5,-48
    80003766:	0ff7f693          	zext.b	a3,a5
    8000376a:	4725                	li	a4,9
    8000376c:	06d76063          	bltu	a4,a3,800037cc <atoi+0x98>
    80003770:	800005b7          	lui	a1,0x80000
    80003774:	4681                	li	a3,0
    80003776:	35fd                	addiw	a1,a1,-1 # 7fffffff <buflen.1+0x7fffffbf>
    80003778:	4829                	li	a6,10
    8000377a:	48a5                	li	a7,9
    8000377c:	a819                	j	80003792 <atoi+0x5e>
    8000377e:	00054783          	lbu	a5,0(a0)
    80003782:	0007069b          	sext.w	a3,a4
    80003786:	fd07879b          	addiw	a5,a5,-48
    8000378a:	0ff7f613          	zext.b	a2,a5
    8000378e:	02c8e763          	bltu	a7,a2,800037bc <atoi+0x88>
    80003792:	40f5863b          	subw	a2,a1,a5
    80003796:	0306463b          	divw	a2,a2,a6
    8000379a:	0026971b          	slliw	a4,a3,0x2
    8000379e:	9f35                	addw	a4,a4,a3
    800037a0:	0017171b          	slliw	a4,a4,0x1
    800037a4:	0505                	addi	a0,a0,1
    800037a6:	9f3d                	addw	a4,a4,a5
    800037a8:	fcd65be3          	bge	a2,a3,8000377e <atoi+0x4a>
    800037ac:	4785                	li	a5,1
    800037ae:	80000537          	lui	a0,0x80000
    800037b2:	02f30163          	beq	t1,a5,800037d4 <atoi+0xa0>
    800037b6:	8082                	ret
    800037b8:	0505                	addi	a0,a0,1 # ffffffff80000001 <_tbss_end+0xfffffffeffffa47d>
    800037ba:	b749                	j	8000373c <atoi+0x8>
    800037bc:	0267053b          	mulw	a0,a4,t1
    800037c0:	8082                	ret
    800037c2:	4305                	li	t1,1
    800037c4:	00154783          	lbu	a5,1(a0)
    800037c8:	0505                	addi	a0,a0,1
    800037ca:	bf61                	j	80003762 <atoi+0x2e>
    800037cc:	4501                	li	a0,0
    800037ce:	8082                	ret
    800037d0:	537d                	li	t1,-1
    800037d2:	bfcd                	j	800037c4 <atoi+0x90>
    800037d4:	fff54513          	not	a0,a0
    800037d8:	8082                	ret

00000000800037da <strtol>:
    800037da:	872a                	mv	a4,a0
    800037dc:	4811                	li	a6,4
    800037de:	02000513          	li	a0,32
    800037e2:	00074683          	lbu	a3,0(a4)
    800037e6:	ff76879b          	addiw	a5,a3,-9
    800037ea:	0ff7f793          	zext.b	a5,a5
    800037ee:	04a68b63          	beq	a3,a0,80003844 <strtol+0x6a>
    800037f2:	04f87963          	bgeu	a6,a5,80003844 <strtol+0x6a>
    800037f6:	02d00793          	li	a5,45
    800037fa:	08f68963          	beq	a3,a5,8000388c <strtol+0xb2>
    800037fe:	02b00793          	li	a5,43
    80003802:	4e01                	li	t3,0
    80003804:	08f68063          	beq	a3,a5,80003884 <strtol+0xaa>
    80003808:	ee29                	bnez	a2,80003862 <strtol+0x88>
    8000380a:	03000793          	li	a5,48
    8000380e:	4629                	li	a2,10
    80003810:	08f68363          	beq	a3,a5,80003896 <strtol+0xbc>
    80003814:	4501                	li	a0,0
    80003816:	48a5                	li	a7,9
    80003818:	4365                	li	t1,25
    8000381a:	00074683          	lbu	a3,0(a4)
    8000381e:	fd06879b          	addiw	a5,a3,-48
    80003822:	f9f6881b          	addiw	a6,a3,-97
    80003826:	00f8f863          	bgeu	a7,a5,80003836 <strtol+0x5c>
    8000382a:	fbf6879b          	addiw	a5,a3,-65
    8000382e:	01036d63          	bltu	t1,a6,80003848 <strtol+0x6e>
    80003832:	fa96879b          	addiw	a5,a3,-87
    80003836:	00c7df63          	bge	a5,a2,80003854 <strtol+0x7a>
    8000383a:	02a60533          	mul	a0,a2,a0
    8000383e:	0705                	addi	a4,a4,1
    80003840:	953e                	add	a0,a0,a5
    80003842:	bfe1                	j	8000381a <strtol+0x40>
    80003844:	0705                	addi	a4,a4,1
    80003846:	bf71                	j	800037e2 <strtol+0x8>
    80003848:	00f36663          	bltu	t1,a5,80003854 <strtol+0x7a>
    8000384c:	fc96879b          	addiw	a5,a3,-55
    80003850:	fec7c5e3          	blt	a5,a2,8000383a <strtol+0x60>
    80003854:	c191                	beqz	a1,80003858 <strtol+0x7e>
    80003856:	e198                	sd	a4,0(a1)
    80003858:	000e0463          	beqz	t3,80003860 <strtol+0x86>
    8000385c:	40a00533          	neg	a0,a0
    80003860:	8082                	ret
    80003862:	47c1                	li	a5,16
    80003864:	faf618e3          	bne	a2,a5,80003814 <strtol+0x3a>
    80003868:	03000793          	li	a5,48
    8000386c:	faf694e3          	bne	a3,a5,80003814 <strtol+0x3a>
    80003870:	00174783          	lbu	a5,1(a4)
    80003874:	05800693          	li	a3,88
    80003878:	0df7f793          	andi	a5,a5,223
    8000387c:	f8d79ce3          	bne	a5,a3,80003814 <strtol+0x3a>
    80003880:	0709                	addi	a4,a4,2
    80003882:	bf49                	j	80003814 <strtol+0x3a>
    80003884:	00174683          	lbu	a3,1(a4)
    80003888:	0705                	addi	a4,a4,1
    8000388a:	bfbd                	j	80003808 <strtol+0x2e>
    8000388c:	00174683          	lbu	a3,1(a4)
    80003890:	4e05                	li	t3,1
    80003892:	0705                	addi	a4,a4,1
    80003894:	bf95                	j	80003808 <strtol+0x2e>
    80003896:	00174783          	lbu	a5,1(a4)
    8000389a:	05800693          	li	a3,88
    8000389e:	0df7f793          	andi	a5,a5,223
    800038a2:	00d78563          	beq	a5,a3,800038ac <strtol+0xd2>
    800038a6:	0705                	addi	a4,a4,1
    800038a8:	4621                	li	a2,8
    800038aa:	b7ad                	j	80003814 <strtol+0x3a>
    800038ac:	0709                	addi	a4,a4,2
    800038ae:	4641                	li	a2,16
    800038b0:	b795                	j	80003814 <strtol+0x3a>

00000000800038b2 <my_isspace>:
    800038b2:	02000793          	li	a5,32
    800038b6:	00f50863          	beq	a0,a5,800038c6 <my_isspace+0x14>
    800038ba:	355d                	addiw	a0,a0,-9
    800038bc:	0ff57513          	zext.b	a0,a0
    800038c0:	00553513          	sltiu	a0,a0,5
    800038c4:	8082                	ret
    800038c6:	4505                	li	a0,1
    800038c8:	8082                	ret

00000000800038ca <my_isdigit>:
    800038ca:	fd05051b          	addiw	a0,a0,-48
    800038ce:	0ff57513          	zext.b	a0,a0
    800038d2:	00a53513          	sltiu	a0,a0,10
    800038d6:	8082                	ret

00000000800038d8 <strtod>:
    800038d8:	02000693          	li	a3,32
    800038dc:	4611                	li	a2,4
    800038de:	00054783          	lbu	a5,0(a0)
    800038e2:	ff77871b          	addiw	a4,a5,-9
    800038e6:	0ff77713          	zext.b	a4,a4
    800038ea:	08d78263          	beq	a5,a3,8000396e <strtod+0x96>
    800038ee:	08e67063          	bgeu	a2,a4,8000396e <strtod+0x96>
    800038f2:	02d00713          	li	a4,45
    800038f6:	06e78e63          	beq	a5,a4,80003972 <strtod+0x9a>
    800038fa:	02b00713          	li	a4,43
    800038fe:	08e78663          	beq	a5,a4,8000398a <strtod+0xb2>
    80003902:	00000717          	auipc	a4,0x0
    80003906:	78673587          	fld	fa1,1926(a4) # 80004088 <key+0x14>
    8000390a:	22b58553          	fmv.d	fa0,fa1
    8000390e:	fd07871b          	addiw	a4,a5,-48
    80003912:	0ff77613          	zext.b	a2,a4
    80003916:	46a5                	li	a3,9
    80003918:	f20007d3          	fmv.d.x	fa5,zero
    8000391c:	02c6e463          	bltu	a3,a2,80003944 <strtod+0x6c>
    80003920:	00000797          	auipc	a5,0x0
    80003924:	7787b687          	fld	fa3,1912(a5) # 80004098 <key+0x24>
    80003928:	4625                	li	a2,9
    8000392a:	00154783          	lbu	a5,1(a0)
    8000392e:	d2070753          	fcvt.d.w	fa4,a4
    80003932:	0505                	addi	a0,a0,1
    80003934:	fd07871b          	addiw	a4,a5,-48
    80003938:	0ff77693          	zext.b	a3,a4
    8000393c:	72d7f7c3          	fmadd.d	fa5,fa5,fa3,fa4
    80003940:	fed675e3          	bgeu	a2,a3,8000392a <strtod+0x52>
    80003944:	02e00713          	li	a4,46
    80003948:	0ce78363          	beq	a5,a4,80003a0e <strtod+0x136>
    8000394c:	00054703          	lbu	a4,0(a0)
    80003950:	0df77713          	andi	a4,a4,223
    80003954:	04500793          	li	a5,69
    80003958:	22b58753          	fmv.d	fa4,fa1
    8000395c:	04f70163          	beq	a4,a5,8000399e <strtod+0xc6>
    80003960:	12a7f553          	fmul.d	fa0,fa5,fa0
    80003964:	12e57553          	fmul.d	fa0,fa0,fa4
    80003968:	c191                	beqz	a1,8000396c <strtod+0x94>
    8000396a:	e188                	sd	a0,0(a1)
    8000396c:	8082                	ret
    8000396e:	0505                	addi	a0,a0,1
    80003970:	b7bd                	j	800038de <strtod+0x6>
    80003972:	00154783          	lbu	a5,1(a0)
    80003976:	00000717          	auipc	a4,0x0
    8000397a:	71a73507          	fld	fa0,1818(a4) # 80004090 <key+0x1c>
    8000397e:	0505                	addi	a0,a0,1
    80003980:	00000717          	auipc	a4,0x0
    80003984:	70873587          	fld	fa1,1800(a4) # 80004088 <key+0x14>
    80003988:	b759                	j	8000390e <strtod+0x36>
    8000398a:	00000797          	auipc	a5,0x0
    8000398e:	6fe7b587          	fld	fa1,1790(a5) # 80004088 <key+0x14>
    80003992:	00154783          	lbu	a5,1(a0)
    80003996:	22b58553          	fmv.d	fa0,fa1
    8000399a:	0505                	addi	a0,a0,1
    8000399c:	bf8d                	j	8000390e <strtod+0x36>
    8000399e:	00154803          	lbu	a6,1(a0)
    800039a2:	02d00793          	li	a5,45
    800039a6:	0cf80363          	beq	a6,a5,80003a6c <strtod+0x194>
    800039aa:	02b00793          	li	a5,43
    800039ae:	0ef80563          	beq	a6,a5,80003a98 <strtod+0x1c0>
    800039b2:	0505                	addi	a0,a0,1
    800039b4:	4705                	li	a4,1
    800039b6:	fd08069b          	addiw	a3,a6,-48
    800039ba:	0ff6f613          	zext.b	a2,a3
    800039be:	47a5                	li	a5,9
    800039c0:	0ec7e163          	bltu	a5,a2,80003aa2 <strtod+0x1ca>
    800039c4:	4601                	li	a2,0
    800039c6:	48a5                	li	a7,9
    800039c8:	00154803          	lbu	a6,1(a0)
    800039cc:	0026179b          	slliw	a5,a2,0x2
    800039d0:	9fb1                	addw	a5,a5,a2
    800039d2:	0017979b          	slliw	a5,a5,0x1
    800039d6:	00f6863b          	addw	a2,a3,a5
    800039da:	fd08069b          	addiw	a3,a6,-48
    800039de:	0ff6f813          	zext.b	a6,a3
    800039e2:	0505                	addi	a0,a0,1
    800039e4:	ff08f2e3          	bgeu	a7,a6,800039c8 <strtod+0xf0>
    800039e8:	02c7073b          	mulw	a4,a4,a2
    800039ec:	08075563          	bgez	a4,80003a76 <strtod+0x19e>
    800039f0:	22b58753          	fmv.d	fa4,fa1
    800039f4:	0017079b          	addiw	a5,a4,1
    800039f8:	00000717          	auipc	a4,0x0
    800039fc:	6a873687          	fld	fa3,1704(a4) # 800040a0 <key+0x2c>
    80003a00:	4705                	li	a4,1
    80003a02:	2785                	addiw	a5,a5,1
    80003a04:	12d77753          	fmul.d	fa4,fa4,fa3
    80003a08:	fee79de3          	bne	a5,a4,80003a02 <strtod+0x12a>
    80003a0c:	bf91                	j	80003960 <strtod+0x88>
    80003a0e:	00154703          	lbu	a4,1(a0)
    80003a12:	46a5                	li	a3,9
    80003a14:	0505                	addi	a0,a0,1
    80003a16:	fd07079b          	addiw	a5,a4,-48
    80003a1a:	0ff7f613          	zext.b	a2,a5
    80003a1e:	f2c6e9e3          	bltu	a3,a2,80003950 <strtod+0x78>
    80003a22:	d2078753          	fcvt.d.w	fa4,a5
    80003a26:	4325                	li	t1,9
    80003a28:	4781                	li	a5,0
    80003a2a:	00000717          	auipc	a4,0x0
    80003a2e:	67673687          	fld	fa3,1654(a4) # 800040a0 <key+0x2c>
    80003a32:	4685                	li	a3,1
    80003a34:	00154703          	lbu	a4,1(a0)
    80003a38:	02e7f7d3          	fadd.d	fa5,fa5,fa4
    80003a3c:	0505                	addi	a0,a0,1
    80003a3e:	fd07061b          	addiw	a2,a4,-48
    80003a42:	0ff67813          	zext.b	a6,a2
    80003a46:	0017889b          	addiw	a7,a5,1
    80003a4a:	f10363e3          	bltu	t1,a6,80003950 <strtod+0x78>
    80003a4e:	22b58753          	fmv.d	fa4,fa1
    80003a52:	40f007bb          	negw	a5,a5
    80003a56:	2785                	addiw	a5,a5,1
    80003a58:	12d77753          	fmul.d	fa4,fa4,fa3
    80003a5c:	fed79de3          	bne	a5,a3,80003a56 <strtod+0x17e>
    80003a60:	d2060653          	fcvt.d.w	fa2,a2
    80003a64:	87c6                	mv	a5,a7
    80003a66:	12e67753          	fmul.d	fa4,fa2,fa4
    80003a6a:	b7e9                	j	80003a34 <strtod+0x15c>
    80003a6c:	00254803          	lbu	a6,2(a0)
    80003a70:	577d                	li	a4,-1
    80003a72:	0509                	addi	a0,a0,2
    80003a74:	b789                	j	800039b6 <strtod+0xde>
    80003a76:	22b58753          	fmv.d	fa4,fa1
    80003a7a:	fff7079b          	addiw	a5,a4,-1
    80003a7e:	ee0701e3          	beqz	a4,80003960 <strtod+0x88>
    80003a82:	00000717          	auipc	a4,0x0
    80003a86:	61673687          	fld	fa3,1558(a4) # 80004098 <key+0x24>
    80003a8a:	577d                	li	a4,-1
    80003a8c:	37fd                	addiw	a5,a5,-1
    80003a8e:	12d77753          	fmul.d	fa4,fa4,fa3
    80003a92:	fee79de3          	bne	a5,a4,80003a8c <strtod+0x1b4>
    80003a96:	b5e9                	j	80003960 <strtod+0x88>
    80003a98:	00254803          	lbu	a6,2(a0)
    80003a9c:	4705                	li	a4,1
    80003a9e:	0509                	addi	a0,a0,2
    80003aa0:	bf19                	j	800039b6 <strtod+0xde>
    80003aa2:	22b58753          	fmv.d	fa4,fa1
    80003aa6:	bd6d                	j	80003960 <strtod+0x88>

0000000080003aa8 <atof>:
    80003aa8:	4581                	li	a1,0
    80003aaa:	b53d                	j	800038d8 <strtod>

0000000080003aac <strtoll>:
    80003aac:	872a                	mv	a4,a0
    80003aae:	4811                	li	a6,4
    80003ab0:	02000513          	li	a0,32
    80003ab4:	00074683          	lbu	a3,0(a4)
    80003ab8:	ff76879b          	addiw	a5,a3,-9
    80003abc:	0ff7f793          	zext.b	a5,a5
    80003ac0:	04a68963          	beq	a3,a0,80003b12 <strtoll+0x66>
    80003ac4:	04f87763          	bgeu	a6,a5,80003b12 <strtoll+0x66>
    80003ac8:	02d00793          	li	a5,45
    80003acc:	08f68663          	beq	a3,a5,80003b58 <strtoll+0xac>
    80003ad0:	02b00793          	li	a5,43
    80003ad4:	4e01                	li	t3,0
    80003ad6:	06f68d63          	beq	a3,a5,80003b50 <strtoll+0xa4>
    80003ada:	ca39                	beqz	a2,80003b30 <strtoll+0x84>
    80003adc:	47c1                	li	a5,16
    80003ade:	08f60263          	beq	a2,a5,80003b62 <strtoll+0xb6>
    80003ae2:	4501                	li	a0,0
    80003ae4:	48a5                	li	a7,9
    80003ae6:	4365                	li	t1,25
    80003ae8:	00074683          	lbu	a3,0(a4)
    80003aec:	fd06879b          	addiw	a5,a3,-48
    80003af0:	f9f6881b          	addiw	a6,a3,-97
    80003af4:	00f8f863          	bgeu	a7,a5,80003b04 <strtoll+0x58>
    80003af8:	fbf6879b          	addiw	a5,a3,-65
    80003afc:	01036d63          	bltu	t1,a6,80003b16 <strtoll+0x6a>
    80003b00:	fa96879b          	addiw	a5,a3,-87
    80003b04:	00c7df63          	bge	a5,a2,80003b22 <strtoll+0x76>
    80003b08:	02a60533          	mul	a0,a2,a0
    80003b0c:	0705                	addi	a4,a4,1
    80003b0e:	953e                	add	a0,a0,a5
    80003b10:	bfe1                	j	80003ae8 <strtoll+0x3c>
    80003b12:	0705                	addi	a4,a4,1
    80003b14:	b745                	j	80003ab4 <strtoll+0x8>
    80003b16:	00f36663          	bltu	t1,a5,80003b22 <strtoll+0x76>
    80003b1a:	fc96879b          	addiw	a5,a3,-55
    80003b1e:	fec7c5e3          	blt	a5,a2,80003b08 <strtoll+0x5c>
    80003b22:	c191                	beqz	a1,80003b26 <strtoll+0x7a>
    80003b24:	e198                	sd	a4,0(a1)
    80003b26:	000e0463          	beqz	t3,80003b2e <strtoll+0x82>
    80003b2a:	40a00533          	neg	a0,a0
    80003b2e:	8082                	ret
    80003b30:	03000793          	li	a5,48
    80003b34:	4629                	li	a2,10
    80003b36:	faf696e3          	bne	a3,a5,80003ae2 <strtoll+0x36>
    80003b3a:	00174783          	lbu	a5,1(a4)
    80003b3e:	05800693          	li	a3,88
    80003b42:	0df7f793          	andi	a5,a5,223
    80003b46:	02d78a63          	beq	a5,a3,80003b7a <strtoll+0xce>
    80003b4a:	0705                	addi	a4,a4,1
    80003b4c:	4621                	li	a2,8
    80003b4e:	bf51                	j	80003ae2 <strtoll+0x36>
    80003b50:	00174683          	lbu	a3,1(a4)
    80003b54:	0705                	addi	a4,a4,1
    80003b56:	b751                	j	80003ada <strtoll+0x2e>
    80003b58:	00174683          	lbu	a3,1(a4)
    80003b5c:	4e05                	li	t3,1
    80003b5e:	0705                	addi	a4,a4,1
    80003b60:	bfad                	j	80003ada <strtoll+0x2e>
    80003b62:	03000793          	li	a5,48
    80003b66:	f6f69ee3          	bne	a3,a5,80003ae2 <strtoll+0x36>
    80003b6a:	00174783          	lbu	a5,1(a4)
    80003b6e:	05800693          	li	a3,88
    80003b72:	0df7f793          	andi	a5,a5,223
    80003b76:	f6d796e3          	bne	a5,a3,80003ae2 <strtoll+0x36>
    80003b7a:	0709                	addi	a4,a4,2
    80003b7c:	4641                	li	a2,16
    80003b7e:	b795                	j	80003ae2 <strtoll+0x36>

0000000080003b80 <atoll>:
    80003b80:	872a                	mv	a4,a0
    80003b82:	02000613          	li	a2,32
    80003b86:	4591                	li	a1,4
    80003b88:	00074683          	lbu	a3,0(a4)
    80003b8c:	ff76879b          	addiw	a5,a3,-9
    80003b90:	0ff7f793          	zext.b	a5,a5
    80003b94:	04c68b63          	beq	a3,a2,80003bea <atoll+0x6a>
    80003b98:	04f5f963          	bgeu	a1,a5,80003bea <atoll+0x6a>
    80003b9c:	02d00793          	li	a5,45
    80003ba0:	06f68363          	beq	a3,a5,80003c06 <atoll+0x86>
    80003ba4:	02b00793          	li	a5,43
    80003ba8:	04f68363          	beq	a3,a5,80003bee <atoll+0x6e>
    80003bac:	fd06861b          	addiw	a2,a3,-48
    80003bb0:	0ff67693          	zext.b	a3,a2
    80003bb4:	47a5                	li	a5,9
    80003bb6:	4801                	li	a6,0
    80003bb8:	06d7e263          	bltu	a5,a3,80003c1c <atoll+0x9c>
    80003bbc:	4501                	li	a0,0
    80003bbe:	45a5                	li	a1,9
    80003bc0:	00174683          	lbu	a3,1(a4)
    80003bc4:	00251793          	slli	a5,a0,0x2
    80003bc8:	97aa                	add	a5,a5,a0
    80003bca:	0006051b          	sext.w	a0,a2
    80003bce:	fd06861b          	addiw	a2,a3,-48
    80003bd2:	0786                	slli	a5,a5,0x1
    80003bd4:	0ff67693          	zext.b	a3,a2
    80003bd8:	0705                	addi	a4,a4,1
    80003bda:	953e                	add	a0,a0,a5
    80003bdc:	fed5f2e3          	bgeu	a1,a3,80003bc0 <atoll+0x40>
    80003be0:	02080f63          	beqz	a6,80003c1e <atoll+0x9e>
    80003be4:	40a00533          	neg	a0,a0
    80003be8:	8082                	ret
    80003bea:	0705                	addi	a4,a4,1
    80003bec:	bf71                	j	80003b88 <atoll+0x8>
    80003bee:	00174683          	lbu	a3,1(a4)
    80003bf2:	47a5                	li	a5,9
    80003bf4:	0705                	addi	a4,a4,1
    80003bf6:	fd06861b          	addiw	a2,a3,-48
    80003bfa:	0ff67693          	zext.b	a3,a2
    80003bfe:	00d7ef63          	bltu	a5,a3,80003c1c <atoll+0x9c>
    80003c02:	4801                	li	a6,0
    80003c04:	bf65                	j	80003bbc <atoll+0x3c>
    80003c06:	00174683          	lbu	a3,1(a4)
    80003c0a:	47a5                	li	a5,9
    80003c0c:	0705                	addi	a4,a4,1
    80003c0e:	fd06861b          	addiw	a2,a3,-48
    80003c12:	0ff67693          	zext.b	a3,a2
    80003c16:	4805                	li	a6,1
    80003c18:	fad7f2e3          	bgeu	a5,a3,80003bbc <atoll+0x3c>
    80003c1c:	4501                	li	a0,0
    80003c1e:	8082                	ret

Disassembly of section .text.startup:

0000000080003c20 <.text.startup>:
    80003c20:	1141                	addi	sp,sp,-16
    80003c22:	00000517          	auipc	a0,0x0
    80003c26:	1a650513          	addi	a0,a0,422 # 80003dc8 <Nr+0x188>
    80003c2a:	e406                	sd	ra,8(sp)
    80003c2c:	fc6ff0ef          	jal	800033f2 <printstr>
    80003c30:	60a2                	ld	ra,8(sp)
    80003c32:	557d                	li	a0,-1
    80003c34:	0141                	addi	sp,sp,16
    80003c36:	8082                	ret
